
kernel:     file format elf64-littleriscv


Disassembly of section .text:

0000000080000000 <_entry>:
    80000000:	0000b117          	auipc	sp,0xb
    80000004:	28013103          	ld	sp,640(sp) # 8000b280 <_GLOBAL_OFFSET_TABLE_+0x50>
    80000008:	00001537          	lui	a0,0x1
    8000000c:	f14025f3          	csrr	a1,mhartid
    80000010:	00158593          	addi	a1,a1,1
    80000014:	02b50533          	mul	a0,a0,a1
    80000018:	00a10133          	add	sp,sp,a0
    8000001c:	5f8060ef          	jal	ra,80006614 <start>

0000000080000020 <spin>:
    80000020:	0000006f          	j	80000020 <spin>
	...

0000000080001000 <_ZN5Riscv13pushRegistersEv>:
.global _ZN5Riscv13pushRegistersEv // ovo omogucava koriscenje spolja, oznacavamo da je simbol globalan
.type _ZN5Riscv13pushRegistersEv, @function // oznacavamo tip simbola, neobavezno, ali smo fini :D
_ZN5Riscv13pushRegistersEv:
    addi sp, sp, -256
    80001000:	f0010113          	addi	sp,sp,-256
    // https://sourceware.org/binutils/docs/as/Irp.html
    .irp index, 3,4,5,6,7,8,9,10,11,12,13,14,15,16,17,18,19,20,21,22,23,24,25,26,27,28,29,30,31
    sd x\index, \index * 8(sp)
    .endr
    80001004:	00313c23          	sd	gp,24(sp)
    80001008:	02413023          	sd	tp,32(sp)
    8000100c:	02513423          	sd	t0,40(sp)
    80001010:	02613823          	sd	t1,48(sp)
    80001014:	02713c23          	sd	t2,56(sp)
    80001018:	04813023          	sd	s0,64(sp)
    8000101c:	04913423          	sd	s1,72(sp)
    80001020:	04a13823          	sd	a0,80(sp)
    80001024:	04b13c23          	sd	a1,88(sp)
    80001028:	06c13023          	sd	a2,96(sp)
    8000102c:	06d13423          	sd	a3,104(sp)
    80001030:	06e13823          	sd	a4,112(sp)
    80001034:	06f13c23          	sd	a5,120(sp)
    80001038:	09013023          	sd	a6,128(sp)
    8000103c:	09113423          	sd	a7,136(sp)
    80001040:	09213823          	sd	s2,144(sp)
    80001044:	09313c23          	sd	s3,152(sp)
    80001048:	0b413023          	sd	s4,160(sp)
    8000104c:	0b513423          	sd	s5,168(sp)
    80001050:	0b613823          	sd	s6,176(sp)
    80001054:	0b713c23          	sd	s7,184(sp)
    80001058:	0d813023          	sd	s8,192(sp)
    8000105c:	0d913423          	sd	s9,200(sp)
    80001060:	0da13823          	sd	s10,208(sp)
    80001064:	0db13c23          	sd	s11,216(sp)
    80001068:	0fc13023          	sd	t3,224(sp)
    8000106c:	0fd13423          	sd	t4,232(sp)
    80001070:	0fe13823          	sd	t5,240(sp)
    80001074:	0ff13c23          	sd	t6,248(sp)
    ret
    80001078:	00008067          	ret

000000008000107c <_ZN5Riscv12popRegistersEv>:
.type _ZN5Riscv12popRegistersEv, @function
_ZN5Riscv12popRegistersEv:
    // https://sourceware.org/binutils/docs/as/Irp.html
    .irp index, 3,4,5,6,7,8,9,10,11,12,13,14,15,16,17,18,19,20,21,22,23,24,25,26,27,28,29,30,31
    ld x\index, \index * 8(sp)
    .endr
    8000107c:	01813183          	ld	gp,24(sp)
    80001080:	02013203          	ld	tp,32(sp)
    80001084:	02813283          	ld	t0,40(sp)
    80001088:	03013303          	ld	t1,48(sp)
    8000108c:	03813383          	ld	t2,56(sp)
    80001090:	04013403          	ld	s0,64(sp)
    80001094:	04813483          	ld	s1,72(sp)
    80001098:	05013503          	ld	a0,80(sp)
    8000109c:	05813583          	ld	a1,88(sp)
    800010a0:	06013603          	ld	a2,96(sp)
    800010a4:	06813683          	ld	a3,104(sp)
    800010a8:	07013703          	ld	a4,112(sp)
    800010ac:	07813783          	ld	a5,120(sp)
    800010b0:	08013803          	ld	a6,128(sp)
    800010b4:	08813883          	ld	a7,136(sp)
    800010b8:	09013903          	ld	s2,144(sp)
    800010bc:	09813983          	ld	s3,152(sp)
    800010c0:	0a013a03          	ld	s4,160(sp)
    800010c4:	0a813a83          	ld	s5,168(sp)
    800010c8:	0b013b03          	ld	s6,176(sp)
    800010cc:	0b813b83          	ld	s7,184(sp)
    800010d0:	0c013c03          	ld	s8,192(sp)
    800010d4:	0c813c83          	ld	s9,200(sp)
    800010d8:	0d013d03          	ld	s10,208(sp)
    800010dc:	0d813d83          	ld	s11,216(sp)
    800010e0:	0e013e03          	ld	t3,224(sp)
    800010e4:	0e813e83          	ld	t4,232(sp)
    800010e8:	0f013f03          	ld	t5,240(sp)
    800010ec:	0f813f83          	ld	t6,248(sp)
    addi sp, sp, 256
    800010f0:	10010113          	addi	sp,sp,256
    ret
    800010f4:	00008067          	ret

00000000800010f8 <copy_and_swap>:
# a1 holds expected value
# a2 holds desired value
# a0 holds return value, 0 if successful, !0 otherwise
.global copy_and_swap
copy_and_swap:
    lr.w t0, (a0)          # Load original value.
    800010f8:	100522af          	lr.w	t0,(a0)
    bne t0, a1, fail       # Doesn’t match, so fail.
    800010fc:	00b29a63          	bne	t0,a1,80001110 <fail>
    sc.w t0, a2, (a0)      # Try to update.
    80001100:	18c522af          	sc.w	t0,a2,(a0)
    bnez t0, copy_and_swap # Retry if store-conditional failed.
    80001104:	fe029ae3          	bnez	t0,800010f8 <copy_and_swap>
    li a0, 0               # Set return to success.
    80001108:	00000513          	li	a0,0
    jr ra                  # Return.
    8000110c:	00008067          	ret

0000000080001110 <fail>:
    fail:
    li a0, 1               # Set return to failure.
    80001110:	00100513          	li	a0,1
    80001114:	00008067          	ret
	...

0000000080001120 <_ZN5Riscv14supervisorTrapEv>:
.align 4
.global _ZN5Riscv14supervisorTrapEv
.type _ZN5Riscv14supervisorTrapEv, @function
_ZN5Riscv14supervisorTrapEv:
    # push all registers to stack
    addi sp, sp, -256
    80001120:	f0010113          	addi	sp,sp,-256
    .irp index, 0,1,2,3,4,5,6,7,8,9,10,11,12,13,14,15,16,17,18,19,20,21,22,23,24,25,26,27,28,29,30,31
    sd x\index, \index * 8(sp)
    .endr
    80001124:	00013023          	sd	zero,0(sp)
    80001128:	00113423          	sd	ra,8(sp)
    8000112c:	00213823          	sd	sp,16(sp)
    80001130:	00313c23          	sd	gp,24(sp)
    80001134:	02413023          	sd	tp,32(sp)
    80001138:	02513423          	sd	t0,40(sp)
    8000113c:	02613823          	sd	t1,48(sp)
    80001140:	02713c23          	sd	t2,56(sp)
    80001144:	04813023          	sd	s0,64(sp)
    80001148:	04913423          	sd	s1,72(sp)
    8000114c:	04a13823          	sd	a0,80(sp)
    80001150:	04b13c23          	sd	a1,88(sp)
    80001154:	06c13023          	sd	a2,96(sp)
    80001158:	06d13423          	sd	a3,104(sp)
    8000115c:	06e13823          	sd	a4,112(sp)
    80001160:	06f13c23          	sd	a5,120(sp)
    80001164:	09013023          	sd	a6,128(sp)
    80001168:	09113423          	sd	a7,136(sp)
    8000116c:	09213823          	sd	s2,144(sp)
    80001170:	09313c23          	sd	s3,152(sp)
    80001174:	0b413023          	sd	s4,160(sp)
    80001178:	0b513423          	sd	s5,168(sp)
    8000117c:	0b613823          	sd	s6,176(sp)
    80001180:	0b713c23          	sd	s7,184(sp)
    80001184:	0d813023          	sd	s8,192(sp)
    80001188:	0d913423          	sd	s9,200(sp)
    8000118c:	0da13823          	sd	s10,208(sp)
    80001190:	0db13c23          	sd	s11,216(sp)
    80001194:	0fc13023          	sd	t3,224(sp)
    80001198:	0fd13423          	sd	t4,232(sp)
    8000119c:	0fe13823          	sd	t5,240(sp)
    800011a0:	0ff13c23          	sd	t6,248(sp)

    call _ZN5Riscv20handleSupervisorTrapEv
    800011a4:	3ac030ef          	jal	ra,80004550 <_ZN5Riscv20handleSupervisorTrapEv>

    # pop all registers from stack
    .irp index, 0,1,2,3,4,5,6,7,8,9,10,11,12,13,14,15,16,17,18,19,20,21,22,23,24,25,26,27,28,29,30,31
    ld x\index, \index * 8(sp)
    .endr
    800011a8:	00013003          	ld	zero,0(sp)
    800011ac:	00813083          	ld	ra,8(sp)
    800011b0:	01013103          	ld	sp,16(sp)
    800011b4:	01813183          	ld	gp,24(sp)
    800011b8:	02013203          	ld	tp,32(sp)
    800011bc:	02813283          	ld	t0,40(sp)
    800011c0:	03013303          	ld	t1,48(sp)
    800011c4:	03813383          	ld	t2,56(sp)
    800011c8:	04013403          	ld	s0,64(sp)
    800011cc:	04813483          	ld	s1,72(sp)
    800011d0:	05013503          	ld	a0,80(sp)
    800011d4:	05813583          	ld	a1,88(sp)
    800011d8:	06013603          	ld	a2,96(sp)
    800011dc:	06813683          	ld	a3,104(sp)
    800011e0:	07013703          	ld	a4,112(sp)
    800011e4:	07813783          	ld	a5,120(sp)
    800011e8:	08013803          	ld	a6,128(sp)
    800011ec:	08813883          	ld	a7,136(sp)
    800011f0:	09013903          	ld	s2,144(sp)
    800011f4:	09813983          	ld	s3,152(sp)
    800011f8:	0a013a03          	ld	s4,160(sp)
    800011fc:	0a813a83          	ld	s5,168(sp)
    80001200:	0b013b03          	ld	s6,176(sp)
    80001204:	0b813b83          	ld	s7,184(sp)
    80001208:	0c013c03          	ld	s8,192(sp)
    8000120c:	0c813c83          	ld	s9,200(sp)
    80001210:	0d013d03          	ld	s10,208(sp)
    80001214:	0d813d83          	ld	s11,216(sp)
    80001218:	0e013e03          	ld	t3,224(sp)
    8000121c:	0e813e83          	ld	t4,232(sp)
    80001220:	0f013f03          	ld	t5,240(sp)
    80001224:	0f813f83          	ld	t6,248(sp)
    addi sp, sp, 256
    80001228:	10010113          	addi	sp,sp,256

    sret
    8000122c:	10200073          	sret

0000000080001230 <_ZN3TCB14context_switchEPNS_7ContextES1_>:
.global _ZN3TCB14context_switchEPNS_7ContextES1_
.type _ZN3TCB14context_switchEPNS_7ContextES1_, @function
_ZN3TCB14context_switchEPNS_7ContextES1_:
    sd ra, 0 * 8(a0)
    80001230:	00153023          	sd	ra,0(a0) # 1000 <_entry-0x7ffff000>
    sd sp, 1 * 8(a0)
    80001234:	00253423          	sd	sp,8(a0)

    ld ra, 0 * 8(a1)
    80001238:	0005b083          	ld	ra,0(a1)
    ld sp, 1 * 8(a1)
    8000123c:	0085b103          	ld	sp,8(a1)

    80001240:	00008067          	ret

0000000080001244 <mem_alloc>:
#include "../h/syscall_c.h"
void *mem_alloc(size_t size) {
    80001244:	fb010113          	addi	sp,sp,-80
    80001248:	04113423          	sd	ra,72(sp)
    8000124c:	04813023          	sd	s0,64(sp)
    80001250:	05010413          	addi	s0,sp,80
    // prebaci u blokove i zaokruzi na gornji ceo
    size_t ssize = (size + MEM_BLOCK_SIZE - 1) / MEM_BLOCK_SIZE;
    80001254:	03f50513          	addi	a0,a0,63
    80001258:	00655513          	srli	a0,a0,0x6
    uint64 a5 = 0;
    uint64 a6 = 0;
    uint64 a7 = 0;

    // void* pokazivac
    uint64 empty[8]= {a0, a1, a2, a3, a4, a5, a6, a7};
    8000125c:	00100793          	li	a5,1
    80001260:	faf43823          	sd	a5,-80(s0)
    80001264:	faa43c23          	sd	a0,-72(s0)
    80001268:	fc043023          	sd	zero,-64(s0)
    8000126c:	fc043423          	sd	zero,-56(s0)
    80001270:	fc043823          	sd	zero,-48(s0)
    80001274:	fc043c23          	sd	zero,-40(s0)
    80001278:	fe043023          	sd	zero,-32(s0)
    8000127c:	fe043423          	sd	zero,-24(s0)

    // sistemski poziv
    return abi::sys_call(reinterpret_cast<void*>(empty));
    80001280:	fb040513          	addi	a0,s0,-80
    80001284:	00004097          	auipc	ra,0x4
    80001288:	09c080e7          	jalr	156(ra) # 80005320 <_ZN3abi8sys_callEPv>
}
    8000128c:	04813083          	ld	ra,72(sp)
    80001290:	04013403          	ld	s0,64(sp)
    80001294:	05010113          	addi	sp,sp,80
    80001298:	00008067          	ret

000000008000129c <mem_free>:

int mem_free(void *addr) {
    8000129c:	fb010113          	addi	sp,sp,-80
    800012a0:	04113423          	sd	ra,72(sp)
    800012a4:	04813023          	sd	s0,64(sp)
    800012a8:	05010413          	addi	s0,sp,80
    uint64 a5 = 0;
    uint64 a6 = 0;
    uint64 a7 = 0;

    // void* pokazivac
    uint64 empty[8]= {a0, a1, a2, a3, a4, a5, a6, a7};
    800012ac:	00200793          	li	a5,2
    800012b0:	faf43823          	sd	a5,-80(s0)
    800012b4:	faa43c23          	sd	a0,-72(s0)
    800012b8:	fc043023          	sd	zero,-64(s0)
    800012bc:	fc043423          	sd	zero,-56(s0)
    800012c0:	fc043823          	sd	zero,-48(s0)
    800012c4:	fc043c23          	sd	zero,-40(s0)
    800012c8:	fe043023          	sd	zero,-32(s0)
    800012cc:	fe043423          	sd	zero,-24(s0)

    // sistemski poziv
    return (uint64) abi::sys_call(reinterpret_cast<void *>(empty));
    800012d0:	fb040513          	addi	a0,s0,-80
    800012d4:	00004097          	auipc	ra,0x4
    800012d8:	04c080e7          	jalr	76(ra) # 80005320 <_ZN3abi8sys_callEPv>
}
    800012dc:	0005051b          	sext.w	a0,a0
    800012e0:	04813083          	ld	ra,72(sp)
    800012e4:	04013403          	ld	s0,64(sp)
    800012e8:	05010113          	addi	sp,sp,80
    800012ec:	00008067          	ret

00000000800012f0 <thread_create>:

int thread_create(thread_t *handle, void (*start_routine)(void *), void *arg) {
    800012f0:	f9010113          	addi	sp,sp,-112
    800012f4:	06113423          	sd	ra,104(sp)
    800012f8:	06813023          	sd	s0,96(sp)
    800012fc:	04913c23          	sd	s1,88(sp)
    80001300:	05213823          	sd	s2,80(sp)
    80001304:	05313423          	sd	s3,72(sp)
    80001308:	07010413          	addi	s0,sp,112
    8000130c:	00050993          	mv	s3,a0
    80001310:	00058493          	mv	s1,a1
    80001314:	00060913          	mv	s2,a2

    // inicijalizacija steka
    uint64 a4 = (start_routine != nullptr) ? (uint64)mem_alloc(DEFAULT_STACK_SIZE) : 0;
    80001318:	06058263          	beqz	a1,8000137c <thread_create+0x8c>
    8000131c:	00001537          	lui	a0,0x1
    80001320:	00000097          	auipc	ra,0x0
    80001324:	f24080e7          	jalr	-220(ra) # 80001244 <mem_alloc>
    a6 = (uint64)true;

    a5 = a7 = 0;

    // void* pokazivac
    uint64 empty[8]= {a0, a1, a2, a3, a4, a5, a6, a7};
    80001328:	01100793          	li	a5,17
    8000132c:	f8f43823          	sd	a5,-112(s0)
    80001330:	f9343c23          	sd	s3,-104(s0)
    80001334:	fa943023          	sd	s1,-96(s0)
    80001338:	fb243423          	sd	s2,-88(s0)
    8000133c:	faa43823          	sd	a0,-80(s0)
    80001340:	fa043c23          	sd	zero,-72(s0)
    80001344:	00100793          	li	a5,1
    80001348:	fcf43023          	sd	a5,-64(s0)
    8000134c:	fc043423          	sd	zero,-56(s0)

    // sistemski poziv
    return (uint64) abi::sys_call(reinterpret_cast<void *>(empty));
    80001350:	f9040513          	addi	a0,s0,-112
    80001354:	00004097          	auipc	ra,0x4
    80001358:	fcc080e7          	jalr	-52(ra) # 80005320 <_ZN3abi8sys_callEPv>

}
    8000135c:	0005051b          	sext.w	a0,a0
    80001360:	06813083          	ld	ra,104(sp)
    80001364:	06013403          	ld	s0,96(sp)
    80001368:	05813483          	ld	s1,88(sp)
    8000136c:	05013903          	ld	s2,80(sp)
    80001370:	04813983          	ld	s3,72(sp)
    80001374:	07010113          	addi	sp,sp,112
    80001378:	00008067          	ret
    uint64 a4 = (start_routine != nullptr) ? (uint64)mem_alloc(DEFAULT_STACK_SIZE) : 0;
    8000137c:	00000513          	li	a0,0
    80001380:	fa9ff06f          	j	80001328 <thread_create+0x38>

0000000080001384 <thread_dispatch>:

void thread_dispatch() {
    80001384:	fb010113          	addi	sp,sp,-80
    80001388:	04113423          	sd	ra,72(sp)
    8000138c:	04813023          	sd	s0,64(sp)
    80001390:	05010413          	addi	s0,sp,80
    uint64  a1, a2, a3, a4, a5, a6, a7;

    a1 = a2 = a3 = a4 = a5 = a6 = a7 = 0;

    // void* pokazivac
    uint64 empty[8]= {a0, a1, a2, a3, a4, a5, a6, a7};
    80001394:	01300793          	li	a5,19
    80001398:	faf43823          	sd	a5,-80(s0)
    8000139c:	fa043c23          	sd	zero,-72(s0)
    800013a0:	fc043023          	sd	zero,-64(s0)
    800013a4:	fc043423          	sd	zero,-56(s0)
    800013a8:	fc043823          	sd	zero,-48(s0)
    800013ac:	fc043c23          	sd	zero,-40(s0)
    800013b0:	fe043023          	sd	zero,-32(s0)
    800013b4:	fe043423          	sd	zero,-24(s0)

    // sistemski poziv
    abi::sys_call(reinterpret_cast<void *>(empty));
    800013b8:	fb040513          	addi	a0,s0,-80
    800013bc:	00004097          	auipc	ra,0x4
    800013c0:	f64080e7          	jalr	-156(ra) # 80005320 <_ZN3abi8sys_callEPv>

    // povratak
    return;

}
    800013c4:	04813083          	ld	ra,72(sp)
    800013c8:	04013403          	ld	s0,64(sp)
    800013cc:	05010113          	addi	sp,sp,80
    800013d0:	00008067          	ret

00000000800013d4 <thread_exit>:

int thread_exit() {
    800013d4:	fb010113          	addi	sp,sp,-80
    800013d8:	04113423          	sd	ra,72(sp)
    800013dc:	04813023          	sd	s0,64(sp)
    800013e0:	05010413          	addi	s0,sp,80
    // parametri
    uint64 a1, a2, a3, a4, a5, a6, a7;
    a1 = a2 = a3 = a4 = a5 = a6 = a7 = 0;

    // void* pokazivac
    uint64 empty[8]= {a0, a1, a2, a3, a4, a5, a6, a7};
    800013e4:	01200793          	li	a5,18
    800013e8:	faf43823          	sd	a5,-80(s0)
    800013ec:	fa043c23          	sd	zero,-72(s0)
    800013f0:	fc043023          	sd	zero,-64(s0)
    800013f4:	fc043423          	sd	zero,-56(s0)
    800013f8:	fc043823          	sd	zero,-48(s0)
    800013fc:	fc043c23          	sd	zero,-40(s0)
    80001400:	fe043023          	sd	zero,-32(s0)
    80001404:	fe043423          	sd	zero,-24(s0)

    // sistemski poziv
    return (uint64)abi::sys_call(reinterpret_cast<void *>(empty));
    80001408:	fb040513          	addi	a0,s0,-80
    8000140c:	00004097          	auipc	ra,0x4
    80001410:	f14080e7          	jalr	-236(ra) # 80005320 <_ZN3abi8sys_callEPv>

//    return 0;
}
    80001414:	0005051b          	sext.w	a0,a0
    80001418:	04813083          	ld	ra,72(sp)
    8000141c:	04013403          	ld	s0,64(sp)
    80001420:	05010113          	addi	sp,sp,80
    80001424:	00008067          	ret

0000000080001428 <time_sleep>:

int time_sleep(time_t time) {

    if(time == 0)return 0;
    80001428:	00051663          	bnez	a0,80001434 <time_sleep+0xc>
    8000142c:	00000513          	li	a0,0

    // sistemski poziv
    return (uint64)abi::sys_call(reinterpret_cast<void *>(empty));

//    return 0;
}
    80001430:	00008067          	ret
int time_sleep(time_t time) {
    80001434:	fb010113          	addi	sp,sp,-80
    80001438:	04113423          	sd	ra,72(sp)
    8000143c:	04813023          	sd	s0,64(sp)
    80001440:	05010413          	addi	s0,sp,80
    uint64 empty[8]= {a0, a1, a2, a3, a4, a5, a6, a7};
    80001444:	03100793          	li	a5,49
    80001448:	faf43823          	sd	a5,-80(s0)
    8000144c:	faa43c23          	sd	a0,-72(s0)
    80001450:	fc043023          	sd	zero,-64(s0)
    80001454:	fc043423          	sd	zero,-56(s0)
    80001458:	fc043823          	sd	zero,-48(s0)
    8000145c:	fc043c23          	sd	zero,-40(s0)
    80001460:	fe043023          	sd	zero,-32(s0)
    80001464:	fe043423          	sd	zero,-24(s0)
    return (uint64)abi::sys_call(reinterpret_cast<void *>(empty));
    80001468:	fb040513          	addi	a0,s0,-80
    8000146c:	00004097          	auipc	ra,0x4
    80001470:	eb4080e7          	jalr	-332(ra) # 80005320 <_ZN3abi8sys_callEPv>
    80001474:	0005051b          	sext.w	a0,a0
}
    80001478:	04813083          	ld	ra,72(sp)
    8000147c:	04013403          	ld	s0,64(sp)
    80001480:	05010113          	addi	sp,sp,80
    80001484:	00008067          	ret

0000000080001488 <sem_open>:

int sem_open(sem_t *handle, uint64 init) {
    80001488:	fb010113          	addi	sp,sp,-80
    8000148c:	04113423          	sd	ra,72(sp)
    80001490:	04813023          	sd	s0,64(sp)
    80001494:	05010413          	addi	s0,sp,80
    a1 = (uint64)handle;
    a2 = init;
    a3 = a4 = a5 = a6 = a7 = 0;

    // void* pokazivac
    uint64 empty[8]= {a0, a1, a2, a3, a4, a5, a6, a7};
    80001498:	02100793          	li	a5,33
    8000149c:	faf43823          	sd	a5,-80(s0)
    800014a0:	faa43c23          	sd	a0,-72(s0)
    800014a4:	fcb43023          	sd	a1,-64(s0)
    800014a8:	fc043423          	sd	zero,-56(s0)
    800014ac:	fc043823          	sd	zero,-48(s0)
    800014b0:	fc043c23          	sd	zero,-40(s0)
    800014b4:	fe043023          	sd	zero,-32(s0)
    800014b8:	fe043423          	sd	zero,-24(s0)

    // sistemski poziv
    return (uint64)abi::sys_call(reinterpret_cast<void *>(empty));
    800014bc:	fb040513          	addi	a0,s0,-80
    800014c0:	00004097          	auipc	ra,0x4
    800014c4:	e60080e7          	jalr	-416(ra) # 80005320 <_ZN3abi8sys_callEPv>
}
    800014c8:	0005051b          	sext.w	a0,a0
    800014cc:	04813083          	ld	ra,72(sp)
    800014d0:	04013403          	ld	s0,64(sp)
    800014d4:	05010113          	addi	sp,sp,80
    800014d8:	00008067          	ret

00000000800014dc <sem_close>:

int sem_close(sem_t handle) {
    800014dc:	fb010113          	addi	sp,sp,-80
    800014e0:	04113423          	sd	ra,72(sp)
    800014e4:	04813023          	sd	s0,64(sp)
    800014e8:	05010413          	addi	s0,sp,80
    uint64 a1, a2, a3, a4, a5, a6, a7;
    a1 = (uint64)handle;
    a2 = a3 = a4 = a5 = a6 = a7 = 0;

    // void* pokazivac
    uint64 empty[8]= {a0, a1, a2, a3, a4, a5, a6, a7};
    800014ec:	02200793          	li	a5,34
    800014f0:	faf43823          	sd	a5,-80(s0)
    800014f4:	faa43c23          	sd	a0,-72(s0)
    800014f8:	fc043023          	sd	zero,-64(s0)
    800014fc:	fc043423          	sd	zero,-56(s0)
    80001500:	fc043823          	sd	zero,-48(s0)
    80001504:	fc043c23          	sd	zero,-40(s0)
    80001508:	fe043023          	sd	zero,-32(s0)
    8000150c:	fe043423          	sd	zero,-24(s0)

    // sistemski poziv
    return (uint64)abi::sys_call(reinterpret_cast<void *>(empty));
    80001510:	fb040513          	addi	a0,s0,-80
    80001514:	00004097          	auipc	ra,0x4
    80001518:	e0c080e7          	jalr	-500(ra) # 80005320 <_ZN3abi8sys_callEPv>
}
    8000151c:	0005051b          	sext.w	a0,a0
    80001520:	04813083          	ld	ra,72(sp)
    80001524:	04013403          	ld	s0,64(sp)
    80001528:	05010113          	addi	sp,sp,80
    8000152c:	00008067          	ret

0000000080001530 <sem_wait>:

int sem_wait(sem_t id) {
    80001530:	fb010113          	addi	sp,sp,-80
    80001534:	04113423          	sd	ra,72(sp)
    80001538:	04813023          	sd	s0,64(sp)
    8000153c:	05010413          	addi	s0,sp,80
    uint64 a1, a2, a3, a4, a5, a6, a7;
    a1 = (uint64)id;
    a2 = a3 = a4 = a5 = a6 = a7 = 0;

    // void* pokazivac
    uint64 empty[8]= {a0, a1, a2, a3, a4, a5, a6, a7};
    80001540:	02300793          	li	a5,35
    80001544:	faf43823          	sd	a5,-80(s0)
    80001548:	faa43c23          	sd	a0,-72(s0)
    8000154c:	fc043023          	sd	zero,-64(s0)
    80001550:	fc043423          	sd	zero,-56(s0)
    80001554:	fc043823          	sd	zero,-48(s0)
    80001558:	fc043c23          	sd	zero,-40(s0)
    8000155c:	fe043023          	sd	zero,-32(s0)
    80001560:	fe043423          	sd	zero,-24(s0)

    // sistemski poziv
    return (uint64)abi::sys_call(reinterpret_cast<void *>(empty));
    80001564:	fb040513          	addi	a0,s0,-80
    80001568:	00004097          	auipc	ra,0x4
    8000156c:	db8080e7          	jalr	-584(ra) # 80005320 <_ZN3abi8sys_callEPv>
}
    80001570:	0005051b          	sext.w	a0,a0
    80001574:	04813083          	ld	ra,72(sp)
    80001578:	04013403          	ld	s0,64(sp)
    8000157c:	05010113          	addi	sp,sp,80
    80001580:	00008067          	ret

0000000080001584 <sem_signal>:

int sem_signal(sem_t id) {
    80001584:	fb010113          	addi	sp,sp,-80
    80001588:	04113423          	sd	ra,72(sp)
    8000158c:	04813023          	sd	s0,64(sp)
    80001590:	05010413          	addi	s0,sp,80
    uint64 a1, a2, a3, a4, a5, a6, a7;
    a1 = (uint64)id;
    a2 = a3 = a4 = a5 = a6 = a7 = 0;

    // void* pokazivac
    uint64 empty[8]= {a0, a1, a2, a3, a4, a5, a6, a7};
    80001594:	02400793          	li	a5,36
    80001598:	faf43823          	sd	a5,-80(s0)
    8000159c:	faa43c23          	sd	a0,-72(s0)
    800015a0:	fc043023          	sd	zero,-64(s0)
    800015a4:	fc043423          	sd	zero,-56(s0)
    800015a8:	fc043823          	sd	zero,-48(s0)
    800015ac:	fc043c23          	sd	zero,-40(s0)
    800015b0:	fe043023          	sd	zero,-32(s0)
    800015b4:	fe043423          	sd	zero,-24(s0)

    // sistemski poziv
    return (uint64)abi::sys_call(reinterpret_cast<void *>(empty));
    800015b8:	fb040513          	addi	a0,s0,-80
    800015bc:	00004097          	auipc	ra,0x4
    800015c0:	d64080e7          	jalr	-668(ra) # 80005320 <_ZN3abi8sys_callEPv>
}
    800015c4:	0005051b          	sext.w	a0,a0
    800015c8:	04813083          	ld	ra,72(sp)
    800015cc:	04013403          	ld	s0,64(sp)
    800015d0:	05010113          	addi	sp,sp,80
    800015d4:	00008067          	ret

00000000800015d8 <getc>:

char getc() {
    800015d8:	fb010113          	addi	sp,sp,-80
    800015dc:	04113423          	sd	ra,72(sp)
    800015e0:	04813023          	sd	s0,64(sp)
    800015e4:	05010413          	addi	s0,sp,80
    // parametri
    uint64 a1, a2, a3, a4, a5, a6, a7;
    a1 = a2 = a3 = a4 = a5 = a6 = a7 = 0;

    // void* pokazivac
    uint64 empty[8]= {a0, a1, a2, a3, a4, a5, a6, a7};
    800015e8:	04100793          	li	a5,65
    800015ec:	faf43823          	sd	a5,-80(s0)
    800015f0:	fa043c23          	sd	zero,-72(s0)
    800015f4:	fc043023          	sd	zero,-64(s0)
    800015f8:	fc043423          	sd	zero,-56(s0)
    800015fc:	fc043823          	sd	zero,-48(s0)
    80001600:	fc043c23          	sd	zero,-40(s0)
    80001604:	fe043023          	sd	zero,-32(s0)
    80001608:	fe043423          	sd	zero,-24(s0)

    // sistemski poziv
    uint64 ch = (uint64)abi::sys_call(reinterpret_cast<void *>(empty));
    8000160c:	fb040513          	addi	a0,s0,-80
    80001610:	00004097          	auipc	ra,0x4
    80001614:	d10080e7          	jalr	-752(ra) # 80005320 <_ZN3abi8sys_callEPv>

    return ch;
}
    80001618:	0ff57513          	andi	a0,a0,255
    8000161c:	04813083          	ld	ra,72(sp)
    80001620:	04013403          	ld	s0,64(sp)
    80001624:	05010113          	addi	sp,sp,80
    80001628:	00008067          	ret

000000008000162c <putc>:

void putc(char c) {
    8000162c:	fb010113          	addi	sp,sp,-80
    80001630:	04113423          	sd	ra,72(sp)
    80001634:	04813023          	sd	s0,64(sp)
    80001638:	05010413          	addi	s0,sp,80
    uint64 a1, a2, a3, a4, a5, a6, a7;
    a1 = (uint64)c;
    a2 = a3 = a4 = a5 = a6 = a7 = 0;

    // void* pokazivac
    uint64 empty[8]= {a0, a1, a2, a3, a4, a5, a6, a7};
    8000163c:	04200793          	li	a5,66
    80001640:	faf43823          	sd	a5,-80(s0)
    80001644:	faa43c23          	sd	a0,-72(s0)
    80001648:	fc043023          	sd	zero,-64(s0)
    8000164c:	fc043423          	sd	zero,-56(s0)
    80001650:	fc043823          	sd	zero,-48(s0)
    80001654:	fc043c23          	sd	zero,-40(s0)
    80001658:	fe043023          	sd	zero,-32(s0)
    8000165c:	fe043423          	sd	zero,-24(s0)

    // sistemski poziv
    abi::sys_call(reinterpret_cast<void *>(empty));
    80001660:	fb040513          	addi	a0,s0,-80
    80001664:	00004097          	auipc	ra,0x4
    80001668:	cbc080e7          	jalr	-836(ra) # 80005320 <_ZN3abi8sys_callEPv>
    return;
}
    8000166c:	04813083          	ld	ra,72(sp)
    80001670:	04013403          	ld	s0,64(sp)
    80001674:	05010113          	addi	sp,sp,80
    80001678:	00008067          	ret

000000008000167c <put_in_scheduler>:

void put_in_scheduler(thread_t tcb) {
    8000167c:	fb010113          	addi	sp,sp,-80
    80001680:	04113423          	sd	ra,72(sp)
    80001684:	04813023          	sd	s0,64(sp)
    80001688:	05010413          	addi	s0,sp,80
    uint64 a1, a2, a3, a4, a5, a6, a7;
    a1 = (uint64)tcb;
    a2 = a3 = a4 = a5 = a6 = a7 = 0;

    // void* pokazivac
    uint64 empty[8]= {a0, a1, a2, a3, a4, a5, a6, a7};
    8000168c:	05000793          	li	a5,80
    80001690:	faf43823          	sd	a5,-80(s0)
    80001694:	faa43c23          	sd	a0,-72(s0)
    80001698:	fc043023          	sd	zero,-64(s0)
    8000169c:	fc043423          	sd	zero,-56(s0)
    800016a0:	fc043823          	sd	zero,-48(s0)
    800016a4:	fc043c23          	sd	zero,-40(s0)
    800016a8:	fe043023          	sd	zero,-32(s0)
    800016ac:	fe043423          	sd	zero,-24(s0)

    // sistemski poziv
    abi::sys_call(reinterpret_cast<void *>(empty));
    800016b0:	fb040513          	addi	a0,s0,-80
    800016b4:	00004097          	auipc	ra,0x4
    800016b8:	c6c080e7          	jalr	-916(ra) # 80005320 <_ZN3abi8sys_callEPv>
    return;
}
    800016bc:	04813083          	ld	ra,72(sp)
    800016c0:	04013403          	ld	s0,64(sp)
    800016c4:	05010113          	addi	sp,sp,80
    800016c8:	00008067          	ret

00000000800016cc <switch_to_user>:

void switch_to_user() {
    800016cc:	fb010113          	addi	sp,sp,-80
    800016d0:	04113423          	sd	ra,72(sp)
    800016d4:	04813023          	sd	s0,64(sp)
    800016d8:	05010413          	addi	s0,sp,80
    // parametri
    uint64 a1, a2, a3, a4, a5, a6, a7;
    a1 = a2 = a3 = a4 = a5 = a6 = a7 = 0;

    // void* pokazivac
    uint64 empty[8]= {a0, a1, a2, a3, a4, a5, a6, a7};
    800016dc:	06000793          	li	a5,96
    800016e0:	faf43823          	sd	a5,-80(s0)
    800016e4:	fa043c23          	sd	zero,-72(s0)
    800016e8:	fc043023          	sd	zero,-64(s0)
    800016ec:	fc043423          	sd	zero,-56(s0)
    800016f0:	fc043823          	sd	zero,-48(s0)
    800016f4:	fc043c23          	sd	zero,-40(s0)
    800016f8:	fe043023          	sd	zero,-32(s0)
    800016fc:	fe043423          	sd	zero,-24(s0)

    // sistemski poziv
    abi::sys_call(reinterpret_cast<void *>(empty));
    80001700:	fb040513          	addi	a0,s0,-80
    80001704:	00004097          	auipc	ra,0x4
    80001708:	c1c080e7          	jalr	-996(ra) # 80005320 <_ZN3abi8sys_callEPv>
    return;
}
    8000170c:	04813083          	ld	ra,72(sp)
    80001710:	04013403          	ld	s0,64(sp)
    80001714:	05010113          	addi	sp,sp,80
    80001718:	00008067          	ret

000000008000171c <switch_to_priviledged>:

void switch_to_priviledged() {
    8000171c:	fb010113          	addi	sp,sp,-80
    80001720:	04113423          	sd	ra,72(sp)
    80001724:	04813023          	sd	s0,64(sp)
    80001728:	05010413          	addi	s0,sp,80
    // parametri
    uint64 a1, a2, a3, a4, a5, a6, a7;
    a1 = a2 = a3 = a4 = a5 = a6 = a7 = 0;

    // void* pokazivac
    uint64 empty[8]= {a0, a1, a2, a3, a4, a5, a6, a7};
    8000172c:	06100793          	li	a5,97
    80001730:	faf43823          	sd	a5,-80(s0)
    80001734:	fa043c23          	sd	zero,-72(s0)
    80001738:	fc043023          	sd	zero,-64(s0)
    8000173c:	fc043423          	sd	zero,-56(s0)
    80001740:	fc043823          	sd	zero,-48(s0)
    80001744:	fc043c23          	sd	zero,-40(s0)
    80001748:	fe043023          	sd	zero,-32(s0)
    8000174c:	fe043423          	sd	zero,-24(s0)

    // sistemski poziv
    abi::sys_call(reinterpret_cast<void *>(empty));
    80001750:	fb040513          	addi	a0,s0,-80
    80001754:	00004097          	auipc	ra,0x4
    80001758:	bcc080e7          	jalr	-1076(ra) # 80005320 <_ZN3abi8sys_callEPv>
    return;
}
    8000175c:	04813083          	ld	ra,72(sp)
    80001760:	04013403          	ld	s0,64(sp)
    80001764:	05010113          	addi	sp,sp,80
    80001768:	00008067          	ret

000000008000176c <set_periodic>:

void set_periodic(thread_t periodic_thread) {
    8000176c:	fb010113          	addi	sp,sp,-80
    80001770:	04113423          	sd	ra,72(sp)
    80001774:	04813023          	sd	s0,64(sp)
    80001778:	05010413          	addi	s0,sp,80
    uint64 a1, a2, a3, a4, a5, a6, a7;
    a1 = (uint64)periodic_thread;
    a2 = a3 = a4 = a5 = a6 = a7 = 0;

    // void* pokazivac
    uint64 empty[8]= {a0, a1, a2, a3, a4, a5, a6, a7};
    8000177c:	07000793          	li	a5,112
    80001780:	faf43823          	sd	a5,-80(s0)
    80001784:	faa43c23          	sd	a0,-72(s0)
    80001788:	fc043023          	sd	zero,-64(s0)
    8000178c:	fc043423          	sd	zero,-56(s0)
    80001790:	fc043823          	sd	zero,-48(s0)
    80001794:	fc043c23          	sd	zero,-40(s0)
    80001798:	fe043023          	sd	zero,-32(s0)
    8000179c:	fe043423          	sd	zero,-24(s0)

    // sistemski poziv
    abi::sys_call(reinterpret_cast<void *>(empty));
    800017a0:	fb040513          	addi	a0,s0,-80
    800017a4:	00004097          	auipc	ra,0x4
    800017a8:	b7c080e7          	jalr	-1156(ra) # 80005320 <_ZN3abi8sys_callEPv>
    return;
}
    800017ac:	04813083          	ld	ra,72(sp)
    800017b0:	04013403          	ld	s0,64(sp)
    800017b4:	05010113          	addi	sp,sp,80
    800017b8:	00008067          	ret

00000000800017bc <kill>:

void kill(thread_t thread) {
    800017bc:	fb010113          	addi	sp,sp,-80
    800017c0:	04113423          	sd	ra,72(sp)
    800017c4:	04813023          	sd	s0,64(sp)
    800017c8:	05010413          	addi	s0,sp,80
    uint64 a1, a2, a3, a4, a5, a6, a7;
    a1 = (uint64)thread;
    a2 = a3 = a4 = a5 = a6 = a7 = 0;

    // void* pokazivac
    uint64 empty[8]= {a0, a1, a2, a3, a4, a5, a6, a7};
    800017cc:	11100793          	li	a5,273
    800017d0:	faf43823          	sd	a5,-80(s0)
    800017d4:	faa43c23          	sd	a0,-72(s0)
    800017d8:	fc043023          	sd	zero,-64(s0)
    800017dc:	fc043423          	sd	zero,-56(s0)
    800017e0:	fc043823          	sd	zero,-48(s0)
    800017e4:	fc043c23          	sd	zero,-40(s0)
    800017e8:	fe043023          	sd	zero,-32(s0)
    800017ec:	fe043423          	sd	zero,-24(s0)

    // sistemski poziv
    abi::sys_call(reinterpret_cast<void *>(empty));
    800017f0:	fb040513          	addi	a0,s0,-80
    800017f4:	00004097          	auipc	ra,0x4
    800017f8:	b2c080e7          	jalr	-1236(ra) # 80005320 <_ZN3abi8sys_callEPv>
    return;
}
    800017fc:	04813083          	ld	ra,72(sp)
    80001800:	04013403          	ld	s0,64(sp)
    80001804:	05010113          	addi	sp,sp,80
    80001808:	00008067          	ret

000000008000180c <_ZN8MyBufferC1Ei>:
#include "../h/my_buffer.hpp"

MyBuffer::MyBuffer(int _cap) : cap(_cap + 1), head(0), tail(0) {
    8000180c:	fe010113          	addi	sp,sp,-32
    80001810:	00113c23          	sd	ra,24(sp)
    80001814:	00813823          	sd	s0,16(sp)
    80001818:	00913423          	sd	s1,8(sp)
    8000181c:	01213023          	sd	s2,0(sp)
    80001820:	02010413          	addi	s0,sp,32
    80001824:	00050493          	mv	s1,a0
    80001828:	00058913          	mv	s2,a1
    8000182c:	0015879b          	addiw	a5,a1,1
    80001830:	00f52023          	sw	a5,0(a0) # 1000 <_entry-0x7ffff000>
    80001834:	00052823          	sw	zero,16(a0)
    80001838:	00052a23          	sw	zero,20(a0)
class MemoryAllocator{
public:

    // dodaj instancu
    static MemoryAllocator& getInstance(){
        static MemoryAllocator instance;
    8000183c:	0000a797          	auipc	a5,0xa
    80001840:	ab47c783          	lbu	a5,-1356(a5) # 8000b2f0 <_ZGVZN15MemoryAllocator11getInstanceEvE8instance>
    80001844:	06078c63          	beqz	a5,800018bc <_ZN8MyBufferC1Ei+0xb0>
    buffer = (int *)MemoryAllocator::getInstance().memory_alloc(sizeof(int) * cap);
    80001848:	0004a583          	lw	a1,0(s1)
    8000184c:	00259593          	slli	a1,a1,0x2
    80001850:	0000a517          	auipc	a0,0xa
    80001854:	aa850513          	addi	a0,a0,-1368 # 8000b2f8 <_ZZN15MemoryAllocator11getInstanceEvE8instance>
    80001858:	00004097          	auipc	ra,0x4
    8000185c:	86c080e7          	jalr	-1940(ra) # 800050c4 <_ZN15MemoryAllocator12memory_allocEm>
    80001860:	00a4b423          	sd	a0,8(s1)
    MySemaphore::sem_open(&itemAvailable, 0);
    80001864:	00000593          	li	a1,0
    80001868:	02048513          	addi	a0,s1,32
    8000186c:	00001097          	auipc	ra,0x1
    80001870:	880080e7          	jalr	-1920(ra) # 800020ec <_ZN11MySemaphore8sem_openEPPS_m>
    MySemaphore::sem_open(&spaceAvailable, _cap);
    80001874:	00090593          	mv	a1,s2
    80001878:	01848513          	addi	a0,s1,24
    8000187c:	00001097          	auipc	ra,0x1
    80001880:	870080e7          	jalr	-1936(ra) # 800020ec <_ZN11MySemaphore8sem_openEPPS_m>
    MySemaphore::sem_open(&mutexHead, 1);
    80001884:	00100593          	li	a1,1
    80001888:	02848513          	addi	a0,s1,40
    8000188c:	00001097          	auipc	ra,0x1
    80001890:	860080e7          	jalr	-1952(ra) # 800020ec <_ZN11MySemaphore8sem_openEPPS_m>
    MySemaphore::sem_open(&mutexTail, 1);
    80001894:	00100593          	li	a1,1
    80001898:	03048513          	addi	a0,s1,48
    8000189c:	00001097          	auipc	ra,0x1
    800018a0:	850080e7          	jalr	-1968(ra) # 800020ec <_ZN11MySemaphore8sem_openEPPS_m>
}
    800018a4:	01813083          	ld	ra,24(sp)
    800018a8:	01013403          	ld	s0,16(sp)
    800018ac:	00813483          	ld	s1,8(sp)
    800018b0:	00013903          	ld	s2,0(sp)
    800018b4:	02010113          	addi	sp,sp,32
    800018b8:	00008067          	ret

    FreeMem* fmem_head = nullptr;
    size_t heapStart;
    size_t heapEnd;

    MemoryAllocator(){
    800018bc:	0000a617          	auipc	a2,0xa
    800018c0:	a3c60613          	addi	a2,a2,-1476 # 8000b2f8 <_ZZN15MemoryAllocator11getInstanceEvE8instance>

        heapStart = (size_t)HEAP_START_ADDR + ((size_t)HEAP_END_ADDR - (size_t)HEAP_START_ADDR) / 8 + 1;
    800018c4:	0000a797          	auipc	a5,0xa
    800018c8:	9d47b783          	ld	a5,-1580(a5) # 8000b298 <_GLOBAL_OFFSET_TABLE_+0x68>
    800018cc:	0007b703          	ld	a4,0(a5)
    800018d0:	0000a797          	auipc	a5,0xa
    800018d4:	9807b783          	ld	a5,-1664(a5) # 8000b250 <_GLOBAL_OFFSET_TABLE_+0x20>
    800018d8:	0007b783          	ld	a5,0(a5)
    800018dc:	40f706b3          	sub	a3,a4,a5
    800018e0:	0036d693          	srli	a3,a3,0x3
    800018e4:	00d787b3          	add	a5,a5,a3
    800018e8:	00178793          	addi	a5,a5,1
    800018ec:	00f63423          	sd	a5,8(a2)
        heapEnd = (size_t)HEAP_END_ADDR - 1;
    800018f0:	fff70713          	addi	a4,a4,-1
    800018f4:	00e63823          	sd	a4,16(a2)

        size_t sizeInBlocks = (heapEnd - heapStart) / MEM_BLOCK_SIZE;
    800018f8:	40f70733          	sub	a4,a4,a5
    800018fc:	00675713          	srli	a4,a4,0x6

        // poravnaj na prvu krstenu adresu
        fmem_head = (FreeMem*)(heapStart + ((heapStart % MEM_BLOCK_SIZE != 0)?(MEM_BLOCK_SIZE - heapStart % MEM_BLOCK_SIZE) : 0));
    80001900:	03f7f693          	andi	a3,a5,63
    80001904:	00068663          	beqz	a3,80001910 <_ZN8MyBufferC1Ei+0x104>
    80001908:	04000613          	li	a2,64
    8000190c:	40d606b3          	sub	a3,a2,a3
    80001910:	00d787b3          	add	a5,a5,a3
    80001914:	0000a697          	auipc	a3,0xa
    80001918:	9ef6b223          	sd	a5,-1564(a3) # 8000b2f8 <_ZZN15MemoryAllocator11getInstanceEvE8instance>

        // napravi node

        fmem_head->next = nullptr;
    8000191c:	0007b423          	sd	zero,8(a5)
        fmem_head->prev = nullptr;
    80001920:	0007b823          	sd	zero,16(a5)
        fmem_head->size = sizeInBlocks;
    80001924:	00e7b023          	sd	a4,0(a5)
        static MemoryAllocator instance;
    80001928:	00100793          	li	a5,1
    8000192c:	0000a717          	auipc	a4,0xa
    80001930:	9cf70223          	sb	a5,-1596(a4) # 8000b2f0 <_ZGVZN15MemoryAllocator11getInstanceEvE8instance>
    80001934:	f15ff06f          	j	80001848 <_ZN8MyBufferC1Ei+0x3c>

0000000080001938 <_ZN8MyBufferD1Ev>:

MyBuffer::~MyBuffer() {
    80001938:	fe010113          	addi	sp,sp,-32
    8000193c:	00113c23          	sd	ra,24(sp)
    80001940:	00813823          	sd	s0,16(sp)
    80001944:	00913423          	sd	s1,8(sp)
    80001948:	02010413          	addi	s0,sp,32
    8000194c:	00050493          	mv	s1,a0
    80001950:	0000a797          	auipc	a5,0xa
    80001954:	9a07c783          	lbu	a5,-1632(a5) # 8000b2f0 <_ZGVZN15MemoryAllocator11getInstanceEvE8instance>
    80001958:	04078e63          	beqz	a5,800019b4 <_ZN8MyBufferD1Ev+0x7c>
    MemoryAllocator::getInstance().memory_free((void*)buffer);
    8000195c:	0084b583          	ld	a1,8(s1)
    80001960:	0000a517          	auipc	a0,0xa
    80001964:	99850513          	addi	a0,a0,-1640 # 8000b2f8 <_ZZN15MemoryAllocator11getInstanceEvE8instance>
    80001968:	00004097          	auipc	ra,0x4
    8000196c:	830080e7          	jalr	-2000(ra) # 80005198 <_ZN15MemoryAllocator11memory_freeEPv>
    MySemaphore::sem_close(itemAvailable);
    80001970:	0204b503          	ld	a0,32(s1)
    80001974:	00001097          	auipc	ra,0x1
    80001978:	8a8080e7          	jalr	-1880(ra) # 8000221c <_ZN11MySemaphore9sem_closeEPS_>
    MySemaphore::sem_close(spaceAvailable);
    8000197c:	0184b503          	ld	a0,24(s1)
    80001980:	00001097          	auipc	ra,0x1
    80001984:	89c080e7          	jalr	-1892(ra) # 8000221c <_ZN11MySemaphore9sem_closeEPS_>
    MySemaphore::sem_close(mutexTail);
    80001988:	0304b503          	ld	a0,48(s1)
    8000198c:	00001097          	auipc	ra,0x1
    80001990:	890080e7          	jalr	-1904(ra) # 8000221c <_ZN11MySemaphore9sem_closeEPS_>
    MySemaphore::sem_close(mutexHead);
    80001994:	0284b503          	ld	a0,40(s1)
    80001998:	00001097          	auipc	ra,0x1
    8000199c:	884080e7          	jalr	-1916(ra) # 8000221c <_ZN11MySemaphore9sem_closeEPS_>
}
    800019a0:	01813083          	ld	ra,24(sp)
    800019a4:	01013403          	ld	s0,16(sp)
    800019a8:	00813483          	ld	s1,8(sp)
    800019ac:	02010113          	addi	sp,sp,32
    800019b0:	00008067          	ret
    MemoryAllocator(){
    800019b4:	0000a617          	auipc	a2,0xa
    800019b8:	94460613          	addi	a2,a2,-1724 # 8000b2f8 <_ZZN15MemoryAllocator11getInstanceEvE8instance>
        heapStart = (size_t)HEAP_START_ADDR + ((size_t)HEAP_END_ADDR - (size_t)HEAP_START_ADDR) / 8 + 1;
    800019bc:	0000a797          	auipc	a5,0xa
    800019c0:	8dc7b783          	ld	a5,-1828(a5) # 8000b298 <_GLOBAL_OFFSET_TABLE_+0x68>
    800019c4:	0007b703          	ld	a4,0(a5)
    800019c8:	0000a797          	auipc	a5,0xa
    800019cc:	8887b783          	ld	a5,-1912(a5) # 8000b250 <_GLOBAL_OFFSET_TABLE_+0x20>
    800019d0:	0007b783          	ld	a5,0(a5)
    800019d4:	40f706b3          	sub	a3,a4,a5
    800019d8:	0036d693          	srli	a3,a3,0x3
    800019dc:	00d787b3          	add	a5,a5,a3
    800019e0:	00178793          	addi	a5,a5,1
    800019e4:	00f63423          	sd	a5,8(a2)
        heapEnd = (size_t)HEAP_END_ADDR - 1;
    800019e8:	fff70713          	addi	a4,a4,-1
    800019ec:	00e63823          	sd	a4,16(a2)
        size_t sizeInBlocks = (heapEnd - heapStart) / MEM_BLOCK_SIZE;
    800019f0:	40f70733          	sub	a4,a4,a5
    800019f4:	00675713          	srli	a4,a4,0x6
        fmem_head = (FreeMem*)(heapStart + ((heapStart % MEM_BLOCK_SIZE != 0)?(MEM_BLOCK_SIZE - heapStart % MEM_BLOCK_SIZE) : 0));
    800019f8:	03f7f693          	andi	a3,a5,63
    800019fc:	00068663          	beqz	a3,80001a08 <_ZN8MyBufferD1Ev+0xd0>
    80001a00:	04000613          	li	a2,64
    80001a04:	40d606b3          	sub	a3,a2,a3
    80001a08:	00d787b3          	add	a5,a5,a3
    80001a0c:	0000a697          	auipc	a3,0xa
    80001a10:	8ef6b623          	sd	a5,-1812(a3) # 8000b2f8 <_ZZN15MemoryAllocator11getInstanceEvE8instance>
        fmem_head->next = nullptr;
    80001a14:	0007b423          	sd	zero,8(a5)
        fmem_head->prev = nullptr;
    80001a18:	0007b823          	sd	zero,16(a5)
        fmem_head->size = sizeInBlocks;
    80001a1c:	00e7b023          	sd	a4,0(a5)
        static MemoryAllocator instance;
    80001a20:	00100793          	li	a5,1
    80001a24:	0000a717          	auipc	a4,0xa
    80001a28:	8cf70623          	sb	a5,-1844(a4) # 8000b2f0 <_ZGVZN15MemoryAllocator11getInstanceEvE8instance>
    80001a2c:	f31ff06f          	j	8000195c <_ZN8MyBufferD1Ev+0x24>

0000000080001a30 <_ZN8MyBuffer3putEi>:

void MyBuffer::put(int val) {
    80001a30:	fe010113          	addi	sp,sp,-32
    80001a34:	00113c23          	sd	ra,24(sp)
    80001a38:	00813823          	sd	s0,16(sp)
    80001a3c:	00913423          	sd	s1,8(sp)
    80001a40:	01213023          	sd	s2,0(sp)
    80001a44:	02010413          	addi	s0,sp,32
    80001a48:	00050493          	mv	s1,a0
    80001a4c:	00058913          	mv	s2,a1
    MySemaphore::sem_wait(spaceAvailable);
    80001a50:	01853503          	ld	a0,24(a0)
    80001a54:	00001097          	auipc	ra,0x1
    80001a58:	8e0080e7          	jalr	-1824(ra) # 80002334 <_ZN11MySemaphore8sem_waitEPS_>

    MySemaphore::sem_wait(mutexTail);
    80001a5c:	0304b503          	ld	a0,48(s1)
    80001a60:	00001097          	auipc	ra,0x1
    80001a64:	8d4080e7          	jalr	-1836(ra) # 80002334 <_ZN11MySemaphore8sem_waitEPS_>
    buffer[tail] = val;
    80001a68:	0084b783          	ld	a5,8(s1)
    80001a6c:	0144a703          	lw	a4,20(s1)
    80001a70:	00271713          	slli	a4,a4,0x2
    80001a74:	00e787b3          	add	a5,a5,a4
    80001a78:	0127a023          	sw	s2,0(a5)
    tail = (tail + 1) % cap;
    80001a7c:	0144a783          	lw	a5,20(s1)
    80001a80:	0017879b          	addiw	a5,a5,1
    80001a84:	0004a703          	lw	a4,0(s1)
    80001a88:	02e7e7bb          	remw	a5,a5,a4
    80001a8c:	00f4aa23          	sw	a5,20(s1)
    MySemaphore::sem_signal(mutexTail);
    80001a90:	0304b503          	ld	a0,48(s1)
    80001a94:	00001097          	auipc	ra,0x1
    80001a98:	970080e7          	jalr	-1680(ra) # 80002404 <_ZN11MySemaphore10sem_signalEPS_>

    MySemaphore::sem_signal(itemAvailable);
    80001a9c:	0204b503          	ld	a0,32(s1)
    80001aa0:	00001097          	auipc	ra,0x1
    80001aa4:	964080e7          	jalr	-1692(ra) # 80002404 <_ZN11MySemaphore10sem_signalEPS_>

}
    80001aa8:	01813083          	ld	ra,24(sp)
    80001aac:	01013403          	ld	s0,16(sp)
    80001ab0:	00813483          	ld	s1,8(sp)
    80001ab4:	00013903          	ld	s2,0(sp)
    80001ab8:	02010113          	addi	sp,sp,32
    80001abc:	00008067          	ret

0000000080001ac0 <_ZN8MyBuffer3getEv>:

int MyBuffer::get() {
    80001ac0:	fe010113          	addi	sp,sp,-32
    80001ac4:	00113c23          	sd	ra,24(sp)
    80001ac8:	00813823          	sd	s0,16(sp)
    80001acc:	00913423          	sd	s1,8(sp)
    80001ad0:	01213023          	sd	s2,0(sp)
    80001ad4:	02010413          	addi	s0,sp,32
    80001ad8:	00050493          	mv	s1,a0
    MySemaphore::sem_wait(itemAvailable);
    80001adc:	02053503          	ld	a0,32(a0)
    80001ae0:	00001097          	auipc	ra,0x1
    80001ae4:	854080e7          	jalr	-1964(ra) # 80002334 <_ZN11MySemaphore8sem_waitEPS_>

    MySemaphore::sem_wait(mutexHead);
    80001ae8:	0284b503          	ld	a0,40(s1)
    80001aec:	00001097          	auipc	ra,0x1
    80001af0:	848080e7          	jalr	-1976(ra) # 80002334 <_ZN11MySemaphore8sem_waitEPS_>

    int ret = buffer[head];
    80001af4:	0084b703          	ld	a4,8(s1)
    80001af8:	0104a783          	lw	a5,16(s1)
    80001afc:	00279693          	slli	a3,a5,0x2
    80001b00:	00d70733          	add	a4,a4,a3
    80001b04:	00072903          	lw	s2,0(a4)
    head = (head + 1) % cap;
    80001b08:	0017879b          	addiw	a5,a5,1
    80001b0c:	0004a703          	lw	a4,0(s1)
    80001b10:	02e7e7bb          	remw	a5,a5,a4
    80001b14:	00f4a823          	sw	a5,16(s1)
    MySemaphore::sem_signal(mutexHead);
    80001b18:	0284b503          	ld	a0,40(s1)
    80001b1c:	00001097          	auipc	ra,0x1
    80001b20:	8e8080e7          	jalr	-1816(ra) # 80002404 <_ZN11MySemaphore10sem_signalEPS_>

    MySemaphore::sem_signal(spaceAvailable);
    80001b24:	0184b503          	ld	a0,24(s1)
    80001b28:	00001097          	auipc	ra,0x1
    80001b2c:	8dc080e7          	jalr	-1828(ra) # 80002404 <_ZN11MySemaphore10sem_signalEPS_>

    return ret;
}
    80001b30:	00090513          	mv	a0,s2
    80001b34:	01813083          	ld	ra,24(sp)
    80001b38:	01013403          	ld	s0,16(sp)
    80001b3c:	00813483          	ld	s1,8(sp)
    80001b40:	00013903          	ld	s2,0(sp)
    80001b44:	02010113          	addi	sp,sp,32
    80001b48:	00008067          	ret

0000000080001b4c <_ZN8MyBuffer6getCntEv>:

int MyBuffer::getCnt() {
    80001b4c:	fe010113          	addi	sp,sp,-32
    80001b50:	00113c23          	sd	ra,24(sp)
    80001b54:	00813823          	sd	s0,16(sp)
    80001b58:	00913423          	sd	s1,8(sp)
    80001b5c:	01213023          	sd	s2,0(sp)
    80001b60:	02010413          	addi	s0,sp,32
    80001b64:	00050493          	mv	s1,a0
    int ret;

    MySemaphore::sem_wait(mutexHead);
    80001b68:	02853503          	ld	a0,40(a0)
    80001b6c:	00000097          	auipc	ra,0x0
    80001b70:	7c8080e7          	jalr	1992(ra) # 80002334 <_ZN11MySemaphore8sem_waitEPS_>
    MySemaphore::sem_wait(mutexTail);
    80001b74:	0304b503          	ld	a0,48(s1)
    80001b78:	00000097          	auipc	ra,0x0
    80001b7c:	7bc080e7          	jalr	1980(ra) # 80002334 <_ZN11MySemaphore8sem_waitEPS_>

    if (tail >= head) {
    80001b80:	0144a783          	lw	a5,20(s1)
    80001b84:	0104a903          	lw	s2,16(s1)
    80001b88:	0327ce63          	blt	a5,s2,80001bc4 <_ZN8MyBuffer6getCntEv+0x78>
        ret = tail - head;
    80001b8c:	4127893b          	subw	s2,a5,s2
    } else {
        ret = cap - head + tail;
    }

    MySemaphore::sem_signal(mutexTail);
    80001b90:	0304b503          	ld	a0,48(s1)
    80001b94:	00001097          	auipc	ra,0x1
    80001b98:	870080e7          	jalr	-1936(ra) # 80002404 <_ZN11MySemaphore10sem_signalEPS_>
    MySemaphore::sem_signal(mutexHead);
    80001b9c:	0284b503          	ld	a0,40(s1)
    80001ba0:	00001097          	auipc	ra,0x1
    80001ba4:	864080e7          	jalr	-1948(ra) # 80002404 <_ZN11MySemaphore10sem_signalEPS_>

    return ret;
}
    80001ba8:	00090513          	mv	a0,s2
    80001bac:	01813083          	ld	ra,24(sp)
    80001bb0:	01013403          	ld	s0,16(sp)
    80001bb4:	00813483          	ld	s1,8(sp)
    80001bb8:	00013903          	ld	s2,0(sp)
    80001bbc:	02010113          	addi	sp,sp,32
    80001bc0:	00008067          	ret
        ret = cap - head + tail;
    80001bc4:	0004a703          	lw	a4,0(s1)
    80001bc8:	4127093b          	subw	s2,a4,s2
    80001bcc:	00f9093b          	addw	s2,s2,a5
    80001bd0:	fc1ff06f          	j	80001b90 <_ZN8MyBuffer6getCntEv+0x44>

0000000080001bd4 <_ZN11BuddySystemC1Ev>:
//
// Created by os on 8/12/23.

#include "../h/Buddy.h"

BuddySystem::BuddySystem(){
    80001bd4:	ff010113          	addi	sp,sp,-16
    80001bd8:	00813423          	sd	s0,8(sp)
    80001bdc:	01010413          	addi	s0,sp,16

}
    80001be0:	00813403          	ld	s0,8(sp)
    80001be4:	01010113          	addi	sp,sp,16
    80001be8:	00008067          	ret

0000000080001bec <_ZN11BuddySystem13insertInArrayEmm>:
    }
    return position;
}

// vraca na kojem mestu je node ubacen u nizu arr[position]
int BuddySystem::insertInArray(size_t position, size_t addr) {
    80001bec:	ff010113          	addi	sp,sp,-16
    80001bf0:	00813423          	sd	s0,8(sp)
    80001bf4:	01010413          	addi	s0,sp,16
    80001bf8:	00050693          	mv	a3,a0
    MemNode* node = (MemNode*)addr;

    if(!arr[position]){
    80001bfc:	00359793          	slli	a5,a1,0x3
    80001c00:	00f507b3          	add	a5,a0,a5
    80001c04:	0007b783          	ld	a5,0(a5)
    80001c08:	02078263          	beqz	a5,80001c2c <_ZN11BuddySystem13insertInArrayEmm+0x40>
        arr[position] = node;
        return 0;
    }

    int cnt = 0;
    MemNode* prev = nullptr, * curr = arr[position];
    80001c0c:	00000713          	li	a4,0
    int cnt = 0;
    80001c10:	00000513          	li	a0,0
    while(curr and (size_t)curr < (size_t)node){
    80001c14:	02078663          	beqz	a5,80001c40 <_ZN11BuddySystem13insertInArrayEmm+0x54>
    80001c18:	02c7f463          	bgeu	a5,a2,80001c40 <_ZN11BuddySystem13insertInArrayEmm+0x54>
        prev = curr;
        curr = curr->next;
        cnt++;
    80001c1c:	0015051b          	addiw	a0,a0,1
        prev = curr;
    80001c20:	00078713          	mv	a4,a5
        curr = curr->next;
    80001c24:	0007b783          	ld	a5,0(a5)
    while(curr and (size_t)curr < (size_t)node){
    80001c28:	fedff06f          	j	80001c14 <_ZN11BuddySystem13insertInArrayEmm+0x28>
        arr[position] = node;
    80001c2c:	00359593          	slli	a1,a1,0x3
    80001c30:	00b506b3          	add	a3,a0,a1
    80001c34:	00c6b023          	sd	a2,0(a3)
        return 0;
    80001c38:	00000513          	li	a0,0
    80001c3c:	0100006f          	j	80001c4c <_ZN11BuddySystem13insertInArrayEmm+0x60>
    }
    node->next = curr;
    80001c40:	00f63023          	sd	a5,0(a2)
    if(prev)prev->next = node;
    80001c44:	00070a63          	beqz	a4,80001c58 <_ZN11BuddySystem13insertInArrayEmm+0x6c>
    80001c48:	00c73023          	sd	a2,0(a4)
    else arr[position] = node;
    return cnt;
}
    80001c4c:	00813403          	ld	s0,8(sp)
    80001c50:	01010113          	addi	sp,sp,16
    80001c54:	00008067          	ret
    else arr[position] = node;
    80001c58:	00359593          	slli	a1,a1,0x3
    80001c5c:	00b686b3          	add	a3,a3,a1
    80001c60:	00c6b023          	sd	a2,0(a3)
    80001c64:	fe9ff06f          	j	80001c4c <_ZN11BuddySystem13insertInArrayEmm+0x60>

0000000080001c68 <_ZN11BuddySystem13splitAndOrderEmm>:
size_t BuddySystem::splitAndOrder(size_t position, size_t required_size) {
    80001c68:	fc010113          	addi	sp,sp,-64
    80001c6c:	02113c23          	sd	ra,56(sp)
    80001c70:	02813823          	sd	s0,48(sp)
    80001c74:	02913423          	sd	s1,40(sp)
    80001c78:	03213023          	sd	s2,32(sp)
    80001c7c:	01313c23          	sd	s3,24(sp)
    80001c80:	01413823          	sd	s4,16(sp)
    80001c84:	01513423          	sd	s5,8(sp)
    80001c88:	04010413          	addi	s0,sp,64
    80001c8c:	00050a13          	mv	s4,a0
    80001c90:	00058493          	mv	s1,a1
    80001c94:	00060a93          	mv	s5,a2
    int insertInArray(size_t position, size_t addr);
    int tryToMerge(MemNode* left, MemNode* right, size_t position);

    size_t static pow(size_t deg){
        size_t tmp = 1;
        for(size_t i = 0; i < deg; i++){
    80001c98:	00000793          	li	a5,0
        size_t tmp = 1;
    80001c9c:	00100913          	li	s2,1
        for(size_t i = 0; i < deg; i++){
    80001ca0:	0097f863          	bgeu	a5,s1,80001cb0 <_ZN11BuddySystem13splitAndOrderEmm+0x48>
            tmp <<= 1;
    80001ca4:	00191913          	slli	s2,s2,0x1
        for(size_t i = 0; i < deg; i++){
    80001ca8:	00178793          	addi	a5,a5,1
    80001cac:	ff5ff06f          	j	80001ca0 <_ZN11BuddySystem13splitAndOrderEmm+0x38>
    while((val >> 1) >= required_size && (val >> 1) >= BLOCK_SIZE){
    80001cb0:	00195913          	srli	s2,s2,0x1
    80001cb4:	07596463          	bltu	s2,s5,80001d1c <_ZN11BuddySystem13splitAndOrderEmm+0xb4>
    80001cb8:	000017b7          	lui	a5,0x1
    80001cbc:	06f96063          	bltu	s2,a5,80001d1c <_ZN11BuddySystem13splitAndOrderEmm+0xb4>
        MemNode* tmp = arr[position];
    80001cc0:	00349793          	slli	a5,s1,0x3
    80001cc4:	00fa07b3          	add	a5,s4,a5
    80001cc8:	0007b603          	ld	a2,0(a5) # 1000 <_entry-0x7ffff000>
        arr[position] = arr[position]->next;
    80001ccc:	00063703          	ld	a4,0(a2)
    80001cd0:	00e7b023          	sd	a4,0(a5)
        tmp->next = nullptr;
    80001cd4:	00063023          	sd	zero,0(a2)
        tmp->size >>= 1;
    80001cd8:	00863783          	ld	a5,8(a2)
    80001cdc:	0017d793          	srli	a5,a5,0x1
    80001ce0:	00f63423          	sd	a5,8(a2)
        MemNode* newNode = (MemNode*)((size_t)tmp + tmp->size);
    80001ce4:	00c789b3          	add	s3,a5,a2
        newNode->size = tmp->size;
    80001ce8:	00f9b423          	sd	a5,8(s3)
        newNode->next = nullptr;
    80001cec:	0009b023          	sd	zero,0(s3)
        position--;
    80001cf0:	fff48493          	addi	s1,s1,-1
        insertInArray(position, (size_t)tmp);
    80001cf4:	00048593          	mv	a1,s1
    80001cf8:	000a0513          	mv	a0,s4
    80001cfc:	00000097          	auipc	ra,0x0
    80001d00:	ef0080e7          	jalr	-272(ra) # 80001bec <_ZN11BuddySystem13insertInArrayEmm>
        insertInArray(position, (size_t)newNode);
    80001d04:	00098613          	mv	a2,s3
    80001d08:	00048593          	mv	a1,s1
    80001d0c:	000a0513          	mv	a0,s4
    80001d10:	00000097          	auipc	ra,0x0
    80001d14:	edc080e7          	jalr	-292(ra) # 80001bec <_ZN11BuddySystem13insertInArrayEmm>
    while((val >> 1) >= required_size && (val >> 1) >= BLOCK_SIZE){
    80001d18:	f99ff06f          	j	80001cb0 <_ZN11BuddySystem13splitAndOrderEmm+0x48>
}
    80001d1c:	00048513          	mv	a0,s1
    80001d20:	03813083          	ld	ra,56(sp)
    80001d24:	03013403          	ld	s0,48(sp)
    80001d28:	02813483          	ld	s1,40(sp)
    80001d2c:	02013903          	ld	s2,32(sp)
    80001d30:	01813983          	ld	s3,24(sp)
    80001d34:	01013a03          	ld	s4,16(sp)
    80001d38:	00813a83          	ld	s5,8(sp)
    80001d3c:	04010113          	addi	sp,sp,64
    80001d40:	00008067          	ret

0000000080001d44 <_ZN11BuddySystem10buddyAllocEm>:
void* BuddySystem::buddyAlloc(size_t size) {
    80001d44:	fe010113          	addi	sp,sp,-32
    80001d48:	00113c23          	sd	ra,24(sp)
    80001d4c:	00813823          	sd	s0,16(sp)
    80001d50:	00913423          	sd	s1,8(sp)
    80001d54:	02010413          	addi	s0,sp,32
    80001d58:	00050493          	mv	s1,a0
    80001d5c:	00058713          	mv	a4,a1
    for(size_t i = 0; i < 40; i++){
    80001d60:	00000593          	li	a1,0
    80001d64:	0080006f          	j	80001d6c <_ZN11BuddySystem10buddyAllocEm+0x28>
    80001d68:	00158593          	addi	a1,a1,1
    80001d6c:	02700793          	li	a5,39
    80001d70:	06b7e063          	bltu	a5,a1,80001dd0 <_ZN11BuddySystem10buddyAllocEm+0x8c>
        if(arr[i] && arr[i]->size >= size + sizeof(size_t)){
    80001d74:	00359793          	slli	a5,a1,0x3
    80001d78:	00f487b3          	add	a5,s1,a5
    80001d7c:	0007b783          	ld	a5,0(a5)
    80001d80:	fe0784e3          	beqz	a5,80001d68 <_ZN11BuddySystem10buddyAllocEm+0x24>
    80001d84:	0087b783          	ld	a5,8(a5)
    80001d88:	00870613          	addi	a2,a4,8
    80001d8c:	fcc7eee3          	bltu	a5,a2,80001d68 <_ZN11BuddySystem10buddyAllocEm+0x24>
            position = splitAndOrder(i, size + sizeof(size_t));
    80001d90:	00048513          	mv	a0,s1
    80001d94:	00000097          	auipc	ra,0x0
    80001d98:	ed4080e7          	jalr	-300(ra) # 80001c68 <_ZN11BuddySystem13splitAndOrderEmm>
    if(position == 50)return 0;
    80001d9c:	03200793          	li	a5,50
    80001da0:	04f50a63          	beq	a0,a5,80001df4 <_ZN11BuddySystem10buddyAllocEm+0xb0>
    MemNode* node = arr[position];
    80001da4:	00351793          	slli	a5,a0,0x3
    80001da8:	00f484b3          	add	s1,s1,a5
    80001dac:	0004b683          	ld	a3,0(s1)
    arr[position] = arr[position]->next;
    80001db0:	0006b783          	ld	a5,0(a3)
    80001db4:	00f4b023          	sd	a5,0(s1)
    80001db8:	00000793          	li	a5,0
        size_t tmp = 1;
    80001dbc:	00100713          	li	a4,1
        for(size_t i = 0; i < deg; i++){
    80001dc0:	00a7fc63          	bgeu	a5,a0,80001dd8 <_ZN11BuddySystem10buddyAllocEm+0x94>
            tmp <<= 1;
    80001dc4:	00171713          	slli	a4,a4,0x1
        for(size_t i = 0; i < deg; i++){
    80001dc8:	00178793          	addi	a5,a5,1
    80001dcc:	ff5ff06f          	j	80001dc0 <_ZN11BuddySystem10buddyAllocEm+0x7c>
    size_t position = 50;
    80001dd0:	03200513          	li	a0,50
    80001dd4:	fc9ff06f          	j	80001d9c <_ZN11BuddySystem10buddyAllocEm+0x58>
    *((size_t*)node) = pow(position);
    80001dd8:	00e6b023          	sd	a4,0(a3)
    return (void*)((size_t)node + sizeof(size_t));
    80001ddc:	00868513          	addi	a0,a3,8
}
    80001de0:	01813083          	ld	ra,24(sp)
    80001de4:	01013403          	ld	s0,16(sp)
    80001de8:	00813483          	ld	s1,8(sp)
    80001dec:	02010113          	addi	sp,sp,32
    80001df0:	00008067          	ret
    if(position == 50)return 0;
    80001df4:	00000513          	li	a0,0
    80001df8:	fe9ff06f          	j	80001de0 <_ZN11BuddySystem10buddyAllocEm+0x9c>

0000000080001dfc <_ZN11BuddySystem10tryToMergeEPNS_7MemNodeES1_m>:

// vraca -1 ukoliko nije spojeno, ukoliko jeste vraca poziciju na kojoj je element ubacen
int BuddySystem::tryToMerge(BuddySystem::MemNode *left, BuddySystem::MemNode *right, size_t position) {
    if(left && right && ((size_t)left + left->size == (size_t)right) && (((size_t)left - buddyHeapStart) % pow(position) == 0)){
    80001dfc:	0a058c63          	beqz	a1,80001eb4 <_ZN11BuddySystem10tryToMergeEPNS_7MemNodeES1_m+0xb8>
    80001e00:	0a060e63          	beqz	a2,80001ebc <_ZN11BuddySystem10tryToMergeEPNS_7MemNodeES1_m+0xc0>
    80001e04:	0085b883          	ld	a7,8(a1)
    80001e08:	00b887b3          	add	a5,a7,a1
    80001e0c:	0ac79c63          	bne	a5,a2,80001ec4 <_ZN11BuddySystem10tryToMergeEPNS_7MemNodeES1_m+0xc8>
    80001e10:	14053703          	ld	a4,320(a0)
    80001e14:	40e58833          	sub	a6,a1,a4
    80001e18:	00000793          	li	a5,0
        size_t tmp = 1;
    80001e1c:	00100713          	li	a4,1
        for(size_t i = 0; i < deg; i++){
    80001e20:	00d7f863          	bgeu	a5,a3,80001e30 <_ZN11BuddySystem10tryToMergeEPNS_7MemNodeES1_m+0x34>
            tmp <<= 1;
    80001e24:	00171713          	slli	a4,a4,0x1
        for(size_t i = 0; i < deg; i++){
    80001e28:	00178793          	addi	a5,a5,1
    80001e2c:	ff5ff06f          	j	80001e20 <_ZN11BuddySystem10tryToMergeEPNS_7MemNodeES1_m+0x24>
    80001e30:	02e87733          	remu	a4,a6,a4
    80001e34:	08071c63          	bnez	a4,80001ecc <_ZN11BuddySystem10tryToMergeEPNS_7MemNodeES1_m+0xd0>
int BuddySystem::tryToMerge(BuddySystem::MemNode *left, BuddySystem::MemNode *right, size_t position) {
    80001e38:	ff010113          	addi	sp,sp,-16
    80001e3c:	00113423          	sd	ra,8(sp)
    80001e40:	00813023          	sd	s0,0(sp)
    80001e44:	01010413          	addi	s0,sp,16
        left->size <<= 1;
    80001e48:	00189893          	slli	a7,a7,0x1
    80001e4c:	0115b423          	sd	a7,8(a1)
        MemNode* prev = nullptr;
        for(MemNode* curr = arr[position]; curr != left; curr = curr->next){
    80001e50:	00369793          	slli	a5,a3,0x3
    80001e54:	00f507b3          	add	a5,a0,a5
    80001e58:	0007b783          	ld	a5,0(a5)
    80001e5c:	00b78863          	beq	a5,a1,80001e6c <_ZN11BuddySystem10tryToMergeEPNS_7MemNodeES1_m+0x70>
            prev = curr;
    80001e60:	00078713          	mv	a4,a5
        for(MemNode* curr = arr[position]; curr != left; curr = curr->next){
    80001e64:	0007b783          	ld	a5,0(a5)
    80001e68:	ff5ff06f          	j	80001e5c <_ZN11BuddySystem10tryToMergeEPNS_7MemNodeES1_m+0x60>
        }
        if(prev){
    80001e6c:	02070a63          	beqz	a4,80001ea0 <_ZN11BuddySystem10tryToMergeEPNS_7MemNodeES1_m+0xa4>
            prev->next = right->next;
    80001e70:	00063783          	ld	a5,0(a2)
    80001e74:	00f73023          	sd	a5,0(a4)
        }else{
            arr[position] = right->next;
        }
        right->next = nullptr;
    80001e78:	00063023          	sd	zero,0(a2)
        left->next = nullptr;
    80001e7c:	0005b023          	sd	zero,0(a1)
//        *(size_t*)(left - sizeof(size_t)) = left->size;
        size_t insertPosition = insertInArray(position + 1, (size_t)left);
    80001e80:	00058613          	mv	a2,a1
    80001e84:	00168593          	addi	a1,a3,1
    80001e88:	00000097          	auipc	ra,0x0
    80001e8c:	d64080e7          	jalr	-668(ra) # 80001bec <_ZN11BuddySystem13insertInArrayEmm>
        // nema svrhu, samo testiranje da ne bi bilo optimizacije
        left = arr[position];
        return (int)insertPosition;
    }
    return -1;
}
    80001e90:	00813083          	ld	ra,8(sp)
    80001e94:	00013403          	ld	s0,0(sp)
    80001e98:	01010113          	addi	sp,sp,16
    80001e9c:	00008067          	ret
            arr[position] = right->next;
    80001ea0:	00063703          	ld	a4,0(a2)
    80001ea4:	00369793          	slli	a5,a3,0x3
    80001ea8:	00f507b3          	add	a5,a0,a5
    80001eac:	00e7b023          	sd	a4,0(a5)
    80001eb0:	fc9ff06f          	j	80001e78 <_ZN11BuddySystem10tryToMergeEPNS_7MemNodeES1_m+0x7c>
    return -1;
    80001eb4:	fff00513          	li	a0,-1
    80001eb8:	00008067          	ret
    80001ebc:	fff00513          	li	a0,-1
    80001ec0:	00008067          	ret
    80001ec4:	fff00513          	li	a0,-1
    80001ec8:	00008067          	ret
    80001ecc:	fff00513          	li	a0,-1
}
    80001ed0:	00008067          	ret

0000000080001ed4 <_ZN11BuddySystem9buddyFreeEm>:
    size_t size = *(size_t*)(addr - sizeof(size_t));
    80001ed4:	ff85b683          	ld	a3,-8(a1)
    if((void*)addr == nullptr || size == 0)return;
    80001ed8:	12058863          	beqz	a1,80002008 <_ZN11BuddySystem9buddyFreeEm+0x134>
void BuddySystem::buddyFree(size_t addr) {
    80001edc:	fd010113          	addi	sp,sp,-48
    80001ee0:	02113423          	sd	ra,40(sp)
    80001ee4:	02813023          	sd	s0,32(sp)
    80001ee8:	00913c23          	sd	s1,24(sp)
    80001eec:	01213823          	sd	s2,16(sp)
    80001ef0:	01313423          	sd	s3,8(sp)
    80001ef4:	01413023          	sd	s4,0(sp)
    80001ef8:	03010413          	addi	s0,sp,48
    80001efc:	00050a13          	mv	s4,a0
    80001f00:	ff858613          	addi	a2,a1,-8
    if((void*)addr == nullptr || size == 0)return;
    80001f04:	0e068263          	beqz	a3,80001fe8 <_ZN11BuddySystem9buddyFreeEm+0x114>
    80001f08:	00068793          	mv	a5,a3
        }
        return tmp;
    }

    size_t static log(size_t size){
        size_t deg = 0;
    80001f0c:	00000993          	li	s3,0
        while(size > 1){
    80001f10:	00100713          	li	a4,1
    80001f14:	00f77863          	bgeu	a4,a5,80001f24 <_ZN11BuddySystem9buddyFreeEm+0x50>
            size >>= 1;
    80001f18:	0017d793          	srli	a5,a5,0x1
            deg++;
    80001f1c:	00198993          	addi	s3,s3,1
        while(size > 1){
    80001f20:	ff1ff06f          	j	80001f10 <_ZN11BuddySystem9buddyFreeEm+0x3c>
    newNode->next = nullptr;
    80001f24:	fe05bc23          	sd	zero,-8(a1)
    newNode->size = size;
    80001f28:	00d63423          	sd	a3,8(a2)
    int merged = (int)insertInArray(position, (size_t)newNode);
    80001f2c:	00098593          	mv	a1,s3
    80001f30:	000a0513          	mv	a0,s4
    80001f34:	00000097          	auipc	ra,0x0
    80001f38:	cb8080e7          	jalr	-840(ra) # 80001bec <_ZN11BuddySystem13insertInArrayEmm>
    80001f3c:	07c0006f          	j	80001fb8 <_ZN11BuddySystem9buddyFreeEm+0xe4>
        for(int i = 0; i < merged; i++){
    80001f40:	0017071b          	addiw	a4,a4,1
            prev = curr;
    80001f44:	00048593          	mv	a1,s1
            curr = curr->next;
    80001f48:	00078493          	mv	s1,a5
        for(int i = 0; i < merged; i++){
    80001f4c:	00a75a63          	bge	a4,a0,80001f60 <_ZN11BuddySystem9buddyFreeEm+0x8c>
            curr = curr->next;
    80001f50:	0004b783          	ld	a5,0(s1)
            if(curr)next = curr->next;
    80001f54:	fe0786e3          	beqz	a5,80001f40 <_ZN11BuddySystem9buddyFreeEm+0x6c>
    80001f58:	0007b903          	ld	s2,0(a5)
    80001f5c:	fe5ff06f          	j	80001f40 <_ZN11BuddySystem9buddyFreeEm+0x6c>
        if(merged == 0 && curr){
    80001f60:	00051663          	bnez	a0,80001f6c <_ZN11BuddySystem9buddyFreeEm+0x98>
    80001f64:	00048463          	beqz	s1,80001f6c <_ZN11BuddySystem9buddyFreeEm+0x98>
            next = curr->next;
    80001f68:	0004b903          	ld	s2,0(s1)
        if(!prev && !next){
    80001f6c:	06058863          	beqz	a1,80001fdc <_ZN11BuddySystem9buddyFreeEm+0x108>
        if(prev){
    80001f70:	00058c63          	beqz	a1,80001f88 <_ZN11BuddySystem9buddyFreeEm+0xb4>
            merged = tryToMerge(prev, curr, position);
    80001f74:	00098693          	mv	a3,s3
    80001f78:	00048613          	mv	a2,s1
    80001f7c:	000a0513          	mv	a0,s4
    80001f80:	00000097          	auipc	ra,0x0
    80001f84:	e7c080e7          	jalr	-388(ra) # 80001dfc <_ZN11BuddySystem10tryToMergeEPNS_7MemNodeES1_m>
        if((merged != -1) && next){
    80001f88:	fff00793          	li	a5,-1
    80001f8c:	02f50063          	beq	a0,a5,80001fac <_ZN11BuddySystem9buddyFreeEm+0xd8>
    80001f90:	00090e63          	beqz	s2,80001fac <_ZN11BuddySystem9buddyFreeEm+0xd8>
            merged = tryToMerge(curr, next, position);
    80001f94:	00098693          	mv	a3,s3
    80001f98:	00090613          	mv	a2,s2
    80001f9c:	00048593          	mv	a1,s1
    80001fa0:	000a0513          	mv	a0,s4
    80001fa4:	00000097          	auipc	ra,0x0
    80001fa8:	e58080e7          	jalr	-424(ra) # 80001dfc <_ZN11BuddySystem10tryToMergeEPNS_7MemNodeES1_m>
        if(merged != -1)position++;
    80001fac:	fff00793          	li	a5,-1
    80001fb0:	00f50463          	beq	a0,a5,80001fb8 <_ZN11BuddySystem9buddyFreeEm+0xe4>
    80001fb4:	00198993          	addi	s3,s3,1
    while(merged != -1){
    80001fb8:	fff00793          	li	a5,-1
    80001fbc:	02f50663          	beq	a0,a5,80001fe8 <_ZN11BuddySystem9buddyFreeEm+0x114>
        MemNode* curr = arr[position], *prev = nullptr, *next = nullptr;
    80001fc0:	00399793          	slli	a5,s3,0x3
    80001fc4:	00fa07b3          	add	a5,s4,a5
    80001fc8:	0007b483          	ld	s1,0(a5)
        for(int i = 0; i < merged; i++){
    80001fcc:	00000713          	li	a4,0
        MemNode* curr = arr[position], *prev = nullptr, *next = nullptr;
    80001fd0:	00000913          	li	s2,0
    80001fd4:	00000593          	li	a1,0
    80001fd8:	f75ff06f          	j	80001f4c <_ZN11BuddySystem9buddyFreeEm+0x78>
        if(!prev && !next){
    80001fdc:	f8091ae3          	bnez	s2,80001f70 <_ZN11BuddySystem9buddyFreeEm+0x9c>
            merged = -1;
    80001fe0:	fff00513          	li	a0,-1
    80001fe4:	f8dff06f          	j	80001f70 <_ZN11BuddySystem9buddyFreeEm+0x9c>
}
    80001fe8:	02813083          	ld	ra,40(sp)
    80001fec:	02013403          	ld	s0,32(sp)
    80001ff0:	01813483          	ld	s1,24(sp)
    80001ff4:	01013903          	ld	s2,16(sp)
    80001ff8:	00813983          	ld	s3,8(sp)
    80001ffc:	00013a03          	ld	s4,0(sp)
    80002000:	03010113          	addi	sp,sp,48
    80002004:	00008067          	ret
    80002008:	00008067          	ret

000000008000200c <_ZN11BuddySystem9initBuddyEv>:

void BuddySystem::initBuddy() {
    8000200c:	ff010113          	addi	sp,sp,-16
    80002010:	00813423          	sd	s0,8(sp)
    80002014:	01010413          	addi	s0,sp,16
    buddyHeapEnd = buddyHeapStart + buddyNumOfBlocks * BLOCK_SIZE;
    80002018:	14053603          	ld	a2,320(a0)
    8000201c:	15053783          	ld	a5,336(a0)
    80002020:	00c79793          	slli	a5,a5,0xc
    80002024:	00f60633          	add	a2,a2,a5
    80002028:	14c53423          	sd	a2,328(a0)
//    buddyHeapEnd = (size_t)HEAP_START_ADDR + ((size_t)HEAP_END_ADDR - 1 - (size_t)HEAP_START_ADDR) / 8;
    size_t deg = 0, size = 1, realSize = buddyHeapEnd - (size_t)HEAP_START_ADDR, heapStart = (size_t)HEAP_START_ADDR;
    8000202c:	00009797          	auipc	a5,0x9
    80002030:	2247b783          	ld	a5,548(a5) # 8000b250 <_GLOBAL_OFFSET_TABLE_+0x20>
    80002034:	0007b683          	ld	a3,0(a5)
    80002038:	40d60633          	sub	a2,a2,a3
    8000203c:	00100793          	li	a5,1
    80002040:	00000713          	li	a4,0

    while(size <= realSize){
    80002044:	00f66863          	bltu	a2,a5,80002054 <_ZN11BuddySystem9initBuddyEv+0x48>
        deg++;
    80002048:	00170713          	addi	a4,a4,1
        size <<= 1;
    8000204c:	00179793          	slli	a5,a5,0x1
    while(size <= realSize){
    80002050:	ff5ff06f          	j	80002044 <_ZN11BuddySystem9initBuddyEv+0x38>
    }
    size >>= 1;
    80002054:	0017d793          	srli	a5,a5,0x1
    deg--;
    80002058:	fff70713          	addi	a4,a4,-1
        size_t deg = 0;
    8000205c:	00000813          	li	a6,0
    80002060:	000015b7          	lui	a1,0x1
        while(size > 1){
    80002064:	00100893          	li	a7,1
    80002068:	00b8fc63          	bgeu	a7,a1,80002080 <_ZN11BuddySystem9initBuddyEv+0x74>
            size >>= 1;
    8000206c:	0015d593          	srli	a1,a1,0x1
            deg++;
    80002070:	00180813          	addi	a6,a6,1
        while(size > 1){
    80002074:	ff1ff06f          	j	80002064 <_ZN11BuddySystem9initBuddyEv+0x58>
    int cnt = 0;
    size_t boundary = log(BLOCK_SIZE);
    while(heapStart < buddyHeapEnd && size >= boundary) {
        cnt++;
        if(realSize < size){
            deg--;
    80002078:	fff70713          	addi	a4,a4,-1
            size >>=1;
    8000207c:	0017d793          	srli	a5,a5,0x1
    while(heapStart < buddyHeapEnd && size >= boundary) {
    80002080:	14853583          	ld	a1,328(a0)
    80002084:	02b6fa63          	bgeu	a3,a1,800020b8 <_ZN11BuddySystem9initBuddyEv+0xac>
    80002088:	0307e863          	bltu	a5,a6,800020b8 <_ZN11BuddySystem9initBuddyEv+0xac>
        if(realSize < size){
    8000208c:	fef666e3          	bltu	a2,a5,80002078 <_ZN11BuddySystem9initBuddyEv+0x6c>
            continue;
        }

        MemNode *newNode = (MemNode *) heapStart;
        newNode->next = nullptr;
    80002090:	0006b023          	sd	zero,0(a3)
        newNode->size = size;
    80002094:	00f6b423          	sd	a5,8(a3)
        arr[deg] = newNode;
    80002098:	00371593          	slli	a1,a4,0x3
    8000209c:	00b505b3          	add	a1,a0,a1
    800020a0:	00d5b023          	sd	a3,0(a1) # 1000 <_entry-0x7ffff000>

        realSize -= size;
    800020a4:	40f60633          	sub	a2,a2,a5
        heapStart += size;
    800020a8:	00f686b3          	add	a3,a3,a5
        deg--;
    800020ac:	fff70713          	addi	a4,a4,-1
        size >>= 1;
    800020b0:	0017d793          	srli	a5,a5,0x1
    800020b4:	fcdff06f          	j	80002080 <_ZN11BuddySystem9initBuddyEv+0x74>
    }
};
    800020b8:	00813403          	ld	s0,8(sp)
    800020bc:	01010113          	addi	sp,sp,16
    800020c0:	00008067          	ret

00000000800020c4 <_ZN11MySemaphoreC1Em>:
    if( id->get_val() <= 0)id->unblock();
    if(!id->get_indicator())return 0;
    else return -1;
}

MySemaphore::MySemaphore(uint64 init) {
    800020c4:	ff010113          	addi	sp,sp,-16
    800020c8:	00813423          	sd	s0,8(sp)
    800020cc:	01010413          	addi	s0,sp,16
    val = init;
    800020d0:	00b52023          	sw	a1,0(a0)
    head = tail = nullptr;
    800020d4:	00053823          	sd	zero,16(a0)
    800020d8:	00053423          	sd	zero,8(a0)
    indicator = false;
    800020dc:	00050223          	sb	zero,4(a0)
}
    800020e0:	00813403          	ld	s0,8(sp)
    800020e4:	01010113          	addi	sp,sp,16
    800020e8:	00008067          	ret

00000000800020ec <_ZN11MySemaphore8sem_openEPPS_m>:
int MySemaphore::sem_open(MySemaphore **handle, uint64 init) {
    800020ec:	fd010113          	addi	sp,sp,-48
    800020f0:	02113423          	sd	ra,40(sp)
    800020f4:	02813023          	sd	s0,32(sp)
    800020f8:	00913c23          	sd	s1,24(sp)
    800020fc:	01213823          	sd	s2,16(sp)
    80002100:	01313423          	sd	s3,8(sp)
    80002104:	03010413          	addi	s0,sp,48
    80002108:	00050493          	mv	s1,a0
    8000210c:	00058993          	mv	s3,a1
class MemoryAllocator{
public:

    // dodaj instancu
    static MemoryAllocator& getInstance(){
        static MemoryAllocator instance;
    80002110:	00009797          	auipc	a5,0x9
    80002114:	1e07c783          	lbu	a5,480(a5) # 8000b2f0 <_ZGVZN15MemoryAllocator11getInstanceEvE8instance>
    80002118:	04078663          	beqz	a5,80002164 <_ZN11MySemaphore8sem_openEPPS_m+0x78>
    void set_val(int v){ val = v; }

    // operatori
    void *operator new(uint64 n){
        uint64 ssize = (n + MEM_BLOCK_SIZE - 1) / MEM_BLOCK_SIZE;
        return MemoryAllocator::getInstance().memory_alloc(ssize);
    8000211c:	00100593          	li	a1,1
    80002120:	00009517          	auipc	a0,0x9
    80002124:	1d850513          	addi	a0,a0,472 # 8000b2f8 <_ZZN15MemoryAllocator11getInstanceEvE8instance>
    80002128:	00003097          	auipc	ra,0x3
    8000212c:	f9c080e7          	jalr	-100(ra) # 800050c4 <_ZN15MemoryAllocator12memory_allocEm>
    80002130:	00050913          	mv	s2,a0
    *handle = new MySemaphore(init);
    80002134:	00098593          	mv	a1,s3
    80002138:	00000097          	auipc	ra,0x0
    8000213c:	f8c080e7          	jalr	-116(ra) # 800020c4 <_ZN11MySemaphoreC1Em>
    80002140:	0124b023          	sd	s2,0(s1)
}
    80002144:	00000513          	li	a0,0
    80002148:	02813083          	ld	ra,40(sp)
    8000214c:	02013403          	ld	s0,32(sp)
    80002150:	01813483          	ld	s1,24(sp)
    80002154:	01013903          	ld	s2,16(sp)
    80002158:	00813983          	ld	s3,8(sp)
    8000215c:	03010113          	addi	sp,sp,48
    80002160:	00008067          	ret

    FreeMem* fmem_head = nullptr;
    size_t heapStart;
    size_t heapEnd;

    MemoryAllocator(){
    80002164:	00009617          	auipc	a2,0x9
    80002168:	19460613          	addi	a2,a2,404 # 8000b2f8 <_ZZN15MemoryAllocator11getInstanceEvE8instance>

        heapStart = (size_t)HEAP_START_ADDR + ((size_t)HEAP_END_ADDR - (size_t)HEAP_START_ADDR) / 8 + 1;
    8000216c:	00009797          	auipc	a5,0x9
    80002170:	12c7b783          	ld	a5,300(a5) # 8000b298 <_GLOBAL_OFFSET_TABLE_+0x68>
    80002174:	0007b703          	ld	a4,0(a5)
    80002178:	00009797          	auipc	a5,0x9
    8000217c:	0d87b783          	ld	a5,216(a5) # 8000b250 <_GLOBAL_OFFSET_TABLE_+0x20>
    80002180:	0007b783          	ld	a5,0(a5)
    80002184:	40f706b3          	sub	a3,a4,a5
    80002188:	0036d693          	srli	a3,a3,0x3
    8000218c:	00d787b3          	add	a5,a5,a3
    80002190:	00178793          	addi	a5,a5,1
    80002194:	00f63423          	sd	a5,8(a2)
        heapEnd = (size_t)HEAP_END_ADDR - 1;
    80002198:	fff70713          	addi	a4,a4,-1
    8000219c:	00e63823          	sd	a4,16(a2)

        size_t sizeInBlocks = (heapEnd - heapStart) / MEM_BLOCK_SIZE;
    800021a0:	40f70733          	sub	a4,a4,a5
    800021a4:	00675713          	srli	a4,a4,0x6

        // poravnaj na prvu krstenu adresu
        fmem_head = (FreeMem*)(heapStart + ((heapStart % MEM_BLOCK_SIZE != 0)?(MEM_BLOCK_SIZE - heapStart % MEM_BLOCK_SIZE) : 0));
    800021a8:	03f7f693          	andi	a3,a5,63
    800021ac:	00068663          	beqz	a3,800021b8 <_ZN11MySemaphore8sem_openEPPS_m+0xcc>
    800021b0:	04000613          	li	a2,64
    800021b4:	40d606b3          	sub	a3,a2,a3
    800021b8:	00d787b3          	add	a5,a5,a3
    800021bc:	00009697          	auipc	a3,0x9
    800021c0:	12f6be23          	sd	a5,316(a3) # 8000b2f8 <_ZZN15MemoryAllocator11getInstanceEvE8instance>

        // napravi node

        fmem_head->next = nullptr;
    800021c4:	0007b423          	sd	zero,8(a5)
        fmem_head->prev = nullptr;
    800021c8:	0007b823          	sd	zero,16(a5)
        fmem_head->size = sizeInBlocks;
    800021cc:	00e7b023          	sd	a4,0(a5)
        static MemoryAllocator instance;
    800021d0:	00100793          	li	a5,1
    800021d4:	00009717          	auipc	a4,0x9
    800021d8:	10f70e23          	sb	a5,284(a4) # 8000b2f0 <_ZGVZN15MemoryAllocator11getInstanceEvE8instance>
    800021dc:	f41ff06f          	j	8000211c <_ZN11MySemaphore8sem_openEPPS_m+0x30>

00000000800021e0 <_ZN11MySemaphore16get_from_blockedEv>:

TCB* MySemaphore::get_from_blocked() {
    800021e0:	ff010113          	addi	sp,sp,-16
    800021e4:	00813423          	sd	s0,8(sp)
    800021e8:	01010413          	addi	s0,sp,16
    800021ec:	00050793          	mv	a5,a0
    if(head){
    800021f0:	00853503          	ld	a0,8(a0)
    800021f4:	00050a63          	beqz	a0,80002208 <_ZN11MySemaphore16get_from_blockedEv+0x28>

    TCB* get_next_sleep()const{ return next_sleep; }

    void set_next_blocked(TCB* nextThread){ next_blocked = nextThread; }

    TCB* get_next_blocked()const{ return next_blocked; }
    800021f8:	04053703          	ld	a4,64(a0)
        TCB* tmp = head;
        head = head->get_next_blocked();
    800021fc:	00e7b423          	sd	a4,8(a5)
        if(!head)tail = nullptr;
    80002200:	00070a63          	beqz	a4,80002214 <_ZN11MySemaphore16get_from_blockedEv+0x34>
    void set_next_blocked(TCB* nextThread){ next_blocked = nextThread; }
    80002204:	04053023          	sd	zero,64(a0)
        tmp->set_next_blocked(nullptr);
        return tmp;
    }
    return nullptr;
}
    80002208:	00813403          	ld	s0,8(sp)
    8000220c:	01010113          	addi	sp,sp,16
    80002210:	00008067          	ret
        if(!head)tail = nullptr;
    80002214:	0007b823          	sd	zero,16(a5)
    80002218:	fedff06f          	j	80002204 <_ZN11MySemaphore16get_from_blockedEv+0x24>

000000008000221c <_ZN11MySemaphore9sem_closeEPS_>:
int MySemaphore::sem_close(MySemaphore* handle){
    8000221c:	fe010113          	addi	sp,sp,-32
    80002220:	00113c23          	sd	ra,24(sp)
    80002224:	00813823          	sd	s0,16(sp)
    80002228:	00913423          	sd	s1,8(sp)
    8000222c:	01213023          	sd	s2,0(sp)
    80002230:	02010413          	addi	s0,sp,32
    80002234:	00050913          	mv	s2,a0
    TCB* tmp = handle->head;
    80002238:	00853483          	ld	s1,8(a0)
    8000223c:	0180006f          	j	80002254 <_ZN11MySemaphore9sem_closeEPS_+0x38>
        if(tmp)Scheduler::getInstance().put(tmp);
    80002240:	00048593          	mv	a1,s1
    80002244:	00009517          	auipc	a0,0x9
    80002248:	0d450513          	addi	a0,a0,212 # 8000b318 <_ZZN9Scheduler11getInstanceEvE8instance>
    8000224c:	00003097          	auipc	ra,0x3
    80002250:	e18080e7          	jalr	-488(ra) # 80005064 <_ZN9Scheduler3putEP3TCB>
    while(tmp){
    80002254:	04048663          	beqz	s1,800022a0 <_ZN11MySemaphore9sem_closeEPS_+0x84>
        tmp = handle->get_from_blocked();
    80002258:	00090513          	mv	a0,s2
    8000225c:	00000097          	auipc	ra,0x0
    80002260:	f84080e7          	jalr	-124(ra) # 800021e0 <_ZN11MySemaphore16get_from_blockedEv>
    80002264:	00050493          	mv	s1,a0
        if(tmp)Scheduler::getInstance().put(tmp);
    80002268:	fe0506e3          	beqz	a0,80002254 <_ZN11MySemaphore9sem_closeEPS_+0x38>

class Scheduler{
public:

    static Scheduler& getInstance(){
        static Scheduler instance;
    8000226c:	00009797          	auipc	a5,0x9
    80002270:	0a47c783          	lbu	a5,164(a5) # 8000b310 <_ZGVZN9Scheduler11getInstanceEvE8instance>
    80002274:	fc0796e3          	bnez	a5,80002240 <_ZN11MySemaphore9sem_closeEPS_+0x24>
//    static void printScheduler();

private:

    Scheduler(){
        head = nullptr;
    80002278:	00009797          	auipc	a5,0x9
    8000227c:	ff87b783          	ld	a5,-8(a5) # 8000b270 <_GLOBAL_OFFSET_TABLE_+0x40>
    80002280:	0007b023          	sd	zero,0(a5)
        tail = nullptr;
    80002284:	00009797          	auipc	a5,0x9
    80002288:	fc47b783          	ld	a5,-60(a5) # 8000b248 <_GLOBAL_OFFSET_TABLE_+0x18>
    8000228c:	0007b023          	sd	zero,0(a5)
        static Scheduler instance;
    80002290:	00100793          	li	a5,1
    80002294:	00009717          	auipc	a4,0x9
    80002298:	06f70e23          	sb	a5,124(a4) # 8000b310 <_ZGVZN9Scheduler11getInstanceEvE8instance>
    8000229c:	fa5ff06f          	j	80002240 <_ZN11MySemaphore9sem_closeEPS_+0x24>
    void set_indicator(bool v){ indicator = v; }
    800022a0:	00100793          	li	a5,1
    800022a4:	00f90223          	sb	a5,4(s2)
}
    800022a8:	00000513          	li	a0,0
    800022ac:	01813083          	ld	ra,24(sp)
    800022b0:	01013403          	ld	s0,16(sp)
    800022b4:	00813483          	ld	s1,8(sp)
    800022b8:	00013903          	ld	s2,0(sp)
    800022bc:	02010113          	addi	sp,sp,32
    800022c0:	00008067          	ret

00000000800022c4 <_ZN11MySemaphore14put_in_blockedEP3TCB>:

void MySemaphore::put_in_blocked(TCB *tcb) {
    800022c4:	ff010113          	addi	sp,sp,-16
    800022c8:	00813423          	sd	s0,8(sp)
    800022cc:	01010413          	addi	s0,sp,16
    if(!head)head = tcb;
    800022d0:	00853783          	ld	a5,8(a0)
    800022d4:	00078e63          	beqz	a5,800022f0 <_ZN11MySemaphore14put_in_blockedEP3TCB+0x2c>
    else tail->set_next_blocked(tcb);
    800022d8:	01053783          	ld	a5,16(a0)
    800022dc:	04b7b023          	sd	a1,64(a5)
    tail = tcb;
    800022e0:	00b53823          	sd	a1,16(a0)
}
    800022e4:	00813403          	ld	s0,8(sp)
    800022e8:	01010113          	addi	sp,sp,16
    800022ec:	00008067          	ret
    if(!head)head = tcb;
    800022f0:	00b53423          	sd	a1,8(a0)
    800022f4:	fedff06f          	j	800022e0 <_ZN11MySemaphore14put_in_blockedEP3TCB+0x1c>

00000000800022f8 <_ZN11MySemaphore5blockEv>:

void MySemaphore::block() {
    800022f8:	ff010113          	addi	sp,sp,-16
    800022fc:	00113423          	sd	ra,8(sp)
    80002300:	00813023          	sd	s0,0(sp)
    80002304:	01010413          	addi	s0,sp,16
    TCB* old = TCB::running;
    put_in_blocked(old);
    80002308:	00009797          	auipc	a5,0x9
    8000230c:	f887b783          	ld	a5,-120(a5) # 8000b290 <_GLOBAL_OFFSET_TABLE_+0x60>
    80002310:	0007b583          	ld	a1,0(a5)
    80002314:	00000097          	auipc	ra,0x0
    80002318:	fb0080e7          	jalr	-80(ra) # 800022c4 <_ZN11MySemaphore14put_in_blockedEP3TCB>
    TCB::yield();
    8000231c:	00003097          	auipc	ra,0x3
    80002320:	be4080e7          	jalr	-1052(ra) # 80004f00 <_ZN3TCB5yieldEv>
}
    80002324:	00813083          	ld	ra,8(sp)
    80002328:	00013403          	ld	s0,0(sp)
    8000232c:	01010113          	addi	sp,sp,16
    80002330:	00008067          	ret

0000000080002334 <_ZN11MySemaphore8sem_waitEPS_>:
int MySemaphore::sem_wait(MySemaphore *id) {
    80002334:	fe010113          	addi	sp,sp,-32
    80002338:	00113c23          	sd	ra,24(sp)
    8000233c:	00813823          	sd	s0,16(sp)
    80002340:	00913423          	sd	s1,8(sp)
    80002344:	02010413          	addi	s0,sp,32
    80002348:	00050493          	mv	s1,a0
    int get_val()const{ return val; }
    8000234c:	00052783          	lw	a5,0(a0)
    id->set_val(id->get_val() - 1);
    80002350:	fff7879b          	addiw	a5,a5,-1
    void set_val(int v){ val = v; }
    80002354:	00f52023          	sw	a5,0(a0)
    if( id->get_val() < 0)id->block();
    80002358:	02079713          	slli	a4,a5,0x20
    8000235c:	02074263          	bltz	a4,80002380 <_ZN11MySemaphore8sem_waitEPS_+0x4c>
    bool get_indicator()const{ return indicator; }
    80002360:	0044c783          	lbu	a5,4(s1)
    if(!id->get_indicator())return 0;
    80002364:	02079463          	bnez	a5,8000238c <_ZN11MySemaphore8sem_waitEPS_+0x58>
    80002368:	00000513          	li	a0,0
}
    8000236c:	01813083          	ld	ra,24(sp)
    80002370:	01013403          	ld	s0,16(sp)
    80002374:	00813483          	ld	s1,8(sp)
    80002378:	02010113          	addi	sp,sp,32
    8000237c:	00008067          	ret
    if( id->get_val() < 0)id->block();
    80002380:	00000097          	auipc	ra,0x0
    80002384:	f78080e7          	jalr	-136(ra) # 800022f8 <_ZN11MySemaphore5blockEv>
    80002388:	fd9ff06f          	j	80002360 <_ZN11MySemaphore8sem_waitEPS_+0x2c>
    else return -1;
    8000238c:	fff00513          	li	a0,-1
    80002390:	fddff06f          	j	8000236c <_ZN11MySemaphore8sem_waitEPS_+0x38>

0000000080002394 <_ZN11MySemaphore7unblockEv>:

void MySemaphore::unblock() {
    80002394:	ff010113          	addi	sp,sp,-16
    80002398:	00113423          	sd	ra,8(sp)
    8000239c:	00813023          	sd	s0,0(sp)
    800023a0:	01010413          	addi	s0,sp,16
    TCB* tmp = get_from_blocked();
    800023a4:	00000097          	auipc	ra,0x0
    800023a8:	e3c080e7          	jalr	-452(ra) # 800021e0 <_ZN11MySemaphore16get_from_blockedEv>
    if(tmp)Scheduler::getInstance().put(tmp);
    800023ac:	04050463          	beqz	a0,800023f4 <_ZN11MySemaphore7unblockEv+0x60>
    800023b0:	00050593          	mv	a1,a0
    800023b4:	00009797          	auipc	a5,0x9
    800023b8:	f5c7c783          	lbu	a5,-164(a5) # 8000b310 <_ZGVZN9Scheduler11getInstanceEvE8instance>
    800023bc:	02079463          	bnez	a5,800023e4 <_ZN11MySemaphore7unblockEv+0x50>
        head = nullptr;
    800023c0:	00009797          	auipc	a5,0x9
    800023c4:	eb07b783          	ld	a5,-336(a5) # 8000b270 <_GLOBAL_OFFSET_TABLE_+0x40>
    800023c8:	0007b023          	sd	zero,0(a5)
        tail = nullptr;
    800023cc:	00009797          	auipc	a5,0x9
    800023d0:	e7c7b783          	ld	a5,-388(a5) # 8000b248 <_GLOBAL_OFFSET_TABLE_+0x18>
    800023d4:	0007b023          	sd	zero,0(a5)
        static Scheduler instance;
    800023d8:	00100793          	li	a5,1
    800023dc:	00009717          	auipc	a4,0x9
    800023e0:	f2f70a23          	sb	a5,-204(a4) # 8000b310 <_ZGVZN9Scheduler11getInstanceEvE8instance>
    800023e4:	00009517          	auipc	a0,0x9
    800023e8:	f3450513          	addi	a0,a0,-204 # 8000b318 <_ZZN9Scheduler11getInstanceEvE8instance>
    800023ec:	00003097          	auipc	ra,0x3
    800023f0:	c78080e7          	jalr	-904(ra) # 80005064 <_ZN9Scheduler3putEP3TCB>
}
    800023f4:	00813083          	ld	ra,8(sp)
    800023f8:	00013403          	ld	s0,0(sp)
    800023fc:	01010113          	addi	sp,sp,16
    80002400:	00008067          	ret

0000000080002404 <_ZN11MySemaphore10sem_signalEPS_>:
int MySemaphore::sem_signal(MySemaphore *id) {
    80002404:	fe010113          	addi	sp,sp,-32
    80002408:	00113c23          	sd	ra,24(sp)
    8000240c:	00813823          	sd	s0,16(sp)
    80002410:	00913423          	sd	s1,8(sp)
    80002414:	02010413          	addi	s0,sp,32
    80002418:	00050493          	mv	s1,a0
    int get_val()const{ return val; }
    8000241c:	00052783          	lw	a5,0(a0)
    id->set_val(id->get_val() + 1);
    80002420:	0017879b          	addiw	a5,a5,1
    80002424:	0007871b          	sext.w	a4,a5
    void set_val(int v){ val = v; }
    80002428:	00f52023          	sw	a5,0(a0)
    if( id->get_val() <= 0)id->unblock();
    8000242c:	02e05263          	blez	a4,80002450 <_ZN11MySemaphore10sem_signalEPS_+0x4c>
    bool get_indicator()const{ return indicator; }
    80002430:	0044c783          	lbu	a5,4(s1)
    if(!id->get_indicator())return 0;
    80002434:	02079463          	bnez	a5,8000245c <_ZN11MySemaphore10sem_signalEPS_+0x58>
    80002438:	00000513          	li	a0,0
}
    8000243c:	01813083          	ld	ra,24(sp)
    80002440:	01013403          	ld	s0,16(sp)
    80002444:	00813483          	ld	s1,8(sp)
    80002448:	02010113          	addi	sp,sp,32
    8000244c:	00008067          	ret
    if( id->get_val() <= 0)id->unblock();
    80002450:	00000097          	auipc	ra,0x0
    80002454:	f44080e7          	jalr	-188(ra) # 80002394 <_ZN11MySemaphore7unblockEv>
    80002458:	fd9ff06f          	j	80002430 <_ZN11MySemaphore10sem_signalEPS_+0x2c>
    else return -1;
    8000245c:	fff00513          	li	a0,-1
    80002460:	fddff06f          	j	8000243c <_ZN11MySemaphore10sem_signalEPS_+0x38>

0000000080002464 <_ZN14periodicThread3putEP3TCB>:
#include "../h/TCB.hpp"

TCB* periodicThread::head = nullptr;
TCB* periodicThread::tail = nullptr;

void periodicThread::put(TCB *thread) {
    80002464:	ff010113          	addi	sp,sp,-16
    80002468:	00813423          	sd	s0,8(sp)
    8000246c:	01010413          	addi	s0,sp,16
    if(!head)head = thread;
    80002470:	00009797          	auipc	a5,0x9
    80002474:	eb07b783          	ld	a5,-336(a5) # 8000b320 <_ZN14periodicThread4headE>
    80002478:	02078263          	beqz	a5,8000249c <_ZN14periodicThread3putEP3TCB+0x38>
    else tail->set_next_period(thread); // tail->next_period = thread;
    8000247c:	00009797          	auipc	a5,0x9
    80002480:	eac7b783          	ld	a5,-340(a5) # 8000b328 <_ZN14periodicThread4tailE>
    void set_periodic(bool b){
        periodic = b;
        periodicThread::getInstance().put(this);
    }

    void set_next_period(TCB* tcb){ next_period = tcb; }
    80002484:	06b7b423          	sd	a1,104(a5)
    tail = thread;
    80002488:	00009797          	auipc	a5,0x9
    8000248c:	eab7b023          	sd	a1,-352(a5) # 8000b328 <_ZN14periodicThread4tailE>
}
    80002490:	00813403          	ld	s0,8(sp)
    80002494:	01010113          	addi	sp,sp,16
    80002498:	00008067          	ret
    if(!head)head = thread;
    8000249c:	00009797          	auipc	a5,0x9
    800024a0:	e8b7b223          	sd	a1,-380(a5) # 8000b320 <_ZN14periodicThread4headE>
    800024a4:	fe5ff06f          	j	80002488 <_ZN14periodicThread3putEP3TCB+0x24>

00000000800024a8 <_ZN14periodicThread3getEv>:

TCB *periodicThread::get() {
    800024a8:	ff010113          	addi	sp,sp,-16
    800024ac:	00813423          	sd	s0,8(sp)
    800024b0:	01010413          	addi	s0,sp,16
    if(!head)return nullptr;
    800024b4:	00009517          	auipc	a0,0x9
    800024b8:	e6c53503          	ld	a0,-404(a0) # 8000b320 <_ZN14periodicThread4headE>
    800024bc:	00050c63          	beqz	a0,800024d4 <_ZN14periodicThread3getEv+0x2c>

    TCB* get_next_period()const{return next_period;}
    800024c0:	06853783          	ld	a5,104(a0)
    TCB* tmp = head;
    head = head->get_next_period(); // head = head->next_period
    800024c4:	00009717          	auipc	a4,0x9
    800024c8:	e4f73e23          	sd	a5,-420(a4) # 8000b320 <_ZN14periodicThread4headE>
    void set_next_period(TCB* tcb){ next_period = tcb; }
    800024cc:	06053423          	sd	zero,104(a0)
    tmp->set_next_period(nullptr);
    if(!head)tail = nullptr;
    800024d0:	00078863          	beqz	a5,800024e0 <_ZN14periodicThread3getEv+0x38>
    return tmp;
}
    800024d4:	00813403          	ld	s0,8(sp)
    800024d8:	01010113          	addi	sp,sp,16
    800024dc:	00008067          	ret
    if(!head)tail = nullptr;
    800024e0:	00009797          	auipc	a5,0x9
    800024e4:	e407b423          	sd	zero,-440(a5) # 8000b328 <_ZN14periodicThread4tailE>
    800024e8:	fedff06f          	j	800024d4 <_ZN14periodicThread3getEv+0x2c>

00000000800024ec <_Z10size_startPKc>:
//
#include "../h/String.h"
#include "../test/printing.hpp"

// does name start with size-, 1 if true, 0 if not
bool size_start(const char *name){
    800024ec:	ff010113          	addi	sp,sp,-16
    800024f0:	00813423          	sd	s0,8(sp)
    800024f4:	01010413          	addi	s0,sp,16
    // Check if the input string starts with "size-"
    if (name[0] == 's' && name[1] == 'i' && name[2] == 'z' && name[3] == 'e' && name[4] == '-') {
    800024f8:	00054703          	lbu	a4,0(a0)
    800024fc:	07300793          	li	a5,115
    80002500:	00f70a63          	beq	a4,a5,80002514 <_Z10size_startPKc+0x28>
        return true;
    }
    return false;
    80002504:	00000513          	li	a0,0
}
    80002508:	00813403          	ld	s0,8(sp)
    8000250c:	01010113          	addi	sp,sp,16
    80002510:	00008067          	ret
    if (name[0] == 's' && name[1] == 'i' && name[2] == 'z' && name[3] == 'e' && name[4] == '-') {
    80002514:	00154703          	lbu	a4,1(a0)
    80002518:	06900793          	li	a5,105
    8000251c:	00f70663          	beq	a4,a5,80002528 <_Z10size_startPKc+0x3c>
    return false;
    80002520:	00000513          	li	a0,0
    80002524:	fe5ff06f          	j	80002508 <_Z10size_startPKc+0x1c>
    if (name[0] == 's' && name[1] == 'i' && name[2] == 'z' && name[3] == 'e' && name[4] == '-') {
    80002528:	00254703          	lbu	a4,2(a0)
    8000252c:	07a00793          	li	a5,122
    80002530:	00f70663          	beq	a4,a5,8000253c <_Z10size_startPKc+0x50>
    return false;
    80002534:	00000513          	li	a0,0
    80002538:	fd1ff06f          	j	80002508 <_Z10size_startPKc+0x1c>
    if (name[0] == 's' && name[1] == 'i' && name[2] == 'z' && name[3] == 'e' && name[4] == '-') {
    8000253c:	00354703          	lbu	a4,3(a0)
    80002540:	06500793          	li	a5,101
    80002544:	00f70663          	beq	a4,a5,80002550 <_Z10size_startPKc+0x64>
    return false;
    80002548:	00000513          	li	a0,0
    8000254c:	fbdff06f          	j	80002508 <_Z10size_startPKc+0x1c>
    if (name[0] == 's' && name[1] == 'i' && name[2] == 'z' && name[3] == 'e' && name[4] == '-') {
    80002550:	00454703          	lbu	a4,4(a0)
    80002554:	02d00793          	li	a5,45
    80002558:	00f70663          	beq	a4,a5,80002564 <_Z10size_startPKc+0x78>
    return false;
    8000255c:	00000513          	li	a0,0
    80002560:	fa9ff06f          	j	80002508 <_Z10size_startPKc+0x1c>
        return true;
    80002564:	00100513          	li	a0,1
    80002568:	fa1ff06f          	j	80002508 <_Z10size_startPKc+0x1c>

000000008000256c <_Z14get_int_lengthi>:

int get_int_length(int number) {
    8000256c:	ff010113          	addi	sp,sp,-16
    80002570:	00813423          	sd	s0,8(sp)
    80002574:	01010413          	addi	s0,sp,16
    80002578:	00050793          	mv	a5,a0
    int length = 0;
    8000257c:	00000513          	li	a0,0
    while (number != 0) {
    80002580:	00078a63          	beqz	a5,80002594 <_Z14get_int_lengthi+0x28>
        number /= 10;
    80002584:	00a00713          	li	a4,10
    80002588:	02e7c7bb          	divw	a5,a5,a4
        length++;
    8000258c:	0015051b          	addiw	a0,a0,1
    while (number != 0) {
    80002590:	ff1ff06f          	j	80002580 <_Z14get_int_lengthi+0x14>
    }
    return length;
}
    80002594:	00813403          	ld	s0,8(sp)
    80002598:	01010113          	addi	sp,sp,16
    8000259c:	00008067          	ret

00000000800025a0 <_Z13int_to_stringiPci>:

void int_to_string(int number, char* buffer, int bufferSize) {
    800025a0:	fd010113          	addi	sp,sp,-48
    800025a4:	02113423          	sd	ra,40(sp)
    800025a8:	02813023          	sd	s0,32(sp)
    800025ac:	00913c23          	sd	s1,24(sp)
    800025b0:	01213823          	sd	s2,16(sp)
    800025b4:	01313423          	sd	s3,8(sp)
    800025b8:	03010413          	addi	s0,sp,48
    800025bc:	00050493          	mv	s1,a0
    800025c0:	00058913          	mv	s2,a1
    800025c4:	00060993          	mv	s3,a2
    int length = get_int_length(number);
    800025c8:	00000097          	auipc	ra,0x0
    800025cc:	fa4080e7          	jalr	-92(ra) # 8000256c <_Z14get_int_lengthi>

    if (length >= bufferSize) {
    800025d0:	03355a63          	bge	a0,s3,80002604 <_Z13int_to_stringiPci+0x64>
        // Handle buffer overflow
        return;
    }

    for (int i = length - 1; i >= 0; i--) {
    800025d4:	fff5079b          	addiw	a5,a0,-1
    800025d8:	0207c263          	bltz	a5,800025fc <_Z13int_to_stringiPci+0x5c>
        buffer[i] = '0' + (number % 10);
    800025dc:	00a00693          	li	a3,10
    800025e0:	02d4e73b          	remw	a4,s1,a3
    800025e4:	00f90633          	add	a2,s2,a5
    800025e8:	0307071b          	addiw	a4,a4,48
    800025ec:	00e60023          	sb	a4,0(a2)
        number /= 10;
    800025f0:	02d4c4bb          	divw	s1,s1,a3
    for (int i = length - 1; i >= 0; i--) {
    800025f4:	fff7879b          	addiw	a5,a5,-1
    800025f8:	fe1ff06f          	j	800025d8 <_Z13int_to_stringiPci+0x38>
    }
    buffer[length] = '\0';
    800025fc:	00a90933          	add	s2,s2,a0
    80002600:	00090023          	sb	zero,0(s2)
}
    80002604:	02813083          	ld	ra,40(sp)
    80002608:	02013403          	ld	s0,32(sp)
    8000260c:	01813483          	ld	s1,24(sp)
    80002610:	01013903          	ld	s2,16(sp)
    80002614:	00813983          	ld	s3,8(sp)
    80002618:	03010113          	addi	sp,sp,48
    8000261c:	00008067          	ret

0000000080002620 <_Z27concatenate_int_to_char_ptri>:

char* concatenate_int_to_char_ptr(int number) {
    80002620:	fe010113          	addi	sp,sp,-32
    80002624:	00113c23          	sd	ra,24(sp)
    80002628:	00813823          	sd	s0,16(sp)
    8000262c:	00913423          	sd	s1,8(sp)
    80002630:	02010413          	addi	s0,sp,32
    80002634:	00050493          	mv	s1,a0
    char* baseString = (char*)"size-xxxxxx";
    int length = get_int_length(number);
    80002638:	00000097          	auipc	ra,0x0
    8000263c:	f34080e7          	jalr	-204(ra) # 8000256c <_Z14get_int_lengthi>
    for(int i = 5 + length; i >= 5; i--){
    80002640:	0055051b          	addiw	a0,a0,5
    80002644:	00050793          	mv	a5,a0
    80002648:	0180006f          	j	80002660 <_Z27concatenate_int_to_char_ptri+0x40>
        if(i == 5 + length){
            baseString[i] = '\0';
    8000264c:	00007717          	auipc	a4,0x7
    80002650:	9d470713          	addi	a4,a4,-1580 # 80009020 <CONSOLE_STATUS+0x10>
    80002654:	00e78733          	add	a4,a5,a4
    80002658:	00070023          	sb	zero,0(a4)
    for(int i = 5 + length; i >= 5; i--){
    8000265c:	fff7879b          	addiw	a5,a5,-1
    80002660:	00400713          	li	a4,4
    80002664:	02f75863          	bge	a4,a5,80002694 <_Z27concatenate_int_to_char_ptri+0x74>
        if(i == 5 + length){
    80002668:	fea782e3          	beq	a5,a0,8000264c <_Z27concatenate_int_to_char_ptri+0x2c>
        }else{
            int mod = number % 10;
    8000266c:	00a00693          	li	a3,10
    80002670:	02d4e73b          	remw	a4,s1,a3
            number /= 10;
    80002674:	02d4c4bb          	divw	s1,s1,a3
            char num_char = '0' + mod;
    80002678:	0ff77713          	andi	a4,a4,255
    8000267c:	0307071b          	addiw	a4,a4,48
            baseString[i] = num_char;
    80002680:	00007697          	auipc	a3,0x7
    80002684:	9a068693          	addi	a3,a3,-1632 # 80009020 <CONSOLE_STATUS+0x10>
    80002688:	00d786b3          	add	a3,a5,a3
    8000268c:	00e68023          	sb	a4,0(a3)
    80002690:	fcdff06f          	j	8000265c <_Z27concatenate_int_to_char_ptri+0x3c>
        }
    }
    return baseString;

}
    80002694:	00007517          	auipc	a0,0x7
    80002698:	98c50513          	addi	a0,a0,-1652 # 80009020 <CONSOLE_STATUS+0x10>
    8000269c:	01813083          	ld	ra,24(sp)
    800026a0:	01013403          	ld	s0,16(sp)
    800026a4:	00813483          	ld	s1,8(sp)
    800026a8:	02010113          	addi	sp,sp,32
    800026ac:	00008067          	ret

00000000800026b0 <_Z14string_comparePKcS0_>:

bool string_compare(const char* str1, const char* str2) {
    800026b0:	ff010113          	addi	sp,sp,-16
    800026b4:	00813423          	sd	s0,8(sp)
    800026b8:	01010413          	addi	s0,sp,16
    800026bc:	00c0006f          	j	800026c8 <_Z14string_comparePKcS0_+0x18>
    while (*str1 != '\0' && *str2 != '\0') {
        if (*str1 != *str2) {
            return false;
        }
        str1++;
    800026c0:	00150513          	addi	a0,a0,1
        str2++;
    800026c4:	00158593          	addi	a1,a1,1
    while (*str1 != '\0' && *str2 != '\0') {
    800026c8:	00054783          	lbu	a5,0(a0)
    800026cc:	00078c63          	beqz	a5,800026e4 <_Z14string_comparePKcS0_+0x34>
    800026d0:	0005c703          	lbu	a4,0(a1)
    800026d4:	00070863          	beqz	a4,800026e4 <_Z14string_comparePKcS0_+0x34>
        if (*str1 != *str2) {
    800026d8:	fee784e3          	beq	a5,a4,800026c0 <_Z14string_comparePKcS0_+0x10>
            return false;
    800026dc:	00000513          	li	a0,0
    800026e0:	01c0006f          	j	800026fc <_Z14string_comparePKcS0_+0x4c>
    }

    // Check if both strings have reached the end simultaneously
    return (*str1 == '\0' && *str2 == '\0');
    800026e4:	00079a63          	bnez	a5,800026f8 <_Z14string_comparePKcS0_+0x48>
    800026e8:	0005c783          	lbu	a5,0(a1)
    800026ec:	00078e63          	beqz	a5,80002708 <_Z14string_comparePKcS0_+0x58>
    800026f0:	00000513          	li	a0,0
    800026f4:	0080006f          	j	800026fc <_Z14string_comparePKcS0_+0x4c>
    800026f8:	00000513          	li	a0,0
    800026fc:	00813403          	ld	s0,8(sp)
    80002700:	01010113          	addi	sp,sp,16
    80002704:	00008067          	ret
    return (*str1 == '\0' && *str2 == '\0');
    80002708:	00100513          	li	a0,1
    8000270c:	ff1ff06f          	j	800026fc <_Z14string_comparePKcS0_+0x4c>

0000000080002710 <_Z13idle_functionPv>:
//#include "../test/printing.hpp"
#include "../h/riscv.hpp"
#include "../h/syscall_c.h"
#include "../test/userMain.hpp"

void idle_function(void* arg){
    80002710:	ff010113          	addi	sp,sp,-16
    80002714:	00113423          	sd	ra,8(sp)
    80002718:	00813023          	sd	s0,0(sp)
    8000271c:	01010413          	addi	s0,sp,16
    while(1){
        thread_dispatch();
    80002720:	fffff097          	auipc	ra,0xfffff
    80002724:	c64080e7          	jalr	-924(ra) # 80001384 <thread_dispatch>
    while(1){
    80002728:	ff9ff06f          	j	80002720 <_Z13idle_functionPv+0x10>

000000008000272c <_Z13putc_functionPv>:
    }
}

void putc_function(void* arg){
    8000272c:	fe010113          	addi	sp,sp,-32
    80002730:	00113c23          	sd	ra,24(sp)
    80002734:	00813823          	sd	s0,16(sp)
    80002738:	00913423          	sd	s1,8(sp)
    8000273c:	02010413          	addi	s0,sp,32
    switch_to_priviledged();
    80002740:	fffff097          	auipc	ra,0xfffff
    80002744:	fdc080e7          	jalr	-36(ra) # 8000171c <switch_to_priviledged>
    __asm__ volatile ("csrs sstatus, %[mask]" : : [mask] "r"(mask));
}

inline void Riscv::mc_sstatus(uint64 mask)
{
    __asm__ volatile ("csrc sstatus, %[mask]" : : [mask] "r"(mask));
    80002748:	00200793          	li	a5,2
    8000274c:	1007b073          	csrc	sstatus,a5
}
    80002750:	0400006f          	j	80002790 <_Z13putc_functionPv+0x64>

class Console{
public:

    static Console& getInstance(){
        static Console instance;
    80002754:	00009517          	auipc	a0,0x9
    80002758:	bec50513          	addi	a0,a0,-1044 # 8000b340 <_ZZN7Console11getInstanceEvE8instance>
    8000275c:	00000097          	auipc	ra,0x0
    80002760:	2cc080e7          	jalr	716(ra) # 80002a28 <_ZN7ConsoleC1Ev>
    80002764:	00100793          	li	a5,1
    80002768:	00009717          	auipc	a4,0x9
    8000276c:	bcf70823          	sb	a5,-1072(a4) # 8000b338 <_ZGVZN7Console11getInstanceEvE8instance>
    Riscv::mc_sstatus(Riscv::SSTATUS_SIE);
    while(1){
        while((*((char*)CONSOLE_STATUS) & CONSOLE_TX_STATUS_BIT)
              /*&& Console::getInstance().get_output_size()*/) {
            *((char*)CONSOLE_TX_DATA) = Console::getInstance().get_from_output();
    80002770:	00009797          	auipc	a5,0x9
    80002774:	b087b783          	ld	a5,-1272(a5) # 8000b278 <_GLOBAL_OFFSET_TABLE_+0x48>
    80002778:	0007b483          	ld	s1,0(a5)
    8000277c:	00009517          	auipc	a0,0x9
    80002780:	bc450513          	addi	a0,a0,-1084 # 8000b340 <_ZZN7Console11getInstanceEvE8instance>
    80002784:	00000097          	auipc	ra,0x0
    80002788:	500080e7          	jalr	1280(ra) # 80002c84 <_ZN7Console15get_from_outputEv>
    8000278c:	00a48023          	sb	a0,0(s1)
        while((*((char*)CONSOLE_STATUS) & CONSOLE_TX_STATUS_BIT)
    80002790:	00009797          	auipc	a5,0x9
    80002794:	ab07b783          	ld	a5,-1360(a5) # 8000b240 <_GLOBAL_OFFSET_TABLE_+0x10>
    80002798:	0007b783          	ld	a5,0(a5)
    8000279c:	0007c783          	lbu	a5,0(a5)
    800027a0:	0207f793          	andi	a5,a5,32
    800027a4:	00078a63          	beqz	a5,800027b8 <_Z13putc_functionPv+0x8c>
    800027a8:	00009797          	auipc	a5,0x9
    800027ac:	b907c783          	lbu	a5,-1136(a5) # 8000b338 <_ZGVZN7Console11getInstanceEvE8instance>
    800027b0:	fc0790e3          	bnez	a5,80002770 <_Z13putc_functionPv+0x44>
    800027b4:	fa1ff06f          	j	80002754 <_Z13putc_functionPv+0x28>
        }
        thread_dispatch();
    800027b8:	fffff097          	auipc	ra,0xfffff
    800027bc:	bcc080e7          	jalr	-1076(ra) # 80001384 <thread_dispatch>
        while((*((char*)CONSOLE_STATUS) & CONSOLE_TX_STATUS_BIT)
    800027c0:	fd1ff06f          	j	80002790 <_Z13putc_functionPv+0x64>

00000000800027c4 <_Z17user_main_wrapperPv>:
    }
}

static bool is_user_main_finished = false;
void user_main_wrapper(void* arg){
    800027c4:	ff010113          	addi	sp,sp,-16
    800027c8:	00113423          	sd	ra,8(sp)
    800027cc:	00813023          	sd	s0,0(sp)
    800027d0:	01010413          	addi	s0,sp,16
    switch_to_user();
    800027d4:	fffff097          	auipc	ra,0xfffff
    800027d8:	ef8080e7          	jalr	-264(ra) # 800016cc <switch_to_user>
    userMain();
    800027dc:	00003097          	auipc	ra,0x3
    800027e0:	760080e7          	jalr	1888(ra) # 80005f3c <_Z8userMainv>
    switch_to_priviledged();
    800027e4:	fffff097          	auipc	ra,0xfffff
    800027e8:	f38080e7          	jalr	-200(ra) # 8000171c <switch_to_priviledged>
    is_user_main_finished = true;
    800027ec:	00100793          	li	a5,1
    800027f0:	00009717          	auipc	a4,0x9
    800027f4:	b4f70023          	sb	a5,-1216(a4) # 8000b330 <_ZL21is_user_main_finished>
}
    800027f8:	00813083          	ld	ra,8(sp)
    800027fc:	00013403          	ld	s0,0(sp)
    80002800:	01010113          	addi	sp,sp,16
    80002804:	00008067          	ret

0000000080002808 <main>:
#include "../test/userMain.hpp"
#include "../h/fun.hpp"



int main(){
    80002808:	fc010113          	addi	sp,sp,-64
    8000280c:	02113c23          	sd	ra,56(sp)
    80002810:	02813823          	sd	s0,48(sp)
    80002814:	02913423          	sd	s1,40(sp)
    80002818:	04010413          	addi	s0,sp,64

    // ###################################################################################################
    // upis u stvec
    uint64 address = reinterpret_cast<uint64>(&Riscv::supervisorTrap);
    8000281c:	00009797          	auipc	a5,0x9
    80002820:	a447b783          	ld	a5,-1468(a5) # 8000b260 <_GLOBAL_OFFSET_TABLE_+0x30>
    __asm__ volatile ("csrw stvec, %[stvec]" : : [stvec] "r"(stvec));
    80002824:	10579073          	csrw	stvec,a5
    Riscv::w_stvec(address);

    // kreiranje main niti
    thread_t mainThread = nullptr;
    80002828:	fc043c23          	sd	zero,-40(s0)
    thread_create(&mainThread, nullptr, nullptr);
    8000282c:	00000613          	li	a2,0
    80002830:	00000593          	li	a1,0
    80002834:	fd840513          	addi	a0,s0,-40
    80002838:	fffff097          	auipc	ra,0xfffff
    8000283c:	ab8080e7          	jalr	-1352(ra) # 800012f0 <thread_create>
    TCB::running = (TCB*)mainThread;
    80002840:	00009797          	auipc	a5,0x9
    80002844:	a507b783          	ld	a5,-1456(a5) # 8000b290 <_GLOBAL_OFFSET_TABLE_+0x60>
    80002848:	fd843703          	ld	a4,-40(s0)
    8000284c:	00e7b023          	sd	a4,0(a5)

    // kreiranje idle niti
    thread_create((thread_t*)&TCB::idle, &idle_function, nullptr);
    80002850:	00000613          	li	a2,0
    80002854:	00000597          	auipc	a1,0x0
    80002858:	ebc58593          	addi	a1,a1,-324 # 80002710 <_Z13idle_functionPv>
    8000285c:	00009517          	auipc	a0,0x9
    80002860:	a0c53503          	ld	a0,-1524(a0) # 8000b268 <_GLOBAL_OFFSET_TABLE_+0x38>
    80002864:	fffff097          	auipc	ra,0xfffff
    80002868:	a8c080e7          	jalr	-1396(ra) # 800012f0 <thread_create>

    // kreiranje userMain niti
//    thread_t userMainThread = nullptr;
//    thread_create(&userMainThread, &userMain, nullptr);

    thread_t userMainThread = nullptr;
    8000286c:	fc043823          	sd	zero,-48(s0)
    thread_create(&userMainThread, &user_main_wrapper, nullptr);
    80002870:	00000613          	li	a2,0
    80002874:	00000597          	auipc	a1,0x0
    80002878:	f5058593          	addi	a1,a1,-176 # 800027c4 <_Z17user_main_wrapperPv>
    8000287c:	fd040513          	addi	a0,s0,-48
    80002880:	fffff097          	auipc	ra,0xfffff
    80002884:	a70080e7          	jalr	-1424(ra) # 800012f0 <thread_create>

    // kreiranje niti za ispis
    thread_t consoleWriter = nullptr;
    80002888:	fc043423          	sd	zero,-56(s0)
    thread_create(&consoleWriter, &putc_function, nullptr);
    8000288c:	00000613          	li	a2,0
    80002890:	00000597          	auipc	a1,0x0
    80002894:	e9c58593          	addi	a1,a1,-356 # 8000272c <_Z13putc_functionPv>
    80002898:	fc840513          	addi	a0,s0,-56
    8000289c:	fffff097          	auipc	ra,0xfffff
    800028a0:	a54080e7          	jalr	-1452(ra) # 800012f0 <thread_create>
    800028a4:	00009797          	auipc	a5,0x9
    800028a8:	a947c783          	lbu	a5,-1388(a5) # 8000b338 <_ZGVZN7Console11getInstanceEvE8instance>
    800028ac:	00078863          	beqz	a5,800028bc <main+0xb4>
    __asm__ volatile ("csrs sstatus, %[mask]" : : [mask] "r"(mask));
    800028b0:	00200793          	li	a5,2
    800028b4:	1007a073          	csrs	sstatus,a5
}
    800028b8:	05c0006f          	j	80002914 <main+0x10c>
    800028bc:	00009517          	auipc	a0,0x9
    800028c0:	a8450513          	addi	a0,a0,-1404 # 8000b340 <_ZZN7Console11getInstanceEvE8instance>
    800028c4:	00000097          	auipc	ra,0x0
    800028c8:	164080e7          	jalr	356(ra) # 80002a28 <_ZN7ConsoleC1Ev>
    800028cc:	00100793          	li	a5,1
    800028d0:	00009717          	auipc	a4,0x9
    800028d4:	a6f70423          	sb	a5,-1432(a4) # 8000b338 <_ZGVZN7Console11getInstanceEvE8instance>
    800028d8:	fd9ff06f          	j	800028b0 <main+0xa8>
    800028dc:	00009517          	auipc	a0,0x9
    800028e0:	a6450513          	addi	a0,a0,-1436 # 8000b340 <_ZZN7Console11getInstanceEvE8instance>
    800028e4:	00000097          	auipc	ra,0x0
    800028e8:	144080e7          	jalr	324(ra) # 80002a28 <_ZN7ConsoleC1Ev>
    800028ec:	00100793          	li	a5,1
    800028f0:	00009717          	auipc	a4,0x9
    800028f4:	a4f70423          	sb	a5,-1464(a4) # 8000b338 <_ZGVZN7Console11getInstanceEvE8instance>

    void put_in_input(char c);
    char get_from_input();
    void put_in_output(char c);
    char get_from_output();
    int get_output_size(){ return output_buffer->getCnt(); }
    800028f8:	00009517          	auipc	a0,0x9
    800028fc:	a5053503          	ld	a0,-1456(a0) # 8000b348 <_ZZN7Console11getInstanceEvE8instance+0x8>
    80002900:	fffff097          	auipc	ra,0xfffff
    80002904:	24c080e7          	jalr	588(ra) # 80001b4c <_ZN8MyBuffer6getCntEv>
    // ako sam obrisao userMain pristupam nepostojecoj strukturi
//    while(!((TCB*)userMainThread)->is_finished()){
//        thread_dispatch();
//    }

    while(!is_user_main_finished || Console::getInstance().get_output_size()){
    80002908:	02050463          	beqz	a0,80002930 <main+0x128>
        thread_dispatch();
    8000290c:	fffff097          	auipc	ra,0xfffff
    80002910:	a78080e7          	jalr	-1416(ra) # 80001384 <thread_dispatch>
    while(!is_user_main_finished || Console::getInstance().get_output_size()){
    80002914:	00009797          	auipc	a5,0x9
    80002918:	a1c7c783          	lbu	a5,-1508(a5) # 8000b330 <_ZL21is_user_main_finished>
    8000291c:	fe0788e3          	beqz	a5,8000290c <main+0x104>
        static Console instance;
    80002920:	00009797          	auipc	a5,0x9
    80002924:	a187c783          	lbu	a5,-1512(a5) # 8000b338 <_ZGVZN7Console11getInstanceEvE8instance>
    80002928:	fc0798e3          	bnez	a5,800028f8 <main+0xf0>
    8000292c:	fb1ff06f          	j	800028dc <main+0xd4>
    80002930:	00009797          	auipc	a5,0x9
    80002934:	a087c783          	lbu	a5,-1528(a5) # 8000b338 <_ZGVZN7Console11getInstanceEvE8instance>
    80002938:	04078a63          	beqz	a5,8000298c <main+0x184>
    int get_input_size(){ return input_buffer->getCnt(); }

    MyBuffer* get_input_buff(){return input_buffer;}
    8000293c:	00009497          	auipc	s1,0x9
    80002940:	a044b483          	ld	s1,-1532(s1) # 8000b340 <_ZZN7Console11getInstanceEvE8instance>
    }


    delete Console::getInstance().get_input_buff();
    80002944:	02048863          	beqz	s1,80002974 <main+0x16c>
    80002948:	00048513          	mv	a0,s1
    8000294c:	fffff097          	auipc	ra,0xfffff
    80002950:	fec080e7          	jalr	-20(ra) # 80001938 <_ZN8MyBufferD1Ev>
class MemoryAllocator{
public:

    // dodaj instancu
    static MemoryAllocator& getInstance(){
        static MemoryAllocator instance;
    80002954:	00009797          	auipc	a5,0x9
    80002958:	99c7c783          	lbu	a5,-1636(a5) # 8000b2f0 <_ZGVZN15MemoryAllocator11getInstanceEvE8instance>
    8000295c:	04078863          	beqz	a5,800029ac <main+0x1a4>
        uint64 ssize = (n + MEM_BLOCK_SIZE - 1) / MEM_BLOCK_SIZE;
        return MemoryAllocator::getInstance().memory_alloc(ssize);
    }

    void operator delete(void* p)noexcept{
        MemoryAllocator::getInstance().memory_free(p);
    80002960:	00048593          	mv	a1,s1
    80002964:	00009517          	auipc	a0,0x9
    80002968:	99450513          	addi	a0,a0,-1644 # 8000b2f8 <_ZZN15MemoryAllocator11getInstanceEvE8instance>
    8000296c:	00003097          	auipc	ra,0x3
    80002970:	82c080e7          	jalr	-2004(ra) # 80005198 <_ZN15MemoryAllocator11memory_freeEPv>
    return 0;
    80002974:	00000513          	li	a0,0
    80002978:	03813083          	ld	ra,56(sp)
    8000297c:	03013403          	ld	s0,48(sp)
    80002980:	02813483          	ld	s1,40(sp)
    80002984:	04010113          	addi	sp,sp,64
    80002988:	00008067          	ret
        static Console instance;
    8000298c:	00009517          	auipc	a0,0x9
    80002990:	9b450513          	addi	a0,a0,-1612 # 8000b340 <_ZZN7Console11getInstanceEvE8instance>
    80002994:	00000097          	auipc	ra,0x0
    80002998:	094080e7          	jalr	148(ra) # 80002a28 <_ZN7ConsoleC1Ev>
    8000299c:	00100793          	li	a5,1
    800029a0:	00009717          	auipc	a4,0x9
    800029a4:	98f70c23          	sb	a5,-1640(a4) # 8000b338 <_ZGVZN7Console11getInstanceEvE8instance>
    800029a8:	f95ff06f          	j	8000293c <main+0x134>

    FreeMem* fmem_head = nullptr;
    size_t heapStart;
    size_t heapEnd;

    MemoryAllocator(){
    800029ac:	00009617          	auipc	a2,0x9
    800029b0:	94c60613          	addi	a2,a2,-1716 # 8000b2f8 <_ZZN15MemoryAllocator11getInstanceEvE8instance>

        heapStart = (size_t)HEAP_START_ADDR + ((size_t)HEAP_END_ADDR - (size_t)HEAP_START_ADDR) / 8 + 1;
    800029b4:	00009797          	auipc	a5,0x9
    800029b8:	8e47b783          	ld	a5,-1820(a5) # 8000b298 <_GLOBAL_OFFSET_TABLE_+0x68>
    800029bc:	0007b703          	ld	a4,0(a5)
    800029c0:	00009797          	auipc	a5,0x9
    800029c4:	8907b783          	ld	a5,-1904(a5) # 8000b250 <_GLOBAL_OFFSET_TABLE_+0x20>
    800029c8:	0007b783          	ld	a5,0(a5)
    800029cc:	40f706b3          	sub	a3,a4,a5
    800029d0:	0036d693          	srli	a3,a3,0x3
    800029d4:	00d787b3          	add	a5,a5,a3
    800029d8:	00178793          	addi	a5,a5,1
    800029dc:	00f63423          	sd	a5,8(a2)
        heapEnd = (size_t)HEAP_END_ADDR - 1;
    800029e0:	fff70713          	addi	a4,a4,-1
    800029e4:	00e63823          	sd	a4,16(a2)

        size_t sizeInBlocks = (heapEnd - heapStart) / MEM_BLOCK_SIZE;
    800029e8:	40f70733          	sub	a4,a4,a5
    800029ec:	00675713          	srli	a4,a4,0x6

        // poravnaj na prvu krstenu adresu
        fmem_head = (FreeMem*)(heapStart + ((heapStart % MEM_BLOCK_SIZE != 0)?(MEM_BLOCK_SIZE - heapStart % MEM_BLOCK_SIZE) : 0));
    800029f0:	03f7f693          	andi	a3,a5,63
    800029f4:	00068663          	beqz	a3,80002a00 <main+0x1f8>
    800029f8:	04000613          	li	a2,64
    800029fc:	40d606b3          	sub	a3,a2,a3
    80002a00:	00d787b3          	add	a5,a5,a3
    80002a04:	00009697          	auipc	a3,0x9
    80002a08:	8ef6ba23          	sd	a5,-1804(a3) # 8000b2f8 <_ZZN15MemoryAllocator11getInstanceEvE8instance>

        // napravi node

        fmem_head->next = nullptr;
    80002a0c:	0007b423          	sd	zero,8(a5)
        fmem_head->prev = nullptr;
    80002a10:	0007b823          	sd	zero,16(a5)
        fmem_head->size = sizeInBlocks;
    80002a14:	00e7b023          	sd	a4,0(a5)
        static MemoryAllocator instance;
    80002a18:	00100793          	li	a5,1
    80002a1c:	00009717          	auipc	a4,0x9
    80002a20:	8cf70a23          	sb	a5,-1836(a4) # 8000b2f0 <_ZGVZN15MemoryAllocator11getInstanceEvE8instance>
    80002a24:	f3dff06f          	j	80002960 <main+0x158>

0000000080002a28 <_ZN7ConsoleC1Ev>:

#include "../h/console.hpp"

Console::Console() {
    80002a28:	fe010113          	addi	sp,sp,-32
    80002a2c:	00113c23          	sd	ra,24(sp)
    80002a30:	00813823          	sd	s0,16(sp)
    80002a34:	00913423          	sd	s1,8(sp)
    80002a38:	01213023          	sd	s2,0(sp)
    80002a3c:	02010413          	addi	s0,sp,32
    80002a40:	00050493          	mv	s1,a0
    80002a44:	00009797          	auipc	a5,0x9
    80002a48:	8ac7c783          	lbu	a5,-1876(a5) # 8000b2f0 <_ZGVZN15MemoryAllocator11getInstanceEvE8instance>
    80002a4c:	02078663          	beqz	a5,80002a78 <_ZN7ConsoleC1Ev+0x50>
        return MemoryAllocator::getInstance().memory_alloc(ssize);
    80002a50:	00100593          	li	a1,1
    80002a54:	00009517          	auipc	a0,0x9
    80002a58:	8a450513          	addi	a0,a0,-1884 # 8000b2f8 <_ZZN15MemoryAllocator11getInstanceEvE8instance>
    80002a5c:	00002097          	auipc	ra,0x2
    80002a60:	668080e7          	jalr	1640(ra) # 800050c4 <_ZN15MemoryAllocator12memory_allocEm>
    80002a64:	00050913          	mv	s2,a0
    input_buffer = new MyBuffer(1024);
    80002a68:	40000593          	li	a1,1024
    80002a6c:	fffff097          	auipc	ra,0xfffff
    80002a70:	da0080e7          	jalr	-608(ra) # 8000180c <_ZN8MyBufferC1Ei>
    80002a74:	0800006f          	j	80002af4 <_ZN7ConsoleC1Ev+0xcc>
    MemoryAllocator(){
    80002a78:	00009617          	auipc	a2,0x9
    80002a7c:	88060613          	addi	a2,a2,-1920 # 8000b2f8 <_ZZN15MemoryAllocator11getInstanceEvE8instance>
        heapStart = (size_t)HEAP_START_ADDR + ((size_t)HEAP_END_ADDR - (size_t)HEAP_START_ADDR) / 8 + 1;
    80002a80:	00009797          	auipc	a5,0x9
    80002a84:	8187b783          	ld	a5,-2024(a5) # 8000b298 <_GLOBAL_OFFSET_TABLE_+0x68>
    80002a88:	0007b703          	ld	a4,0(a5)
    80002a8c:	00008797          	auipc	a5,0x8
    80002a90:	7c47b783          	ld	a5,1988(a5) # 8000b250 <_GLOBAL_OFFSET_TABLE_+0x20>
    80002a94:	0007b783          	ld	a5,0(a5)
    80002a98:	40f706b3          	sub	a3,a4,a5
    80002a9c:	0036d693          	srli	a3,a3,0x3
    80002aa0:	00d787b3          	add	a5,a5,a3
    80002aa4:	00178793          	addi	a5,a5,1
    80002aa8:	00f63423          	sd	a5,8(a2)
        heapEnd = (size_t)HEAP_END_ADDR - 1;
    80002aac:	fff70713          	addi	a4,a4,-1
    80002ab0:	00e63823          	sd	a4,16(a2)
        size_t sizeInBlocks = (heapEnd - heapStart) / MEM_BLOCK_SIZE;
    80002ab4:	40f70733          	sub	a4,a4,a5
    80002ab8:	00675713          	srli	a4,a4,0x6
        fmem_head = (FreeMem*)(heapStart + ((heapStart % MEM_BLOCK_SIZE != 0)?(MEM_BLOCK_SIZE - heapStart % MEM_BLOCK_SIZE) : 0));
    80002abc:	03f7f693          	andi	a3,a5,63
    80002ac0:	00068663          	beqz	a3,80002acc <_ZN7ConsoleC1Ev+0xa4>
    80002ac4:	04000613          	li	a2,64
    80002ac8:	40d606b3          	sub	a3,a2,a3
    80002acc:	00d787b3          	add	a5,a5,a3
    80002ad0:	00009697          	auipc	a3,0x9
    80002ad4:	82f6b423          	sd	a5,-2008(a3) # 8000b2f8 <_ZZN15MemoryAllocator11getInstanceEvE8instance>
        fmem_head->next = nullptr;
    80002ad8:	0007b423          	sd	zero,8(a5)
        fmem_head->prev = nullptr;
    80002adc:	0007b823          	sd	zero,16(a5)
        fmem_head->size = sizeInBlocks;
    80002ae0:	00e7b023          	sd	a4,0(a5)
        static MemoryAllocator instance;
    80002ae4:	00100793          	li	a5,1
    80002ae8:	00009717          	auipc	a4,0x9
    80002aec:	80f70423          	sb	a5,-2040(a4) # 8000b2f0 <_ZGVZN15MemoryAllocator11getInstanceEvE8instance>
    80002af0:	f61ff06f          	j	80002a50 <_ZN7ConsoleC1Ev+0x28>
    80002af4:	0124b023          	sd	s2,0(s1)
    80002af8:	00008797          	auipc	a5,0x8
    80002afc:	7f87c783          	lbu	a5,2040(a5) # 8000b2f0 <_ZGVZN15MemoryAllocator11getInstanceEvE8instance>
    80002b00:	02078663          	beqz	a5,80002b2c <_ZN7ConsoleC1Ev+0x104>
    80002b04:	00100593          	li	a1,1
    80002b08:	00008517          	auipc	a0,0x8
    80002b0c:	7f050513          	addi	a0,a0,2032 # 8000b2f8 <_ZZN15MemoryAllocator11getInstanceEvE8instance>
    80002b10:	00002097          	auipc	ra,0x2
    80002b14:	5b4080e7          	jalr	1460(ra) # 800050c4 <_ZN15MemoryAllocator12memory_allocEm>
    80002b18:	00050913          	mv	s2,a0
    output_buffer = new MyBuffer(1024);
    80002b1c:	40000593          	li	a1,1024
    80002b20:	fffff097          	auipc	ra,0xfffff
    80002b24:	cec080e7          	jalr	-788(ra) # 8000180c <_ZN8MyBufferC1Ei>
    80002b28:	0800006f          	j	80002ba8 <_ZN7ConsoleC1Ev+0x180>
    MemoryAllocator(){
    80002b2c:	00008617          	auipc	a2,0x8
    80002b30:	7cc60613          	addi	a2,a2,1996 # 8000b2f8 <_ZZN15MemoryAllocator11getInstanceEvE8instance>
        heapStart = (size_t)HEAP_START_ADDR + ((size_t)HEAP_END_ADDR - (size_t)HEAP_START_ADDR) / 8 + 1;
    80002b34:	00008797          	auipc	a5,0x8
    80002b38:	7647b783          	ld	a5,1892(a5) # 8000b298 <_GLOBAL_OFFSET_TABLE_+0x68>
    80002b3c:	0007b703          	ld	a4,0(a5)
    80002b40:	00008797          	auipc	a5,0x8
    80002b44:	7107b783          	ld	a5,1808(a5) # 8000b250 <_GLOBAL_OFFSET_TABLE_+0x20>
    80002b48:	0007b783          	ld	a5,0(a5)
    80002b4c:	40f706b3          	sub	a3,a4,a5
    80002b50:	0036d693          	srli	a3,a3,0x3
    80002b54:	00d787b3          	add	a5,a5,a3
    80002b58:	00178793          	addi	a5,a5,1
    80002b5c:	00f63423          	sd	a5,8(a2)
        heapEnd = (size_t)HEAP_END_ADDR - 1;
    80002b60:	fff70713          	addi	a4,a4,-1
    80002b64:	00e63823          	sd	a4,16(a2)
        size_t sizeInBlocks = (heapEnd - heapStart) / MEM_BLOCK_SIZE;
    80002b68:	40f70733          	sub	a4,a4,a5
    80002b6c:	00675713          	srli	a4,a4,0x6
        fmem_head = (FreeMem*)(heapStart + ((heapStart % MEM_BLOCK_SIZE != 0)?(MEM_BLOCK_SIZE - heapStart % MEM_BLOCK_SIZE) : 0));
    80002b70:	03f7f693          	andi	a3,a5,63
    80002b74:	00068663          	beqz	a3,80002b80 <_ZN7ConsoleC1Ev+0x158>
    80002b78:	04000613          	li	a2,64
    80002b7c:	40d606b3          	sub	a3,a2,a3
    80002b80:	00d787b3          	add	a5,a5,a3
    80002b84:	00008697          	auipc	a3,0x8
    80002b88:	76f6ba23          	sd	a5,1908(a3) # 8000b2f8 <_ZZN15MemoryAllocator11getInstanceEvE8instance>
        fmem_head->next = nullptr;
    80002b8c:	0007b423          	sd	zero,8(a5)
        fmem_head->prev = nullptr;
    80002b90:	0007b823          	sd	zero,16(a5)
        fmem_head->size = sizeInBlocks;
    80002b94:	00e7b023          	sd	a4,0(a5)
        static MemoryAllocator instance;
    80002b98:	00100793          	li	a5,1
    80002b9c:	00008717          	auipc	a4,0x8
    80002ba0:	74f70a23          	sb	a5,1876(a4) # 8000b2f0 <_ZGVZN15MemoryAllocator11getInstanceEvE8instance>
    80002ba4:	f61ff06f          	j	80002b04 <_ZN7ConsoleC1Ev+0xdc>
    80002ba8:	0124b423          	sd	s2,8(s1)
}
    80002bac:	01813083          	ld	ra,24(sp)
    80002bb0:	01013403          	ld	s0,16(sp)
    80002bb4:	00813483          	ld	s1,8(sp)
    80002bb8:	00013903          	ld	s2,0(sp)
    80002bbc:	02010113          	addi	sp,sp,32
    80002bc0:	00008067          	ret
    80002bc4:	00050493          	mv	s1,a0
    input_buffer = new MyBuffer(1024);
    80002bc8:	00090513          	mv	a0,s2
    80002bcc:	00000097          	auipc	ra,0x0
    80002bd0:	0e8080e7          	jalr	232(ra) # 80002cb4 <_ZN8MyBufferdlEPv>
    80002bd4:	00048513          	mv	a0,s1
    80002bd8:	0000a097          	auipc	ra,0xa
    80002bdc:	a20080e7          	jalr	-1504(ra) # 8000c5f8 <_Unwind_Resume>
    80002be0:	00050493          	mv	s1,a0
    output_buffer = new MyBuffer(1024);
    80002be4:	00090513          	mv	a0,s2
    80002be8:	00000097          	auipc	ra,0x0
    80002bec:	0cc080e7          	jalr	204(ra) # 80002cb4 <_ZN8MyBufferdlEPv>
    80002bf0:	00048513          	mv	a0,s1
    80002bf4:	0000a097          	auipc	ra,0xa
    80002bf8:	a04080e7          	jalr	-1532(ra) # 8000c5f8 <_Unwind_Resume>

0000000080002bfc <_ZN7Console12put_in_inputEc>:

void Console::put_in_input(char c){
    80002bfc:	ff010113          	addi	sp,sp,-16
    80002c00:	00113423          	sd	ra,8(sp)
    80002c04:	00813023          	sd	s0,0(sp)
    80002c08:	01010413          	addi	s0,sp,16
    input_buffer->put(c);
    80002c0c:	00053503          	ld	a0,0(a0)
    80002c10:	fffff097          	auipc	ra,0xfffff
    80002c14:	e20080e7          	jalr	-480(ra) # 80001a30 <_ZN8MyBuffer3putEi>
}
    80002c18:	00813083          	ld	ra,8(sp)
    80002c1c:	00013403          	ld	s0,0(sp)
    80002c20:	01010113          	addi	sp,sp,16
    80002c24:	00008067          	ret

0000000080002c28 <_ZN7Console14get_from_inputEv>:

char Console::get_from_input(){
    80002c28:	ff010113          	addi	sp,sp,-16
    80002c2c:	00113423          	sd	ra,8(sp)
    80002c30:	00813023          	sd	s0,0(sp)
    80002c34:	01010413          	addi	s0,sp,16
    return (char)input_buffer->get();
    80002c38:	00053503          	ld	a0,0(a0)
    80002c3c:	fffff097          	auipc	ra,0xfffff
    80002c40:	e84080e7          	jalr	-380(ra) # 80001ac0 <_ZN8MyBuffer3getEv>
}
    80002c44:	0ff57513          	andi	a0,a0,255
    80002c48:	00813083          	ld	ra,8(sp)
    80002c4c:	00013403          	ld	s0,0(sp)
    80002c50:	01010113          	addi	sp,sp,16
    80002c54:	00008067          	ret

0000000080002c58 <_ZN7Console13put_in_outputEc>:

void Console::put_in_output(char c){
    80002c58:	ff010113          	addi	sp,sp,-16
    80002c5c:	00113423          	sd	ra,8(sp)
    80002c60:	00813023          	sd	s0,0(sp)
    80002c64:	01010413          	addi	s0,sp,16
    output_buffer->put(c);
    80002c68:	00853503          	ld	a0,8(a0)
    80002c6c:	fffff097          	auipc	ra,0xfffff
    80002c70:	dc4080e7          	jalr	-572(ra) # 80001a30 <_ZN8MyBuffer3putEi>
}
    80002c74:	00813083          	ld	ra,8(sp)
    80002c78:	00013403          	ld	s0,0(sp)
    80002c7c:	01010113          	addi	sp,sp,16
    80002c80:	00008067          	ret

0000000080002c84 <_ZN7Console15get_from_outputEv>:
char Console::get_from_output(){
    80002c84:	ff010113          	addi	sp,sp,-16
    80002c88:	00113423          	sd	ra,8(sp)
    80002c8c:	00813023          	sd	s0,0(sp)
    80002c90:	01010413          	addi	s0,sp,16
    return (char)output_buffer->get();
    80002c94:	00853503          	ld	a0,8(a0)
    80002c98:	fffff097          	auipc	ra,0xfffff
    80002c9c:	e28080e7          	jalr	-472(ra) # 80001ac0 <_ZN8MyBuffer3getEv>
    80002ca0:	0ff57513          	andi	a0,a0,255
    80002ca4:	00813083          	ld	ra,8(sp)
    80002ca8:	00013403          	ld	s0,0(sp)
    80002cac:	01010113          	addi	sp,sp,16
    80002cb0:	00008067          	ret

0000000080002cb4 <_ZN8MyBufferdlEPv>:
    void operator delete(void* p)noexcept{
    80002cb4:	ff010113          	addi	sp,sp,-16
    80002cb8:	00113423          	sd	ra,8(sp)
    80002cbc:	00813023          	sd	s0,0(sp)
    80002cc0:	01010413          	addi	s0,sp,16
    80002cc4:	00050593          	mv	a1,a0
    80002cc8:	00008797          	auipc	a5,0x8
    80002ccc:	6287c783          	lbu	a5,1576(a5) # 8000b2f0 <_ZGVZN15MemoryAllocator11getInstanceEvE8instance>
    80002cd0:	02078263          	beqz	a5,80002cf4 <_ZN8MyBufferdlEPv+0x40>
        MemoryAllocator::getInstance().memory_free(p);
    80002cd4:	00008517          	auipc	a0,0x8
    80002cd8:	62450513          	addi	a0,a0,1572 # 8000b2f8 <_ZZN15MemoryAllocator11getInstanceEvE8instance>
    80002cdc:	00002097          	auipc	ra,0x2
    80002ce0:	4bc080e7          	jalr	1212(ra) # 80005198 <_ZN15MemoryAllocator11memory_freeEPv>
    }
    80002ce4:	00813083          	ld	ra,8(sp)
    80002ce8:	00013403          	ld	s0,0(sp)
    80002cec:	01010113          	addi	sp,sp,16
    80002cf0:	00008067          	ret
    MemoryAllocator(){
    80002cf4:	00008617          	auipc	a2,0x8
    80002cf8:	60460613          	addi	a2,a2,1540 # 8000b2f8 <_ZZN15MemoryAllocator11getInstanceEvE8instance>
        heapStart = (size_t)HEAP_START_ADDR + ((size_t)HEAP_END_ADDR - (size_t)HEAP_START_ADDR) / 8 + 1;
    80002cfc:	00008797          	auipc	a5,0x8
    80002d00:	59c7b783          	ld	a5,1436(a5) # 8000b298 <_GLOBAL_OFFSET_TABLE_+0x68>
    80002d04:	0007b703          	ld	a4,0(a5)
    80002d08:	00008797          	auipc	a5,0x8
    80002d0c:	5487b783          	ld	a5,1352(a5) # 8000b250 <_GLOBAL_OFFSET_TABLE_+0x20>
    80002d10:	0007b783          	ld	a5,0(a5)
    80002d14:	40f706b3          	sub	a3,a4,a5
    80002d18:	0036d693          	srli	a3,a3,0x3
    80002d1c:	00d787b3          	add	a5,a5,a3
    80002d20:	00178793          	addi	a5,a5,1
    80002d24:	00f63423          	sd	a5,8(a2)
        heapEnd = (size_t)HEAP_END_ADDR - 1;
    80002d28:	fff70713          	addi	a4,a4,-1
    80002d2c:	00e63823          	sd	a4,16(a2)
        size_t sizeInBlocks = (heapEnd - heapStart) / MEM_BLOCK_SIZE;
    80002d30:	40f70733          	sub	a4,a4,a5
    80002d34:	00675713          	srli	a4,a4,0x6
        fmem_head = (FreeMem*)(heapStart + ((heapStart % MEM_BLOCK_SIZE != 0)?(MEM_BLOCK_SIZE - heapStart % MEM_BLOCK_SIZE) : 0));
    80002d38:	03f7f693          	andi	a3,a5,63
    80002d3c:	00068663          	beqz	a3,80002d48 <_ZN8MyBufferdlEPv+0x94>
    80002d40:	04000613          	li	a2,64
    80002d44:	40d606b3          	sub	a3,a2,a3
    80002d48:	00d787b3          	add	a5,a5,a3
    80002d4c:	00008697          	auipc	a3,0x8
    80002d50:	5af6b623          	sd	a5,1452(a3) # 8000b2f8 <_ZZN15MemoryAllocator11getInstanceEvE8instance>
        fmem_head->next = nullptr;
    80002d54:	0007b423          	sd	zero,8(a5)
        fmem_head->prev = nullptr;
    80002d58:	0007b823          	sd	zero,16(a5)
        fmem_head->size = sizeInBlocks;
    80002d5c:	00e7b023          	sd	a4,0(a5)
        static MemoryAllocator instance;
    80002d60:	00100793          	li	a5,1
    80002d64:	00008717          	auipc	a4,0x8
    80002d68:	58f70623          	sb	a5,1420(a4) # 8000b2f0 <_ZGVZN15MemoryAllocator11getInstanceEvE8instance>
    80002d6c:	f69ff06f          	j	80002cd4 <_ZN8MyBufferdlEPv+0x20>

0000000080002d70 <_ZN12kmem_cache_s17kmem_cache_shrinkEv>:
    return (void*)tmp;
}

///
/// \return velicinu za koliko je smanjena memorija (u bajtovima)
size_t kmem_cache_s::kmem_cache_shrink() {
    80002d70:	fd010113          	addi	sp,sp,-48
    80002d74:	02113423          	sd	ra,40(sp)
    80002d78:	02813023          	sd	s0,32(sp)
    80002d7c:	00913c23          	sd	s1,24(sp)
    80002d80:	01213823          	sd	s2,16(sp)
    80002d84:	01313423          	sd	s3,8(sp)
    80002d88:	01413023          	sd	s4,0(sp)
    80002d8c:	03010413          	addi	s0,sp,48
    80002d90:	00050993          	mv	s3,a0
    if(this->growing){
    80002d94:	07054783          	lbu	a5,112(a0)
    80002d98:	00079863          	bnez	a5,80002da8 <_ZN12kmem_cache_s17kmem_cache_shrinkEv+0x38>
        this->growing = false;
        return 0;
    }
    Slab* curr = this->slabs_free, *prev;
    80002d9c:	01053483          	ld	s1,16(a0)
    int cnt = (int)this->num_slabs_free;
    80002da0:	02852a03          	lw	s4,40(a0)
    80002da4:	0440006f          	j	80002de8 <_ZN12kmem_cache_s17kmem_cache_shrinkEv+0x78>
        this->growing = false;
    80002da8:	06050823          	sb	zero,112(a0)
        return 0;
    80002dac:	00000513          	li	a0,0
    80002db0:	0700006f          	j	80002e20 <_ZN12kmem_cache_s17kmem_cache_shrinkEv+0xb0>

    void* buddyAlloc(size_t size);
    void buddyFree(size_t addr);

    static BuddySystem& getInstance(void *space = nullptr, int block_num = 0){
        static BuddySystem bs;
    80002db4:	00008517          	auipc	a0,0x8
    80002db8:	5ac50513          	addi	a0,a0,1452 # 8000b360 <_ZZN11BuddySystem11getInstanceEPviE2bs>
    80002dbc:	fffff097          	auipc	ra,0xfffff
    80002dc0:	e18080e7          	jalr	-488(ra) # 80001bd4 <_ZN11BuddySystemC1Ev>
    80002dc4:	00100793          	li	a5,1
    80002dc8:	00008717          	auipc	a4,0x8
    80002dcc:	58f70823          	sb	a5,1424(a4) # 8000b358 <_ZGVZN11BuddySystem11getInstanceEPviE2bs>
    while(curr){
        prev = curr;
        curr = curr->next;
        BuddySystem::getInstance().buddyFree((size_t)prev);
    80002dd0:	00048593          	mv	a1,s1
    80002dd4:	00008517          	auipc	a0,0x8
    80002dd8:	58c50513          	addi	a0,a0,1420 # 8000b360 <_ZZN11BuddySystem11getInstanceEPviE2bs>
    80002ddc:	fffff097          	auipc	ra,0xfffff
    80002de0:	0f8080e7          	jalr	248(ra) # 80001ed4 <_ZN11BuddySystem9buddyFreeEm>
        curr = curr->next;
    80002de4:	00090493          	mv	s1,s2
    while(curr){
    80002de8:	00048c63          	beqz	s1,80002e00 <_ZN12kmem_cache_s17kmem_cache_shrinkEv+0x90>
        curr = curr->next;
    80002dec:	0084b903          	ld	s2,8(s1)
    80002df0:	00008797          	auipc	a5,0x8
    80002df4:	5687c783          	lbu	a5,1384(a5) # 8000b358 <_ZGVZN11BuddySystem11getInstanceEPviE2bs>
    80002df8:	fc079ce3          	bnez	a5,80002dd0 <_ZN12kmem_cache_s17kmem_cache_shrinkEv+0x60>
    80002dfc:	fb9ff06f          	j	80002db4 <_ZN12kmem_cache_s17kmem_cache_shrinkEv+0x44>
    }
    this->slabs_free = nullptr;
    80002e00:	0009b823          	sd	zero,16(s3)
    this->num_slabs_free = 0;
    80002e04:	0209b423          	sd	zero,40(s3)
    this->growing = false;
    80002e08:	06098823          	sb	zero,112(s3)
    this->shrink++;
    80002e0c:	0789b783          	ld	a5,120(s3)
    80002e10:	00178793          	addi	a5,a5,1
    80002e14:	06f9bc23          	sd	a5,120(s3)
    return cnt * this->size_in_blocks;
    80002e18:	0409b503          	ld	a0,64(s3)
    80002e1c:	02aa0533          	mul	a0,s4,a0
}
    80002e20:	02813083          	ld	ra,40(sp)
    80002e24:	02013403          	ld	s0,32(sp)
    80002e28:	01813483          	ld	s1,24(sp)
    80002e2c:	01013903          	ld	s2,16(sp)
    80002e30:	00813983          	ld	s3,8(sp)
    80002e34:	00013a03          	ld	s4,0(sp)
    80002e38:	03010113          	addi	sp,sp,48
    80002e3c:	00008067          	ret

0000000080002e40 <_ZN12kmem_cache_s16create_free_slabEv>:
        this->growing = true;
        return nullptr;
    }
}

void kmem_cache_s::create_free_slab() {
    80002e40:	fd010113          	addi	sp,sp,-48
    80002e44:	02113423          	sd	ra,40(sp)
    80002e48:	02813023          	sd	s0,32(sp)
    80002e4c:	00913c23          	sd	s1,24(sp)
    80002e50:	01213823          	sd	s2,16(sp)
    80002e54:	01313423          	sd	s3,8(sp)
    80002e58:	01413023          	sd	s4,0(sp)
    80002e5c:	03010413          	addi	s0,sp,48
    80002e60:	00050493          	mv	s1,a0
    80002e64:	00008797          	auipc	a5,0x8
    80002e68:	4f47c783          	lbu	a5,1268(a5) # 8000b358 <_ZGVZN11BuddySystem11getInstanceEPviE2bs>
    80002e6c:	06078663          	beqz	a5,80002ed8 <_ZN12kmem_cache_s16create_free_slabEv+0x98>
    Slab* tmp = (Slab*)(BuddySystem::getInstance().buddyAlloc(this->num * this->objsize + sizeof(Slab)));
    80002e70:	0384b583          	ld	a1,56(s1)
    80002e74:	0304b783          	ld	a5,48(s1)
    80002e78:	02f585b3          	mul	a1,a1,a5
    80002e7c:	02058593          	addi	a1,a1,32
    80002e80:	00008517          	auipc	a0,0x8
    80002e84:	4e050513          	addi	a0,a0,1248 # 8000b360 <_ZZN11BuddySystem11getInstanceEPviE2bs>
    80002e88:	fffff097          	auipc	ra,0xfffff
    80002e8c:	ebc080e7          	jalr	-324(ra) # 80001d44 <_ZN11BuddySystem10buddyAllocEm>
    80002e90:	00050a13          	mv	s4,a0
    tmp->num_active = 0;
    80002e94:	00053023          	sd	zero,0(a0)
    tmp->next = nullptr;
    80002e98:	00053423          	sd	zero,8(a0)
    this->slabs_free = tmp;
    80002e9c:	00a4b823          	sd	a0,16(s1)
    tmp->first_addr = ((size_t)tmp + sizeof(Slab));
    80002ea0:	02050793          	addi	a5,a0,32
    80002ea4:	00f53c23          	sd	a5,24(a0)
    bool arr[this->num];
    80002ea8:	0384b783          	ld	a5,56(s1)
    80002eac:	00f78793          	addi	a5,a5,15
    80002eb0:	ff07f793          	andi	a5,a5,-16
    80002eb4:	40f10133          	sub	sp,sp,a5
    80002eb8:	00010693          	mv	a3,sp
    for(size_t  i = 0; i < this->num; i++){
    80002ebc:	00000793          	li	a5,0
    80002ec0:	0384b703          	ld	a4,56(s1)
    80002ec4:	02e7fa63          	bgeu	a5,a4,80002ef8 <_ZN12kmem_cache_s16create_free_slabEv+0xb8>
        arr[i] = false;
    80002ec8:	00f68733          	add	a4,a3,a5
    80002ecc:	00070023          	sb	zero,0(a4)
    for(size_t  i = 0; i < this->num; i++){
    80002ed0:	00178793          	addi	a5,a5,1
    80002ed4:	fedff06f          	j	80002ec0 <_ZN12kmem_cache_s16create_free_slabEv+0x80>
    80002ed8:	00008517          	auipc	a0,0x8
    80002edc:	48850513          	addi	a0,a0,1160 # 8000b360 <_ZZN11BuddySystem11getInstanceEPviE2bs>
    80002ee0:	fffff097          	auipc	ra,0xfffff
    80002ee4:	cf4080e7          	jalr	-780(ra) # 80001bd4 <_ZN11BuddySystemC1Ev>
    80002ee8:	00100793          	li	a5,1
    80002eec:	00008717          	auipc	a4,0x8
    80002ef0:	46f70623          	sb	a5,1132(a4) # 8000b358 <_ZGVZN11BuddySystem11getInstanceEPviE2bs>
    80002ef4:	f7dff06f          	j	80002e70 <_ZN12kmem_cache_s16create_free_slabEv+0x30>
    }
    tmp->free_objects = arr;
    80002ef8:	00da3823          	sd	a3,16(s4)

    // initialize slab if there is constructor
    if(this->ctor != nullptr){
    80002efc:	0484b783          	ld	a5,72(s1)
    80002f00:	02078863          	beqz	a5,80002f30 <_ZN12kmem_cache_s16create_free_slabEv+0xf0>
        for(size_t i = 0, addr = tmp->first_addr; i < this->num; i++, addr += this->objsize){
    80002f04:	018a3983          	ld	s3,24(s4)
    80002f08:	00000913          	li	s2,0
    80002f0c:	0384b783          	ld	a5,56(s1)
    80002f10:	02f97063          	bgeu	s2,a5,80002f30 <_ZN12kmem_cache_s16create_free_slabEv+0xf0>
            this->ctor((void*)addr);
    80002f14:	0484b783          	ld	a5,72(s1)
    80002f18:	00098513          	mv	a0,s3
    80002f1c:	000780e7          	jalr	a5
        for(size_t i = 0, addr = tmp->first_addr; i < this->num; i++, addr += this->objsize){
    80002f20:	00190913          	addi	s2,s2,1
    80002f24:	0304b783          	ld	a5,48(s1)
    80002f28:	00f989b3          	add	s3,s3,a5
    80002f2c:	fe1ff06f          	j	80002f0c <_ZN12kmem_cache_s16create_free_slabEv+0xcc>
        }
    }

    // set free pointer and increment number of free slabs
    this->slabs_free = tmp;
    80002f30:	0144b823          	sd	s4,16(s1)
    this->num_slabs_free++;
    80002f34:	0284b783          	ld	a5,40(s1)
    80002f38:	00178793          	addi	a5,a5,1
    80002f3c:	02f4b423          	sd	a5,40(s1)
}
    80002f40:	fd040113          	addi	sp,s0,-48
    80002f44:	02813083          	ld	ra,40(sp)
    80002f48:	02013403          	ld	s0,32(sp)
    80002f4c:	01813483          	ld	s1,24(sp)
    80002f50:	01013903          	ld	s2,16(sp)
    80002f54:	00813983          	ld	s3,8(sp)
    80002f58:	00013a03          	ld	s4,0(sp)
    80002f5c:	03010113          	addi	sp,sp,48
    80002f60:	00008067          	ret

0000000080002f64 <_ZN12kmem_cache_s17kmem_cache_createEPKcmPFvPvES4_>:
void* kmem_cache_s::kmem_cache_create(const char *name, size_t size, void (*ctor)(void *), void (*dtor)(void *)) {
    80002f64:	fc010113          	addi	sp,sp,-64
    80002f68:	02113c23          	sd	ra,56(sp)
    80002f6c:	02813823          	sd	s0,48(sp)
    80002f70:	02913423          	sd	s1,40(sp)
    80002f74:	03213023          	sd	s2,32(sp)
    80002f78:	01313c23          	sd	s3,24(sp)
    80002f7c:	01413823          	sd	s4,16(sp)
    80002f80:	01513423          	sd	s5,8(sp)
    80002f84:	04010413          	addi	s0,sp,64
    80002f88:	00050993          	mv	s3,a0
    80002f8c:	00058913          	mv	s2,a1
    80002f90:	00060a93          	mv	s5,a2
    80002f94:	00068a13          	mv	s4,a3
    for(kmem_cache_s* curr = kmem_cache_s::head; curr; curr = curr->next){
    80002f98:	00008797          	auipc	a5,0x8
    80002f9c:	3b87b783          	ld	a5,952(a5) # 8000b350 <_ZN12kmem_cache_s4headE>
    80002fa0:	00078a63          	beqz	a5,80002fb4 <_ZN12kmem_cache_s17kmem_cache_createEPKcmPFvPvES4_+0x50>
        if(curr->name == name){
    80002fa4:	0587b703          	ld	a4,88(a5)
    80002fa8:	11370863          	beq	a4,s3,800030b8 <_ZN12kmem_cache_s17kmem_cache_createEPKcmPFvPvES4_+0x154>
    for(kmem_cache_s* curr = kmem_cache_s::head; curr; curr = curr->next){
    80002fac:	0607b783          	ld	a5,96(a5)
    80002fb0:	ff1ff06f          	j	80002fa0 <_ZN12kmem_cache_s17kmem_cache_createEPKcmPFvPvES4_+0x3c>
    80002fb4:	00008797          	auipc	a5,0x8
    80002fb8:	3a47c783          	lbu	a5,932(a5) # 8000b358 <_ZGVZN11BuddySystem11getInstanceEPviE2bs>
    80002fbc:	08078263          	beqz	a5,80003040 <_ZN12kmem_cache_s17kmem_cache_createEPKcmPFvPvES4_+0xdc>
    kmem_cache_s* tmp = (kmem_cache_s*)BuddySystem::getInstance().buddyAlloc(BLOCK_SIZE - sizeof(size_t));
    80002fc0:	000015b7          	lui	a1,0x1
    80002fc4:	ff858593          	addi	a1,a1,-8 # ff8 <_entry-0x7ffff008>
    80002fc8:	00008517          	auipc	a0,0x8
    80002fcc:	39850513          	addi	a0,a0,920 # 8000b360 <_ZZN11BuddySystem11getInstanceEPviE2bs>
    80002fd0:	fffff097          	auipc	ra,0xfffff
    80002fd4:	d74080e7          	jalr	-652(ra) # 80001d44 <_ZN11BuddySystem10buddyAllocEm>
    80002fd8:	00050493          	mv	s1,a0
    tmp->name = name;
    80002fdc:	05353c23          	sd	s3,88(a0)
    tmp->objsize = size;
    80002fe0:	03253823          	sd	s2,48(a0)
    tmp->ctor = ctor;
    80002fe4:	05553423          	sd	s5,72(a0)
    tmp->dtor = dtor;
    80002fe8:	05453823          	sd	s4,80(a0)
    tmp->slabs_full = tmp->slabs_partial = tmp->slabs_free = nullptr;
    80002fec:	00053823          	sd	zero,16(a0)
    80002ff0:	00053423          	sd	zero,8(a0)
    80002ff4:	00053023          	sd	zero,0(a0)
    tmp->num_slabs_full = tmp->num_slabs_partial = tmp->num_slabs_free = tmp->num_active_obj = tmp->shrink = 0;
    80002ff8:	06053c23          	sd	zero,120(a0)
    80002ffc:	06053423          	sd	zero,104(a0)
    80003000:	02053423          	sd	zero,40(a0)
    80003004:	02053023          	sd	zero,32(a0)
    80003008:	00053c23          	sd	zero,24(a0)
    tmp->growing = false;
    8000300c:	06050823          	sb	zero,112(a0)
    tmp->size_in_blocks = 1;
    80003010:	00100793          	li	a5,1
    80003014:	04f53023          	sd	a5,64(a0)
    while(tmp->size_in_blocks * BLOCK_SIZE < tmp->objsize * NUM_OF_OBJECTS_IN_SLAB + sizeof(Slab) + sizeof(size_t)){
    80003018:	0404b703          	ld	a4,64(s1)
    8000301c:	00c71693          	slli	a3,a4,0xc
    80003020:	00291793          	slli	a5,s2,0x2
    80003024:	012787b3          	add	a5,a5,s2
    80003028:	00179793          	slli	a5,a5,0x1
    8000302c:	02878793          	addi	a5,a5,40
    80003030:	02f6f863          	bgeu	a3,a5,80003060 <_ZN12kmem_cache_s17kmem_cache_createEPKcmPFvPvES4_+0xfc>
        tmp->size_in_blocks++;
    80003034:	00170713          	addi	a4,a4,1
    80003038:	04e4b023          	sd	a4,64(s1)
    while(tmp->size_in_blocks * BLOCK_SIZE < tmp->objsize * NUM_OF_OBJECTS_IN_SLAB + sizeof(Slab) + sizeof(size_t)){
    8000303c:	fddff06f          	j	80003018 <_ZN12kmem_cache_s17kmem_cache_createEPKcmPFvPvES4_+0xb4>
    80003040:	00008517          	auipc	a0,0x8
    80003044:	32050513          	addi	a0,a0,800 # 8000b360 <_ZZN11BuddySystem11getInstanceEPviE2bs>
    80003048:	fffff097          	auipc	ra,0xfffff
    8000304c:	b8c080e7          	jalr	-1140(ra) # 80001bd4 <_ZN11BuddySystemC1Ev>
    80003050:	00100793          	li	a5,1
    80003054:	00008717          	auipc	a4,0x8
    80003058:	30f70223          	sb	a5,772(a4) # 8000b358 <_ZGVZN11BuddySystem11getInstanceEPviE2bs>
    8000305c:	f65ff06f          	j	80002fc0 <_ZN12kmem_cache_s17kmem_cache_createEPKcmPFvPvES4_+0x5c>
    int how_many_objects_into_one_slab = (int)(tmp->size_in_blocks * BLOCK_SIZE - sizeof(Slab) - sizeof(size_t)) / (int)(tmp->objsize);
    80003060:	00c7179b          	slliw	a5,a4,0xc
    80003064:	fd87879b          	addiw	a5,a5,-40
    80003068:	0327c7bb          	divw	a5,a5,s2
    tmp->num = how_many_objects_into_one_slab;
    8000306c:	02f4bc23          	sd	a5,56(s1)
    tmp->create_free_slab();
    80003070:	00048513          	mv	a0,s1
    80003074:	00000097          	auipc	ra,0x0
    80003078:	dcc080e7          	jalr	-564(ra) # 80002e40 <_ZN12kmem_cache_s16create_free_slabEv>
    tmp->next = kmem_cache_s::head;
    8000307c:	00008797          	auipc	a5,0x8
    80003080:	2d478793          	addi	a5,a5,724 # 8000b350 <_ZN12kmem_cache_s4headE>
    80003084:	0007b703          	ld	a4,0(a5)
    80003088:	06e4b023          	sd	a4,96(s1)
    kmem_cache_s::head = tmp;
    8000308c:	0097b023          	sd	s1,0(a5)
}
    80003090:	00048513          	mv	a0,s1
    80003094:	03813083          	ld	ra,56(sp)
    80003098:	03013403          	ld	s0,48(sp)
    8000309c:	02813483          	ld	s1,40(sp)
    800030a0:	02013903          	ld	s2,32(sp)
    800030a4:	01813983          	ld	s3,24(sp)
    800030a8:	01013a03          	ld	s4,16(sp)
    800030ac:	00813a83          	ld	s5,8(sp)
    800030b0:	04010113          	addi	sp,sp,64
    800030b4:	00008067          	ret
            return nullptr;
    800030b8:	00000493          	li	s1,0
    800030bc:	fd5ff06f          	j	80003090 <_ZN12kmem_cache_s17kmem_cache_createEPKcmPFvPvES4_+0x12c>

00000000800030c0 <_ZN12kmem_cache_s15kmem_cache_freeEPv>:

// returns -1 if object not found and 0 if removal is completed
int kmem_cache_s::kmem_cache_free(void *objp) {
    800030c0:	fd010113          	addi	sp,sp,-48
    800030c4:	02113423          	sd	ra,40(sp)
    800030c8:	02813023          	sd	s0,32(sp)
    800030cc:	00913c23          	sd	s1,24(sp)
    800030d0:	01213823          	sd	s2,16(sp)
    800030d4:	01313423          	sd	s3,8(sp)
    800030d8:	01413023          	sd	s4,0(sp)
    800030dc:	03010413          	addi	s0,sp,48
    800030e0:	00050a13          	mv	s4,a0
    800030e4:	00058993          	mv	s3,a1
    // check firstly in partial
    Slab* prev = nullptr;
    for(Slab* tmp = this->slabs_partial; tmp; tmp = tmp->next){
    800030e8:	00853483          	ld	s1,8(a0)
    Slab* prev = nullptr;
    800030ec:	00000913          	li	s2,0
    800030f0:	0180006f          	j	80003108 <_ZN12kmem_cache_s15kmem_cache_freeEPv+0x48>
            tmp->decrement_num_of_active();
            size_t number_of_active = tmp->get_number_of_active_objects();
            if(number_of_active == 0){
                // move from partial to free
                if(prev)prev->next = tmp->next;
                else slabs_partial = tmp->next;
    800030f4:	0084b783          	ld	a5,8(s1)
    800030f8:	00fa3423          	sd	a5,8(s4)
    800030fc:	08c0006f          	j	80003188 <_ZN12kmem_cache_s15kmem_cache_freeEPv+0xc8>
                this->num_slabs_partial--;
                this->num_slabs_free++;
            }
            return 0;
        }
        prev = tmp;
    80003100:	00048913          	mv	s2,s1
    for(Slab* tmp = this->slabs_partial; tmp; tmp = tmp->next){
    80003104:	0084b483          	ld	s1,8(s1)
    80003108:	0a048663          	beqz	s1,800031b4 <_ZN12kmem_cache_s15kmem_cache_freeEPv+0xf4>
        if((size_t)objp > (size_t)tmp &&
    8000310c:	ff34fae3          	bgeu	s1,s3,80003100 <_ZN12kmem_cache_s15kmem_cache_freeEPv+0x40>
        (size_t)objp < (size_t)tmp + this->size_in_blocks * BLOCK_SIZE - sizeof(size_t)){
    80003110:	040a3783          	ld	a5,64(s4)
    80003114:	00c79793          	slli	a5,a5,0xc
    80003118:	00f487b3          	add	a5,s1,a5
    8000311c:	ff878793          	addi	a5,a5,-8
        if((size_t)objp > (size_t)tmp &&
    80003120:	fef9f0e3          	bgeu	s3,a5,80003100 <_ZN12kmem_cache_s15kmem_cache_freeEPv+0x40>
            size_t position = (((size_t)objp - (size_t)tmp->first_addr)) / (size_t)this->objsize;
    80003124:	0184b783          	ld	a5,24(s1)
    80003128:	40f98733          	sub	a4,s3,a5
    8000312c:	030a3783          	ld	a5,48(s4)
    80003130:	02f75733          	divu	a4,a4,a5
            (tmp->free_objects)[position] = false;
    80003134:	0104b783          	ld	a5,16(s1)
    80003138:	00e78733          	add	a4,a5,a4
    8000313c:	00070023          	sb	zero,0(a4)
            if(this->dtor){
    80003140:	050a3783          	ld	a5,80(s4)
    80003144:	00078663          	beqz	a5,80003150 <_ZN12kmem_cache_s15kmem_cache_freeEPv+0x90>
                this->dtor(objp);
    80003148:	00098513          	mv	a0,s3
    8000314c:	000780e7          	jalr	a5
            if(this->ctor){
    80003150:	048a3783          	ld	a5,72(s4)
    80003154:	00078663          	beqz	a5,80003160 <_ZN12kmem_cache_s15kmem_cache_freeEPv+0xa0>
                this->ctor(objp);
    80003158:	00098513          	mv	a0,s3
    8000315c:	000780e7          	jalr	a5
            this->num_active_obj--;
    80003160:	068a3783          	ld	a5,104(s4)
    80003164:	fff78793          	addi	a5,a5,-1
    80003168:	06fa3423          	sd	a5,104(s4)
public:
    void clear_slab(int num_of_objects_in_slab, int objsize, void (*dtor)(void *));
    size_t get_number_of_active_objects(){return num_active;}
    void* return_first_free_object_and_rearange_list(int, int);
    void increment_num_of_active(){num_active++;}
    void decrement_num_of_active(){num_active--;}
    8000316c:	0004b783          	ld	a5,0(s1)
    80003170:	fff78793          	addi	a5,a5,-1
    80003174:	00f4b023          	sd	a5,0(s1)
            if(number_of_active == 0){
    80003178:	02079a63          	bnez	a5,800031ac <_ZN12kmem_cache_s15kmem_cache_freeEPv+0xec>
                if(prev)prev->next = tmp->next;
    8000317c:	f6090ce3          	beqz	s2,800030f4 <_ZN12kmem_cache_s15kmem_cache_freeEPv+0x34>
    80003180:	0084b783          	ld	a5,8(s1)
    80003184:	00f93423          	sd	a5,8(s2)
                tmp->next = this->slabs_free;
    80003188:	010a3783          	ld	a5,16(s4)
    8000318c:	00f4b423          	sd	a5,8(s1)
                this->slabs_free = tmp;
    80003190:	009a3823          	sd	s1,16(s4)
                this->num_slabs_partial--;
    80003194:	020a3783          	ld	a5,32(s4)
    80003198:	fff78793          	addi	a5,a5,-1
    8000319c:	02fa3023          	sd	a5,32(s4)
                this->num_slabs_free++;
    800031a0:	028a3783          	ld	a5,40(s4)
    800031a4:	00178793          	addi	a5,a5,1
    800031a8:	02fa3423          	sd	a5,40(s4)
            return 0;
    800031ac:	00000513          	li	a0,0
    800031b0:	0cc0006f          	j	8000327c <_ZN12kmem_cache_s15kmem_cache_freeEPv+0x1bc>
    }
    // check in full
    prev = nullptr;
    for(Slab* tmp = this->slabs_full; tmp; tmp = tmp->next){
    800031b4:	000a3903          	ld	s2,0(s4)
    800031b8:	0180006f          	j	800031d0 <_ZN12kmem_cache_s15kmem_cache_freeEPv+0x110>
            this->num_active_obj--;
            tmp->decrement_num_of_active();

            // move from full to partial
            if(prev)prev->next = tmp->next;
            else slabs_full = tmp->next;
    800031bc:	00893783          	ld	a5,8(s2)
    800031c0:	00fa3023          	sd	a5,0(s4)
    800031c4:	0880006f          	j	8000324c <_ZN12kmem_cache_s15kmem_cache_freeEPv+0x18c>
            this->num_slabs_full--;
            this->num_slabs_partial++;

            return 0;
        }
        prev = tmp;
    800031c8:	00090493          	mv	s1,s2
    for(Slab* tmp = this->slabs_full; tmp; tmp = tmp->next){
    800031cc:	00893903          	ld	s2,8(s2)
    800031d0:	0a090463          	beqz	s2,80003278 <_ZN12kmem_cache_s15kmem_cache_freeEPv+0x1b8>
        if((size_t)objp > (size_t)tmp &&
    800031d4:	ff397ae3          	bgeu	s2,s3,800031c8 <_ZN12kmem_cache_s15kmem_cache_freeEPv+0x108>
           (size_t)objp < (size_t)tmp + this->size_in_blocks * BLOCK_SIZE - sizeof(size_t)){
    800031d8:	040a3783          	ld	a5,64(s4)
    800031dc:	00c79793          	slli	a5,a5,0xc
    800031e0:	00f907b3          	add	a5,s2,a5
    800031e4:	ff878793          	addi	a5,a5,-8
        if((size_t)objp > (size_t)tmp &&
    800031e8:	fef9f0e3          	bgeu	s3,a5,800031c8 <_ZN12kmem_cache_s15kmem_cache_freeEPv+0x108>
            size_t position = (((size_t)objp - (size_t)tmp->first_addr)) / (size_t)this->objsize;
    800031ec:	01893783          	ld	a5,24(s2)
    800031f0:	40f98733          	sub	a4,s3,a5
    800031f4:	030a3783          	ld	a5,48(s4)
    800031f8:	02f75733          	divu	a4,a4,a5
            (tmp->free_objects)[position] = false;
    800031fc:	01093783          	ld	a5,16(s2)
    80003200:	00e78733          	add	a4,a5,a4
    80003204:	00070023          	sb	zero,0(a4)
            if(this->dtor){
    80003208:	050a3783          	ld	a5,80(s4)
    8000320c:	00078663          	beqz	a5,80003218 <_ZN12kmem_cache_s15kmem_cache_freeEPv+0x158>
                this->dtor(objp);
    80003210:	00098513          	mv	a0,s3
    80003214:	000780e7          	jalr	a5
            if(this->ctor){
    80003218:	048a3783          	ld	a5,72(s4)
    8000321c:	00078663          	beqz	a5,80003228 <_ZN12kmem_cache_s15kmem_cache_freeEPv+0x168>
                this->ctor(objp);
    80003220:	00098513          	mv	a0,s3
    80003224:	000780e7          	jalr	a5
            this->num_active_obj--;
    80003228:	068a3783          	ld	a5,104(s4)
    8000322c:	fff78793          	addi	a5,a5,-1
    80003230:	06fa3423          	sd	a5,104(s4)
    80003234:	00093783          	ld	a5,0(s2)
    80003238:	fff78793          	addi	a5,a5,-1
    8000323c:	00f93023          	sd	a5,0(s2)
            if(prev)prev->next = tmp->next;
    80003240:	f6048ee3          	beqz	s1,800031bc <_ZN12kmem_cache_s15kmem_cache_freeEPv+0xfc>
    80003244:	00893783          	ld	a5,8(s2)
    80003248:	00f4b423          	sd	a5,8(s1)
            tmp->next = this->slabs_partial;
    8000324c:	008a3783          	ld	a5,8(s4)
    80003250:	00f93423          	sd	a5,8(s2)
            this->slabs_partial = tmp;
    80003254:	012a3423          	sd	s2,8(s4)
            this->num_slabs_full--;
    80003258:	018a3783          	ld	a5,24(s4)
    8000325c:	fff78793          	addi	a5,a5,-1
    80003260:	00fa3c23          	sd	a5,24(s4)
            this->num_slabs_partial++;
    80003264:	020a3783          	ld	a5,32(s4)
    80003268:	00178793          	addi	a5,a5,1
    8000326c:	02fa3023          	sd	a5,32(s4)
            return 0;
    80003270:	00000513          	li	a0,0
    80003274:	0080006f          	j	8000327c <_ZN12kmem_cache_s15kmem_cache_freeEPv+0x1bc>
    }
    return -1;
    80003278:	fff00513          	li	a0,-1
}
    8000327c:	02813083          	ld	ra,40(sp)
    80003280:	02013403          	ld	s0,32(sp)
    80003284:	01813483          	ld	s1,24(sp)
    80003288:	01013903          	ld	s2,16(sp)
    8000328c:	00813983          	ld	s3,8(sp)
    80003290:	00013a03          	ld	s4,0(sp)
    80003294:	03010113          	addi	sp,sp,48
    80003298:	00008067          	ret

000000008000329c <_ZN12kmem_cache_s20check_if_name_existsEPKc>:
    void* elem = cache->kmem_cache_alloc();
    return elem;
}

// returns cache with given name, or nullptr if there is no such cache
kmem_cache_s *kmem_cache_s::check_if_name_exists(const char* name) {
    8000329c:	fe010113          	addi	sp,sp,-32
    800032a0:	00113c23          	sd	ra,24(sp)
    800032a4:	00813823          	sd	s0,16(sp)
    800032a8:	00913423          	sd	s1,8(sp)
    800032ac:	01213023          	sd	s2,0(sp)
    800032b0:	02010413          	addi	s0,sp,32
    800032b4:	00050913          	mv	s2,a0
    for(kmem_cache_s* tmp = kmem_cache_s::head; tmp; tmp = tmp->next){
    800032b8:	00008497          	auipc	s1,0x8
    800032bc:	0984b483          	ld	s1,152(s1) # 8000b350 <_ZN12kmem_cache_s4headE>
    800032c0:	02048063          	beqz	s1,800032e0 <_ZN12kmem_cache_s20check_if_name_existsEPKc+0x44>
        if(string_compare(tmp->name, name)){
    800032c4:	00090593          	mv	a1,s2
    800032c8:	0584b503          	ld	a0,88(s1)
    800032cc:	fffff097          	auipc	ra,0xfffff
    800032d0:	3e4080e7          	jalr	996(ra) # 800026b0 <_Z14string_comparePKcS0_>
    800032d4:	00051663          	bnez	a0,800032e0 <_ZN12kmem_cache_s20check_if_name_existsEPKc+0x44>
    for(kmem_cache_s* tmp = kmem_cache_s::head; tmp; tmp = tmp->next){
    800032d8:	0604b483          	ld	s1,96(s1)
    800032dc:	fe5ff06f          	j	800032c0 <_ZN12kmem_cache_s20check_if_name_existsEPKc+0x24>
            return tmp;
        }
    }
    return nullptr;
}
    800032e0:	00048513          	mv	a0,s1
    800032e4:	01813083          	ld	ra,24(sp)
    800032e8:	01013403          	ld	s0,16(sp)
    800032ec:	00813483          	ld	s1,8(sp)
    800032f0:	00013903          	ld	s2,0(sp)
    800032f4:	02010113          	addi	sp,sp,32
    800032f8:	00008067          	ret

00000000800032fc <_ZN12kmem_cache_s3powEm>:

size_t kmem_cache_s::pow(size_t deg){
    800032fc:	ff010113          	addi	sp,sp,-16
    80003300:	00813423          	sd	s0,8(sp)
    80003304:	01010413          	addi	s0,sp,16
    80003308:	00050713          	mv	a4,a0
    size_t tmp = 1;
    for(size_t i = 0; i < deg; i++){
    8000330c:	00000793          	li	a5,0
    size_t tmp = 1;
    80003310:	00100513          	li	a0,1
    for(size_t i = 0; i < deg; i++){
    80003314:	00e7f863          	bgeu	a5,a4,80003324 <_ZN12kmem_cache_s3powEm+0x28>
        tmp <<= 1;
    80003318:	00151513          	slli	a0,a0,0x1
    for(size_t i = 0; i < deg; i++){
    8000331c:	00178793          	addi	a5,a5,1
    80003320:	ff5ff06f          	j	80003314 <_ZN12kmem_cache_s3powEm+0x18>
    }
    return tmp;
}
    80003324:	00813403          	ld	s0,8(sp)
    80003328:	01010113          	addi	sp,sp,16
    8000332c:	00008067          	ret

0000000080003330 <_ZN12kmem_cache_s28is_small_buffer_size_correctEm>:

bool kmem_cache_s::is_small_buffer_size_correct(size_t size) {
    80003330:	ff010113          	addi	sp,sp,-16
    80003334:	00813423          	sd	s0,8(sp)
    80003338:	01010413          	addi	s0,sp,16
    size_t num = 1;
    size_t iter = 0;
    8000333c:	00000713          	li	a4,0
    size_t num = 1;
    80003340:	00100793          	li	a5,1
    80003344:	0080006f          	j	8000334c <_ZN12kmem_cache_s28is_small_buffer_size_correctEm+0x1c>
    while(num < size){
        num <<= 1;
        iter++;
    80003348:	00068713          	mv	a4,a3
    while(num < size){
    8000334c:	02a7f263          	bgeu	a5,a0,80003370 <_ZN12kmem_cache_s28is_small_buffer_size_correctEm+0x40>
        num <<= 1;
    80003350:	00179793          	slli	a5,a5,0x1
        iter++;
    80003354:	00170693          	addi	a3,a4,1
        if(num == size){
    80003358:	fef518e3          	bne	a0,a5,80003348 <_ZN12kmem_cache_s28is_small_buffer_size_correctEm+0x18>
            if(iter >= 5 && iter <= 17){
    8000335c:	ffc70713          	addi	a4,a4,-4
    80003360:	00c00793          	li	a5,12
    80003364:	00e7ee63          	bltu	a5,a4,80003380 <_ZN12kmem_cache_s28is_small_buffer_size_correctEm+0x50>
                return true;
    80003368:	00100513          	li	a0,1
    8000336c:	0080006f          	j	80003374 <_ZN12kmem_cache_s28is_small_buffer_size_correctEm+0x44>
            }
            else return false;
        }
    }
    return false;
    80003370:	00000513          	li	a0,0
}
    80003374:	00813403          	ld	s0,8(sp)
    80003378:	01010113          	addi	sp,sp,16
    8000337c:	00008067          	ret
            else return false;
    80003380:	00000513          	li	a0,0
    80003384:	ff1ff06f          	j	80003374 <_ZN12kmem_cache_s28is_small_buffer_size_correctEm+0x44>

0000000080003388 <_ZN12kmem_cache_s5kfreeEPKv>:

// returns 0 if delete is executed, -1 if not
int kmem_cache_s::kfree(const void *objp) {
    80003388:	fe010113          	addi	sp,sp,-32
    8000338c:	00113c23          	sd	ra,24(sp)
    80003390:	00813823          	sd	s0,16(sp)
    80003394:	00913423          	sd	s1,8(sp)
    80003398:	01213023          	sd	s2,0(sp)
    8000339c:	02010413          	addi	s0,sp,32
    800033a0:	00050913          	mv	s2,a0
    for(kmem_cache_s* tmp = kmem_cache_s::head; tmp; tmp = tmp->next){
    800033a4:	00008497          	auipc	s1,0x8
    800033a8:	fac4b483          	ld	s1,-84(s1) # 8000b350 <_ZN12kmem_cache_s4headE>
    800033ac:	02048063          	beqz	s1,800033cc <_ZN12kmem_cache_s5kfreeEPKv+0x44>
        if(tmp->kmem_cache_free((void*)objp) == 0)return 0;
    800033b0:	00090593          	mv	a1,s2
    800033b4:	00048513          	mv	a0,s1
    800033b8:	00000097          	auipc	ra,0x0
    800033bc:	d08080e7          	jalr	-760(ra) # 800030c0 <_ZN12kmem_cache_s15kmem_cache_freeEPv>
    800033c0:	00050863          	beqz	a0,800033d0 <_ZN12kmem_cache_s5kfreeEPKv+0x48>
    for(kmem_cache_s* tmp = kmem_cache_s::head; tmp; tmp = tmp->next){
    800033c4:	0604b483          	ld	s1,96(s1)
    800033c8:	fe5ff06f          	j	800033ac <_ZN12kmem_cache_s5kfreeEPKv+0x24>
    }
    // if not found return 1;
    return -1;
    800033cc:	fff00513          	li	a0,-1
}
    800033d0:	01813083          	ld	ra,24(sp)
    800033d4:	01013403          	ld	s0,16(sp)
    800033d8:	00813483          	ld	s1,8(sp)
    800033dc:	00013903          	ld	s2,0(sp)
    800033e0:	02010113          	addi	sp,sp,32
    800033e4:	00008067          	ret

00000000800033e8 <_ZN12kmem_cache_s15kmem_cache_infoEv>:
        cache = cache->next;
    }
    return -1;
}

void kmem_cache_s::kmem_cache_info() {
    800033e8:	fd010113          	addi	sp,sp,-48
    800033ec:	02113423          	sd	ra,40(sp)
    800033f0:	02813023          	sd	s0,32(sp)
    800033f4:	00913c23          	sd	s1,24(sp)
    800033f8:	01213823          	sd	s2,16(sp)
    800033fc:	01313423          	sd	s3,8(sp)
    80003400:	01413023          	sd	s4,0(sp)
    80003404:	03010413          	addi	s0,sp,48
    80003408:	00050913          	mv	s2,a0

    printString("------------------- CACHE INFO -------------------\n");
    8000340c:	00006517          	auipc	a0,0x6
    80003410:	c2450513          	addi	a0,a0,-988 # 80009030 <CONSOLE_STATUS+0x20>
    80003414:	00002097          	auipc	ra,0x2
    80003418:	32c080e7          	jalr	812(ra) # 80005740 <_Z11printStringPKc>
    // print name and object size
    printString("Ime: ");
    8000341c:	00006517          	auipc	a0,0x6
    80003420:	c4c50513          	addi	a0,a0,-948 # 80009068 <CONSOLE_STATUS+0x58>
    80003424:	00002097          	auipc	ra,0x2
    80003428:	31c080e7          	jalr	796(ra) # 80005740 <_Z11printStringPKc>
    printString(name);
    8000342c:	05893503          	ld	a0,88(s2)
    80003430:	00002097          	auipc	ra,0x2
    80003434:	310080e7          	jalr	784(ra) # 80005740 <_Z11printStringPKc>
    printString("\n");
    80003438:	00006517          	auipc	a0,0x6
    8000343c:	e1850513          	addi	a0,a0,-488 # 80009250 <CONSOLE_STATUS+0x240>
    80003440:	00002097          	auipc	ra,0x2
    80003444:	300080e7          	jalr	768(ra) # 80005740 <_Z11printStringPKc>
    printString("Velicina objekta: ");
    80003448:	00006517          	auipc	a0,0x6
    8000344c:	c2850513          	addi	a0,a0,-984 # 80009070 <CONSOLE_STATUS+0x60>
    80003450:	00002097          	auipc	ra,0x2
    80003454:	2f0080e7          	jalr	752(ra) # 80005740 <_Z11printStringPKc>
    printInt(objsize);
    80003458:	00000613          	li	a2,0
    8000345c:	00a00593          	li	a1,10
    80003460:	03092503          	lw	a0,48(s2)
    80003464:	00002097          	auipc	ra,0x2
    80003468:	474080e7          	jalr	1140(ra) # 800058d8 <_Z8printIntiii>
    printString("\n");
    8000346c:	00006517          	auipc	a0,0x6
    80003470:	de450513          	addi	a0,a0,-540 # 80009250 <CONSOLE_STATUS+0x240>
    80003474:	00002097          	auipc	ra,0x2
    80003478:	2cc080e7          	jalr	716(ra) # 80005740 <_Z11printStringPKc>

    // print size of cache (in blocks)
    size_t num_of_slabs = num_slabs_full + num_slabs_partial + num_slabs_free;
    8000347c:	01893983          	ld	s3,24(s2)
    80003480:	02093783          	ld	a5,32(s2)
    80003484:	00f989b3          	add	s3,s3,a5
    80003488:	02893503          	ld	a0,40(s2)
    8000348c:	00a989b3          	add	s3,s3,a0
    size_t size_of_cache_in_blocks = num_of_slabs * size_in_blocks + 1;
    80003490:	04093483          	ld	s1,64(s2)
    80003494:	033484b3          	mul	s1,s1,s3
    80003498:	00148493          	addi	s1,s1,1
    printString("Velicina kesa u blokovima: ");
    8000349c:	00006517          	auipc	a0,0x6
    800034a0:	bec50513          	addi	a0,a0,-1044 # 80009088 <CONSOLE_STATUS+0x78>
    800034a4:	00002097          	auipc	ra,0x2
    800034a8:	29c080e7          	jalr	668(ra) # 80005740 <_Z11printStringPKc>
    printInt(size_of_cache_in_blocks);
    800034ac:	00000613          	li	a2,0
    800034b0:	00a00593          	li	a1,10
    800034b4:	0004851b          	sext.w	a0,s1
    800034b8:	00002097          	auipc	ra,0x2
    800034bc:	420080e7          	jalr	1056(ra) # 800058d8 <_Z8printIntiii>
    printString("\n");
    800034c0:	00006517          	auipc	a0,0x6
    800034c4:	d9050513          	addi	a0,a0,-624 # 80009250 <CONSOLE_STATUS+0x240>
    800034c8:	00002097          	auipc	ra,0x2
    800034cc:	278080e7          	jalr	632(ra) # 80005740 <_Z11printStringPKc>

    // print number of slabs in cache
    printString("Broj ploca u kesu: ");
    800034d0:	00006517          	auipc	a0,0x6
    800034d4:	bd850513          	addi	a0,a0,-1064 # 800090a8 <CONSOLE_STATUS+0x98>
    800034d8:	00002097          	auipc	ra,0x2
    800034dc:	268080e7          	jalr	616(ra) # 80005740 <_Z11printStringPKc>
    printInt(num_of_slabs);
    800034e0:	00000613          	li	a2,0
    800034e4:	00a00593          	li	a1,10
    800034e8:	0009851b          	sext.w	a0,s3
    800034ec:	00002097          	auipc	ra,0x2
    800034f0:	3ec080e7          	jalr	1004(ra) # 800058d8 <_Z8printIntiii>
    printString("\n");
    800034f4:	00006517          	auipc	a0,0x6
    800034f8:	d5c50513          	addi	a0,a0,-676 # 80009250 <CONSOLE_STATUS+0x240>
    800034fc:	00002097          	auipc	ra,0x2
    80003500:	244080e7          	jalr	580(ra) # 80005740 <_Z11printStringPKc>

    // number of objects in one slab
    printString("Broj objekata koji staju u jednu plocu: ");
    80003504:	00006517          	auipc	a0,0x6
    80003508:	bbc50513          	addi	a0,a0,-1092 # 800090c0 <CONSOLE_STATUS+0xb0>
    8000350c:	00002097          	auipc	ra,0x2
    80003510:	234080e7          	jalr	564(ra) # 80005740 <_Z11printStringPKc>
    printInt(num);
    80003514:	00000613          	li	a2,0
    80003518:	00a00593          	li	a1,10
    8000351c:	03892503          	lw	a0,56(s2)
    80003520:	00002097          	auipc	ra,0x2
    80003524:	3b8080e7          	jalr	952(ra) # 800058d8 <_Z8printIntiii>
    printString("\n");
    80003528:	00006517          	auipc	a0,0x6
    8000352c:	d2850513          	addi	a0,a0,-728 # 80009250 <CONSOLE_STATUS+0x240>
    80003530:	00002097          	auipc	ra,0x2
    80003534:	210080e7          	jalr	528(ra) # 80005740 <_Z11printStringPKc>

    // number of objects in one slab
    printString("Broj aktivnih objekata u kesu: ");
    80003538:	00006517          	auipc	a0,0x6
    8000353c:	bb850513          	addi	a0,a0,-1096 # 800090f0 <CONSOLE_STATUS+0xe0>
    80003540:	00002097          	auipc	ra,0x2
    80003544:	200080e7          	jalr	512(ra) # 80005740 <_Z11printStringPKc>
    printInt(num_active_obj);
    80003548:	00000613          	li	a2,0
    8000354c:	00a00593          	li	a1,10
    80003550:	06892503          	lw	a0,104(s2)
    80003554:	00002097          	auipc	ra,0x2
    80003558:	384080e7          	jalr	900(ra) # 800058d8 <_Z8printIntiii>
    printString("\n");
    8000355c:	00006517          	auipc	a0,0x6
    80003560:	cf450513          	addi	a0,a0,-780 # 80009250 <CONSOLE_STATUS+0x240>
    80003564:	00002097          	auipc	ra,0x2
    80003568:	1dc080e7          	jalr	476(ra) # 80005740 <_Z11printStringPKc>

    // stanje u slabovima
    printString("slobodni: ");
    8000356c:	00006517          	auipc	a0,0x6
    80003570:	ba450513          	addi	a0,a0,-1116 # 80009110 <CONSOLE_STATUS+0x100>
    80003574:	00002097          	auipc	ra,0x2
    80003578:	1cc080e7          	jalr	460(ra) # 80005740 <_Z11printStringPKc>
    for(Slab* tmp = slabs_free; tmp; tmp = tmp->next){
    8000357c:	01093483          	ld	s1,16(s2)
    80003580:	02048863          	beqz	s1,800035b0 <_ZN12kmem_cache_s15kmem_cache_infoEv+0x1c8>
        printInt(tmp->get_number_of_active_objects());
    80003584:	00000613          	li	a2,0
    80003588:	00a00593          	li	a1,10
    8000358c:	0004a503          	lw	a0,0(s1)
    80003590:	00002097          	auipc	ra,0x2
    80003594:	348080e7          	jalr	840(ra) # 800058d8 <_Z8printIntiii>
        printString(" ");
    80003598:	00006517          	auipc	a0,0x6
    8000359c:	b8850513          	addi	a0,a0,-1144 # 80009120 <CONSOLE_STATUS+0x110>
    800035a0:	00002097          	auipc	ra,0x2
    800035a4:	1a0080e7          	jalr	416(ra) # 80005740 <_Z11printStringPKc>
    for(Slab* tmp = slabs_free; tmp; tmp = tmp->next){
    800035a8:	0084b483          	ld	s1,8(s1)
    800035ac:	fd5ff06f          	j	80003580 <_ZN12kmem_cache_s15kmem_cache_infoEv+0x198>
    }
    printString("\n");
    800035b0:	00006517          	auipc	a0,0x6
    800035b4:	ca050513          	addi	a0,a0,-864 # 80009250 <CONSOLE_STATUS+0x240>
    800035b8:	00002097          	auipc	ra,0x2
    800035bc:	188080e7          	jalr	392(ra) # 80005740 <_Z11printStringPKc>
    printString("zaprljani: ");
    800035c0:	00006517          	auipc	a0,0x6
    800035c4:	b6850513          	addi	a0,a0,-1176 # 80009128 <CONSOLE_STATUS+0x118>
    800035c8:	00002097          	auipc	ra,0x2
    800035cc:	178080e7          	jalr	376(ra) # 80005740 <_Z11printStringPKc>
    for(Slab* tmp = slabs_partial; tmp; tmp = tmp->next){
    800035d0:	00893483          	ld	s1,8(s2)
    800035d4:	02048863          	beqz	s1,80003604 <_ZN12kmem_cache_s15kmem_cache_infoEv+0x21c>
        printInt(tmp->get_number_of_active_objects());
    800035d8:	00000613          	li	a2,0
    800035dc:	00a00593          	li	a1,10
    800035e0:	0004a503          	lw	a0,0(s1)
    800035e4:	00002097          	auipc	ra,0x2
    800035e8:	2f4080e7          	jalr	756(ra) # 800058d8 <_Z8printIntiii>
        printString(" ");
    800035ec:	00006517          	auipc	a0,0x6
    800035f0:	b3450513          	addi	a0,a0,-1228 # 80009120 <CONSOLE_STATUS+0x110>
    800035f4:	00002097          	auipc	ra,0x2
    800035f8:	14c080e7          	jalr	332(ra) # 80005740 <_Z11printStringPKc>
    for(Slab* tmp = slabs_partial; tmp; tmp = tmp->next){
    800035fc:	0084b483          	ld	s1,8(s1)
    80003600:	fd5ff06f          	j	800035d4 <_ZN12kmem_cache_s15kmem_cache_infoEv+0x1ec>
    }
    printString("\n");
    80003604:	00006517          	auipc	a0,0x6
    80003608:	c4c50513          	addi	a0,a0,-948 # 80009250 <CONSOLE_STATUS+0x240>
    8000360c:	00002097          	auipc	ra,0x2
    80003610:	134080e7          	jalr	308(ra) # 80005740 <_Z11printStringPKc>
    printString("puni: ");
    80003614:	00006517          	auipc	a0,0x6
    80003618:	b2450513          	addi	a0,a0,-1244 # 80009138 <CONSOLE_STATUS+0x128>
    8000361c:	00002097          	auipc	ra,0x2
    80003620:	124080e7          	jalr	292(ra) # 80005740 <_Z11printStringPKc>
    for(Slab* tmp = slabs_full; tmp; tmp = tmp->next){
    80003624:	00093483          	ld	s1,0(s2)
    80003628:	02048863          	beqz	s1,80003658 <_ZN12kmem_cache_s15kmem_cache_infoEv+0x270>
        printInt(tmp->get_number_of_active_objects());
    8000362c:	00000613          	li	a2,0
    80003630:	00a00593          	li	a1,10
    80003634:	0004a503          	lw	a0,0(s1)
    80003638:	00002097          	auipc	ra,0x2
    8000363c:	2a0080e7          	jalr	672(ra) # 800058d8 <_Z8printIntiii>
        printString(" ");
    80003640:	00006517          	auipc	a0,0x6
    80003644:	ae050513          	addi	a0,a0,-1312 # 80009120 <CONSOLE_STATUS+0x110>
    80003648:	00002097          	auipc	ra,0x2
    8000364c:	0f8080e7          	jalr	248(ra) # 80005740 <_Z11printStringPKc>
    for(Slab* tmp = slabs_full; tmp; tmp = tmp->next){
    80003650:	0084b483          	ld	s1,8(s1)
    80003654:	fd5ff06f          	j	80003628 <_ZN12kmem_cache_s15kmem_cache_infoEv+0x240>
    }
    printString("\n");
    80003658:	00006517          	auipc	a0,0x6
    8000365c:	bf850513          	addi	a0,a0,-1032 # 80009250 <CONSOLE_STATUS+0x240>
    80003660:	00002097          	auipc	ra,0x2
    80003664:	0e0080e7          	jalr	224(ra) # 80005740 <_Z11printStringPKc>

    // number of times cache shrank
    printString("Broj uspesnih smanjenja kesa: ");
    80003668:	00006517          	auipc	a0,0x6
    8000366c:	ad850513          	addi	a0,a0,-1320 # 80009140 <CONSOLE_STATUS+0x130>
    80003670:	00002097          	auipc	ra,0x2
    80003674:	0d0080e7          	jalr	208(ra) # 80005740 <_Z11printStringPKc>
    printInt(shrink);
    80003678:	00000613          	li	a2,0
    8000367c:	00a00593          	li	a1,10
    80003680:	07892503          	lw	a0,120(s2)
    80003684:	00002097          	auipc	ra,0x2
    80003688:	254080e7          	jalr	596(ra) # 800058d8 <_Z8printIntiii>
    printString("\n");
    8000368c:	00006517          	auipc	a0,0x6
    80003690:	bc450513          	addi	a0,a0,-1084 # 80009250 <CONSOLE_STATUS+0x240>
    80003694:	00002097          	auipc	ra,0x2
    80003698:	0ac080e7          	jalr	172(ra) # 80005740 <_Z11printStringPKc>

    // metedata
    printString("Velicina metapodataka za kmem_cache_s: ");
    8000369c:	00006517          	auipc	a0,0x6
    800036a0:	ac450513          	addi	a0,a0,-1340 # 80009160 <CONSOLE_STATUS+0x150>
    800036a4:	00002097          	auipc	ra,0x2
    800036a8:	09c080e7          	jalr	156(ra) # 80005740 <_Z11printStringPKc>
    printInt(sizeof(kmem_cache_s));
    800036ac:	00000613          	li	a2,0
    800036b0:	00a00593          	li	a1,10
    800036b4:	08000513          	li	a0,128
    800036b8:	00002097          	auipc	ra,0x2
    800036bc:	220080e7          	jalr	544(ra) # 800058d8 <_Z8printIntiii>
    printString("\n");
    800036c0:	00006517          	auipc	a0,0x6
    800036c4:	b9050513          	addi	a0,a0,-1136 # 80009250 <CONSOLE_STATUS+0x240>
    800036c8:	00002097          	auipc	ra,0x2
    800036cc:	078080e7          	jalr	120(ra) # 80005740 <_Z11printStringPKc>
    printString("Velicina metapodataka za Slab: ");
    800036d0:	00006517          	auipc	a0,0x6
    800036d4:	ab850513          	addi	a0,a0,-1352 # 80009188 <CONSOLE_STATUS+0x178>
    800036d8:	00002097          	auipc	ra,0x2
    800036dc:	068080e7          	jalr	104(ra) # 80005740 <_Z11printStringPKc>
    printInt(sizeof(Slab));
    800036e0:	00000613          	li	a2,0
    800036e4:	00a00593          	li	a1,10
    800036e8:	02000513          	li	a0,32
    800036ec:	00002097          	auipc	ra,0x2
    800036f0:	1ec080e7          	jalr	492(ra) # 800058d8 <_Z8printIntiii>
    printString("\n");
    800036f4:	00006517          	auipc	a0,0x6
    800036f8:	b5c50513          	addi	a0,a0,-1188 # 80009250 <CONSOLE_STATUS+0x240>
    800036fc:	00002097          	auipc	ra,0x2
    80003700:	044080e7          	jalr	68(ra) # 80005740 <_Z11printStringPKc>

    // percentage of fullfilment of cache
    size_t neto = sizeof(kmem_cache_s) + num_of_slabs * sizeof(Slab) + num_active_obj * objsize;
    80003704:	00498a13          	addi	s4,s3,4
    80003708:	005a1a13          	slli	s4,s4,0x5
    8000370c:	06893783          	ld	a5,104(s2)
    80003710:	03093703          	ld	a4,48(s2)
    80003714:	02e787b3          	mul	a5,a5,a4
    80003718:	00fa0a33          	add	s4,s4,a5
    size_t bruto = (1 + num_of_slabs * size_in_blocks) * BLOCK_SIZE;
    8000371c:	04093483          	ld	s1,64(s2)
    80003720:	033484b3          	mul	s1,s1,s3
    80003724:	00148493          	addi	s1,s1,1
    80003728:	00c49493          	slli	s1,s1,0xc

    printString("Realna iskoriscenost prostora: ");
    8000372c:	00006517          	auipc	a0,0x6
    80003730:	a7c50513          	addi	a0,a0,-1412 # 800091a8 <CONSOLE_STATUS+0x198>
    80003734:	00002097          	auipc	ra,0x2
    80003738:	00c080e7          	jalr	12(ra) # 80005740 <_Z11printStringPKc>
    printInt(neto);
    8000373c:	00000613          	li	a2,0
    80003740:	00a00593          	li	a1,10
    80003744:	000a051b          	sext.w	a0,s4
    80003748:	00002097          	auipc	ra,0x2
    8000374c:	190080e7          	jalr	400(ra) # 800058d8 <_Z8printIntiii>
    printString("/");
    80003750:	00006517          	auipc	a0,0x6
    80003754:	a7850513          	addi	a0,a0,-1416 # 800091c8 <CONSOLE_STATUS+0x1b8>
    80003758:	00002097          	auipc	ra,0x2
    8000375c:	fe8080e7          	jalr	-24(ra) # 80005740 <_Z11printStringPKc>
    printInt(bruto);
    80003760:	00000613          	li	a2,0
    80003764:	00a00593          	li	a1,10
    80003768:	0004851b          	sext.w	a0,s1
    8000376c:	00002097          	auipc	ra,0x2
    80003770:	16c080e7          	jalr	364(ra) # 800058d8 <_Z8printIntiii>
    printString("\n");
    80003774:	00006517          	auipc	a0,0x6
    80003778:	adc50513          	addi	a0,a0,-1316 # 80009250 <CONSOLE_STATUS+0x240>
    8000377c:	00002097          	auipc	ra,0x2
    80003780:	fc4080e7          	jalr	-60(ra) # 80005740 <_Z11printStringPKc>
    printString("Efektivna iskoriscenost prostora: ");
    80003784:	00006517          	auipc	a0,0x6
    80003788:	a4c50513          	addi	a0,a0,-1460 # 800091d0 <CONSOLE_STATUS+0x1c0>
    8000378c:	00002097          	auipc	ra,0x2
    80003790:	fb4080e7          	jalr	-76(ra) # 80005740 <_Z11printStringPKc>
    printInt(num_active_obj * objsize);
    80003794:	06893503          	ld	a0,104(s2)
    80003798:	03093783          	ld	a5,48(s2)
    8000379c:	00000613          	li	a2,0
    800037a0:	00a00593          	li	a1,10
    800037a4:	02f5053b          	mulw	a0,a0,a5
    800037a8:	00002097          	auipc	ra,0x2
    800037ac:	130080e7          	jalr	304(ra) # 800058d8 <_Z8printIntiii>
    printString("/");
    800037b0:	00006517          	auipc	a0,0x6
    800037b4:	a1850513          	addi	a0,a0,-1512 # 800091c8 <CONSOLE_STATUS+0x1b8>
    800037b8:	00002097          	auipc	ra,0x2
    800037bc:	f88080e7          	jalr	-120(ra) # 80005740 <_Z11printStringPKc>
    size_t real_bruto = num_of_slabs * size_in_blocks * BLOCK_SIZE - num_of_slabs * sizeof(Slab);
    800037c0:	04093503          	ld	a0,64(s2)
    800037c4:	03350533          	mul	a0,a0,s3
    800037c8:	00751513          	slli	a0,a0,0x7
    800037cc:	41350533          	sub	a0,a0,s3
    800037d0:	00551513          	slli	a0,a0,0x5
    printInt(real_bruto);
    800037d4:	00000613          	li	a2,0
    800037d8:	00a00593          	li	a1,10
    800037dc:	0005051b          	sext.w	a0,a0
    800037e0:	00002097          	auipc	ra,0x2
    800037e4:	0f8080e7          	jalr	248(ra) # 800058d8 <_Z8printIntiii>
    printString("\n");
    800037e8:	00006517          	auipc	a0,0x6
    800037ec:	a6850513          	addi	a0,a0,-1432 # 80009250 <CONSOLE_STATUS+0x240>
    800037f0:	00002097          	auipc	ra,0x2
    800037f4:	f50080e7          	jalr	-176(ra) # 80005740 <_Z11printStringPKc>

    printString("----------------------- END ----------------------\n");
    800037f8:	00006517          	auipc	a0,0x6
    800037fc:	a0050513          	addi	a0,a0,-1536 # 800091f8 <CONSOLE_STATUS+0x1e8>
    80003800:	00002097          	auipc	ra,0x2
    80003804:	f40080e7          	jalr	-192(ra) # 80005740 <_Z11printStringPKc>
}
    80003808:	02813083          	ld	ra,40(sp)
    8000380c:	02013403          	ld	s0,32(sp)
    80003810:	01813483          	ld	s1,24(sp)
    80003814:	01013903          	ld	s2,16(sp)
    80003818:	00813983          	ld	s3,8(sp)
    8000381c:	00013a03          	ld	s4,0(sp)
    80003820:	03010113          	addi	sp,sp,48
    80003824:	00008067          	ret

0000000080003828 <_ZN12kmem_cache_s21print_info_all_cachesEv>:

void kmem_cache_s::print_info_all_caches() {
    80003828:	fe010113          	addi	sp,sp,-32
    8000382c:	00113c23          	sd	ra,24(sp)
    80003830:	00813823          	sd	s0,16(sp)
    80003834:	00913423          	sd	s1,8(sp)
    80003838:	02010413          	addi	s0,sp,32
    printString("\n\t\t\t ### PRINT ALL CACHES ###\t\t\t\n");
    8000383c:	00006517          	auipc	a0,0x6
    80003840:	9f450513          	addi	a0,a0,-1548 # 80009230 <CONSOLE_STATUS+0x220>
    80003844:	00002097          	auipc	ra,0x2
    80003848:	efc080e7          	jalr	-260(ra) # 80005740 <_Z11printStringPKc>
    for(kmem_cache_s* tmp = kmem_cache_s::head; tmp; tmp = tmp->next){
    8000384c:	00008497          	auipc	s1,0x8
    80003850:	b044b483          	ld	s1,-1276(s1) # 8000b350 <_ZN12kmem_cache_s4headE>
    80003854:	00048c63          	beqz	s1,8000386c <_ZN12kmem_cache_s21print_info_all_cachesEv+0x44>
        tmp->kmem_cache_info();
    80003858:	00048513          	mv	a0,s1
    8000385c:	00000097          	auipc	ra,0x0
    80003860:	b8c080e7          	jalr	-1140(ra) # 800033e8 <_ZN12kmem_cache_s15kmem_cache_infoEv>
    for(kmem_cache_s* tmp = kmem_cache_s::head; tmp; tmp = tmp->next){
    80003864:	0604b483          	ld	s1,96(s1)
    80003868:	fedff06f          	j	80003854 <_ZN12kmem_cache_s21print_info_all_cachesEv+0x2c>
    }
    printString("\t\t\t\t    ### END ###\t\t\t\n");
    8000386c:	00006517          	auipc	a0,0x6
    80003870:	9ec50513          	addi	a0,a0,-1556 # 80009258 <CONSOLE_STATUS+0x248>
    80003874:	00002097          	auipc	ra,0x2
    80003878:	ecc080e7          	jalr	-308(ra) # 80005740 <_Z11printStringPKc>
}
    8000387c:	01813083          	ld	ra,24(sp)
    80003880:	01013403          	ld	s0,16(sp)
    80003884:	00813483          	ld	s1,8(sp)
    80003888:	02010113          	addi	sp,sp,32
    8000388c:	00008067          	ret

0000000080003890 <_ZN4Slab42return_first_free_object_and_rearange_listEii>:

void *Slab::return_first_free_object_and_rearange_list(int number_of_objects_in_slab, int size_of_object) {
    80003890:	ff010113          	addi	sp,sp,-16
    80003894:	00813423          	sd	s0,8(sp)
    80003898:	01010413          	addi	s0,sp,16
    int i = 0;
    8000389c:	00000793          	li	a5,0
    while(i < number_of_objects_in_slab && (this->free_objects)[i]){
    800038a0:	00b7de63          	bge	a5,a1,800038bc <_ZN4Slab42return_first_free_object_and_rearange_listEii+0x2c>
    800038a4:	01053703          	ld	a4,16(a0)
    800038a8:	00f70733          	add	a4,a4,a5
    800038ac:	00074703          	lbu	a4,0(a4)
    800038b0:	00070663          	beqz	a4,800038bc <_ZN4Slab42return_first_free_object_and_rearange_listEii+0x2c>
        i++;
    800038b4:	0017879b          	addiw	a5,a5,1
    while(i < number_of_objects_in_slab && (this->free_objects)[i]){
    800038b8:	fe9ff06f          	j	800038a0 <_ZN4Slab42return_first_free_object_and_rearange_listEii+0x10>
    }
    if(i >= number_of_objects_in_slab)return nullptr; // nece se desiti ali postoji kao ogranicenje
    800038bc:	02b7d663          	bge	a5,a1,800038e8 <_ZN4Slab42return_first_free_object_and_rearange_listEii+0x58>
    (this->free_objects)[i] = true;
    800038c0:	01053703          	ld	a4,16(a0)
    800038c4:	00f70733          	add	a4,a4,a5
    800038c8:	00100693          	li	a3,1
    800038cc:	00d70023          	sb	a3,0(a4)
    return (void*)(this->first_addr + size_of_object * i);
    800038d0:	01853503          	ld	a0,24(a0)
    800038d4:	02c787bb          	mulw	a5,a5,a2
    800038d8:	00f50533          	add	a0,a0,a5
}
    800038dc:	00813403          	ld	s0,8(sp)
    800038e0:	01010113          	addi	sp,sp,16
    800038e4:	00008067          	ret
    if(i >= number_of_objects_in_slab)return nullptr; // nece se desiti ali postoji kao ogranicenje
    800038e8:	00000513          	li	a0,0
    800038ec:	ff1ff06f          	j	800038dc <_ZN4Slab42return_first_free_object_and_rearange_listEii+0x4c>

00000000800038f0 <_ZN12kmem_cache_s16kmem_cache_allocEv>:
void *kmem_cache_s::kmem_cache_alloc() {
    800038f0:	fe010113          	addi	sp,sp,-32
    800038f4:	00113c23          	sd	ra,24(sp)
    800038f8:	00813823          	sd	s0,16(sp)
    800038fc:	00913423          	sd	s1,8(sp)
    80003900:	02010413          	addi	s0,sp,32
    80003904:	00050493          	mv	s1,a0
    if(num_slabs_partial != 0){
    80003908:	02053783          	ld	a5,32(a0)
    8000390c:	06079e63          	bnez	a5,80003988 <_ZN12kmem_cache_s16kmem_cache_allocEv+0x98>
    else if(num_slabs_free != 0){
    80003910:	02853783          	ld	a5,40(a0)
    80003914:	0e078263          	beqz	a5,800039f8 <_ZN12kmem_cache_s16kmem_cache_allocEv+0x108>
        void* addr1 = this->slabs_free->return_first_free_object_and_rearange_list(this->num, this->objsize);
    80003918:	03052603          	lw	a2,48(a0)
    8000391c:	03852583          	lw	a1,56(a0)
    80003920:	01053503          	ld	a0,16(a0)
    80003924:	00000097          	auipc	ra,0x0
    80003928:	f6c080e7          	jalr	-148(ra) # 80003890 <_ZN4Slab42return_first_free_object_and_rearange_listEii>
        this->num_active_obj++;
    8000392c:	0684b783          	ld	a5,104(s1)
    80003930:	00178793          	addi	a5,a5,1
    80003934:	06f4b423          	sd	a5,104(s1)
        Slab* tmp = this->slabs_free;
    80003938:	0104b783          	ld	a5,16(s1)
        this->slabs_free = this->slabs_free->next;
    8000393c:	0087b703          	ld	a4,8(a5)
    80003940:	00e4b823          	sd	a4,16(s1)
        tmp->next = this->slabs_partial;
    80003944:	0084b703          	ld	a4,8(s1)
    80003948:	00e7b423          	sd	a4,8(a5)
    void increment_num_of_active(){num_active++;}
    8000394c:	0007b703          	ld	a4,0(a5)
    80003950:	00170713          	addi	a4,a4,1
    80003954:	00e7b023          	sd	a4,0(a5)
        this->slabs_partial = tmp;
    80003958:	00f4b423          	sd	a5,8(s1)
        this->num_slabs_free--;
    8000395c:	0284b783          	ld	a5,40(s1)
    80003960:	fff78793          	addi	a5,a5,-1
    80003964:	02f4b423          	sd	a5,40(s1)
        this->num_slabs_partial++;
    80003968:	0204b783          	ld	a5,32(s1)
    8000396c:	00178793          	addi	a5,a5,1
    80003970:	02f4b023          	sd	a5,32(s1)
}
    80003974:	01813083          	ld	ra,24(sp)
    80003978:	01013403          	ld	s0,16(sp)
    8000397c:	00813483          	ld	s1,8(sp)
    80003980:	02010113          	addi	sp,sp,32
    80003984:	00008067          	ret
        void* addr = this->slabs_partial->return_first_free_object_and_rearange_list(this->num, this->objsize);
    80003988:	03052603          	lw	a2,48(a0)
    8000398c:	03852583          	lw	a1,56(a0)
    80003990:	00853503          	ld	a0,8(a0)
    80003994:	00000097          	auipc	ra,0x0
    80003998:	efc080e7          	jalr	-260(ra) # 80003890 <_ZN4Slab42return_first_free_object_and_rearange_listEii>
        this->num_active_obj++;
    8000399c:	0684b783          	ld	a5,104(s1)
    800039a0:	00178793          	addi	a5,a5,1
    800039a4:	06f4b423          	sd	a5,104(s1)
        this->slabs_partial->increment_num_of_active();
    800039a8:	0084b703          	ld	a4,8(s1)
    800039ac:	00073783          	ld	a5,0(a4)
    800039b0:	00178793          	addi	a5,a5,1
    800039b4:	00f73023          	sd	a5,0(a4)
        if(this->slabs_partial->get_number_of_active_objects() == this->num){
    800039b8:	0084b783          	ld	a5,8(s1)
    size_t get_number_of_active_objects(){return num_active;}
    800039bc:	0007b703          	ld	a4,0(a5)
    800039c0:	0384b683          	ld	a3,56(s1)
    800039c4:	fae698e3          	bne	a3,a4,80003974 <_ZN12kmem_cache_s16kmem_cache_allocEv+0x84>
            this->slabs_partial = this->slabs_partial->next;
    800039c8:	0087b703          	ld	a4,8(a5)
    800039cc:	00e4b423          	sd	a4,8(s1)
            tmp->next = this->slabs_full;
    800039d0:	0004b703          	ld	a4,0(s1)
    800039d4:	00e7b423          	sd	a4,8(a5)
            this->slabs_full = tmp;
    800039d8:	00f4b023          	sd	a5,0(s1)
            this->num_slabs_partial--;
    800039dc:	0204b783          	ld	a5,32(s1)
    800039e0:	fff78793          	addi	a5,a5,-1
    800039e4:	02f4b023          	sd	a5,32(s1)
            this->num_slabs_full++;
    800039e8:	0184b783          	ld	a5,24(s1)
    800039ec:	00178793          	addi	a5,a5,1
    800039f0:	00f4bc23          	sd	a5,24(s1)
        return addr;
    800039f4:	f81ff06f          	j	80003974 <_ZN12kmem_cache_s16kmem_cache_allocEv+0x84>
        create_free_slab();
    800039f8:	fffff097          	auipc	ra,0xfffff
    800039fc:	448080e7          	jalr	1096(ra) # 80002e40 <_ZN12kmem_cache_s16create_free_slabEv>
        this->growing = true;
    80003a00:	00100793          	li	a5,1
    80003a04:	06f48823          	sb	a5,112(s1)
        return nullptr;
    80003a08:	00000513          	li	a0,0
    80003a0c:	f69ff06f          	j	80003974 <_ZN12kmem_cache_s16kmem_cache_allocEv+0x84>

0000000080003a10 <_ZN12kmem_cache_s7kmallocEm>:
void *kmem_cache_s::kmalloc(size_t size) {
    80003a10:	fe010113          	addi	sp,sp,-32
    80003a14:	00113c23          	sd	ra,24(sp)
    80003a18:	00813823          	sd	s0,16(sp)
    80003a1c:	00913423          	sd	s1,8(sp)
    80003a20:	01213023          	sd	s2,0(sp)
    80003a24:	02010413          	addi	s0,sp,32
    80003a28:	00050493          	mv	s1,a0
    const char* n = (const char*)concatenate_int_to_char_ptr((int)size);
    80003a2c:	0005051b          	sext.w	a0,a0
    80003a30:	fffff097          	auipc	ra,0xfffff
    80003a34:	bf0080e7          	jalr	-1040(ra) # 80002620 <_Z27concatenate_int_to_char_ptri>
    80003a38:	00050913          	mv	s2,a0
    kmem_cache_s* tmp = check_if_name_exists(n);
    80003a3c:	00000097          	auipc	ra,0x0
    80003a40:	860080e7          	jalr	-1952(ra) # 8000329c <_ZN12kmem_cache_s20check_if_name_existsEPKc>
    if(tmp == nullptr){
    80003a44:	02050463          	beqz	a0,80003a6c <_ZN12kmem_cache_s7kmallocEm+0x5c>
    kmem_cache_s* cache = nullptr;
    80003a48:	00000513          	li	a0,0
    void* elem = cache->kmem_cache_alloc();
    80003a4c:	00000097          	auipc	ra,0x0
    80003a50:	ea4080e7          	jalr	-348(ra) # 800038f0 <_ZN12kmem_cache_s16kmem_cache_allocEv>
}
    80003a54:	01813083          	ld	ra,24(sp)
    80003a58:	01013403          	ld	s0,16(sp)
    80003a5c:	00813483          	ld	s1,8(sp)
    80003a60:	00013903          	ld	s2,0(sp)
    80003a64:	02010113          	addi	sp,sp,32
    80003a68:	00008067          	ret
        cache = (kmem_cache_s*)kmem_cache_create(n, size, nullptr, nullptr);
    80003a6c:	00000693          	li	a3,0
    80003a70:	00000613          	li	a2,0
    80003a74:	00048593          	mv	a1,s1
    80003a78:	00090513          	mv	a0,s2
    80003a7c:	fffff097          	auipc	ra,0xfffff
    80003a80:	4e8080e7          	jalr	1256(ra) # 80002f64 <_ZN12kmem_cache_s17kmem_cache_createEPKcmPFvPvES4_>
        if(!cache)return nullptr;
    80003a84:	fc0514e3          	bnez	a0,80003a4c <_ZN12kmem_cache_s7kmallocEm+0x3c>
    80003a88:	fcdff06f          	j	80003a54 <_ZN12kmem_cache_s7kmallocEm+0x44>

0000000080003a8c <_ZN4Slab10clear_slabEiiPFvPvE>:

void Slab::clear_slab(int num_of_objects_in_slab, int objsize, void (*dtor)(void *)) {
    if(dtor == nullptr)return;
    80003a8c:	08068863          	beqz	a3,80003b1c <_ZN4Slab10clear_slabEiiPFvPvE+0x90>
void Slab::clear_slab(int num_of_objects_in_slab, int objsize, void (*dtor)(void *)) {
    80003a90:	fc010113          	addi	sp,sp,-64
    80003a94:	02113c23          	sd	ra,56(sp)
    80003a98:	02813823          	sd	s0,48(sp)
    80003a9c:	02913423          	sd	s1,40(sp)
    80003aa0:	03213023          	sd	s2,32(sp)
    80003aa4:	01313c23          	sd	s3,24(sp)
    80003aa8:	01413823          	sd	s4,16(sp)
    80003aac:	01513423          	sd	s5,8(sp)
    80003ab0:	04010413          	addi	s0,sp,64
    80003ab4:	00050913          	mv	s2,a0
    80003ab8:	00058993          	mv	s3,a1
    80003abc:	00060a93          	mv	s5,a2
    80003ac0:	00068a13          	mv	s4,a3
    for(int i = 0; i < num_of_objects_in_slab; i++){
    80003ac4:	00000493          	li	s1,0
    80003ac8:	0080006f          	j	80003ad0 <_ZN4Slab10clear_slabEiiPFvPvE+0x44>
    80003acc:	0014849b          	addiw	s1,s1,1
    80003ad0:	0334d463          	bge	s1,s3,80003af8 <_ZN4Slab10clear_slabEiiPFvPvE+0x6c>
        if(this->free_objects[i]){
    80003ad4:	01093783          	ld	a5,16(s2)
    80003ad8:	009787b3          	add	a5,a5,s1
    80003adc:	0007c783          	lbu	a5,0(a5)
    80003ae0:	fe0786e3          	beqz	a5,80003acc <_ZN4Slab10clear_slabEiiPFvPvE+0x40>
            dtor((void*)(this->first_addr + i * objsize));
    80003ae4:	01893503          	ld	a0,24(s2)
    80003ae8:	035487bb          	mulw	a5,s1,s5
    80003aec:	00f50533          	add	a0,a0,a5
    80003af0:	000a00e7          	jalr	s4
    80003af4:	fd9ff06f          	j	80003acc <_ZN4Slab10clear_slabEiiPFvPvE+0x40>
        }
    }
}
    80003af8:	03813083          	ld	ra,56(sp)
    80003afc:	03013403          	ld	s0,48(sp)
    80003b00:	02813483          	ld	s1,40(sp)
    80003b04:	02013903          	ld	s2,32(sp)
    80003b08:	01813983          	ld	s3,24(sp)
    80003b0c:	01013a03          	ld	s4,16(sp)
    80003b10:	00813a83          	ld	s5,8(sp)
    80003b14:	04010113          	addi	sp,sp,64
    80003b18:	00008067          	ret
    80003b1c:	00008067          	ret

0000000080003b20 <_ZN12kmem_cache_s18kmem_cache_destroyEm>:
int kmem_cache_s::kmem_cache_destroy(size_t addr) {
    80003b20:	fd010113          	addi	sp,sp,-48
    80003b24:	02113423          	sd	ra,40(sp)
    80003b28:	02813023          	sd	s0,32(sp)
    80003b2c:	00913c23          	sd	s1,24(sp)
    80003b30:	01213823          	sd	s2,16(sp)
    80003b34:	01313423          	sd	s3,8(sp)
    80003b38:	01413023          	sd	s4,0(sp)
    80003b3c:	03010413          	addi	s0,sp,48
    80003b40:	00050493          	mv	s1,a0
    80003b44:	00058a13          	mv	s4,a1
    Slab *prev = nullptr, *tmp = this->slabs_full;
    80003b48:	00053903          	ld	s2,0(a0)
    80003b4c:	01c0006f          	j	80003b68 <_ZN12kmem_cache_s18kmem_cache_destroyEm+0x48>
        BuddySystem::getInstance().buddyFree((size_t)prev);
    80003b50:	00090593          	mv	a1,s2
    80003b54:	00008517          	auipc	a0,0x8
    80003b58:	80c50513          	addi	a0,a0,-2036 # 8000b360 <_ZZN11BuddySystem11getInstanceEPviE2bs>
    80003b5c:	ffffe097          	auipc	ra,0xffffe
    80003b60:	378080e7          	jalr	888(ra) # 80001ed4 <_ZN11BuddySystem9buddyFreeEm>
        tmp = tmp->next;
    80003b64:	00098913          	mv	s2,s3
    while (tmp) {
    80003b68:	04090663          	beqz	s2,80003bb4 <_ZN12kmem_cache_s18kmem_cache_destroyEm+0x94>
        tmp = tmp->next;
    80003b6c:	00893983          	ld	s3,8(s2)
        prev->clear_slab((int)num, (int)objsize, dtor);
    80003b70:	0504b683          	ld	a3,80(s1)
    80003b74:	0304a603          	lw	a2,48(s1)
    80003b78:	0384a583          	lw	a1,56(s1)
    80003b7c:	00090513          	mv	a0,s2
    80003b80:	00000097          	auipc	ra,0x0
    80003b84:	f0c080e7          	jalr	-244(ra) # 80003a8c <_ZN4Slab10clear_slabEiiPFvPvE>
    80003b88:	00007797          	auipc	a5,0x7
    80003b8c:	7d07c783          	lbu	a5,2000(a5) # 8000b358 <_ZGVZN11BuddySystem11getInstanceEPviE2bs>
    80003b90:	fc0790e3          	bnez	a5,80003b50 <_ZN12kmem_cache_s18kmem_cache_destroyEm+0x30>
    80003b94:	00007517          	auipc	a0,0x7
    80003b98:	7cc50513          	addi	a0,a0,1996 # 8000b360 <_ZZN11BuddySystem11getInstanceEPviE2bs>
    80003b9c:	ffffe097          	auipc	ra,0xffffe
    80003ba0:	038080e7          	jalr	56(ra) # 80001bd4 <_ZN11BuddySystemC1Ev>
    80003ba4:	00100793          	li	a5,1
    80003ba8:	00007717          	auipc	a4,0x7
    80003bac:	7af70823          	sb	a5,1968(a4) # 8000b358 <_ZGVZN11BuddySystem11getInstanceEPviE2bs>
    80003bb0:	fa1ff06f          	j	80003b50 <_ZN12kmem_cache_s18kmem_cache_destroyEm+0x30>
    prev = nullptr; tmp = this->slabs_partial;
    80003bb4:	0084b903          	ld	s2,8(s1)
    80003bb8:	0380006f          	j	80003bf0 <_ZN12kmem_cache_s18kmem_cache_destroyEm+0xd0>
    80003bbc:	00007517          	auipc	a0,0x7
    80003bc0:	7a450513          	addi	a0,a0,1956 # 8000b360 <_ZZN11BuddySystem11getInstanceEPviE2bs>
    80003bc4:	ffffe097          	auipc	ra,0xffffe
    80003bc8:	010080e7          	jalr	16(ra) # 80001bd4 <_ZN11BuddySystemC1Ev>
    80003bcc:	00100793          	li	a5,1
    80003bd0:	00007717          	auipc	a4,0x7
    80003bd4:	78f70423          	sb	a5,1928(a4) # 8000b358 <_ZGVZN11BuddySystem11getInstanceEPviE2bs>
        BuddySystem::getInstance().buddyFree((size_t)prev);
    80003bd8:	00090593          	mv	a1,s2
    80003bdc:	00007517          	auipc	a0,0x7
    80003be0:	78450513          	addi	a0,a0,1924 # 8000b360 <_ZZN11BuddySystem11getInstanceEPviE2bs>
    80003be4:	ffffe097          	auipc	ra,0xffffe
    80003be8:	2f0080e7          	jalr	752(ra) # 80001ed4 <_ZN11BuddySystem9buddyFreeEm>
        tmp = tmp->next;
    80003bec:	00098913          	mv	s2,s3
    while (tmp) {
    80003bf0:	02090863          	beqz	s2,80003c20 <_ZN12kmem_cache_s18kmem_cache_destroyEm+0x100>
        tmp = tmp->next;
    80003bf4:	00893983          	ld	s3,8(s2)
        prev->clear_slab((int)num, (int)objsize, dtor);
    80003bf8:	0504b683          	ld	a3,80(s1)
    80003bfc:	0304a603          	lw	a2,48(s1)
    80003c00:	0384a583          	lw	a1,56(s1)
    80003c04:	00090513          	mv	a0,s2
    80003c08:	00000097          	auipc	ra,0x0
    80003c0c:	e84080e7          	jalr	-380(ra) # 80003a8c <_ZN4Slab10clear_slabEiiPFvPvE>
    80003c10:	00007797          	auipc	a5,0x7
    80003c14:	7487c783          	lbu	a5,1864(a5) # 8000b358 <_ZGVZN11BuddySystem11getInstanceEPviE2bs>
    80003c18:	fc0790e3          	bnez	a5,80003bd8 <_ZN12kmem_cache_s18kmem_cache_destroyEm+0xb8>
    80003c1c:	fa1ff06f          	j	80003bbc <_ZN12kmem_cache_s18kmem_cache_destroyEm+0x9c>
    prev = nullptr; tmp = this->slabs_free;
    80003c20:	0104b903          	ld	s2,16(s1)
    80003c24:	0380006f          	j	80003c5c <_ZN12kmem_cache_s18kmem_cache_destroyEm+0x13c>
    80003c28:	00007517          	auipc	a0,0x7
    80003c2c:	73850513          	addi	a0,a0,1848 # 8000b360 <_ZZN11BuddySystem11getInstanceEPviE2bs>
    80003c30:	ffffe097          	auipc	ra,0xffffe
    80003c34:	fa4080e7          	jalr	-92(ra) # 80001bd4 <_ZN11BuddySystemC1Ev>
    80003c38:	00100793          	li	a5,1
    80003c3c:	00007717          	auipc	a4,0x7
    80003c40:	70f70e23          	sb	a5,1820(a4) # 8000b358 <_ZGVZN11BuddySystem11getInstanceEPviE2bs>
        BuddySystem::getInstance().buddyFree((size_t)prev);
    80003c44:	00090593          	mv	a1,s2
    80003c48:	00007517          	auipc	a0,0x7
    80003c4c:	71850513          	addi	a0,a0,1816 # 8000b360 <_ZZN11BuddySystem11getInstanceEPviE2bs>
    80003c50:	ffffe097          	auipc	ra,0xffffe
    80003c54:	284080e7          	jalr	644(ra) # 80001ed4 <_ZN11BuddySystem9buddyFreeEm>
        tmp = tmp->next;
    80003c58:	00098913          	mv	s2,s3
    while (tmp) {
    80003c5c:	02090863          	beqz	s2,80003c8c <_ZN12kmem_cache_s18kmem_cache_destroyEm+0x16c>
        tmp = tmp->next;
    80003c60:	00893983          	ld	s3,8(s2)
        prev->clear_slab((int)num, (int)objsize, dtor);
    80003c64:	0504b683          	ld	a3,80(s1)
    80003c68:	0304a603          	lw	a2,48(s1)
    80003c6c:	0384a583          	lw	a1,56(s1)
    80003c70:	00090513          	mv	a0,s2
    80003c74:	00000097          	auipc	ra,0x0
    80003c78:	e18080e7          	jalr	-488(ra) # 80003a8c <_ZN4Slab10clear_slabEiiPFvPvE>
    80003c7c:	00007797          	auipc	a5,0x7
    80003c80:	6dc7c783          	lbu	a5,1756(a5) # 8000b358 <_ZGVZN11BuddySystem11getInstanceEPviE2bs>
    80003c84:	fc0790e3          	bnez	a5,80003c44 <_ZN12kmem_cache_s18kmem_cache_destroyEm+0x124>
    80003c88:	fa1ff06f          	j	80003c28 <_ZN12kmem_cache_s18kmem_cache_destroyEm+0x108>
    kmem_cache_s* cache = kmem_cache_s::head, *prev_cache = nullptr;
    80003c8c:	00007797          	auipc	a5,0x7
    80003c90:	6c47b783          	ld	a5,1732(a5) # 8000b350 <_ZN12kmem_cache_s4headE>
    80003c94:	02c0006f          	j	80003cc0 <_ZN12kmem_cache_s18kmem_cache_destroyEm+0x1a0>
    80003c98:	00007517          	auipc	a0,0x7
    80003c9c:	6c850513          	addi	a0,a0,1736 # 8000b360 <_ZZN11BuddySystem11getInstanceEPviE2bs>
    80003ca0:	ffffe097          	auipc	ra,0xffffe
    80003ca4:	f34080e7          	jalr	-204(ra) # 80001bd4 <_ZN11BuddySystemC1Ev>
    80003ca8:	00100793          	li	a5,1
    80003cac:	00007717          	auipc	a4,0x7
    80003cb0:	6af70623          	sb	a5,1708(a4) # 8000b358 <_ZGVZN11BuddySystem11getInstanceEPviE2bs>
    80003cb4:	0340006f          	j	80003ce8 <_ZN12kmem_cache_s18kmem_cache_destroyEm+0x1c8>
        prev_cache = cache;
    80003cb8:	00078913          	mv	s2,a5
        cache = cache->next;
    80003cbc:	0607b783          	ld	a5,96(a5)
    while(cache){
    80003cc0:	04078263          	beqz	a5,80003d04 <_ZN12kmem_cache_s18kmem_cache_destroyEm+0x1e4>
        if((size_t)cache == addr){
    80003cc4:	00078493          	mv	s1,a5
    80003cc8:	ff4798e3          	bne	a5,s4,80003cb8 <_ZN12kmem_cache_s18kmem_cache_destroyEm+0x198>
            if(prev_cache){
    80003ccc:	fe0906e3          	beqz	s2,80003cb8 <_ZN12kmem_cache_s18kmem_cache_destroyEm+0x198>
                prev_cache->next = cache->next;
    80003cd0:	0607b703          	ld	a4,96(a5)
    80003cd4:	06e93023          	sd	a4,96(s2)
                cache->next = nullptr;
    80003cd8:	0607b023          	sd	zero,96(a5)
    80003cdc:	00007797          	auipc	a5,0x7
    80003ce0:	67c7c783          	lbu	a5,1660(a5) # 8000b358 <_ZGVZN11BuddySystem11getInstanceEPviE2bs>
    80003ce4:	fa078ae3          	beqz	a5,80003c98 <_ZN12kmem_cache_s18kmem_cache_destroyEm+0x178>
                BuddySystem::getInstance().buddyFree((size_t)cache);
    80003ce8:	00048593          	mv	a1,s1
    80003cec:	00007517          	auipc	a0,0x7
    80003cf0:	67450513          	addi	a0,a0,1652 # 8000b360 <_ZZN11BuddySystem11getInstanceEPviE2bs>
    80003cf4:	ffffe097          	auipc	ra,0xffffe
    80003cf8:	1e0080e7          	jalr	480(ra) # 80001ed4 <_ZN11BuddySystem9buddyFreeEm>
                return 0;
    80003cfc:	00000513          	li	a0,0
    80003d00:	0080006f          	j	80003d08 <_ZN12kmem_cache_s18kmem_cache_destroyEm+0x1e8>
    return -1;
    80003d04:	fff00513          	li	a0,-1
}
    80003d08:	02813083          	ld	ra,40(sp)
    80003d0c:	02013403          	ld	s0,32(sp)
    80003d10:	01813483          	ld	s1,24(sp)
    80003d14:	01013903          	ld	s2,16(sp)
    80003d18:	00813983          	ld	s3,8(sp)
    80003d1c:	00013a03          	ld	s4,0(sp)
    80003d20:	03010113          	addi	sp,sp,48
    80003d24:	00008067          	ret

0000000080003d28 <_ZN6Thread11wrapper_runEPv>:
    // sistemski poziv
    abi::sys_call(reinterpret_cast<void *>(empty));

}

void Thread::wrapper_run(void* thread) {
    80003d28:	ff010113          	addi	sp,sp,-16
    80003d2c:	00113423          	sd	ra,8(sp)
    80003d30:	00813023          	sd	s0,0(sp)
    80003d34:	01010413          	addi	s0,sp,16
    ((Thread*)(thread))->run();
    80003d38:	00053783          	ld	a5,0(a0)
    80003d3c:	0107b783          	ld	a5,16(a5)
    80003d40:	000780e7          	jalr	a5
}
    80003d44:	00813083          	ld	ra,8(sp)
    80003d48:	00013403          	ld	s0,0(sp)
    80003d4c:	01010113          	addi	sp,sp,16
    80003d50:	00008067          	ret

0000000080003d54 <_ZN9SemaphoreD1Ev>:

Semaphore::Semaphore(unsigned int init) {
    sem_open(&myHandle, init);
}

Semaphore::~Semaphore() {
    80003d54:	fe010113          	addi	sp,sp,-32
    80003d58:	00113c23          	sd	ra,24(sp)
    80003d5c:	00813823          	sd	s0,16(sp)
    80003d60:	00913423          	sd	s1,8(sp)
    80003d64:	02010413          	addi	s0,sp,32
    80003d68:	00007797          	auipc	a5,0x7
    80003d6c:	46878793          	addi	a5,a5,1128 # 8000b1d0 <_ZTV9Semaphore+0x10>
    80003d70:	00f53023          	sd	a5,0(a0)
    delete (MySemaphore*)myHandle;
    80003d74:	00853483          	ld	s1,8(a0)
    80003d78:	02048863          	beqz	s1,80003da8 <_ZN9SemaphoreD1Ev+0x54>
    ~MySemaphore(){ sem_close(this);}
    80003d7c:	00048513          	mv	a0,s1
    80003d80:	ffffe097          	auipc	ra,0xffffe
    80003d84:	49c080e7          	jalr	1180(ra) # 8000221c <_ZN11MySemaphore9sem_closeEPS_>
    80003d88:	00007797          	auipc	a5,0x7
    80003d8c:	5687c783          	lbu	a5,1384(a5) # 8000b2f0 <_ZGVZN15MemoryAllocator11getInstanceEvE8instance>
    80003d90:	02078663          	beqz	a5,80003dbc <_ZN9SemaphoreD1Ev+0x68>
        uint64 ssize = (n + MEM_BLOCK_SIZE - 1) / MEM_BLOCK_SIZE;
        return MemoryAllocator::getInstance().memory_alloc(ssize);
    }

    void operator delete(void* p)noexcept{
        MemoryAllocator::getInstance().memory_free(p);
    80003d94:	00048593          	mv	a1,s1
    80003d98:	00007517          	auipc	a0,0x7
    80003d9c:	56050513          	addi	a0,a0,1376 # 8000b2f8 <_ZZN15MemoryAllocator11getInstanceEvE8instance>
    80003da0:	00001097          	auipc	ra,0x1
    80003da4:	3f8080e7          	jalr	1016(ra) # 80005198 <_ZN15MemoryAllocator11memory_freeEPv>
}
    80003da8:	01813083          	ld	ra,24(sp)
    80003dac:	01013403          	ld	s0,16(sp)
    80003db0:	00813483          	ld	s1,8(sp)
    80003db4:	02010113          	addi	sp,sp,32
    80003db8:	00008067          	ret
    MemoryAllocator(){
    80003dbc:	00007617          	auipc	a2,0x7
    80003dc0:	53c60613          	addi	a2,a2,1340 # 8000b2f8 <_ZZN15MemoryAllocator11getInstanceEvE8instance>
        heapStart = (size_t)HEAP_START_ADDR + ((size_t)HEAP_END_ADDR - (size_t)HEAP_START_ADDR) / 8 + 1;
    80003dc4:	00007797          	auipc	a5,0x7
    80003dc8:	4d47b783          	ld	a5,1236(a5) # 8000b298 <_GLOBAL_OFFSET_TABLE_+0x68>
    80003dcc:	0007b703          	ld	a4,0(a5)
    80003dd0:	00007797          	auipc	a5,0x7
    80003dd4:	4807b783          	ld	a5,1152(a5) # 8000b250 <_GLOBAL_OFFSET_TABLE_+0x20>
    80003dd8:	0007b783          	ld	a5,0(a5)
    80003ddc:	40f706b3          	sub	a3,a4,a5
    80003de0:	0036d693          	srli	a3,a3,0x3
    80003de4:	00d787b3          	add	a5,a5,a3
    80003de8:	00178793          	addi	a5,a5,1
    80003dec:	00f63423          	sd	a5,8(a2)
        heapEnd = (size_t)HEAP_END_ADDR - 1;
    80003df0:	fff70713          	addi	a4,a4,-1
    80003df4:	00e63823          	sd	a4,16(a2)
        size_t sizeInBlocks = (heapEnd - heapStart) / MEM_BLOCK_SIZE;
    80003df8:	40f70733          	sub	a4,a4,a5
    80003dfc:	00675713          	srli	a4,a4,0x6
        fmem_head = (FreeMem*)(heapStart + ((heapStart % MEM_BLOCK_SIZE != 0)?(MEM_BLOCK_SIZE - heapStart % MEM_BLOCK_SIZE) : 0));
    80003e00:	03f7f693          	andi	a3,a5,63
    80003e04:	00068663          	beqz	a3,80003e10 <_ZN9SemaphoreD1Ev+0xbc>
    80003e08:	04000613          	li	a2,64
    80003e0c:	40d606b3          	sub	a3,a2,a3
    80003e10:	00d787b3          	add	a5,a5,a3
    80003e14:	00007697          	auipc	a3,0x7
    80003e18:	4ef6b223          	sd	a5,1252(a3) # 8000b2f8 <_ZZN15MemoryAllocator11getInstanceEvE8instance>
        fmem_head->next = nullptr;
    80003e1c:	0007b423          	sd	zero,8(a5)
        fmem_head->prev = nullptr;
    80003e20:	0007b823          	sd	zero,16(a5)
        fmem_head->size = sizeInBlocks;
    80003e24:	00e7b023          	sd	a4,0(a5)
        static MemoryAllocator instance;
    80003e28:	00100793          	li	a5,1
    80003e2c:	00007717          	auipc	a4,0x7
    80003e30:	4cf70223          	sb	a5,1220(a4) # 8000b2f0 <_ZGVZN15MemoryAllocator11getInstanceEvE8instance>
    80003e34:	f61ff06f          	j	80003d94 <_ZN9SemaphoreD1Ev+0x40>

0000000080003e38 <_ZN6ThreadD1Ev>:
Thread::~Thread() {
    80003e38:	fe010113          	addi	sp,sp,-32
    80003e3c:	00113c23          	sd	ra,24(sp)
    80003e40:	00813823          	sd	s0,16(sp)
    80003e44:	00913423          	sd	s1,8(sp)
    80003e48:	02010413          	addi	s0,sp,32
    80003e4c:	00007797          	auipc	a5,0x7
    80003e50:	35c78793          	addi	a5,a5,860 # 8000b1a8 <_ZTV6Thread+0x10>
    80003e54:	00f53023          	sd	a5,0(a0)
    delete (TCB*)(myHandle);
    80003e58:	00853483          	ld	s1,8(a0)
    80003e5c:	04048263          	beqz	s1,80003ea0 <_ZN6ThreadD1Ev+0x68>
    80003e60:	00007797          	auipc	a5,0x7
    80003e64:	4907c783          	lbu	a5,1168(a5) # 8000b2f0 <_ZGVZN15MemoryAllocator11getInstanceEvE8instance>
    80003e68:	04078663          	beqz	a5,80003eb4 <_ZN6ThreadD1Ev+0x7c>

class TCB{
public:

    ~TCB(){
        MemoryAllocator::getInstance().memory_free((void*)stack);
    80003e6c:	0104b583          	ld	a1,16(s1)
    80003e70:	00007517          	auipc	a0,0x7
    80003e74:	48850513          	addi	a0,a0,1160 # 8000b2f8 <_ZZN15MemoryAllocator11getInstanceEvE8instance>
    80003e78:	00001097          	auipc	ra,0x1
    80003e7c:	320080e7          	jalr	800(ra) # 80005198 <_ZN15MemoryAllocator11memory_freeEPv>
    80003e80:	00007797          	auipc	a5,0x7
    80003e84:	4707c783          	lbu	a5,1136(a5) # 8000b2f0 <_ZGVZN15MemoryAllocator11getInstanceEvE8instance>
    80003e88:	0a078463          	beqz	a5,80003f30 <_ZN6ThreadD1Ev+0xf8>
        uint64 ssize = (n + MEM_BLOCK_SIZE - 1) / MEM_BLOCK_SIZE;
        return MemoryAllocator::getInstance().memory_alloc(ssize);
    }

    void operator delete(void* p)noexcept{
        MemoryAllocator::getInstance().memory_free(p);
    80003e8c:	00048593          	mv	a1,s1
    80003e90:	00007517          	auipc	a0,0x7
    80003e94:	46850513          	addi	a0,a0,1128 # 8000b2f8 <_ZZN15MemoryAllocator11getInstanceEvE8instance>
    80003e98:	00001097          	auipc	ra,0x1
    80003e9c:	300080e7          	jalr	768(ra) # 80005198 <_ZN15MemoryAllocator11memory_freeEPv>
}
    80003ea0:	01813083          	ld	ra,24(sp)
    80003ea4:	01013403          	ld	s0,16(sp)
    80003ea8:	00813483          	ld	s1,8(sp)
    80003eac:	02010113          	addi	sp,sp,32
    80003eb0:	00008067          	ret
    MemoryAllocator(){
    80003eb4:	00007617          	auipc	a2,0x7
    80003eb8:	44460613          	addi	a2,a2,1092 # 8000b2f8 <_ZZN15MemoryAllocator11getInstanceEvE8instance>
        heapStart = (size_t)HEAP_START_ADDR + ((size_t)HEAP_END_ADDR - (size_t)HEAP_START_ADDR) / 8 + 1;
    80003ebc:	00007797          	auipc	a5,0x7
    80003ec0:	3dc7b783          	ld	a5,988(a5) # 8000b298 <_GLOBAL_OFFSET_TABLE_+0x68>
    80003ec4:	0007b703          	ld	a4,0(a5)
    80003ec8:	00007797          	auipc	a5,0x7
    80003ecc:	3887b783          	ld	a5,904(a5) # 8000b250 <_GLOBAL_OFFSET_TABLE_+0x20>
    80003ed0:	0007b783          	ld	a5,0(a5)
    80003ed4:	40f706b3          	sub	a3,a4,a5
    80003ed8:	0036d693          	srli	a3,a3,0x3
    80003edc:	00d787b3          	add	a5,a5,a3
    80003ee0:	00178793          	addi	a5,a5,1
    80003ee4:	00f63423          	sd	a5,8(a2)
        heapEnd = (size_t)HEAP_END_ADDR - 1;
    80003ee8:	fff70713          	addi	a4,a4,-1
    80003eec:	00e63823          	sd	a4,16(a2)
        size_t sizeInBlocks = (heapEnd - heapStart) / MEM_BLOCK_SIZE;
    80003ef0:	40f70733          	sub	a4,a4,a5
    80003ef4:	00675713          	srli	a4,a4,0x6
        fmem_head = (FreeMem*)(heapStart + ((heapStart % MEM_BLOCK_SIZE != 0)?(MEM_BLOCK_SIZE - heapStart % MEM_BLOCK_SIZE) : 0));
    80003ef8:	03f7f693          	andi	a3,a5,63
    80003efc:	00068663          	beqz	a3,80003f08 <_ZN6ThreadD1Ev+0xd0>
    80003f00:	04000613          	li	a2,64
    80003f04:	40d606b3          	sub	a3,a2,a3
    80003f08:	00d787b3          	add	a5,a5,a3
    80003f0c:	00007697          	auipc	a3,0x7
    80003f10:	3ef6b623          	sd	a5,1004(a3) # 8000b2f8 <_ZZN15MemoryAllocator11getInstanceEvE8instance>
        fmem_head->next = nullptr;
    80003f14:	0007b423          	sd	zero,8(a5)
        fmem_head->prev = nullptr;
    80003f18:	0007b823          	sd	zero,16(a5)
        fmem_head->size = sizeInBlocks;
    80003f1c:	00e7b023          	sd	a4,0(a5)
        static MemoryAllocator instance;
    80003f20:	00100793          	li	a5,1
    80003f24:	00007717          	auipc	a4,0x7
    80003f28:	3cf70623          	sb	a5,972(a4) # 8000b2f0 <_ZGVZN15MemoryAllocator11getInstanceEvE8instance>
    80003f2c:	f41ff06f          	j	80003e6c <_ZN6ThreadD1Ev+0x34>
    MemoryAllocator(){
    80003f30:	00007617          	auipc	a2,0x7
    80003f34:	3c860613          	addi	a2,a2,968 # 8000b2f8 <_ZZN15MemoryAllocator11getInstanceEvE8instance>
        heapStart = (size_t)HEAP_START_ADDR + ((size_t)HEAP_END_ADDR - (size_t)HEAP_START_ADDR) / 8 + 1;
    80003f38:	00007797          	auipc	a5,0x7
    80003f3c:	3607b783          	ld	a5,864(a5) # 8000b298 <_GLOBAL_OFFSET_TABLE_+0x68>
    80003f40:	0007b703          	ld	a4,0(a5)
    80003f44:	00007797          	auipc	a5,0x7
    80003f48:	30c7b783          	ld	a5,780(a5) # 8000b250 <_GLOBAL_OFFSET_TABLE_+0x20>
    80003f4c:	0007b783          	ld	a5,0(a5)
    80003f50:	40f706b3          	sub	a3,a4,a5
    80003f54:	0036d693          	srli	a3,a3,0x3
    80003f58:	00d787b3          	add	a5,a5,a3
    80003f5c:	00178793          	addi	a5,a5,1
    80003f60:	00f63423          	sd	a5,8(a2)
        heapEnd = (size_t)HEAP_END_ADDR - 1;
    80003f64:	fff70713          	addi	a4,a4,-1
    80003f68:	00e63823          	sd	a4,16(a2)
        size_t sizeInBlocks = (heapEnd - heapStart) / MEM_BLOCK_SIZE;
    80003f6c:	40f70733          	sub	a4,a4,a5
    80003f70:	00675713          	srli	a4,a4,0x6
        fmem_head = (FreeMem*)(heapStart + ((heapStart % MEM_BLOCK_SIZE != 0)?(MEM_BLOCK_SIZE - heapStart % MEM_BLOCK_SIZE) : 0));
    80003f74:	03f7f693          	andi	a3,a5,63
    80003f78:	00068663          	beqz	a3,80003f84 <_ZN6ThreadD1Ev+0x14c>
    80003f7c:	04000613          	li	a2,64
    80003f80:	40d606b3          	sub	a3,a2,a3
    80003f84:	00d787b3          	add	a5,a5,a3
    80003f88:	00007697          	auipc	a3,0x7
    80003f8c:	36f6b823          	sd	a5,880(a3) # 8000b2f8 <_ZZN15MemoryAllocator11getInstanceEvE8instance>
        fmem_head->next = nullptr;
    80003f90:	0007b423          	sd	zero,8(a5)
        fmem_head->prev = nullptr;
    80003f94:	0007b823          	sd	zero,16(a5)
        fmem_head->size = sizeInBlocks;
    80003f98:	00e7b023          	sd	a4,0(a5)
        static MemoryAllocator instance;
    80003f9c:	00100793          	li	a5,1
    80003fa0:	00007717          	auipc	a4,0x7
    80003fa4:	34f70823          	sb	a5,848(a4) # 8000b2f0 <_ZGVZN15MemoryAllocator11getInstanceEvE8instance>
    80003fa8:	ee5ff06f          	j	80003e8c <_ZN6ThreadD1Ev+0x54>

0000000080003fac <_Znwm>:
void* operator new(size_t n) {
    80003fac:	ff010113          	addi	sp,sp,-16
    80003fb0:	00113423          	sd	ra,8(sp)
    80003fb4:	00813023          	sd	s0,0(sp)
    80003fb8:	01010413          	addi	s0,sp,16
    return mem_alloc(n);
    80003fbc:	ffffd097          	auipc	ra,0xffffd
    80003fc0:	288080e7          	jalr	648(ra) # 80001244 <mem_alloc>
}
    80003fc4:	00813083          	ld	ra,8(sp)
    80003fc8:	00013403          	ld	s0,0(sp)
    80003fcc:	01010113          	addi	sp,sp,16
    80003fd0:	00008067          	ret

0000000080003fd4 <_Znam>:
void* operator new[](size_t n) {
    80003fd4:	ff010113          	addi	sp,sp,-16
    80003fd8:	00113423          	sd	ra,8(sp)
    80003fdc:	00813023          	sd	s0,0(sp)
    80003fe0:	01010413          	addi	s0,sp,16
    return mem_alloc(n);
    80003fe4:	ffffd097          	auipc	ra,0xffffd
    80003fe8:	260080e7          	jalr	608(ra) # 80001244 <mem_alloc>
}
    80003fec:	00813083          	ld	ra,8(sp)
    80003ff0:	00013403          	ld	s0,0(sp)
    80003ff4:	01010113          	addi	sp,sp,16
    80003ff8:	00008067          	ret

0000000080003ffc <_ZdlPv>:
void operator delete(void* ptr) {
    80003ffc:	ff010113          	addi	sp,sp,-16
    80004000:	00113423          	sd	ra,8(sp)
    80004004:	00813023          	sd	s0,0(sp)
    80004008:	01010413          	addi	s0,sp,16
    mem_free(ptr);
    8000400c:	ffffd097          	auipc	ra,0xffffd
    80004010:	290080e7          	jalr	656(ra) # 8000129c <mem_free>
}
    80004014:	00813083          	ld	ra,8(sp)
    80004018:	00013403          	ld	s0,0(sp)
    8000401c:	01010113          	addi	sp,sp,16
    80004020:	00008067          	ret

0000000080004024 <_ZN6ThreadD0Ev>:
Thread::~Thread() {
    80004024:	fe010113          	addi	sp,sp,-32
    80004028:	00113c23          	sd	ra,24(sp)
    8000402c:	00813823          	sd	s0,16(sp)
    80004030:	00913423          	sd	s1,8(sp)
    80004034:	02010413          	addi	s0,sp,32
    80004038:	00050493          	mv	s1,a0
}
    8000403c:	00000097          	auipc	ra,0x0
    80004040:	dfc080e7          	jalr	-516(ra) # 80003e38 <_ZN6ThreadD1Ev>
    80004044:	00048513          	mv	a0,s1
    80004048:	00000097          	auipc	ra,0x0
    8000404c:	fb4080e7          	jalr	-76(ra) # 80003ffc <_ZdlPv>
    80004050:	01813083          	ld	ra,24(sp)
    80004054:	01013403          	ld	s0,16(sp)
    80004058:	00813483          	ld	s1,8(sp)
    8000405c:	02010113          	addi	sp,sp,32
    80004060:	00008067          	ret

0000000080004064 <_ZN9SemaphoreD0Ev>:
Semaphore::~Semaphore() {
    80004064:	fe010113          	addi	sp,sp,-32
    80004068:	00113c23          	sd	ra,24(sp)
    8000406c:	00813823          	sd	s0,16(sp)
    80004070:	00913423          	sd	s1,8(sp)
    80004074:	02010413          	addi	s0,sp,32
    80004078:	00050493          	mv	s1,a0
}
    8000407c:	00000097          	auipc	ra,0x0
    80004080:	cd8080e7          	jalr	-808(ra) # 80003d54 <_ZN9SemaphoreD1Ev>
    80004084:	00048513          	mv	a0,s1
    80004088:	00000097          	auipc	ra,0x0
    8000408c:	f74080e7          	jalr	-140(ra) # 80003ffc <_ZdlPv>
    80004090:	01813083          	ld	ra,24(sp)
    80004094:	01013403          	ld	s0,16(sp)
    80004098:	00813483          	ld	s1,8(sp)
    8000409c:	02010113          	addi	sp,sp,32
    800040a0:	00008067          	ret

00000000800040a4 <_ZdaPv>:
void operator delete[](void* ptr) {
    800040a4:	ff010113          	addi	sp,sp,-16
    800040a8:	00113423          	sd	ra,8(sp)
    800040ac:	00813023          	sd	s0,0(sp)
    800040b0:	01010413          	addi	s0,sp,16
    mem_free(ptr);
    800040b4:	ffffd097          	auipc	ra,0xffffd
    800040b8:	1e8080e7          	jalr	488(ra) # 8000129c <mem_free>
}
    800040bc:	00813083          	ld	ra,8(sp)
    800040c0:	00013403          	ld	s0,0(sp)
    800040c4:	01010113          	addi	sp,sp,16
    800040c8:	00008067          	ret

00000000800040cc <_ZN6ThreadC1EPFvPvES0_>:
Thread::Thread(void (*body)(void*), void *arg) {
    800040cc:	f9010113          	addi	sp,sp,-112
    800040d0:	06113423          	sd	ra,104(sp)
    800040d4:	06813023          	sd	s0,96(sp)
    800040d8:	04913c23          	sd	s1,88(sp)
    800040dc:	05213823          	sd	s2,80(sp)
    800040e0:	05313423          	sd	s3,72(sp)
    800040e4:	07010413          	addi	s0,sp,112
    800040e8:	00050493          	mv	s1,a0
    800040ec:	00058913          	mv	s2,a1
    800040f0:	00060993          	mv	s3,a2
    800040f4:	00007797          	auipc	a5,0x7
    800040f8:	0b478793          	addi	a5,a5,180 # 8000b1a8 <_ZTV6Thread+0x10>
    800040fc:	00f53023          	sd	a5,0(a0)
    uint64 a4 = (body != nullptr) ? (uint64)mem_alloc(DEFAULT_STACK_SIZE) : 0;
    80004100:	06058063          	beqz	a1,80004160 <_ZN6ThreadC1EPFvPvES0_+0x94>
    80004104:	00001537          	lui	a0,0x1
    80004108:	ffffd097          	auipc	ra,0xffffd
    8000410c:	13c080e7          	jalr	316(ra) # 80001244 <mem_alloc>
    a1 = (uint64)&myHandle;
    80004110:	00848493          	addi	s1,s1,8
    uint64 empty[8]= {a0, a1, a2, a3, a4, a5, a6, a7};
    80004114:	01100793          	li	a5,17
    80004118:	f8f43823          	sd	a5,-112(s0)
    8000411c:	f8943c23          	sd	s1,-104(s0)
    80004120:	fb243023          	sd	s2,-96(s0)
    80004124:	fb343423          	sd	s3,-88(s0)
    80004128:	faa43823          	sd	a0,-80(s0)
    8000412c:	fa043c23          	sd	zero,-72(s0)
    80004130:	fc043023          	sd	zero,-64(s0)
    80004134:	fc043423          	sd	zero,-56(s0)
    abi::sys_call(reinterpret_cast<void *>(empty));
    80004138:	f9040513          	addi	a0,s0,-112
    8000413c:	00001097          	auipc	ra,0x1
    80004140:	1e4080e7          	jalr	484(ra) # 80005320 <_ZN3abi8sys_callEPv>
}
    80004144:	06813083          	ld	ra,104(sp)
    80004148:	06013403          	ld	s0,96(sp)
    8000414c:	05813483          	ld	s1,88(sp)
    80004150:	05013903          	ld	s2,80(sp)
    80004154:	04813983          	ld	s3,72(sp)
    80004158:	07010113          	addi	sp,sp,112
    8000415c:	00008067          	ret
    uint64 a4 = (body != nullptr) ? (uint64)mem_alloc(DEFAULT_STACK_SIZE) : 0;
    80004160:	00000513          	li	a0,0
    80004164:	fadff06f          	j	80004110 <_ZN6ThreadC1EPFvPvES0_+0x44>

0000000080004168 <_ZN6Thread5startEv>:
int Thread::start() {
    80004168:	ff010113          	addi	sp,sp,-16
    8000416c:	00113423          	sd	ra,8(sp)
    80004170:	00813023          	sd	s0,0(sp)
    80004174:	01010413          	addi	s0,sp,16
    put_in_scheduler(myHandle);
    80004178:	00853503          	ld	a0,8(a0) # 1008 <_entry-0x7fffeff8>
    8000417c:	ffffd097          	auipc	ra,0xffffd
    80004180:	500080e7          	jalr	1280(ra) # 8000167c <put_in_scheduler>
}
    80004184:	00000513          	li	a0,0
    80004188:	00813083          	ld	ra,8(sp)
    8000418c:	00013403          	ld	s0,0(sp)
    80004190:	01010113          	addi	sp,sp,16
    80004194:	00008067          	ret

0000000080004198 <_ZN6Thread8dispatchEv>:
void Thread::dispatch() {
    80004198:	ff010113          	addi	sp,sp,-16
    8000419c:	00113423          	sd	ra,8(sp)
    800041a0:	00813023          	sd	s0,0(sp)
    800041a4:	01010413          	addi	s0,sp,16
    thread_dispatch();
    800041a8:	ffffd097          	auipc	ra,0xffffd
    800041ac:	1dc080e7          	jalr	476(ra) # 80001384 <thread_dispatch>
}
    800041b0:	00813083          	ld	ra,8(sp)
    800041b4:	00013403          	ld	s0,0(sp)
    800041b8:	01010113          	addi	sp,sp,16
    800041bc:	00008067          	ret

00000000800041c0 <_ZN6Thread5sleepEm>:
int Thread::sleep(time_t time) {
    800041c0:	ff010113          	addi	sp,sp,-16
    800041c4:	00113423          	sd	ra,8(sp)
    800041c8:	00813023          	sd	s0,0(sp)
    800041cc:	01010413          	addi	s0,sp,16
    return time_sleep(time);
    800041d0:	ffffd097          	auipc	ra,0xffffd
    800041d4:	258080e7          	jalr	600(ra) # 80001428 <time_sleep>
}
    800041d8:	00813083          	ld	ra,8(sp)
    800041dc:	00013403          	ld	s0,0(sp)
    800041e0:	01010113          	addi	sp,sp,16
    800041e4:	00008067          	ret

00000000800041e8 <_ZN14PeriodicThread3runEv>:
    time = period;
    flag_stop = true;
    set_periodic((thread_t)this);
}

void PeriodicThread::run() {
    800041e8:	fe010113          	addi	sp,sp,-32
    800041ec:	00113c23          	sd	ra,24(sp)
    800041f0:	00813823          	sd	s0,16(sp)
    800041f4:	00913423          	sd	s1,8(sp)
    800041f8:	02010413          	addi	s0,sp,32
    800041fc:	00050493          	mv	s1,a0
    while(flag_stop){
    80004200:	0184c783          	lbu	a5,24(s1)
    80004204:	02078263          	beqz	a5,80004228 <_ZN14PeriodicThread3runEv+0x40>
        periodicActivation();
    80004208:	0004b783          	ld	a5,0(s1)
    8000420c:	0187b783          	ld	a5,24(a5)
    80004210:	00048513          	mv	a0,s1
    80004214:	000780e7          	jalr	a5
        sleep(time);
    80004218:	0104b503          	ld	a0,16(s1)
    8000421c:	00000097          	auipc	ra,0x0
    80004220:	fa4080e7          	jalr	-92(ra) # 800041c0 <_ZN6Thread5sleepEm>
    while(flag_stop){
    80004224:	fddff06f          	j	80004200 <_ZN14PeriodicThread3runEv+0x18>
    }
}
    80004228:	01813083          	ld	ra,24(sp)
    8000422c:	01013403          	ld	s0,16(sp)
    80004230:	00813483          	ld	s1,8(sp)
    80004234:	02010113          	addi	sp,sp,32
    80004238:	00008067          	ret

000000008000423c <_ZN6ThreadC1Ev>:
Thread::Thread() {
    8000423c:	fa010113          	addi	sp,sp,-96
    80004240:	04113c23          	sd	ra,88(sp)
    80004244:	04813823          	sd	s0,80(sp)
    80004248:	04913423          	sd	s1,72(sp)
    8000424c:	06010413          	addi	s0,sp,96
    80004250:	00050493          	mv	s1,a0
    80004254:	00007797          	auipc	a5,0x7
    80004258:	f5478793          	addi	a5,a5,-172 # 8000b1a8 <_ZTV6Thread+0x10>
    8000425c:	00f53023          	sd	a5,0(a0)
    uint64 a4 = (uint64)mem_alloc(DEFAULT_STACK_SIZE);
    80004260:	00001537          	lui	a0,0x1
    80004264:	ffffd097          	auipc	ra,0xffffd
    80004268:	fe0080e7          	jalr	-32(ra) # 80001244 <mem_alloc>
    a1 = (uint64)&myHandle;
    8000426c:	00848793          	addi	a5,s1,8
    uint64 empty[8]= {a0, a1, a2, a3, a4, a5, a6, a7};
    80004270:	01100713          	li	a4,17
    80004274:	fae43023          	sd	a4,-96(s0)
    80004278:	faf43423          	sd	a5,-88(s0)
    8000427c:	00000797          	auipc	a5,0x0
    80004280:	aac78793          	addi	a5,a5,-1364 # 80003d28 <_ZN6Thread11wrapper_runEPv>
    80004284:	faf43823          	sd	a5,-80(s0)
    80004288:	fa943c23          	sd	s1,-72(s0)
    8000428c:	fca43023          	sd	a0,-64(s0)
    80004290:	fc043423          	sd	zero,-56(s0)
    80004294:	fc043823          	sd	zero,-48(s0)
    80004298:	fc043c23          	sd	zero,-40(s0)
    abi::sys_call(reinterpret_cast<void *>(empty));
    8000429c:	fa040513          	addi	a0,s0,-96
    800042a0:	00001097          	auipc	ra,0x1
    800042a4:	080080e7          	jalr	128(ra) # 80005320 <_ZN3abi8sys_callEPv>
}
    800042a8:	05813083          	ld	ra,88(sp)
    800042ac:	05013403          	ld	s0,80(sp)
    800042b0:	04813483          	ld	s1,72(sp)
    800042b4:	06010113          	addi	sp,sp,96
    800042b8:	00008067          	ret

00000000800042bc <_ZN9SemaphoreC1Ej>:
Semaphore::Semaphore(unsigned int init) {
    800042bc:	ff010113          	addi	sp,sp,-16
    800042c0:	00113423          	sd	ra,8(sp)
    800042c4:	00813023          	sd	s0,0(sp)
    800042c8:	01010413          	addi	s0,sp,16
    800042cc:	00007797          	auipc	a5,0x7
    800042d0:	f0478793          	addi	a5,a5,-252 # 8000b1d0 <_ZTV9Semaphore+0x10>
    800042d4:	00f53023          	sd	a5,0(a0) # 1000 <_entry-0x7ffff000>
    sem_open(&myHandle, init);
    800042d8:	02059593          	slli	a1,a1,0x20
    800042dc:	0205d593          	srli	a1,a1,0x20
    800042e0:	00850513          	addi	a0,a0,8
    800042e4:	ffffd097          	auipc	ra,0xffffd
    800042e8:	1a4080e7          	jalr	420(ra) # 80001488 <sem_open>
}
    800042ec:	00813083          	ld	ra,8(sp)
    800042f0:	00013403          	ld	s0,0(sp)
    800042f4:	01010113          	addi	sp,sp,16
    800042f8:	00008067          	ret

00000000800042fc <_ZN9Semaphore4waitEv>:
int Semaphore::wait() {
    800042fc:	ff010113          	addi	sp,sp,-16
    80004300:	00113423          	sd	ra,8(sp)
    80004304:	00813023          	sd	s0,0(sp)
    80004308:	01010413          	addi	s0,sp,16
    return sem_wait(myHandle);
    8000430c:	00853503          	ld	a0,8(a0)
    80004310:	ffffd097          	auipc	ra,0xffffd
    80004314:	220080e7          	jalr	544(ra) # 80001530 <sem_wait>
}
    80004318:	00813083          	ld	ra,8(sp)
    8000431c:	00013403          	ld	s0,0(sp)
    80004320:	01010113          	addi	sp,sp,16
    80004324:	00008067          	ret

0000000080004328 <_ZN9Semaphore6signalEv>:
int Semaphore::signal() {
    80004328:	ff010113          	addi	sp,sp,-16
    8000432c:	00113423          	sd	ra,8(sp)
    80004330:	00813023          	sd	s0,0(sp)
    80004334:	01010413          	addi	s0,sp,16
    return sem_signal(myHandle);
    80004338:	00853503          	ld	a0,8(a0)
    8000433c:	ffffd097          	auipc	ra,0xffffd
    80004340:	248080e7          	jalr	584(ra) # 80001584 <sem_signal>
}
    80004344:	00813083          	ld	ra,8(sp)
    80004348:	00013403          	ld	s0,0(sp)
    8000434c:	01010113          	addi	sp,sp,16
    80004350:	00008067          	ret

0000000080004354 <_ZN7Console4getcEv>:
char Console::getc() {
    80004354:	ff010113          	addi	sp,sp,-16
    80004358:	00113423          	sd	ra,8(sp)
    8000435c:	00813023          	sd	s0,0(sp)
    80004360:	01010413          	addi	s0,sp,16
    return ::getc();
    80004364:	ffffd097          	auipc	ra,0xffffd
    80004368:	274080e7          	jalr	628(ra) # 800015d8 <getc>
}
    8000436c:	00813083          	ld	ra,8(sp)
    80004370:	00013403          	ld	s0,0(sp)
    80004374:	01010113          	addi	sp,sp,16
    80004378:	00008067          	ret

000000008000437c <_ZN7Console4putcEc>:
void Console::putc(char c) {
    8000437c:	ff010113          	addi	sp,sp,-16
    80004380:	00113423          	sd	ra,8(sp)
    80004384:	00813023          	sd	s0,0(sp)
    80004388:	01010413          	addi	s0,sp,16
    ::putc(c);
    8000438c:	ffffd097          	auipc	ra,0xffffd
    80004390:	2a0080e7          	jalr	672(ra) # 8000162c <putc>
}
    80004394:	00813083          	ld	ra,8(sp)
    80004398:	00013403          	ld	s0,0(sp)
    8000439c:	01010113          	addi	sp,sp,16
    800043a0:	00008067          	ret

00000000800043a4 <_ZN14PeriodicThreadC1Em>:
PeriodicThread::PeriodicThread(time_t period) {
    800043a4:	fe010113          	addi	sp,sp,-32
    800043a8:	00113c23          	sd	ra,24(sp)
    800043ac:	00813823          	sd	s0,16(sp)
    800043b0:	00913423          	sd	s1,8(sp)
    800043b4:	01213023          	sd	s2,0(sp)
    800043b8:	02010413          	addi	s0,sp,32
    800043bc:	00050493          	mv	s1,a0
    800043c0:	00058913          	mv	s2,a1
    800043c4:	00000097          	auipc	ra,0x0
    800043c8:	e78080e7          	jalr	-392(ra) # 8000423c <_ZN6ThreadC1Ev>
    800043cc:	00007797          	auipc	a5,0x7
    800043d0:	e2478793          	addi	a5,a5,-476 # 8000b1f0 <_ZTV14PeriodicThread+0x10>
    800043d4:	00f4b023          	sd	a5,0(s1)
    800043d8:	00007717          	auipc	a4,0x7
    800043dc:	0e070713          	addi	a4,a4,224 # 8000b4b8 <_ZN14PeriodicThread2IDE>
    800043e0:	00073783          	ld	a5,0(a4)
    800043e4:	00178693          	addi	a3,a5,1
    800043e8:	00d73023          	sd	a3,0(a4)
    800043ec:	02f4b023          	sd	a5,32(s1)
    time = period;
    800043f0:	0124b823          	sd	s2,16(s1)
    flag_stop = true;
    800043f4:	00100793          	li	a5,1
    800043f8:	00f48c23          	sb	a5,24(s1)
    set_periodic((thread_t)this);
    800043fc:	00048513          	mv	a0,s1
    80004400:	ffffd097          	auipc	ra,0xffffd
    80004404:	36c080e7          	jalr	876(ra) # 8000176c <set_periodic>
    80004408:	0200006f          	j	80004428 <_ZN14PeriodicThreadC1Em+0x84>
    8000440c:	00050913          	mv	s2,a0
PeriodicThread::PeriodicThread(time_t period) {
    80004410:	00048513          	mv	a0,s1
    80004414:	00000097          	auipc	ra,0x0
    80004418:	a24080e7          	jalr	-1500(ra) # 80003e38 <_ZN6ThreadD1Ev>
    8000441c:	00090513          	mv	a0,s2
    80004420:	00008097          	auipc	ra,0x8
    80004424:	1d8080e7          	jalr	472(ra) # 8000c5f8 <_Unwind_Resume>
}
    80004428:	01813083          	ld	ra,24(sp)
    8000442c:	01013403          	ld	s0,16(sp)
    80004430:	00813483          	ld	s1,8(sp)
    80004434:	00013903          	ld	s2,0(sp)
    80004438:	02010113          	addi	sp,sp,32
    8000443c:	00008067          	ret

0000000080004440 <_ZN6Thread3runEv>:



protected:
    Thread();
    virtual void run() {}
    80004440:	ff010113          	addi	sp,sp,-16
    80004444:	00813423          	sd	s0,8(sp)
    80004448:	01010413          	addi	s0,sp,16
    8000444c:	00813403          	ld	s0,8(sp)
    80004450:	01010113          	addi	sp,sp,16
    80004454:	00008067          	ret

0000000080004458 <_ZN14PeriodicThread18periodicActivationEv>:
public:
    void stop(){flag_stop = false;}
//    uint64 getId()const{ id; }
protected:
    PeriodicThread(time_t period);
    virtual void periodicActivation(){}
    80004458:	ff010113          	addi	sp,sp,-16
    8000445c:	00813423          	sd	s0,8(sp)
    80004460:	01010413          	addi	s0,sp,16
    80004464:	00813403          	ld	s0,8(sp)
    80004468:	01010113          	addi	sp,sp,16
    8000446c:	00008067          	ret

0000000080004470 <_ZN14PeriodicThreadD1Ev>:
class PeriodicThread : public Thread {
    80004470:	ff010113          	addi	sp,sp,-16
    80004474:	00113423          	sd	ra,8(sp)
    80004478:	00813023          	sd	s0,0(sp)
    8000447c:	01010413          	addi	s0,sp,16
    80004480:	00007797          	auipc	a5,0x7
    80004484:	d7078793          	addi	a5,a5,-656 # 8000b1f0 <_ZTV14PeriodicThread+0x10>
    80004488:	00f53023          	sd	a5,0(a0)
    8000448c:	00000097          	auipc	ra,0x0
    80004490:	9ac080e7          	jalr	-1620(ra) # 80003e38 <_ZN6ThreadD1Ev>
    80004494:	00813083          	ld	ra,8(sp)
    80004498:	00013403          	ld	s0,0(sp)
    8000449c:	01010113          	addi	sp,sp,16
    800044a0:	00008067          	ret

00000000800044a4 <_ZN14PeriodicThreadD0Ev>:
    800044a4:	fe010113          	addi	sp,sp,-32
    800044a8:	00113c23          	sd	ra,24(sp)
    800044ac:	00813823          	sd	s0,16(sp)
    800044b0:	00913423          	sd	s1,8(sp)
    800044b4:	02010413          	addi	s0,sp,32
    800044b8:	00050493          	mv	s1,a0
    800044bc:	00007797          	auipc	a5,0x7
    800044c0:	d3478793          	addi	a5,a5,-716 # 8000b1f0 <_ZTV14PeriodicThread+0x10>
    800044c4:	00f53023          	sd	a5,0(a0)
    800044c8:	00000097          	auipc	ra,0x0
    800044cc:	970080e7          	jalr	-1680(ra) # 80003e38 <_ZN6ThreadD1Ev>
    800044d0:	00048513          	mv	a0,s1
    800044d4:	00000097          	auipc	ra,0x0
    800044d8:	b28080e7          	jalr	-1240(ra) # 80003ffc <_ZdlPv>
    800044dc:	01813083          	ld	ra,24(sp)
    800044e0:	01013403          	ld	s0,16(sp)
    800044e4:	00813483          	ld	s1,8(sp)
    800044e8:	02010113          	addi	sp,sp,32
    800044ec:	00008067          	ret

00000000800044f0 <_ZN5Riscv14switch_to_userEv>:
#include "../h/MemoryAllocator.hpp"
#include "../h/TCB.hpp"
#include "../h/semaphore.hpp"
#include "../h/console.hpp"

void Riscv::switch_to_user(){
    800044f0:	ff010113          	addi	sp,sp,-16
    800044f4:	00813423          	sd	s0,8(sp)
    800044f8:	01010413          	addi	s0,sp,16
    __asm__ volatile ("csrc sstatus, %[mask]" : : [mask] "r"(mask));
    800044fc:	10000793          	li	a5,256
    80004500:	1007b073          	csrc	sstatus,a5
    mc_sstatus(SSTATUS_SPP);
}
    80004504:	00813403          	ld	s0,8(sp)
    80004508:	01010113          	addi	sp,sp,16
    8000450c:	00008067          	ret

0000000080004510 <_ZN5Riscv21switch_to_priviledgedEv>:

void Riscv::switch_to_priviledged() {
    80004510:	ff010113          	addi	sp,sp,-16
    80004514:	00813423          	sd	s0,8(sp)
    80004518:	01010413          	addi	s0,sp,16
    __asm__ volatile ("csrs sstatus, %[mask]" : : [mask] "r"(mask));
    8000451c:	10000793          	li	a5,256
    80004520:	1007a073          	csrs	sstatus,a5
    ms_sstatus(SSTATUS_SPP);
}
    80004524:	00813403          	ld	s0,8(sp)
    80004528:	01010113          	addi	sp,sp,16
    8000452c:	00008067          	ret

0000000080004530 <_ZN5Riscv10popSppSpieEv>:

void Riscv::popSppSpie(){
    80004530:	ff010113          	addi	sp,sp,-16
    80004534:	00813423          	sd	s0,8(sp)
    80004538:	01010413          	addi	s0,sp,16

    __asm__ volatile("csrw sepc, ra");
    8000453c:	14109073          	csrw	sepc,ra
    __asm__ volatile("sret");
    80004540:	10200073          	sret
}
    80004544:	00813403          	ld	s0,8(sp)
    80004548:	01010113          	addi	sp,sp,16
    8000454c:	00008067          	ret

0000000080004550 <_ZN5Riscv20handleSupervisorTrapEv>:

void Riscv::handleSupervisorTrap(){
    80004550:	f5010113          	addi	sp,sp,-176
    80004554:	0a113423          	sd	ra,168(sp)
    80004558:	0a813023          	sd	s0,160(sp)
    8000455c:	08913c23          	sd	s1,152(sp)
    80004560:	09213823          	sd	s2,144(sp)
    80004564:	0b010413          	addi	s0,sp,176

//    uint64 arg0, arg1, arg2, arg3, arg4, arg5, arg6, arg7;
    uint64 args[8];
    __asm__ volatile("mv %[arg0], a0" : [arg0]"=r"(*args)); // za kod sistemskog poziva
    80004568:	00050793          	mv	a5,a0
    8000456c:	faf43023          	sd	a5,-96(s0)
    __asm__ volatile("mv %[arg1], a1" : [arg1]"=r"(*(args + 1))); // argumenti s leva na desno
    80004570:	00058793          	mv	a5,a1
    80004574:	faf43423          	sd	a5,-88(s0)
    __asm__ volatile("mv %[arg2], a2" : [arg2]"=r"(*(args + 2)));
    80004578:	00060793          	mv	a5,a2
    8000457c:	faf43823          	sd	a5,-80(s0)
    __asm__ volatile("mv %[arg3], a3" : [arg3]"=r"(*(args + 3)));
    80004580:	00068793          	mv	a5,a3
    80004584:	faf43c23          	sd	a5,-72(s0)
    __asm__ volatile("mv %[arg4], a4" : [arg4]"=r"(*(args + 4)));
    80004588:	00070793          	mv	a5,a4
    8000458c:	fcf43023          	sd	a5,-64(s0)
    __asm__ volatile("mv %[arg5], a5" : [arg5]"=r"(*(args + 5)));
    80004590:	00078793          	mv	a5,a5
    80004594:	fcf43423          	sd	a5,-56(s0)
    __asm__ volatile("mv %[arg6], a6" : [arg6]"=r"(*(args + 6)));
    80004598:	00080793          	mv	a5,a6
    8000459c:	fcf43823          	sd	a5,-48(s0)
    __asm__ volatile("mv %[arg7], a7" : [arg7]"=r"(*(args + 7)));
    800045a0:	00088793          	mv	a5,a7
    800045a4:	fcf43c23          	sd	a5,-40(s0)
    __asm__ volatile ("csrr %[scause], scause" : [scause] "=r"(scause));
    800045a8:	142027f3          	csrr	a5,scause
    800045ac:	f6f43c23          	sd	a5,-136(s0)
    return scause;
    800045b0:	f7843703          	ld	a4,-136(s0)

    uint64 scause = r_scause();

    if (scause == 0x8000000000000001UL){
    800045b4:	fff00793          	li	a5,-1
    800045b8:	03f79793          	slli	a5,a5,0x3f
    800045bc:	00178793          	addi	a5,a5,1
    800045c0:	02f70c63          	beq	a4,a5,800045f8 <_ZN5Riscv20handleSupervisorTrapEv+0xa8>
            w_sstatus(sstatus);
            w_sepc(sepc);
        }

    }
    else if(scause == 0x0000000000000009UL || scause == 0x0000000000000008UL){
    800045c4:	ff870793          	addi	a5,a4,-8
    800045c8:	00100693          	li	a3,1
    800045cc:	0af6f463          	bgeu	a3,a5,80004674 <_ZN5Riscv20handleSupervisorTrapEv+0x124>
            // pomeramo pc za 4 bajta unapred
            w_sepc(sepc);
            if(*args != 0x60 && *args != 0x61)
                w_sstatus(sstatus);
    }
    else if (scause == 0x8000000000000009UL)
    800045d0:	fff00793          	li	a5,-1
    800045d4:	03f79793          	slli	a5,a5,0x3f
    800045d8:	00978793          	addi	a5,a5,9
    800045dc:	44f70663          	beq	a4,a5,80004a28 <_ZN5Riscv20handleSupervisorTrapEv+0x4d8>
        // unexpected trap cause
        // print scause
        // print sepc
        // print stval
    }
    800045e0:	0a813083          	ld	ra,168(sp)
    800045e4:	0a013403          	ld	s0,160(sp)
    800045e8:	09813483          	ld	s1,152(sp)
    800045ec:	09013903          	ld	s2,144(sp)
    800045f0:	0b010113          	addi	sp,sp,176
    800045f4:	00008067          	ret
    __asm__ volatile ("csrc sip, %[mask]" : : [mask] "r"(mask));
    800045f8:	00200793          	li	a5,2
    800045fc:	1447b073          	csrc	sip,a5
        TCB::time_slice_counter++;
    80004600:	00007497          	auipc	s1,0x7
    80004604:	c884b483          	ld	s1,-888(s1) # 8000b288 <_GLOBAL_OFFSET_TABLE_+0x58>
    80004608:	0004b783          	ld	a5,0(s1)
    8000460c:	00178793          	addi	a5,a5,1
    80004610:	00f4b023          	sd	a5,0(s1)
        TS::decrement_and_remove();
    80004614:	00001097          	auipc	ra,0x1
    80004618:	dd0080e7          	jalr	-560(ra) # 800053e4 <_ZN2TS20decrement_and_removeEv>
        if (TCB::time_slice_counter >= TCB::running->get_time_slice()) {
    8000461c:	00007797          	auipc	a5,0x7
    80004620:	c747b783          	ld	a5,-908(a5) # 8000b290 <_GLOBAL_OFFSET_TABLE_+0x60>
    80004624:	0007b783          	ld	a5,0(a5)
    uint64 get_time_slice()const{ return time_slice; }
    80004628:	0507b783          	ld	a5,80(a5)
    8000462c:	0004b703          	ld	a4,0(s1)
    80004630:	faf768e3          	bltu	a4,a5,800045e0 <_ZN5Riscv20handleSupervisorTrapEv+0x90>
    __asm__ volatile ("csrr %[sepc], sepc" : [sepc] "=r"(sepc));
    80004634:	141027f3          	csrr	a5,sepc
    80004638:	f8f43423          	sd	a5,-120(s0)
    return sepc;
    8000463c:	f8843783          	ld	a5,-120(s0)
            uint64 volatile sepc = r_sepc();
    80004640:	f4f43c23          	sd	a5,-168(s0)

inline uint64 Riscv::r_sstatus()
{
    uint64 volatile sstatus;
    __asm__ volatile ("csrr %[sstatus], sstatus" : [sstatus] "=r"(sstatus));
    80004644:	100027f3          	csrr	a5,sstatus
    80004648:	f8f43023          	sd	a5,-128(s0)
    return sstatus;
    8000464c:	f8043783          	ld	a5,-128(s0)
            uint64 volatile sstatus = r_sstatus();
    80004650:	f6f43023          	sd	a5,-160(s0)
            TCB::time_slice_counter = 0;
    80004654:	0004b023          	sd	zero,0(s1)
            TCB::thread_dispatch();
    80004658:	00000097          	auipc	ra,0x0
    8000465c:	498080e7          	jalr	1176(ra) # 80004af0 <_ZN3TCB15thread_dispatchEv>
            w_sstatus(sstatus);
    80004660:	f6043783          	ld	a5,-160(s0)
}

inline void Riscv::w_sstatus(uint64 sstatus)
{
    __asm__ volatile ("csrw sstatus, %[sstatus]" : : [sstatus] "r"(sstatus));
    80004664:	10079073          	csrw	sstatus,a5
            w_sepc(sepc);
    80004668:	f5843783          	ld	a5,-168(s0)
    __asm__ volatile ("csrw sepc, %[sepc]" : : [sepc] "r"(sepc));
    8000466c:	14179073          	csrw	sepc,a5
}
    80004670:	f71ff06f          	j	800045e0 <_ZN5Riscv20handleSupervisorTrapEv+0x90>
    __asm__ volatile ("csrr %[sepc], sepc" : [sepc] "=r"(sepc));
    80004674:	141027f3          	csrr	a5,sepc
    80004678:	f8f43c23          	sd	a5,-104(s0)
    return sepc;
    8000467c:	f9843783          	ld	a5,-104(s0)
        uint64 volatile sepc = r_sepc() + 4;
    80004680:	00478793          	addi	a5,a5,4
    80004684:	f6f43423          	sd	a5,-152(s0)
    __asm__ volatile ("csrr %[sstatus], sstatus" : [sstatus] "=r"(sstatus));
    80004688:	100027f3          	csrr	a5,sstatus
    8000468c:	f8f43823          	sd	a5,-112(s0)
    return sstatus;
    80004690:	f9043783          	ld	a5,-112(s0)
        uint64 volatile sstatus = r_sstatus();
    80004694:	f6f43823          	sd	a5,-144(s0)
            switch(*args){
    80004698:	fa043783          	ld	a5,-96(s0)
    8000469c:	07000713          	li	a4,112
    800046a0:	02f76463          	bltu	a4,a5,800046c8 <_ZN5Riscv20handleSupervisorTrapEv+0x178>
    800046a4:	36078a63          	beqz	a5,80004a18 <_ZN5Riscv20handleSupervisorTrapEv+0x4c8>
    800046a8:	36f76c63          	bltu	a4,a5,80004a20 <_ZN5Riscv20handleSupervisorTrapEv+0x4d0>
    800046ac:	00279793          	slli	a5,a5,0x2
    800046b0:	00005717          	auipc	a4,0x5
    800046b4:	bc070713          	addi	a4,a4,-1088 # 80009270 <CONSOLE_STATUS+0x260>
    800046b8:	00e787b3          	add	a5,a5,a4
    800046bc:	0007a783          	lw	a5,0(a5)
    800046c0:	00e787b3          	add	a5,a5,a4
    800046c4:	00078067          	jr	a5
    800046c8:	11100713          	li	a4,273
    800046cc:	00e79c63          	bne	a5,a4,800046e4 <_ZN5Riscv20handleSupervisorTrapEv+0x194>
    void set_finished(bool f){ this->finished = f; }
    800046d0:	fa843783          	ld	a5,-88(s0)
    800046d4:	00100713          	li	a4,1
    800046d8:	02e78423          	sb	a4,40(a5)
                    retVal = 0;
    800046dc:	00000513          	li	a0,0
    800046e0:	0080006f          	j	800046e8 <_ZN5Riscv20handleSupervisorTrapEv+0x198>
            switch(*args){
    800046e4:	00000513          	li	a0,0
            __asm__ volatile("mv a0, %[ret]" : : [ret]"r"(retVal));
    800046e8:	00050513          	mv	a0,a0
            __asm__ volatile("sd a0, 10 * 8(s0)");
    800046ec:	04a43823          	sd	a0,80(s0)
            w_sepc(sepc);
    800046f0:	f6843783          	ld	a5,-152(s0)
    __asm__ volatile ("csrw sepc, %[sepc]" : : [sepc] "r"(sepc));
    800046f4:	14179073          	csrw	sepc,a5
            if(*args != 0x60 && *args != 0x61)
    800046f8:	fa043783          	ld	a5,-96(s0)
    800046fc:	fa078793          	addi	a5,a5,-96
    80004700:	00100713          	li	a4,1
    80004704:	ecf77ee3          	bgeu	a4,a5,800045e0 <_ZN5Riscv20handleSupervisorTrapEv+0x90>
                w_sstatus(sstatus);
    80004708:	f7043783          	ld	a5,-144(s0)
    __asm__ volatile ("csrw sstatus, %[sstatus]" : : [sstatus] "r"(sstatus));
    8000470c:	10079073          	csrw	sstatus,a5
}
    80004710:	ed1ff06f          	j	800045e0 <_ZN5Riscv20handleSupervisorTrapEv+0x90>
class MemoryAllocator{
public:

    // dodaj instancu
    static MemoryAllocator& getInstance(){
        static MemoryAllocator instance;
    80004714:	00007797          	auipc	a5,0x7
    80004718:	bdc7c783          	lbu	a5,-1060(a5) # 8000b2f0 <_ZGVZN15MemoryAllocator11getInstanceEvE8instance>
    8000471c:	00078e63          	beqz	a5,80004738 <_ZN5Riscv20handleSupervisorTrapEv+0x1e8>
                    retVal = (uint64)(MemoryAllocator::getInstance().memory_alloc(*(args + 1)));
    80004720:	fa843583          	ld	a1,-88(s0)
    80004724:	00007517          	auipc	a0,0x7
    80004728:	bd450513          	addi	a0,a0,-1068 # 8000b2f8 <_ZZN15MemoryAllocator11getInstanceEvE8instance>
    8000472c:	00001097          	auipc	ra,0x1
    80004730:	998080e7          	jalr	-1640(ra) # 800050c4 <_ZN15MemoryAllocator12memory_allocEm>
                    break;
    80004734:	fb5ff06f          	j	800046e8 <_ZN5Riscv20handleSupervisorTrapEv+0x198>

    FreeMem* fmem_head = nullptr;
    size_t heapStart;
    size_t heapEnd;

    MemoryAllocator(){
    80004738:	00007617          	auipc	a2,0x7
    8000473c:	bc060613          	addi	a2,a2,-1088 # 8000b2f8 <_ZZN15MemoryAllocator11getInstanceEvE8instance>

        heapStart = (size_t)HEAP_START_ADDR + ((size_t)HEAP_END_ADDR - (size_t)HEAP_START_ADDR) / 8 + 1;
    80004740:	00007797          	auipc	a5,0x7
    80004744:	b587b783          	ld	a5,-1192(a5) # 8000b298 <_GLOBAL_OFFSET_TABLE_+0x68>
    80004748:	0007b703          	ld	a4,0(a5)
    8000474c:	00007797          	auipc	a5,0x7
    80004750:	b047b783          	ld	a5,-1276(a5) # 8000b250 <_GLOBAL_OFFSET_TABLE_+0x20>
    80004754:	0007b783          	ld	a5,0(a5)
    80004758:	40f706b3          	sub	a3,a4,a5
    8000475c:	0036d693          	srli	a3,a3,0x3
    80004760:	00d787b3          	add	a5,a5,a3
    80004764:	00178793          	addi	a5,a5,1
    80004768:	00f63423          	sd	a5,8(a2)
        heapEnd = (size_t)HEAP_END_ADDR - 1;
    8000476c:	fff70713          	addi	a4,a4,-1
    80004770:	00e63823          	sd	a4,16(a2)

        size_t sizeInBlocks = (heapEnd - heapStart) / MEM_BLOCK_SIZE;
    80004774:	40f70733          	sub	a4,a4,a5
    80004778:	00675713          	srli	a4,a4,0x6

        // poravnaj na prvu krstenu adresu
        fmem_head = (FreeMem*)(heapStart + ((heapStart % MEM_BLOCK_SIZE != 0)?(MEM_BLOCK_SIZE - heapStart % MEM_BLOCK_SIZE) : 0));
    8000477c:	03f7f693          	andi	a3,a5,63
    80004780:	00068663          	beqz	a3,8000478c <_ZN5Riscv20handleSupervisorTrapEv+0x23c>
    80004784:	04000613          	li	a2,64
    80004788:	40d606b3          	sub	a3,a2,a3
    8000478c:	00d787b3          	add	a5,a5,a3
    80004790:	00007697          	auipc	a3,0x7
    80004794:	b6f6b423          	sd	a5,-1176(a3) # 8000b2f8 <_ZZN15MemoryAllocator11getInstanceEvE8instance>

        // napravi node

        fmem_head->next = nullptr;
    80004798:	0007b423          	sd	zero,8(a5)
        fmem_head->prev = nullptr;
    8000479c:	0007b823          	sd	zero,16(a5)
