GAS LISTING /tmp/ccTjaUlX.s 			page 1


   1              		.file	"abi.cpp"
   2              		.option pic
   3              		.option norelax
   4              		.text
   5              	.Ltext0:
   6              		.align	2
   7              		.globl	_ZN3abi8sys_callEPv
   9              	_ZN3abi8sys_callEPv:
  10              	.LFB40:
  11              		.file 1 "src/abi.cpp"
   1:src/abi.cpp   **** #include "../h/abi.hpp"
   2:src/abi.cpp   **** 
   3:src/abi.cpp   **** void* abi::sys_call(void *param) {
  12              		.loc 1 3 34
  13              		.cfi_startproc
  14              	.LVL0:
  15 0000 130101FF 		addi	sp,sp,-16
  16              		.cfi_def_cfa_offset 16
  17 0004 23348100 		sd	s0,8(sp)
  18              		.cfi_offset 8, -8
  19 0008 13040101 		addi	s0,sp,16
  20              		.cfi_def_cfa 8, 0
   4:src/abi.cpp   ****     __asm__ volatile("ld a1, 8(a0)");
  21              		.loc 1 4 5
  22              		.loc 1 4 37 is_stmt 0
  23              	#APP
  24              	# 4 "src/abi.cpp" 1
   5              	    __asm__ volatile("ld a2, 16(a0)");
  25              		ld a1, 8(a0)
  26              	# 0 "" 2
  27              		.loc 1 5 5 is_stmt 1
  28              		.loc 1 5 38 is_stmt 0
  29              	# 5 "src/abi.cpp" 1
   6              	    __asm__ volatile("ld a3, 24(a0)");
  30              		ld a2, 16(a0)
  31              	# 0 "" 2
  32              		.loc 1 6 5 is_stmt 1
  33              		.loc 1 6 38 is_stmt 0
  34              	# 6 "src/abi.cpp" 1
   7              	    __asm__ volatile("ld a4, 32(a0)");
  35              		ld a3, 24(a0)
  36              	# 0 "" 2
  37              		.loc 1 7 5 is_stmt 1
  38              		.loc 1 7 38 is_stmt 0
  39              	# 7 "src/abi.cpp" 1
   8              	    __asm__ volatile("ld a5, 40(a0)");
  40              		ld a4, 32(a0)
  41              	# 0 "" 2
  42              		.loc 1 8 5 is_stmt 1
  43              		.loc 1 8 38 is_stmt 0
  44              	# 8 "src/abi.cpp" 1
   9              	    __asm__ volatile("ld a6, 48(a0)");
  45              		ld a5, 40(a0)
  46              	# 0 "" 2
  47              		.loc 1 9 5 is_stmt 1
  48              		.loc 1 9 38 is_stmt 0
  49              	# 9 "src/abi.cpp" 1
GAS LISTING /tmp/ccTjaUlX.s 			page 2


  10              	    __asm__ volatile("ld a7, 56(a0)");
  50              		ld a6, 48(a0)
  51              	# 0 "" 2
  52              		.loc 1 10 5 is_stmt 1
  53              		.loc 1 10 38 is_stmt 0
  54              	# 10 "src/abi.cpp" 1
  11              	    __asm__ volatile("ld a0, (a0)");
  55              		ld a7, 56(a0)
  56              	# 0 "" 2
  57              		.loc 1 11 5 is_stmt 1
  58              		.loc 1 11 36 is_stmt 0
  59              	# 11 "src/abi.cpp" 1
  12              	
  13:src/abi.cpp   ****     __asm__ volatile("ecall");
  60              		ld a0, (a0)
  61              	# 0 "" 2
  62              		.loc 1 13 5 is_stmt 1
  63              		.loc 1 13 30 is_stmt 0
  64              	# 13 "src/abi.cpp" 1
  14              	    // u a0 se nalazi povratna vrednost
  15:src/abi.cpp   ****     uint64 ret0;
  65              		ecall
  66              	# 0 "" 2
  67              		.loc 1 15 5 is_stmt 1
  16:src/abi.cpp   ****     __asm__ volatile("mv %[ret], a0" : [ret]"=r"(ret0));
  68              		.loc 1 16 5
  69              		.loc 1 16 56 is_stmt 0
  70              	# 16 "src/abi.cpp" 1
  17              	    return (void*)ret0;
  71              		mv a0, a0
  72              	# 0 "" 2
  73              	.LVL1:
  74              		.loc 1 17 5 is_stmt 1
  18:src/abi.cpp   **** }
  75              		.loc 1 18 1 is_stmt 0
  76              	#NO_APP
  77 0034 03348100 		ld	s0,8(sp)
  78              		.cfi_restore 8
  79              		.cfi_def_cfa 2, 16
  80 0038 13010101 		addi	sp,sp,16
  81              		.cfi_def_cfa_offset 0
  82 003c 67800000 		jr	ra
  83              		.cfi_endproc
  84              	.LFE40:
  86              	.Letext0:
  87              		.file 2 "src/../h/../h/../lib/hw.h"
  88              		.file 3 "src/../h/abi.hpp"
GAS LISTING /tmp/ccTjaUlX.s 			page 3

