GAS LISTING /tmp/cckrRXLU.s 			page 1


   1              		.file	"Buddy.cpp"
   2              		.option pic
   3              		.option norelax
   4              		.text
   5              	.Ltext0:
   6              		.align	2
   7              		.globl	_ZN11BuddySystemC2Ev
   9              	_ZN11BuddySystemC2Ev:
  10              	.LFB5:
  11              		.file 1 "src/Buddy.cpp"
   1:src/Buddy.cpp **** //
   2:src/Buddy.cpp **** // Created by os on 8/12/23.
   3:src/Buddy.cpp **** 
   4:src/Buddy.cpp **** #include "../h/Buddy.h"
   5:src/Buddy.cpp **** 
   6:src/Buddy.cpp **** BuddySystem::BuddySystem(){
  12              		.loc 1 6 1
  13              		.cfi_startproc
  14              	.LVL0:
  15 0000 130101FF 		addi	sp,sp,-16
  16              		.cfi_def_cfa_offset 16
  17 0004 23348100 		sd	s0,8(sp)
  18              		.cfi_offset 8, -8
  19 0008 13040101 		addi	s0,sp,16
  20              		.cfi_def_cfa 8, 0
   7:src/Buddy.cpp **** 
   8:src/Buddy.cpp **** }
  21              		.loc 1 8 1 is_stmt 0
  22 000c 03348100 		ld	s0,8(sp)
  23              		.cfi_restore 8
  24              		.cfi_def_cfa 2, 16
  25 0010 13010101 		addi	sp,sp,16
  26              		.cfi_def_cfa_offset 0
  27 0014 67800000 		jr	ra
  28              		.cfi_endproc
  29              	.LFE5:
  31              		.globl	_ZN11BuddySystemC1Ev
  32              		.set	_ZN11BuddySystemC1Ev,_ZN11BuddySystemC2Ev
  33              		.align	2
  34              		.globl	_ZN11BuddySystem13insertInArrayEmm
  36              	_ZN11BuddySystem13insertInArrayEmm:
  37              	.LFB10:
   9:src/Buddy.cpp **** 
  10:src/Buddy.cpp **** // vraca 0 u slucaju neuspesne alokacije, u slucaju uspesne vraca adresu bloka, na sizeof(size_t) i
  11:src/Buddy.cpp **** void* BuddySystem::buddyAlloc(size_t size) {
  12:src/Buddy.cpp ****     size_t position = 50;
  13:src/Buddy.cpp ****     for(size_t i = 0; i < 40; i++){
  14:src/Buddy.cpp ****         if(arr[i] && arr[i]->size >= size + sizeof(size_t)){
  15:src/Buddy.cpp ****             position = splitAndOrder(i, size + sizeof(size_t));
  16:src/Buddy.cpp ****             break;
  17:src/Buddy.cpp ****         }
  18:src/Buddy.cpp ****     }
  19:src/Buddy.cpp ****     if(position == 50)return 0;
  20:src/Buddy.cpp ****     MemNode* node = arr[position];
  21:src/Buddy.cpp ****     arr[position] = arr[position]->next;
  22:src/Buddy.cpp ****     node->next = nullptr;
  23:src/Buddy.cpp **** 
GAS LISTING /tmp/cckrRXLU.s 			page 2


  24:src/Buddy.cpp ****     *((size_t*)node) = pow(position);
  25:src/Buddy.cpp ****     return (void*)((size_t)node + sizeof(size_t));
  26:src/Buddy.cpp **** }
  27:src/Buddy.cpp **** 
  28:src/Buddy.cpp **** void BuddySystem::buddyFree(size_t addr) {
  29:src/Buddy.cpp ****     size_t size = *(size_t*)(addr - sizeof(size_t));
  30:src/Buddy.cpp ****     if((void*)addr == nullptr || size == 0)return;
  31:src/Buddy.cpp ****     size_t position = log(size);
  32:src/Buddy.cpp ****     MemNode* newNode = (MemNode*)(addr - sizeof(size_t));
  33:src/Buddy.cpp ****     newNode->next = nullptr;
  34:src/Buddy.cpp ****     newNode->size = size;
  35:src/Buddy.cpp ****     int merged = (int)insertInArray(position, (size_t)newNode);
  36:src/Buddy.cpp ****     while(merged != -1){
  37:src/Buddy.cpp ****         MemNode* curr = arr[position], *prev = nullptr, *next = nullptr;
  38:src/Buddy.cpp ****         for(int i = 0; i < merged; i++){
  39:src/Buddy.cpp ****             prev = curr;
  40:src/Buddy.cpp ****             curr = curr->next;
  41:src/Buddy.cpp ****             if(curr)next = curr->next;
  42:src/Buddy.cpp ****         }
  43:src/Buddy.cpp ****         if(merged == 0 && curr){
  44:src/Buddy.cpp ****             next = curr->next;
  45:src/Buddy.cpp ****         }
  46:src/Buddy.cpp **** 
  47:src/Buddy.cpp ****         if(!prev && !next){
  48:src/Buddy.cpp ****             merged = -1;
  49:src/Buddy.cpp ****         }
  50:src/Buddy.cpp ****         if(prev){
  51:src/Buddy.cpp ****             merged = tryToMerge(prev, curr, position);
  52:src/Buddy.cpp ****         }
  53:src/Buddy.cpp ****         if((merged != -1) && next){
  54:src/Buddy.cpp ****             merged = tryToMerge(curr, next, position);
  55:src/Buddy.cpp ****         }
  56:src/Buddy.cpp ****         if(merged != -1)position++;
  57:src/Buddy.cpp ****     }
  58:src/Buddy.cpp **** }
  59:src/Buddy.cpp **** 
  60:src/Buddy.cpp **** // deli cvor na dva manja i ubacuje ih u red ispod, sve dok je to moguce (dok u naredni moze da sta
  61:src/Buddy.cpp **** size_t BuddySystem::splitAndOrder(size_t position, size_t required_size) {
  62:src/Buddy.cpp ****     size_t val = pow(position);
  63:src/Buddy.cpp ****     while((val >> 1) >= required_size && (val >> 1) >= BLOCK_SIZE){
  64:src/Buddy.cpp ****         MemNode* tmp = arr[position];
  65:src/Buddy.cpp ****         arr[position] = arr[position]->next;
  66:src/Buddy.cpp ****         tmp->next = nullptr;
  67:src/Buddy.cpp ****         tmp->size >>= 1;
  68:src/Buddy.cpp **** 
  69:src/Buddy.cpp ****         MemNode* newNode = (MemNode*)((size_t)tmp + tmp->size);
  70:src/Buddy.cpp ****         newNode->size = tmp->size;
  71:src/Buddy.cpp ****         newNode->next = nullptr;
  72:src/Buddy.cpp **** 
  73:src/Buddy.cpp ****         position--;
  74:src/Buddy.cpp ****         val >>= 1;
  75:src/Buddy.cpp **** 
  76:src/Buddy.cpp ****         insertInArray(position, (size_t)tmp);
  77:src/Buddy.cpp ****         insertInArray(position, (size_t)newNode);
  78:src/Buddy.cpp ****     }
  79:src/Buddy.cpp ****     return position;
  80:src/Buddy.cpp **** }
GAS LISTING /tmp/cckrRXLU.s 			page 3


  81:src/Buddy.cpp **** 
  82:src/Buddy.cpp **** // vraca na kojem mestu je node ubacen u nizu arr[position]
  83:src/Buddy.cpp **** int BuddySystem::insertInArray(size_t position, size_t addr) {
  38              		.loc 1 83 62 is_stmt 1
  39              		.cfi_startproc
  40              	.LVL1:
  41 0018 130101FF 		addi	sp,sp,-16
  42              		.cfi_def_cfa_offset 16
  43 001c 23348100 		sd	s0,8(sp)
  44              		.cfi_offset 8, -8
  45 0020 13040101 		addi	s0,sp,16
  46              		.cfi_def_cfa 8, 0
  47 0024 93060500 		mv	a3,a0
  84:src/Buddy.cpp ****     MemNode* node = (MemNode*)addr;
  48              		.loc 1 84 5
  49              	.LVL2:
  85:src/Buddy.cpp **** 
  86:src/Buddy.cpp ****     if(!arr[position]){
  50              		.loc 1 86 5
  51              		.loc 1 86 21 is_stmt 0
  52 0028 93973500 		slli	a5,a1,3
  53 002c B307F500 		add	a5,a0,a5
  54 0030 83B70700 		ld	a5,0(a5)
  55              		.loc 1 86 5
  56 0034 63820702 		beqz	a5,.L10
  87:src/Buddy.cpp ****         arr[position] = node;
  88:src/Buddy.cpp ****         return 0;
  89:src/Buddy.cpp ****     }
  90:src/Buddy.cpp **** 
  91:src/Buddy.cpp ****     int cnt = 0;
  92:src/Buddy.cpp ****     MemNode* prev = nullptr, * curr = arr[position];
  57              		.loc 1 92 14
  58 0038 13070000 		li	a4,0
  91:src/Buddy.cpp ****     MemNode* prev = nullptr, * curr = arr[position];
  59              		.loc 1 91 9
  60 003c 13050000 		li	a0,0
  61              	.LVL3:
  62              	.L4:
  93:src/Buddy.cpp ****     while(curr and (size_t)curr < (size_t)node){
  63              		.loc 1 93 5 is_stmt 1
  64              		.loc 1 93 16
  65 0040 63860702 		beqz	a5,.L6
  66              		.loc 1 93 16 is_stmt 0 discriminator 1
  67 0044 63F4C702 		bgeu	a5,a2,.L6
  94:src/Buddy.cpp ****         prev = curr;
  68              		.loc 1 94 9 is_stmt 1
  69              	.LVL4:
  95:src/Buddy.cpp ****         curr = curr->next;
  70              		.loc 1 95 9
  96:src/Buddy.cpp ****         cnt++;
  71              		.loc 1 96 9
  72              		.loc 1 96 12 is_stmt 0
  73 0048 1B051500 		addiw	a0,a0,1
  74              	.LVL5:
  94:src/Buddy.cpp ****         prev = curr;
  75              		.loc 1 94 14
  76 004c 13870700 		mv	a4,a5
GAS LISTING /tmp/cckrRXLU.s 			page 4


  95:src/Buddy.cpp ****         curr = curr->next;
  77              		.loc 1 95 14
  78 0050 83B70700 		ld	a5,0(a5)
  79              	.LVL6:
  93:src/Buddy.cpp ****         prev = curr;
  80              		.loc 1 93 5
  81 0054 6FF0DFFE 		j	.L4
  82              	.LVL7:
  83              	.L10:
  87:src/Buddy.cpp ****         return 0;
  84              		.loc 1 87 9 is_stmt 1
  87:src/Buddy.cpp ****         return 0;
  85              		.loc 1 87 23 is_stmt 0
  86 0058 93953500 		slli	a1,a1,3
  87              	.LVL8:
  88 005c B306B500 		add	a3,a0,a1
  89 0060 23B0C600 		sd	a2,0(a3)
  88:src/Buddy.cpp ****     }
  90              		.loc 1 88 9 is_stmt 1
  88:src/Buddy.cpp ****     }
  91              		.loc 1 88 16 is_stmt 0
  92 0064 13050000 		li	a0,0
  93              	.LVL9:
  94 0068 6F000001 		j	.L5
  95              	.LVL10:
  96              	.L6:
  97:src/Buddy.cpp ****     }
  98:src/Buddy.cpp ****     node->next = curr;
  97              		.loc 1 98 5 is_stmt 1
  98              		.loc 1 98 16 is_stmt 0
  99 006c 2330F600 		sd	a5,0(a2)
  99:src/Buddy.cpp ****     if(prev)prev->next = node;
 100              		.loc 1 99 5 is_stmt 1
 101 0070 630A0700 		beqz	a4,.L7
 102              		.loc 1 99 13 discriminator 1
 103              		.loc 1 99 24 is_stmt 0 discriminator 1
 104 0074 2330C700 		sd	a2,0(a4)
 105              	.LVL11:
 106              	.L5:
 100:src/Buddy.cpp ****     else arr[position] = node;
 101:src/Buddy.cpp ****     return cnt;
 102:src/Buddy.cpp **** }
 107              		.loc 1 102 1
 108 0078 03348100 		ld	s0,8(sp)
 109              		.cfi_remember_state
 110              		.cfi_restore 8
 111              		.cfi_def_cfa 2, 16
 112 007c 13010101 		addi	sp,sp,16
 113              		.cfi_def_cfa_offset 0
 114 0080 67800000 		jr	ra
 115              	.LVL12:
 116              	.L7:
 117              		.cfi_restore_state
 100:src/Buddy.cpp ****     else arr[position] = node;
 118              		.loc 1 100 10 is_stmt 1
 100:src/Buddy.cpp ****     else arr[position] = node;
 119              		.loc 1 100 24 is_stmt 0
GAS LISTING /tmp/cckrRXLU.s 			page 5


 120 0084 93953500 		slli	a1,a1,3
 121              	.LVL13:
 122 0088 B386B600 		add	a3,a3,a1
 123              	.LVL14:
 124 008c 23B0C600 		sd	a2,0(a3)
 125 0090 6FF09FFE 		j	.L5
 126              		.cfi_endproc
 127              	.LFE10:
 129              		.align	2
 130              		.globl	_ZN11BuddySystem13splitAndOrderEmm
 132              	_ZN11BuddySystem13splitAndOrderEmm:
 133              	.LFB9:
  61:src/Buddy.cpp ****     size_t val = pow(position);
 134              		.loc 1 61 74 is_stmt 1
 135              		.cfi_startproc
 136              	.LVL15:
 137 0094 130101FC 		addi	sp,sp,-64
 138              		.cfi_def_cfa_offset 64
 139 0098 233C1102 		sd	ra,56(sp)
 140 009c 23388102 		sd	s0,48(sp)
 141 00a0 23349102 		sd	s1,40(sp)
 142 00a4 23302103 		sd	s2,32(sp)
 143 00a8 233C3101 		sd	s3,24(sp)
 144 00ac 23384101 		sd	s4,16(sp)
 145 00b0 23345101 		sd	s5,8(sp)
 146              		.cfi_offset 1, -8
 147              		.cfi_offset 8, -16
 148              		.cfi_offset 9, -24
 149              		.cfi_offset 18, -32
 150              		.cfi_offset 19, -40
 151              		.cfi_offset 20, -48
 152              		.cfi_offset 21, -56
 153 00b4 13040104 		addi	s0,sp,64
 154              		.cfi_def_cfa 8, 0
 155 00b8 130A0500 		mv	s4,a0
 156 00bc 93840500 		mv	s1,a1
 157 00c0 930A0600 		mv	s5,a2
  62:src/Buddy.cpp ****     while((val >> 1) >= required_size && (val >> 1) >= BLOCK_SIZE){
 158              		.loc 1 62 5
 159              	.LVL16:
 160              	.LBB23:
 161              	.LBB24:
 162              		.file 2 "src/../h/Buddy.h"
   1:src/../h/Buddy.h **** //
   2:src/../h/Buddy.h **** // Created by os on 8/12/23.
   3:src/../h/Buddy.h **** //
   4:src/../h/Buddy.h **** 
   5:src/../h/Buddy.h **** #ifndef PROJECT_BASE_V1_1_BUDDY_H
   6:src/../h/Buddy.h **** #define PROJECT_BASE_V1_1_BUDDY_H
   7:src/../h/Buddy.h **** 
   8:src/../h/Buddy.h **** #include "../lib/hw.h"
   9:src/../h/Buddy.h **** 
  10:src/../h/Buddy.h **** class BuddySystem{
  11:src/../h/Buddy.h **** public:
  12:src/../h/Buddy.h **** 
  13:src/../h/Buddy.h ****     void* buddyAlloc(size_t size);
  14:src/../h/Buddy.h ****     void buddyFree(size_t addr);
GAS LISTING /tmp/cckrRXLU.s 			page 6


  15:src/../h/Buddy.h **** 
  16:src/../h/Buddy.h ****     static BuddySystem& getInstance(void *space = nullptr, int block_num = 0){
  17:src/../h/Buddy.h ****         static BuddySystem bs;
  18:src/../h/Buddy.h ****         if(block_num != 0 && space != nullptr){
  19:src/../h/Buddy.h ****             bs.buddyHeapStart = (size_t)space;
  20:src/../h/Buddy.h ****             bs.buddyNumOfBlocks = block_num;
  21:src/../h/Buddy.h ****             bs.initBuddy();
  22:src/../h/Buddy.h ****         }
  23:src/../h/Buddy.h ****         return bs;
  24:src/../h/Buddy.h ****     }
  25:src/../h/Buddy.h **** 
  26:src/../h/Buddy.h ****     size_t getBuddyHeapEnd(){return buddyHeapEnd;}
  27:src/../h/Buddy.h **** protected:
  28:src/../h/Buddy.h ****     BuddySystem();
  29:src/../h/Buddy.h **** private:
  30:src/../h/Buddy.h ****     struct MemNode{
  31:src/../h/Buddy.h ****         MemNode* next;
  32:src/../h/Buddy.h ****         size_t size;
  33:src/../h/Buddy.h ****     };
  34:src/../h/Buddy.h **** 
  35:src/../h/Buddy.h ****     MemNode* arr[40];
  36:src/../h/Buddy.h ****     size_t buddyHeapStart;
  37:src/../h/Buddy.h ****     size_t buddyHeapEnd;
  38:src/../h/Buddy.h ****     size_t buddyNumOfBlocks;
  39:src/../h/Buddy.h **** 
  40:src/../h/Buddy.h ****     void initBuddy();
  41:src/../h/Buddy.h ****     size_t splitAndOrder(size_t position, size_t required_size);
  42:src/../h/Buddy.h ****     int insertInArray(size_t position, size_t addr);
  43:src/../h/Buddy.h ****     int tryToMerge(MemNode* left, MemNode* right, size_t position);
  44:src/../h/Buddy.h **** 
  45:src/../h/Buddy.h ****     size_t static pow(size_t deg){
  46:src/../h/Buddy.h ****         size_t tmp = 1;
 163              		.loc 2 46 9
  47:src/../h/Buddy.h ****         for(size_t i = 0; i < deg; i++){
 164              		.loc 2 47 9
 165              	.LBB25:
 166              		.loc 2 47 20 is_stmt 0
 167 00c4 93070000 		li	a5,0
 168              	.LBE25:
  46:src/../h/Buddy.h ****         for(size_t i = 0; i < deg; i++){
 169              		.loc 2 46 16
 170 00c8 13091000 		li	s2,1
 171              	.LVL17:
 172              	.L13:
 173              	.LBB26:
 174              		.loc 2 47 29 is_stmt 1
 175 00cc 63F89700 		bleu	s1,a5,.L12
  48:src/../h/Buddy.h ****             tmp <<= 1;
 176              		.loc 2 48 13
 177              		.loc 2 48 17 is_stmt 0
 178 00d0 13191900 		slli	s2,s2,1
 179              	.LVL18:
  47:src/../h/Buddy.h ****         for(size_t i = 0; i < deg; i++){
 180              		.loc 2 47 9 is_stmt 1
 181 00d4 93871700 		addi	a5,a5,1
 182              	.LVL19:
 183 00d8 6FF05FFF 		j	.L13
GAS LISTING /tmp/cckrRXLU.s 			page 7


 184              	.LVL20:
 185              	.L12:
 186              	.LBE26:
 187              	.LBE24:
 188              	.LBE23:
  63:src/Buddy.cpp ****         MemNode* tmp = arr[position];
 189              		.loc 1 63 5
  63:src/Buddy.cpp ****         MemNode* tmp = arr[position];
 190              		.loc 1 63 39
  63:src/Buddy.cpp ****         MemNode* tmp = arr[position];
 191              		.loc 1 63 16 is_stmt 0
 192 00dc 13591900 		srli	s2,s2,1
 193              	.LVL21:
  63:src/Buddy.cpp ****         MemNode* tmp = arr[position];
 194              		.loc 1 63 39
 195 00e0 63645907 		bltu	s2,s5,.L14
  63:src/Buddy.cpp ****         MemNode* tmp = arr[position];
 196              		.loc 1 63 39 discriminator 1
 197 00e4 B7170000 		li	a5,4096
 198 00e8 6360F906 		bltu	s2,a5,.L14
 199              	.LBB27:
  64:src/Buddy.cpp ****         arr[position] = arr[position]->next;
 200              		.loc 1 64 9 is_stmt 1
  64:src/Buddy.cpp ****         arr[position] = arr[position]->next;
 201              		.loc 1 64 18 is_stmt 0
 202 00ec 93973400 		slli	a5,s1,3
 203 00f0 B307FA00 		add	a5,s4,a5
 204 00f4 03B60700 		ld	a2,0(a5)
 205              	.LVL22:
  65:src/Buddy.cpp ****         tmp->next = nullptr;
 206              		.loc 1 65 9 is_stmt 1
  65:src/Buddy.cpp ****         tmp->next = nullptr;
 207              		.loc 1 65 40 is_stmt 0
 208 00f8 03370600 		ld	a4,0(a2)
  65:src/Buddy.cpp ****         tmp->next = nullptr;
 209              		.loc 1 65 23
 210 00fc 23B0E700 		sd	a4,0(a5)
  66:src/Buddy.cpp ****         tmp->size >>= 1;
 211              		.loc 1 66 9 is_stmt 1
  66:src/Buddy.cpp ****         tmp->size >>= 1;
 212              		.loc 1 66 19 is_stmt 0
 213 0100 23300600 		sd	zero,0(a2)
  67:src/Buddy.cpp **** 
 214              		.loc 1 67 9 is_stmt 1
  67:src/Buddy.cpp **** 
 215              		.loc 1 67 19 is_stmt 0
 216 0104 83378600 		ld	a5,8(a2)
 217 0108 93D71700 		srli	a5,a5,1
 218 010c 2334F600 		sd	a5,8(a2)
  69:src/Buddy.cpp ****         newNode->size = tmp->size;
 219              		.loc 1 69 9 is_stmt 1
  69:src/Buddy.cpp ****         newNode->size = tmp->size;
 220              		.loc 1 69 51 is_stmt 0
 221 0110 B389C700 		add	s3,a5,a2
 222              	.LVL23:
  70:src/Buddy.cpp ****         newNode->next = nullptr;
 223              		.loc 1 70 9 is_stmt 1
GAS LISTING /tmp/cckrRXLU.s 			page 8


  70:src/Buddy.cpp ****         newNode->next = nullptr;
 224              		.loc 1 70 23 is_stmt 0
 225 0114 23B4F900 		sd	a5,8(s3)
  71:src/Buddy.cpp **** 
 226              		.loc 1 71 9 is_stmt 1
  71:src/Buddy.cpp **** 
 227              		.loc 1 71 23 is_stmt 0
 228 0118 23B00900 		sd	zero,0(s3)
  73:src/Buddy.cpp ****         val >>= 1;
 229              		.loc 1 73 9 is_stmt 1
  73:src/Buddy.cpp ****         val >>= 1;
 230              		.loc 1 73 17 is_stmt 0
 231 011c 9384F4FF 		addi	s1,s1,-1
 232              	.LVL24:
  74:src/Buddy.cpp **** 
 233              		.loc 1 74 9 is_stmt 1
  76:src/Buddy.cpp ****         insertInArray(position, (size_t)newNode);
 234              		.loc 1 76 9
  76:src/Buddy.cpp ****         insertInArray(position, (size_t)newNode);
 235              		.loc 1 76 22 is_stmt 0
 236 0120 93850400 		mv	a1,s1
 237 0124 13050A00 		mv	a0,s4
 238 0128 97000000 		call	_ZN11BuddySystem13insertInArrayEmm
 238      E7800000 
 239              	.LVL25:
  77:src/Buddy.cpp ****     }
 240              		.loc 1 77 9 is_stmt 1
  77:src/Buddy.cpp ****     }
 241              		.loc 1 77 22 is_stmt 0
 242 0130 13860900 		mv	a2,s3
 243 0134 93850400 		mv	a1,s1
 244 0138 13050A00 		mv	a0,s4
 245 013c 97000000 		call	_ZN11BuddySystem13insertInArrayEmm
 245      E7800000 
 246              	.LVL26:
 247              	.LBE27:
  63:src/Buddy.cpp ****         MemNode* tmp = arr[position];
 248              		.loc 1 63 5
 249 0144 6FF09FF9 		j	.L12
 250              	.LVL27:
 251              	.L14:
  79:src/Buddy.cpp **** }
 252              		.loc 1 79 5 is_stmt 1
  80:src/Buddy.cpp **** 
 253              		.loc 1 80 1 is_stmt 0
 254 0148 13850400 		mv	a0,s1
 255 014c 83308103 		ld	ra,56(sp)
 256              		.cfi_restore 1
 257 0150 03340103 		ld	s0,48(sp)
 258              		.cfi_restore 8
 259              		.cfi_def_cfa 2, 64
 260 0154 83348102 		ld	s1,40(sp)
 261              		.cfi_restore 9
 262              	.LVL28:
 263 0158 03390102 		ld	s2,32(sp)
 264              		.cfi_restore 18
 265 015c 83398101 		ld	s3,24(sp)
GAS LISTING /tmp/cckrRXLU.s 			page 9


 266              		.cfi_restore 19
 267 0160 033A0101 		ld	s4,16(sp)
 268              		.cfi_restore 20
 269              	.LVL29:
 270 0164 833A8100 		ld	s5,8(sp)
 271              		.cfi_restore 21
 272              	.LVL30:
 273 0168 13010104 		addi	sp,sp,64
 274              		.cfi_def_cfa_offset 0
 275 016c 67800000 		jr	ra
 276              		.cfi_endproc
 277              	.LFE9:
 279              		.align	2
 280              		.globl	_ZN11BuddySystem10buddyAllocEm
 282              	_ZN11BuddySystem10buddyAllocEm:
 283              	.LFB7:
  11:src/Buddy.cpp ****     size_t position = 50;
 284              		.loc 1 11 44 is_stmt 1
 285              		.cfi_startproc
 286              	.LVL31:
 287 0170 130101FE 		addi	sp,sp,-32
 288              		.cfi_def_cfa_offset 32
 289 0174 233C1100 		sd	ra,24(sp)
 290 0178 23388100 		sd	s0,16(sp)
 291 017c 23349100 		sd	s1,8(sp)
 292              		.cfi_offset 1, -8
 293              		.cfi_offset 8, -16
 294              		.cfi_offset 9, -24
 295 0180 13040102 		addi	s0,sp,32
 296              		.cfi_def_cfa 8, 0
 297 0184 93040500 		mv	s1,a0
 298 0188 13870500 		mv	a4,a1
  12:src/Buddy.cpp ****     for(size_t i = 0; i < 40; i++){
 299              		.loc 1 12 5
 300              	.LVL32:
  13:src/Buddy.cpp ****         if(arr[i] && arr[i]->size >= size + sizeof(size_t)){
 301              		.loc 1 13 5
 302              	.LBB28:
  13:src/Buddy.cpp ****         if(arr[i] && arr[i]->size >= size + sizeof(size_t)){
 303              		.loc 1 13 16 is_stmt 0
 304 018c 93050000 		li	a1,0
 305              	.LVL33:
 306 0190 6F008000 		j	.L19
 307              	.LVL34:
 308              	.L18:
  13:src/Buddy.cpp ****         if(arr[i] && arr[i]->size >= size + sizeof(size_t)){
 309              		.loc 1 13 5 is_stmt 1 discriminator 2
 310 0194 93851500 		addi	a1,a1,1
 311              	.LVL35:
 312              	.L19:
  13:src/Buddy.cpp ****         if(arr[i] && arr[i]->size >= size + sizeof(size_t)){
 313              		.loc 1 13 25 discriminator 1
 314 0198 93077002 		li	a5,39
 315 019c 63E0B706 		bgtu	a1,a5,.L23
  14:src/Buddy.cpp ****             position = splitAndOrder(i, size + sizeof(size_t));
 316              		.loc 1 14 9
  14:src/Buddy.cpp ****             position = splitAndOrder(i, size + sizeof(size_t));
GAS LISTING /tmp/cckrRXLU.s 			page 10


 317              		.loc 1 14 17 is_stmt 0
 318 01a0 93973500 		slli	a5,a1,3
 319 01a4 B387F400 		add	a5,s1,a5
 320 01a8 83B70700 		ld	a5,0(a5)
  14:src/Buddy.cpp ****             position = splitAndOrder(i, size + sizeof(size_t));
 321              		.loc 1 14 9
 322 01ac E38407FE 		beqz	a5,.L18
  14:src/Buddy.cpp ****             position = splitAndOrder(i, size + sizeof(size_t));
 323              		.loc 1 14 30 discriminator 1
 324 01b0 83B78700 		ld	a5,8(a5)
  14:src/Buddy.cpp ****             position = splitAndOrder(i, size + sizeof(size_t));
 325              		.loc 1 14 43 discriminator 1
 326 01b4 13068700 		addi	a2,a4,8
  14:src/Buddy.cpp ****             position = splitAndOrder(i, size + sizeof(size_t));
 327              		.loc 1 14 19 discriminator 1
 328 01b8 E3EEC7FC 		bltu	a5,a2,.L18
  15:src/Buddy.cpp ****             break;
 329              		.loc 1 15 13 is_stmt 1
  15:src/Buddy.cpp ****             break;
 330              		.loc 1 15 37 is_stmt 0
 331 01bc 13850400 		mv	a0,s1
 332 01c0 97000000 		call	_ZN11BuddySystem13splitAndOrderEmm
 332      E7800000 
 333              	.LVL36:
  16:src/Buddy.cpp ****         }
 334              		.loc 1 16 13 is_stmt 1
 335              	.L17:
 336              	.LBE28:
  19:src/Buddy.cpp ****     MemNode* node = arr[position];
 337              		.loc 1 19 5
 338 01c8 93072003 		li	a5,50
 339 01cc 630AF504 		beq	a0,a5,.L24
  20:src/Buddy.cpp ****     arr[position] = arr[position]->next;
 340              		.loc 1 20 5
  20:src/Buddy.cpp ****     arr[position] = arr[position]->next;
 341              		.loc 1 20 14 is_stmt 0
 342 01d0 93173500 		slli	a5,a0,3
 343 01d4 B384F400 		add	s1,s1,a5
 344              	.LVL37:
 345 01d8 83B60400 		ld	a3,0(s1)
 346              	.LVL38:
  21:src/Buddy.cpp ****     node->next = nullptr;
 347              		.loc 1 21 5 is_stmt 1
  21:src/Buddy.cpp ****     node->next = nullptr;
 348              		.loc 1 21 36 is_stmt 0
 349 01dc 83B70600 		ld	a5,0(a3)
  21:src/Buddy.cpp ****     node->next = nullptr;
 350              		.loc 1 21 19
 351 01e0 23B0F400 		sd	a5,0(s1)
  22:src/Buddy.cpp **** 
 352              		.loc 1 22 5 is_stmt 1
  24:src/Buddy.cpp ****     return (void*)((size_t)node + sizeof(size_t));
 353              		.loc 1 24 5
 354              	.LVL39:
 355              	.LBB29:
 356              	.LBB30:
  46:src/../h/Buddy.h ****         for(size_t i = 0; i < deg; i++){
GAS LISTING /tmp/cckrRXLU.s 			page 11


 357              		.loc 2 46 9
  47:src/../h/Buddy.h ****             tmp <<= 1;
 358              		.loc 2 47 9
 359              	.LBB31:
  47:src/../h/Buddy.h ****             tmp <<= 1;
 360              		.loc 2 47 20 is_stmt 0
 361 01e4 93070000 		li	a5,0
 362              	.LBE31:
  46:src/../h/Buddy.h ****         for(size_t i = 0; i < deg; i++){
 363              		.loc 2 46 16
 364 01e8 13071000 		li	a4,1
 365              	.LVL40:
 366              	.L22:
 367              	.LBB32:
  47:src/../h/Buddy.h ****             tmp <<= 1;
 368              		.loc 2 47 29 is_stmt 1
 369 01ec 63FCA700 		bleu	a0,a5,.L21
 370              		.loc 2 48 13
 371              		.loc 2 48 17 is_stmt 0
 372 01f0 13171700 		slli	a4,a4,1
 373              	.LVL41:
  47:src/../h/Buddy.h ****             tmp <<= 1;
 374              		.loc 2 47 9 is_stmt 1
 375 01f4 93871700 		addi	a5,a5,1
 376              	.LVL42:
 377 01f8 6FF05FFF 		j	.L22
 378              	.LVL43:
 379              	.L23:
 380              	.LBE32:
 381              	.LBE30:
 382              	.LBE29:
  12:src/Buddy.cpp ****     for(size_t i = 0; i < 40; i++){
 383              		.loc 1 12 12 is_stmt 0
 384 01fc 13052003 		li	a0,50
 385 0200 6FF09FFC 		j	.L17
 386              	.LVL44:
 387              	.L21:
 388              	.LBB34:
 389              	.LBB33:
  49:src/../h/Buddy.h ****         }
  50:src/../h/Buddy.h ****         return tmp;
 390              		.loc 2 50 9 is_stmt 1
 391              	.LBE33:
 392              	.LBE34:
  24:src/Buddy.cpp ****     return (void*)((size_t)node + sizeof(size_t));
 393              		.loc 1 24 22 is_stmt 0
 394 0204 23B0E600 		sd	a4,0(a3)
  25:src/Buddy.cpp **** }
 395              		.loc 1 25 5 is_stmt 1
  25:src/Buddy.cpp **** }
 396              		.loc 1 25 33 is_stmt 0
 397 0208 13858600 		addi	a0,a3,8
 398              	.LVL45:
 399              	.L16:
  26:src/Buddy.cpp **** 
 400              		.loc 1 26 1
 401 020c 83308101 		ld	ra,24(sp)
GAS LISTING /tmp/cckrRXLU.s 			page 12


 402              		.cfi_remember_state
 403              		.cfi_restore 1
 404 0210 03340101 		ld	s0,16(sp)
 405              		.cfi_restore 8
 406              		.cfi_def_cfa 2, 32
 407 0214 83348100 		ld	s1,8(sp)
 408              		.cfi_restore 9
 409 0218 13010102 		addi	sp,sp,32
 410              		.cfi_def_cfa_offset 0
 411 021c 67800000 		jr	ra
 412              	.LVL46:
 413              	.L24:
 414              		.cfi_restore_state
  19:src/Buddy.cpp ****     MemNode* node = arr[position];
 415              		.loc 1 19 30
 416 0220 13050000 		li	a0,0
 417              	.LVL47:
 418 0224 6FF09FFE 		j	.L16
 419              		.cfi_endproc
 420              	.LFE7:
 422              		.align	2
 423              		.globl	_ZN11BuddySystem10tryToMergeEPNS_7MemNodeES1_m
 425              	_ZN11BuddySystem10tryToMergeEPNS_7MemNodeES1_m:
 426              	.LFB11:
 103:src/Buddy.cpp **** 
 104:src/Buddy.cpp **** // vraca -1 ukoliko nije spojeno, ukoliko jeste vraca poziciju na kojoj je element ubacen
 105:src/Buddy.cpp **** int BuddySystem::tryToMerge(BuddySystem::MemNode *left, BuddySystem::MemNode *right, size_t positio
 427              		.loc 1 105 103 is_stmt 1
 428              		.cfi_startproc
 429              	.LVL48:
 106:src/Buddy.cpp ****     if(left && right && ((size_t)left + left->size == (size_t)right) && (((size_t)left - buddyHeapS
 430              		.loc 1 106 5
 431              	.LBB35:
 432              		.loc 1 106 70 is_stmt 0
 433 0228 638C050A 		beqz	a1,.L34
 434              		.loc 1 106 13 discriminator 1
 435 022c 630E060A 		beqz	a2,.L35
 436              		.loc 1 106 47 discriminator 3
 437 0230 83B88500 		ld	a7,8(a1)
 438              		.loc 1 106 39 discriminator 3
 439 0234 B387B800 		add	a5,a7,a1
 440              		.loc 1 106 22 discriminator 3
 441 0238 639CC70A 		bne	a5,a2,.L36
 442              		.loc 1 106 90 discriminator 5
 443 023c 03370514 		ld	a4,320(a0)
 444              		.loc 1 106 88 discriminator 5
 445 0240 3388E540 		sub	a6,a1,a4
 446              	.LVL49:
 447              	.LBB36:
 448              	.LBB37:
  46:src/../h/Buddy.h ****         for(size_t i = 0; i < deg; i++){
 449              		.loc 2 46 9 is_stmt 1 discriminator 5
  47:src/../h/Buddy.h ****             tmp <<= 1;
 450              		.loc 2 47 9 discriminator 5
 451              	.LBB38:
  47:src/../h/Buddy.h ****             tmp <<= 1;
 452              		.loc 2 47 20 is_stmt 0 discriminator 5
GAS LISTING /tmp/cckrRXLU.s 			page 13


 453 0244 93070000 		li	a5,0
 454              	.LBE38:
  46:src/../h/Buddy.h ****         for(size_t i = 0; i < deg; i++){
 455              		.loc 2 46 16 discriminator 5
 456 0248 13071000 		li	a4,1
 457              	.LVL50:
 458              	.L29:
 459              	.LBB39:
  47:src/../h/Buddy.h ****             tmp <<= 1;
 460              		.loc 2 47 29 is_stmt 1
 461 024c 63F8D700 		bleu	a3,a5,.L28
  48:src/../h/Buddy.h ****         }
 462              		.loc 2 48 13
  48:src/../h/Buddy.h ****         }
 463              		.loc 2 48 17 is_stmt 0
 464 0250 13171700 		slli	a4,a4,1
 465              	.LVL51:
  47:src/../h/Buddy.h ****             tmp <<= 1;
 466              		.loc 2 47 9 is_stmt 1
 467 0254 93871700 		addi	a5,a5,1
 468              	.LVL52:
 469 0258 6FF05FFF 		j	.L29
 470              	.L28:
 471              	.LBE39:
 472              		.loc 2 50 9
 473              	.LVL53:
 474              	.LBE37:
 475              	.LBE36:
 476              		.loc 1 106 106 is_stmt 0
 477 025c 3377E802 		remu	a4,a6,a4
 478              		.loc 1 106 70
 479 0260 631C0708 		bnez	a4,.L37
 480              	.LBE35:
 105:src/Buddy.cpp ****     if(left && right && ((size_t)left + left->size == (size_t)right) && (((size_t)left - buddyHeapS
 481              		.loc 1 105 103
 482 0264 130101FF 		addi	sp,sp,-16
 483              		.cfi_def_cfa_offset 16
 484 0268 23341100 		sd	ra,8(sp)
 485 026c 23308100 		sd	s0,0(sp)
 486              		.cfi_offset 1, -8
 487              		.cfi_offset 8, -16
 488 0270 13040101 		addi	s0,sp,16
 489              		.cfi_def_cfa 8, 0
 490              	.LBB43:
 491              	.LBB40:
 107:src/Buddy.cpp ****         left->size <<= 1;
 492              		.loc 1 107 9 is_stmt 1
 493              		.loc 1 107 20 is_stmt 0
 494 0274 93981800 		slli	a7,a7,1
 495 0278 23B41501 		sd	a7,8(a1)
 108:src/Buddy.cpp ****         MemNode* prev = nullptr;
 496              		.loc 1 108 9 is_stmt 1
 497              	.LVL54:
 109:src/Buddy.cpp ****         for(MemNode* curr = arr[position]; curr != left; curr = curr->next){
 498              		.loc 1 109 9
 499              	.LBB41:
 500              		.loc 1 109 22 is_stmt 0
GAS LISTING /tmp/cckrRXLU.s 			page 14


 501 027c 93973600 		slli	a5,a3,3
 502 0280 B307F500 		add	a5,a0,a5
 503 0284 83B70700 		ld	a5,0(a5)
 504              	.LVL55:
 505              	.L31:
 506              		.loc 1 109 49 is_stmt 1 discriminator 3
 507 0288 6388B700 		beq	a5,a1,.L30
 110:src/Buddy.cpp ****             prev = curr;
 508              		.loc 1 110 13 discriminator 2
 509              	.LVL56:
 109:src/Buddy.cpp ****         for(MemNode* curr = arr[position]; curr != left; curr = curr->next){
 510              		.loc 1 109 9 discriminator 2
 511              		.loc 1 110 18 is_stmt 0 discriminator 2
 512 028c 13870700 		mv	a4,a5
 109:src/Buddy.cpp ****         for(MemNode* curr = arr[position]; curr != left; curr = curr->next){
 513              		.loc 1 109 63 discriminator 2
 514 0290 83B70700 		ld	a5,0(a5)
 515              	.LVL57:
 109:src/Buddy.cpp ****         for(MemNode* curr = arr[position]; curr != left; curr = curr->next){
 516              		.loc 1 109 9 discriminator 2
 517 0294 6FF05FFF 		j	.L31
 518              	.L30:
 519              	.LBE41:
 111:src/Buddy.cpp ****         }
 112:src/Buddy.cpp ****         if(prev){
 520              		.loc 1 112 9 is_stmt 1
 521 0298 630A0702 		beqz	a4,.L32
 113:src/Buddy.cpp ****             prev->next = right->next;
 522              		.loc 1 113 13
 523              		.loc 1 113 33 is_stmt 0
 524 029c 83370600 		ld	a5,0(a2)
 525              	.LVL58:
 526              		.loc 1 113 24
 527 02a0 2330F700 		sd	a5,0(a4)
 528              	.LVL59:
 529              	.L33:
 114:src/Buddy.cpp ****         }else{
 115:src/Buddy.cpp ****             arr[position] = right->next;
 116:src/Buddy.cpp ****         }
 117:src/Buddy.cpp ****         right->next = nullptr;
 530              		.loc 1 117 9 is_stmt 1
 531              		.loc 1 117 21 is_stmt 0
 532 02a4 23300600 		sd	zero,0(a2)
 118:src/Buddy.cpp ****         left->next = nullptr;
 533              		.loc 1 118 9 is_stmt 1
 534              		.loc 1 118 20 is_stmt 0
 535 02a8 23B00500 		sd	zero,0(a1)
 119:src/Buddy.cpp **** //        *(size_t*)(left - sizeof(size_t)) = left->size;
 120:src/Buddy.cpp ****         size_t insertPosition = insertInArray(position + 1, (size_t)left);
 536              		.loc 1 120 9 is_stmt 1
 537              		.loc 1 120 46 is_stmt 0
 538 02ac 13860500 		mv	a2,a1
 539              	.LVL60:
 540 02b0 93851600 		addi	a1,a3,1
 541              	.LVL61:
 542 02b4 97000000 		call	_ZN11BuddySystem13insertInArrayEmm
 542      E7800000 
GAS LISTING /tmp/cckrRXLU.s 			page 15


 543              	.LVL62:
 121:src/Buddy.cpp ****         // nema svrhu, samo testiranje da ne bi bilo optimizacije
 122:src/Buddy.cpp ****         left = arr[position];
 544              		.loc 1 122 9 is_stmt 1
 123:src/Buddy.cpp ****         return (int)insertPosition;
 545              		.loc 1 123 9
 546              	.LBE40:
 547              	.LBE43:
 124:src/Buddy.cpp ****     }
 125:src/Buddy.cpp ****     return -1;
 126:src/Buddy.cpp **** }
 548              		.loc 1 126 1 is_stmt 0
 549 02bc 83308100 		ld	ra,8(sp)
 550              		.cfi_remember_state
 551              		.cfi_restore 1
 552 02c0 03340100 		ld	s0,0(sp)
 553              		.cfi_restore 8
 554              		.cfi_def_cfa 2, 16
 555 02c4 13010101 		addi	sp,sp,16
 556              		.cfi_def_cfa_offset 0
 557 02c8 67800000 		jr	ra
 558              	.LVL63:
 559              	.L32:
 560              		.cfi_restore_state
 561              	.LBB44:
 562              	.LBB42:
 115:src/Buddy.cpp ****         }
 563              		.loc 1 115 13 is_stmt 1
 115:src/Buddy.cpp ****         }
 564              		.loc 1 115 36 is_stmt 0
 565 02cc 03370600 		ld	a4,0(a2)
 566              	.LVL64:
 115:src/Buddy.cpp ****         }
 567              		.loc 1 115 27
 568 02d0 93973600 		slli	a5,a3,3
 569              	.LVL65:
 570 02d4 B307F500 		add	a5,a0,a5
 571 02d8 23B0E700 		sd	a4,0(a5)
 572 02dc 6FF09FFC 		j	.L33
 573              	.L34:
 574              		.cfi_def_cfa_register 2
 575              		.cfi_restore 1
 576              		.cfi_restore 8
 577              	.LBE42:
 578              	.LBE44:
 125:src/Buddy.cpp **** }
 579              		.loc 1 125 13
 580 02e0 1305F0FF 		li	a0,-1
 581              	.LVL66:
 582 02e4 67800000 		ret
 583              	.LVL67:
 584              	.L35:
 585 02e8 1305F0FF 		li	a0,-1
 586              	.LVL68:
 587 02ec 67800000 		ret
 588              	.LVL69:
 589              	.L36:
GAS LISTING /tmp/cckrRXLU.s 			page 16


 590 02f0 1305F0FF 		li	a0,-1
 591              	.LVL70:
 592 02f4 67800000 		ret
 593              	.LVL71:
 594              	.L37:
 595 02f8 1305F0FF 		li	a0,-1
 596              	.LVL72:
 597              		.loc 1 126 1
 598 02fc 67800000 		ret
 599              		.cfi_endproc
 600              	.LFE11:
 602              		.align	2
 603              		.globl	_ZN11BuddySystem9buddyFreeEm
 605              	_ZN11BuddySystem9buddyFreeEm:
 606              	.LFB8:
  28:src/Buddy.cpp ****     size_t size = *(size_t*)(addr - sizeof(size_t));
 607              		.loc 1 28 42 is_stmt 1
 608              		.cfi_startproc
 609              	.LVL73:
  29:src/Buddy.cpp ****     if((void*)addr == nullptr || size == 0)return;
 610              		.loc 1 29 5
  29:src/Buddy.cpp ****     if((void*)addr == nullptr || size == 0)return;
 611              		.loc 1 29 12 is_stmt 0
 612 0300 83B685FF 		ld	a3,-8(a1)
 613              	.LVL74:
  30:src/Buddy.cpp ****     size_t position = log(size);
 614              		.loc 1 30 5 is_stmt 1
 615 0304 63880512 		beqz	a1,.L57
  28:src/Buddy.cpp ****     size_t size = *(size_t*)(addr - sizeof(size_t));
 616              		.loc 1 28 42 is_stmt 0 discriminator 2
 617 0308 130101FD 		addi	sp,sp,-48
 618              		.cfi_def_cfa_offset 48
 619 030c 23341102 		sd	ra,40(sp)
 620 0310 23308102 		sd	s0,32(sp)
 621 0314 233C9100 		sd	s1,24(sp)
 622 0318 23382101 		sd	s2,16(sp)
 623 031c 23343101 		sd	s3,8(sp)
 624 0320 23304101 		sd	s4,0(sp)
 625              		.cfi_offset 1, -8
 626              		.cfi_offset 8, -16
 627              		.cfi_offset 9, -24
 628              		.cfi_offset 18, -32
 629              		.cfi_offset 19, -40
 630              		.cfi_offset 20, -48
 631 0324 13040103 		addi	s0,sp,48
 632              		.cfi_def_cfa 8, 0
 633 0328 130A0500 		mv	s4,a0
 634 032c 138685FF 		addi	a2,a1,-8
  30:src/Buddy.cpp ****     size_t position = log(size);
 635              		.loc 1 30 31 discriminator 2
 636 0330 6382060E 		beqz	a3,.L42
 637 0334 93870600 		mv	a5,a3
 638              	.LBB45:
 639              	.LBB46:
  51:src/../h/Buddy.h ****     }
  52:src/../h/Buddy.h **** 
  53:src/../h/Buddy.h ****     size_t static log(size_t size){
GAS LISTING /tmp/cckrRXLU.s 			page 17


  54:src/../h/Buddy.h ****         size_t deg = 0;
 640              		.loc 2 54 16
 641 0338 93090000 		li	s3,0
 642              	.L45:
 643              	.LVL75:
  55:src/../h/Buddy.h ****         while(size > 1){
 644              		.loc 2 55 9 is_stmt 1
 645              		.loc 2 55 20
 646 033c 13071000 		li	a4,1
 647 0340 6378F700 		bleu	a5,a4,.L44
  56:src/../h/Buddy.h ****             size >>= 1;
 648              		.loc 2 56 13
 649              		.loc 2 56 18 is_stmt 0
 650 0344 93D71700 		srli	a5,a5,1
 651              	.LVL76:
  57:src/../h/Buddy.h ****             deg++;
 652              		.loc 2 57 13 is_stmt 1
 653              		.loc 2 57 16 is_stmt 0
 654 0348 93891900 		addi	s3,s3,1
 655              	.LVL77:
  55:src/../h/Buddy.h ****         while(size > 1){
 656              		.loc 2 55 9
 657 034c 6FF01FFF 		j	.L45
 658              	.L44:
  58:src/../h/Buddy.h ****         }
  59:src/../h/Buddy.h ****         return deg;
 659              		.loc 2 59 9 is_stmt 1
 660              	.LVL78:
 661              	.LBE46:
 662              	.LBE45:
  32:src/Buddy.cpp ****     newNode->next = nullptr;
 663              		.loc 1 32 5
  33:src/Buddy.cpp ****     newNode->size = size;
 664              		.loc 1 33 5
  33:src/Buddy.cpp ****     newNode->size = size;
 665              		.loc 1 33 19 is_stmt 0
 666 0350 23BC05FE 		sd	zero,-8(a1)
  34:src/Buddy.cpp ****     int merged = (int)insertInArray(position, (size_t)newNode);
 667              		.loc 1 34 5 is_stmt 1
  34:src/Buddy.cpp ****     int merged = (int)insertInArray(position, (size_t)newNode);
 668              		.loc 1 34 19 is_stmt 0
 669 0354 2334D600 		sd	a3,8(a2)
  35:src/Buddy.cpp ****     while(merged != -1){
 670              		.loc 1 35 5 is_stmt 1
  35:src/Buddy.cpp ****     while(merged != -1){
 671              		.loc 1 35 36 is_stmt 0
 672 0358 93850900 		mv	a1,s3
 673              	.LVL79:
 674 035c 13050A00 		mv	a0,s4
 675              	.LVL80:
 676 0360 97000000 		call	_ZN11BuddySystem13insertInArrayEmm
 676      E7800000 
 677              	.LVL81:
 678 0368 6F00C007 		j	.L46
 679              	.LVL82:
 680              	.L48:
 681              	.LBB47:
GAS LISTING /tmp/cckrRXLU.s 			page 18


 682              	.LBB48:
  38:src/Buddy.cpp ****             prev = curr;
 683              		.loc 1 38 9 is_stmt 1 discriminator 2
 684 036c 1B071700 		addiw	a4,a4,1
 685              	.LVL83:
  39:src/Buddy.cpp ****             curr = curr->next;
 686              		.loc 1 39 18 is_stmt 0 discriminator 2
 687 0370 93850400 		mv	a1,s1
  40:src/Buddy.cpp ****             if(curr)next = curr->next;
 688              		.loc 1 40 18 discriminator 2
 689 0374 93840700 		mv	s1,a5
 690              	.LVL84:
 691              	.L49:
  38:src/Buddy.cpp ****             prev = curr;
 692              		.loc 1 38 26 is_stmt 1 discriminator 1
 693 0378 635AA700 		ble	a0,a4,.L47
  39:src/Buddy.cpp ****             curr = curr->next;
 694              		.loc 1 39 13
 695              	.LVL85:
  40:src/Buddy.cpp ****             if(curr)next = curr->next;
 696              		.loc 1 40 13
  40:src/Buddy.cpp ****             if(curr)next = curr->next;
 697              		.loc 1 40 18 is_stmt 0
 698 037c 83B70400 		ld	a5,0(s1)
 699              	.LVL86:
  41:src/Buddy.cpp ****         }
 700              		.loc 1 41 13 is_stmt 1
 701 0380 E38607FE 		beqz	a5,.L48
  41:src/Buddy.cpp ****         }
 702              		.loc 1 41 21 discriminator 1
  41:src/Buddy.cpp ****         }
 703              		.loc 1 41 26 is_stmt 0 discriminator 1
 704 0384 03B90700 		ld	s2,0(a5)
 705              	.LVL87:
 706 0388 6FF05FFE 		j	.L48
 707              	.LVL88:
 708              	.L47:
 709              	.LBE48:
  43:src/Buddy.cpp ****             next = curr->next;
 710              		.loc 1 43 9 is_stmt 1
 711 038c 63160500 		bnez	a0,.L50
  43:src/Buddy.cpp ****             next = curr->next;
 712              		.loc 1 43 24 is_stmt 0 discriminator 1
 713 0390 63840400 		beqz	s1,.L50
  44:src/Buddy.cpp ****         }
 714              		.loc 1 44 13 is_stmt 1
  44:src/Buddy.cpp ****         }
 715              		.loc 1 44 18 is_stmt 0
 716 0394 03B90400 		ld	s2,0(s1)
 717              	.LVL89:
 718              	.L50:
  47:src/Buddy.cpp ****             merged = -1;
 719              		.loc 1 47 9 is_stmt 1
 720 0398 63880506 		beqz	a1,.L60
 721              	.LVL90:
 722              	.L51:
  50:src/Buddy.cpp ****             merged = tryToMerge(prev, curr, position);
GAS LISTING /tmp/cckrRXLU.s 			page 19


 723              		.loc 1 50 9
 724 039c 638C0500 		beqz	a1,.L52
  51:src/Buddy.cpp ****         }
 725              		.loc 1 51 13
  51:src/Buddy.cpp ****         }
 726              		.loc 1 51 32 is_stmt 0
 727 03a0 93860900 		mv	a3,s3
 728 03a4 13860400 		mv	a2,s1
 729 03a8 13050A00 		mv	a0,s4
 730              	.LVL91:
 731 03ac 97000000 		call	_ZN11BuddySystem10tryToMergeEPNS_7MemNodeES1_m
 731      E7800000 
 732              	.LVL92:
 733              	.L52:
  53:src/Buddy.cpp ****             merged = tryToMerge(curr, next, position);
 734              		.loc 1 53 9 is_stmt 1
 735 03b4 9307F0FF 		li	a5,-1
 736 03b8 6300F502 		beq	a0,a5,.L53
  53:src/Buddy.cpp ****             merged = tryToMerge(curr, next, position);
 737              		.loc 1 53 27 is_stmt 0 discriminator 1
 738 03bc 630E0900 		beqz	s2,.L53
  54:src/Buddy.cpp ****         }
 739              		.loc 1 54 13 is_stmt 1
  54:src/Buddy.cpp ****         }
 740              		.loc 1 54 32 is_stmt 0
 741 03c0 93860900 		mv	a3,s3
 742 03c4 13060900 		mv	a2,s2
 743 03c8 93850400 		mv	a1,s1
 744 03cc 13050A00 		mv	a0,s4
 745              	.LVL93:
 746 03d0 97000000 		call	_ZN11BuddySystem10tryToMergeEPNS_7MemNodeES1_m
 746      E7800000 
 747              	.LVL94:
 748              	.L53:
  56:src/Buddy.cpp ****     }
 749              		.loc 1 56 9 is_stmt 1
 750 03d8 9307F0FF 		li	a5,-1
 751 03dc 6304F500 		beq	a0,a5,.L46
  56:src/Buddy.cpp ****     }
 752              		.loc 1 56 25 discriminator 1
  56:src/Buddy.cpp ****     }
 753              		.loc 1 56 33 is_stmt 0 discriminator 1
 754 03e0 93891900 		addi	s3,s3,1
 755              	.LVL95:
 756              	.L46:
 757              	.LBE47:
  36:src/Buddy.cpp ****         MemNode* curr = arr[position], *prev = nullptr, *next = nullptr;
 758              		.loc 1 36 5 is_stmt 1
  36:src/Buddy.cpp ****         MemNode* curr = arr[position], *prev = nullptr, *next = nullptr;
 759              		.loc 1 36 18
 760 03e4 9307F0FF 		li	a5,-1
 761 03e8 6306F502 		beq	a0,a5,.L42
 762              	.LBB50:
  37:src/Buddy.cpp ****         for(int i = 0; i < merged; i++){
 763              		.loc 1 37 9
  37:src/Buddy.cpp ****         for(int i = 0; i < merged; i++){
 764              		.loc 1 37 18 is_stmt 0
GAS LISTING /tmp/cckrRXLU.s 			page 20


 765 03ec 93973900 		slli	a5,s3,3
 766 03f0 B307FA00 		add	a5,s4,a5
 767 03f4 83B40700 		ld	s1,0(a5)
 768              	.LVL96:
  38:src/Buddy.cpp ****             prev = curr;
 769              		.loc 1 38 9 is_stmt 1
 770              	.LBB49:
  38:src/Buddy.cpp ****             prev = curr;
 771              		.loc 1 38 17 is_stmt 0
 772 03f8 13070000 		li	a4,0
 773              	.LBE49:
  37:src/Buddy.cpp ****         for(int i = 0; i < merged; i++){
 774              		.loc 1 37 58
 775 03fc 13090000 		li	s2,0
  37:src/Buddy.cpp ****         for(int i = 0; i < merged; i++){
 776              		.loc 1 37 41
 777 0400 93050000 		li	a1,0
 778 0404 6FF05FF7 		j	.L49
 779              	.LVL97:
 780              	.L60:
  47:src/Buddy.cpp ****             merged = -1;
 781              		.loc 1 47 18 discriminator 1
 782 0408 E31A09F8 		bnez	s2,.L51
  48:src/Buddy.cpp ****         }
 783              		.loc 1 48 20
 784 040c 1305F0FF 		li	a0,-1
 785              	.LVL98:
 786 0410 6FF0DFF8 		j	.L51
 787              	.LVL99:
 788              	.L42:
 789              	.LBE50:
  58:src/Buddy.cpp **** 
 790              		.loc 1 58 1
 791 0414 83308102 		ld	ra,40(sp)
 792              		.cfi_restore 1
 793 0418 03340102 		ld	s0,32(sp)
 794              		.cfi_restore 8
 795              		.cfi_def_cfa 2, 48
 796 041c 83348101 		ld	s1,24(sp)
 797              		.cfi_restore 9
 798 0420 03390101 		ld	s2,16(sp)
 799              		.cfi_restore 18
 800 0424 83398100 		ld	s3,8(sp)
 801              		.cfi_restore 19
 802 0428 033A0100 		ld	s4,0(sp)
 803              		.cfi_restore 20
 804              	.LVL100:
 805 042c 13010103 		addi	sp,sp,48
 806              		.cfi_def_cfa_offset 0
 807 0430 67800000 		jr	ra
 808              	.LVL101:
 809              	.L57:
 810 0434 67800000 		ret
 811              		.cfi_endproc
 812              	.LFE8:
 814              		.align	2
 815              		.globl	_ZN11BuddySystem9initBuddyEv
GAS LISTING /tmp/cckrRXLU.s 			page 21


 817              	_ZN11BuddySystem9initBuddyEv:
 818              	.LFB12:
 127:src/Buddy.cpp **** 
 128:src/Buddy.cpp **** void BuddySystem::initBuddy() {
 819              		.loc 1 128 31 is_stmt 1
 820              		.cfi_startproc
 821              	.LVL102:
 822 0438 130101FF 		addi	sp,sp,-16
 823              		.cfi_def_cfa_offset 16
 824 043c 23348100 		sd	s0,8(sp)
 825              		.cfi_offset 8, -8
 826 0440 13040101 		addi	s0,sp,16
 827              		.cfi_def_cfa 8, 0
 129:src/Buddy.cpp ****     buddyHeapEnd = buddyHeapStart + buddyNumOfBlocks * BLOCK_SIZE;
 828              		.loc 1 129 5
 829              		.loc 1 129 20 is_stmt 0
 830 0444 03360514 		ld	a2,320(a0)
 831              		.loc 1 129 37
 832 0448 83370515 		ld	a5,336(a0)
 833              		.loc 1 129 54
 834 044c 9397C700 		slli	a5,a5,12
 835              		.loc 1 129 35
 836 0450 3306F600 		add	a2,a2,a5
 837              		.loc 1 129 18
 838 0454 2334C514 		sd	a2,328(a0)
 130:src/Buddy.cpp **** //    buddyHeapEnd = (size_t)HEAP_START_ADDR + ((size_t)HEAP_END_ADDR - 1 - (size_t)HEAP_START_ADDR
 131:src/Buddy.cpp ****     size_t deg = 0, size = 1, realSize = buddyHeapEnd - (size_t)HEAP_START_ADDR, heapStart = (size_
 839              		.loc 1 131 5 is_stmt 1
 840              	.LVL103:
 841              		.loc 1 131 55 is_stmt 0
 842 0458 97070000 		la	a5,HEAP_START_ADDR
 842      83B70700 
 843 0460 83B60700 		ld	a3,0(a5)
 844              		.loc 1 131 31
 845 0464 3306D640 		sub	a2,a2,a3
 846              	.LVL104:
 847              		.loc 1 131 21
 848 0468 93071000 		li	a5,1
 849              		.loc 1 131 12
 850 046c 13070000 		li	a4,0
 851              	.LVL105:
 852              	.L63:
 132:src/Buddy.cpp **** 
 133:src/Buddy.cpp ****     while(size <= realSize){
 853              		.loc 1 133 5 is_stmt 1
 854              		.loc 1 133 16
 855 0470 6368F600 		bgtu	a5,a2,.L62
 134:src/Buddy.cpp ****         deg++;
 856              		.loc 1 134 9
 857              		.loc 1 134 12 is_stmt 0
 858 0474 13071700 		addi	a4,a4,1
 859              	.LVL106:
 135:src/Buddy.cpp ****         size <<= 1;
 860              		.loc 1 135 9 is_stmt 1
 861              		.loc 1 135 14 is_stmt 0
 862 0478 93971700 		slli	a5,a5,1
 863              	.LVL107:
GAS LISTING /tmp/cckrRXLU.s 			page 22


 133:src/Buddy.cpp ****         deg++;
 864              		.loc 1 133 5
 865 047c 6FF05FFF 		j	.L63
 866              	.L62:
 136:src/Buddy.cpp ****     }
 137:src/Buddy.cpp ****     size >>= 1;
 867              		.loc 1 137 5 is_stmt 1
 868              		.loc 1 137 10 is_stmt 0
 869 0480 93D71700 		srli	a5,a5,1
 870              	.LVL108:
 138:src/Buddy.cpp ****     deg--;
 871              		.loc 1 138 5 is_stmt 1
 872              		.loc 1 138 8 is_stmt 0
 873 0484 1307F7FF 		addi	a4,a4,-1
 874              	.LVL109:
 139:src/Buddy.cpp **** 
 140:src/Buddy.cpp ****     // razdvajanje ostatka prostora
 141:src/Buddy.cpp ****     int cnt = 0;
 875              		.loc 1 141 5 is_stmt 1
 142:src/Buddy.cpp ****     size_t boundary = log(BLOCK_SIZE);
 876              		.loc 1 142 5
 877              	.LBB51:
 878              	.LBB52:
  54:src/../h/Buddy.h ****         while(size > 1){
 879              		.loc 2 54 9
  54:src/../h/Buddy.h ****         while(size > 1){
 880              		.loc 2 54 16 is_stmt 0
 881 0488 13080000 		li	a6,0
 882              	.LBE52:
 883              	.LBE51:
 138:src/Buddy.cpp **** 
 884              		.loc 1 138 8
 885 048c B7150000 		li	a1,4096
 886              	.LVL110:
 887              	.L65:
 888              	.LBB54:
 889              	.LBB53:
  55:src/../h/Buddy.h ****             size >>= 1;
 890              		.loc 2 55 9 is_stmt 1
  55:src/../h/Buddy.h ****             size >>= 1;
 891              		.loc 2 55 20
 892 0490 93081000 		li	a7,1
 893 0494 63FCB800 		bleu	a1,a7,.L64
  56:src/../h/Buddy.h ****             deg++;
 894              		.loc 2 56 13
  56:src/../h/Buddy.h ****             deg++;
 895              		.loc 2 56 18 is_stmt 0
 896 0498 93D51500 		srli	a1,a1,1
 897              	.LVL111:
  57:src/../h/Buddy.h ****         }
 898              		.loc 2 57 13 is_stmt 1
  57:src/../h/Buddy.h ****         }
 899              		.loc 2 57 16 is_stmt 0
 900 049c 13081800 		addi	a6,a6,1
 901              	.LVL112:
  55:src/../h/Buddy.h ****             size >>= 1;
 902              		.loc 2 55 9
GAS LISTING /tmp/cckrRXLU.s 			page 23


 903 04a0 6FF01FFF 		j	.L65
 904              	.LVL113:
 905              	.L70:
 906              	.LBE53:
 907              	.LBE54:
 908              	.LBB55:
 143:src/Buddy.cpp ****     while(heapStart < buddyHeapEnd && size >= boundary) {
 144:src/Buddy.cpp ****         cnt++;
 145:src/Buddy.cpp ****         if(realSize < size){
 146:src/Buddy.cpp ****             deg--;
 909              		.loc 1 146 13 is_stmt 1 discriminator 1
 910              		.loc 1 146 16 is_stmt 0 discriminator 1
 911 04a4 1307F7FF 		addi	a4,a4,-1
 912              	.LVL114:
 147:src/Buddy.cpp ****             size >>=1;
 913              		.loc 1 147 13 is_stmt 1 discriminator 1
 914              		.loc 1 147 18 is_stmt 0 discriminator 1
 915 04a8 93D71700 		srli	a5,a5,1
 916              	.LVL115:
 148:src/Buddy.cpp ****             continue;
 917              		.loc 1 148 13 is_stmt 1 discriminator 1
 918              	.L64:
 919              	.LBE55:
 143:src/Buddy.cpp ****     while(heapStart < buddyHeapEnd && size >= boundary) {
 920              		.loc 1 143 5
 143:src/Buddy.cpp ****     while(heapStart < buddyHeapEnd && size >= boundary) {
 921              		.loc 1 143 36
 143:src/Buddy.cpp ****     while(heapStart < buddyHeapEnd && size >= boundary) {
 922              		.loc 1 143 23 is_stmt 0
 923 04ac 83358514 		ld	a1,328(a0)
 143:src/Buddy.cpp ****     while(heapStart < buddyHeapEnd && size >= boundary) {
 924              		.loc 1 143 36
 925 04b0 63FAB602 		bleu	a1,a3,.L61
 143:src/Buddy.cpp ****     while(heapStart < buddyHeapEnd && size >= boundary) {
 926              		.loc 1 143 36 discriminator 1
 927 04b4 63E80703 		bltu	a5,a6,.L61
 928              	.LBB56:
 144:src/Buddy.cpp ****         if(realSize < size){
 929              		.loc 1 144 9 is_stmt 1
 145:src/Buddy.cpp ****             deg--;
 930              		.loc 1 145 9
 931 04b8 E366F6FE 		bgtu	a5,a2,.L70
 149:src/Buddy.cpp ****         }
 150:src/Buddy.cpp **** 
 151:src/Buddy.cpp ****         MemNode *newNode = (MemNode *) heapStart;
 932              		.loc 1 151 9
 933              	.LVL116:
 152:src/Buddy.cpp ****         newNode->next = nullptr;
 934              		.loc 1 152 9
 935              		.loc 1 152 23 is_stmt 0
 936 04bc 23B00600 		sd	zero,0(a3)
 153:src/Buddy.cpp ****         newNode->size = size;
 937              		.loc 1 153 9 is_stmt 1
 938              		.loc 1 153 23 is_stmt 0
 939 04c0 23B4F600 		sd	a5,8(a3)
 154:src/Buddy.cpp ****         arr[deg] = newNode;
 940              		.loc 1 154 9 is_stmt 1
GAS LISTING /tmp/cckrRXLU.s 			page 24


 941              		.loc 1 154 18 is_stmt 0
 942 04c4 93153700 		slli	a1,a4,3
 943 04c8 B305B500 		add	a1,a0,a1
 944 04cc 23B0D500 		sd	a3,0(a1)
 155:src/Buddy.cpp **** 
 156:src/Buddy.cpp ****         realSize -= size;
 945              		.loc 1 156 9 is_stmt 1
 946              		.loc 1 156 18 is_stmt 0
 947 04d0 3306F640 		sub	a2,a2,a5
 948              	.LVL117:
 157:src/Buddy.cpp ****         heapStart += size;
 949              		.loc 1 157 9 is_stmt 1
 950              		.loc 1 157 19 is_stmt 0
 951 04d4 B386F600 		add	a3,a3,a5
 952              	.LVL118:
 158:src/Buddy.cpp ****         deg--;
 953              		.loc 1 158 9 is_stmt 1
 954              		.loc 1 158 12 is_stmt 0
 955 04d8 1307F7FF 		addi	a4,a4,-1
 956              	.LVL119:
 159:src/Buddy.cpp ****         size >>= 1;
 957              		.loc 1 159 9 is_stmt 1
 958              		.loc 1 159 14 is_stmt 0
 959 04dc 93D71700 		srli	a5,a5,1
 960              	.LVL120:
 961 04e0 6FF0DFFC 		j	.L64
 962              	.LVL121:
 963              	.L61:
 964              	.LBE56:
 160:src/Buddy.cpp ****     }
 161:src/Buddy.cpp **** };
 965              		.loc 1 161 1
 966 04e4 03348100 		ld	s0,8(sp)
 967              		.cfi_restore 8
 968              		.cfi_def_cfa 2, 16
 969 04e8 13010101 		addi	sp,sp,16
 970              		.cfi_def_cfa_offset 0
 971 04ec 67800000 		jr	ra
 972              		.cfi_endproc
 973              	.LFE12:
 975              	.Letext0:
 976              		.file 3 "src/../h/../lib/hw.h"
GAS LISTING /tmp/cckrRXLU.s 			page 25


DEFINED SYMBOLS
                            *ABS*:0000000000000000 Buddy.cpp
     /tmp/cckrRXLU.s:9      .text:0000000000000000 _ZN11BuddySystemC2Ev
     /tmp/cckrRXLU.s:13     .text:0000000000000000 .L0 
     /tmp/cckrRXLU.s:15     .text:0000000000000000 .L0 
     /tmp/cckrRXLU.s:16     .text:0000000000000004 .L0 
     /tmp/cckrRXLU.s:18     .text:0000000000000008 .L0 
     /tmp/cckrRXLU.s:20     .text:000000000000000c .L0 
     /tmp/cckrRXLU.s:22     .text:000000000000000c .L0 
     /tmp/cckrRXLU.s:23     .text:0000000000000010 .L0 
     /tmp/cckrRXLU.s:24     .text:0000000000000010 .L0 
     /tmp/cckrRXLU.s:26     .text:0000000000000014 .L0 
     /tmp/cckrRXLU.s:28     .text:0000000000000018 .L0 
     /tmp/cckrRXLU.s:9      .text:0000000000000000 _ZN11BuddySystemC1Ev
     /tmp/cckrRXLU.s:36     .text:0000000000000018 _ZN11BuddySystem13insertInArrayEmm
     /tmp/cckrRXLU.s:39     .text:0000000000000018 .L0 
     /tmp/cckrRXLU.s:41     .text:0000000000000018 .L0 
     /tmp/cckrRXLU.s:42     .text:000000000000001c .L0 
     /tmp/cckrRXLU.s:44     .text:0000000000000020 .L0 
     /tmp/cckrRXLU.s:46     .text:0000000000000024 .L0 
     /tmp/cckrRXLU.s:50     .text:0000000000000028 .L0 
     /tmp/cckrRXLU.s:51     .text:0000000000000028 .L0 
     /tmp/cckrRXLU.s:52     .text:0000000000000028 .L0 
     /tmp/cckrRXLU.s:56     .text:0000000000000034 .L0 
     /tmp/cckrRXLU.s:58     .text:0000000000000038 .L0 
     /tmp/cckrRXLU.s:60     .text:000000000000003c .L0 
     /tmp/cckrRXLU.s:64     .text:0000000000000040 .L0 
     /tmp/cckrRXLU.s:65     .text:0000000000000040 .L0 
     /tmp/cckrRXLU.s:67     .text:0000000000000044 .L0 
     /tmp/cckrRXLU.s:70     .text:0000000000000048 .L0 
     /tmp/cckrRXLU.s:71     .text:0000000000000048 .L0 
     /tmp/cckrRXLU.s:72     .text:0000000000000048 .L0 
     /tmp/cckrRXLU.s:73     .text:0000000000000048 .L0 
     /tmp/cckrRXLU.s:76     .text:000000000000004c .L0 
     /tmp/cckrRXLU.s:78     .text:0000000000000050 .L0 
     /tmp/cckrRXLU.s:81     .text:0000000000000054 .L0 
     /tmp/cckrRXLU.s:85     .text:0000000000000058 .L0 
     /tmp/cckrRXLU.s:86     .text:0000000000000058 .L0 
     /tmp/cckrRXLU.s:91     .text:0000000000000064 .L0 
     /tmp/cckrRXLU.s:92     .text:0000000000000064 .L0 
     /tmp/cckrRXLU.s:98     .text:000000000000006c .L0 
     /tmp/cckrRXLU.s:99     .text:000000000000006c .L0 
     /tmp/cckrRXLU.s:101    .text:0000000000000070 .L0 
     /tmp/cckrRXLU.s:103    .text:0000000000000074 .L0 
     /tmp/cckrRXLU.s:104    .text:0000000000000074 .L0 
     /tmp/cckrRXLU.s:108    .text:0000000000000078 .L0 
     /tmp/cckrRXLU.s:109    .text:000000000000007c .L0 
     /tmp/cckrRXLU.s:110    .text:000000000000007c .L0 
     /tmp/cckrRXLU.s:111    .text:000000000000007c .L0 
     /tmp/cckrRXLU.s:113    .text:0000000000000080 .L0 
     /tmp/cckrRXLU.s:117    .text:0000000000000084 .L0 
     /tmp/cckrRXLU.s:119    .text:0000000000000084 .L0 
     /tmp/cckrRXLU.s:120    .text:0000000000000084 .L0 
     /tmp/cckrRXLU.s:126    .text:0000000000000094 .L0 
     /tmp/cckrRXLU.s:132    .text:0000000000000094 _ZN11BuddySystem13splitAndOrderEmm
     /tmp/cckrRXLU.s:135    .text:0000000000000094 .L0 
     /tmp/cckrRXLU.s:137    .text:0000000000000094 .L0 
GAS LISTING /tmp/cckrRXLU.s 			page 26


     /tmp/cckrRXLU.s:138    .text:0000000000000098 .L0 
     /tmp/cckrRXLU.s:146    .text:00000000000000b4 .L0 
     /tmp/cckrRXLU.s:147    .text:00000000000000b4 .L0 
     /tmp/cckrRXLU.s:148    .text:00000000000000b4 .L0 
     /tmp/cckrRXLU.s:149    .text:00000000000000b4 .L0 
     /tmp/cckrRXLU.s:150    .text:00000000000000b4 .L0 
     /tmp/cckrRXLU.s:151    .text:00000000000000b4 .L0 
     /tmp/cckrRXLU.s:152    .text:00000000000000b4 .L0 
     /tmp/cckrRXLU.s:154    .text:00000000000000b8 .L0 
     /tmp/cckrRXLU.s:163    .text:00000000000000c4 .L0 
     /tmp/cckrRXLU.s:164    .text:00000000000000c4 .L0 
     /tmp/cckrRXLU.s:166    .text:00000000000000c4 .L0 
     /tmp/cckrRXLU.s:167    .text:00000000000000c4 .L0 
     /tmp/cckrRXLU.s:170    .text:00000000000000c8 .L0 
     /tmp/cckrRXLU.s:175    .text:00000000000000cc .L0 
     /tmp/cckrRXLU.s:177    .text:00000000000000d0 .L0 
     /tmp/cckrRXLU.s:178    .text:00000000000000d0 .L0 
     /tmp/cckrRXLU.s:181    .text:00000000000000d4 .L0 
     /tmp/cckrRXLU.s:190    .text:00000000000000dc .L0 
     /tmp/cckrRXLU.s:191    .text:00000000000000dc .L0 
     /tmp/cckrRXLU.s:192    .text:00000000000000dc .L0 
     /tmp/cckrRXLU.s:195    .text:00000000000000e0 .L0 
     /tmp/cckrRXLU.s:197    .text:00000000000000e4 .L0 
     /tmp/cckrRXLU.s:201    .text:00000000000000ec .L0 
     /tmp/cckrRXLU.s:202    .text:00000000000000ec .L0 
     /tmp/cckrRXLU.s:207    .text:00000000000000f8 .L0 
     /tmp/cckrRXLU.s:208    .text:00000000000000f8 .L0 
     /tmp/cckrRXLU.s:210    .text:00000000000000fc .L0 
     /tmp/cckrRXLU.s:212    .text:0000000000000100 .L0 
     /tmp/cckrRXLU.s:213    .text:0000000000000100 .L0 
     /tmp/cckrRXLU.s:215    .text:0000000000000104 .L0 
     /tmp/cckrRXLU.s:216    .text:0000000000000104 .L0 
     /tmp/cckrRXLU.s:220    .text:0000000000000110 .L0 
     /tmp/cckrRXLU.s:221    .text:0000000000000110 .L0 
     /tmp/cckrRXLU.s:224    .text:0000000000000114 .L0 
     /tmp/cckrRXLU.s:225    .text:0000000000000114 .L0 
     /tmp/cckrRXLU.s:227    .text:0000000000000118 .L0 
     /tmp/cckrRXLU.s:228    .text:0000000000000118 .L0 
     /tmp/cckrRXLU.s:230    .text:000000000000011c .L0 
     /tmp/cckrRXLU.s:231    .text:000000000000011c .L0 
     /tmp/cckrRXLU.s:234    .text:0000000000000120 .L0 
     /tmp/cckrRXLU.s:235    .text:0000000000000120 .L0 
     /tmp/cckrRXLU.s:236    .text:0000000000000120 .L0 
     /tmp/cckrRXLU.s:241    .text:0000000000000130 .L0 
     /tmp/cckrRXLU.s:242    .text:0000000000000130 .L0 
     /tmp/cckrRXLU.s:249    .text:0000000000000144 .L0 
     /tmp/cckrRXLU.s:253    .text:0000000000000148 .L0 
     /tmp/cckrRXLU.s:254    .text:0000000000000148 .L0 
     /tmp/cckrRXLU.s:256    .text:0000000000000150 .L0 
     /tmp/cckrRXLU.s:258    .text:0000000000000154 .L0 
     /tmp/cckrRXLU.s:259    .text:0000000000000154 .L0 
     /tmp/cckrRXLU.s:261    .text:0000000000000158 .L0 
     /tmp/cckrRXLU.s:264    .text:000000000000015c .L0 
     /tmp/cckrRXLU.s:266    .text:0000000000000160 .L0 
     /tmp/cckrRXLU.s:268    .text:0000000000000164 .L0 
     /tmp/cckrRXLU.s:271    .text:0000000000000168 .L0 
     /tmp/cckrRXLU.s:274    .text:000000000000016c .L0 
GAS LISTING /tmp/cckrRXLU.s 			page 27


     /tmp/cckrRXLU.s:276    .text:0000000000000170 .L0 
     /tmp/cckrRXLU.s:282    .text:0000000000000170 _ZN11BuddySystem10buddyAllocEm
     /tmp/cckrRXLU.s:285    .text:0000000000000170 .L0 
     /tmp/cckrRXLU.s:287    .text:0000000000000170 .L0 
     /tmp/cckrRXLU.s:288    .text:0000000000000174 .L0 
     /tmp/cckrRXLU.s:292    .text:0000000000000180 .L0 
     /tmp/cckrRXLU.s:293    .text:0000000000000180 .L0 
     /tmp/cckrRXLU.s:294    .text:0000000000000180 .L0 
     /tmp/cckrRXLU.s:296    .text:0000000000000184 .L0 
     /tmp/cckrRXLU.s:301    .text:000000000000018c .L0 
     /tmp/cckrRXLU.s:303    .text:000000000000018c .L0 
     /tmp/cckrRXLU.s:304    .text:000000000000018c .L0 
     /tmp/cckrRXLU.s:310    .text:0000000000000194 .L0 
     /tmp/cckrRXLU.s:314    .text:0000000000000198 .L0 
     /tmp/cckrRXLU.s:317    .text:00000000000001a0 .L0 
     /tmp/cckrRXLU.s:318    .text:00000000000001a0 .L0 
     /tmp/cckrRXLU.s:322    .text:00000000000001ac .L0 
     /tmp/cckrRXLU.s:324    .text:00000000000001b0 .L0 
     /tmp/cckrRXLU.s:326    .text:00000000000001b4 .L0 
     /tmp/cckrRXLU.s:328    .text:00000000000001b8 .L0 
     /tmp/cckrRXLU.s:330    .text:00000000000001bc .L0 
     /tmp/cckrRXLU.s:331    .text:00000000000001bc .L0 
     /tmp/cckrRXLU.s:337    .text:00000000000001c8 .L0 
     /tmp/cckrRXLU.s:338    .text:00000000000001c8 .L0 
     /tmp/cckrRXLU.s:341    .text:00000000000001d0 .L0 
     /tmp/cckrRXLU.s:342    .text:00000000000001d0 .L0 
     /tmp/cckrRXLU.s:348    .text:00000000000001dc .L0 
     /tmp/cckrRXLU.s:349    .text:00000000000001dc .L0 
     /tmp/cckrRXLU.s:351    .text:00000000000001e0 .L0 
     /tmp/cckrRXLU.s:353    .text:00000000000001e4 .L0 
     /tmp/cckrRXLU.s:357    .text:00000000000001e4 .L0 
     /tmp/cckrRXLU.s:358    .text:00000000000001e4 .L0 
     /tmp/cckrRXLU.s:360    .text:00000000000001e4 .L0 
     /tmp/cckrRXLU.s:361    .text:00000000000001e4 .L0 
     /tmp/cckrRXLU.s:364    .text:00000000000001e8 .L0 
     /tmp/cckrRXLU.s:369    .text:00000000000001ec .L0 
     /tmp/cckrRXLU.s:371    .text:00000000000001f0 .L0 
     /tmp/cckrRXLU.s:372    .text:00000000000001f0 .L0 
     /tmp/cckrRXLU.s:375    .text:00000000000001f4 .L0 
     /tmp/cckrRXLU.s:384    .text:00000000000001fc .L0 
     /tmp/cckrRXLU.s:393    .text:0000000000000204 .L0 
     /tmp/cckrRXLU.s:394    .text:0000000000000204 .L0 
     /tmp/cckrRXLU.s:396    .text:0000000000000208 .L0 
     /tmp/cckrRXLU.s:397    .text:0000000000000208 .L0 
     /tmp/cckrRXLU.s:401    .text:000000000000020c .L0 
     /tmp/cckrRXLU.s:402    .text:0000000000000210 .L0 
     /tmp/cckrRXLU.s:403    .text:0000000000000210 .L0 
     /tmp/cckrRXLU.s:405    .text:0000000000000214 .L0 
     /tmp/cckrRXLU.s:406    .text:0000000000000214 .L0 
     /tmp/cckrRXLU.s:408    .text:0000000000000218 .L0 
     /tmp/cckrRXLU.s:410    .text:000000000000021c .L0 
     /tmp/cckrRXLU.s:414    .text:0000000000000220 .L0 
     /tmp/cckrRXLU.s:416    .text:0000000000000220 .L0 
     /tmp/cckrRXLU.s:419    .text:0000000000000228 .L0 
     /tmp/cckrRXLU.s:425    .text:0000000000000228 _ZN11BuddySystem10tryToMergeEPNS_7MemNodeES1_m
     /tmp/cckrRXLU.s:428    .text:0000000000000228 .L0 
     /tmp/cckrRXLU.s:430    .text:0000000000000228 .L0 
GAS LISTING /tmp/cckrRXLU.s 			page 28


     /tmp/cckrRXLU.s:432    .text:0000000000000228 .L0 
     /tmp/cckrRXLU.s:433    .text:0000000000000228 .L0 
     /tmp/cckrRXLU.s:435    .text:000000000000022c .L0 
     /tmp/cckrRXLU.s:437    .text:0000000000000230 .L0 
     /tmp/cckrRXLU.s:439    .text:0000000000000234 .L0 
     /tmp/cckrRXLU.s:441    .text:0000000000000238 .L0 
     /tmp/cckrRXLU.s:443    .text:000000000000023c .L0 
     /tmp/cckrRXLU.s:445    .text:0000000000000240 .L0 
     /tmp/cckrRXLU.s:450    .text:0000000000000244 .L0 
     /tmp/cckrRXLU.s:452    .text:0000000000000244 .L0 
     /tmp/cckrRXLU.s:453    .text:0000000000000244 .L0 
     /tmp/cckrRXLU.s:456    .text:0000000000000248 .L0 
     /tmp/cckrRXLU.s:461    .text:000000000000024c .L0 
     /tmp/cckrRXLU.s:463    .text:0000000000000250 .L0 
     /tmp/cckrRXLU.s:464    .text:0000000000000250 .L0 
     /tmp/cckrRXLU.s:467    .text:0000000000000254 .L0 
     /tmp/cckrRXLU.s:476    .text:000000000000025c .L0 
     /tmp/cckrRXLU.s:477    .text:000000000000025c .L0 
     /tmp/cckrRXLU.s:479    .text:0000000000000260 .L0 
     /tmp/cckrRXLU.s:482    .text:0000000000000264 .L0 
     /tmp/cckrRXLU.s:483    .text:0000000000000268 .L0 
     /tmp/cckrRXLU.s:486    .text:0000000000000270 .L0 
     /tmp/cckrRXLU.s:487    .text:0000000000000270 .L0 
     /tmp/cckrRXLU.s:489    .text:0000000000000274 .L0 
     /tmp/cckrRXLU.s:493    .text:0000000000000274 .L0 
     /tmp/cckrRXLU.s:494    .text:0000000000000274 .L0 
     /tmp/cckrRXLU.s:498    .text:000000000000027c .L0 
     /tmp/cckrRXLU.s:500    .text:000000000000027c .L0 
     /tmp/cckrRXLU.s:501    .text:000000000000027c .L0 
     /tmp/cckrRXLU.s:507    .text:0000000000000288 .L0 
     /tmp/cckrRXLU.s:510    .text:000000000000028c .L0 
     /tmp/cckrRXLU.s:511    .text:000000000000028c .L0 
     /tmp/cckrRXLU.s:512    .text:000000000000028c .L0 
     /tmp/cckrRXLU.s:514    .text:0000000000000290 .L0 
     /tmp/cckrRXLU.s:517    .text:0000000000000294 .L0 
     /tmp/cckrRXLU.s:521    .text:0000000000000298 .L0 
     /tmp/cckrRXLU.s:523    .text:000000000000029c .L0 
     /tmp/cckrRXLU.s:524    .text:000000000000029c .L0 
     /tmp/cckrRXLU.s:527    .text:00000000000002a0 .L0 
     /tmp/cckrRXLU.s:531    .text:00000000000002a4 .L0 
     /tmp/cckrRXLU.s:532    .text:00000000000002a4 .L0 
     /tmp/cckrRXLU.s:534    .text:00000000000002a8 .L0 
     /tmp/cckrRXLU.s:535    .text:00000000000002a8 .L0 
     /tmp/cckrRXLU.s:537    .text:00000000000002ac .L0 
     /tmp/cckrRXLU.s:538    .text:00000000000002ac .L0 
     /tmp/cckrRXLU.s:545    .text:00000000000002bc .L0 
     /tmp/cckrRXLU.s:548    .text:00000000000002bc .L0 
     /tmp/cckrRXLU.s:549    .text:00000000000002bc .L0 
     /tmp/cckrRXLU.s:550    .text:00000000000002c0 .L0 
     /tmp/cckrRXLU.s:551    .text:00000000000002c0 .L0 
     /tmp/cckrRXLU.s:553    .text:00000000000002c4 .L0 
     /tmp/cckrRXLU.s:554    .text:00000000000002c4 .L0 
     /tmp/cckrRXLU.s:556    .text:00000000000002c8 .L0 
     /tmp/cckrRXLU.s:560    .text:00000000000002cc .L0 
     /tmp/cckrRXLU.s:564    .text:00000000000002cc .L0 
     /tmp/cckrRXLU.s:565    .text:00000000000002cc .L0 
     /tmp/cckrRXLU.s:568    .text:00000000000002d0 .L0 
GAS LISTING /tmp/cckrRXLU.s 			page 29


     /tmp/cckrRXLU.s:574    .text:00000000000002e0 .L0 
     /tmp/cckrRXLU.s:575    .text:00000000000002e0 .L0 
     /tmp/cckrRXLU.s:576    .text:00000000000002e0 .L0 
     /tmp/cckrRXLU.s:580    .text:00000000000002e0 .L0 
     /tmp/cckrRXLU.s:598    .text:00000000000002fc .L0 
     /tmp/cckrRXLU.s:599    .text:0000000000000300 .L0 
     /tmp/cckrRXLU.s:605    .text:0000000000000300 _ZN11BuddySystem9buddyFreeEm
     /tmp/cckrRXLU.s:608    .text:0000000000000300 .L0 
     /tmp/cckrRXLU.s:610    .text:0000000000000300 .L0 
     /tmp/cckrRXLU.s:611    .text:0000000000000300 .L0 
     /tmp/cckrRXLU.s:612    .text:0000000000000300 .L0 
     /tmp/cckrRXLU.s:615    .text:0000000000000304 .L0 
     /tmp/cckrRXLU.s:617    .text:0000000000000308 .L0 
     /tmp/cckrRXLU.s:618    .text:000000000000030c .L0 
     /tmp/cckrRXLU.s:625    .text:0000000000000324 .L0 
     /tmp/cckrRXLU.s:626    .text:0000000000000324 .L0 
     /tmp/cckrRXLU.s:627    .text:0000000000000324 .L0 
     /tmp/cckrRXLU.s:628    .text:0000000000000324 .L0 
     /tmp/cckrRXLU.s:629    .text:0000000000000324 .L0 
     /tmp/cckrRXLU.s:630    .text:0000000000000324 .L0 
     /tmp/cckrRXLU.s:632    .text:0000000000000328 .L0 
     /tmp/cckrRXLU.s:636    .text:0000000000000330 .L0 
     /tmp/cckrRXLU.s:641    .text:0000000000000338 .L0 
     /tmp/cckrRXLU.s:645    .text:000000000000033c .L0 
     /tmp/cckrRXLU.s:646    .text:000000000000033c .L0 
     /tmp/cckrRXLU.s:649    .text:0000000000000344 .L0 
     /tmp/cckrRXLU.s:650    .text:0000000000000344 .L0 
     /tmp/cckrRXLU.s:653    .text:0000000000000348 .L0 
     /tmp/cckrRXLU.s:654    .text:0000000000000348 .L0 
     /tmp/cckrRXLU.s:657    .text:000000000000034c .L0 
     /tmp/cckrRXLU.s:663    .text:0000000000000350 .L0 
     /tmp/cckrRXLU.s:664    .text:0000000000000350 .L0 
     /tmp/cckrRXLU.s:665    .text:0000000000000350 .L0 
     /tmp/cckrRXLU.s:666    .text:0000000000000350 .L0 
     /tmp/cckrRXLU.s:668    .text:0000000000000354 .L0 
     /tmp/cckrRXLU.s:669    .text:0000000000000354 .L0 
     /tmp/cckrRXLU.s:671    .text:0000000000000358 .L0 
     /tmp/cckrRXLU.s:672    .text:0000000000000358 .L0 
     /tmp/cckrRXLU.s:684    .text:000000000000036c .L0 
     /tmp/cckrRXLU.s:687    .text:0000000000000370 .L0 
     /tmp/cckrRXLU.s:689    .text:0000000000000374 .L0 
     /tmp/cckrRXLU.s:693    .text:0000000000000378 .L0 
     /tmp/cckrRXLU.s:696    .text:000000000000037c .L0 
     /tmp/cckrRXLU.s:697    .text:000000000000037c .L0 
     /tmp/cckrRXLU.s:698    .text:000000000000037c .L0 
     /tmp/cckrRXLU.s:701    .text:0000000000000380 .L0 
     /tmp/cckrRXLU.s:703    .text:0000000000000384 .L0 
     /tmp/cckrRXLU.s:704    .text:0000000000000384 .L0 
     /tmp/cckrRXLU.s:711    .text:000000000000038c .L0 
     /tmp/cckrRXLU.s:713    .text:0000000000000390 .L0 
     /tmp/cckrRXLU.s:715    .text:0000000000000394 .L0 
     /tmp/cckrRXLU.s:716    .text:0000000000000394 .L0 
     /tmp/cckrRXLU.s:720    .text:0000000000000398 .L0 
     /tmp/cckrRXLU.s:724    .text:000000000000039c .L0 
     /tmp/cckrRXLU.s:726    .text:00000000000003a0 .L0 
     /tmp/cckrRXLU.s:727    .text:00000000000003a0 .L0 
     /tmp/cckrRXLU.s:735    .text:00000000000003b4 .L0 
GAS LISTING /tmp/cckrRXLU.s 			page 30


     /tmp/cckrRXLU.s:738    .text:00000000000003bc .L0 
     /tmp/cckrRXLU.s:740    .text:00000000000003c0 .L0 
     /tmp/cckrRXLU.s:741    .text:00000000000003c0 .L0 
     /tmp/cckrRXLU.s:750    .text:00000000000003d8 .L0 
     /tmp/cckrRXLU.s:753    .text:00000000000003e0 .L0 
     /tmp/cckrRXLU.s:754    .text:00000000000003e0 .L0 
     /tmp/cckrRXLU.s:759    .text:00000000000003e4 .L0 
     /tmp/cckrRXLU.s:760    .text:00000000000003e4 .L0 
     /tmp/cckrRXLU.s:764    .text:00000000000003ec .L0 
     /tmp/cckrRXLU.s:765    .text:00000000000003ec .L0 
     /tmp/cckrRXLU.s:771    .text:00000000000003f8 .L0 
     /tmp/cckrRXLU.s:772    .text:00000000000003f8 .L0 
     /tmp/cckrRXLU.s:775    .text:00000000000003fc .L0 
     /tmp/cckrRXLU.s:777    .text:0000000000000400 .L0 
     /tmp/cckrRXLU.s:782    .text:0000000000000408 .L0 
     /tmp/cckrRXLU.s:784    .text:000000000000040c .L0 
     /tmp/cckrRXLU.s:791    .text:0000000000000414 .L0 
     /tmp/cckrRXLU.s:792    .text:0000000000000418 .L0 
     /tmp/cckrRXLU.s:794    .text:000000000000041c .L0 
     /tmp/cckrRXLU.s:795    .text:000000000000041c .L0 
     /tmp/cckrRXLU.s:797    .text:0000000000000420 .L0 
     /tmp/cckrRXLU.s:799    .text:0000000000000424 .L0 
     /tmp/cckrRXLU.s:801    .text:0000000000000428 .L0 
     /tmp/cckrRXLU.s:803    .text:000000000000042c .L0 
     /tmp/cckrRXLU.s:806    .text:0000000000000430 .L0 
     /tmp/cckrRXLU.s:811    .text:0000000000000438 .L0 
     /tmp/cckrRXLU.s:817    .text:0000000000000438 _ZN11BuddySystem9initBuddyEv
     /tmp/cckrRXLU.s:820    .text:0000000000000438 .L0 
     /tmp/cckrRXLU.s:822    .text:0000000000000438 .L0 
     /tmp/cckrRXLU.s:823    .text:000000000000043c .L0 
     /tmp/cckrRXLU.s:825    .text:0000000000000440 .L0 
     /tmp/cckrRXLU.s:827    .text:0000000000000444 .L0 
     /tmp/cckrRXLU.s:829    .text:0000000000000444 .L0 
     /tmp/cckrRXLU.s:830    .text:0000000000000444 .L0 
     /tmp/cckrRXLU.s:832    .text:0000000000000448 .L0 
     /tmp/cckrRXLU.s:834    .text:000000000000044c .L0 
     /tmp/cckrRXLU.s:836    .text:0000000000000450 .L0 
     /tmp/cckrRXLU.s:838    .text:0000000000000454 .L0 
     /tmp/cckrRXLU.s:841    .text:0000000000000458 .L0 
     /tmp/cckrRXLU.s:842    .text:0000000000000458 .L0 
     /tmp/cckrRXLU.s:845    .text:0000000000000464 .L0 
     /tmp/cckrRXLU.s:848    .text:0000000000000468 .L0 
     /tmp/cckrRXLU.s:850    .text:000000000000046c .L0 
     /tmp/cckrRXLU.s:854    .text:0000000000000470 .L0 
     /tmp/cckrRXLU.s:855    .text:0000000000000470 .L0 
     /tmp/cckrRXLU.s:857    .text:0000000000000474 .L0 
     /tmp/cckrRXLU.s:858    .text:0000000000000474 .L0 
     /tmp/cckrRXLU.s:861    .text:0000000000000478 .L0 
     /tmp/cckrRXLU.s:862    .text:0000000000000478 .L0 
     /tmp/cckrRXLU.s:865    .text:000000000000047c .L0 
     /tmp/cckrRXLU.s:868    .text:0000000000000480 .L0 
     /tmp/cckrRXLU.s:869    .text:0000000000000480 .L0 
     /tmp/cckrRXLU.s:872    .text:0000000000000484 .L0 
     /tmp/cckrRXLU.s:873    .text:0000000000000484 .L0 
     /tmp/cckrRXLU.s:876    .text:0000000000000488 .L0 
     /tmp/cckrRXLU.s:879    .text:0000000000000488 .L0 
     /tmp/cckrRXLU.s:880    .text:0000000000000488 .L0 
GAS LISTING /tmp/cckrRXLU.s 			page 31


     /tmp/cckrRXLU.s:881    .text:0000000000000488 .L0 
     /tmp/cckrRXLU.s:885    .text:000000000000048c .L0 
     /tmp/cckrRXLU.s:891    .text:0000000000000490 .L0 
     /tmp/cckrRXLU.s:892    .text:0000000000000490 .L0 
     /tmp/cckrRXLU.s:895    .text:0000000000000498 .L0 
     /tmp/cckrRXLU.s:896    .text:0000000000000498 .L0 
     /tmp/cckrRXLU.s:899    .text:000000000000049c .L0 
     /tmp/cckrRXLU.s:900    .text:000000000000049c .L0 
     /tmp/cckrRXLU.s:903    .text:00000000000004a0 .L0 
     /tmp/cckrRXLU.s:910    .text:00000000000004a4 .L0 
     /tmp/cckrRXLU.s:911    .text:00000000000004a4 .L0 
     /tmp/cckrRXLU.s:914    .text:00000000000004a8 .L0 
     /tmp/cckrRXLU.s:915    .text:00000000000004a8 .L0 
     /tmp/cckrRXLU.s:920    .text:00000000000004ac .L0 
     /tmp/cckrRXLU.s:921    .text:00000000000004ac .L0 
     /tmp/cckrRXLU.s:922    .text:00000000000004ac .L0 
     /tmp/cckrRXLU.s:923    .text:00000000000004ac .L0 
     /tmp/cckrRXLU.s:925    .text:00000000000004b0 .L0 
     /tmp/cckrRXLU.s:927    .text:00000000000004b4 .L0 
     /tmp/cckrRXLU.s:930    .text:00000000000004b8 .L0 
     /tmp/cckrRXLU.s:931    .text:00000000000004b8 .L0 
     /tmp/cckrRXLU.s:934    .text:00000000000004bc .L0 
     /tmp/cckrRXLU.s:935    .text:00000000000004bc .L0 
     /tmp/cckrRXLU.s:936    .text:00000000000004bc .L0 
     /tmp/cckrRXLU.s:938    .text:00000000000004c0 .L0 
     /tmp/cckrRXLU.s:939    .text:00000000000004c0 .L0 
     /tmp/cckrRXLU.s:941    .text:00000000000004c4 .L0 
     /tmp/cckrRXLU.s:942    .text:00000000000004c4 .L0 
     /tmp/cckrRXLU.s:946    .text:00000000000004d0 .L0 
     /tmp/cckrRXLU.s:947    .text:00000000000004d0 .L0 
     /tmp/cckrRXLU.s:950    .text:00000000000004d4 .L0 
     /tmp/cckrRXLU.s:951    .text:00000000000004d4 .L0 
     /tmp/cckrRXLU.s:954    .text:00000000000004d8 .L0 
     /tmp/cckrRXLU.s:955    .text:00000000000004d8 .L0 
     /tmp/cckrRXLU.s:958    .text:00000000000004dc .L0 
     /tmp/cckrRXLU.s:959    .text:00000000000004dc .L0 
     /tmp/cckrRXLU.s:966    .text:00000000000004e4 .L0 
     /tmp/cckrRXLU.s:967    .text:00000000000004e8 .L0 
     /tmp/cckrRXLU.s:968    .text:00000000000004e8 .L0 
     /tmp/cckrRXLU.s:970    .text:00000000000004ec .L0 
     /tmp/cckrRXLU.s:972    .text:00000000000004f0 .L0 
     /tmp/cckrRXLU.s:977    .text:00000000000004f0 .L0 
     /tmp/cckrRXLU.s:842    .text:0000000000000458 .L0 
     /tmp/cckrRXLU.s:83     .text:0000000000000058 .L10
     /tmp/cckrRXLU.s:96     .text:000000000000006c .L6
     /tmp/cckrRXLU.s:62     .text:0000000000000040 .L4
     /tmp/cckrRXLU.s:106    .text:0000000000000078 .L5
     /tmp/cckrRXLU.s:116    .text:0000000000000084 .L7
     /tmp/cckrRXLU.s:185    .text:00000000000000dc .L12
     /tmp/cckrRXLU.s:172    .text:00000000000000cc .L13
     /tmp/cckrRXLU.s:251    .text:0000000000000148 .L14
     /tmp/cckrRXLU.s:312    .text:0000000000000198 .L19
     /tmp/cckrRXLU.s:379    .text:00000000000001fc .L23
     /tmp/cckrRXLU.s:308    .text:0000000000000194 .L18
     /tmp/cckrRXLU.s:413    .text:0000000000000220 .L24
     /tmp/cckrRXLU.s:387    .text:0000000000000204 .L21
     /tmp/cckrRXLU.s:366    .text:00000000000001ec .L22
GAS LISTING /tmp/cckrRXLU.s 			page 32


     /tmp/cckrRXLU.s:335    .text:00000000000001c8 .L17
     /tmp/cckrRXLU.s:399    .text:000000000000020c .L16
     /tmp/cckrRXLU.s:573    .text:00000000000002e0 .L34
     /tmp/cckrRXLU.s:584    .text:00000000000002e8 .L35
     /tmp/cckrRXLU.s:589    .text:00000000000002f0 .L36
     /tmp/cckrRXLU.s:470    .text:000000000000025c .L28
     /tmp/cckrRXLU.s:458    .text:000000000000024c .L29
     /tmp/cckrRXLU.s:594    .text:00000000000002f8 .L37
     /tmp/cckrRXLU.s:518    .text:0000000000000298 .L30
     /tmp/cckrRXLU.s:505    .text:0000000000000288 .L31
     /tmp/cckrRXLU.s:559    .text:00000000000002cc .L32
     /tmp/cckrRXLU.s:529    .text:00000000000002a4 .L33
     /tmp/cckrRXLU.s:809    .text:0000000000000434 .L57
     /tmp/cckrRXLU.s:788    .text:0000000000000414 .L42
     /tmp/cckrRXLU.s:658    .text:0000000000000350 .L44
     /tmp/cckrRXLU.s:642    .text:000000000000033c .L45
     /tmp/cckrRXLU.s:756    .text:00000000000003e4 .L46
     /tmp/cckrRXLU.s:708    .text:000000000000038c .L47
     /tmp/cckrRXLU.s:680    .text:000000000000036c .L48
     /tmp/cckrRXLU.s:718    .text:0000000000000398 .L50
     /tmp/cckrRXLU.s:780    .text:0000000000000408 .L60
     /tmp/cckrRXLU.s:733    .text:00000000000003b4 .L52
     /tmp/cckrRXLU.s:748    .text:00000000000003d8 .L53
     /tmp/cckrRXLU.s:691    .text:0000000000000378 .L49
     /tmp/cckrRXLU.s:722    .text:000000000000039c .L51
     /tmp/cckrRXLU.s:866    .text:0000000000000480 .L62
     /tmp/cckrRXLU.s:852    .text:0000000000000470 .L63
     /tmp/cckrRXLU.s:918    .text:00000000000004ac .L64
     /tmp/cckrRXLU.s:887    .text:0000000000000490 .L65
     /tmp/cckrRXLU.s:963    .text:00000000000004e4 .L61
     /tmp/cckrRXLU.s:905    .text:00000000000004a4 .L70
     /tmp/cckrRXLU.s:2050   .debug_abbrev:0000000000000000 .Ldebug_abbrev0
     /tmp/cckrRXLU.s:3950   .debug_str:0000000000000237 .LASF55
     /tmp/cckrRXLU.s:3958   .debug_str:000000000000032e .LASF56
     /tmp/cckrRXLU.s:3970   .debug_str:0000000000000387 .LASF57
     /tmp/cckrRXLU.s:5      .text:0000000000000000 .Ltext0
     /tmp/cckrRXLU.s:975    .text:00000000000004f0 .Letext0
     /tmp/cckrRXLU.s:3880   .debug_line:0000000000000000 .Ldebug_line0
     /tmp/cckrRXLU.s:3962   .debug_str:000000000000034c .LASF0
     /tmp/cckrRXLU.s:3940   .debug_str:00000000000001d9 .LASF1
     /tmp/cckrRXLU.s:3930   .debug_str:0000000000000189 .LASF2
     /tmp/cckrRXLU.s:3902   .debug_str:000000000000009d .LASF4
     /tmp/cckrRXLU.s:3938   .debug_str:00000000000001c7 .LASF3
     /tmp/cckrRXLU.s:3888   .debug_str:0000000000000047 .LASF5
     /tmp/cckrRXLU.s:3884   .debug_str:0000000000000011 .LASF6
     /tmp/cckrRXLU.s:3922   .debug_str:000000000000014c .LASF7
     /tmp/cckrRXLU.s:3972   .debug_str:00000000000003bb .LASF8
     /tmp/cckrRXLU.s:3898   .debug_str:000000000000008a .LASF9
     /tmp/cckrRXLU.s:4006   .debug_str:0000000000000498 .LASF10
     /tmp/cckrRXLU.s:3968   .debug_str:000000000000037c .LASF11
     /tmp/cckrRXLU.s:3926   .debug_str:000000000000016d .LASF12
     /tmp/cckrRXLU.s:3990   .debug_str:0000000000000433 .LASF13
     /tmp/cckrRXLU.s:3978   .debug_str:00000000000003ed .LASF14
     /tmp/cckrRXLU.s:3942   .debug_str:00000000000001ec .LASF15
     /tmp/cckrRXLU.s:3914   .debug_str:00000000000000ef .LASF16
     /tmp/cckrRXLU.s:3974   .debug_str:00000000000003cb .LASF17
     /tmp/cckrRXLU.s:3976   .debug_str:00000000000003e1 .LASF28
GAS LISTING /tmp/cckrRXLU.s 			page 33


     /tmp/cckrRXLU.s:3908   .debug_str:00000000000000dd .LASF58
     /tmp/cckrRXLU.s:3890   .debug_str:000000000000004e .LASF18
     /tmp/cckrRXLU.s:4000   .debug_str:0000000000000480 .LASF19
     /tmp/cckrRXLU.s:3986   .debug_str:0000000000000419 .LASF24
     /tmp/cckrRXLU.s:3948   .debug_str:0000000000000218 .LASF26
     /tmp/cckrRXLU.s:3918   .debug_str:0000000000000113 .LASF20
     /tmp/cckrRXLU.s:3994   .debug_str:0000000000000448 .LASF22
     /tmp/cckrRXLU.s:3998   .debug_str:0000000000000474 .LASF21
     /tmp/cckrRXLU.s:3954   .debug_str:0000000000000305 .LASF23
     /tmp/cckrRXLU.s:3960   .debug_str:000000000000033c .LASF25
     /tmp/cckrRXLU.s:3906   .debug_str:00000000000000b9 .LASF27
     /tmp/cckrRXLU.s:3904   .debug_str:00000000000000a4 .LASF29
     /tmp/cckrRXLU.s:3996   .debug_str:0000000000000465 .LASF30
     /tmp/cckrRXLU.s:3928   .debug_str:000000000000017c .LASF31
     /tmp/cckrRXLU.s:3882   .debug_str:0000000000000000 .LASF32
     /tmp/cckrRXLU.s:3952   .debug_str:00000000000002fb .LASF39
     /tmp/cckrRXLU.s:3966   .debug_str:000000000000035f .LASF59
     /tmp/cckrRXLU.s:4002   .debug_str:0000000000000485 .LASF33
     /tmp/cckrRXLU.s:3934   .debug_str:000000000000019c .LASF34
     /tmp/cckrRXLU.s:3916   .debug_str:0000000000000105 .LASF35
     /tmp/cckrRXLU.s:3886   .debug_str:0000000000000024 .LASF36
     /tmp/cckrRXLU.s:3944   .debug_str:00000000000001f8 .LASF37
     /tmp/cckrRXLU.s:3920   .debug_str:000000000000011d .LASF38
     /tmp/cckrRXLU.s:3894   .debug_str:000000000000005c .LASF60
     /tmp/cckrRXLU.s:3896   .debug_str:0000000000000073 .LASF61
     /tmp/cckrRXLU.s:818    .text:0000000000000438 .LFB12
     /tmp/cckrRXLU.s:973    .text:00000000000004f0 .LFE12
     /tmp/cckrRXLU.s:3932   .debug_str:0000000000000197 .LASF43
     /tmp/cckrRXLU.s:2932   .debug_loc:0000000000000000 .LLST44
     /tmp/cckrRXLU.s:2944   .debug_loc:0000000000000037 .LLST45
     /tmp/cckrRXLU.s:3892   .debug_str:0000000000000053 .LASF40
     /tmp/cckrRXLU.s:3982   .debug_str:0000000000000406 .LASF41
     /tmp/cckrRXLU.s:2956   .debug_loc:000000000000006e .LLST46
     /tmp/cckrRXLU.s:3980   .debug_str:00000000000003fd .LASF54
     /tmp/cckrRXLU.s:3824   .debug_ranges:0000000000000000 .Ldebug_ranges0
     /tmp/cckrRXLU.s:3936   .debug_str:00000000000001bf .LASF42
     /tmp/cckrRXLU.s:2964   .debug_loc:0000000000000092 .LLST49
     /tmp/cckrRXLU.s:877    .text:0000000000000488 .LBB51
     /tmp/cckrRXLU.s:2976   .debug_loc:00000000000000c9 .LLST47
     /tmp/cckrRXLU.s:2989   .debug_loc:0000000000000102 .LLST48
     /tmp/cckrRXLU.s:426    .text:0000000000000228 .LFB11
     /tmp/cckrRXLU.s:600    .text:0000000000000300 .LFE11
     /tmp/cckrRXLU.s:3001   .debug_loc:0000000000000139 .LLST22
     /tmp/cckrRXLU.s:3900   .debug_str:0000000000000098 .LASF44
     /tmp/cckrRXLU.s:3059   .debug_loc:0000000000000216 .LLST23
     /tmp/cckrRXLU.s:3964   .debug_str:0000000000000359 .LASF45
     /tmp/cckrRXLU.s:3093   .debug_loc:0000000000000290 .LLST24
     /tmp/cckrRXLU.s:3984   .debug_str:0000000000000410 .LASF46
     /tmp/cckrRXLU.s:3111   .debug_loc:00000000000002dc .LLST25
     /tmp/cckrRXLU.s:4004   .debug_str:0000000000000493 .LASF47
     /tmp/cckrRXLU.s:3129   .debug_loc:0000000000000328 .LLST29
     /tmp/cckrRXLU.s:3988   .debug_str:0000000000000424 .LASF48
     /tmp/cckrRXLU.s:3153   .debug_loc:0000000000000398 .LLST30
     /tmp/cckrRXLU.s:499    .text:000000000000027c .LBB41
     /tmp/cckrRXLU.s:519    .text:0000000000000298 .LBE41
     /tmp/cckrRXLU.s:3910   .debug_str:00000000000000e5 .LASF49
     /tmp/cckrRXLU.s:3168   .debug_loc:00000000000003c3 .LLST31
GAS LISTING /tmp/cckrRXLU.s 			page 34


     /tmp/cckrRXLU.s:543    .text:00000000000002bc .LVL62
     /tmp/cckrRXLU.s:447    .text:0000000000000244 .LBB36
     /tmp/cckrRXLU.s:475    .text:000000000000025c .LBE36
     /tmp/cckrRXLU.s:3188   .debug_loc:0000000000000420 .LLST26
     /tmp/cckrRXLU.s:3195   .debug_loc:0000000000000443 .LLST27
     /tmp/cckrRXLU.s:3207   .debug_loc:000000000000047a .LLST28
     /tmp/cckrRXLU.s:37     .text:0000000000000018 .LFB10
     /tmp/cckrRXLU.s:127    .text:0000000000000094 .LFE10
     /tmp/cckrRXLU.s:3219   .debug_loc:00000000000004b1 .LLST0
     /tmp/cckrRXLU.s:3263   .debug_loc:0000000000000562 .LLST1
     /tmp/cckrRXLU.s:3992   .debug_str:0000000000000443 .LASF50
     /tmp/cckrRXLU.s:3912   .debug_str:00000000000000ea .LASF51
     /tmp/cckrRXLU.s:3299   .debug_loc:00000000000005ed .LLST2
     /tmp/cckrRXLU.s:3314   .debug_loc:0000000000000636 .LLST3
     /tmp/cckrRXLU.s:3337   .debug_loc:00000000000006a5 .LLST4
     /tmp/cckrRXLU.s:133    .text:0000000000000094 .LFB9
     /tmp/cckrRXLU.s:277    .text:0000000000000170 .LFE9
     /tmp/cckrRXLU.s:3361   .debug_loc:0000000000000715 .LLST5
     /tmp/cckrRXLU.s:3379   .debug_loc:0000000000000761 .LLST6
     /tmp/cckrRXLU.s:3924   .debug_str:000000000000015f .LASF52
     /tmp/cckrRXLU.s:3394   .debug_loc:00000000000007aa .LLST7
     /tmp/cckrRXLU.s:3412   .debug_loc:00000000000007f6 .LLST8
     /tmp/cckrRXLU.s:199    .text:00000000000000ec .LBB27
     /tmp/cckrRXLU.s:247    .text:0000000000000144 .LBE27
     /tmp/cckrRXLU.s:3423   .debug_loc:000000000000082c .LLST12
     /tmp/cckrRXLU.s:3430   .debug_loc:000000000000084f .LLST13
     /tmp/cckrRXLU.s:239    .text:0000000000000130 .LVL25
     /tmp/cckrRXLU.s:246    .text:0000000000000144 .LVL26
     /tmp/cckrRXLU.s:160    .text:00000000000000c4 .LBB23
     /tmp/cckrRXLU.s:188    .text:00000000000000dc .LBE23
     /tmp/cckrRXLU.s:3437   .debug_loc:0000000000000872 .LLST9
     /tmp/cckrRXLU.s:3444   .debug_loc:0000000000000895 .LLST10
     /tmp/cckrRXLU.s:3456   .debug_loc:00000000000008cc .LLST11
     /tmp/cckrRXLU.s:606    .text:0000000000000300 .LFB8
     /tmp/cckrRXLU.s:812    .text:0000000000000438 .LFE8
     /tmp/cckrRXLU.s:3468   .debug_loc:0000000000000903 .LLST32
     /tmp/cckrRXLU.s:3490   .debug_loc:0000000000000962 .LLST33
     /tmp/cckrRXLU.s:3514   .debug_loc:00000000000009c3 .LLST34
     /tmp/cckrRXLU.s:3525   .debug_loc:00000000000009f9 .LLST35
     /tmp/cckrRXLU.s:3532   .debug_loc:0000000000000a1c .LLST36
     /tmp/cckrRXLU.s:3956   .debug_str:0000000000000327 .LASF53
     /tmp/cckrRXLU.s:3548   .debug_loc:0000000000000a57 .LLST37
     /tmp/cckrRXLU.s:3563   .debug_loc:0000000000000aa0 .LLST40
     /tmp/cckrRXLU.s:3586   .debug_loc:0000000000000b0f .LLST41
     /tmp/cckrRXLU.s:3614   .debug_loc:0000000000000b92 .LLST42
     /tmp/cckrRXLU.s:3630   .debug_loc:0000000000000bdc .LLST43
     /tmp/cckrRXLU.s:732    .text:00000000000003b4 .LVL92
     /tmp/cckrRXLU.s:747    .text:00000000000003d8 .LVL94
     /tmp/cckrRXLU.s:638    .text:0000000000000338 .LBB45
     /tmp/cckrRXLU.s:662    .text:0000000000000350 .LBE45
     /tmp/cckrRXLU.s:3650   .debug_loc:0000000000000c39 .LLST38
     /tmp/cckrRXLU.s:3657   .debug_loc:0000000000000c5c .LLST39
     /tmp/cckrRXLU.s:677    .text:0000000000000368 .LVL81
     /tmp/cckrRXLU.s:283    .text:0000000000000170 .LFB7
     /tmp/cckrRXLU.s:420    .text:0000000000000228 .LFE7
     /tmp/cckrRXLU.s:3664   .debug_loc:0000000000000c7f .LLST14
     /tmp/cckrRXLU.s:3697   .debug_loc:0000000000000d07 .LLST15
GAS LISTING /tmp/cckrRXLU.s 			page 35


     /tmp/cckrRXLU.s:3726   .debug_loc:0000000000000d7c .LLST16
     /tmp/cckrRXLU.s:3753   .debug_loc:0000000000000def .LLST17
     /tmp/cckrRXLU.s:302    .text:000000000000018c .LBB28
     /tmp/cckrRXLU.s:336    .text:00000000000001c8 .LBE28
     /tmp/cckrRXLU.s:3764   .debug_loc:0000000000000e25 .LLST18
     /tmp/cckrRXLU.s:333    .text:00000000000001c8 .LVL36
     /tmp/cckrRXLU.s:355    .text:00000000000001e4 .LBB29
     /tmp/cckrRXLU.s:3780   .debug_loc:0000000000000e6f .LLST19
     /tmp/cckrRXLU.s:3787   .debug_loc:0000000000000e92 .LLST20
     /tmp/cckrRXLU.s:3799   .debug_loc:0000000000000ec9 .LLST21
     /tmp/cckrRXLU.s:3946   .debug_str:0000000000000203 .LASF62
     /tmp/cckrRXLU.s:10     .text:0000000000000000 .LFB5
     /tmp/cckrRXLU.s:29     .text:0000000000000018 .LFE5
     /tmp/cckrRXLU.s:840    .text:0000000000000458 .LVL103
     /tmp/cckrRXLU.s:851    .text:0000000000000470 .LVL105
     /tmp/cckrRXLU.s:874    .text:0000000000000488 .LVL109
     /tmp/cckrRXLU.s:904    .text:00000000000004a4 .LVL113
     /tmp/cckrRXLU.s:933    .text:00000000000004bc .LVL116
     /tmp/cckrRXLU.s:952    .text:00000000000004d8 .LVL118
     /tmp/cckrRXLU.s:962    .text:00000000000004e4 .LVL121
     /tmp/cckrRXLU.s:886    .text:0000000000000490 .LVL110
     /tmp/cckrRXLU.s:429    .text:0000000000000228 .LVL48
     /tmp/cckrRXLU.s:558    .text:00000000000002cc .LVL63
     /tmp/cckrRXLU.s:581    .text:00000000000002e4 .LVL66
     /tmp/cckrRXLU.s:583    .text:00000000000002e8 .LVL67
     /tmp/cckrRXLU.s:586    .text:00000000000002ec .LVL68
     /tmp/cckrRXLU.s:588    .text:00000000000002f0 .LVL69
     /tmp/cckrRXLU.s:591    .text:00000000000002f4 .LVL70
     /tmp/cckrRXLU.s:593    .text:00000000000002f8 .LVL71
     /tmp/cckrRXLU.s:596    .text:00000000000002fc .LVL72
     /tmp/cckrRXLU.s:541    .text:00000000000002b4 .LVL61
     /tmp/cckrRXLU.s:539    .text:00000000000002b0 .LVL60
     /tmp/cckrRXLU.s:497    .text:000000000000027c .LVL54
     /tmp/cckrRXLU.s:504    .text:0000000000000288 .LVL55
     /tmp/cckrRXLU.s:509    .text:000000000000028c .LVL56
     /tmp/cckrRXLU.s:515    .text:0000000000000294 .LVL57
     /tmp/cckrRXLU.s:528    .text:00000000000002a4 .LVL59
     /tmp/cckrRXLU.s:566    .text:00000000000002d0 .LVL64
     /tmp/cckrRXLU.s:525    .text:00000000000002a0 .LVL58
     /tmp/cckrRXLU.s:569    .text:00000000000002d4 .LVL65
     /tmp/cckrRXLU.s:446    .text:0000000000000244 .LVL49
     /tmp/cckrRXLU.s:473    .text:000000000000025c .LVL53
     /tmp/cckrRXLU.s:457    .text:000000000000024c .LVL50
     /tmp/cckrRXLU.s:40     .text:0000000000000018 .LVL1
     /tmp/cckrRXLU.s:61     .text:0000000000000040 .LVL3
     /tmp/cckrRXLU.s:82     .text:0000000000000058 .LVL7
     /tmp/cckrRXLU.s:93     .text:0000000000000068 .LVL9
     /tmp/cckrRXLU.s:95     .text:000000000000006c .LVL10
     /tmp/cckrRXLU.s:105    .text:0000000000000078 .LVL11
     /tmp/cckrRXLU.s:115    .text:0000000000000084 .LVL12
     /tmp/cckrRXLU.s:123    .text:000000000000008c .LVL14
     /tmp/cckrRXLU.s:87     .text:000000000000005c .LVL8
     /tmp/cckrRXLU.s:121    .text:0000000000000088 .LVL13
     /tmp/cckrRXLU.s:74     .text:000000000000004c .LVL5
     /tmp/cckrRXLU.s:69     .text:0000000000000048 .LVL4
     /tmp/cckrRXLU.s:79     .text:0000000000000054 .LVL6
     /tmp/cckrRXLU.s:136    .text:0000000000000094 .LVL15
GAS LISTING /tmp/cckrRXLU.s 			page 36


     /tmp/cckrRXLU.s:184    .text:00000000000000dc .LVL20
     /tmp/cckrRXLU.s:269    .text:0000000000000164 .LVL29
     /tmp/cckrRXLU.s:262    .text:0000000000000158 .LVL28
     /tmp/cckrRXLU.s:272    .text:0000000000000168 .LVL30
     /tmp/cckrRXLU.s:193    .text:00000000000000e0 .LVL21
     /tmp/cckrRXLU.s:232    .text:0000000000000120 .LVL24
     /tmp/cckrRXLU.s:250    .text:0000000000000148 .LVL27
     /tmp/cckrRXLU.s:205    .text:00000000000000f8 .LVL22
     /tmp/cckrRXLU.s:222    .text:0000000000000114 .LVL23
     /tmp/cckrRXLU.s:159    .text:00000000000000c4 .LVL16
     /tmp/cckrRXLU.s:171    .text:00000000000000cc .LVL17
     /tmp/cckrRXLU.s:609    .text:0000000000000300 .LVL73
     /tmp/cckrRXLU.s:675    .text:0000000000000360 .LVL80
     /tmp/cckrRXLU.s:804    .text:000000000000042c .LVL100
     /tmp/cckrRXLU.s:808    .text:0000000000000434 .LVL101
     /tmp/cckrRXLU.s:673    .text:000000000000035c .LVL79
     /tmp/cckrRXLU.s:613    .text:0000000000000304 .LVL74
     /tmp/cckrRXLU.s:660    .text:0000000000000350 .LVL78
     /tmp/cckrRXLU.s:787    .text:0000000000000414 .LVL99
     /tmp/cckrRXLU.s:730    .text:00000000000003ac .LVL91
     /tmp/cckrRXLU.s:745    .text:00000000000003d0 .LVL93
     /tmp/cckrRXLU.s:785    .text:0000000000000410 .LVL98
     /tmp/cckrRXLU.s:679    .text:000000000000036c .LVL82
     /tmp/cckrRXLU.s:690    .text:0000000000000378 .LVL84
     /tmp/cckrRXLU.s:699    .text:0000000000000380 .LVL86
     /tmp/cckrRXLU.s:707    .text:000000000000038c .LVL88
     /tmp/cckrRXLU.s:755    .text:00000000000003e4 .LVL95
     /tmp/cckrRXLU.s:768    .text:00000000000003f8 .LVL96
     /tmp/cckrRXLU.s:695    .text:000000000000037c .LVL85
     /tmp/cckrRXLU.s:779    .text:0000000000000408 .LVL97
     /tmp/cckrRXLU.s:685    .text:0000000000000370 .LVL83
     /tmp/cckrRXLU.s:643    .text:000000000000033c .LVL75
     /tmp/cckrRXLU.s:286    .text:0000000000000170 .LVL31
     /tmp/cckrRXLU.s:307    .text:0000000000000194 .LVL34
     /tmp/cckrRXLU.s:344    .text:00000000000001d8 .LVL37
     /tmp/cckrRXLU.s:378    .text:00000000000001fc .LVL43
     /tmp/cckrRXLU.s:386    .text:0000000000000204 .LVL44
     /tmp/cckrRXLU.s:412    .text:0000000000000220 .LVL46
     /tmp/cckrRXLU.s:305    .text:0000000000000190 .LVL33
     /tmp/cckrRXLU.s:300    .text:000000000000018c .LVL32
     /tmp/cckrRXLU.s:398    .text:000000000000020c .LVL45
     /tmp/cckrRXLU.s:417    .text:0000000000000224 .LVL47
     /tmp/cckrRXLU.s:346    .text:00000000000001dc .LVL38
     /tmp/cckrRXLU.s:354    .text:00000000000001e4 .LVL39
     /tmp/cckrRXLU.s:365    .text:00000000000001ec .LVL40
     /tmp/cckrRXLU.s:978    .debug_info:0000000000000000 .Ldebug_info0
     /tmp/cckrRXLU.s:165    .text:00000000000000c4 .LBB25
     /tmp/cckrRXLU.s:168    .text:00000000000000c8 .LBE25
     /tmp/cckrRXLU.s:173    .text:00000000000000cc .LBB26
     /tmp/cckrRXLU.s:186    .text:00000000000000dc .LBE26
     /tmp/cckrRXLU.s:382    .text:00000000000001fc .LBE29
     /tmp/cckrRXLU.s:388    .text:0000000000000204 .LBB34
     /tmp/cckrRXLU.s:392    .text:0000000000000204 .LBE34
     /tmp/cckrRXLU.s:359    .text:00000000000001e4 .LBB31
     /tmp/cckrRXLU.s:362    .text:00000000000001e8 .LBE31
     /tmp/cckrRXLU.s:367    .text:00000000000001ec .LBB32
     /tmp/cckrRXLU.s:380    .text:00000000000001fc .LBE32
GAS LISTING /tmp/cckrRXLU.s 			page 37


     /tmp/cckrRXLU.s:451    .text:0000000000000244 .LBB38
     /tmp/cckrRXLU.s:454    .text:0000000000000248 .LBE38
     /tmp/cckrRXLU.s:459    .text:000000000000024c .LBB39
     /tmp/cckrRXLU.s:471    .text:000000000000025c .LBE39
     /tmp/cckrRXLU.s:491    .text:0000000000000274 .LBB40
     /tmp/cckrRXLU.s:546    .text:00000000000002bc .LBE40
     /tmp/cckrRXLU.s:562    .text:00000000000002cc .LBB42
     /tmp/cckrRXLU.s:577    .text:00000000000002e0 .LBE42
     /tmp/cckrRXLU.s:681    .text:000000000000036c .LBB47
     /tmp/cckrRXLU.s:757    .text:00000000000003e4 .LBE47
     /tmp/cckrRXLU.s:762    .text:00000000000003ec .LBB50
     /tmp/cckrRXLU.s:789    .text:0000000000000414 .LBE50
     /tmp/cckrRXLU.s:682    .text:000000000000036c .LBB48
     /tmp/cckrRXLU.s:709    .text:000000000000038c .LBE48
     /tmp/cckrRXLU.s:770    .text:00000000000003f8 .LBB49
     /tmp/cckrRXLU.s:773    .text:00000000000003fc .LBE49
     /tmp/cckrRXLU.s:883    .text:000000000000048c .LBE51
     /tmp/cckrRXLU.s:888    .text:0000000000000490 .LBB54
     /tmp/cckrRXLU.s:907    .text:00000000000004a4 .LBE54
     /tmp/cckrRXLU.s:908    .text:00000000000004a4 .LBB55
     /tmp/cckrRXLU.s:919    .text:00000000000004ac .LBE55
     /tmp/cckrRXLU.s:928    .text:00000000000004b8 .LBB56
     /tmp/cckrRXLU.s:964    .text:00000000000004e4 .LBE56

UNDEFINED SYMBOLS
HEAP_START_ADDR
