GAS LISTING /tmp/ccOicyt0.s 			page 1


   1              		.file	"console.cpp"
   2              		.option pic
   3              		.option norelax
   4              		.text
   5              	.Ltext0:
   6              		.align	2
   7              		.globl	_ZN7Console13console_setupEPv
   9              	_ZN7Console13console_setupEPv:
  10              	.LFB26:
  11              		.file 1 "src/console.cpp"
   1:src/console.cpp **** 
   2:src/console.cpp **** #include "../h/console.hpp"
   3:src/console.cpp **** 
   4:src/console.cpp **** Console* Console::console_instance = nullptr;
   5:src/console.cpp **** kmem_cache_t * Console::console_cache = nullptr;
   6:src/console.cpp **** 
   7:src/console.cpp **** void Console::put_in_input(char c){
   8:src/console.cpp ****     input_buffer->put(c);
   9:src/console.cpp **** }
  10:src/console.cpp **** 
  11:src/console.cpp **** char Console::get_from_input(){
  12:src/console.cpp ****     return (char)input_buffer->get();
  13:src/console.cpp **** }
  14:src/console.cpp **** 
  15:src/console.cpp **** void Console::put_in_output(char c){
  16:src/console.cpp ****     output_buffer->put(c);
  17:src/console.cpp **** }
  18:src/console.cpp **** char Console::get_from_output(){
  19:src/console.cpp ****     return (char)output_buffer->get();
  20:src/console.cpp **** }
  21:src/console.cpp **** 
  22:src/console.cpp **** Console &Console::getInstance() {
  23:src/console.cpp ****     if(!console_instance){
  24:src/console.cpp ****         console_cache = (kmem_cache_t*) kmem_cache_create("console_cache", sizeof(Console), &consol
  25:src/console.cpp ****         console_instance = (Console*)kmem_cache_alloc(console_cache);
  26:src/console.cpp ****     }
  27:src/console.cpp ****     return *console_instance;
  28:src/console.cpp **** 
  29:src/console.cpp **** }
  30:src/console.cpp **** 
  31:src/console.cpp **** void Console::console_setup(void *myConsole) {
  12              		.loc 1 31 46
  13              		.cfi_startproc
  14              	.LVL0:
  15 0000 130101FE 		addi	sp,sp,-32
  16              		.cfi_def_cfa_offset 32
  17 0004 233C1100 		sd	ra,24(sp)
  18 0008 23388100 		sd	s0,16(sp)
  19 000c 23349100 		sd	s1,8(sp)
  20              		.cfi_offset 1, -8
  21              		.cfi_offset 8, -16
  22              		.cfi_offset 9, -24
  23 0010 13040102 		addi	s0,sp,32
  24              		.cfi_def_cfa 8, 0
  25 0014 93040500 		mv	s1,a0
  32:src/console.cpp ****     auto* cons = (Console*)myConsole;
  26              		.loc 1 32 5
GAS LISTING /tmp/ccOicyt0.s 			page 2


  27              	.LVL1:
  33:src/console.cpp ****     cons->input_buffer = (MyBuffer*)kmem_cache_alloc(MyBuffer::get_buffer_cache());
  28              		.loc 1 33 5
  29              		.loc 1 33 81 is_stmt 0
  30 0018 97000000 		call	_ZN8MyBuffer16get_buffer_cacheEv@plt
  30      E7800000 
  31              	.LVL2:
  32              		.loc 1 33 53
  33 0020 03350500 		ld	a0,0(a0)
  34 0024 97000000 		call	_Z16kmem_cache_allocP12kmem_cache_s@plt
  34      E7800000 
  35              	.LVL3:
  36              		.loc 1 33 24
  37 002c 23B0A400 		sd	a0,0(s1)
  34:src/console.cpp ****     cons->output_buffer = (MyBuffer*) kmem_cache_alloc(MyBuffer::get_buffer_cache());
  38              		.loc 1 34 5 is_stmt 1
  39              		.loc 1 34 83 is_stmt 0
  40 0030 97000000 		call	_ZN8MyBuffer16get_buffer_cacheEv@plt
  40      E7800000 
  41              	.LVL4:
  42              		.loc 1 34 55
  43 0038 03350500 		ld	a0,0(a0)
  44 003c 97000000 		call	_Z16kmem_cache_allocP12kmem_cache_s@plt
  44      E7800000 
  45              	.LVL5:
  46              		.loc 1 34 25
  47 0044 23B4A400 		sd	a0,8(s1)
  35:src/console.cpp **** }
  48              		.loc 1 35 1
  49 0048 83308101 		ld	ra,24(sp)
  50              		.cfi_restore 1
  51 004c 03340101 		ld	s0,16(sp)
  52              		.cfi_restore 8
  53              		.cfi_def_cfa 2, 32
  54 0050 83348100 		ld	s1,8(sp)
  55              		.cfi_restore 9
  56              	.LVL6:
  57 0054 13010102 		addi	sp,sp,32
  58              		.cfi_def_cfa_offset 0
  59 0058 67800000 		jr	ra
  60              		.cfi_endproc
  61              	.LFE26:
  63              		.align	2
  64              		.globl	_ZN7Console12put_in_inputEc
  66              	_ZN7Console12put_in_inputEc:
  67              	.LFB21:
   7:src/console.cpp ****     input_buffer->put(c);
  68              		.loc 1 7 35 is_stmt 1
  69              		.cfi_startproc
  70              	.LVL7:
  71 005c 130101FF 		addi	sp,sp,-16
  72              		.cfi_def_cfa_offset 16
  73 0060 23341100 		sd	ra,8(sp)
  74 0064 23308100 		sd	s0,0(sp)
  75              		.cfi_offset 1, -8
  76              		.cfi_offset 8, -16
  77 0068 13040101 		addi	s0,sp,16
GAS LISTING /tmp/ccOicyt0.s 			page 3


  78              		.cfi_def_cfa 8, 0
   8:src/console.cpp **** }
  79              		.loc 1 8 5
   8:src/console.cpp **** }
  80              		.loc 1 8 22 is_stmt 0
  81 006c 03350500 		ld	a0,0(a0)
  82              	.LVL8:
  83 0070 97000000 		call	_ZN8MyBuffer3putEi@plt
  83      E7800000 
  84              	.LVL9:
   9:src/console.cpp **** 
  85              		.loc 1 9 1
  86 0078 83308100 		ld	ra,8(sp)
  87              		.cfi_restore 1
  88 007c 03340100 		ld	s0,0(sp)
  89              		.cfi_restore 8
  90              		.cfi_def_cfa 2, 16
  91 0080 13010101 		addi	sp,sp,16
  92              		.cfi_def_cfa_offset 0
  93 0084 67800000 		jr	ra
  94              		.cfi_endproc
  95              	.LFE21:
  97              		.align	2
  98              		.globl	_ZN7Console14get_from_inputEv
 100              	_ZN7Console14get_from_inputEv:
 101              	.LFB22:
  11:src/console.cpp ****     return (char)input_buffer->get();
 102              		.loc 1 11 31 is_stmt 1
 103              		.cfi_startproc
 104              	.LVL10:
 105 0088 130101FF 		addi	sp,sp,-16
 106              		.cfi_def_cfa_offset 16
 107 008c 23341100 		sd	ra,8(sp)
 108 0090 23308100 		sd	s0,0(sp)
 109              		.cfi_offset 1, -8
 110              		.cfi_offset 8, -16
 111 0094 13040101 		addi	s0,sp,16
 112              		.cfi_def_cfa 8, 0
  12:src/console.cpp **** }
 113              		.loc 1 12 5
  12:src/console.cpp **** }
 114              		.loc 1 12 35 is_stmt 0
 115 0098 03350500 		ld	a0,0(a0)
 116              	.LVL11:
 117 009c 97000000 		call	_ZN8MyBuffer3getEv@plt
 117      E7800000 
 118              	.LVL12:
  13:src/console.cpp **** 
 119              		.loc 1 13 1
 120 00a4 1375F50F 		andi	a0,a0,0xff
 121 00a8 83308100 		ld	ra,8(sp)
 122              		.cfi_restore 1
 123 00ac 03340100 		ld	s0,0(sp)
 124              		.cfi_restore 8
 125              		.cfi_def_cfa 2, 16
 126 00b0 13010101 		addi	sp,sp,16
 127              		.cfi_def_cfa_offset 0
GAS LISTING /tmp/ccOicyt0.s 			page 4


 128 00b4 67800000 		jr	ra
 129              		.cfi_endproc
 130              	.LFE22:
 132              		.align	2
 133              		.globl	_ZN7Console13put_in_outputEc
 135              	_ZN7Console13put_in_outputEc:
 136              	.LFB23:
  15:src/console.cpp ****     output_buffer->put(c);
 137              		.loc 1 15 36 is_stmt 1
 138              		.cfi_startproc
 139              	.LVL13:
 140 00b8 130101FF 		addi	sp,sp,-16
 141              		.cfi_def_cfa_offset 16
 142 00bc 23341100 		sd	ra,8(sp)
 143 00c0 23308100 		sd	s0,0(sp)
 144              		.cfi_offset 1, -8
 145              		.cfi_offset 8, -16
 146 00c4 13040101 		addi	s0,sp,16
 147              		.cfi_def_cfa 8, 0
  16:src/console.cpp **** }
 148              		.loc 1 16 5
  16:src/console.cpp **** }
 149              		.loc 1 16 23 is_stmt 0
 150 00c8 03358500 		ld	a0,8(a0)
 151              	.LVL14:
 152 00cc 97000000 		call	_ZN8MyBuffer3putEi@plt
 152      E7800000 
 153              	.LVL15:
  17:src/console.cpp **** char Console::get_from_output(){
 154              		.loc 1 17 1
 155 00d4 83308100 		ld	ra,8(sp)
 156              		.cfi_restore 1
 157 00d8 03340100 		ld	s0,0(sp)
 158              		.cfi_restore 8
 159              		.cfi_def_cfa 2, 16
 160 00dc 13010101 		addi	sp,sp,16
 161              		.cfi_def_cfa_offset 0
 162 00e0 67800000 		jr	ra
 163              		.cfi_endproc
 164              	.LFE23:
 166              		.align	2
 167              		.globl	_ZN7Console15get_from_outputEv
 169              	_ZN7Console15get_from_outputEv:
 170              	.LFB24:
  18:src/console.cpp ****     return (char)output_buffer->get();
 171              		.loc 1 18 32 is_stmt 1
 172              		.cfi_startproc
 173              	.LVL16:
 174 00e4 130101FF 		addi	sp,sp,-16
 175              		.cfi_def_cfa_offset 16
 176 00e8 23341100 		sd	ra,8(sp)
 177 00ec 23308100 		sd	s0,0(sp)
 178              		.cfi_offset 1, -8
 179              		.cfi_offset 8, -16
 180 00f0 13040101 		addi	s0,sp,16
 181              		.cfi_def_cfa 8, 0
  19:src/console.cpp **** }
GAS LISTING /tmp/ccOicyt0.s 			page 5


 182              		.loc 1 19 5
  19:src/console.cpp **** }
 183              		.loc 1 19 36 is_stmt 0
 184 00f4 03358500 		ld	a0,8(a0)
 185              	.LVL17:
 186 00f8 97000000 		call	_ZN8MyBuffer3getEv@plt
 186      E7800000 
 187              	.LVL18:
  20:src/console.cpp **** 
 188              		.loc 1 20 1
 189 0100 1375F50F 		andi	a0,a0,0xff
 190 0104 83308100 		ld	ra,8(sp)
 191              		.cfi_restore 1
 192 0108 03340100 		ld	s0,0(sp)
 193              		.cfi_restore 8
 194              		.cfi_def_cfa 2, 16
 195 010c 13010101 		addi	sp,sp,16
 196              		.cfi_def_cfa_offset 0
 197 0110 67800000 		jr	ra
 198              		.cfi_endproc
 199              	.LFE24:
 201              		.section	.rodata.str1.8,"aMS",@progbits,1
 202              		.align	3
 203              	.LC0:
 204 0000 636F6E73 		.string	"console_cache"
 204      6F6C655F 
 204      63616368 
 204      6500
 205              		.text
 206              		.align	2
 207              		.globl	_ZN7Console11getInstanceEv
 209              	_ZN7Console11getInstanceEv:
 210              	.LFB25:
  22:src/console.cpp ****     if(!console_instance){
 211              		.loc 1 22 33 is_stmt 1
 212              		.cfi_startproc
  23:src/console.cpp ****         console_cache = (kmem_cache_t*) kmem_cache_create("console_cache", sizeof(Console), &consol
 213              		.loc 1 23 5
  23:src/console.cpp ****         console_cache = (kmem_cache_t*) kmem_cache_create("console_cache", sizeof(Console), &consol
 214              		.loc 1 23 8 is_stmt 0
 215 0114 97070000 		ld	a5,.LANCHOR0
 215      83B70700 
  23:src/console.cpp ****         console_cache = (kmem_cache_t*) kmem_cache_create("console_cache", sizeof(Console), &consol
 216              		.loc 1 23 5
 217 011c 63880700 		beqz	a5,.L17
  27:src/console.cpp **** 
 218              		.loc 1 27 5 is_stmt 1
  29:src/console.cpp **** 
 219              		.loc 1 29 1 is_stmt 0
 220 0120 17050000 		ld	a0,.LANCHOR0
 220      03350500 
 221 0128 67800000 		ret
 222              	.L17:
  22:src/console.cpp ****     if(!console_instance){
 223              		.loc 1 22 33
 224 012c 130101FE 		addi	sp,sp,-32
 225              		.cfi_def_cfa_offset 32
GAS LISTING /tmp/ccOicyt0.s 			page 6


 226 0130 233C1100 		sd	ra,24(sp)
 227 0134 23388100 		sd	s0,16(sp)
 228 0138 23349100 		sd	s1,8(sp)
 229              		.cfi_offset 1, -8
 230              		.cfi_offset 8, -16
 231              		.cfi_offset 9, -24
 232 013c 13040102 		addi	s0,sp,32
 233              		.cfi_def_cfa 8, 0
  24:src/console.cpp ****         console_instance = (Console*)kmem_cache_alloc(console_cache);
 234              		.loc 1 24 9 is_stmt 1
  24:src/console.cpp ****         console_instance = (Console*)kmem_cache_alloc(console_cache);
 235              		.loc 1 24 58 is_stmt 0
 236 0140 93060000 		li	a3,0
 237 0144 17060000 		lla	a2,_ZN7Console13console_setupEPv
 237      13060600 
 238 014c 93050001 		li	a1,16
 239 0150 17050000 		lla	a0,.LC0
 239      13050500 
 240 0158 97000000 		call	_Z17kmem_cache_createPKcmPFvPvES3_@plt
 240      E7800000 
 241              	.LVL19:
  24:src/console.cpp ****         console_instance = (Console*)kmem_cache_alloc(console_cache);
 242              		.loc 1 24 23
 243 0160 97040000 		lla	s1,.LANCHOR0
 243      93840400 
 244 0168 23B4A400 		sd	a0,8(s1)
  25:src/console.cpp ****     }
 245              		.loc 1 25 9 is_stmt 1
  25:src/console.cpp ****     }
 246              		.loc 1 25 54 is_stmt 0
 247 016c 97000000 		call	_Z16kmem_cache_allocP12kmem_cache_s@plt
 247      E7800000 
 248              	.LVL20:
  25:src/console.cpp ****     }
 249              		.loc 1 25 26
 250 0174 23B0A400 		sd	a0,0(s1)
  27:src/console.cpp **** 
 251              		.loc 1 27 5 is_stmt 1
  29:src/console.cpp **** 
 252              		.loc 1 29 1 is_stmt 0
 253 0178 17050000 		ld	a0,.LANCHOR0
 253      03350500 
 254 0180 83308101 		ld	ra,24(sp)
 255              		.cfi_restore 1
 256 0184 03340101 		ld	s0,16(sp)
 257              		.cfi_restore 8
 258              		.cfi_def_cfa 2, 32
 259 0188 83348100 		ld	s1,8(sp)
 260              		.cfi_restore 9
 261 018c 13010102 		addi	sp,sp,32
 262              		.cfi_def_cfa_offset 0
 263 0190 67800000 		jr	ra
 264              		.cfi_endproc
 265              	.LFE25:
 267              		.globl	_ZN7Console13console_cacheE
 268              		.globl	_ZN7Console16console_instanceE
 269              		.bss
GAS LISTING /tmp/ccOicyt0.s 			page 7


 270              		.align	3
 271              		.set	.LANCHOR0,. + 0
 274              	_ZN7Console16console_instanceE:
 275 0000 00000000 		.zero	8
 275      00000000 
 278              	_ZN7Console13console_cacheE:
 279 0008 00000000 		.zero	8
 279      00000000 
 280              		.text
 281              	.Letext0:
 282              		.file 2 "src/../h/../h/../h/../lib/hw.h"
 283              		.file 3 "src/../h/../h/../h/SlabI.h"
 284              		.file 4 "src/../h/../h/../h/semaphore.hpp"
 285              		.file 5 "src/../h/../h/my_buffer.hpp"
 286              		.file 6 "src/../h/console.hpp"
GAS LISTING /tmp/ccOicyt0.s 			page 8

