GAS LISTING /tmp/cch4gvzP.s 			page 1


   1              		.file	"console.cpp"
   2              		.option pic
   3              		.option norelax
   4              		.text
   5              	.Ltext0:
   6              		.section	.text._ZN8MyBufferdlEPv,"axG",@progbits,_ZN8MyBufferdlEPv,comdat
   7              		.align	2
   8              		.weak	_ZN8MyBufferdlEPv
  10              	_ZN8MyBufferdlEPv:
  11              	.LFB19:
  12              		.file 1 "src/../h/../h/my_buffer.hpp"
   1:src/../h/../h/my_buffer.hpp **** #ifndef _my_buffer_hpp_
   2:src/../h/../h/my_buffer.hpp **** #define _my_buffer_hpp_
   3:src/../h/../h/my_buffer.hpp **** 
   4:src/../h/../h/my_buffer.hpp **** #include "../h/semaphore.hpp"
   5:src/../h/../h/my_buffer.hpp **** #include "../h/MemoryAllocator.hpp"
   6:src/../h/../h/my_buffer.hpp **** #include "../lib/hw.h"
   7:src/../h/../h/my_buffer.hpp **** 
   8:src/../h/../h/my_buffer.hpp **** class MyBuffer {
   9:src/../h/../h/my_buffer.hpp **** private:
  10:src/../h/../h/my_buffer.hpp ****     int cap;
  11:src/../h/../h/my_buffer.hpp ****     int *buffer;
  12:src/../h/../h/my_buffer.hpp ****     int head, tail;
  13:src/../h/../h/my_buffer.hpp **** 
  14:src/../h/../h/my_buffer.hpp ****     MySemaphore* spaceAvailable;
  15:src/../h/../h/my_buffer.hpp ****     MySemaphore* itemAvailable;
  16:src/../h/../h/my_buffer.hpp ****     MySemaphore* mutexHead;
  17:src/../h/../h/my_buffer.hpp ****     MySemaphore* mutexTail;
  18:src/../h/../h/my_buffer.hpp **** 
  19:src/../h/../h/my_buffer.hpp **** 
  20:src/../h/../h/my_buffer.hpp **** 
  21:src/../h/../h/my_buffer.hpp **** public:
  22:src/../h/../h/my_buffer.hpp ****     MyBuffer(int _cap);
  23:src/../h/../h/my_buffer.hpp ****     ~MyBuffer();
  24:src/../h/../h/my_buffer.hpp **** 
  25:src/../h/../h/my_buffer.hpp ****     void put(int val);
  26:src/../h/../h/my_buffer.hpp ****     int get();
  27:src/../h/../h/my_buffer.hpp **** 
  28:src/../h/../h/my_buffer.hpp ****     int getCnt();
  29:src/../h/../h/my_buffer.hpp **** 
  30:src/../h/../h/my_buffer.hpp ****     // operatori
  31:src/../h/../h/my_buffer.hpp ****     void *operator new(uint64 n){
  32:src/../h/../h/my_buffer.hpp ****         uint64 ssize = (n + MEM_BLOCK_SIZE - 1) / MEM_BLOCK_SIZE;
  33:src/../h/../h/my_buffer.hpp ****         return MemoryAllocator::getInstance().memory_alloc(ssize);
  34:src/../h/../h/my_buffer.hpp ****     }
  35:src/../h/../h/my_buffer.hpp **** 
  36:src/../h/../h/my_buffer.hpp ****     void *operator new[](uint64 n){
  37:src/../h/../h/my_buffer.hpp ****         uint64 ssize = (n + MEM_BLOCK_SIZE - 1) / MEM_BLOCK_SIZE;
  38:src/../h/../h/my_buffer.hpp ****         return MemoryAllocator::getInstance().memory_alloc(ssize);
  39:src/../h/../h/my_buffer.hpp ****     }
  40:src/../h/../h/my_buffer.hpp **** 
  41:src/../h/../h/my_buffer.hpp ****     void operator delete(void* p)noexcept{
  13              		.loc 1 41 10
  14              		.cfi_startproc
  15              		.cfi_personality 0x9b,DW.ref.__gxx_personality_v0
  16              		.cfi_lsda 0x1b,.LLSDA19
  17              	.LVL0:
GAS LISTING /tmp/cch4gvzP.s 			page 2


  18 0000 130101FF 		addi	sp,sp,-16
  19              		.cfi_def_cfa_offset 16
  20 0004 23341100 		sd	ra,8(sp)
  21 0008 23308100 		sd	s0,0(sp)
  22              		.cfi_offset 1, -8
  23              		.cfi_offset 8, -16
  24 000c 13040101 		addi	s0,sp,16
  25              		.cfi_def_cfa 8, 0
  26 0010 93050500 		mv	a1,a0
  42:src/../h/../h/my_buffer.hpp ****         MemoryAllocator::getInstance().memory_free(p);
  27              		.loc 1 42 9
  28              	.LBB12:
  29              	.LBB13:
  30              		.file 2 "src/../h/../h/../h/../h/MemoryAllocator.hpp"
   1:src/../h/../h/../h/../h/MemoryAllocator.hpp **** #ifndef _memory_allocator_hpp_
   2:src/../h/../h/../h/../h/MemoryAllocator.hpp **** #define _memory_allocator_hpp_
   3:src/../h/../h/../h/../h/MemoryAllocator.hpp **** 
   4:src/../h/../h/../h/../h/MemoryAllocator.hpp **** #include "../lib/hw.h"
   5:src/../h/../h/../h/../h/MemoryAllocator.hpp **** 
   6:src/../h/../h/../h/../h/MemoryAllocator.hpp **** class MemoryAllocator{
   7:src/../h/../h/../h/../h/MemoryAllocator.hpp **** public:
   8:src/../h/../h/../h/../h/MemoryAllocator.hpp **** 
   9:src/../h/../h/../h/../h/MemoryAllocator.hpp ****     // dodaj instancu
  10:src/../h/../h/../h/../h/MemoryAllocator.hpp ****     static MemoryAllocator& getInstance(){
  11:src/../h/../h/../h/../h/MemoryAllocator.hpp ****         static MemoryAllocator instance;
  31              		.loc 2 11 9
  32              		.loc 2 11 32 is_stmt 0
  33 0014 97070000 		lbu	a5,_ZGVZN15MemoryAllocator11getInstanceEvE8instance
  33      83C70700 
  34 001c 63820702 		beqz	a5,.L5
  35              	.L2:
  12:src/../h/../h/../h/../h/MemoryAllocator.hpp ****         return instance;
  36              		.loc 2 12 9 is_stmt 1
  37              	.LBE13:
  38              	.LBE12:
  39              		.loc 1 42 51 is_stmt 0
  40 0020 17050000 		lla	a0,_ZZN15MemoryAllocator11getInstanceEvE8instance
  40      13050500 
  41              	.LVL1:
  42 0028 97000000 		call	_ZN15MemoryAllocator11memory_freeEPv@plt
  42      E7800000 
  43              	.LVL2:
  43:src/../h/../h/my_buffer.hpp ****     }
  44              		.loc 1 43 5
  45 0030 83308100 		ld	ra,8(sp)
  46              		.cfi_remember_state
  47              		.cfi_restore 1
  48 0034 03340100 		ld	s0,0(sp)
  49              		.cfi_restore 8
  50              		.cfi_def_cfa 2, 16
  51 0038 13010101 		addi	sp,sp,16
  52              		.cfi_def_cfa_offset 0
  53 003c 67800000 		jr	ra
  54              	.LVL3:
  55              	.L5:
  56              		.cfi_restore_state
  57              	.LBB19:
GAS LISTING /tmp/cch4gvzP.s 			page 3


  58              	.LBB18:
  59              	.LBB14:
  60              	.LBB15:
  61              	.LBB16:
  13:src/../h/../h/../h/../h/MemoryAllocator.hpp ****     }
  14:src/../h/../h/../h/../h/MemoryAllocator.hpp **** 
  15:src/../h/../h/../h/../h/MemoryAllocator.hpp ****     MemoryAllocator(const MemoryAllocator&) = delete;
  16:src/../h/../h/../h/../h/MemoryAllocator.hpp ****     void operator=(MemoryAllocator const&) = delete;
  17:src/../h/../h/../h/../h/MemoryAllocator.hpp **** 
  18:src/../h/../h/../h/../h/MemoryAllocator.hpp ****     void* memory_alloc (size_t);
  19:src/../h/../h/../h/../h/MemoryAllocator.hpp **** 
  20:src/../h/../h/../h/../h/MemoryAllocator.hpp ****     int memory_free (void*);
  21:src/../h/../h/../h/../h/MemoryAllocator.hpp ****     int get_mem_alloc_heap_start(){return this->heapStart;}
  22:src/../h/../h/../h/../h/MemoryAllocator.hpp ****     int get_mem_alloc_heap_end(){return this->heapEnd;}
  23:src/../h/../h/../h/../h/MemoryAllocator.hpp **** 
  24:src/../h/../h/../h/../h/MemoryAllocator.hpp **** private:
  25:src/../h/../h/../h/../h/MemoryAllocator.hpp **** 
  26:src/../h/../h/../h/../h/MemoryAllocator.hpp ****     struct FreeMem{
  27:src/../h/../h/../h/../h/MemoryAllocator.hpp ****         size_t size;
  28:src/../h/../h/../h/../h/MemoryAllocator.hpp ****         FreeMem* next;
  29:src/../h/../h/../h/../h/MemoryAllocator.hpp ****         FreeMem* prev;
  30:src/../h/../h/../h/../h/MemoryAllocator.hpp ****     };
  31:src/../h/../h/../h/../h/MemoryAllocator.hpp **** 
  32:src/../h/../h/../h/../h/MemoryAllocator.hpp ****     FreeMem* fmem_head = nullptr;
  33:src/../h/../h/../h/../h/MemoryAllocator.hpp ****     size_t heapStart;
  34:src/../h/../h/../h/../h/MemoryAllocator.hpp ****     size_t heapEnd;
  35:src/../h/../h/../h/../h/MemoryAllocator.hpp **** 
  36:src/../h/../h/../h/../h/MemoryAllocator.hpp ****     MemoryAllocator(){
  62              		.loc 2 36 22
  63 0040 17060000 		lla	a2,_ZZN15MemoryAllocator11getInstanceEvE8instance
  63      13060600 
  64              	.LBB17:
  37:src/../h/../h/../h/../h/MemoryAllocator.hpp **** 
  38:src/../h/../h/../h/../h/MemoryAllocator.hpp ****         heapStart = (size_t)HEAP_START_ADDR + ((size_t)HEAP_END_ADDR - (size_t)HEAP_START_ADDR) / 8
  65              		.loc 2 38 9 is_stmt 1
  66              		.loc 2 38 70 is_stmt 0
  67 0048 97070000 		la	a5,HEAP_END_ADDR
  67      83B70700 
  68 0050 03B70700 		ld	a4,0(a5)
  69 0054 97070000 		la	a5,HEAP_START_ADDR
  69      83B70700 
  70 005c 83B70700 		ld	a5,0(a5)
  71 0060 B306F740 		sub	a3,a4,a5
  72              		.loc 2 38 97
  73 0064 93D63600 		srli	a3,a3,3
  74              		.loc 2 38 45
  75 0068 B387D700 		add	a5,a5,a3
  76              		.loc 2 38 101
  77 006c 93871700 		addi	a5,a5,1
  78              		.loc 2 38 19
  79 0070 2334F600 		sd	a5,8(a2)
  39:src/../h/../h/../h/../h/MemoryAllocator.hpp ****         heapEnd = (size_t)HEAP_END_ADDR - 1;
  80              		.loc 2 39 9 is_stmt 1
  81              		.loc 2 39 41 is_stmt 0
  82 0074 1307F7FF 		addi	a4,a4,-1
  83              		.loc 2 39 17
  84 0078 2338E600 		sd	a4,16(a2)
GAS LISTING /tmp/cch4gvzP.s 			page 4


  40:src/../h/../h/../h/../h/MemoryAllocator.hpp **** 
  41:src/../h/../h/../h/../h/MemoryAllocator.hpp ****         size_t sizeInBlocks = (heapEnd - heapStart) / MEM_BLOCK_SIZE;
  85              		.loc 2 41 9 is_stmt 1
  86              		.loc 2 41 40 is_stmt 0
  87 007c 3307F740 		sub	a4,a4,a5
  88              		.loc 2 41 16
  89 0080 13576700 		srli	a4,a4,6
  90              	.LVL4:
  42:src/../h/../h/../h/../h/MemoryAllocator.hpp **** 
  43:src/../h/../h/../h/../h/MemoryAllocator.hpp ****         // poravnaj na prvu krstenu adresu
  44:src/../h/../h/../h/../h/MemoryAllocator.hpp ****         fmem_head = (FreeMem*)(heapStart + ((heapStart % MEM_BLOCK_SIZE != 0)?(MEM_BLOCK_SIZE - hea
  91              		.loc 2 44 9 is_stmt 1
  92              		.loc 2 44 56 is_stmt 0
  93 0084 93F6F703 		andi	a3,a5,63
  94              		.loc 2 44 78
  95 0088 63860600 		beqz	a3,.L3
  96 008c 13060004 		li	a2,64
  97 0090 B306D640 		sub	a3,a2,a3
  98              	.L3:
  99              		.loc 2 44 42
 100 0094 B387D700 		add	a5,a5,a3
 101              		.loc 2 44 19
 102 0098 97060000 		sd	a5,_ZZN15MemoryAllocator11getInstanceEvE8instance,a3
 102      23B0F600 
  45:src/../h/../h/../h/../h/MemoryAllocator.hpp **** 
  46:src/../h/../h/../h/../h/MemoryAllocator.hpp ****         // napravi node
  47:src/../h/../h/../h/../h/MemoryAllocator.hpp **** 
  48:src/../h/../h/../h/../h/MemoryAllocator.hpp ****         fmem_head->next = nullptr;
 103              		.loc 2 48 9 is_stmt 1
 104              		.loc 2 48 25 is_stmt 0
 105 00a0 23B40700 		sd	zero,8(a5)
  49:src/../h/../h/../h/../h/MemoryAllocator.hpp ****         fmem_head->prev = nullptr;
 106              		.loc 2 49 9 is_stmt 1
 107              		.loc 2 49 25 is_stmt 0
 108 00a4 23B80700 		sd	zero,16(a5)
  50:src/../h/../h/../h/../h/MemoryAllocator.hpp ****         fmem_head->size = sizeInBlocks;
 109              		.loc 2 50 9 is_stmt 1
 110              		.loc 2 50 25 is_stmt 0
 111 00a8 23B0E700 		sd	a4,0(a5)
 112              	.LVL5:
 113              	.LBE17:
 114              	.LBE16:
 115              	.LBE15:
 116              	.LBE14:
  11:src/../h/../h/../h/../h/MemoryAllocator.hpp ****         return instance;
 117              		.loc 2 11 32
 118 00ac 93071000 		li	a5,1
 119 00b0 17070000 		sb	a5,_ZGVZN15MemoryAllocator11getInstanceEvE8instance,a4
 119      2300F700 
 120 00b8 6FF09FF6 		j	.L2
 121              	.LBE18:
 122              	.LBE19:
 123              		.cfi_endproc
 124              	.LFE19:
 125              		.globl	__gxx_personality_v0
 126              		.section	.gcc_except_table._ZN8MyBufferdlEPv,"aG",@progbits,_ZN8MyBufferdlEPv,comdat
 127              	.LLSDA19:
GAS LISTING /tmp/cch4gvzP.s 			page 5


 128 0000 FF       		.byte	0xff
 129 0001 FF       		.byte	0xff
 130 0002 03       		.byte	0x3
 131 0003 00       		.byte	0
 132              		.section	.text._ZN8MyBufferdlEPv,"axG",@progbits,_ZN8MyBufferdlEPv,comdat
 134              		.text
 135              		.align	2
 136              		.globl	_ZN7ConsoleC2Ev
 138              	_ZN7ConsoleC2Ev:
 139              	.LFB26:
 140              		.file 3 "src/console.cpp"
   1:src/console.cpp **** 
   2:src/console.cpp **** #include "../h/console.hpp"
   3:src/console.cpp **** 
   4:src/console.cpp **** Console::Console() {
 141              		.loc 3 4 1 is_stmt 1
 142              		.cfi_startproc
 143              		.cfi_personality 0x9b,DW.ref.__gxx_personality_v0
 144              		.cfi_lsda 0x1b,.LLSDA26
 145              	.LVL6:
 146 0000 130101FE 		addi	sp,sp,-32
 147              		.cfi_def_cfa_offset 32
 148 0004 233C1100 		sd	ra,24(sp)
 149 0008 23388100 		sd	s0,16(sp)
 150 000c 23349100 		sd	s1,8(sp)
 151 0010 23302101 		sd	s2,0(sp)
 152              		.cfi_offset 1, -8
 153              		.cfi_offset 8, -16
 154              		.cfi_offset 9, -24
 155              		.cfi_offset 18, -32
 156 0014 13040102 		addi	s0,sp,32
 157              		.cfi_def_cfa 8, 0
 158 0018 93040500 		mv	s1,a0
 159              	.LBB37:
   5:src/console.cpp ****     input_buffer = new MyBuffer(1024);
 160              		.loc 3 5 5
 161              	.LVL7:
 162              	.LBB38:
 163              	.LBB39:
  32:src/../h/../h/my_buffer.hpp ****         return MemoryAllocator::getInstance().memory_alloc(ssize);
 164              		.loc 1 32 9
  33:src/../h/../h/my_buffer.hpp ****     }
 165              		.loc 1 33 9
 166              	.LBB40:
 167              	.LBB41:
  11:src/../h/../h/../h/../h/MemoryAllocator.hpp ****         return instance;
 168              		.loc 2 11 9
  11:src/../h/../h/../h/../h/MemoryAllocator.hpp ****         return instance;
 169              		.loc 2 11 32 is_stmt 0
 170 001c 97070000 		lbu	a5,_ZGVZN15MemoryAllocator11getInstanceEvE8instance
 170      83C70700 
 171 0024 63860702 		beqz	a5,.L17
 172              	.L7:
  12:src/../h/../h/../h/../h/MemoryAllocator.hpp ****     }
 173              		.loc 2 12 9 is_stmt 1
 174              	.LBE41:
 175              	.LBE40:
GAS LISTING /tmp/cch4gvzP.s 			page 6


  33:src/../h/../h/my_buffer.hpp ****     }
 176              		.loc 1 33 59 is_stmt 0
 177 0028 93051000 		li	a1,1
 178 002c 17050000 		lla	a0,_ZZN15MemoryAllocator11getInstanceEvE8instance
 178      13050500 
 179              	.LVL8:
 180              	.LEHB0:
 181 0034 97000000 		call	_ZN15MemoryAllocator12memory_allocEm@plt
 181      E7800000 
 182              	.LVL9:
 183              	.LEHE0:
 184 003c 13090500 		mv	s2,a0
 185              	.LVL10:
 186              	.LBE39:
 187              	.LBE38:
 188              		.loc 3 5 37
 189 0040 93050040 		li	a1,1024
 190              	.LEHB1:
 191 0044 97000000 		call	_ZN8MyBufferC1Ei@plt
 191      E7800000 
 192              	.LVL11:
 193              	.LEHE1:
 194 004c 6F000008 		j	.L18
 195              	.LVL12:
 196              	.L17:
 197              	.LBB49:
 198              	.LBB48:
 199              	.LBB47:
 200              	.LBB46:
 201              	.LBB42:
 202              	.LBB43:
 203              	.LBB44:
  36:src/../h/../h/../h/../h/MemoryAllocator.hpp **** 
 204              		.loc 2 36 22
 205 0050 17060000 		lla	a2,_ZZN15MemoryAllocator11getInstanceEvE8instance
 205      13060600 
 206              	.LBB45:
  38:src/../h/../h/../h/../h/MemoryAllocator.hpp ****         heapEnd = (size_t)HEAP_END_ADDR - 1;
 207              		.loc 2 38 9 is_stmt 1
  38:src/../h/../h/../h/../h/MemoryAllocator.hpp ****         heapEnd = (size_t)HEAP_END_ADDR - 1;
 208              		.loc 2 38 70 is_stmt 0
 209 0058 97070000 		la	a5,HEAP_END_ADDR
 209      83B70700 
 210 0060 03B70700 		ld	a4,0(a5)
 211 0064 97070000 		la	a5,HEAP_START_ADDR
 211      83B70700 
 212 006c 83B70700 		ld	a5,0(a5)
 213 0070 B306F740 		sub	a3,a4,a5
  38:src/../h/../h/../h/../h/MemoryAllocator.hpp ****         heapEnd = (size_t)HEAP_END_ADDR - 1;
 214              		.loc 2 38 97
 215 0074 93D63600 		srli	a3,a3,3
  38:src/../h/../h/../h/../h/MemoryAllocator.hpp ****         heapEnd = (size_t)HEAP_END_ADDR - 1;
 216              		.loc 2 38 45
 217 0078 B387D700 		add	a5,a5,a3
  38:src/../h/../h/../h/../h/MemoryAllocator.hpp ****         heapEnd = (size_t)HEAP_END_ADDR - 1;
 218              		.loc 2 38 101
 219 007c 93871700 		addi	a5,a5,1
GAS LISTING /tmp/cch4gvzP.s 			page 7


  38:src/../h/../h/../h/../h/MemoryAllocator.hpp ****         heapEnd = (size_t)HEAP_END_ADDR - 1;
 220              		.loc 2 38 19
 221 0080 2334F600 		sd	a5,8(a2)
  39:src/../h/../h/../h/../h/MemoryAllocator.hpp **** 
 222              		.loc 2 39 9 is_stmt 1
  39:src/../h/../h/../h/../h/MemoryAllocator.hpp **** 
 223              		.loc 2 39 41 is_stmt 0
 224 0084 1307F7FF 		addi	a4,a4,-1
  39:src/../h/../h/../h/../h/MemoryAllocator.hpp **** 
 225              		.loc 2 39 17
 226 0088 2338E600 		sd	a4,16(a2)
  41:src/../h/../h/../h/../h/MemoryAllocator.hpp **** 
 227              		.loc 2 41 9 is_stmt 1
  41:src/../h/../h/../h/../h/MemoryAllocator.hpp **** 
 228              		.loc 2 41 40 is_stmt 0
 229 008c 3307F740 		sub	a4,a4,a5
  41:src/../h/../h/../h/../h/MemoryAllocator.hpp **** 
 230              		.loc 2 41 16
 231 0090 13576700 		srli	a4,a4,6
 232              	.LVL13:
  44:src/../h/../h/../h/../h/MemoryAllocator.hpp **** 
 233              		.loc 2 44 9 is_stmt 1
  44:src/../h/../h/../h/../h/MemoryAllocator.hpp **** 
 234              		.loc 2 44 56 is_stmt 0
 235 0094 93F6F703 		andi	a3,a5,63
  44:src/../h/../h/../h/../h/MemoryAllocator.hpp **** 
 236              		.loc 2 44 78
 237 0098 63860600 		beqz	a3,.L8
 238 009c 13060004 		li	a2,64
 239 00a0 B306D640 		sub	a3,a2,a3
 240              	.L8:
  44:src/../h/../h/../h/../h/MemoryAllocator.hpp **** 
 241              		.loc 2 44 42
 242 00a4 B387D700 		add	a5,a5,a3
  44:src/../h/../h/../h/../h/MemoryAllocator.hpp **** 
 243              		.loc 2 44 19
 244 00a8 97060000 		sd	a5,_ZZN15MemoryAllocator11getInstanceEvE8instance,a3
 244      23B0F600 
  48:src/../h/../h/../h/../h/MemoryAllocator.hpp ****         fmem_head->prev = nullptr;
 245              		.loc 2 48 9 is_stmt 1
  48:src/../h/../h/../h/../h/MemoryAllocator.hpp ****         fmem_head->prev = nullptr;
 246              		.loc 2 48 25 is_stmt 0
 247 00b0 23B40700 		sd	zero,8(a5)
  49:src/../h/../h/../h/../h/MemoryAllocator.hpp ****         fmem_head->size = sizeInBlocks;
 248              		.loc 2 49 9 is_stmt 1
  49:src/../h/../h/../h/../h/MemoryAllocator.hpp ****         fmem_head->size = sizeInBlocks;
 249              		.loc 2 49 25 is_stmt 0
 250 00b4 23B80700 		sd	zero,16(a5)
 251              		.loc 2 50 9 is_stmt 1
 252              		.loc 2 50 25 is_stmt 0
 253 00b8 23B0E700 		sd	a4,0(a5)
 254              	.LVL14:
 255              	.LBE45:
 256              	.LBE44:
 257              	.LBE43:
 258              	.LBE42:
  11:src/../h/../h/../h/../h/MemoryAllocator.hpp ****         return instance;
GAS LISTING /tmp/cch4gvzP.s 			page 8


 259              		.loc 2 11 32
 260 00bc 93071000 		li	a5,1
 261 00c0 17070000 		sb	a5,_ZGVZN15MemoryAllocator11getInstanceEvE8instance,a4
 261      2300F700 
 262 00c8 6FF01FF6 		j	.L7
 263              	.LVL15:
 264              	.L18:
 265              	.LBE46:
 266              	.LBE47:
 267              	.LBE48:
 268              	.LBE49:
 269              		.loc 3 5 18 discriminator 2
 270 00cc 23B02401 		sd	s2,0(s1)
   6:src/console.cpp ****     output_buffer = new MyBuffer(1024);
 271              		.loc 3 6 5 is_stmt 1 discriminator 2
 272              	.LVL16:
 273              	.LBB50:
 274              	.LBB51:
  32:src/../h/../h/my_buffer.hpp ****         return MemoryAllocator::getInstance().memory_alloc(ssize);
 275              		.loc 1 32 9 discriminator 2
  33:src/../h/../h/my_buffer.hpp ****     }
 276              		.loc 1 33 9 discriminator 2
 277              	.LBB52:
 278              	.LBB53:
  11:src/../h/../h/../h/../h/MemoryAllocator.hpp ****         return instance;
 279              		.loc 2 11 9 discriminator 2
  11:src/../h/../h/../h/../h/MemoryAllocator.hpp ****         return instance;
 280              		.loc 2 11 32 is_stmt 0 discriminator 2
 281 00d0 97070000 		lbu	a5,_ZGVZN15MemoryAllocator11getInstanceEvE8instance
 281      83C70700 
 282 00d8 63860702 		beqz	a5,.L19
 283              	.L9:
  12:src/../h/../h/../h/../h/MemoryAllocator.hpp ****     }
 284              		.loc 2 12 9 is_stmt 1
 285              	.LBE53:
 286              	.LBE52:
  33:src/../h/../h/my_buffer.hpp ****     }
 287              		.loc 1 33 59 is_stmt 0
 288 00dc 93051000 		li	a1,1
 289 00e0 17050000 		lla	a0,_ZZN15MemoryAllocator11getInstanceEvE8instance
 289      13050500 
 290              	.LEHB2:
 291 00e8 97000000 		call	_ZN15MemoryAllocator12memory_allocEm@plt
 291      E7800000 
 292              	.LVL17:
 293              	.LEHE2:
 294 00f0 13090500 		mv	s2,a0
 295              	.LVL18:
 296              	.LBE51:
 297              	.LBE50:
 298              		.loc 3 6 38
 299 00f4 93050040 		li	a1,1024
 300              	.LEHB3:
 301 00f8 97000000 		call	_ZN8MyBufferC1Ei@plt
 301      E7800000 
 302              	.LVL19:
 303              	.LEHE3:
GAS LISTING /tmp/cch4gvzP.s 			page 9


 304 0100 6F000008 		j	.L20
 305              	.LVL20:
 306              	.L19:
 307              	.LBB61:
 308              	.LBB60:
 309              	.LBB59:
 310              	.LBB58:
 311              	.LBB54:
 312              	.LBB55:
 313              	.LBB56:
  36:src/../h/../h/../h/../h/MemoryAllocator.hpp **** 
 314              		.loc 2 36 22
 315 0104 17060000 		lla	a2,_ZZN15MemoryAllocator11getInstanceEvE8instance
 315      13060600 
 316              	.LBB57:
  38:src/../h/../h/../h/../h/MemoryAllocator.hpp ****         heapEnd = (size_t)HEAP_END_ADDR - 1;
 317              		.loc 2 38 9 is_stmt 1
  38:src/../h/../h/../h/../h/MemoryAllocator.hpp ****         heapEnd = (size_t)HEAP_END_ADDR - 1;
 318              		.loc 2 38 70 is_stmt 0
 319 010c 97070000 		la	a5,HEAP_END_ADDR
 319      83B70700 
 320 0114 03B70700 		ld	a4,0(a5)
 321 0118 97070000 		la	a5,HEAP_START_ADDR
 321      83B70700 
 322 0120 83B70700 		ld	a5,0(a5)
 323 0124 B306F740 		sub	a3,a4,a5
  38:src/../h/../h/../h/../h/MemoryAllocator.hpp ****         heapEnd = (size_t)HEAP_END_ADDR - 1;
 324              		.loc 2 38 97
 325 0128 93D63600 		srli	a3,a3,3
  38:src/../h/../h/../h/../h/MemoryAllocator.hpp ****         heapEnd = (size_t)HEAP_END_ADDR - 1;
 326              		.loc 2 38 45
 327 012c B387D700 		add	a5,a5,a3
  38:src/../h/../h/../h/../h/MemoryAllocator.hpp ****         heapEnd = (size_t)HEAP_END_ADDR - 1;
 328              		.loc 2 38 101
 329 0130 93871700 		addi	a5,a5,1
  38:src/../h/../h/../h/../h/MemoryAllocator.hpp ****         heapEnd = (size_t)HEAP_END_ADDR - 1;
 330              		.loc 2 38 19
 331 0134 2334F600 		sd	a5,8(a2)
  39:src/../h/../h/../h/../h/MemoryAllocator.hpp **** 
 332              		.loc 2 39 9 is_stmt 1
  39:src/../h/../h/../h/../h/MemoryAllocator.hpp **** 
 333              		.loc 2 39 41 is_stmt 0
 334 0138 1307F7FF 		addi	a4,a4,-1
  39:src/../h/../h/../h/../h/MemoryAllocator.hpp **** 
 335              		.loc 2 39 17
 336 013c 2338E600 		sd	a4,16(a2)
  41:src/../h/../h/../h/../h/MemoryAllocator.hpp **** 
 337              		.loc 2 41 9 is_stmt 1
  41:src/../h/../h/../h/../h/MemoryAllocator.hpp **** 
 338              		.loc 2 41 40 is_stmt 0
 339 0140 3307F740 		sub	a4,a4,a5
  41:src/../h/../h/../h/../h/MemoryAllocator.hpp **** 
 340              		.loc 2 41 16
 341 0144 13576700 		srli	a4,a4,6
 342              	.LVL21:
  44:src/../h/../h/../h/../h/MemoryAllocator.hpp **** 
 343              		.loc 2 44 9 is_stmt 1
GAS LISTING /tmp/cch4gvzP.s 			page 10


  44:src/../h/../h/../h/../h/MemoryAllocator.hpp **** 
 344              		.loc 2 44 56 is_stmt 0
 345 0148 93F6F703 		andi	a3,a5,63
  44:src/../h/../h/../h/../h/MemoryAllocator.hpp **** 
 346              		.loc 2 44 78
 347 014c 63860600 		beqz	a3,.L10
 348 0150 13060004 		li	a2,64
 349 0154 B306D640 		sub	a3,a2,a3
 350              	.L10:
  44:src/../h/../h/../h/../h/MemoryAllocator.hpp **** 
 351              		.loc 2 44 42
 352 0158 B387D700 		add	a5,a5,a3
  44:src/../h/../h/../h/../h/MemoryAllocator.hpp **** 
 353              		.loc 2 44 19
 354 015c 97060000 		sd	a5,_ZZN15MemoryAllocator11getInstanceEvE8instance,a3
 354      23B0F600 
  48:src/../h/../h/../h/../h/MemoryAllocator.hpp ****         fmem_head->prev = nullptr;
 355              		.loc 2 48 9 is_stmt 1
  48:src/../h/../h/../h/../h/MemoryAllocator.hpp ****         fmem_head->prev = nullptr;
 356              		.loc 2 48 25 is_stmt 0
 357 0164 23B40700 		sd	zero,8(a5)
  49:src/../h/../h/../h/../h/MemoryAllocator.hpp ****         fmem_head->size = sizeInBlocks;
 358              		.loc 2 49 9 is_stmt 1
  49:src/../h/../h/../h/../h/MemoryAllocator.hpp ****         fmem_head->size = sizeInBlocks;
 359              		.loc 2 49 25 is_stmt 0
 360 0168 23B80700 		sd	zero,16(a5)
 361              		.loc 2 50 9 is_stmt 1
 362              		.loc 2 50 25 is_stmt 0
 363 016c 23B0E700 		sd	a4,0(a5)
 364              	.LVL22:
 365              	.LBE57:
 366              	.LBE56:
 367              	.LBE55:
 368              	.LBE54:
  11:src/../h/../h/../h/../h/MemoryAllocator.hpp ****         return instance;
 369              		.loc 2 11 32
 370 0170 93071000 		li	a5,1
 371 0174 17070000 		sb	a5,_ZGVZN15MemoryAllocator11getInstanceEvE8instance,a4
 371      2300F700 
 372 017c 6FF01FF6 		j	.L9
 373              	.LVL23:
 374              	.L20:
 375              	.LBE58:
 376              	.LBE59:
 377              	.LBE60:
 378              	.LBE61:
 379              		.loc 3 6 19 discriminator 2
 380 0180 23B42401 		sd	s2,8(s1)
 381              	.LBE37:
   7:src/console.cpp **** }
 382              		.loc 3 7 1 discriminator 2
 383 0184 83308101 		ld	ra,24(sp)
 384              		.cfi_remember_state
 385              		.cfi_restore 1
 386 0188 03340101 		ld	s0,16(sp)
 387              		.cfi_restore 8
 388              		.cfi_def_cfa 2, 32
GAS LISTING /tmp/cch4gvzP.s 			page 11


 389 018c 83348100 		ld	s1,8(sp)
 390              		.cfi_restore 9
 391              	.LVL24:
 392 0190 03390100 		ld	s2,0(sp)
 393              		.cfi_restore 18
 394 0194 13010102 		addi	sp,sp,32
 395              		.cfi_def_cfa_offset 0
 396 0198 67800000 		jr	ra
 397              	.LVL25:
 398              	.L13:
 399              		.cfi_restore_state
 400 019c 93040500 		mv	s1,a0
 401              	.LVL26:
 402              	.LBB62:
   5:src/console.cpp ****     output_buffer = new MyBuffer(1024);
 403              		.loc 3 5 37
 404 01a0 13050900 		mv	a0,s2
 405 01a4 97000000 		call	_ZN8MyBufferdlEPv
 405      E7800000 
 406              	.LVL27:
 407 01ac 13850400 		mv	a0,s1
 408              	.LEHB4:
 409 01b0 97000000 		call	_Unwind_Resume@plt
 409      E7800000 
 410              	.LVL28:
 411              	.L14:
 412 01b8 93040500 		mv	s1,a0
 413              	.LVL29:
   6:src/console.cpp **** }
 414              		.loc 3 6 38
 415 01bc 13050900 		mv	a0,s2
 416 01c0 97000000 		call	_ZN8MyBufferdlEPv
 416      E7800000 
 417              	.LVL30:
 418 01c8 13850400 		mv	a0,s1
 419 01cc 97000000 		call	_Unwind_Resume@plt
 419      E7800000 
 420              	.LVL31:
 421              	.LEHE4:
 422              	.LBE62:
 423              		.cfi_endproc
 424              	.LFE26:
 425              		.section	.gcc_except_table,"a",@progbits
 426              	.LLSDA26:
 427 0000 FF       		.byte	0xff
 428 0001 FF       		.byte	0xff
 429 0002 03       		.byte	0x3
 430 0003 41       		.byte	0x41
 431 0004 00000000 		.4byte	.LEHB0-.LFB26
 432 0008 00000000 		.4byte	.LEHE0-.LEHB0
 433 000c 00000000 		.4byte	0
 434 0010 00       		.byte	0
 435 0011 00000000 		.4byte	.LEHB1-.LFB26
 436 0015 00000000 		.4byte	.LEHE1-.LEHB1
 437 0019 00000000 		.4byte	.L13-.LFB26
 438 001d 00       		.byte	0
 439 001e 00000000 		.4byte	.LEHB2-.LFB26
GAS LISTING /tmp/cch4gvzP.s 			page 12


 440 0022 00000000 		.4byte	.LEHE2-.LEHB2
 441 0026 00000000 		.4byte	0
 442 002a 00       		.byte	0
 443 002b 00000000 		.4byte	.LEHB3-.LFB26
 444 002f 00000000 		.4byte	.LEHE3-.LEHB3
 445 0033 00000000 		.4byte	.L14-.LFB26
 446 0037 00       		.byte	0
 447 0038 00000000 		.4byte	.LEHB4-.LFB26
 448 003c 00000000 		.4byte	.LEHE4-.LEHB4
 449 0040 00000000 		.4byte	0
 450 0044 00       		.byte	0
 451              		.text
 453              		.globl	_ZN7ConsoleC1Ev
 454              		.set	_ZN7ConsoleC1Ev,_ZN7ConsoleC2Ev
 455              		.align	2
 456              		.globl	_ZN7Console12put_in_inputEc
 458              	_ZN7Console12put_in_inputEc:
 459              	.LFB28:
   8:src/console.cpp **** 
   9:src/console.cpp **** void Console::put_in_input(char c){
 460              		.loc 3 9 35 is_stmt 1
 461              		.cfi_startproc
 462              	.LVL32:
 463 01d4 130101FF 		addi	sp,sp,-16
 464              		.cfi_def_cfa_offset 16
 465 01d8 23341100 		sd	ra,8(sp)
 466 01dc 23308100 		sd	s0,0(sp)
 467              		.cfi_offset 1, -8
 468              		.cfi_offset 8, -16
 469 01e0 13040101 		addi	s0,sp,16
 470              		.cfi_def_cfa 8, 0
  10:src/console.cpp ****     input_buffer->put(c);
 471              		.loc 3 10 5
 472              		.loc 3 10 22 is_stmt 0
 473 01e4 03350500 		ld	a0,0(a0)
 474              	.LVL33:
 475 01e8 97000000 		call	_ZN8MyBuffer3putEi@plt
 475      E7800000 
 476              	.LVL34:
  11:src/console.cpp **** }
 477              		.loc 3 11 1
 478 01f0 83308100 		ld	ra,8(sp)
 479              		.cfi_restore 1
 480 01f4 03340100 		ld	s0,0(sp)
 481              		.cfi_restore 8
 482              		.cfi_def_cfa 2, 16
 483 01f8 13010101 		addi	sp,sp,16
 484              		.cfi_def_cfa_offset 0
 485 01fc 67800000 		jr	ra
 486              		.cfi_endproc
 487              	.LFE28:
 489              		.align	2
 490              		.globl	_ZN7Console14get_from_inputEv
 492              	_ZN7Console14get_from_inputEv:
 493              	.LFB29:
  12:src/console.cpp **** 
  13:src/console.cpp **** char Console::get_from_input(){
GAS LISTING /tmp/cch4gvzP.s 			page 13


 494              		.loc 3 13 31 is_stmt 1
 495              		.cfi_startproc
 496              	.LVL35:
 497 0200 130101FF 		addi	sp,sp,-16
 498              		.cfi_def_cfa_offset 16
 499 0204 23341100 		sd	ra,8(sp)
 500 0208 23308100 		sd	s0,0(sp)
 501              		.cfi_offset 1, -8
 502              		.cfi_offset 8, -16
 503 020c 13040101 		addi	s0,sp,16
 504              		.cfi_def_cfa 8, 0
  14:src/console.cpp ****     return (char)input_buffer->get();
 505              		.loc 3 14 5
 506              		.loc 3 14 35 is_stmt 0
 507 0210 03350500 		ld	a0,0(a0)
 508              	.LVL36:
 509 0214 97000000 		call	_ZN8MyBuffer3getEv@plt
 509      E7800000 
 510              	.LVL37:
  15:src/console.cpp **** }
 511              		.loc 3 15 1
 512 021c 1375F50F 		andi	a0,a0,0xff
 513 0220 83308100 		ld	ra,8(sp)
 514              		.cfi_restore 1
 515 0224 03340100 		ld	s0,0(sp)
 516              		.cfi_restore 8
 517              		.cfi_def_cfa 2, 16
 518 0228 13010101 		addi	sp,sp,16
 519              		.cfi_def_cfa_offset 0
 520 022c 67800000 		jr	ra
 521              		.cfi_endproc
 522              	.LFE29:
 524              		.align	2
 525              		.globl	_ZN7Console13put_in_outputEc
 527              	_ZN7Console13put_in_outputEc:
 528              	.LFB30:
  16:src/console.cpp **** 
  17:src/console.cpp **** void Console::put_in_output(char c){
 529              		.loc 3 17 36 is_stmt 1
 530              		.cfi_startproc
 531              	.LVL38:
 532 0230 130101FF 		addi	sp,sp,-16
 533              		.cfi_def_cfa_offset 16
 534 0234 23341100 		sd	ra,8(sp)
 535 0238 23308100 		sd	s0,0(sp)
 536              		.cfi_offset 1, -8
 537              		.cfi_offset 8, -16
 538 023c 13040101 		addi	s0,sp,16
 539              		.cfi_def_cfa 8, 0
  18:src/console.cpp ****     output_buffer->put(c);
 540              		.loc 3 18 5
 541              		.loc 3 18 23 is_stmt 0
 542 0240 03358500 		ld	a0,8(a0)
 543              	.LVL39:
 544 0244 97000000 		call	_ZN8MyBuffer3putEi@plt
 544      E7800000 
 545              	.LVL40:
GAS LISTING /tmp/cch4gvzP.s 			page 14


  19:src/console.cpp **** }
 546              		.loc 3 19 1
 547 024c 83308100 		ld	ra,8(sp)
 548              		.cfi_restore 1
 549 0250 03340100 		ld	s0,0(sp)
 550              		.cfi_restore 8
 551              		.cfi_def_cfa 2, 16
 552 0254 13010101 		addi	sp,sp,16
 553              		.cfi_def_cfa_offset 0
 554 0258 67800000 		jr	ra
 555              		.cfi_endproc
 556              	.LFE30:
 558              		.align	2
 559              		.globl	_ZN7Console15get_from_outputEv
 561              	_ZN7Console15get_from_outputEv:
 562              	.LFB31:
  20:src/console.cpp **** char Console::get_from_output(){
 563              		.loc 3 20 32 is_stmt 1
 564              		.cfi_startproc
 565              	.LVL41:
 566 025c 130101FF 		addi	sp,sp,-16
 567              		.cfi_def_cfa_offset 16
 568 0260 23341100 		sd	ra,8(sp)
 569 0264 23308100 		sd	s0,0(sp)
 570              		.cfi_offset 1, -8
 571              		.cfi_offset 8, -16
 572 0268 13040101 		addi	s0,sp,16
 573              		.cfi_def_cfa 8, 0
  21:src/console.cpp ****     return (char)output_buffer->get();
 574              		.loc 3 21 5
 575              		.loc 3 21 36 is_stmt 0
 576 026c 03358500 		ld	a0,8(a0)
 577              	.LVL42:
 578 0270 97000000 		call	_ZN8MyBuffer3getEv@plt
 578      E7800000 
 579              	.LVL43:
  22:src/console.cpp **** }...
 580              		.loc 3 22 1
 581 0278 1375F50F 		andi	a0,a0,0xff
 582 027c 83308100 		ld	ra,8(sp)
 583              		.cfi_restore 1
 584 0280 03340100 		ld	s0,0(sp)
 585              		.cfi_restore 8
 586              		.cfi_def_cfa 2, 16
 587 0284 13010101 		addi	sp,sp,16
 588              		.cfi_def_cfa_offset 0
 589 0288 67800000 		jr	ra
 590              		.cfi_endproc
 591              	.LFE31:
 593              		.weak	_ZGVZN15MemoryAllocator11getInstanceEvE8instance
 594              		.section	.bss._ZGVZN15MemoryAllocator11getInstanceEvE8instance,"awG",@nobits,_ZGVZN15MemoryAllocat
 595              		.align	3
 598              	_ZGVZN15MemoryAllocator11getInstanceEvE8instance:
 599 0000 00000000 		.zero	8
 599      00000000 
 600              		.weak	_ZZN15MemoryAllocator11getInstanceEvE8instance
 601              		.section	.bss._ZZN15MemoryAllocator11getInstanceEvE8instance,"awG",@nobits,_ZZN15MemoryAllocator11
GAS LISTING /tmp/cch4gvzP.s 			page 15


 602              		.align	3
 605              	_ZZN15MemoryAllocator11getInstanceEvE8instance:
 606 0000 00000000 		.zero	24
 606      00000000 
 606      00000000 
 606      00000000 
 606      00000000 
 607              		.text
 608              	.Letext0:
 609              		.file 4 "src/../h/../h/../h/../lib/hw.h"
 610              		.file 5 "src/../h/../h/../h/semaphore.hpp"
 611              		.file 6 "src/../h/console.hpp"
 3495              		.align	3
 3498              	DW.ref.__gxx_personality_v0:
 3499 0000 00000000 		.dword	__gxx_personality_v0
 3499      00000000 
 3500              		.ident	"GCC: (Ubuntu 9.4.0-1ubuntu1~20.04) 9.4.0"
 3501              		.section	.note.GNU-stack,"",@progbits
GAS LISTING /tmp/cch4gvzP.s 			page 16


DEFINED SYMBOLS
                            *ABS*:0000000000000000 console.cpp
     /tmp/cch4gvzP.s:10     .text._ZN8MyBufferdlEPv:0000000000000000 _ZN8MyBufferdlEPv
     /tmp/cch4gvzP.s:14     .text._ZN8MyBufferdlEPv:0000000000000000 .L0 
     /tmp/cch4gvzP.s:3498   .data.rel.local.DW.ref.__gxx_personality_v0:0000000000000000 DW.ref.__gxx_personality_v0
     /tmp/cch4gvzP.s:18     .text._ZN8MyBufferdlEPv:0000000000000000 .L0 
     /tmp/cch4gvzP.s:19     .text._ZN8MyBufferdlEPv:0000000000000004 .L0 
     /tmp/cch4gvzP.s:22     .text._ZN8MyBufferdlEPv:000000000000000c .L0 
     /tmp/cch4gvzP.s:23     .text._ZN8MyBufferdlEPv:000000000000000c .L0 
     /tmp/cch4gvzP.s:25     .text._ZN8MyBufferdlEPv:0000000000000010 .L0 
     /tmp/cch4gvzP.s:31     .text._ZN8MyBufferdlEPv:0000000000000014 .L0 
     /tmp/cch4gvzP.s:32     .text._ZN8MyBufferdlEPv:0000000000000014 .L0 
     /tmp/cch4gvzP.s:598    .bss._ZGVZN15MemoryAllocator11getInstanceEvE8instance:0000000000000000 _ZGVZN15MemoryAllocator11getInstanceEvE8instance
     /tmp/cch4gvzP.s:33     .text._ZN8MyBufferdlEPv:0000000000000014 .L0 
     /tmp/cch4gvzP.s:39     .text._ZN8MyBufferdlEPv:0000000000000020 .L0 
     /tmp/cch4gvzP.s:605    .bss._ZZN15MemoryAllocator11getInstanceEvE8instance:0000000000000000 _ZZN15MemoryAllocator11getInstanceEvE8instance
     /tmp/cch4gvzP.s:40     .text._ZN8MyBufferdlEPv:0000000000000020 .L0 
     /tmp/cch4gvzP.s:45     .text._ZN8MyBufferdlEPv:0000000000000030 .L0 
     /tmp/cch4gvzP.s:46     .text._ZN8MyBufferdlEPv:0000000000000034 .L0 
     /tmp/cch4gvzP.s:47     .text._ZN8MyBufferdlEPv:0000000000000034 .L0 
     /tmp/cch4gvzP.s:49     .text._ZN8MyBufferdlEPv:0000000000000038 .L0 
     /tmp/cch4gvzP.s:50     .text._ZN8MyBufferdlEPv:0000000000000038 .L0 
     /tmp/cch4gvzP.s:52     .text._ZN8MyBufferdlEPv:000000000000003c .L0 
     /tmp/cch4gvzP.s:56     .text._ZN8MyBufferdlEPv:0000000000000040 .L0 
     /tmp/cch4gvzP.s:63     .text._ZN8MyBufferdlEPv:0000000000000040 .L0 
     /tmp/cch4gvzP.s:66     .text._ZN8MyBufferdlEPv:0000000000000048 .L0 
     /tmp/cch4gvzP.s:67     .text._ZN8MyBufferdlEPv:0000000000000048 .L0 
     /tmp/cch4gvzP.s:73     .text._ZN8MyBufferdlEPv:0000000000000064 .L0 
     /tmp/cch4gvzP.s:75     .text._ZN8MyBufferdlEPv:0000000000000068 .L0 
     /tmp/cch4gvzP.s:77     .text._ZN8MyBufferdlEPv:000000000000006c .L0 
     /tmp/cch4gvzP.s:79     .text._ZN8MyBufferdlEPv:0000000000000070 .L0 
     /tmp/cch4gvzP.s:81     .text._ZN8MyBufferdlEPv:0000000000000074 .L0 
     /tmp/cch4gvzP.s:82     .text._ZN8MyBufferdlEPv:0000000000000074 .L0 
     /tmp/cch4gvzP.s:84     .text._ZN8MyBufferdlEPv:0000000000000078 .L0 
     /tmp/cch4gvzP.s:86     .text._ZN8MyBufferdlEPv:000000000000007c .L0 
     /tmp/cch4gvzP.s:87     .text._ZN8MyBufferdlEPv:000000000000007c .L0 
     /tmp/cch4gvzP.s:89     .text._ZN8MyBufferdlEPv:0000000000000080 .L0 
     /tmp/cch4gvzP.s:92     .text._ZN8MyBufferdlEPv:0000000000000084 .L0 
     /tmp/cch4gvzP.s:93     .text._ZN8MyBufferdlEPv:0000000000000084 .L0 
     /tmp/cch4gvzP.s:95     .text._ZN8MyBufferdlEPv:0000000000000088 .L0 
     /tmp/cch4gvzP.s:100    .text._ZN8MyBufferdlEPv:0000000000000094 .L0 
     /tmp/cch4gvzP.s:102    .text._ZN8MyBufferdlEPv:0000000000000098 .L0 
     /tmp/cch4gvzP.s:104    .text._ZN8MyBufferdlEPv:00000000000000a0 .L0 
     /tmp/cch4gvzP.s:105    .text._ZN8MyBufferdlEPv:00000000000000a0 .L0 
     /tmp/cch4gvzP.s:107    .text._ZN8MyBufferdlEPv:00000000000000a4 .L0 
     /tmp/cch4gvzP.s:108    .text._ZN8MyBufferdlEPv:00000000000000a4 .L0 
     /tmp/cch4gvzP.s:110    .text._ZN8MyBufferdlEPv:00000000000000a8 .L0 
     /tmp/cch4gvzP.s:111    .text._ZN8MyBufferdlEPv:00000000000000a8 .L0 
     /tmp/cch4gvzP.s:118    .text._ZN8MyBufferdlEPv:00000000000000ac .L0 
     /tmp/cch4gvzP.s:123    .text._ZN8MyBufferdlEPv:00000000000000bc .L0 
     /tmp/cch4gvzP.s:138    .text:0000000000000000 _ZN7ConsoleC2Ev
     /tmp/cch4gvzP.s:142    .text:0000000000000000 .L0 
     /tmp/cch4gvzP.s:146    .text:0000000000000000 .L0 
     /tmp/cch4gvzP.s:147    .text:0000000000000004 .L0 
     /tmp/cch4gvzP.s:152    .text:0000000000000014 .L0 
     /tmp/cch4gvzP.s:153    .text:0000000000000014 .L0 
     /tmp/cch4gvzP.s:154    .text:0000000000000014 .L0 
GAS LISTING /tmp/cch4gvzP.s 			page 17


     /tmp/cch4gvzP.s:155    .text:0000000000000014 .L0 
     /tmp/cch4gvzP.s:157    .text:0000000000000018 .L0 
     /tmp/cch4gvzP.s:164    .text:000000000000001c .L0 
     /tmp/cch4gvzP.s:165    .text:000000000000001c .L0 
     /tmp/cch4gvzP.s:168    .text:000000000000001c .L0 
     /tmp/cch4gvzP.s:169    .text:000000000000001c .L0 
     /tmp/cch4gvzP.s:170    .text:000000000000001c .L0 
     /tmp/cch4gvzP.s:176    .text:0000000000000028 .L0 
     /tmp/cch4gvzP.s:177    .text:0000000000000028 .L0 
     /tmp/cch4gvzP.s:189    .text:0000000000000040 .L0 
     /tmp/cch4gvzP.s:205    .text:0000000000000050 .L0 
     /tmp/cch4gvzP.s:208    .text:0000000000000058 .L0 
     /tmp/cch4gvzP.s:209    .text:0000000000000058 .L0 
     /tmp/cch4gvzP.s:215    .text:0000000000000074 .L0 
     /tmp/cch4gvzP.s:217    .text:0000000000000078 .L0 
     /tmp/cch4gvzP.s:219    .text:000000000000007c .L0 
     /tmp/cch4gvzP.s:221    .text:0000000000000080 .L0 
     /tmp/cch4gvzP.s:223    .text:0000000000000084 .L0 
     /tmp/cch4gvzP.s:224    .text:0000000000000084 .L0 
     /tmp/cch4gvzP.s:226    .text:0000000000000088 .L0 
     /tmp/cch4gvzP.s:228    .text:000000000000008c .L0 
     /tmp/cch4gvzP.s:229    .text:000000000000008c .L0 
     /tmp/cch4gvzP.s:231    .text:0000000000000090 .L0 
     /tmp/cch4gvzP.s:234    .text:0000000000000094 .L0 
     /tmp/cch4gvzP.s:235    .text:0000000000000094 .L0 
     /tmp/cch4gvzP.s:237    .text:0000000000000098 .L0 
     /tmp/cch4gvzP.s:242    .text:00000000000000a4 .L0 
     /tmp/cch4gvzP.s:244    .text:00000000000000a8 .L0 
     /tmp/cch4gvzP.s:246    .text:00000000000000b0 .L0 
     /tmp/cch4gvzP.s:247    .text:00000000000000b0 .L0 
     /tmp/cch4gvzP.s:249    .text:00000000000000b4 .L0 
     /tmp/cch4gvzP.s:250    .text:00000000000000b4 .L0 
     /tmp/cch4gvzP.s:252    .text:00000000000000b8 .L0 
     /tmp/cch4gvzP.s:253    .text:00000000000000b8 .L0 
     /tmp/cch4gvzP.s:260    .text:00000000000000bc .L0 
     /tmp/cch4gvzP.s:270    .text:00000000000000cc .L0 
     /tmp/cch4gvzP.s:275    .text:00000000000000d0 .L0 
     /tmp/cch4gvzP.s:276    .text:00000000000000d0 .L0 
     /tmp/cch4gvzP.s:279    .text:00000000000000d0 .L0 
     /tmp/cch4gvzP.s:280    .text:00000000000000d0 .L0 
     /tmp/cch4gvzP.s:281    .text:00000000000000d0 .L0 
     /tmp/cch4gvzP.s:287    .text:00000000000000dc .L0 
     /tmp/cch4gvzP.s:288    .text:00000000000000dc .L0 
     /tmp/cch4gvzP.s:299    .text:00000000000000f4 .L0 
     /tmp/cch4gvzP.s:315    .text:0000000000000104 .L0 
     /tmp/cch4gvzP.s:318    .text:000000000000010c .L0 
     /tmp/cch4gvzP.s:319    .text:000000000000010c .L0 
     /tmp/cch4gvzP.s:325    .text:0000000000000128 .L0 
     /tmp/cch4gvzP.s:327    .text:000000000000012c .L0 
     /tmp/cch4gvzP.s:329    .text:0000000000000130 .L0 
     /tmp/cch4gvzP.s:331    .text:0000000000000134 .L0 
     /tmp/cch4gvzP.s:333    .text:0000000000000138 .L0 
     /tmp/cch4gvzP.s:334    .text:0000000000000138 .L0 
     /tmp/cch4gvzP.s:336    .text:000000000000013c .L0 
     /tmp/cch4gvzP.s:338    .text:0000000000000140 .L0 
     /tmp/cch4gvzP.s:339    .text:0000000000000140 .L0 
     /tmp/cch4gvzP.s:341    .text:0000000000000144 .L0 
GAS LISTING /tmp/cch4gvzP.s 			page 18


     /tmp/cch4gvzP.s:344    .text:0000000000000148 .L0 
     /tmp/cch4gvzP.s:345    .text:0000000000000148 .L0 
     /tmp/cch4gvzP.s:347    .text:000000000000014c .L0 
     /tmp/cch4gvzP.s:352    .text:0000000000000158 .L0 
     /tmp/cch4gvzP.s:354    .text:000000000000015c .L0 
     /tmp/cch4gvzP.s:356    .text:0000000000000164 .L0 
     /tmp/cch4gvzP.s:357    .text:0000000000000164 .L0 
     /tmp/cch4gvzP.s:359    .text:0000000000000168 .L0 
     /tmp/cch4gvzP.s:360    .text:0000000000000168 .L0 
     /tmp/cch4gvzP.s:362    .text:000000000000016c .L0 
     /tmp/cch4gvzP.s:363    .text:000000000000016c .L0 
     /tmp/cch4gvzP.s:370    .text:0000000000000170 .L0 
     /tmp/cch4gvzP.s:380    .text:0000000000000180 .L0 
     /tmp/cch4gvzP.s:383    .text:0000000000000184 .L0 
     /tmp/cch4gvzP.s:384    .text:0000000000000188 .L0 
     /tmp/cch4gvzP.s:385    .text:0000000000000188 .L0 
     /tmp/cch4gvzP.s:387    .text:000000000000018c .L0 
     /tmp/cch4gvzP.s:388    .text:000000000000018c .L0 
     /tmp/cch4gvzP.s:390    .text:0000000000000190 .L0 
     /tmp/cch4gvzP.s:393    .text:0000000000000194 .L0 
     /tmp/cch4gvzP.s:395    .text:0000000000000198 .L0 
     /tmp/cch4gvzP.s:399    .text:000000000000019c .L0 
     /tmp/cch4gvzP.s:404    .text:00000000000001a0 .L0 
     /tmp/cch4gvzP.s:415    .text:00000000000001bc .L0 
     /tmp/cch4gvzP.s:423    .text:00000000000001d4 .L0 
     /tmp/cch4gvzP.s:138    .text:0000000000000000 _ZN7ConsoleC1Ev
     /tmp/cch4gvzP.s:458    .text:00000000000001d4 _ZN7Console12put_in_inputEc
     /tmp/cch4gvzP.s:461    .text:00000000000001d4 .L0 
     /tmp/cch4gvzP.s:463    .text:00000000000001d4 .L0 
     /tmp/cch4gvzP.s:464    .text:00000000000001d8 .L0 
     /tmp/cch4gvzP.s:467    .text:00000000000001e0 .L0 
     /tmp/cch4gvzP.s:468    .text:00000000000001e0 .L0 
     /tmp/cch4gvzP.s:470    .text:00000000000001e4 .L0 
     /tmp/cch4gvzP.s:472    .text:00000000000001e4 .L0 
     /tmp/cch4gvzP.s:473    .text:00000000000001e4 .L0 
     /tmp/cch4gvzP.s:478    .text:00000000000001f0 .L0 
     /tmp/cch4gvzP.s:479    .text:00000000000001f4 .L0 
     /tmp/cch4gvzP.s:481    .text:00000000000001f8 .L0 
     /tmp/cch4gvzP.s:482    .text:00000000000001f8 .L0 
     /tmp/cch4gvzP.s:484    .text:00000000000001fc .L0 
     /tmp/cch4gvzP.s:486    .text:0000000000000200 .L0 
     /tmp/cch4gvzP.s:492    .text:0000000000000200 _ZN7Console14get_from_inputEv
     /tmp/cch4gvzP.s:495    .text:0000000000000200 .L0 
     /tmp/cch4gvzP.s:497    .text:0000000000000200 .L0 
     /tmp/cch4gvzP.s:498    .text:0000000000000204 .L0 
     /tmp/cch4gvzP.s:501    .text:000000000000020c .L0 
     /tmp/cch4gvzP.s:502    .text:000000000000020c .L0 
     /tmp/cch4gvzP.s:504    .text:0000000000000210 .L0 
     /tmp/cch4gvzP.s:506    .text:0000000000000210 .L0 
     /tmp/cch4gvzP.s:507    .text:0000000000000210 .L0 
     /tmp/cch4gvzP.s:512    .text:000000000000021c .L0 
     /tmp/cch4gvzP.s:514    .text:0000000000000224 .L0 
     /tmp/cch4gvzP.s:516    .text:0000000000000228 .L0 
     /tmp/cch4gvzP.s:517    .text:0000000000000228 .L0 
     /tmp/cch4gvzP.s:519    .text:000000000000022c .L0 
     /tmp/cch4gvzP.s:521    .text:0000000000000230 .L0 
     /tmp/cch4gvzP.s:527    .text:0000000000000230 _ZN7Console13put_in_outputEc
GAS LISTING /tmp/cch4gvzP.s 			page 19


     /tmp/cch4gvzP.s:530    .text:0000000000000230 .L0 
     /tmp/cch4gvzP.s:532    .text:0000000000000230 .L0 
     /tmp/cch4gvzP.s:533    .text:0000000000000234 .L0 
     /tmp/cch4gvzP.s:536    .text:000000000000023c .L0 
     /tmp/cch4gvzP.s:537    .text:000000000000023c .L0 
     /tmp/cch4gvzP.s:539    .text:0000000000000240 .L0 
     /tmp/cch4gvzP.s:541    .text:0000000000000240 .L0 
     /tmp/cch4gvzP.s:542    .text:0000000000000240 .L0 
     /tmp/cch4gvzP.s:547    .text:000000000000024c .L0 
     /tmp/cch4gvzP.s:548    .text:0000000000000250 .L0 
     /tmp/cch4gvzP.s:550    .text:0000000000000254 .L0 
     /tmp/cch4gvzP.s:551    .text:0000000000000254 .L0 
     /tmp/cch4gvzP.s:553    .text:0000000000000258 .L0 
     /tmp/cch4gvzP.s:555    .text:000000000000025c .L0 
     /tmp/cch4gvzP.s:561    .text:000000000000025c _ZN7Console15get_from_outputEv
     /tmp/cch4gvzP.s:564    .text:000000000000025c .L0 
     /tmp/cch4gvzP.s:566    .text:000000000000025c .L0 
     /tmp/cch4gvzP.s:567    .text:0000000000000260 .L0 
     /tmp/cch4gvzP.s:570    .text:0000000000000268 .L0 
     /tmp/cch4gvzP.s:571    .text:0000000000000268 .L0 
     /tmp/cch4gvzP.s:573    .text:000000000000026c .L0 
     /tmp/cch4gvzP.s:575    .text:000000000000026c .L0 
     /tmp/cch4gvzP.s:576    .text:000000000000026c .L0 
     /tmp/cch4gvzP.s:581    .text:0000000000000278 .L0 
     /tmp/cch4gvzP.s:583    .text:0000000000000280 .L0 
     /tmp/cch4gvzP.s:585    .text:0000000000000284 .L0 
     /tmp/cch4gvzP.s:586    .text:0000000000000284 .L0 
     /tmp/cch4gvzP.s:588    .text:0000000000000288 .L0 
     /tmp/cch4gvzP.s:590    .text:000000000000028c .L0 
     /tmp/cch4gvzP.s:134    .text._ZN8MyBufferdlEPv:00000000000000bc .L0 
     /tmp/cch4gvzP.s:612    .text:000000000000028c .L0 
     /tmp/cch4gvzP.s:170    .text:000000000000001c .L0 
     /tmp/cch4gvzP.s:178    .text:000000000000002c .L0 
     /tmp/cch4gvzP.s:205    .text:0000000000000050 .L0 
     /tmp/cch4gvzP.s:209    .text:0000000000000058 .L0 
     /tmp/cch4gvzP.s:211    .text:0000000000000064 .L0 
     /tmp/cch4gvzP.s:244    .text:00000000000000a8 .L0 
     /tmp/cch4gvzP.s:261    .text:00000000000000c0 .L0 
     /tmp/cch4gvzP.s:281    .text:00000000000000d0 .L0 
     /tmp/cch4gvzP.s:289    .text:00000000000000e0 .L0 
     /tmp/cch4gvzP.s:315    .text:0000000000000104 .L0 
     /tmp/cch4gvzP.s:319    .text:000000000000010c .L0 
     /tmp/cch4gvzP.s:321    .text:0000000000000118 .L0 
     /tmp/cch4gvzP.s:354    .text:000000000000015c .L0 
     /tmp/cch4gvzP.s:371    .text:0000000000000174 .L0 
     /tmp/cch4gvzP.s:196    .text:0000000000000050 .L17
     /tmp/cch4gvzP.s:264    .text:00000000000000cc .L18
     /tmp/cch4gvzP.s:240    .text:00000000000000a4 .L8
     /tmp/cch4gvzP.s:172    .text:0000000000000028 .L7
     /tmp/cch4gvzP.s:306    .text:0000000000000104 .L19
     /tmp/cch4gvzP.s:374    .text:0000000000000180 .L20
     /tmp/cch4gvzP.s:350    .text:0000000000000158 .L10
     /tmp/cch4gvzP.s:283    .text:00000000000000dc .L9
     /tmp/cch4gvzP.s:33     .text._ZN8MyBufferdlEPv:0000000000000014 .L0 
     /tmp/cch4gvzP.s:40     .text._ZN8MyBufferdlEPv:0000000000000020 .L0 
     /tmp/cch4gvzP.s:63     .text._ZN8MyBufferdlEPv:0000000000000040 .L0 
     /tmp/cch4gvzP.s:67     .text._ZN8MyBufferdlEPv:0000000000000048 .L0 
GAS LISTING /tmp/cch4gvzP.s 			page 20


     /tmp/cch4gvzP.s:69     .text._ZN8MyBufferdlEPv:0000000000000054 .L0 
     /tmp/cch4gvzP.s:102    .text._ZN8MyBufferdlEPv:0000000000000098 .L0 
     /tmp/cch4gvzP.s:119    .text._ZN8MyBufferdlEPv:00000000000000b0 .L0 
     /tmp/cch4gvzP.s:55     .text._ZN8MyBufferdlEPv:0000000000000040 .L5
     /tmp/cch4gvzP.s:98     .text._ZN8MyBufferdlEPv:0000000000000094 .L3
     /tmp/cch4gvzP.s:35     .text._ZN8MyBufferdlEPv:0000000000000020 .L2
     /tmp/cch4gvzP.s:180    .text:0000000000000034 .LEHB0
     /tmp/cch4gvzP.s:139    .text:0000000000000000 .LFB26
     /tmp/cch4gvzP.s:183    .text:000000000000003c .LEHE0
     /tmp/cch4gvzP.s:190    .text:0000000000000044 .LEHB1
     /tmp/cch4gvzP.s:193    .text:000000000000004c .LEHE1
     /tmp/cch4gvzP.s:398    .text:000000000000019c .L13
     /tmp/cch4gvzP.s:290    .text:00000000000000e8 .LEHB2
     /tmp/cch4gvzP.s:293    .text:00000000000000f0 .LEHE2
     /tmp/cch4gvzP.s:300    .text:00000000000000f8 .LEHB3
     /tmp/cch4gvzP.s:303    .text:0000000000000100 .LEHE3
     /tmp/cch4gvzP.s:411    .text:00000000000001b8 .L14
     /tmp/cch4gvzP.s:408    .text:00000000000001b0 .LEHB4
     /tmp/cch4gvzP.s:421    .text:00000000000001d4 .LEHE4
     /tmp/cch4gvzP.s:2010   .debug_abbrev:0000000000000000 .Ldebug_abbrev0
     /tmp/cch4gvzP.s:3446   .debug_str:00000000000007be .LASF119
     /tmp/cch4gvzP.s:3298   .debug_str:0000000000000287 .LASF120
     /tmp/cch4gvzP.s:3318   .debug_str:000000000000034b .LASF121
     /tmp/cch4gvzP.s:3190   .debug_ranges:0000000000000000 .Ldebug_ranges0
     /tmp/cch4gvzP.s:3228   .debug_line:0000000000000000 .Ldebug_line0
     /tmp/cch4gvzP.s:3366   .debug_str:000000000000050c .LASF0
     /tmp/cch4gvzP.s:3384   .debug_str:00000000000005aa .LASF1
     /tmp/cch4gvzP.s:3350   .debug_str:000000000000049f .LASF2
     /tmp/cch4gvzP.s:3328   .debug_str:00000000000003d9 .LASF4
     /tmp/cch4gvzP.s:3432   .debug_str:000000000000075d .LASF3
     /tmp/cch4gvzP.s:3250   .debug_str:00000000000000c7 .LASF5
     /tmp/cch4gvzP.s:3386   .debug_str:00000000000005bd .LASF6
     /tmp/cch4gvzP.s:3364   .debug_str:00000000000004f9 .LASF7
     /tmp/cch4gvzP.s:3462   .debug_str:00000000000008f6 .LASF8
     /tmp/cch4gvzP.s:3316   .debug_str:000000000000033d .LASF9
     /tmp/cch4gvzP.s:3402   .debug_str:000000000000063f .LASF10
     /tmp/cch4gvzP.s:3262   .debug_str:000000000000012f .LASF11
     /tmp/cch4gvzP.s:3450   .debug_str:000000000000088e .LASF12
     /tmp/cch4gvzP.s:3254   .debug_str:00000000000000d6 .LASF13
     /tmp/cch4gvzP.s:3232   .debug_str:0000000000000011 .LASF14
     /tmp/cch4gvzP.s:3266   .debug_str:000000000000016b .LASF15
     /tmp/cch4gvzP.s:3420   .debug_str:00000000000006d6 .LASF16
     /tmp/cch4gvzP.s:3280   .debug_str:0000000000000202 .LASF17
     /tmp/cch4gvzP.s:3346   .debug_str:0000000000000480 .LASF21
     /tmp/cch4gvzP.s:3308   .debug_str:00000000000002da .LASF122
     /tmp/cch4gvzP.s:3442   .debug_str:00000000000007af .LASF18
     /tmp/cch4gvzP.s:3486   .debug_str:00000000000009e0 .LASF19
     /tmp/cch4gvzP.s:3474   .debug_str:000000000000096a .LASF20
     /tmp/cch4gvzP.s:3448   .debug_str:0000000000000882 .LASF93
     /tmp/cch4gvzP.s:3248   .debug_str:00000000000000a3 .LASF94
     /tmp/cch4gvzP.s:3458   .debug_str:00000000000008cf .LASF23
     /tmp/cch4gvzP.s:3360   .debug_str:00000000000004de .LASF22
     /tmp/cch4gvzP.s:3340   .debug_str:0000000000000450 .LASF24
     /tmp/cch4gvzP.s:3288   .debug_str:000000000000023c .LASF25
     /tmp/cch4gvzP.s:3406   .debug_str:0000000000000656 .LASF26
     /tmp/cch4gvzP.s:3412   .debug_str:000000000000068f .LASF27
     /tmp/cch4gvzP.s:3390   .debug_str:00000000000005e0 .LASF28
GAS LISTING /tmp/cch4gvzP.s 			page 21


     /tmp/cch4gvzP.s:3272   .debug_str:000000000000019b .LASF29
     /tmp/cch4gvzP.s:3264   .debug_str:000000000000013a .LASF30
     /tmp/cch4gvzP.s:3424   .debug_str:00000000000006fc .LASF31
     /tmp/cch4gvzP.s:3326   .debug_str:00000000000003aa .LASF32
     /tmp/cch4gvzP.s:3400   .debug_str:0000000000000635 .LASF33
     /tmp/cch4gvzP.s:3334   .debug_str:000000000000041b .LASF34
     /tmp/cch4gvzP.s:3238   .debug_str:0000000000000055 .LASF35
     /tmp/cch4gvzP.s:3290   .debug_str:0000000000000249 .LASF90
     /tmp/cch4gvzP.s:3410   .debug_str:0000000000000683 .LASF36
     /tmp/cch4gvzP.s:3464   .debug_str:0000000000000906 .LASF37
     /tmp/cch4gvzP.s:3476   .debug_str:000000000000096f .LASF39
     /tmp/cch4gvzP.s:3302   .debug_str:00000000000002aa .LASF38
     /tmp/cch4gvzP.s:3332   .debug_str:00000000000003fb .LASF40
     /tmp/cch4gvzP.s:3440   .debug_str:00000000000007a5 .LASF41
     /tmp/cch4gvzP.s:3236   .debug_str:0000000000000036 .LASF42
     /tmp/cch4gvzP.s:3270   .debug_str:0000000000000192 .LASF43
     /tmp/cch4gvzP.s:3244   .debug_str:000000000000007e .LASF44
     /tmp/cch4gvzP.s:3460   .debug_str:00000000000008eb .LASF45
     /tmp/cch4gvzP.s:3484   .debug_str:00000000000009bf .LASF46
     /tmp/cch4gvzP.s:3322   .debug_str:000000000000038d .LASF47
     /tmp/cch4gvzP.s:3482   .debug_str:0000000000000998 .LASF48
     /tmp/cch4gvzP.s:3454   .debug_str:00000000000008b0 .LASF49
     /tmp/cch4gvzP.s:3472   .debug_str:0000000000000945 .LASF50
     /tmp/cch4gvzP.s:3296   .debug_str:0000000000000281 .LASF51
     /tmp/cch4gvzP.s:3358   .debug_str:00000000000004c5 .LASF52
     /tmp/cch4gvzP.s:3252   .debug_str:00000000000000ce .LASF53
     /tmp/cch4gvzP.s:3268   .debug_str:0000000000000177 .LASF54
     /tmp/cch4gvzP.s:3398   .debug_str:0000000000000627 .LASF55
     /tmp/cch4gvzP.s:3276   .debug_str:00000000000001c7 .LASF56
     /tmp/cch4gvzP.s:3456   .debug_str:00000000000008c1 .LASF57
     /tmp/cch4gvzP.s:3304   .debug_str:00000000000002b3 .LASF58
     /tmp/cch4gvzP.s:3404   .debug_str:000000000000064e .LASF59
     /tmp/cch4gvzP.s:3310   .debug_str:00000000000002e2 .LASF60
     /tmp/cch4gvzP.s:3408   .debug_str:000000000000067b .LASF61
     /tmp/cch4gvzP.s:3330   .debug_str:00000000000003e0 .LASF62
     /tmp/cch4gvzP.s:3260   .debug_str:0000000000000122 .LASF63
     /tmp/cch4gvzP.s:3234   .debug_str:0000000000000021 .LASF64
     /tmp/cch4gvzP.s:3314   .debug_str:000000000000032d .LASF65
     /tmp/cch4gvzP.s:3378   .debug_str:0000000000000576 .LASF66
     /tmp/cch4gvzP.s:3436   .debug_str:0000000000000782 .LASF67
     /tmp/cch4gvzP.s:3372   .debug_str:000000000000054d .LASF69
     /tmp/cch4gvzP.s:3438   .debug_str:0000000000000792 .LASF68
     /tmp/cch4gvzP.s:3416   .debug_str:00000000000006b9 .LASF70
     /tmp/cch4gvzP.s:3394   .debug_str:000000000000060a .LASF71
     /tmp/cch4gvzP.s:3342   .debug_str:000000000000046c .LASF72
     /tmp/cch4gvzP.s:3286   .debug_str:0000000000000237 .LASF73
     /tmp/cch4gvzP.s:3356   .debug_str:00000000000004c0 .LASF74
     /tmp/cch4gvzP.s:3306   .debug_str:00000000000002d5 .LASF75
     /tmp/cch4gvzP.s:3468   .debug_str:000000000000092c .LASF76
     /tmp/cch4gvzP.s:3418   .debug_str:00000000000006cf .LASF77
     /tmp/cch4gvzP.s:3348   .debug_str:0000000000000490 .LASF78
     /tmp/cch4gvzP.s:3320   .debug_str:000000000000037f .LASF79
     /tmp/cch4gvzP.s:3344   .debug_str:0000000000000476 .LASF80
     /tmp/cch4gvzP.s:3374   .debug_str:0000000000000563 .LASF81
     /tmp/cch4gvzP.s:3230   .debug_str:0000000000000000 .LASF82
     /tmp/cch4gvzP.s:3444   .debug_str:00000000000007b4 .LASF83
     /tmp/cch4gvzP.s:3362   .debug_str:00000000000004e8 .LASF84
GAS LISTING /tmp/cch4gvzP.s 			page 22


     /tmp/cch4gvzP.s:3274   .debug_str:00000000000001b4 .LASF123
     /tmp/cch4gvzP.s:3300   .debug_str:0000000000000297 .LASF124
     /tmp/cch4gvzP.s:3246   .debug_str:000000000000009c .LASF85
     /tmp/cch4gvzP.s:3370   .debug_str:0000000000000537 .LASF86
     /tmp/cch4gvzP.s:3490   .debug_str:0000000000000a00 .LASF87
     /tmp/cch4gvzP.s:3292   .debug_str:0000000000000262 .LASF88
     /tmp/cch4gvzP.s:3240   .debug_str:000000000000005d .LASF89
     /tmp/cch4gvzP.s:3282   .debug_str:0000000000000218 .LASF91
     /tmp/cch4gvzP.s:3396   .debug_str:000000000000061f .LASF92
     /tmp/cch4gvzP.s:3488   .debug_str:00000000000009e5 .LASF95
     /tmp/cch4gvzP.s:3434   .debug_str:000000000000076f .LASF96
     /tmp/cch4gvzP.s:3452   .debug_str:000000000000089d .LASF97
     /tmp/cch4gvzP.s:3352   .debug_str:00000000000004ad .LASF98
     /tmp/cch4gvzP.s:3338   .debug_str:0000000000000434 .LASF99
     /tmp/cch4gvzP.s:3382   .debug_str:000000000000059b .LASF100
     /tmp/cch4gvzP.s:3414   .debug_str:000000000000069b .LASF101
     /tmp/cch4gvzP.s:3294   .debug_str:0000000000000273 .LASF102
     /tmp/cch4gvzP.s:3256   .debug_str:00000000000000e6 .LASF103
     /tmp/cch4gvzP.s:3388   .debug_str:00000000000005d0 .LASF104
     /tmp/cch4gvzP.s:3430   .debug_str:000000000000073e .LASF105
     /tmp/cch4gvzP.s:3380   .debug_str:000000000000058b .LASF106
     /tmp/cch4gvzP.s:3258   .debug_str:0000000000000103 .LASF107
     /tmp/cch4gvzP.s:3242   .debug_str:000000000000006f .LASF108
     /tmp/cch4gvzP.s:3368   .debug_str:0000000000000519 .LASF109
     /tmp/cch4gvzP.s:3478   .debug_str:0000000000000984 .LASF110
     /tmp/cch4gvzP.s:3428   .debug_str:0000000000000720 .LASF111
     /tmp/cch4gvzP.s:3422   .debug_str:00000000000006ec .LASF112
     /tmp/cch4gvzP.s:3284   .debug_str:000000000000022a .LASF113
     /tmp/cch4gvzP.s:3324   .debug_str:000000000000039c .LASF114
     /tmp/cch4gvzP.s:3392   .debug_str:0000000000000605 .LASF115
     /tmp/cch4gvzP.s:562    .text:000000000000025c .LFB31
     /tmp/cch4gvzP.s:591    .text:000000000000028c .LFE31
     /tmp/cch4gvzP.s:3480   .debug_str:0000000000000993 .LASF116
     /tmp/cch4gvzP.s:2925   .debug_loc:0000000000000000 .LLST17
     /tmp/cch4gvzP.s:579    .text:0000000000000278 .LVL43
     /tmp/cch4gvzP.s:528    .text:0000000000000230 .LFB30
     /tmp/cch4gvzP.s:556    .text:000000000000025c .LFE30
     /tmp/cch4gvzP.s:2939   .debug_loc:0000000000000039 .LLST15
     /tmp/cch4gvzP.s:2953   .debug_loc:0000000000000072 .LLST16
     /tmp/cch4gvzP.s:545    .text:000000000000024c .LVL40
     /tmp/cch4gvzP.s:493    .text:0000000000000200 .LFB29
     /tmp/cch4gvzP.s:522    .text:0000000000000230 .LFE29
     /tmp/cch4gvzP.s:2967   .debug_loc:00000000000000ab .LLST14
     /tmp/cch4gvzP.s:510    .text:000000000000021c .LVL37
     /tmp/cch4gvzP.s:459    .text:00000000000001d4 .LFB28
     /tmp/cch4gvzP.s:487    .text:0000000000000200 .LFE28
     /tmp/cch4gvzP.s:2981   .debug_loc:00000000000000e4 .LLST12
     /tmp/cch4gvzP.s:2995   .debug_loc:000000000000011d .LLST13
     /tmp/cch4gvzP.s:476    .text:00000000000001f0 .LVL34
     /tmp/cch4gvzP.s:3470   .debug_str:0000000000000935 .LASF125
     /tmp/cch4gvzP.s:424    .text:00000000000001d4 .LFE26
     /tmp/cch4gvzP.s:3009   .debug_loc:0000000000000156 .LLST3
     /tmp/cch4gvzP.s:162    .text:000000000000001c .LBB38
     /tmp/cch4gvzP.s:3049   .debug_loc:00000000000001f4 .LLST4
     /tmp/cch4gvzP.s:3064   .debug_loc:000000000000022e .LLST5
     /tmp/cch4gvzP.s:166    .text:000000000000001c .LBB40
     /tmp/cch4gvzP.s:201    .text:0000000000000050 .LBB42
GAS LISTING /tmp/cch4gvzP.s 			page 23


     /tmp/cch4gvzP.s:258    .text:00000000000000bc .LBE42
     /tmp/cch4gvzP.s:3077   .debug_loc:0000000000000266 .LLST6
     /tmp/cch4gvzP.s:206    .text:0000000000000058 .LBB45
     /tmp/cch4gvzP.s:255    .text:00000000000000bc .LBE45
     /tmp/cch4gvzP.s:3086   .debug_loc:0000000000000292 .LLST7
     /tmp/cch4gvzP.s:182    .text:000000000000003c .LVL9
     /tmp/cch4gvzP.s:273    .text:00000000000000d0 .LBB50
     /tmp/cch4gvzP.s:3093   .debug_loc:00000000000002b5 .LLST8
     /tmp/cch4gvzP.s:3108   .debug_loc:00000000000002ef .LLST9
     /tmp/cch4gvzP.s:277    .text:00000000000000d0 .LBB52
     /tmp/cch4gvzP.s:311    .text:0000000000000104 .LBB54
     /tmp/cch4gvzP.s:368    .text:0000000000000170 .LBE54
     /tmp/cch4gvzP.s:3121   .debug_loc:0000000000000327 .LLST10
     /tmp/cch4gvzP.s:316    .text:000000000000010c .LBB57
     /tmp/cch4gvzP.s:365    .text:0000000000000170 .LBE57
     /tmp/cch4gvzP.s:3130   .debug_loc:0000000000000353 .LLST11
     /tmp/cch4gvzP.s:292    .text:00000000000000f0 .LVL17
     /tmp/cch4gvzP.s:192    .text:000000000000004c .LVL11
     /tmp/cch4gvzP.s:302    .text:0000000000000100 .LVL19
     /tmp/cch4gvzP.s:406    .text:00000000000001ac .LVL27
     /tmp/cch4gvzP.s:410    .text:00000000000001b8 .LVL28
     /tmp/cch4gvzP.s:417    .text:00000000000001c8 .LVL30
     /tmp/cch4gvzP.s:420    .text:00000000000001d4 .LVL31
     /tmp/cch4gvzP.s:11     .text._ZN8MyBufferdlEPv:0000000000000000 .LFB19
     /tmp/cch4gvzP.s:124    .text._ZN8MyBufferdlEPv:00000000000000bc .LFE19
     /tmp/cch4gvzP.s:3137   .debug_loc:0000000000000376 .LLST0
     /tmp/cch4gvzP.s:28     .text._ZN8MyBufferdlEPv:0000000000000014 .LBB12
     /tmp/cch4gvzP.s:59     .text._ZN8MyBufferdlEPv:0000000000000040 .LBB14
     /tmp/cch4gvzP.s:116    .text._ZN8MyBufferdlEPv:00000000000000ac .LBE14
     /tmp/cch4gvzP.s:3159   .debug_loc:00000000000003d5 .LLST1
     /tmp/cch4gvzP.s:64     .text._ZN8MyBufferdlEPv:0000000000000048 .LBB17
     /tmp/cch4gvzP.s:113    .text._ZN8MyBufferdlEPv:00000000000000ac .LBE17
     /tmp/cch4gvzP.s:3168   .debug_loc:0000000000000401 .LLST2
     /tmp/cch4gvzP.s:43     .text._ZN8MyBufferdlEPv:0000000000000030 .LVL2
     /tmp/cch4gvzP.s:3354   .debug_str:00000000000004ba .LASF117
     /tmp/cch4gvzP.s:3426   .debug_str:0000000000000713 .LASF118
     /tmp/cch4gvzP.s:3466   .debug_str:0000000000000913 .LASF126
     /tmp/cch4gvzP.s:3376   .debug_str:000000000000056d .LASF127
     /tmp/cch4gvzP.s:3312   .debug_str:00000000000002fe .LASF128
     /tmp/cch4gvzP.s:3336   .debug_str:0000000000000425 .LASF129
     /tmp/cch4gvzP.s:3278   .debug_str:00000000000001ea .LASF130
     /tmp/cch4gvzP.s:565    .text:000000000000025c .LVL41
     /tmp/cch4gvzP.s:577    .text:0000000000000270 .LVL42
     /tmp/cch4gvzP.s:531    .text:0000000000000230 .LVL38
     /tmp/cch4gvzP.s:543    .text:0000000000000244 .LVL39
     /tmp/cch4gvzP.s:496    .text:0000000000000200 .LVL35
     /tmp/cch4gvzP.s:508    .text:0000000000000214 .LVL36
     /tmp/cch4gvzP.s:462    .text:00000000000001d4 .LVL32
     /tmp/cch4gvzP.s:474    .text:00000000000001e8 .LVL33
     /tmp/cch4gvzP.s:145    .text:0000000000000000 .LVL6
     /tmp/cch4gvzP.s:179    .text:0000000000000034 .LVL8
     /tmp/cch4gvzP.s:391    .text:0000000000000190 .LVL24
     /tmp/cch4gvzP.s:397    .text:000000000000019c .LVL25
     /tmp/cch4gvzP.s:401    .text:00000000000001a0 .LVL26
     /tmp/cch4gvzP.s:413    .text:00000000000001bc .LVL29
     /tmp/cch4gvzP.s:161    .text:000000000000001c .LVL7
     /tmp/cch4gvzP.s:185    .text:0000000000000040 .LVL10
GAS LISTING /tmp/cch4gvzP.s 			page 24


     /tmp/cch4gvzP.s:195    .text:0000000000000050 .LVL12
     /tmp/cch4gvzP.s:263    .text:00000000000000cc .LVL15
     /tmp/cch4gvzP.s:254    .text:00000000000000bc .LVL14
     /tmp/cch4gvzP.s:232    .text:0000000000000094 .LVL13
     /tmp/cch4gvzP.s:272    .text:00000000000000d0 .LVL16
     /tmp/cch4gvzP.s:295    .text:00000000000000f4 .LVL18
     /tmp/cch4gvzP.s:305    .text:0000000000000104 .LVL20
     /tmp/cch4gvzP.s:373    .text:0000000000000180 .LVL23
     /tmp/cch4gvzP.s:364    .text:0000000000000170 .LVL22
     /tmp/cch4gvzP.s:342    .text:0000000000000148 .LVL21
     /tmp/cch4gvzP.s:17     .text._ZN8MyBufferdlEPv:0000000000000000 .LVL0
     /tmp/cch4gvzP.s:41     .text._ZN8MyBufferdlEPv:0000000000000028 .LVL1
     /tmp/cch4gvzP.s:54     .text._ZN8MyBufferdlEPv:0000000000000040 .LVL3
     /tmp/cch4gvzP.s:112    .text._ZN8MyBufferdlEPv:00000000000000ac .LVL5
     /tmp/cch4gvzP.s:90     .text._ZN8MyBufferdlEPv:0000000000000084 .LVL4
     /tmp/cch4gvzP.s:613    .debug_info:0000000000000000 .Ldebug_info0
     /tmp/cch4gvzP.s:5      .text:0000000000000000 .Ltext0
     /tmp/cch4gvzP.s:608    .text:000000000000028c .Letext0
     /tmp/cch4gvzP.s:38     .text._ZN8MyBufferdlEPv:0000000000000020 .LBE12
     /tmp/cch4gvzP.s:57     .text._ZN8MyBufferdlEPv:0000000000000040 .LBB19
     /tmp/cch4gvzP.s:122    .text._ZN8MyBufferdlEPv:00000000000000bc .LBE19
     /tmp/cch4gvzP.s:187    .text:0000000000000040 .LBE38
     /tmp/cch4gvzP.s:197    .text:0000000000000050 .LBB49
     /tmp/cch4gvzP.s:268    .text:00000000000000cc .LBE49
     /tmp/cch4gvzP.s:175    .text:0000000000000028 .LBE40
     /tmp/cch4gvzP.s:199    .text:0000000000000050 .LBB47
     /tmp/cch4gvzP.s:266    .text:00000000000000cc .LBE47
     /tmp/cch4gvzP.s:297    .text:00000000000000f4 .LBE50
     /tmp/cch4gvzP.s:307    .text:0000000000000104 .LBB61
     /tmp/cch4gvzP.s:378    .text:0000000000000180 .LBE61
     /tmp/cch4gvzP.s:286    .text:00000000000000dc .LBE52
     /tmp/cch4gvzP.s:309    .text:0000000000000104 .LBB59
     /tmp/cch4gvzP.s:376    .text:0000000000000180 .LBE59
     /tmp/cch4gvzP.s:127    .gcc_except_table._ZN8MyBufferdlEPv:0000000000000000 .LLSDA19
     /tmp/cch4gvzP.s:426    .gcc_except_table:0000000000000000 .LLSDA26

UNDEFINED SYMBOLS
_ZN15MemoryAllocator11memory_freeEPv
HEAP_END_ADDR
HEAP_START_ADDR
__gxx_personality_v0
_ZN15MemoryAllocator12memory_allocEm
_ZN8MyBufferC1Ei
_Unwind_Resume
_ZN8MyBuffer3putEi
_ZN8MyBuffer3getEv
