GAS LISTING /tmp/ccoirrXF.s 			page 1


   1              		.file	"console.cpp"
   2              		.option pic
   3              		.option norelax
   4              		.text
   5              	.Ltext0:
   6              		.section	.text._ZN8MyBufferdlEPv,"axG",@progbits,_ZN8MyBufferdlEPv,comdat
   7              		.align	2
   8              		.weak	_ZN8MyBufferdlEPv
  10              	_ZN8MyBufferdlEPv:
  11              	.LFB19:
  12              		.file 1 "src/../h/../h/my_buffer.hpp"
   1:src/../h/../h/my_buffer.hpp **** #ifndef _my_buffer_hpp_
   2:src/../h/../h/my_buffer.hpp **** #define _my_buffer_hpp_
   3:src/../h/../h/my_buffer.hpp **** 
   4:src/../h/../h/my_buffer.hpp **** #include "../h/semaphore.hpp"
   5:src/../h/../h/my_buffer.hpp **** #include "../h/MemoryAllocator.hpp"
   6:src/../h/../h/my_buffer.hpp **** #include "../lib/hw.h"
   7:src/../h/../h/my_buffer.hpp **** 
   8:src/../h/../h/my_buffer.hpp **** class MyBuffer {
   9:src/../h/../h/my_buffer.hpp **** private:
  10:src/../h/../h/my_buffer.hpp ****     int cap;
  11:src/../h/../h/my_buffer.hpp ****     int *buffer;
  12:src/../h/../h/my_buffer.hpp ****     int head, tail;
  13:src/../h/../h/my_buffer.hpp **** 
  14:src/../h/../h/my_buffer.hpp ****     MySemaphore* spaceAvailable;
  15:src/../h/../h/my_buffer.hpp ****     MySemaphore* itemAvailable;
  16:src/../h/../h/my_buffer.hpp ****     MySemaphore* mutexHead;
  17:src/../h/../h/my_buffer.hpp ****     MySemaphore* mutexTail;
  18:src/../h/../h/my_buffer.hpp **** 
  19:src/../h/../h/my_buffer.hpp **** 
  20:src/../h/../h/my_buffer.hpp **** 
  21:src/../h/../h/my_buffer.hpp **** public:
  22:src/../h/../h/my_buffer.hpp ****     MyBuffer(int _cap);
  23:src/../h/../h/my_buffer.hpp ****     ~MyBuffer();
  24:src/../h/../h/my_buffer.hpp **** 
  25:src/../h/../h/my_buffer.hpp ****     void put(int val);
  26:src/../h/../h/my_buffer.hpp ****     int get();
  27:src/../h/../h/my_buffer.hpp **** 
  28:src/../h/../h/my_buffer.hpp ****     int getCnt();
  29:src/../h/../h/my_buffer.hpp **** 
  30:src/../h/../h/my_buffer.hpp ****     // operatori
  31:src/../h/../h/my_buffer.hpp ****     void *operator new(uint64 n){
  32:src/../h/../h/my_buffer.hpp ****         uint64 ssize = (n + MEM_BLOCK_SIZE - 1) / MEM_BLOCK_SIZE;
  33:src/../h/../h/my_buffer.hpp ****         return MemoryAllocator::getInstance().memory_alloc(ssize);
  34:src/../h/../h/my_buffer.hpp ****     }
  35:src/../h/../h/my_buffer.hpp **** 
  36:src/../h/../h/my_buffer.hpp ****     void *operator new[](uint64 n){
  37:src/../h/../h/my_buffer.hpp ****         uint64 ssize = (n + MEM_BLOCK_SIZE - 1) / MEM_BLOCK_SIZE;
  38:src/../h/../h/my_buffer.hpp ****         return MemoryAllocator::getInstance().memory_alloc(ssize);
  39:src/../h/../h/my_buffer.hpp ****     }
  40:src/../h/../h/my_buffer.hpp **** 
  41:src/../h/../h/my_buffer.hpp ****     void operator delete(void* p)noexcept{
  13              		.loc 1 41 10
  14              		.cfi_startproc
  15              		.cfi_personality 0x9b,DW.ref.__gxx_personality_v0
  16              		.cfi_lsda 0x1b,.LLSDA19
  17              	.LVL0:
GAS LISTING /tmp/ccoirrXF.s 			page 2


  18 0000 130101FF 		addi	sp,sp,-16
  19              		.cfi_def_cfa_offset 16
  20 0004 23341100 		sd	ra,8(sp)
  21 0008 23308100 		sd	s0,0(sp)
  22              		.cfi_offset 1, -8
  23              		.cfi_offset 8, -16
  24 000c 13040101 		addi	s0,sp,16
  25              		.cfi_def_cfa 8, 0
  26 0010 93050500 		mv	a1,a0
  42:src/../h/../h/my_buffer.hpp ****         MemoryAllocator::getInstance().memory_free(p);
  27              		.loc 1 42 9
  28              	.LBB12:
  29              	.LBB13:
  30              		.file 2 "src/../h/../h/../h/../h/MemoryAllocator.hpp"
   1:src/../h/../h/../h/../h/MemoryAllocator.hpp **** #ifndef _memory_allocator_hpp_
   2:src/../h/../h/../h/../h/MemoryAllocator.hpp **** #define _memory_allocator_hpp_
   3:src/../h/../h/../h/../h/MemoryAllocator.hpp **** 
   4:src/../h/../h/../h/../h/MemoryAllocator.hpp **** #include "../lib/hw.h"
   5:src/../h/../h/../h/../h/MemoryAllocator.hpp **** 
   6:src/../h/../h/../h/../h/MemoryAllocator.hpp **** class MemoryAllocator{
   7:src/../h/../h/../h/../h/MemoryAllocator.hpp **** public:
   8:src/../h/../h/../h/../h/MemoryAllocator.hpp **** 
   9:src/../h/../h/../h/../h/MemoryAllocator.hpp ****     // dodaj instancu
  10:src/../h/../h/../h/../h/MemoryAllocator.hpp ****     static MemoryAllocator& getInstance(){
  11:src/../h/../h/../h/../h/MemoryAllocator.hpp ****         static MemoryAllocator instance;
  31              		.loc 2 11 9
  32              		.loc 2 11 32 is_stmt 0
  33 0014 97070000 		lbu	a5,_ZGVZN15MemoryAllocator11getInstanceEvE8instance
  33      83C70700 
  34 001c 63820702 		beqz	a5,.L5
  35              	.L2:
  12:src/../h/../h/../h/../h/MemoryAllocator.hpp ****         return instance;
  36              		.loc 2 12 9 is_stmt 1
  37              	.LBE13:
  38              	.LBE12:
  39              		.loc 1 42 51 is_stmt 0
  40 0020 17050000 		lla	a0,_ZZN15MemoryAllocator11getInstanceEvE8instance
  40      13050500 
  41              	.LVL1:
  42 0028 97000000 		call	_ZN15MemoryAllocator11memory_freeEPv@plt
  42      E7800000 
  43              	.LVL2:
  43:src/../h/../h/my_buffer.hpp ****     }
  44              		.loc 1 43 5
  45 0030 83308100 		ld	ra,8(sp)
  46              		.cfi_remember_state
  47              		.cfi_restore 1
  48 0034 03340100 		ld	s0,0(sp)
  49              		.cfi_restore 8
  50              		.cfi_def_cfa 2, 16
  51 0038 13010101 		addi	sp,sp,16
  52              		.cfi_def_cfa_offset 0
  53 003c 67800000 		jr	ra
  54              	.LVL3:
  55              	.L5:
  56              		.cfi_restore_state
  57              	.LBB19:
GAS LISTING /tmp/ccoirrXF.s 			page 3


  58              	.LBB18:
  59              	.LBB14:
  60              	.LBB15:
  61              	.LBB16:
  13:src/../h/../h/../h/../h/MemoryAllocator.hpp ****     }
  14:src/../h/../h/../h/../h/MemoryAllocator.hpp **** 
  15:src/../h/../h/../h/../h/MemoryAllocator.hpp ****     MemoryAllocator(const MemoryAllocator&) = delete;
  16:src/../h/../h/../h/../h/MemoryAllocator.hpp ****     void operator=(MemoryAllocator const&) = delete;
  17:src/../h/../h/../h/../h/MemoryAllocator.hpp **** 
  18:src/../h/../h/../h/../h/MemoryAllocator.hpp ****     void* memory_alloc (size_t);
  19:src/../h/../h/../h/../h/MemoryAllocator.hpp **** 
  20:src/../h/../h/../h/../h/MemoryAllocator.hpp ****     int memory_free (void*);
  21:src/../h/../h/../h/../h/MemoryAllocator.hpp ****     int get_mem_alloc_heap_start(){return this->heapStart;}
  22:src/../h/../h/../h/../h/MemoryAllocator.hpp ****     int get_mem_alloc_heap_end(){return this->heapEnd;}
  23:src/../h/../h/../h/../h/MemoryAllocator.hpp **** 
  24:src/../h/../h/../h/../h/MemoryAllocator.hpp **** private:
  25:src/../h/../h/../h/../h/MemoryAllocator.hpp **** 
  26:src/../h/../h/../h/../h/MemoryAllocator.hpp ****     struct FreeMem{
  27:src/../h/../h/../h/../h/MemoryAllocator.hpp ****         size_t size;
  28:src/../h/../h/../h/../h/MemoryAllocator.hpp ****         FreeMem* next;
  29:src/../h/../h/../h/../h/MemoryAllocator.hpp ****         FreeMem* prev;
  30:src/../h/../h/../h/../h/MemoryAllocator.hpp ****     };
  31:src/../h/../h/../h/../h/MemoryAllocator.hpp **** 
  32:src/../h/../h/../h/../h/MemoryAllocator.hpp ****     FreeMem* fmem_head = nullptr;
  33:src/../h/../h/../h/../h/MemoryAllocator.hpp ****     size_t heapStart;
  34:src/../h/../h/../h/../h/MemoryAllocator.hpp ****     size_t heapEnd;
  35:src/../h/../h/../h/../h/MemoryAllocator.hpp **** 
  36:src/../h/../h/../h/../h/MemoryAllocator.hpp ****     MemoryAllocator(){
  62              		.loc 2 36 22
  63 0040 17060000 		lla	a2,_ZZN15MemoryAllocator11getInstanceEvE8instance
  63      13060600 
  64              	.LBB17:
  37:src/../h/../h/../h/../h/MemoryAllocator.hpp **** 
  38:src/../h/../h/../h/../h/MemoryAllocator.hpp ****         heapStart = (size_t)HEAP_START_ADDR + ((size_t)HEAP_END_ADDR - (size_t)HEAP_START_ADDR) / 8
  65              		.loc 2 38 9 is_stmt 1
  66              		.loc 2 38 70 is_stmt 0
  67 0048 97070000 		la	a5,HEAP_END_ADDR
  67      83B70700 
  68 0050 03B70700 		ld	a4,0(a5)
  69 0054 97070000 		la	a5,HEAP_START_ADDR
  69      83B70700 
  70 005c 83B70700 		ld	a5,0(a5)
  71 0060 B306F740 		sub	a3,a4,a5
  72              		.loc 2 38 97
  73 0064 93D63600 		srli	a3,a3,3
  74              		.loc 2 38 45
  75 0068 B387D700 		add	a5,a5,a3
  76              		.loc 2 38 101
  77 006c 93871700 		addi	a5,a5,1
  78              		.loc 2 38 19
  79 0070 2334F600 		sd	a5,8(a2)
  39:src/../h/../h/../h/../h/MemoryAllocator.hpp ****         heapEnd = (size_t)HEAP_END_ADDR - 1;
  80              		.loc 2 39 9 is_stmt 1
  81              		.loc 2 39 41 is_stmt 0
  82 0074 1307F7FF 		addi	a4,a4,-1
  83              		.loc 2 39 17
  84 0078 2338E600 		sd	a4,16(a2)
GAS LISTING /tmp/ccoirrXF.s 			page 4


  40:src/../h/../h/../h/../h/MemoryAllocator.hpp **** 
  41:src/../h/../h/../h/../h/MemoryAllocator.hpp ****         // poravnaj na prvu krstenu adresu
  42:src/../h/../h/../h/../h/MemoryAllocator.hpp ****         fmem_head = (FreeMem*)(heapStart + ((heapStart % MEM_BLOCK_SIZE != 0)?(MEM_BLOCK_SIZE - hea
  85              		.loc 2 42 9 is_stmt 1
  86              		.loc 2 42 56 is_stmt 0
  87 007c 93F6F703 		andi	a3,a5,63
  88              		.loc 2 42 78
  89 0080 63860600 		beqz	a3,.L3
  90 0084 13060004 		li	a2,64
  91 0088 B306D640 		sub	a3,a2,a3
  92              	.L3:
  93              		.loc 2 42 42
  94 008c B387D700 		add	a5,a5,a3
  95              		.loc 2 42 19
  96 0090 97060000 		sd	a5,_ZZN15MemoryAllocator11getInstanceEvE8instance,a3
  96      23B0F600 
  43:src/../h/../h/../h/../h/MemoryAllocator.hpp **** 
  44:src/../h/../h/../h/../h/MemoryAllocator.hpp ****         size_t sizeInBlocks = (heapEnd - (size_t)fmem_head) / MEM_BLOCK_SIZE;
  97              		.loc 2 44 9 is_stmt 1
  98              		.loc 2 44 40 is_stmt 0
  99 0098 3307F740 		sub	a4,a4,a5
 100              		.loc 2 44 16
 101 009c 13576700 		srli	a4,a4,6
 102              	.LVL4:
  45:src/../h/../h/../h/../h/MemoryAllocator.hpp **** 
  46:src/../h/../h/../h/../h/MemoryAllocator.hpp ****         // napravi node
  47:src/../h/../h/../h/../h/MemoryAllocator.hpp **** 
  48:src/../h/../h/../h/../h/MemoryAllocator.hpp ****         fmem_head->next = nullptr;
 103              		.loc 2 48 9 is_stmt 1
 104              		.loc 2 48 25 is_stmt 0
 105 00a0 23B40700 		sd	zero,8(a5)
  49:src/../h/../h/../h/../h/MemoryAllocator.hpp ****         fmem_head->prev = nullptr;
 106              		.loc 2 49 9 is_stmt 1
 107              		.loc 2 49 25 is_stmt 0
 108 00a4 23B80700 		sd	zero,16(a5)
  50:src/../h/../h/../h/../h/MemoryAllocator.hpp ****         fmem_head->size = sizeInBlocks;
 109              		.loc 2 50 9 is_stmt 1
 110              		.loc 2 50 25 is_stmt 0
 111 00a8 23B0E700 		sd	a4,0(a5)
 112              	.LVL5:
 113              	.LBE17:
 114              	.LBE16:
 115              	.LBE15:
 116              	.LBE14:
  11:src/../h/../h/../h/../h/MemoryAllocator.hpp ****         return instance;
 117              		.loc 2 11 32
 118 00ac 93071000 		li	a5,1
 119 00b0 17070000 		sb	a5,_ZGVZN15MemoryAllocator11getInstanceEvE8instance,a4
 119      2300F700 
 120 00b8 6FF09FF6 		j	.L2
 121              	.LBE18:
 122              	.LBE19:
 123              		.cfi_endproc
 124              	.LFE19:
 125              		.globl	__gxx_personality_v0
 126              		.section	.gcc_except_table._ZN8MyBufferdlEPv,"aG",@progbits,_ZN8MyBufferdlEPv,comdat
 127              	.LLSDA19:
GAS LISTING /tmp/ccoirrXF.s 			page 5


 128 0000 FF       		.byte	0xff
 129 0001 FF       		.byte	0xff
 130 0002 03       		.byte	0x3
 131 0003 00       		.byte	0
 132              		.section	.text._ZN8MyBufferdlEPv,"axG",@progbits,_ZN8MyBufferdlEPv,comdat
 134              		.text
 135              		.align	2
 136              		.globl	_ZN7ConsoleC2Ev
 138              	_ZN7ConsoleC2Ev:
 139              	.LFB26:
 140              		.file 3 "src/console.cpp"
   1:src/console.cpp **** 
   2:src/console.cpp **** #include "../h/console.hpp"
   3:src/console.cpp **** 
   4:src/console.cpp **** Console::Console() {
 141              		.loc 3 4 1 is_stmt 1
 142              		.cfi_startproc
 143              		.cfi_personality 0x9b,DW.ref.__gxx_personality_v0
 144              		.cfi_lsda 0x1b,.LLSDA26
 145              	.LVL6:
 146 0000 130101FE 		addi	sp,sp,-32
 147              		.cfi_def_cfa_offset 32
 148 0004 233C1100 		sd	ra,24(sp)
 149 0008 23388100 		sd	s0,16(sp)
 150 000c 23349100 		sd	s1,8(sp)
 151 0010 23302101 		sd	s2,0(sp)
 152              		.cfi_offset 1, -8
 153              		.cfi_offset 8, -16
 154              		.cfi_offset 9, -24
 155              		.cfi_offset 18, -32
 156 0014 13040102 		addi	s0,sp,32
 157              		.cfi_def_cfa 8, 0
 158 0018 13090500 		mv	s2,a0
 159              	.LBB37:
   5:src/console.cpp ****     input_buffer = new MyBuffer(1024);
 160              		.loc 3 5 5
 161              	.LVL7:
 162              	.LBB38:
 163              	.LBB39:
  32:src/../h/../h/my_buffer.hpp ****         return MemoryAllocator::getInstance().memory_alloc(ssize);
 164              		.loc 1 32 9
  33:src/../h/../h/my_buffer.hpp ****     }
 165              		.loc 1 33 9
 166              	.LBB40:
 167              	.LBB41:
  11:src/../h/../h/../h/../h/MemoryAllocator.hpp ****         return instance;
 168              		.loc 2 11 9
  11:src/../h/../h/../h/../h/MemoryAllocator.hpp ****         return instance;
 169              		.loc 2 11 32 is_stmt 0
 170 001c 97070000 		lbu	a5,_ZGVZN15MemoryAllocator11getInstanceEvE8instance
 170      83C70700 
 171 0024 63880702 		beqz	a5,.L19
 172              	.L7:
  12:src/../h/../h/../h/../h/MemoryAllocator.hpp ****     }
 173              		.loc 2 12 9 is_stmt 1
 174              	.LBE41:
 175              	.LBE40:
GAS LISTING /tmp/ccoirrXF.s 			page 6


  33:src/../h/../h/my_buffer.hpp ****     }
 176              		.loc 1 33 59 is_stmt 0
 177 0028 93051000 		li	a1,1
 178 002c 17050000 		lla	a0,_ZZN15MemoryAllocator11getInstanceEvE8instance
 178      13050500 
 179              	.LVL8:
 180              	.LEHB0:
 181 0034 97000000 		call	_ZN15MemoryAllocator12memory_allocEm@plt
 181      E7800000 
 182              	.LVL9:
 183              	.LEHE0:
 184 003c 93040500 		mv	s1,a0
 185              	.LVL10:
 186              	.LBE39:
 187              	.LBE38:
 188              		.loc 3 5 37
 189 0040 63080508 		beqz	a0,.L9
 190              		.loc 3 5 37 discriminator 1
 191 0044 93050040 		li	a1,1024
 192              	.LEHB1:
 193 0048 97000000 		call	_ZN8MyBufferC1Ei@plt
 193      E7800000 
 194              	.LVL11:
 195              	.LEHE1:
 196 0050 6F000008 		j	.L9
 197              	.LVL12:
 198              	.L19:
 199              	.LBB49:
 200              	.LBB48:
 201              	.LBB47:
 202              	.LBB46:
 203              	.LBB42:
 204              	.LBB43:
 205              	.LBB44:
  36:src/../h/../h/../h/../h/MemoryAllocator.hpp **** 
 206              		.loc 2 36 22
 207 0054 17060000 		lla	a2,_ZZN15MemoryAllocator11getInstanceEvE8instance
 207      13060600 
 208              	.LBB45:
  38:src/../h/../h/../h/../h/MemoryAllocator.hpp ****         heapEnd = (size_t)HEAP_END_ADDR - 1;
 209              		.loc 2 38 9 is_stmt 1
  38:src/../h/../h/../h/../h/MemoryAllocator.hpp ****         heapEnd = (size_t)HEAP_END_ADDR - 1;
 210              		.loc 2 38 70 is_stmt 0
 211 005c 97070000 		la	a5,HEAP_END_ADDR
 211      83B70700 
 212 0064 03B70700 		ld	a4,0(a5)
 213 0068 97070000 		la	a5,HEAP_START_ADDR
 213      83B70700 
 214 0070 83B70700 		ld	a5,0(a5)
 215 0074 B306F740 		sub	a3,a4,a5
  38:src/../h/../h/../h/../h/MemoryAllocator.hpp ****         heapEnd = (size_t)HEAP_END_ADDR - 1;
 216              		.loc 2 38 97
 217 0078 93D63600 		srli	a3,a3,3
  38:src/../h/../h/../h/../h/MemoryAllocator.hpp ****         heapEnd = (size_t)HEAP_END_ADDR - 1;
 218              		.loc 2 38 45
 219 007c B387D700 		add	a5,a5,a3
  38:src/../h/../h/../h/../h/MemoryAllocator.hpp ****         heapEnd = (size_t)HEAP_END_ADDR - 1;
GAS LISTING /tmp/ccoirrXF.s 			page 7


 220              		.loc 2 38 101
 221 0080 93871700 		addi	a5,a5,1
  38:src/../h/../h/../h/../h/MemoryAllocator.hpp ****         heapEnd = (size_t)HEAP_END_ADDR - 1;
 222              		.loc 2 38 19
 223 0084 2334F600 		sd	a5,8(a2)
  39:src/../h/../h/../h/../h/MemoryAllocator.hpp **** 
 224              		.loc 2 39 9 is_stmt 1
  39:src/../h/../h/../h/../h/MemoryAllocator.hpp **** 
 225              		.loc 2 39 41 is_stmt 0
 226 0088 1307F7FF 		addi	a4,a4,-1
  39:src/../h/../h/../h/../h/MemoryAllocator.hpp **** 
 227              		.loc 2 39 17
 228 008c 2338E600 		sd	a4,16(a2)
  42:src/../h/../h/../h/../h/MemoryAllocator.hpp **** 
 229              		.loc 2 42 9 is_stmt 1
  42:src/../h/../h/../h/../h/MemoryAllocator.hpp **** 
 230              		.loc 2 42 56 is_stmt 0
 231 0090 93F6F703 		andi	a3,a5,63
  42:src/../h/../h/../h/../h/MemoryAllocator.hpp **** 
 232              		.loc 2 42 78
 233 0094 63860600 		beqz	a3,.L8
 234 0098 13060004 		li	a2,64
 235 009c B306D640 		sub	a3,a2,a3
 236              	.L8:
  42:src/../h/../h/../h/../h/MemoryAllocator.hpp **** 
 237              		.loc 2 42 42
 238 00a0 B387D700 		add	a5,a5,a3
  42:src/../h/../h/../h/../h/MemoryAllocator.hpp **** 
 239              		.loc 2 42 19
 240 00a4 97060000 		sd	a5,_ZZN15MemoryAllocator11getInstanceEvE8instance,a3
 240      23B0F600 
  44:src/../h/../h/../h/../h/MemoryAllocator.hpp **** 
 241              		.loc 2 44 9 is_stmt 1
  44:src/../h/../h/../h/../h/MemoryAllocator.hpp **** 
 242              		.loc 2 44 40 is_stmt 0
 243 00ac 3307F740 		sub	a4,a4,a5
  44:src/../h/../h/../h/../h/MemoryAllocator.hpp **** 
 244              		.loc 2 44 16
 245 00b0 13576700 		srli	a4,a4,6
 246              	.LVL13:
  48:src/../h/../h/../h/../h/MemoryAllocator.hpp ****         fmem_head->prev = nullptr;
 247              		.loc 2 48 9 is_stmt 1
  48:src/../h/../h/../h/../h/MemoryAllocator.hpp ****         fmem_head->prev = nullptr;
 248              		.loc 2 48 25 is_stmt 0
 249 00b4 23B40700 		sd	zero,8(a5)
  49:src/../h/../h/../h/../h/MemoryAllocator.hpp ****         fmem_head->size = sizeInBlocks;
 250              		.loc 2 49 9 is_stmt 1
  49:src/../h/../h/../h/../h/MemoryAllocator.hpp ****         fmem_head->size = sizeInBlocks;
 251              		.loc 2 49 25 is_stmt 0
 252 00b8 23B80700 		sd	zero,16(a5)
 253              		.loc 2 50 9 is_stmt 1
 254              		.loc 2 50 25 is_stmt 0
 255 00bc 23B0E700 		sd	a4,0(a5)
 256              	.LVL14:
 257              	.LBE45:
 258              	.LBE44:
 259              	.LBE43:
GAS LISTING /tmp/ccoirrXF.s 			page 8


 260              	.LBE42:
  11:src/../h/../h/../h/../h/MemoryAllocator.hpp ****         return instance;
 261              		.loc 2 11 32
 262 00c0 93071000 		li	a5,1
 263 00c4 17070000 		sb	a5,_ZGVZN15MemoryAllocator11getInstanceEvE8instance,a4
 263      2300F700 
 264 00cc 6FF0DFF5 		j	.L7
 265              	.LVL15:
 266              	.L9:
 267              	.LBE46:
 268              	.LBE47:
 269              	.LBE48:
 270              	.LBE49:
 271              		.loc 3 5 18 discriminator 6
 272 00d0 23309900 		sd	s1,0(s2)
   6:src/console.cpp ****     output_buffer = new MyBuffer(1024);
 273              		.loc 3 6 5 is_stmt 1 discriminator 6
 274              	.LVL16:
 275              	.LBB50:
 276              	.LBB51:
  32:src/../h/../h/my_buffer.hpp ****         return MemoryAllocator::getInstance().memory_alloc(ssize);
 277              		.loc 1 32 9 discriminator 6
  33:src/../h/../h/my_buffer.hpp ****     }
 278              		.loc 1 33 9 discriminator 6
 279              	.LBB52:
 280              	.LBB53:
  11:src/../h/../h/../h/../h/MemoryAllocator.hpp ****         return instance;
 281              		.loc 2 11 9 discriminator 6
  11:src/../h/../h/../h/../h/MemoryAllocator.hpp ****         return instance;
 282              		.loc 2 11 32 is_stmt 0 discriminator 6
 283 00d4 97070000 		lbu	a5,_ZGVZN15MemoryAllocator11getInstanceEvE8instance
 283      83C70700 
 284 00dc 63880702 		beqz	a5,.L20
 285              	.L10:
  12:src/../h/../h/../h/../h/MemoryAllocator.hpp ****     }
 286              		.loc 2 12 9 is_stmt 1
 287              	.LBE53:
 288              	.LBE52:
  33:src/../h/../h/my_buffer.hpp ****     }
 289              		.loc 1 33 59 is_stmt 0
 290 00e0 93051000 		li	a1,1
 291 00e4 17050000 		lla	a0,_ZZN15MemoryAllocator11getInstanceEvE8instance
 291      13050500 
 292              	.LEHB2:
 293 00ec 97000000 		call	_ZN15MemoryAllocator12memory_allocEm@plt
 293      E7800000 
 294              	.LVL17:
 295              	.LEHE2:
 296 00f4 93040500 		mv	s1,a0
 297              	.LVL18:
 298              	.LBE51:
 299              	.LBE50:
 300              		.loc 3 6 38
 301 00f8 63080508 		beqz	a0,.L12
 302              		.loc 3 6 38 discriminator 1
 303 00fc 93050040 		li	a1,1024
 304              	.LEHB3:
GAS LISTING /tmp/ccoirrXF.s 			page 9


 305 0100 97000000 		call	_ZN8MyBufferC1Ei@plt
 305      E7800000 
 306              	.LVL19:
 307              	.LEHE3:
 308 0108 6F000008 		j	.L12
 309              	.LVL20:
 310              	.L20:
 311              	.LBB61:
 312              	.LBB60:
 313              	.LBB59:
 314              	.LBB58:
 315              	.LBB54:
 316              	.LBB55:
 317              	.LBB56:
  36:src/../h/../h/../h/../h/MemoryAllocator.hpp **** 
 318              		.loc 2 36 22
 319 010c 17060000 		lla	a2,_ZZN15MemoryAllocator11getInstanceEvE8instance
 319      13060600 
 320              	.LBB57:
  38:src/../h/../h/../h/../h/MemoryAllocator.hpp ****         heapEnd = (size_t)HEAP_END_ADDR - 1;
 321              		.loc 2 38 9 is_stmt 1
  38:src/../h/../h/../h/../h/MemoryAllocator.hpp ****         heapEnd = (size_t)HEAP_END_ADDR - 1;
 322              		.loc 2 38 70 is_stmt 0
 323 0114 97070000 		la	a5,HEAP_END_ADDR
 323      83B70700 
 324 011c 03B70700 		ld	a4,0(a5)
 325 0120 97070000 		la	a5,HEAP_START_ADDR
 325      83B70700 
 326 0128 83B70700 		ld	a5,0(a5)
 327 012c B306F740 		sub	a3,a4,a5
  38:src/../h/../h/../h/../h/MemoryAllocator.hpp ****         heapEnd = (size_t)HEAP_END_ADDR - 1;
 328              		.loc 2 38 97
 329 0130 93D63600 		srli	a3,a3,3
  38:src/../h/../h/../h/../h/MemoryAllocator.hpp ****         heapEnd = (size_t)HEAP_END_ADDR - 1;
 330              		.loc 2 38 45
 331 0134 B387D700 		add	a5,a5,a3
  38:src/../h/../h/../h/../h/MemoryAllocator.hpp ****         heapEnd = (size_t)HEAP_END_ADDR - 1;
 332              		.loc 2 38 101
 333 0138 93871700 		addi	a5,a5,1
  38:src/../h/../h/../h/../h/MemoryAllocator.hpp ****         heapEnd = (size_t)HEAP_END_ADDR - 1;
 334              		.loc 2 38 19
 335 013c 2334F600 		sd	a5,8(a2)
  39:src/../h/../h/../h/../h/MemoryAllocator.hpp **** 
 336              		.loc 2 39 9 is_stmt 1
  39:src/../h/../h/../h/../h/MemoryAllocator.hpp **** 
 337              		.loc 2 39 41 is_stmt 0
 338 0140 1307F7FF 		addi	a4,a4,-1
  39:src/../h/../h/../h/../h/MemoryAllocator.hpp **** 
 339              		.loc 2 39 17
 340 0144 2338E600 		sd	a4,16(a2)
  42:src/../h/../h/../h/../h/MemoryAllocator.hpp **** 
 341              		.loc 2 42 9 is_stmt 1
  42:src/../h/../h/../h/../h/MemoryAllocator.hpp **** 
 342              		.loc 2 42 56 is_stmt 0
 343 0148 93F6F703 		andi	a3,a5,63
  42:src/../h/../h/../h/../h/MemoryAllocator.hpp **** 
 344              		.loc 2 42 78
GAS LISTING /tmp/ccoirrXF.s 			page 10


 345 014c 63860600 		beqz	a3,.L11
 346 0150 13060004 		li	a2,64
 347 0154 B306D640 		sub	a3,a2,a3
 348              	.L11:
  42:src/../h/../h/../h/../h/MemoryAllocator.hpp **** 
 349              		.loc 2 42 42
 350 0158 B387D700 		add	a5,a5,a3
  42:src/../h/../h/../h/../h/MemoryAllocator.hpp **** 
 351              		.loc 2 42 19
 352 015c 97060000 		sd	a5,_ZZN15MemoryAllocator11getInstanceEvE8instance,a3
 352      23B0F600 
  44:src/../h/../h/../h/../h/MemoryAllocator.hpp **** 
 353              		.loc 2 44 9 is_stmt 1
  44:src/../h/../h/../h/../h/MemoryAllocator.hpp **** 
 354              		.loc 2 44 40 is_stmt 0
 355 0164 3307F740 		sub	a4,a4,a5
  44:src/../h/../h/../h/../h/MemoryAllocator.hpp **** 
 356              		.loc 2 44 16
 357 0168 13576700 		srli	a4,a4,6
 358              	.LVL21:
  48:src/../h/../h/../h/../h/MemoryAllocator.hpp ****         fmem_head->prev = nullptr;
 359              		.loc 2 48 9 is_stmt 1
  48:src/../h/../h/../h/../h/MemoryAllocator.hpp ****         fmem_head->prev = nullptr;
 360              		.loc 2 48 25 is_stmt 0
 361 016c 23B40700 		sd	zero,8(a5)
  49:src/../h/../h/../h/../h/MemoryAllocator.hpp ****         fmem_head->size = sizeInBlocks;
 362              		.loc 2 49 9 is_stmt 1
  49:src/../h/../h/../h/../h/MemoryAllocator.hpp ****         fmem_head->size = sizeInBlocks;
 363              		.loc 2 49 25 is_stmt 0
 364 0170 23B80700 		sd	zero,16(a5)
 365              		.loc 2 50 9 is_stmt 1
 366              		.loc 2 50 25 is_stmt 0
 367 0174 23B0E700 		sd	a4,0(a5)
 368              	.LVL22:
 369              	.LBE57:
 370              	.LBE56:
 371              	.LBE55:
 372              	.LBE54:
  11:src/../h/../h/../h/../h/MemoryAllocator.hpp ****         return instance;
 373              		.loc 2 11 32
 374 0178 93071000 		li	a5,1
 375 017c 17070000 		sb	a5,_ZGVZN15MemoryAllocator11getInstanceEvE8instance,a4
 375      2300F700 
 376 0184 6FF0DFF5 		j	.L10
 377              	.LVL23:
 378              	.L12:
 379              	.LBE58:
 380              	.LBE59:
 381              	.LBE60:
 382              	.LBE61:
 383              		.loc 3 6 19 discriminator 6
 384 0188 23349900 		sd	s1,8(s2)
 385              	.LBE37:
   7:src/console.cpp **** }
 386              		.loc 3 7 1 discriminator 6
 387 018c 83308101 		ld	ra,24(sp)
 388              		.cfi_remember_state
GAS LISTING /tmp/ccoirrXF.s 			page 11


 389              		.cfi_restore 1
 390 0190 03340101 		ld	s0,16(sp)
 391              		.cfi_restore 8
 392              		.cfi_def_cfa 2, 32
 393 0194 83348100 		ld	s1,8(sp)
 394              		.cfi_restore 9
 395 0198 03390100 		ld	s2,0(sp)
 396              		.cfi_restore 18
 397              	.LVL24:
 398 019c 13010102 		addi	sp,sp,32
 399              		.cfi_def_cfa_offset 0
 400 01a0 67800000 		jr	ra
 401              	.LVL25:
 402              	.L15:
 403              		.cfi_restore_state
 404 01a4 13090500 		mv	s2,a0
 405              	.LVL26:
 406              	.LBB62:
   5:src/console.cpp ****     output_buffer = new MyBuffer(1024);
 407              		.loc 3 5 37
 408 01a8 13850400 		mv	a0,s1
 409 01ac 97000000 		call	_ZN8MyBufferdlEPv
 409      E7800000 
 410              	.LVL27:
 411 01b4 13050900 		mv	a0,s2
 412              	.LEHB4:
 413 01b8 97000000 		call	_Unwind_Resume@plt
 413      E7800000 
 414              	.LVL28:
 415              	.L16:
 416 01c0 13090500 		mv	s2,a0
 417              	.LVL29:
   6:src/console.cpp **** }
 418              		.loc 3 6 38
 419 01c4 13850400 		mv	a0,s1
 420 01c8 97000000 		call	_ZN8MyBufferdlEPv
 420      E7800000 
 421              	.LVL30:
 422 01d0 13050900 		mv	a0,s2
 423 01d4 97000000 		call	_Unwind_Resume@plt
 423      E7800000 
 424              	.LVL31:
 425              	.LEHE4:
 426              	.LBE62:
 427              		.cfi_endproc
 428              	.LFE26:
 429              		.section	.gcc_except_table,"a",@progbits
 430              	.LLSDA26:
 431 0000 FF       		.byte	0xff
 432 0001 FF       		.byte	0xff
 433 0002 03       		.byte	0x3
 434 0003 41       		.byte	0x41
 435 0004 00000000 		.4byte	.LEHB0-.LFB26
 436 0008 00000000 		.4byte	.LEHE0-.LEHB0
 437 000c 00000000 		.4byte	0
 438 0010 00       		.byte	0
 439 0011 00000000 		.4byte	.LEHB1-.LFB26
GAS LISTING /tmp/ccoirrXF.s 			page 12


 440 0015 00000000 		.4byte	.LEHE1-.LEHB1
 441 0019 00000000 		.4byte	.L15-.LFB26
 442 001d 00       		.byte	0
 443 001e 00000000 		.4byte	.LEHB2-.LFB26
 444 0022 00000000 		.4byte	.LEHE2-.LEHB2
 445 0026 00000000 		.4byte	0
 446 002a 00       		.byte	0
 447 002b 00000000 		.4byte	.LEHB3-.LFB26
 448 002f 00000000 		.4byte	.LEHE3-.LEHB3
 449 0033 00000000 		.4byte	.L16-.LFB26
 450 0037 00       		.byte	0
 451 0038 00000000 		.4byte	.LEHB4-.LFB26
 452 003c 00000000 		.4byte	.LEHE4-.LEHB4
 453 0040 00000000 		.4byte	0
 454 0044 00       		.byte	0
 455              		.text
 457              		.globl	_ZN7ConsoleC1Ev
 458              		.set	_ZN7ConsoleC1Ev,_ZN7ConsoleC2Ev
 459              		.align	2
 460              		.globl	_ZN7Console12put_in_inputEc
 462              	_ZN7Console12put_in_inputEc:
 463              	.LFB28:
   8:src/console.cpp **** 
   9:src/console.cpp **** void Console::put_in_input(char c){
 464              		.loc 3 9 35 is_stmt 1
 465              		.cfi_startproc
 466              	.LVL32:
 467 01dc 130101FF 		addi	sp,sp,-16
 468              		.cfi_def_cfa_offset 16
 469 01e0 23341100 		sd	ra,8(sp)
 470 01e4 23308100 		sd	s0,0(sp)
 471              		.cfi_offset 1, -8
 472              		.cfi_offset 8, -16
 473 01e8 13040101 		addi	s0,sp,16
 474              		.cfi_def_cfa 8, 0
  10:src/console.cpp ****     input_buffer->put(c);
 475              		.loc 3 10 5
 476              		.loc 3 10 22 is_stmt 0
 477 01ec 03350500 		ld	a0,0(a0)
 478              	.LVL33:
 479 01f0 97000000 		call	_ZN8MyBuffer3putEi@plt
 479      E7800000 
 480              	.LVL34:
  11:src/console.cpp **** }
 481              		.loc 3 11 1
 482 01f8 83308100 		ld	ra,8(sp)
 483              		.cfi_restore 1
 484 01fc 03340100 		ld	s0,0(sp)
 485              		.cfi_restore 8
 486              		.cfi_def_cfa 2, 16
 487 0200 13010101 		addi	sp,sp,16
 488              		.cfi_def_cfa_offset 0
 489 0204 67800000 		jr	ra
 490              		.cfi_endproc
 491              	.LFE28:
 493              		.align	2
 494              		.globl	_ZN7Console14get_from_inputEv
GAS LISTING /tmp/ccoirrXF.s 			page 13


 496              	_ZN7Console14get_from_inputEv:
 497              	.LFB29:
  12:src/console.cpp **** 
  13:src/console.cpp **** char Console::get_from_input(){
 498              		.loc 3 13 31 is_stmt 1
 499              		.cfi_startproc
 500              	.LVL35:
 501 0208 130101FF 		addi	sp,sp,-16
 502              		.cfi_def_cfa_offset 16
 503 020c 23341100 		sd	ra,8(sp)
 504 0210 23308100 		sd	s0,0(sp)
 505              		.cfi_offset 1, -8
 506              		.cfi_offset 8, -16
 507 0214 13040101 		addi	s0,sp,16
 508              		.cfi_def_cfa 8, 0
  14:src/console.cpp ****     return (char)input_buffer->get();
 509              		.loc 3 14 5
 510              		.loc 3 14 35 is_stmt 0
 511 0218 03350500 		ld	a0,0(a0)
 512              	.LVL36:
 513 021c 97000000 		call	_ZN8MyBuffer3getEv@plt
 513      E7800000 
 514              	.LVL37:
  15:src/console.cpp **** }
 515              		.loc 3 15 1
 516 0224 1375F50F 		andi	a0,a0,0xff
 517 0228 83308100 		ld	ra,8(sp)
 518              		.cfi_restore 1
 519 022c 03340100 		ld	s0,0(sp)
 520              		.cfi_restore 8
 521              		.cfi_def_cfa 2, 16
 522 0230 13010101 		addi	sp,sp,16
 523              		.cfi_def_cfa_offset 0
 524 0234 67800000 		jr	ra
 525              		.cfi_endproc
 526              	.LFE29:
 528              		.align	2
 529              		.globl	_ZN7Console13put_in_outputEc
 531              	_ZN7Console13put_in_outputEc:
 532              	.LFB30:
  16:src/console.cpp **** 
  17:src/console.cpp **** void Console::put_in_output(char c){
 533              		.loc 3 17 36 is_stmt 1
 534              		.cfi_startproc
 535              	.LVL38:
 536 0238 130101FF 		addi	sp,sp,-16
 537              		.cfi_def_cfa_offset 16
 538 023c 23341100 		sd	ra,8(sp)
 539 0240 23308100 		sd	s0,0(sp)
 540              		.cfi_offset 1, -8
 541              		.cfi_offset 8, -16
 542 0244 13040101 		addi	s0,sp,16
 543              		.cfi_def_cfa 8, 0
  18:src/console.cpp ****     output_buffer->put(c);
 544              		.loc 3 18 5
 545              		.loc 3 18 23 is_stmt 0
 546 0248 03358500 		ld	a0,8(a0)
GAS LISTING /tmp/ccoirrXF.s 			page 14


 547              	.LVL39:
 548 024c 97000000 		call	_ZN8MyBuffer3putEi@plt
 548      E7800000 
 549              	.LVL40:
  19:src/console.cpp **** }
 550              		.loc 3 19 1
 551 0254 83308100 		ld	ra,8(sp)
 552              		.cfi_restore 1
 553 0258 03340100 		ld	s0,0(sp)
 554              		.cfi_restore 8
 555              		.cfi_def_cfa 2, 16
 556 025c 13010101 		addi	sp,sp,16
 557              		.cfi_def_cfa_offset 0
 558 0260 67800000 		jr	ra
 559              		.cfi_endproc
 560              	.LFE30:
 562              		.align	2
 563              		.globl	_ZN7Console15get_from_outputEv
 565              	_ZN7Console15get_from_outputEv:
 566              	.LFB31:
  20:src/console.cpp **** char Console::get_from_output(){
 567              		.loc 3 20 32 is_stmt 1
 568              		.cfi_startproc
 569              	.LVL41:
 570 0264 130101FF 		addi	sp,sp,-16
 571              		.cfi_def_cfa_offset 16
 572 0268 23341100 		sd	ra,8(sp)
 573 026c 23308100 		sd	s0,0(sp)
 574              		.cfi_offset 1, -8
 575              		.cfi_offset 8, -16
 576 0270 13040101 		addi	s0,sp,16
 577              		.cfi_def_cfa 8, 0
  21:src/console.cpp ****     return (char)output_buffer->get();
 578              		.loc 3 21 5
 579              		.loc 3 21 36 is_stmt 0
 580 0274 03358500 		ld	a0,8(a0)
 581              	.LVL42:
 582 0278 97000000 		call	_ZN8MyBuffer3getEv@plt
 582      E7800000 
 583              	.LVL43:
  22:src/console.cpp **** }...
 584              		.loc 3 22 1
 585 0280 1375F50F 		andi	a0,a0,0xff
 586 0284 83308100 		ld	ra,8(sp)
 587              		.cfi_restore 1
 588 0288 03340100 		ld	s0,0(sp)
 589              		.cfi_restore 8
 590              		.cfi_def_cfa 2, 16
 591 028c 13010101 		addi	sp,sp,16
 592              		.cfi_def_cfa_offset 0
 593 0290 67800000 		jr	ra
 594              		.cfi_endproc
 595              	.LFE31:
 597              		.weak	_ZGVZN15MemoryAllocator11getInstanceEvE8instance
 598              		.section	.bss._ZGVZN15MemoryAllocator11getInstanceEvE8instance,"awG",@nobits,_ZGVZN15MemoryAllocat
 599              		.align	3
 602              	_ZGVZN15MemoryAllocator11getInstanceEvE8instance:
GAS LISTING /tmp/ccoirrXF.s 			page 15


 603 0000 00000000 		.zero	8
 603      00000000 
 604              		.weak	_ZZN15MemoryAllocator11getInstanceEvE8instance
 605              		.section	.bss._ZZN15MemoryAllocator11getInstanceEvE8instance,"awG",@nobits,_ZZN15MemoryAllocator11
 606              		.align	3
 609              	_ZZN15MemoryAllocator11getInstanceEvE8instance:
 610 0000 00000000 		.zero	24
 610      00000000 
 610      00000000 
 610      00000000 
 610      00000000 
 611              		.text
 612              	.Letext0:
 613              		.file 4 "src/../h/../h/../h/../lib/hw.h"
 614              		.file 5 "src/../h/../h/../h/semaphore.hpp"
 615              		.file 6 "src/../h/console.hpp"
 3507              		.align	3
 3510              	DW.ref.__gxx_personality_v0:
 3511 0000 00000000 		.dword	__gxx_personality_v0
 3511      00000000 
 3512              		.ident	"GCC: (Ubuntu 9.4.0-1ubuntu1~20.04) 9.4.0"
 3513              		.section	.note.GNU-stack,"",@progbits
GAS LISTING /tmp/ccoirrXF.s 			page 16


DEFINED SYMBOLS
                            *ABS*:0000000000000000 console.cpp
     /tmp/ccoirrXF.s:10     .text._ZN8MyBufferdlEPv:0000000000000000 _ZN8MyBufferdlEPv
     /tmp/ccoirrXF.s:14     .text._ZN8MyBufferdlEPv:0000000000000000 .L0 
     /tmp/ccoirrXF.s:3510   .data.rel.local.DW.ref.__gxx_personality_v0:0000000000000000 DW.ref.__gxx_personality_v0
     /tmp/ccoirrXF.s:18     .text._ZN8MyBufferdlEPv:0000000000000000 .L0 
     /tmp/ccoirrXF.s:19     .text._ZN8MyBufferdlEPv:0000000000000004 .L0 
     /tmp/ccoirrXF.s:22     .text._ZN8MyBufferdlEPv:000000000000000c .L0 
     /tmp/ccoirrXF.s:23     .text._ZN8MyBufferdlEPv:000000000000000c .L0 
     /tmp/ccoirrXF.s:25     .text._ZN8MyBufferdlEPv:0000000000000010 .L0 
     /tmp/ccoirrXF.s:31     .text._ZN8MyBufferdlEPv:0000000000000014 .L0 
     /tmp/ccoirrXF.s:32     .text._ZN8MyBufferdlEPv:0000000000000014 .L0 
     /tmp/ccoirrXF.s:602    .bss._ZGVZN15MemoryAllocator11getInstanceEvE8instance:0000000000000000 _ZGVZN15MemoryAllocator11getInstanceEvE8instance
     /tmp/ccoirrXF.s:33     .text._ZN8MyBufferdlEPv:0000000000000014 .L0 
     /tmp/ccoirrXF.s:39     .text._ZN8MyBufferdlEPv:0000000000000020 .L0 
     /tmp/ccoirrXF.s:609    .bss._ZZN15MemoryAllocator11getInstanceEvE8instance:0000000000000000 _ZZN15MemoryAllocator11getInstanceEvE8instance
     /tmp/ccoirrXF.s:40     .text._ZN8MyBufferdlEPv:0000000000000020 .L0 
     /tmp/ccoirrXF.s:45     .text._ZN8MyBufferdlEPv:0000000000000030 .L0 
     /tmp/ccoirrXF.s:46     .text._ZN8MyBufferdlEPv:0000000000000034 .L0 
     /tmp/ccoirrXF.s:47     .text._ZN8MyBufferdlEPv:0000000000000034 .L0 
     /tmp/ccoirrXF.s:49     .text._ZN8MyBufferdlEPv:0000000000000038 .L0 
     /tmp/ccoirrXF.s:50     .text._ZN8MyBufferdlEPv:0000000000000038 .L0 
     /tmp/ccoirrXF.s:52     .text._ZN8MyBufferdlEPv:000000000000003c .L0 
     /tmp/ccoirrXF.s:56     .text._ZN8MyBufferdlEPv:0000000000000040 .L0 
     /tmp/ccoirrXF.s:63     .text._ZN8MyBufferdlEPv:0000000000000040 .L0 
     /tmp/ccoirrXF.s:66     .text._ZN8MyBufferdlEPv:0000000000000048 .L0 
     /tmp/ccoirrXF.s:67     .text._ZN8MyBufferdlEPv:0000000000000048 .L0 
     /tmp/ccoirrXF.s:73     .text._ZN8MyBufferdlEPv:0000000000000064 .L0 
     /tmp/ccoirrXF.s:75     .text._ZN8MyBufferdlEPv:0000000000000068 .L0 
     /tmp/ccoirrXF.s:77     .text._ZN8MyBufferdlEPv:000000000000006c .L0 
     /tmp/ccoirrXF.s:79     .text._ZN8MyBufferdlEPv:0000000000000070 .L0 
     /tmp/ccoirrXF.s:81     .text._ZN8MyBufferdlEPv:0000000000000074 .L0 
     /tmp/ccoirrXF.s:82     .text._ZN8MyBufferdlEPv:0000000000000074 .L0 
     /tmp/ccoirrXF.s:84     .text._ZN8MyBufferdlEPv:0000000000000078 .L0 
     /tmp/ccoirrXF.s:86     .text._ZN8MyBufferdlEPv:000000000000007c .L0 
     /tmp/ccoirrXF.s:87     .text._ZN8MyBufferdlEPv:000000000000007c .L0 
     /tmp/ccoirrXF.s:89     .text._ZN8MyBufferdlEPv:0000000000000080 .L0 
     /tmp/ccoirrXF.s:94     .text._ZN8MyBufferdlEPv:000000000000008c .L0 
     /tmp/ccoirrXF.s:96     .text._ZN8MyBufferdlEPv:0000000000000090 .L0 
     /tmp/ccoirrXF.s:98     .text._ZN8MyBufferdlEPv:0000000000000098 .L0 
     /tmp/ccoirrXF.s:99     .text._ZN8MyBufferdlEPv:0000000000000098 .L0 
     /tmp/ccoirrXF.s:101    .text._ZN8MyBufferdlEPv:000000000000009c .L0 
     /tmp/ccoirrXF.s:104    .text._ZN8MyBufferdlEPv:00000000000000a0 .L0 
     /tmp/ccoirrXF.s:105    .text._ZN8MyBufferdlEPv:00000000000000a0 .L0 
     /tmp/ccoirrXF.s:107    .text._ZN8MyBufferdlEPv:00000000000000a4 .L0 
     /tmp/ccoirrXF.s:108    .text._ZN8MyBufferdlEPv:00000000000000a4 .L0 
     /tmp/ccoirrXF.s:110    .text._ZN8MyBufferdlEPv:00000000000000a8 .L0 
     /tmp/ccoirrXF.s:111    .text._ZN8MyBufferdlEPv:00000000000000a8 .L0 
     /tmp/ccoirrXF.s:118    .text._ZN8MyBufferdlEPv:00000000000000ac .L0 
     /tmp/ccoirrXF.s:123    .text._ZN8MyBufferdlEPv:00000000000000bc .L0 
     /tmp/ccoirrXF.s:138    .text:0000000000000000 _ZN7ConsoleC2Ev
     /tmp/ccoirrXF.s:142    .text:0000000000000000 .L0 
     /tmp/ccoirrXF.s:146    .text:0000000000000000 .L0 
     /tmp/ccoirrXF.s:147    .text:0000000000000004 .L0 
     /tmp/ccoirrXF.s:152    .text:0000000000000014 .L0 
     /tmp/ccoirrXF.s:153    .text:0000000000000014 .L0 
     /tmp/ccoirrXF.s:154    .text:0000000000000014 .L0 
GAS LISTING /tmp/ccoirrXF.s 			page 17


     /tmp/ccoirrXF.s:155    .text:0000000000000014 .L0 
     /tmp/ccoirrXF.s:157    .text:0000000000000018 .L0 
     /tmp/ccoirrXF.s:164    .text:000000000000001c .L0 
     /tmp/ccoirrXF.s:165    .text:000000000000001c .L0 
     /tmp/ccoirrXF.s:168    .text:000000000000001c .L0 
     /tmp/ccoirrXF.s:169    .text:000000000000001c .L0 
     /tmp/ccoirrXF.s:170    .text:000000000000001c .L0 
     /tmp/ccoirrXF.s:176    .text:0000000000000028 .L0 
     /tmp/ccoirrXF.s:177    .text:0000000000000028 .L0 
     /tmp/ccoirrXF.s:189    .text:0000000000000040 .L0 
     /tmp/ccoirrXF.s:191    .text:0000000000000044 .L0 
     /tmp/ccoirrXF.s:207    .text:0000000000000054 .L0 
     /tmp/ccoirrXF.s:210    .text:000000000000005c .L0 
     /tmp/ccoirrXF.s:211    .text:000000000000005c .L0 
     /tmp/ccoirrXF.s:217    .text:0000000000000078 .L0 
     /tmp/ccoirrXF.s:219    .text:000000000000007c .L0 
     /tmp/ccoirrXF.s:221    .text:0000000000000080 .L0 
     /tmp/ccoirrXF.s:223    .text:0000000000000084 .L0 
     /tmp/ccoirrXF.s:225    .text:0000000000000088 .L0 
     /tmp/ccoirrXF.s:226    .text:0000000000000088 .L0 
     /tmp/ccoirrXF.s:228    .text:000000000000008c .L0 
     /tmp/ccoirrXF.s:230    .text:0000000000000090 .L0 
     /tmp/ccoirrXF.s:231    .text:0000000000000090 .L0 
     /tmp/ccoirrXF.s:233    .text:0000000000000094 .L0 
     /tmp/ccoirrXF.s:238    .text:00000000000000a0 .L0 
     /tmp/ccoirrXF.s:240    .text:00000000000000a4 .L0 
     /tmp/ccoirrXF.s:242    .text:00000000000000ac .L0 
     /tmp/ccoirrXF.s:243    .text:00000000000000ac .L0 
     /tmp/ccoirrXF.s:245    .text:00000000000000b0 .L0 
     /tmp/ccoirrXF.s:248    .text:00000000000000b4 .L0 
     /tmp/ccoirrXF.s:249    .text:00000000000000b4 .L0 
     /tmp/ccoirrXF.s:251    .text:00000000000000b8 .L0 
     /tmp/ccoirrXF.s:252    .text:00000000000000b8 .L0 
     /tmp/ccoirrXF.s:254    .text:00000000000000bc .L0 
     /tmp/ccoirrXF.s:255    .text:00000000000000bc .L0 
     /tmp/ccoirrXF.s:262    .text:00000000000000c0 .L0 
     /tmp/ccoirrXF.s:272    .text:00000000000000d0 .L0 
     /tmp/ccoirrXF.s:277    .text:00000000000000d4 .L0 
     /tmp/ccoirrXF.s:278    .text:00000000000000d4 .L0 
     /tmp/ccoirrXF.s:281    .text:00000000000000d4 .L0 
     /tmp/ccoirrXF.s:282    .text:00000000000000d4 .L0 
     /tmp/ccoirrXF.s:283    .text:00000000000000d4 .L0 
     /tmp/ccoirrXF.s:289    .text:00000000000000e0 .L0 
     /tmp/ccoirrXF.s:290    .text:00000000000000e0 .L0 
     /tmp/ccoirrXF.s:301    .text:00000000000000f8 .L0 
     /tmp/ccoirrXF.s:303    .text:00000000000000fc .L0 
     /tmp/ccoirrXF.s:319    .text:000000000000010c .L0 
     /tmp/ccoirrXF.s:322    .text:0000000000000114 .L0 
     /tmp/ccoirrXF.s:323    .text:0000000000000114 .L0 
     /tmp/ccoirrXF.s:329    .text:0000000000000130 .L0 
     /tmp/ccoirrXF.s:331    .text:0000000000000134 .L0 
     /tmp/ccoirrXF.s:333    .text:0000000000000138 .L0 
     /tmp/ccoirrXF.s:335    .text:000000000000013c .L0 
     /tmp/ccoirrXF.s:337    .text:0000000000000140 .L0 
     /tmp/ccoirrXF.s:338    .text:0000000000000140 .L0 
     /tmp/ccoirrXF.s:340    .text:0000000000000144 .L0 
     /tmp/ccoirrXF.s:342    .text:0000000000000148 .L0 
GAS LISTING /tmp/ccoirrXF.s 			page 18


     /tmp/ccoirrXF.s:343    .text:0000000000000148 .L0 
     /tmp/ccoirrXF.s:345    .text:000000000000014c .L0 
     /tmp/ccoirrXF.s:350    .text:0000000000000158 .L0 
     /tmp/ccoirrXF.s:352    .text:000000000000015c .L0 
     /tmp/ccoirrXF.s:354    .text:0000000000000164 .L0 
     /tmp/ccoirrXF.s:355    .text:0000000000000164 .L0 
     /tmp/ccoirrXF.s:357    .text:0000000000000168 .L0 
     /tmp/ccoirrXF.s:360    .text:000000000000016c .L0 
     /tmp/ccoirrXF.s:361    .text:000000000000016c .L0 
     /tmp/ccoirrXF.s:363    .text:0000000000000170 .L0 
     /tmp/ccoirrXF.s:364    .text:0000000000000170 .L0 
     /tmp/ccoirrXF.s:366    .text:0000000000000174 .L0 
     /tmp/ccoirrXF.s:367    .text:0000000000000174 .L0 
     /tmp/ccoirrXF.s:374    .text:0000000000000178 .L0 
     /tmp/ccoirrXF.s:384    .text:0000000000000188 .L0 
     /tmp/ccoirrXF.s:387    .text:000000000000018c .L0 
     /tmp/ccoirrXF.s:388    .text:0000000000000190 .L0 
     /tmp/ccoirrXF.s:389    .text:0000000000000190 .L0 
     /tmp/ccoirrXF.s:391    .text:0000000000000194 .L0 
     /tmp/ccoirrXF.s:392    .text:0000000000000194 .L0 
     /tmp/ccoirrXF.s:394    .text:0000000000000198 .L0 
     /tmp/ccoirrXF.s:396    .text:000000000000019c .L0 
     /tmp/ccoirrXF.s:399    .text:00000000000001a0 .L0 
     /tmp/ccoirrXF.s:403    .text:00000000000001a4 .L0 
     /tmp/ccoirrXF.s:408    .text:00000000000001a8 .L0 
     /tmp/ccoirrXF.s:419    .text:00000000000001c4 .L0 
     /tmp/ccoirrXF.s:427    .text:00000000000001dc .L0 
     /tmp/ccoirrXF.s:138    .text:0000000000000000 _ZN7ConsoleC1Ev
     /tmp/ccoirrXF.s:462    .text:00000000000001dc _ZN7Console12put_in_inputEc
     /tmp/ccoirrXF.s:465    .text:00000000000001dc .L0 
     /tmp/ccoirrXF.s:467    .text:00000000000001dc .L0 
     /tmp/ccoirrXF.s:468    .text:00000000000001e0 .L0 
     /tmp/ccoirrXF.s:471    .text:00000000000001e8 .L0 
     /tmp/ccoirrXF.s:472    .text:00000000000001e8 .L0 
     /tmp/ccoirrXF.s:474    .text:00000000000001ec .L0 
     /tmp/ccoirrXF.s:476    .text:00000000000001ec .L0 
     /tmp/ccoirrXF.s:477    .text:00000000000001ec .L0 
     /tmp/ccoirrXF.s:482    .text:00000000000001f8 .L0 
     /tmp/ccoirrXF.s:483    .text:00000000000001fc .L0 
     /tmp/ccoirrXF.s:485    .text:0000000000000200 .L0 
     /tmp/ccoirrXF.s:486    .text:0000000000000200 .L0 
     /tmp/ccoirrXF.s:488    .text:0000000000000204 .L0 
     /tmp/ccoirrXF.s:490    .text:0000000000000208 .L0 
     /tmp/ccoirrXF.s:496    .text:0000000000000208 _ZN7Console14get_from_inputEv
     /tmp/ccoirrXF.s:499    .text:0000000000000208 .L0 
     /tmp/ccoirrXF.s:501    .text:0000000000000208 .L0 
     /tmp/ccoirrXF.s:502    .text:000000000000020c .L0 
     /tmp/ccoirrXF.s:505    .text:0000000000000214 .L0 
     /tmp/ccoirrXF.s:506    .text:0000000000000214 .L0 
     /tmp/ccoirrXF.s:508    .text:0000000000000218 .L0 
     /tmp/ccoirrXF.s:510    .text:0000000000000218 .L0 
     /tmp/ccoirrXF.s:511    .text:0000000000000218 .L0 
     /tmp/ccoirrXF.s:516    .text:0000000000000224 .L0 
     /tmp/ccoirrXF.s:518    .text:000000000000022c .L0 
     /tmp/ccoirrXF.s:520    .text:0000000000000230 .L0 
     /tmp/ccoirrXF.s:521    .text:0000000000000230 .L0 
     /tmp/ccoirrXF.s:523    .text:0000000000000234 .L0 
GAS LISTING /tmp/ccoirrXF.s 			page 19


     /tmp/ccoirrXF.s:525    .text:0000000000000238 .L0 
     /tmp/ccoirrXF.s:531    .text:0000000000000238 _ZN7Console13put_in_outputEc
     /tmp/ccoirrXF.s:534    .text:0000000000000238 .L0 
     /tmp/ccoirrXF.s:536    .text:0000000000000238 .L0 
     /tmp/ccoirrXF.s:537    .text:000000000000023c .L0 
     /tmp/ccoirrXF.s:540    .text:0000000000000244 .L0 
     /tmp/ccoirrXF.s:541    .text:0000000000000244 .L0 
     /tmp/ccoirrXF.s:543    .text:0000000000000248 .L0 
     /tmp/ccoirrXF.s:545    .text:0000000000000248 .L0 
     /tmp/ccoirrXF.s:546    .text:0000000000000248 .L0 
     /tmp/ccoirrXF.s:551    .text:0000000000000254 .L0 
     /tmp/ccoirrXF.s:552    .text:0000000000000258 .L0 
     /tmp/ccoirrXF.s:554    .text:000000000000025c .L0 
     /tmp/ccoirrXF.s:555    .text:000000000000025c .L0 
     /tmp/ccoirrXF.s:557    .text:0000000000000260 .L0 
     /tmp/ccoirrXF.s:559    .text:0000000000000264 .L0 
     /tmp/ccoirrXF.s:565    .text:0000000000000264 _ZN7Console15get_from_outputEv
     /tmp/ccoirrXF.s:568    .text:0000000000000264 .L0 
     /tmp/ccoirrXF.s:570    .text:0000000000000264 .L0 
     /tmp/ccoirrXF.s:571    .text:0000000000000268 .L0 
     /tmp/ccoirrXF.s:574    .text:0000000000000270 .L0 
     /tmp/ccoirrXF.s:575    .text:0000000000000270 .L0 
     /tmp/ccoirrXF.s:577    .text:0000000000000274 .L0 
     /tmp/ccoirrXF.s:579    .text:0000000000000274 .L0 
     /tmp/ccoirrXF.s:580    .text:0000000000000274 .L0 
     /tmp/ccoirrXF.s:585    .text:0000000000000280 .L0 
     /tmp/ccoirrXF.s:587    .text:0000000000000288 .L0 
     /tmp/ccoirrXF.s:589    .text:000000000000028c .L0 
     /tmp/ccoirrXF.s:590    .text:000000000000028c .L0 
     /tmp/ccoirrXF.s:592    .text:0000000000000290 .L0 
     /tmp/ccoirrXF.s:594    .text:0000000000000294 .L0 
     /tmp/ccoirrXF.s:134    .text._ZN8MyBufferdlEPv:00000000000000bc .L0 
     /tmp/ccoirrXF.s:616    .text:0000000000000294 .L0 
     /tmp/ccoirrXF.s:170    .text:000000000000001c .L0 
     /tmp/ccoirrXF.s:178    .text:000000000000002c .L0 
     /tmp/ccoirrXF.s:207    .text:0000000000000054 .L0 
     /tmp/ccoirrXF.s:211    .text:000000000000005c .L0 
     /tmp/ccoirrXF.s:213    .text:0000000000000068 .L0 
     /tmp/ccoirrXF.s:240    .text:00000000000000a4 .L0 
     /tmp/ccoirrXF.s:263    .text:00000000000000c4 .L0 
     /tmp/ccoirrXF.s:283    .text:00000000000000d4 .L0 
     /tmp/ccoirrXF.s:291    .text:00000000000000e4 .L0 
     /tmp/ccoirrXF.s:319    .text:000000000000010c .L0 
     /tmp/ccoirrXF.s:323    .text:0000000000000114 .L0 
     /tmp/ccoirrXF.s:325    .text:0000000000000120 .L0 
     /tmp/ccoirrXF.s:352    .text:000000000000015c .L0 
     /tmp/ccoirrXF.s:375    .text:000000000000017c .L0 
     /tmp/ccoirrXF.s:198    .text:0000000000000054 .L19
     /tmp/ccoirrXF.s:266    .text:00000000000000d0 .L9
     /tmp/ccoirrXF.s:236    .text:00000000000000a0 .L8
     /tmp/ccoirrXF.s:172    .text:0000000000000028 .L7
     /tmp/ccoirrXF.s:310    .text:000000000000010c .L20
     /tmp/ccoirrXF.s:378    .text:0000000000000188 .L12
     /tmp/ccoirrXF.s:348    .text:0000000000000158 .L11
     /tmp/ccoirrXF.s:285    .text:00000000000000e0 .L10
     /tmp/ccoirrXF.s:33     .text._ZN8MyBufferdlEPv:0000000000000014 .L0 
     /tmp/ccoirrXF.s:40     .text._ZN8MyBufferdlEPv:0000000000000020 .L0 
GAS LISTING /tmp/ccoirrXF.s 			page 20


     /tmp/ccoirrXF.s:63     .text._ZN8MyBufferdlEPv:0000000000000040 .L0 
     /tmp/ccoirrXF.s:67     .text._ZN8MyBufferdlEPv:0000000000000048 .L0 
     /tmp/ccoirrXF.s:69     .text._ZN8MyBufferdlEPv:0000000000000054 .L0 
     /tmp/ccoirrXF.s:96     .text._ZN8MyBufferdlEPv:0000000000000090 .L0 
     /tmp/ccoirrXF.s:119    .text._ZN8MyBufferdlEPv:00000000000000b0 .L0 
     /tmp/ccoirrXF.s:55     .text._ZN8MyBufferdlEPv:0000000000000040 .L5
     /tmp/ccoirrXF.s:92     .text._ZN8MyBufferdlEPv:000000000000008c .L3
     /tmp/ccoirrXF.s:35     .text._ZN8MyBufferdlEPv:0000000000000020 .L2
     /tmp/ccoirrXF.s:180    .text:0000000000000034 .LEHB0
     /tmp/ccoirrXF.s:139    .text:0000000000000000 .LFB26
     /tmp/ccoirrXF.s:183    .text:000000000000003c .LEHE0
     /tmp/ccoirrXF.s:192    .text:0000000000000048 .LEHB1
     /tmp/ccoirrXF.s:195    .text:0000000000000050 .LEHE1
     /tmp/ccoirrXF.s:402    .text:00000000000001a4 .L15
     /tmp/ccoirrXF.s:292    .text:00000000000000ec .LEHB2
     /tmp/ccoirrXF.s:295    .text:00000000000000f4 .LEHE2
     /tmp/ccoirrXF.s:304    .text:0000000000000100 .LEHB3
     /tmp/ccoirrXF.s:307    .text:0000000000000108 .LEHE3
     /tmp/ccoirrXF.s:415    .text:00000000000001c0 .L16
     /tmp/ccoirrXF.s:412    .text:00000000000001b8 .LEHB4
     /tmp/ccoirrXF.s:425    .text:00000000000001dc .LEHE4
     /tmp/ccoirrXF.s:2014   .debug_abbrev:0000000000000000 .Ldebug_abbrev0
     /tmp/ccoirrXF.s:3284   .debug_str:000000000000019b .LASF119
     /tmp/ccoirrXF.s:3310   .debug_str:000000000000033e .LASF120
     /tmp/ccoirrXF.s:3330   .debug_str:0000000000000402 .LASF121
     /tmp/ccoirrXF.s:3202   .debug_ranges:0000000000000000 .Ldebug_ranges0
     /tmp/ccoirrXF.s:3240   .debug_line:0000000000000000 .Ldebug_line0
     /tmp/ccoirrXF.s:3378   .debug_str:00000000000005bc .LASF0
     /tmp/ccoirrXF.s:3396   .debug_str:000000000000065a .LASF1
     /tmp/ccoirrXF.s:3362   .debug_str:000000000000054f .LASF2
     /tmp/ccoirrXF.s:3340   .debug_str:0000000000000490 .LASF4
     /tmp/ccoirrXF.s:3444   .debug_str:000000000000080d .LASF3
     /tmp/ccoirrXF.s:3262   .debug_str:00000000000000c7 .LASF5
     /tmp/ccoirrXF.s:3398   .debug_str:000000000000066d .LASF6
     /tmp/ccoirrXF.s:3376   .debug_str:00000000000005a9 .LASF7
     /tmp/ccoirrXF.s:3472   .debug_str:00000000000008e2 .LASF8
     /tmp/ccoirrXF.s:3328   .debug_str:00000000000003f4 .LASF9
     /tmp/ccoirrXF.s:3414   .debug_str:00000000000006ef .LASF10
     /tmp/ccoirrXF.s:3274   .debug_str:000000000000012f .LASF11
     /tmp/ccoirrXF.s:3460   .debug_str:000000000000087a .LASF12
     /tmp/ccoirrXF.s:3266   .debug_str:00000000000000d6 .LASF13
     /tmp/ccoirrXF.s:3244   .debug_str:0000000000000011 .LASF14
     /tmp/ccoirrXF.s:3278   .debug_str:000000000000016b .LASF15
     /tmp/ccoirrXF.s:3432   .debug_str:0000000000000786 .LASF16
     /tmp/ccoirrXF.s:3292   .debug_str:00000000000002b9 .LASF17
     /tmp/ccoirrXF.s:3358   .debug_str:0000000000000530 .LASF21
     /tmp/ccoirrXF.s:3320   .debug_str:0000000000000391 .LASF122
     /tmp/ccoirrXF.s:3454   .debug_str:000000000000085f .LASF18
     /tmp/ccoirrXF.s:3498   .debug_str:00000000000009ec .LASF19
     /tmp/ccoirrXF.s:3486   .debug_str:0000000000000976 .LASF20
     /tmp/ccoirrXF.s:3458   .debug_str:000000000000086e .LASF93
     /tmp/ccoirrXF.s:3260   .debug_str:00000000000000a3 .LASF94
     /tmp/ccoirrXF.s:3468   .debug_str:00000000000008bb .LASF23
     /tmp/ccoirrXF.s:3372   .debug_str:000000000000058e .LASF22
     /tmp/ccoirrXF.s:3352   .debug_str:0000000000000500 .LASF24
     /tmp/ccoirrXF.s:3300   .debug_str:00000000000002f3 .LASF25
     /tmp/ccoirrXF.s:3418   .debug_str:0000000000000706 .LASF26
GAS LISTING /tmp/ccoirrXF.s 			page 21


     /tmp/ccoirrXF.s:3424   .debug_str:000000000000073f .LASF27
     /tmp/ccoirrXF.s:3402   .debug_str:0000000000000690 .LASF28
     /tmp/ccoirrXF.s:3344   .debug_str:00000000000004b2 .LASF29
     /tmp/ccoirrXF.s:3276   .debug_str:000000000000013a .LASF30
     /tmp/ccoirrXF.s:3436   .debug_str:00000000000007ac .LASF31
     /tmp/ccoirrXF.s:3338   .debug_str:0000000000000461 .LASF32
     /tmp/ccoirrXF.s:3412   .debug_str:00000000000006e5 .LASF33
     /tmp/ccoirrXF.s:3346   .debug_str:00000000000004cb .LASF34
     /tmp/ccoirrXF.s:3250   .debug_str:0000000000000055 .LASF35
     /tmp/ccoirrXF.s:3302   .debug_str:0000000000000300 .LASF90
     /tmp/ccoirrXF.s:3422   .debug_str:0000000000000733 .LASF36
     /tmp/ccoirrXF.s:3474   .debug_str:00000000000008f2 .LASF37
     /tmp/ccoirrXF.s:3488   .debug_str:000000000000097b .LASF39
     /tmp/ccoirrXF.s:3314   .debug_str:0000000000000361 .LASF38
     /tmp/ccoirrXF.s:3476   .debug_str:00000000000008ff .LASF40
     /tmp/ccoirrXF.s:3452   .debug_str:0000000000000855 .LASF41
     /tmp/ccoirrXF.s:3248   .debug_str:0000000000000036 .LASF42
     /tmp/ccoirrXF.s:3282   .debug_str:0000000000000192 .LASF43
     /tmp/ccoirrXF.s:3256   .debug_str:000000000000007e .LASF44
     /tmp/ccoirrXF.s:3470   .debug_str:00000000000008d7 .LASF45
     /tmp/ccoirrXF.s:3496   .debug_str:00000000000009cb .LASF46
     /tmp/ccoirrXF.s:3334   .debug_str:0000000000000444 .LASF47
     /tmp/ccoirrXF.s:3494   .debug_str:00000000000009a4 .LASF48
     /tmp/ccoirrXF.s:3464   .debug_str:000000000000089c .LASF49
     /tmp/ccoirrXF.s:3484   .debug_str:0000000000000951 .LASF50
     /tmp/ccoirrXF.s:3308   .debug_str:0000000000000338 .LASF51
     /tmp/ccoirrXF.s:3370   .debug_str:0000000000000575 .LASF52
     /tmp/ccoirrXF.s:3264   .debug_str:00000000000000ce .LASF53
     /tmp/ccoirrXF.s:3280   .debug_str:0000000000000177 .LASF54
     /tmp/ccoirrXF.s:3410   .debug_str:00000000000006d7 .LASF55
     /tmp/ccoirrXF.s:3288   .debug_str:000000000000027e .LASF56
     /tmp/ccoirrXF.s:3466   .debug_str:00000000000008ad .LASF57
     /tmp/ccoirrXF.s:3316   .debug_str:000000000000036a .LASF58
     /tmp/ccoirrXF.s:3416   .debug_str:00000000000006fe .LASF59
     /tmp/ccoirrXF.s:3322   .debug_str:0000000000000399 .LASF60
     /tmp/ccoirrXF.s:3420   .debug_str:000000000000072b .LASF61
     /tmp/ccoirrXF.s:3342   .debug_str:0000000000000497 .LASF62
     /tmp/ccoirrXF.s:3272   .debug_str:0000000000000122 .LASF63
     /tmp/ccoirrXF.s:3246   .debug_str:0000000000000021 .LASF64
     /tmp/ccoirrXF.s:3326   .debug_str:00000000000003e4 .LASF65
     /tmp/ccoirrXF.s:3390   .debug_str:0000000000000626 .LASF66
     /tmp/ccoirrXF.s:3448   .debug_str:0000000000000832 .LASF67
     /tmp/ccoirrXF.s:3384   .debug_str:00000000000005fd .LASF69
     /tmp/ccoirrXF.s:3450   .debug_str:0000000000000842 .LASF68
     /tmp/ccoirrXF.s:3428   .debug_str:0000000000000769 .LASF70
     /tmp/ccoirrXF.s:3406   .debug_str:00000000000006ba .LASF71
     /tmp/ccoirrXF.s:3354   .debug_str:000000000000051c .LASF72
     /tmp/ccoirrXF.s:3298   .debug_str:00000000000002ee .LASF73
     /tmp/ccoirrXF.s:3368   .debug_str:0000000000000570 .LASF74
     /tmp/ccoirrXF.s:3318   .debug_str:000000000000038c .LASF75
     /tmp/ccoirrXF.s:3480   .debug_str:0000000000000938 .LASF76
     /tmp/ccoirrXF.s:3430   .debug_str:000000000000077f .LASF77
     /tmp/ccoirrXF.s:3360   .debug_str:0000000000000540 .LASF78
     /tmp/ccoirrXF.s:3332   .debug_str:0000000000000436 .LASF79
     /tmp/ccoirrXF.s:3356   .debug_str:0000000000000526 .LASF80
     /tmp/ccoirrXF.s:3386   .debug_str:0000000000000613 .LASF81
     /tmp/ccoirrXF.s:3242   .debug_str:0000000000000000 .LASF82
GAS LISTING /tmp/ccoirrXF.s 			page 22


     /tmp/ccoirrXF.s:3456   .debug_str:0000000000000864 .LASF83
     /tmp/ccoirrXF.s:3374   .debug_str:0000000000000598 .LASF84
     /tmp/ccoirrXF.s:3286   .debug_str:000000000000026b .LASF123
     /tmp/ccoirrXF.s:3312   .debug_str:000000000000034e .LASF124
     /tmp/ccoirrXF.s:3258   .debug_str:000000000000009c .LASF85
     /tmp/ccoirrXF.s:3382   .debug_str:00000000000005e7 .LASF86
     /tmp/ccoirrXF.s:3502   .debug_str:0000000000000a0c .LASF87
     /tmp/ccoirrXF.s:3304   .debug_str:0000000000000319 .LASF88
     /tmp/ccoirrXF.s:3252   .debug_str:000000000000005d .LASF89
     /tmp/ccoirrXF.s:3294   .debug_str:00000000000002cf .LASF91
     /tmp/ccoirrXF.s:3408   .debug_str:00000000000006cf .LASF92
     /tmp/ccoirrXF.s:3500   .debug_str:00000000000009f1 .LASF95
     /tmp/ccoirrXF.s:3446   .debug_str:000000000000081f .LASF96
     /tmp/ccoirrXF.s:3462   .debug_str:0000000000000889 .LASF97
     /tmp/ccoirrXF.s:3364   .debug_str:000000000000055d .LASF98
     /tmp/ccoirrXF.s:3350   .debug_str:00000000000004e4 .LASF99
     /tmp/ccoirrXF.s:3394   .debug_str:000000000000064b .LASF100
     /tmp/ccoirrXF.s:3426   .debug_str:000000000000074b .LASF101
     /tmp/ccoirrXF.s:3306   .debug_str:000000000000032a .LASF102
     /tmp/ccoirrXF.s:3268   .debug_str:00000000000000e6 .LASF103
     /tmp/ccoirrXF.s:3400   .debug_str:0000000000000680 .LASF104
     /tmp/ccoirrXF.s:3442   .debug_str:00000000000007ee .LASF105
     /tmp/ccoirrXF.s:3392   .debug_str:000000000000063b .LASF106
     /tmp/ccoirrXF.s:3270   .debug_str:0000000000000103 .LASF107
     /tmp/ccoirrXF.s:3254   .debug_str:000000000000006f .LASF108
     /tmp/ccoirrXF.s:3380   .debug_str:00000000000005c9 .LASF109
     /tmp/ccoirrXF.s:3490   .debug_str:0000000000000990 .LASF110
     /tmp/ccoirrXF.s:3440   .debug_str:00000000000007d0 .LASF111
     /tmp/ccoirrXF.s:3434   .debug_str:000000000000079c .LASF112
     /tmp/ccoirrXF.s:3296   .debug_str:00000000000002e1 .LASF113
     /tmp/ccoirrXF.s:3336   .debug_str:0000000000000453 .LASF114
     /tmp/ccoirrXF.s:3404   .debug_str:00000000000006b5 .LASF115
     /tmp/ccoirrXF.s:566    .text:0000000000000264 .LFB31
     /tmp/ccoirrXF.s:595    .text:0000000000000294 .LFE31
     /tmp/ccoirrXF.s:3492   .debug_str:000000000000099f .LASF116
     /tmp/ccoirrXF.s:2929   .debug_loc:0000000000000000 .LLST17
     /tmp/ccoirrXF.s:583    .text:0000000000000280 .LVL43
     /tmp/ccoirrXF.s:532    .text:0000000000000238 .LFB30
     /tmp/ccoirrXF.s:560    .text:0000000000000264 .LFE30
     /tmp/ccoirrXF.s:2943   .debug_loc:0000000000000039 .LLST15
     /tmp/ccoirrXF.s:2957   .debug_loc:0000000000000072 .LLST16
     /tmp/ccoirrXF.s:549    .text:0000000000000254 .LVL40
     /tmp/ccoirrXF.s:497    .text:0000000000000208 .LFB29
     /tmp/ccoirrXF.s:526    .text:0000000000000238 .LFE29
     /tmp/ccoirrXF.s:2971   .debug_loc:00000000000000ab .LLST14
     /tmp/ccoirrXF.s:514    .text:0000000000000224 .LVL37
     /tmp/ccoirrXF.s:463    .text:00000000000001dc .LFB28
     /tmp/ccoirrXF.s:491    .text:0000000000000208 .LFE28
     /tmp/ccoirrXF.s:2985   .debug_loc:00000000000000e4 .LLST12
     /tmp/ccoirrXF.s:2999   .debug_loc:000000000000011d .LLST13
     /tmp/ccoirrXF.s:480    .text:00000000000001f8 .LVL34
     /tmp/ccoirrXF.s:3482   .debug_str:0000000000000941 .LASF125
     /tmp/ccoirrXF.s:428    .text:00000000000001dc .LFE26
     /tmp/ccoirrXF.s:3013   .debug_loc:0000000000000156 .LLST3
     /tmp/ccoirrXF.s:162    .text:000000000000001c .LBB38
     /tmp/ccoirrXF.s:3061   .debug_loc:000000000000021a .LLST4
     /tmp/ccoirrXF.s:3076   .debug_loc:0000000000000254 .LLST5
GAS LISTING /tmp/ccoirrXF.s 			page 23


     /tmp/ccoirrXF.s:166    .text:000000000000001c .LBB40
     /tmp/ccoirrXF.s:203    .text:0000000000000054 .LBB42
     /tmp/ccoirrXF.s:260    .text:00000000000000c0 .LBE42
     /tmp/ccoirrXF.s:3089   .debug_loc:000000000000028c .LLST6
     /tmp/ccoirrXF.s:208    .text:000000000000005c .LBB45
     /tmp/ccoirrXF.s:257    .text:00000000000000c0 .LBE45
     /tmp/ccoirrXF.s:3098   .debug_loc:00000000000002b8 .LLST7
     /tmp/ccoirrXF.s:182    .text:000000000000003c .LVL9
     /tmp/ccoirrXF.s:275    .text:00000000000000d4 .LBB50
     /tmp/ccoirrXF.s:3105   .debug_loc:00000000000002db .LLST8
     /tmp/ccoirrXF.s:3120   .debug_loc:0000000000000315 .LLST9
     /tmp/ccoirrXF.s:279    .text:00000000000000d4 .LBB52
     /tmp/ccoirrXF.s:315    .text:000000000000010c .LBB54
     /tmp/ccoirrXF.s:372    .text:0000000000000178 .LBE54
     /tmp/ccoirrXF.s:3133   .debug_loc:000000000000034d .LLST10
     /tmp/ccoirrXF.s:320    .text:0000000000000114 .LBB57
     /tmp/ccoirrXF.s:369    .text:0000000000000178 .LBE57
     /tmp/ccoirrXF.s:3142   .debug_loc:0000000000000379 .LLST11
     /tmp/ccoirrXF.s:294    .text:00000000000000f4 .LVL17
     /tmp/ccoirrXF.s:194    .text:0000000000000050 .LVL11
     /tmp/ccoirrXF.s:306    .text:0000000000000108 .LVL19
     /tmp/ccoirrXF.s:410    .text:00000000000001b4 .LVL27
     /tmp/ccoirrXF.s:414    .text:00000000000001c0 .LVL28
     /tmp/ccoirrXF.s:421    .text:00000000000001d0 .LVL30
     /tmp/ccoirrXF.s:424    .text:00000000000001dc .LVL31
     /tmp/ccoirrXF.s:11     .text._ZN8MyBufferdlEPv:0000000000000000 .LFB19
     /tmp/ccoirrXF.s:124    .text._ZN8MyBufferdlEPv:00000000000000bc .LFE19
     /tmp/ccoirrXF.s:3149   .debug_loc:000000000000039c .LLST0
     /tmp/ccoirrXF.s:28     .text._ZN8MyBufferdlEPv:0000000000000014 .LBB12
     /tmp/ccoirrXF.s:59     .text._ZN8MyBufferdlEPv:0000000000000040 .LBB14
     /tmp/ccoirrXF.s:116    .text._ZN8MyBufferdlEPv:00000000000000ac .LBE14
     /tmp/ccoirrXF.s:3171   .debug_loc:00000000000003fb .LLST1
     /tmp/ccoirrXF.s:64     .text._ZN8MyBufferdlEPv:0000000000000048 .LBB17
     /tmp/ccoirrXF.s:113    .text._ZN8MyBufferdlEPv:00000000000000ac .LBE17
     /tmp/ccoirrXF.s:3180   .debug_loc:0000000000000427 .LLST2
     /tmp/ccoirrXF.s:43     .text._ZN8MyBufferdlEPv:0000000000000030 .LVL2
     /tmp/ccoirrXF.s:3366   .debug_str:000000000000056a .LASF117
     /tmp/ccoirrXF.s:3438   .debug_str:00000000000007c3 .LASF118
     /tmp/ccoirrXF.s:3478   .debug_str:000000000000091f .LASF126
     /tmp/ccoirrXF.s:3388   .debug_str:000000000000061d .LASF127
     /tmp/ccoirrXF.s:3324   .debug_str:00000000000003b5 .LASF128
     /tmp/ccoirrXF.s:3348   .debug_str:00000000000004d5 .LASF129
     /tmp/ccoirrXF.s:3290   .debug_str:00000000000002a1 .LASF130
     /tmp/ccoirrXF.s:569    .text:0000000000000264 .LVL41
     /tmp/ccoirrXF.s:581    .text:0000000000000278 .LVL42
     /tmp/ccoirrXF.s:535    .text:0000000000000238 .LVL38
     /tmp/ccoirrXF.s:547    .text:000000000000024c .LVL39
     /tmp/ccoirrXF.s:500    .text:0000000000000208 .LVL35
     /tmp/ccoirrXF.s:512    .text:000000000000021c .LVL36
     /tmp/ccoirrXF.s:466    .text:00000000000001dc .LVL32
     /tmp/ccoirrXF.s:478    .text:00000000000001f0 .LVL33
     /tmp/ccoirrXF.s:145    .text:0000000000000000 .LVL6
     /tmp/ccoirrXF.s:179    .text:0000000000000034 .LVL8
     /tmp/ccoirrXF.s:197    .text:0000000000000054 .LVL12
     /tmp/ccoirrXF.s:265    .text:00000000000000d0 .LVL15
     /tmp/ccoirrXF.s:397    .text:000000000000019c .LVL24
     /tmp/ccoirrXF.s:401    .text:00000000000001a4 .LVL25
GAS LISTING /tmp/ccoirrXF.s 			page 24


     /tmp/ccoirrXF.s:405    .text:00000000000001a8 .LVL26
     /tmp/ccoirrXF.s:417    .text:00000000000001c4 .LVL29
     /tmp/ccoirrXF.s:161    .text:000000000000001c .LVL7
     /tmp/ccoirrXF.s:185    .text:0000000000000040 .LVL10
     /tmp/ccoirrXF.s:256    .text:00000000000000c0 .LVL14
     /tmp/ccoirrXF.s:246    .text:00000000000000b4 .LVL13
     /tmp/ccoirrXF.s:274    .text:00000000000000d4 .LVL16
     /tmp/ccoirrXF.s:297    .text:00000000000000f8 .LVL18
     /tmp/ccoirrXF.s:309    .text:000000000000010c .LVL20
     /tmp/ccoirrXF.s:377    .text:0000000000000188 .LVL23
     /tmp/ccoirrXF.s:368    .text:0000000000000178 .LVL22
     /tmp/ccoirrXF.s:358    .text:000000000000016c .LVL21
     /tmp/ccoirrXF.s:17     .text._ZN8MyBufferdlEPv:0000000000000000 .LVL0
     /tmp/ccoirrXF.s:41     .text._ZN8MyBufferdlEPv:0000000000000028 .LVL1
     /tmp/ccoirrXF.s:54     .text._ZN8MyBufferdlEPv:0000000000000040 .LVL3
     /tmp/ccoirrXF.s:112    .text._ZN8MyBufferdlEPv:00000000000000ac .LVL5
     /tmp/ccoirrXF.s:102    .text._ZN8MyBufferdlEPv:00000000000000a0 .LVL4
     /tmp/ccoirrXF.s:617    .debug_info:0000000000000000 .Ldebug_info0
     /tmp/ccoirrXF.s:5      .text:0000000000000000 .Ltext0
     /tmp/ccoirrXF.s:612    .text:0000000000000294 .Letext0
     /tmp/ccoirrXF.s:38     .text._ZN8MyBufferdlEPv:0000000000000020 .LBE12
     /tmp/ccoirrXF.s:57     .text._ZN8MyBufferdlEPv:0000000000000040 .LBB19
     /tmp/ccoirrXF.s:122    .text._ZN8MyBufferdlEPv:00000000000000bc .LBE19
     /tmp/ccoirrXF.s:187    .text:0000000000000040 .LBE38
     /tmp/ccoirrXF.s:199    .text:0000000000000054 .LBB49
     /tmp/ccoirrXF.s:270    .text:00000000000000d0 .LBE49
     /tmp/ccoirrXF.s:175    .text:0000000000000028 .LBE40
     /tmp/ccoirrXF.s:201    .text:0000000000000054 .LBB47
     /tmp/ccoirrXF.s:268    .text:00000000000000d0 .LBE47
     /tmp/ccoirrXF.s:299    .text:00000000000000f8 .LBE50
     /tmp/ccoirrXF.s:311    .text:000000000000010c .LBB61
     /tmp/ccoirrXF.s:382    .text:0000000000000188 .LBE61
     /tmp/ccoirrXF.s:288    .text:00000000000000e0 .LBE52
     /tmp/ccoirrXF.s:313    .text:000000000000010c .LBB59
     /tmp/ccoirrXF.s:380    .text:0000000000000188 .LBE59
     /tmp/ccoirrXF.s:127    .gcc_except_table._ZN8MyBufferdlEPv:0000000000000000 .LLSDA19
     /tmp/ccoirrXF.s:430    .gcc_except_table:0000000000000000 .LLSDA26

UNDEFINED SYMBOLS
_ZN15MemoryAllocator11memory_freeEPv
HEAP_END_ADDR
HEAP_START_ADDR
__gxx_personality_v0
_ZN15MemoryAllocator12memory_allocEm
_ZN8MyBufferC1Ei
_Unwind_Resume
_ZN8MyBuffer3putEi
_ZN8MyBuffer3getEv
