GAS LISTING /tmp/ccOicyt0.s 			page 1


   1              		.file	"console.cpp"
   2              		.option pic
   3              		.option norelax
   4              		.text
   5              	.Ltext0:
   6              		.align	2
   7              		.globl	_ZN7Console13console_setupEPv
   9              	_ZN7Console13console_setupEPv:
  10              	.LFB26:
  11              		.file 1 "src/console.cpp"
   1:src/console.cpp **** 
   2:src/console.cpp **** #include "../h/console.hpp"
   3:src/console.cpp **** 
   4:src/console.cpp **** Console* Console::console_instance = nullptr;
   5:src/console.cpp **** kmem_cache_t * Console::console_cache = nullptr;
   6:src/console.cpp **** 
   7:src/console.cpp **** void Console::put_in_input(char c){
   8:src/console.cpp ****     input_buffer->put(c);
   9:src/console.cpp **** }
  10:src/console.cpp **** 
  11:src/console.cpp **** char Console::get_from_input(){
  12:src/console.cpp ****     return (char)input_buffer->get();
  13:src/console.cpp **** }
  14:src/console.cpp **** 
  15:src/console.cpp **** void Console::put_in_output(char c){
  16:src/console.cpp ****     output_buffer->put(c);
  17:src/console.cpp **** }
  18:src/console.cpp **** char Console::get_from_output(){
  19:src/console.cpp ****     return (char)output_buffer->get();
  20:src/console.cpp **** }
  21:src/console.cpp **** 
  22:src/console.cpp **** Console &Console::getInstance() {
  23:src/console.cpp ****     if(!console_instance){
  24:src/console.cpp ****         console_cache = (kmem_cache_t*) kmem_cache_create("console_cache", sizeof(Console), &consol
  25:src/console.cpp ****         console_instance = (Console*)kmem_cache_alloc(console_cache);
  26:src/console.cpp ****     }
  27:src/console.cpp ****     return *console_instance;
  28:src/console.cpp **** 
  29:src/console.cpp **** }
  30:src/console.cpp **** 
  31:src/console.cpp **** void Console::console_setup(void *myConsole) {
  12              		.loc 1 31 46
  13              		.cfi_startproc
  14              	.LVL0:
  15 0000 130101FE 		addi	sp,sp,-32
  16              		.cfi_def_cfa_offset 32
  17 0004 233C1100 		sd	ra,24(sp)
  18 0008 23388100 		sd	s0,16(sp)
  19 000c 23349100 		sd	s1,8(sp)
  20              		.cfi_offset 1, -8
  21              		.cfi_offset 8, -16
  22              		.cfi_offset 9, -24
  23 0010 13040102 		addi	s0,sp,32
  24              		.cfi_def_cfa 8, 0
  25 0014 93040500 		mv	s1,a0
  32:src/console.cpp ****     auto* cons = (Console*)myConsole;
  26              		.loc 1 32 5
GAS LISTING /tmp/ccOicyt0.s 			page 2


  27              	.LVL1:
  33:src/console.cpp ****     cons->input_buffer = (MyBuffer*)kmem_cache_alloc(MyBuffer::get_buffer_cache());
  28              		.loc 1 33 5
  29              		.loc 1 33 81 is_stmt 0
  30 0018 97000000 		call	_ZN8MyBuffer16get_buffer_cacheEv@plt
  30      E7800000 
  31              	.LVL2:
  32              		.loc 1 33 53
  33 0020 03350500 		ld	a0,0(a0)
  34 0024 97000000 		call	_Z16kmem_cache_allocP12kmem_cache_s@plt
  34      E7800000 
  35              	.LVL3:
  36              		.loc 1 33 24
  37 002c 23B0A400 		sd	a0,0(s1)
  34:src/console.cpp ****     cons->output_buffer = (MyBuffer*) kmem_cache_alloc(MyBuffer::get_buffer_cache());
  38              		.loc 1 34 5 is_stmt 1
  39              		.loc 1 34 83 is_stmt 0
  40 0030 97000000 		call	_ZN8MyBuffer16get_buffer_cacheEv@plt
  40      E7800000 
  41              	.LVL4:
  42              		.loc 1 34 55
  43 0038 03350500 		ld	a0,0(a0)
  44 003c 97000000 		call	_Z16kmem_cache_allocP12kmem_cache_s@plt
  44      E7800000 
  45              	.LVL5:
  46              		.loc 1 34 25
  47 0044 23B4A400 		sd	a0,8(s1)
  35:src/console.cpp **** }
  48              		.loc 1 35 1
  49 0048 83308101 		ld	ra,24(sp)
  50              		.cfi_restore 1
  51 004c 03340101 		ld	s0,16(sp)
  52              		.cfi_restore 8
  53              		.cfi_def_cfa 2, 32
  54 0050 83348100 		ld	s1,8(sp)
  55              		.cfi_restore 9
  56              	.LVL6:
  57 0054 13010102 		addi	sp,sp,32
  58              		.cfi_def_cfa_offset 0
  59 0058 67800000 		jr	ra
  60              		.cfi_endproc
  61              	.LFE26:
  63              		.align	2
  64              		.globl	_ZN7Console12put_in_inputEc
  66              	_ZN7Console12put_in_inputEc:
  67              	.LFB21:
   7:src/console.cpp ****     input_buffer->put(c);
  68              		.loc 1 7 35 is_stmt 1
  69              		.cfi_startproc
  70              	.LVL7:
  71 005c 130101FF 		addi	sp,sp,-16
  72              		.cfi_def_cfa_offset 16
  73 0060 23341100 		sd	ra,8(sp)
  74 0064 23308100 		sd	s0,0(sp)
  75              		.cfi_offset 1, -8
  76              		.cfi_offset 8, -16
  77 0068 13040101 		addi	s0,sp,16
GAS LISTING /tmp/ccOicyt0.s 			page 3


  78              		.cfi_def_cfa 8, 0
   8:src/console.cpp **** }
  79              		.loc 1 8 5
   8:src/console.cpp **** }
  80              		.loc 1 8 22 is_stmt 0
  81 006c 03350500 		ld	a0,0(a0)
  82              	.LVL8:
  83 0070 97000000 		call	_ZN8MyBuffer3putEi@plt
  83      E7800000 
  84              	.LVL9:
   9:src/console.cpp **** 
  85              		.loc 1 9 1
  86 0078 83308100 		ld	ra,8(sp)
  87              		.cfi_restore 1
  88 007c 03340100 		ld	s0,0(sp)
  89              		.cfi_restore 8
  90              		.cfi_def_cfa 2, 16
  91 0080 13010101 		addi	sp,sp,16
  92              		.cfi_def_cfa_offset 0
  93 0084 67800000 		jr	ra
  94              		.cfi_endproc
  95              	.LFE21:
  97              		.align	2
  98              		.globl	_ZN7Console14get_from_inputEv
 100              	_ZN7Console14get_from_inputEv:
 101              	.LFB22:
  11:src/console.cpp ****     return (char)input_buffer->get();
 102              		.loc 1 11 31 is_stmt 1
 103              		.cfi_startproc
 104              	.LVL10:
 105 0088 130101FF 		addi	sp,sp,-16
 106              		.cfi_def_cfa_offset 16
 107 008c 23341100 		sd	ra,8(sp)
 108 0090 23308100 		sd	s0,0(sp)
 109              		.cfi_offset 1, -8
 110              		.cfi_offset 8, -16
 111 0094 13040101 		addi	s0,sp,16
 112              		.cfi_def_cfa 8, 0
  12:src/console.cpp **** }
 113              		.loc 1 12 5
  12:src/console.cpp **** }
 114              		.loc 1 12 35 is_stmt 0
 115 0098 03350500 		ld	a0,0(a0)
 116              	.LVL11:
 117 009c 97000000 		call	_ZN8MyBuffer3getEv@plt
 117      E7800000 
 118              	.LVL12:
  13:src/console.cpp **** 
 119              		.loc 1 13 1
 120 00a4 1375F50F 		andi	a0,a0,0xff
 121 00a8 83308100 		ld	ra,8(sp)
 122              		.cfi_restore 1
 123 00ac 03340100 		ld	s0,0(sp)
 124              		.cfi_restore 8
 125              		.cfi_def_cfa 2, 16
 126 00b0 13010101 		addi	sp,sp,16
 127              		.cfi_def_cfa_offset 0
GAS LISTING /tmp/ccOicyt0.s 			page 4


 128 00b4 67800000 		jr	ra
 129              		.cfi_endproc
 130              	.LFE22:
 132              		.align	2
 133              		.globl	_ZN7Console13put_in_outputEc
 135              	_ZN7Console13put_in_outputEc:
 136              	.LFB23:
  15:src/console.cpp ****     output_buffer->put(c);
 137              		.loc 1 15 36 is_stmt 1
 138              		.cfi_startproc
 139              	.LVL13:
 140 00b8 130101FF 		addi	sp,sp,-16
 141              		.cfi_def_cfa_offset 16
 142 00bc 23341100 		sd	ra,8(sp)
 143 00c0 23308100 		sd	s0,0(sp)
 144              		.cfi_offset 1, -8
 145              		.cfi_offset 8, -16
 146 00c4 13040101 		addi	s0,sp,16
 147              		.cfi_def_cfa 8, 0
  16:src/console.cpp **** }
 148              		.loc 1 16 5
  16:src/console.cpp **** }
 149              		.loc 1 16 23 is_stmt 0
 150 00c8 03358500 		ld	a0,8(a0)
 151              	.LVL14:
 152 00cc 97000000 		call	_ZN8MyBuffer3putEi@plt
 152      E7800000 
 153              	.LVL15:
  17:src/console.cpp **** char Console::get_from_output(){
 154              		.loc 1 17 1
 155 00d4 83308100 		ld	ra,8(sp)
 156              		.cfi_restore 1
 157 00d8 03340100 		ld	s0,0(sp)
 158              		.cfi_restore 8
 159              		.cfi_def_cfa 2, 16
 160 00dc 13010101 		addi	sp,sp,16
 161              		.cfi_def_cfa_offset 0
 162 00e0 67800000 		jr	ra
 163              		.cfi_endproc
 164              	.LFE23:
 166              		.align	2
 167              		.globl	_ZN7Console15get_from_outputEv
 169              	_ZN7Console15get_from_outputEv:
 170              	.LFB24:
  18:src/console.cpp ****     return (char)output_buffer->get();
 171              		.loc 1 18 32 is_stmt 1
 172              		.cfi_startproc
 173              	.LVL16:
 174 00e4 130101FF 		addi	sp,sp,-16
 175              		.cfi_def_cfa_offset 16
 176 00e8 23341100 		sd	ra,8(sp)
 177 00ec 23308100 		sd	s0,0(sp)
 178              		.cfi_offset 1, -8
 179              		.cfi_offset 8, -16
 180 00f0 13040101 		addi	s0,sp,16
 181              		.cfi_def_cfa 8, 0
  19:src/console.cpp **** }
GAS LISTING /tmp/ccOicyt0.s 			page 5


 182              		.loc 1 19 5
  19:src/console.cpp **** }
 183              		.loc 1 19 36 is_stmt 0
 184 00f4 03358500 		ld	a0,8(a0)
 185              	.LVL17:
 186 00f8 97000000 		call	_ZN8MyBuffer3getEv@plt
 186      E7800000 
 187              	.LVL18:
  20:src/console.cpp **** 
 188              		.loc 1 20 1
 189 0100 1375F50F 		andi	a0,a0,0xff
 190 0104 83308100 		ld	ra,8(sp)
 191              		.cfi_restore 1
 192 0108 03340100 		ld	s0,0(sp)
 193              		.cfi_restore 8
 194              		.cfi_def_cfa 2, 16
 195 010c 13010101 		addi	sp,sp,16
 196              		.cfi_def_cfa_offset 0
 197 0110 67800000 		jr	ra
 198              		.cfi_endproc
 199              	.LFE24:
 201              		.section	.rodata.str1.8,"aMS",@progbits,1
 202              		.align	3
 203              	.LC0:
 204 0000 636F6E73 		.string	"console_cache"
 204      6F6C655F 
 204      63616368 
 204      6500
 205              		.text
 206              		.align	2
 207              		.globl	_ZN7Console11getInstanceEv
 209              	_ZN7Console11getInstanceEv:
 210              	.LFB25:
  22:src/console.cpp ****     if(!console_instance){
 211              		.loc 1 22 33 is_stmt 1
 212              		.cfi_startproc
  23:src/console.cpp ****         console_cache = (kmem_cache_t*) kmem_cache_create("console_cache", sizeof(Console), &consol
 213              		.loc 1 23 5
  23:src/console.cpp ****         console_cache = (kmem_cache_t*) kmem_cache_create("console_cache", sizeof(Console), &consol
 214              		.loc 1 23 8 is_stmt 0
 215 0114 97070000 		ld	a5,.LANCHOR0
 215      83B70700 
  23:src/console.cpp ****         console_cache = (kmem_cache_t*) kmem_cache_create("console_cache", sizeof(Console), &consol
 216              		.loc 1 23 5
 217 011c 63880700 		beqz	a5,.L17
  27:src/console.cpp **** 
 218              		.loc 1 27 5 is_stmt 1
  29:src/console.cpp **** 
 219              		.loc 1 29 1 is_stmt 0
 220 0120 17050000 		ld	a0,.LANCHOR0
 220      03350500 
 221 0128 67800000 		ret
 222              	.L17:
  22:src/console.cpp ****     if(!console_instance){
 223              		.loc 1 22 33
 224 012c 130101FE 		addi	sp,sp,-32
 225              		.cfi_def_cfa_offset 32
GAS LISTING /tmp/ccOicyt0.s 			page 6


 226 0130 233C1100 		sd	ra,24(sp)
 227 0134 23388100 		sd	s0,16(sp)
 228 0138 23349100 		sd	s1,8(sp)
 229              		.cfi_offset 1, -8
 230              		.cfi_offset 8, -16
 231              		.cfi_offset 9, -24
 232 013c 13040102 		addi	s0,sp,32
 233              		.cfi_def_cfa 8, 0
  24:src/console.cpp ****         console_instance = (Console*)kmem_cache_alloc(console_cache);
 234              		.loc 1 24 9 is_stmt 1
  24:src/console.cpp ****         console_instance = (Console*)kmem_cache_alloc(console_cache);
 235              		.loc 1 24 58 is_stmt 0
 236 0140 93060000 		li	a3,0
 237 0144 17060000 		lla	a2,_ZN7Console13console_setupEPv
 237      13060600 
 238 014c 93050001 		li	a1,16
 239 0150 17050000 		lla	a0,.LC0
 239      13050500 
 240 0158 97000000 		call	_Z17kmem_cache_createPKcmPFvPvES3_@plt
 240      E7800000 
 241              	.LVL19:
  24:src/console.cpp ****         console_instance = (Console*)kmem_cache_alloc(console_cache);
 242              		.loc 1 24 23
 243 0160 97040000 		lla	s1,.LANCHOR0
 243      93840400 
 244 0168 23B4A400 		sd	a0,8(s1)
  25:src/console.cpp ****     }
 245              		.loc 1 25 9 is_stmt 1
  25:src/console.cpp ****     }
 246              		.loc 1 25 54 is_stmt 0
 247 016c 97000000 		call	_Z16kmem_cache_allocP12kmem_cache_s@plt
 247      E7800000 
 248              	.LVL20:
  25:src/console.cpp ****     }
 249              		.loc 1 25 26
 250 0174 23B0A400 		sd	a0,0(s1)
  27:src/console.cpp **** 
 251              		.loc 1 27 5 is_stmt 1
  29:src/console.cpp **** 
 252              		.loc 1 29 1 is_stmt 0
 253 0178 17050000 		ld	a0,.LANCHOR0
 253      03350500 
 254 0180 83308101 		ld	ra,24(sp)
 255              		.cfi_restore 1
 256 0184 03340101 		ld	s0,16(sp)
 257              		.cfi_restore 8
 258              		.cfi_def_cfa 2, 32
 259 0188 83348100 		ld	s1,8(sp)
 260              		.cfi_restore 9
 261 018c 13010102 		addi	sp,sp,32
 262              		.cfi_def_cfa_offset 0
 263 0190 67800000 		jr	ra
 264              		.cfi_endproc
 265              	.LFE25:
 267              		.globl	_ZN7Console13console_cacheE
 268              		.globl	_ZN7Console16console_instanceE
 269              		.bss
GAS LISTING /tmp/ccOicyt0.s 			page 7


 270              		.align	3
 271              		.set	.LANCHOR0,. + 0
 274              	_ZN7Console16console_instanceE:
 275 0000 00000000 		.zero	8
 275      00000000 
 278              	_ZN7Console13console_cacheE:
 279 0008 00000000 		.zero	8
 279      00000000 
 280              		.text
 281              	.Letext0:
 282              		.file 2 "src/../h/../h/../h/../lib/hw.h"
 283              		.file 3 "src/../h/../h/../h/SlabI.h"
 284              		.file 4 "src/../h/../h/../h/semaphore.hpp"
 285              		.file 5 "src/../h/../h/my_buffer.hpp"
 286              		.file 6 "src/../h/console.hpp"
GAS LISTING /tmp/ccOicyt0.s 			page 8


DEFINED SYMBOLS
                            *ABS*:0000000000000000 console.cpp
     /tmp/ccOicyt0.s:9      .text:0000000000000000 _ZN7Console13console_setupEPv
     /tmp/ccOicyt0.s:13     .text:0000000000000000 .L0 
     /tmp/ccOicyt0.s:15     .text:0000000000000000 .L0 
     /tmp/ccOicyt0.s:16     .text:0000000000000004 .L0 
     /tmp/ccOicyt0.s:20     .text:0000000000000010 .L0 
     /tmp/ccOicyt0.s:21     .text:0000000000000010 .L0 
     /tmp/ccOicyt0.s:22     .text:0000000000000010 .L0 
     /tmp/ccOicyt0.s:24     .text:0000000000000014 .L0 
     /tmp/ccOicyt0.s:28     .text:0000000000000018 .L0 
     /tmp/ccOicyt0.s:29     .text:0000000000000018 .L0 
     /tmp/ccOicyt0.s:30     .text:0000000000000018 .L0 
     /tmp/ccOicyt0.s:33     .text:0000000000000020 .L0 
     /tmp/ccOicyt0.s:37     .text:000000000000002c .L0 
     /tmp/ccOicyt0.s:39     .text:0000000000000030 .L0 
     /tmp/ccOicyt0.s:40     .text:0000000000000030 .L0 
     /tmp/ccOicyt0.s:43     .text:0000000000000038 .L0 
     /tmp/ccOicyt0.s:47     .text:0000000000000044 .L0 
     /tmp/ccOicyt0.s:49     .text:0000000000000048 .L0 
     /tmp/ccOicyt0.s:50     .text:000000000000004c .L0 
     /tmp/ccOicyt0.s:52     .text:0000000000000050 .L0 
     /tmp/ccOicyt0.s:53     .text:0000000000000050 .L0 
     /tmp/ccOicyt0.s:55     .text:0000000000000054 .L0 
     /tmp/ccOicyt0.s:58     .text:0000000000000058 .L0 
     /tmp/ccOicyt0.s:60     .text:000000000000005c .L0 
     /tmp/ccOicyt0.s:66     .text:000000000000005c _ZN7Console12put_in_inputEc
     /tmp/ccOicyt0.s:69     .text:000000000000005c .L0 
     /tmp/ccOicyt0.s:71     .text:000000000000005c .L0 
     /tmp/ccOicyt0.s:72     .text:0000000000000060 .L0 
     /tmp/ccOicyt0.s:75     .text:0000000000000068 .L0 
     /tmp/ccOicyt0.s:76     .text:0000000000000068 .L0 
     /tmp/ccOicyt0.s:78     .text:000000000000006c .L0 
     /tmp/ccOicyt0.s:80     .text:000000000000006c .L0 
     /tmp/ccOicyt0.s:81     .text:000000000000006c .L0 
     /tmp/ccOicyt0.s:86     .text:0000000000000078 .L0 
     /tmp/ccOicyt0.s:87     .text:000000000000007c .L0 
     /tmp/ccOicyt0.s:89     .text:0000000000000080 .L0 
     /tmp/ccOicyt0.s:90     .text:0000000000000080 .L0 
     /tmp/ccOicyt0.s:92     .text:0000000000000084 .L0 
     /tmp/ccOicyt0.s:94     .text:0000000000000088 .L0 
     /tmp/ccOicyt0.s:100    .text:0000000000000088 _ZN7Console14get_from_inputEv
     /tmp/ccOicyt0.s:103    .text:0000000000000088 .L0 
     /tmp/ccOicyt0.s:105    .text:0000000000000088 .L0 
     /tmp/ccOicyt0.s:106    .text:000000000000008c .L0 
     /tmp/ccOicyt0.s:109    .text:0000000000000094 .L0 
     /tmp/ccOicyt0.s:110    .text:0000000000000094 .L0 
     /tmp/ccOicyt0.s:112    .text:0000000000000098 .L0 
     /tmp/ccOicyt0.s:114    .text:0000000000000098 .L0 
     /tmp/ccOicyt0.s:115    .text:0000000000000098 .L0 
     /tmp/ccOicyt0.s:120    .text:00000000000000a4 .L0 
     /tmp/ccOicyt0.s:122    .text:00000000000000ac .L0 
     /tmp/ccOicyt0.s:124    .text:00000000000000b0 .L0 
     /tmp/ccOicyt0.s:125    .text:00000000000000b0 .L0 
     /tmp/ccOicyt0.s:127    .text:00000000000000b4 .L0 
     /tmp/ccOicyt0.s:129    .text:00000000000000b8 .L0 
     /tmp/ccOicyt0.s:135    .text:00000000000000b8 _ZN7Console13put_in_outputEc
GAS LISTING /tmp/ccOicyt0.s 			page 9


     /tmp/ccOicyt0.s:138    .text:00000000000000b8 .L0 
     /tmp/ccOicyt0.s:140    .text:00000000000000b8 .L0 
     /tmp/ccOicyt0.s:141    .text:00000000000000bc .L0 
     /tmp/ccOicyt0.s:144    .text:00000000000000c4 .L0 
     /tmp/ccOicyt0.s:145    .text:00000000000000c4 .L0 
     /tmp/ccOicyt0.s:147    .text:00000000000000c8 .L0 
     /tmp/ccOicyt0.s:149    .text:00000000000000c8 .L0 
     /tmp/ccOicyt0.s:150    .text:00000000000000c8 .L0 
     /tmp/ccOicyt0.s:155    .text:00000000000000d4 .L0 
     /tmp/ccOicyt0.s:156    .text:00000000000000d8 .L0 
     /tmp/ccOicyt0.s:158    .text:00000000000000dc .L0 
     /tmp/ccOicyt0.s:159    .text:00000000000000dc .L0 
     /tmp/ccOicyt0.s:161    .text:00000000000000e0 .L0 
     /tmp/ccOicyt0.s:163    .text:00000000000000e4 .L0 
     /tmp/ccOicyt0.s:169    .text:00000000000000e4 _ZN7Console15get_from_outputEv
     /tmp/ccOicyt0.s:172    .text:00000000000000e4 .L0 
     /tmp/ccOicyt0.s:174    .text:00000000000000e4 .L0 
     /tmp/ccOicyt0.s:175    .text:00000000000000e8 .L0 
     /tmp/ccOicyt0.s:178    .text:00000000000000f0 .L0 
     /tmp/ccOicyt0.s:179    .text:00000000000000f0 .L0 
     /tmp/ccOicyt0.s:181    .text:00000000000000f4 .L0 
     /tmp/ccOicyt0.s:183    .text:00000000000000f4 .L0 
     /tmp/ccOicyt0.s:184    .text:00000000000000f4 .L0 
     /tmp/ccOicyt0.s:189    .text:0000000000000100 .L0 
     /tmp/ccOicyt0.s:191    .text:0000000000000108 .L0 
     /tmp/ccOicyt0.s:193    .text:000000000000010c .L0 
     /tmp/ccOicyt0.s:194    .text:000000000000010c .L0 
     /tmp/ccOicyt0.s:196    .text:0000000000000110 .L0 
     /tmp/ccOicyt0.s:198    .text:0000000000000114 .L0 
     /tmp/ccOicyt0.s:209    .text:0000000000000114 _ZN7Console11getInstanceEv
     /tmp/ccOicyt0.s:212    .text:0000000000000114 .L0 
     /tmp/ccOicyt0.s:213    .text:0000000000000114 .L0 
     /tmp/ccOicyt0.s:214    .text:0000000000000114 .L0 
     /tmp/ccOicyt0.s:215    .text:0000000000000114 .L0 
     /tmp/ccOicyt0.s:217    .text:000000000000011c .L0 
     /tmp/ccOicyt0.s:219    .text:0000000000000120 .L0 
     /tmp/ccOicyt0.s:220    .text:0000000000000120 .L0 
     /tmp/ccOicyt0.s:224    .text:000000000000012c .L0 
     /tmp/ccOicyt0.s:225    .text:0000000000000130 .L0 
     /tmp/ccOicyt0.s:229    .text:000000000000013c .L0 
     /tmp/ccOicyt0.s:230    .text:000000000000013c .L0 
     /tmp/ccOicyt0.s:231    .text:000000000000013c .L0 
     /tmp/ccOicyt0.s:233    .text:0000000000000140 .L0 
     /tmp/ccOicyt0.s:235    .text:0000000000000140 .L0 
     /tmp/ccOicyt0.s:236    .text:0000000000000140 .L0 
     /tmp/ccOicyt0.s:243    .text:0000000000000160 .L0 
     /tmp/ccOicyt0.s:246    .text:000000000000016c .L0 
     /tmp/ccOicyt0.s:247    .text:000000000000016c .L0 
     /tmp/ccOicyt0.s:250    .text:0000000000000174 .L0 
     /tmp/ccOicyt0.s:252    .text:0000000000000178 .L0 
     /tmp/ccOicyt0.s:253    .text:0000000000000178 .L0 
     /tmp/ccOicyt0.s:255    .text:0000000000000184 .L0 
     /tmp/ccOicyt0.s:257    .text:0000000000000188 .L0 
     /tmp/ccOicyt0.s:258    .text:0000000000000188 .L0 
     /tmp/ccOicyt0.s:260    .text:000000000000018c .L0 
     /tmp/ccOicyt0.s:262    .text:0000000000000190 .L0 
     /tmp/ccOicyt0.s:264    .text:0000000000000194 .L0 
GAS LISTING /tmp/ccOicyt0.s 			page 10


     /tmp/ccOicyt0.s:278    .bss:0000000000000008 _ZN7Console13console_cacheE
     /tmp/ccOicyt0.s:274    .bss:0000000000000000 _ZN7Console16console_instanceE
     /tmp/ccOicyt0.s:271    .bss:0000000000000000 .LANCHOR0
     /tmp/ccOicyt0.s:287    .text:0000000000000194 .L0 
     /tmp/ccOicyt0.s:215    .text:0000000000000114 .L0 
     /tmp/ccOicyt0.s:220    .text:0000000000000120 .L0 
     /tmp/ccOicyt0.s:237    .text:0000000000000144 .L0 
     /tmp/ccOicyt0.s:203    .rodata.str1.8:0000000000000000 .LC0
     /tmp/ccOicyt0.s:239    .text:0000000000000150 .L0 
     /tmp/ccOicyt0.s:243    .text:0000000000000160 .L0 
     /tmp/ccOicyt0.s:253    .text:0000000000000178 .L0 
     /tmp/ccOicyt0.s:222    .text:000000000000012c .L17
     /tmp/ccOicyt0.s:1325   .debug_abbrev:0000000000000000 .Ldebug_abbrev0
     /tmp/ccOicyt0.s:2221   .debug_str:000000000000018a .LASF118
     /tmp/ccOicyt0.s:2247   .debug_str:000000000000034e .LASF119
     /tmp/ccOicyt0.s:2267   .debug_str:00000000000003ef .LASF120
     /tmp/ccOicyt0.s:5      .text:0000000000000000 .Ltext0
     /tmp/ccOicyt0.s:281    .text:0000000000000194 .Letext0
     /tmp/ccOicyt0.s:2177   .debug_line:0000000000000000 .Ldebug_line0
     /tmp/ccOicyt0.s:2317   .debug_str:00000000000005fb .LASF0
     /tmp/ccOicyt0.s:2333   .debug_str:0000000000000690 .LASF1
     /tmp/ccOicyt0.s:2301   .debug_str:0000000000000543 .LASF2
     /tmp/ccOicyt0.s:2277   .debug_str:000000000000046e .LASF4
     /tmp/ccOicyt0.s:2373   .debug_str:00000000000007d2 .LASF3
     /tmp/ccOicyt0.s:2199   .debug_str:00000000000000da .LASF5
     /tmp/ccOicyt0.s:2335   .debug_str:00000000000006a3 .LASF6
     /tmp/ccOicyt0.s:2315   .debug_str:00000000000005e8 .LASF7
     /tmp/ccOicyt0.s:2421   .debug_str:0000000000000974 .LASF8
     /tmp/ccOicyt0.s:2399   .debug_str:00000000000008b2 .LASF9
     /tmp/ccOicyt0.s:2265   .debug_str:00000000000003e1 .LASF10
     /tmp/ccOicyt0.s:2347   .debug_str:00000000000006f6 .LASF11
     /tmp/ccOicyt0.s:2213   .debug_str:000000000000014c .LASF12
     /tmp/ccOicyt0.s:2389   .debug_str:0000000000000866 .LASF13
     /tmp/ccOicyt0.s:2205   .debug_str:00000000000000f3 .LASF14
     /tmp/ccOicyt0.s:2183   .debug_str:0000000000000041 .LASF15
     /tmp/ccOicyt0.s:2215   .debug_str:0000000000000157 .LASF16
     /tmp/ccOicyt0.s:2365   .debug_str:000000000000076f .LASF17
     /tmp/ccOicyt0.s:2231   .debug_str:00000000000002d2 .LASF18
     /tmp/ccOicyt0.s:2403   .debug_str:00000000000008cf .LASF19
     /tmp/ccOicyt0.s:2401   .debug_str:00000000000008c2 .LASF121
     /tmp/ccOicyt0.s:2355   .debug_str:0000000000000727 .LASF52
     /tmp/ccOicyt0.s:2249   .debug_str:000000000000035e .LASF20
     /tmp/ccOicyt0.s:2283   .debug_str:000000000000049c .LASF22
     /tmp/ccOicyt0.s:2383   .debug_str:000000000000083e .LASF21
     /tmp/ccOicyt0.s:2189   .debug_str:0000000000000075 .LASF23
     /tmp/ccOicyt0.s:2219   .debug_str:0000000000000181 .LASF24
     /tmp/ccOicyt0.s:2195   .debug_str:00000000000000b5 .LASF25
     /tmp/ccOicyt0.s:2397   .debug_str:00000000000008a7 .LASF26
     /tmp/ccOicyt0.s:2425   .debug_str:000000000000099a .LASF27
     /tmp/ccOicyt0.s:2271   .debug_str:0000000000000431 .LASF28
     /tmp/ccOicyt0.s:2419   .debug_str:000000000000094d .LASF29
     /tmp/ccOicyt0.s:2393   .debug_str:0000000000000888 .LASF34
     /tmp/ccOicyt0.s:2409   .debug_str:00000000000008f3 .LASF36
     /tmp/ccOicyt0.s:2245   .debug_str:0000000000000348 .LASF30
     /tmp/ccOicyt0.s:2307   .debug_str:0000000000000585 .LASF31
     /tmp/ccOicyt0.s:2201   .debug_str:00000000000000e1 .LASF32
     /tmp/ccOicyt0.s:2287   .debug_str:00000000000004d8 .LASF33
GAS LISTING /tmp/ccOicyt0.s 			page 11


     /tmp/ccOicyt0.s:2345   .debug_str:00000000000006e8 .LASF35
     /tmp/ccOicyt0.s:2225   .debug_str:000000000000026d .LASF37
     /tmp/ccOicyt0.s:2395   .debug_str:0000000000000899 .LASF38
     /tmp/ccOicyt0.s:2251   .debug_str:0000000000000367 .LASF39
     /tmp/ccOicyt0.s:2349   .debug_str:0000000000000705 .LASF40
     /tmp/ccOicyt0.s:2257   .debug_str:000000000000039f .LASF41
     /tmp/ccOicyt0.s:2353   .debug_str:000000000000071f .LASF42
     /tmp/ccOicyt0.s:2279   .debug_str:0000000000000475 .LASF43
     /tmp/ccOicyt0.s:2211   .debug_str:000000000000013f .LASF44
     /tmp/ccOicyt0.s:2185   .debug_str:0000000000000051 .LASF45
     /tmp/ccOicyt0.s:2263   .debug_str:00000000000003d1 .LASF46
     /tmp/ccOicyt0.s:2327   .debug_str:000000000000065c .LASF47
     /tmp/ccOicyt0.s:2377   .debug_str:00000000000007f7 .LASF48
     /tmp/ccOicyt0.s:2323   .debug_str:000000000000063c .LASF50
     /tmp/ccOicyt0.s:2381   .debug_str:000000000000082b .LASF49
     /tmp/ccOicyt0.s:2359   .debug_str:0000000000000741 .LASF51
     /tmp/ccOicyt0.s:2407   .debug_str:00000000000008e5 .LASF122
     /tmp/ccOicyt0.s:2309   .debug_str:000000000000059e .LASF123
     /tmp/ccOicyt0.s:2341   .debug_str:00000000000006cb .LASF53
     /tmp/ccOicyt0.s:2387   .debug_str:0000000000000856 .LASF54
     /tmp/ccOicyt0.s:2181   .debug_str:000000000000001c .LASF56
     /tmp/ccOicyt0.s:2351   .debug_str:000000000000070d .LASF55
     /tmp/ccOicyt0.s:2305   .debug_str:000000000000055e .LASF57
     /tmp/ccOicyt0.s:2337   .debug_str:00000000000006b6 .LASF68
     /tmp/ccOicyt0.s:2291   .debug_str:000000000000050e .LASF58
     /tmp/ccOicyt0.s:2239   .debug_str:0000000000000314 .LASF59
     /tmp/ccOicyt0.s:2295   .debug_str:0000000000000522 .LASF60
     /tmp/ccOicyt0.s:2253   .debug_str:0000000000000389 .LASF61
     /tmp/ccOicyt0.s:2405   .debug_str:00000000000008dc .LASF62
     /tmp/ccOicyt0.s:2363   .debug_str:0000000000000768 .LASF63
     /tmp/ccOicyt0.s:2297   .debug_str:0000000000000527 .LASF64
     /tmp/ccOicyt0.s:2269   .debug_str:0000000000000423 .LASF65
     /tmp/ccOicyt0.s:2293   .debug_str:0000000000000518 .LASF66
     /tmp/ccOicyt0.s:2325   .debug_str:0000000000000652 .LASF67
     /tmp/ccOicyt0.s:2233   .debug_str:00000000000002e8 .LASF69
     /tmp/ccOicyt0.s:2299   .debug_str:0000000000000536 .LASF70
     /tmp/ccOicyt0.s:2217   .debug_str:0000000000000163 .LASF71
     /tmp/ccOicyt0.s:2187   .debug_str:0000000000000066 .LASF72
     /tmp/ccOicyt0.s:2275   .debug_str:000000000000044e .LASF73
     /tmp/ccOicyt0.s:2241   .debug_str:0000000000000319 .LASF81
     /tmp/ccOicyt0.s:2427   .debug_str:00000000000009bb .LASF83
     /tmp/ccOicyt0.s:2223   .debug_str:000000000000025a .LASF124
     /tmp/ccOicyt0.s:2413   .debug_str:0000000000000926 .LASF125
     /tmp/ccOicyt0.s:2197   .debug_str:00000000000000d3 .LASF74
     /tmp/ccOicyt0.s:2321   .debug_str:0000000000000626 .LASF75
     /tmp/ccOicyt0.s:2429   .debug_str:00000000000009dc .LASF76
     /tmp/ccOicyt0.s:2261   .debug_str:00000000000003c0 .LASF77
     /tmp/ccOicyt0.s:2191   .debug_str:0000000000000094 .LASF78
     /tmp/ccOicyt0.s:2235   .debug_str:00000000000002f5 .LASF79
     /tmp/ccOicyt0.s:2343   .debug_str:00000000000006e0 .LASF80
     /tmp/ccOicyt0.s:2281   .debug_str:0000000000000490 .LASF82
     /tmp/ccOicyt0.s:2289   .debug_str:00000000000004f3 .LASF84
     /tmp/ccOicyt0.s:2375   .debug_str:00000000000007e4 .LASF85
     /tmp/ccOicyt0.s:2311   .debug_str:00000000000005c0 .LASF86
     /tmp/ccOicyt0.s:2391   .debug_str:0000000000000875 .LASF87
     /tmp/ccOicyt0.s:2303   .debug_str:0000000000000551 .LASF88
     /tmp/ccOicyt0.s:2285   .debug_str:00000000000004bc .LASF89
GAS LISTING /tmp/ccOicyt0.s 			page 12


     /tmp/ccOicyt0.s:2331   .debug_str:0000000000000681 .LASF90
     /tmp/ccOicyt0.s:2313   .debug_str:00000000000005ca .LASF91
     /tmp/ccOicyt0.s:2357   .debug_str:0000000000000733 .LASF92
     /tmp/ccOicyt0.s:2207   .debug_str:0000000000000103 .LASF93
     /tmp/ccOicyt0.s:2367   .debug_str:0000000000000785 .LASF94
     /tmp/ccOicyt0.s:2371   .debug_str:00000000000007b3 .LASF95
     /tmp/ccOicyt0.s:2329   .debug_str:0000000000000671 .LASF96
     /tmp/ccOicyt0.s:2209   .debug_str:0000000000000120 .LASF97
     /tmp/ccOicyt0.s:2193   .debug_str:00000000000000a6 .LASF98
     /tmp/ccOicyt0.s:2319   .debug_str:0000000000000608 .LASF99
     /tmp/ccOicyt0.s:2415   .debug_str:0000000000000939 .LASF100
     /tmp/ccOicyt0.s:2369   .debug_str:0000000000000795 .LASF101
     /tmp/ccOicyt0.s:2411   .debug_str:0000000000000918 .LASF102
     /tmp/ccOicyt0.s:2243   .debug_str:000000000000032a .LASF103
     /tmp/ccOicyt0.s:2385   .debug_str:0000000000000848 .LASF104
     /tmp/ccOicyt0.s:2361   .debug_str:0000000000000757 .LASF105
     /tmp/ccOicyt0.s:2237   .debug_str:0000000000000307 .LASF106
     /tmp/ccOicyt0.s:2273   .debug_str:0000000000000440 .LASF107
     /tmp/ccOicyt0.s:2339   .debug_str:00000000000006c6 .LASF108
     /tmp/ccOicyt0.s:2227   .debug_str:0000000000000290 .LASF109
     /tmp/ccOicyt0.s:2179   .debug_str:0000000000000000 .LASF110
     /tmp/ccOicyt0.s:10     .text:0000000000000000 .LFB26
     /tmp/ccOicyt0.s:61     .text:000000000000005c .LFE26
     /tmp/ccOicyt0.s:2203   .debug_str:00000000000000e9 .LASF113
     /tmp/ccOicyt0.s:2044   .debug_loc:0000000000000000 .LLST0
     /tmp/ccOicyt0.s:2259   .debug_str:00000000000003bb .LASF111
     /tmp/ccOicyt0.s:2062   .debug_loc:000000000000004c .LLST1
     /tmp/ccOicyt0.s:31     .text:0000000000000020 .LVL2
     /tmp/ccOicyt0.s:35     .text:000000000000002c .LVL3
     /tmp/ccOicyt0.s:41     .text:0000000000000038 .LVL4
     /tmp/ccOicyt0.s:45     .text:0000000000000044 .LVL5
     /tmp/ccOicyt0.s:210    .text:0000000000000114 .LFB25
     /tmp/ccOicyt0.s:265    .text:0000000000000194 .LFE25
     /tmp/ccOicyt0.s:241    .text:0000000000000160 .LVL19
     /tmp/ccOicyt0.s:248    .text:0000000000000174 .LVL20
     /tmp/ccOicyt0.s:170    .text:00000000000000e4 .LFB24
     /tmp/ccOicyt0.s:199    .text:0000000000000114 .LFE24
     /tmp/ccOicyt0.s:2417   .debug_str:0000000000000948 .LASF112
     /tmp/ccOicyt0.s:2080   .debug_loc:0000000000000098 .LLST7
     /tmp/ccOicyt0.s:187    .text:0000000000000100 .LVL18
     /tmp/ccOicyt0.s:136    .text:00000000000000b8 .LFB23
     /tmp/ccOicyt0.s:164    .text:00000000000000e4 .LFE23
     /tmp/ccOicyt0.s:2094   .debug_loc:00000000000000d1 .LLST5
     /tmp/ccOicyt0.s:2108   .debug_loc:000000000000010a .LLST6
     /tmp/ccOicyt0.s:153    .text:00000000000000d4 .LVL15
     /tmp/ccOicyt0.s:101    .text:0000000000000088 .LFB22
     /tmp/ccOicyt0.s:130    .text:00000000000000b8 .LFE22
     /tmp/ccOicyt0.s:2122   .debug_loc:0000000000000143 .LLST4
     /tmp/ccOicyt0.s:118    .text:00000000000000a4 .LVL12
     /tmp/ccOicyt0.s:67     .text:000000000000005c .LFB21
     /tmp/ccOicyt0.s:95     .text:0000000000000088 .LFE21
     /tmp/ccOicyt0.s:2136   .debug_loc:000000000000017c .LLST2
     /tmp/ccOicyt0.s:2150   .debug_loc:00000000000001b5 .LLST3
     /tmp/ccOicyt0.s:84     .text:0000000000000078 .LVL9
     /tmp/ccOicyt0.s:2379   .debug_str:0000000000000807 .LASF114
     /tmp/ccOicyt0.s:2255   .debug_str:000000000000038e .LASF116
     /tmp/ccOicyt0.s:2229   .debug_str:00000000000002af .LASF115
GAS LISTING /tmp/ccOicyt0.s 			page 13


     /tmp/ccOicyt0.s:2423   .debug_str:0000000000000988 .LASF117
     /tmp/ccOicyt0.s:14     .text:0000000000000000 .LVL0
     /tmp/ccOicyt0.s:56     .text:0000000000000054 .LVL6
     /tmp/ccOicyt0.s:27     .text:0000000000000018 .LVL1
     /tmp/ccOicyt0.s:173    .text:00000000000000e4 .LVL16
     /tmp/ccOicyt0.s:185    .text:00000000000000f8 .LVL17
     /tmp/ccOicyt0.s:139    .text:00000000000000b8 .LVL13
     /tmp/ccOicyt0.s:151    .text:00000000000000cc .LVL14
     /tmp/ccOicyt0.s:104    .text:0000000000000088 .LVL10
     /tmp/ccOicyt0.s:116    .text:000000000000009c .LVL11
     /tmp/ccOicyt0.s:70     .text:000000000000005c .LVL7
     /tmp/ccOicyt0.s:82     .text:0000000000000070 .LVL8
     /tmp/ccOicyt0.s:288    .debug_info:0000000000000000 .Ldebug_info0

UNDEFINED SYMBOLS
_ZN8MyBuffer16get_buffer_cacheEv
_Z16kmem_cache_allocP12kmem_cache_s
_ZN8MyBuffer3putEi
_ZN8MyBuffer3getEv
_Z17kmem_cache_createPKcmPFvPvES3_
