GAS LISTING /tmp/cc30rIB7.s 			page 1


   1              		.file	"main.cpp"
   2              		.option pic
   3              		.option norelax
   4              		.text
   5              	.Ltext0:
   6              		.align	2
   7              		.globl	_Z13idle_functionPv
   9              	_Z13idle_functionPv:
  10              	.LFB75:
  11              		.file 1 "src/../h/fun.hpp"
   1:src/../h/fun.hpp **** #ifndef _fun_hpp_
   2:src/../h/fun.hpp **** #define _fun_hpp_
   3:src/../h/fun.hpp **** 
   4:src/../h/fun.hpp **** #include "../lib/hw.h"
   5:src/../h/fun.hpp **** #include "../h/console.hpp"
   6:src/../h/fun.hpp **** //#include "../test/printing.hpp"
   7:src/../h/fun.hpp **** #include "../h/riscv.hpp"
   8:src/../h/fun.hpp **** #include "../h/syscall_c.h"
   9:src/../h/fun.hpp **** #include "../test/userMain.hpp"
  10:src/../h/fun.hpp **** 
  11:src/../h/fun.hpp **** void idle_function(void* arg){
  12              		.loc 1 11 30
  13              		.cfi_startproc
  14              	.LVL0:
  15 0000 130101FF 		addi	sp,sp,-16
  16              		.cfi_def_cfa_offset 16
  17 0004 23341100 		sd	ra,8(sp)
  18 0008 23308100 		sd	s0,0(sp)
  19              		.cfi_offset 1, -8
  20              		.cfi_offset 8, -16
  21 000c 13040101 		addi	s0,sp,16
  22              		.cfi_def_cfa 8, 0
  23              	.LVL1:
  24              	.L2:
  12:src/../h/fun.hpp ****     while(1){
  25              		.loc 1 12 5 discriminator 1
  13:src/../h/fun.hpp ****         thread_dispatch();
  26              		.loc 1 13 9 discriminator 1
  27              		.loc 1 13 24 is_stmt 0 discriminator 1
  28 0010 97000000 		call	thread_dispatch@plt
  28      E7800000 
  29              	.LVL2:
  12:src/../h/fun.hpp ****     while(1){
  30              		.loc 1 12 5 is_stmt 1 discriminator 1
  31 0018 6FF09FFF 		j	.L2
  32              		.cfi_endproc
  33              	.LFE75:
  35              		.align	2
  36              		.globl	_Z13putc_functionPv
  38              	_Z13putc_functionPv:
  39              	.LFB76:
  14:src/../h/fun.hpp ****     }
  15:src/../h/fun.hpp **** }
  16:src/../h/fun.hpp **** 
  17:src/../h/fun.hpp **** void putc_function(void* arg){
  40              		.loc 1 17 30
  41              		.cfi_startproc
GAS LISTING /tmp/cc30rIB7.s 			page 2


  42              	.LVL3:
  43 001c 130101FE 		addi	sp,sp,-32
  44              		.cfi_def_cfa_offset 32
  45 0020 233C1100 		sd	ra,24(sp)
  46 0024 23388100 		sd	s0,16(sp)
  47 0028 23349100 		sd	s1,8(sp)
  48              		.cfi_offset 1, -8
  49              		.cfi_offset 8, -16
  50              		.cfi_offset 9, -24
  51 002c 13040102 		addi	s0,sp,32
  52              		.cfi_def_cfa 8, 0
  18:src/../h/fun.hpp ****     switch_to_priviledged();
  53              		.loc 1 18 5
  54              		.loc 1 18 26 is_stmt 0
  55 0030 97000000 		call	switch_to_priviledged@plt
  55      E7800000 
  56              	.LVL4:
  19:src/../h/fun.hpp ****     Riscv::mc_sstatus(Riscv::SSTATUS_SIE);
  57              		.loc 1 19 5 is_stmt 1
  58              	.LBB22:
  59              	.LBB23:
  60              		.file 2 "src/../h/riscv.hpp"
   1:src/../h/riscv.hpp **** #ifndef _riscv_hpp_
   2:src/../h/riscv.hpp **** #define _riscv_hpp_
   3:src/../h/riscv.hpp **** 
   4:src/../h/riscv.hpp **** #include "../lib/hw.h"
   5:src/../h/riscv.hpp **** 
   6:src/../h/riscv.hpp **** class Riscv
   7:src/../h/riscv.hpp **** {
   8:src/../h/riscv.hpp **** public:
   9:src/../h/riscv.hpp **** 
  10:src/../h/riscv.hpp ****     // u korisnicki
  11:src/../h/riscv.hpp ****     static void switch_to_user();
  12:src/../h/riscv.hpp **** 
  13:src/../h/riscv.hpp ****     // u privilegovani
  14:src/../h/riscv.hpp ****     static void switch_to_priviledged();
  15:src/../h/riscv.hpp **** 
  16:src/../h/riscv.hpp ****     // push x3..x31 registers onto stack
  17:src/../h/riscv.hpp ****     static void pushRegisters();
  18:src/../h/riscv.hpp **** 
  19:src/../h/riscv.hpp ****     // pop x3..x31 registers onto stack
  20:src/../h/riscv.hpp ****     static void popRegisters();
  21:src/../h/riscv.hpp **** 
  22:src/../h/riscv.hpp ****     // pop sstatus.spp and sstatus.spie bits (has to be a non inline function)
  23:src/../h/riscv.hpp ****     static void popSppSpie();
  24:src/../h/riscv.hpp **** 
  25:src/../h/riscv.hpp ****     // read register scause
  26:src/../h/riscv.hpp ****     static uint64 r_scause();
  27:src/../h/riscv.hpp **** 
  28:src/../h/riscv.hpp ****     // write register scause
  29:src/../h/riscv.hpp ****     static void w_scause(uint64 scause);
  30:src/../h/riscv.hpp **** 
  31:src/../h/riscv.hpp ****     // read register sepc
  32:src/../h/riscv.hpp ****     static uint64 r_sepc();
  33:src/../h/riscv.hpp **** 
  34:src/../h/riscv.hpp ****     // write register sepc
  35:src/../h/riscv.hpp ****     static void w_sepc(uint64 sepc);
GAS LISTING /tmp/cc30rIB7.s 			page 3


  36:src/../h/riscv.hpp **** 
  37:src/../h/riscv.hpp ****     // read register stvec
  38:src/../h/riscv.hpp ****     static uint64 r_stvec();
  39:src/../h/riscv.hpp **** 
  40:src/../h/riscv.hpp ****     // write register stvec
  41:src/../h/riscv.hpp ****     static void w_stvec(uint64 stvec);
  42:src/../h/riscv.hpp **** 
  43:src/../h/riscv.hpp ****     // read register stval
  44:src/../h/riscv.hpp ****     static uint64 r_stval();
  45:src/../h/riscv.hpp **** 
  46:src/../h/riscv.hpp ****     // write register stval
  47:src/../h/riscv.hpp ****     static void w_stval(uint64 stval);
  48:src/../h/riscv.hpp **** 
  49:src/../h/riscv.hpp ****     enum BitMaskSip
  50:src/../h/riscv.hpp ****     {
  51:src/../h/riscv.hpp ****         SIP_SSIP = (1 << 1),
  52:src/../h/riscv.hpp ****         SIP_STIP = (1 << 5),
  53:src/../h/riscv.hpp ****         SIP_SEIP = (1 << 9),
  54:src/../h/riscv.hpp ****     };
  55:src/../h/riscv.hpp **** 
  56:src/../h/riscv.hpp ****     // mask set register sip
  57:src/../h/riscv.hpp ****     static void ms_sip(uint64 mask);
  58:src/../h/riscv.hpp **** 
  59:src/../h/riscv.hpp ****     // mask clear register sip
  60:src/../h/riscv.hpp ****     static void mc_sip(uint64 mask);
  61:src/../h/riscv.hpp **** 
  62:src/../h/riscv.hpp ****     // read register sip
  63:src/../h/riscv.hpp ****     static uint64 r_sip();
  64:src/../h/riscv.hpp **** 
  65:src/../h/riscv.hpp ****     // write register sip
  66:src/../h/riscv.hpp ****     static void w_sip(uint64 sip);
  67:src/../h/riscv.hpp **** 
  68:src/../h/riscv.hpp ****     enum BitMaskSstatus
  69:src/../h/riscv.hpp ****     {
  70:src/../h/riscv.hpp ****         SSTATUS_SIE = (1 << 1),
  71:src/../h/riscv.hpp ****         SSTATUS_SPIE = (1 << 5),
  72:src/../h/riscv.hpp ****         SSTATUS_SPP = (1 << 8),
  73:src/../h/riscv.hpp ****     };
  74:src/../h/riscv.hpp **** 
  75:src/../h/riscv.hpp ****     // mask set register sstatus
  76:src/../h/riscv.hpp ****     static void ms_sstatus(uint64 mask);
  77:src/../h/riscv.hpp **** 
  78:src/../h/riscv.hpp ****     // mask clear register sstatus
  79:src/../h/riscv.hpp ****     static void mc_sstatus(uint64 mask);
  80:src/../h/riscv.hpp **** 
  81:src/../h/riscv.hpp ****     // read register sstatus
  82:src/../h/riscv.hpp ****     static uint64 r_sstatus();
  83:src/../h/riscv.hpp **** 
  84:src/../h/riscv.hpp ****     // write register sstatus
  85:src/../h/riscv.hpp ****     static void w_sstatus(uint64 sstatus);
  86:src/../h/riscv.hpp **** 
  87:src/../h/riscv.hpp ****     // supervisor trap
  88:src/../h/riscv.hpp ****     static void supervisorTrap();
  89:src/../h/riscv.hpp **** 
  90:src/../h/riscv.hpp **** private:
  91:src/../h/riscv.hpp **** 
  92:src/../h/riscv.hpp ****     // supervisor trap handler
GAS LISTING /tmp/cc30rIB7.s 			page 4


  93:src/../h/riscv.hpp ****     static void handleSupervisorTrap();
  94:src/../h/riscv.hpp **** 
  95:src/../h/riscv.hpp **** };
  96:src/../h/riscv.hpp **** 
  97:src/../h/riscv.hpp **** 
  98:src/../h/riscv.hpp **** inline uint64 Riscv::r_scause()
  99:src/../h/riscv.hpp **** {
 100:src/../h/riscv.hpp ****     uint64 volatile scause;
 101:src/../h/riscv.hpp ****     __asm__ volatile ("csrr %[scause], scause" : [scause] "=r"(scause));
 102:src/../h/riscv.hpp ****     return scause;
 103:src/../h/riscv.hpp **** }
 104:src/../h/riscv.hpp **** 
 105:src/../h/riscv.hpp **** inline void Riscv::w_scause(uint64 scause)
 106:src/../h/riscv.hpp **** {
 107:src/../h/riscv.hpp ****     __asm__ volatile ("csrw scause, %[scause]" : : [scause] "r"(scause));
 108:src/../h/riscv.hpp **** }
 109:src/../h/riscv.hpp **** 
 110:src/../h/riscv.hpp **** inline uint64 Riscv::r_sepc()
 111:src/../h/riscv.hpp **** {
 112:src/../h/riscv.hpp ****     uint64 volatile sepc;
 113:src/../h/riscv.hpp ****     __asm__ volatile ("csrr %[sepc], sepc" : [sepc] "=r"(sepc));
 114:src/../h/riscv.hpp ****     return sepc;
 115:src/../h/riscv.hpp **** }
 116:src/../h/riscv.hpp **** 
 117:src/../h/riscv.hpp **** inline void Riscv::w_sepc(uint64 sepc)
 118:src/../h/riscv.hpp **** {
 119:src/../h/riscv.hpp ****     __asm__ volatile ("csrw sepc, %[sepc]" : : [sepc] "r"(sepc));
 120:src/../h/riscv.hpp **** }
 121:src/../h/riscv.hpp **** 
 122:src/../h/riscv.hpp **** inline uint64 Riscv::r_stvec()
 123:src/../h/riscv.hpp **** {
 124:src/../h/riscv.hpp ****     uint64 volatile stvec;
 125:src/../h/riscv.hpp ****     __asm__ volatile ("csrr %[stvec], stvec" : [stvec] "=r"(stvec));
 126:src/../h/riscv.hpp ****     return stvec;
 127:src/../h/riscv.hpp **** }
 128:src/../h/riscv.hpp **** 
 129:src/../h/riscv.hpp **** inline void Riscv::w_stvec(uint64 stvec)
 130:src/../h/riscv.hpp **** {
 131:src/../h/riscv.hpp ****     __asm__ volatile ("csrw stvec, %[stvec]" : : [stvec] "r"(stvec));
 132:src/../h/riscv.hpp **** }
 133:src/../h/riscv.hpp **** 
 134:src/../h/riscv.hpp **** inline uint64 Riscv::r_stval()
 135:src/../h/riscv.hpp **** {
 136:src/../h/riscv.hpp ****     uint64 volatile stval;
 137:src/../h/riscv.hpp ****     __asm__ volatile ("csrr %[stval], stval" : [stval] "=r"(stval));
 138:src/../h/riscv.hpp ****     return stval;
 139:src/../h/riscv.hpp **** }
 140:src/../h/riscv.hpp **** 
 141:src/../h/riscv.hpp **** inline void Riscv::w_stval(uint64 stval)
 142:src/../h/riscv.hpp **** {
 143:src/../h/riscv.hpp ****     __asm__ volatile ("csrw stval, %[stval]" : : [stval] "r"(stval));
 144:src/../h/riscv.hpp **** }
 145:src/../h/riscv.hpp **** 
 146:src/../h/riscv.hpp **** inline void Riscv::ms_sip(uint64 mask)
 147:src/../h/riscv.hpp **** {
 148:src/../h/riscv.hpp ****     __asm__ volatile ("csrs sip, %[mask]" : : [mask] "r"(mask));
 149:src/../h/riscv.hpp **** }
GAS LISTING /tmp/cc30rIB7.s 			page 5


 150:src/../h/riscv.hpp **** 
 151:src/../h/riscv.hpp **** inline void Riscv::mc_sip(uint64 mask)
 152:src/../h/riscv.hpp **** {
 153:src/../h/riscv.hpp ****     __asm__ volatile ("csrc sip, %[mask]" : : [mask] "r"(mask));
 154:src/../h/riscv.hpp **** }
 155:src/../h/riscv.hpp **** 
 156:src/../h/riscv.hpp **** inline uint64 Riscv::r_sip()
 157:src/../h/riscv.hpp **** {
 158:src/../h/riscv.hpp ****     uint64 volatile sip;
 159:src/../h/riscv.hpp ****     __asm__ volatile ("csrr %[sip], sip" : [sip] "=r"(sip));
 160:src/../h/riscv.hpp ****     return sip;
 161:src/../h/riscv.hpp **** }
 162:src/../h/riscv.hpp **** 
 163:src/../h/riscv.hpp **** inline void Riscv::w_sip(uint64 sip)
 164:src/../h/riscv.hpp **** {
 165:src/../h/riscv.hpp ****     __asm__ volatile ("csrw sip, %[sip]" : : [sip] "r"(sip));
 166:src/../h/riscv.hpp **** }
 167:src/../h/riscv.hpp **** 
 168:src/../h/riscv.hpp **** inline void Riscv::ms_sstatus(uint64 mask)
 169:src/../h/riscv.hpp **** {
 170:src/../h/riscv.hpp ****     __asm__ volatile ("csrs sstatus, %[mask]" : : [mask] "r"(mask));
 171:src/../h/riscv.hpp **** }
 172:src/../h/riscv.hpp **** 
 173:src/../h/riscv.hpp **** inline void Riscv::mc_sstatus(uint64 mask)
 174:src/../h/riscv.hpp **** {
 175:src/../h/riscv.hpp ****     __asm__ volatile ("csrc sstatus, %[mask]" : : [mask] "r"(mask));
  61              		.loc 2 175 5
  62              		.loc 2 175 68 is_stmt 0
  63 0038 93072000 		li	a5,2
  64              	#APP
  65              	# 175 "src/../h/riscv.hpp" 1
 176              	}
  66              		csrc sstatus, a5
  67              	# 0 "" 2
  68              		.loc 2 176 1
  69              	#NO_APP
  70 0040 6F000004 		j	.L5
  71              	.LVL5:
  72              	.L10:
  73              	.LBE23:
  74              	.LBE22:
  75              	.LBB24:
  76              	.LBB25:
  77              		.file 3 "src/../h/console.hpp"
   1:src/../h/console.hpp **** #ifndef _console_hpp_
   2:src/../h/console.hpp **** #define _console_hpp_
   3:src/../h/console.hpp **** 
   4:src/../h/console.hpp **** #include "../h/my_buffer.hpp"
   5:src/../h/console.hpp **** 
   6:src/../h/console.hpp **** class Console{
   7:src/../h/console.hpp **** public:
   8:src/../h/console.hpp **** 
   9:src/../h/console.hpp ****     static Console& getInstance(){
  10:src/../h/console.hpp ****         static Console instance;
  78              		.loc 3 10 24
  79 0044 17050000 		lla	a0,_ZZN7Console11getInstanceEvE8instance
  79      13050500 
GAS LISTING /tmp/cc30rIB7.s 			page 6


  80 004c 97000000 		call	_ZN7ConsoleC1Ev@plt
  80      E7800000 
  81              	.LVL6:
  82 0054 93071000 		li	a5,1
  83 0058 17070000 		sb	a5,_ZGVZN7Console11getInstanceEvE8instance,a4
  83      2300F700 
  84              	.L7:
  11:src/../h/console.hpp ****         return instance;
  85              		.loc 3 11 9 is_stmt 1
  86              	.LBE25:
  87              	.LBE24:
  20:src/../h/fun.hpp ****     while(1){
  21:src/../h/fun.hpp ****         while((*((char*)CONSOLE_STATUS) & CONSOLE_TX_STATUS_BIT)
  22:src/../h/fun.hpp ****               /*&& Console::getInstance().get_output_size()*/) {
  23:src/../h/fun.hpp ****             *((char*)CONSOLE_TX_DATA) = Console::getInstance().get_from_output();
  88              		.loc 1 23 13 is_stmt 0
  89 0060 97070000 		la	a5,CONSOLE_TX_DATA
  89      83B70700 
  90 0068 83B40700 		ld	s1,0(a5)
  91              		.loc 1 23 79
  92 006c 17050000 		lla	a0,_ZZN7Console11getInstanceEvE8instance
  92      13050500 
  93 0074 97000000 		call	_ZN7Console15get_from_outputEv@plt
  93      E7800000 
  94              	.LVL7:
  95              		.loc 1 23 39
  96 007c 2380A400 		sb	a0,0(s1)
  97              	.L5:
  20:src/../h/fun.hpp ****     while(1){
  98              		.loc 1 20 5 is_stmt 1
  21:src/../h/fun.hpp ****               /*&& Console::getInstance().get_output_size()*/) {
  99              		.loc 1 21 9
  21:src/../h/fun.hpp ****               /*&& Console::getInstance().get_output_size()*/) {
 100              		.loc 1 21 64
  21:src/../h/fun.hpp ****               /*&& Console::getInstance().get_output_size()*/) {
 101              		.loc 1 21 16 is_stmt 0
 102 0080 97070000 		la	a5,CONSOLE_STATUS
 102      83B70700 
 103 0088 83B70700 		ld	a5,0(a5)
 104 008c 83C70700 		lbu	a5,0(a5)
  21:src/../h/fun.hpp ****               /*&& Console::getInstance().get_output_size()*/) {
 105              		.loc 1 21 64
 106 0090 93F70702 		andi	a5,a5,32
 107 0094 638A0700 		beqz	a5,.L6
 108              		.loc 1 23 13 is_stmt 1
 109              	.LBB27:
 110              	.LBB26:
  10:src/../h/console.hpp ****         return instance;
 111              		.loc 3 10 9
  10:src/../h/console.hpp ****         return instance;
 112              		.loc 3 10 24 is_stmt 0
 113 0098 97070000 		lbu	a5,_ZGVZN7Console11getInstanceEvE8instance
 113      83C70700 
 114 00a0 E39007FC 		bnez	a5,.L7
 115 00a4 6FF01FFA 		j	.L10
 116              	.L6:
 117              	.LBE26:
GAS LISTING /tmp/cc30rIB7.s 			page 7


 118              	.LBE27:
  24:src/../h/fun.hpp ****         }
  25:src/../h/fun.hpp ****         thread_dispatch();
 119              		.loc 1 25 9 is_stmt 1
 120              		.loc 1 25 24 is_stmt 0
 121 00a8 97000000 		call	thread_dispatch@plt
 121      E7800000 
 122              	.LVL8:
  20:src/../h/fun.hpp ****         while((*((char*)CONSOLE_STATUS) & CONSOLE_TX_STATUS_BIT)
 123              		.loc 1 20 5 is_stmt 1
  21:src/../h/fun.hpp ****               /*&& Console::getInstance().get_output_size()*/) {
 124              		.loc 1 21 9 is_stmt 0
 125 00b0 6FF01FFD 		j	.L5
 126              		.cfi_endproc
 127              	.LFE76:
 129              		.align	2
 130              		.globl	_Z17user_main_wrapperPv
 132              	_Z17user_main_wrapperPv:
 133              	.LFB77:
  26:src/../h/fun.hpp ****     }
  27:src/../h/fun.hpp **** }
  28:src/../h/fun.hpp **** 
  29:src/../h/fun.hpp **** static bool is_user_main_finished = false;
  30:src/../h/fun.hpp **** void user_main_wrapper(void* arg){
 134              		.loc 1 30 34 is_stmt 1
 135              		.cfi_startproc
 136              	.LVL9:
 137 00b4 130101FF 		addi	sp,sp,-16
 138              		.cfi_def_cfa_offset 16
 139 00b8 23341100 		sd	ra,8(sp)
 140 00bc 23308100 		sd	s0,0(sp)
 141              		.cfi_offset 1, -8
 142              		.cfi_offset 8, -16
 143 00c0 13040101 		addi	s0,sp,16
 144              		.cfi_def_cfa 8, 0
  31:src/../h/fun.hpp ****     switch_to_user();
 145              		.loc 1 31 5
 146              		.loc 1 31 19 is_stmt 0
 147 00c4 97000000 		call	switch_to_user@plt
 147      E7800000 
 148              	.LVL10:
  32:src/../h/fun.hpp ****     userMain();
 149              		.loc 1 32 5 is_stmt 1
 150              		.loc 1 32 13 is_stmt 0
 151 00cc 97000000 		call	_Z8userMainv@plt
 151      E7800000 
 152              	.LVL11:
  33:src/../h/fun.hpp ****     switch_to_priviledged();
 153              		.loc 1 33 5 is_stmt 1
 154              		.loc 1 33 26 is_stmt 0
 155 00d4 97000000 		call	switch_to_priviledged@plt
 155      E7800000 
 156              	.LVL12:
  34:src/../h/fun.hpp ****     is_user_main_finished = true;
 157              		.loc 1 34 5 is_stmt 1
 158              		.loc 1 34 27 is_stmt 0
 159 00dc 93071000 		li	a5,1
GAS LISTING /tmp/cc30rIB7.s 			page 8


 160 00e0 17070000 		sb	a5,.LANCHOR0,a4
 160      2300F700 
  35:src/../h/fun.hpp **** }
 161              		.loc 1 35 1
 162 00e8 83308100 		ld	ra,8(sp)
 163              		.cfi_restore 1
 164 00ec 03340100 		ld	s0,0(sp)
 165              		.cfi_restore 8
 166              		.cfi_def_cfa 2, 16
 167 00f0 13010101 		addi	sp,sp,16
 168              		.cfi_def_cfa_offset 0
 169 00f4 67800000 		jr	ra
 170              		.cfi_endproc
 171              	.LFE77:
 173              		.align	2
 174              		.globl	main
 176              	main:
 177              	.LFB78:
 178              		.file 4 "src/main.cpp"
   1:src/main.cpp  **** 
   2:src/main.cpp  **** #include "../lib/hw.h"
   3:src/main.cpp  **** #include "../h/console.hpp"
   4:src/main.cpp  **** #include "../test/printing.hpp"
   5:src/main.cpp  **** #include "../h/riscv.hpp"
   6:src/main.cpp  **** #include "../h/syscall_c.h"
   7:src/main.cpp  **** #include "../test/userMain.hpp"
   8:src/main.cpp  **** #include "../h/fun.hpp"
   9:src/main.cpp  **** 
  10:src/main.cpp  **** 
  11:src/main.cpp  **** 
  12:src/main.cpp  **** int main(){
 179              		.loc 4 12 11 is_stmt 1
 180              		.cfi_startproc
 181              		.cfi_personality 0x9b,DW.ref.__gxx_personality_v0
 182              		.cfi_lsda 0x1b,.LLSDA78
 183 00f8 130101FC 		addi	sp,sp,-64
 184              		.cfi_def_cfa_offset 64
 185 00fc 233C1102 		sd	ra,56(sp)
 186 0100 23388102 		sd	s0,48(sp)
 187 0104 23349102 		sd	s1,40(sp)
 188              		.cfi_offset 1, -8
 189              		.cfi_offset 8, -16
 190              		.cfi_offset 9, -24
 191 0108 13040104 		addi	s0,sp,64
 192              		.cfi_def_cfa 8, 0
  13:src/main.cpp  **** 
  14:src/main.cpp  ****     // ############################################################################################
  15:src/main.cpp  ****     // upis u stvec
  16:src/main.cpp  ****     uint64 address = reinterpret_cast<uint64>(&Riscv::supervisorTrap);
 193              		.loc 4 16 5
 194              		.loc 4 16 12 is_stmt 0
 195 010c 97070000 		la	a5,_ZN5Riscv14supervisorTrapEv
 195      83B70700 
 196              	.LVL13:
  17:src/main.cpp  ****     Riscv::w_stvec(address);
 197              		.loc 4 17 5 is_stmt 1
 198              	.LBB50:
GAS LISTING /tmp/cc30rIB7.s 			page 9


 199              	.LBB51:
 131:src/../h/riscv.hpp **** }
 200              		.loc 2 131 5
 131:src/../h/riscv.hpp **** }
 201              		.loc 2 131 69 is_stmt 0
 202              	#APP
 203              	# 131 "src/../h/riscv.hpp" 1
 204              		csrw stvec, a5
 205              	# 0 "" 2
 206              	.LVL14:
 207              	#NO_APP
 208              	.LBE51:
 209              	.LBE50:
  18:src/main.cpp  **** 
  19:src/main.cpp  ****     // kreiranje main niti
  20:src/main.cpp  ****     thread_t mainThread = nullptr;
 210              		.loc 4 20 5 is_stmt 1
 211              		.loc 4 20 14 is_stmt 0
 212 0118 233C04FC 		sd	zero,-40(s0)
  21:src/main.cpp  ****     thread_create(&mainThread, nullptr, nullptr);
 213              		.loc 4 21 5 is_stmt 1
 214              		.loc 4 21 18 is_stmt 0
 215 011c 13060000 		li	a2,0
 216 0120 93050000 		li	a1,0
 217 0124 130584FD 		addi	a0,s0,-40
 218              	.LEHB0:
 219 0128 97000000 		call	thread_create@plt
 219      E7800000 
 220              	.LVL15:
  22:src/main.cpp  ****     TCB::running = (TCB*)mainThread;
 221              		.loc 4 22 5 is_stmt 1
 222              		.loc 4 22 18 is_stmt 0
 223 0130 97070000 		la	a5,_ZN3TCB7runningE
 223      83B70700 
 224 0138 033784FD 		ld	a4,-40(s0)
 225 013c 23B0E700 		sd	a4,0(a5)
  23:src/main.cpp  **** 
  24:src/main.cpp  ****     // kreiranje idle niti
  25:src/main.cpp  ****     thread_create((thread_t*)&TCB::idle, &idle_function, nullptr);
 226              		.loc 4 25 5 is_stmt 1
 227              		.loc 4 25 18 is_stmt 0
 228 0140 13060000 		li	a2,0
 229 0144 97050000 		lla	a1,_Z13idle_functionPv
 229      93850500 
 230 014c 17050000 		la	a0,_ZN3TCB4idleE
 230      03350500 
 231 0154 97000000 		call	thread_create@plt
 231      E7800000 
 232              	.LVL16:
  26:src/main.cpp  **** 
  27:src/main.cpp  ****     // kreiranje userMain niti
  28:src/main.cpp  **** //    thread_t userMainThread = nullptr;
  29:src/main.cpp  **** //    thread_create(&userMainThread, &userMain, nullptr);
  30:src/main.cpp  **** 
  31:src/main.cpp  ****     thread_t userMainThread = nullptr;
 233              		.loc 4 31 5 is_stmt 1
 234              		.loc 4 31 14 is_stmt 0
GAS LISTING /tmp/cc30rIB7.s 			page 10


 235 015c 233804FC 		sd	zero,-48(s0)
  32:src/main.cpp  ****     thread_create(&userMainThread, &user_main_wrapper, nullptr);
 236              		.loc 4 32 5 is_stmt 1
 237              		.loc 4 32 18 is_stmt 0
 238 0160 13060000 		li	a2,0
 239 0164 97050000 		lla	a1,_Z17user_main_wrapperPv
 239      93850500 
 240 016c 130504FD 		addi	a0,s0,-48
 241 0170 97000000 		call	thread_create@plt
 241      E7800000 
 242              	.LVL17:
  33:src/main.cpp  **** 
  34:src/main.cpp  ****     // kreiranje niti za ispis
  35:src/main.cpp  ****     thread_t consoleWriter = nullptr;
 243              		.loc 4 35 5 is_stmt 1
 244              		.loc 4 35 14 is_stmt 0
 245 0178 233404FC 		sd	zero,-56(s0)
  36:src/main.cpp  ****     thread_create(&consoleWriter, &putc_function, nullptr);
 246              		.loc 4 36 5 is_stmt 1
 247              		.loc 4 36 18 is_stmt 0
 248 017c 13060000 		li	a2,0
 249 0180 97050000 		lla	a1,_Z13putc_functionPv
 249      93850500 
 250 0188 130584FC 		addi	a0,s0,-56
 251 018c 97000000 		call	thread_create@plt
 251      E7800000 
 252              	.LVL18:
  37:src/main.cpp  ****     Console::getInstance();
 253              		.loc 4 37 5 is_stmt 1
 254              	.LBB52:
 255              	.LBB53:
  10:src/../h/console.hpp ****         return instance;
 256              		.loc 3 10 9
  10:src/../h/console.hpp ****         return instance;
 257              		.loc 3 10 24 is_stmt 0
 258 0194 97070000 		lbu	a5,_ZGVZN7Console11getInstanceEvE8instance
 258      83C70700 
 259 019c 63880700 		beqz	a5,.L24
 260              	.L14:
 261              		.loc 3 11 9 is_stmt 1
 262              	.LBE53:
 263              	.LBE52:
  38:src/main.cpp  **** 
  39:src/main.cpp  ****     Riscv::ms_sstatus(Riscv::SSTATUS_SIE);
 264              		.loc 4 39 5
 265              	.LVL19:
 266              	.LBB55:
 267              	.LBB56:
 170:src/../h/riscv.hpp **** }
 268              		.loc 2 170 5
 170:src/../h/riscv.hpp **** }
 269              		.loc 2 170 68 is_stmt 0
 270 01a0 93072000 		li	a5,2
 271              	#APP
 272              	# 170 "src/../h/riscv.hpp" 1
 171:src/../h/riscv.hpp **** 
 273              		csrs sstatus, a5
GAS LISTING /tmp/cc30rIB7.s 			page 11


 274              	# 0 "" 2
 275              		.loc 2 171 1
 276              	#NO_APP
 277 01a8 6F00C005 		j	.L18
 278              	.LVL20:
 279              	.L24:
 280              	.LBE56:
 281              	.LBE55:
 282              	.LBB57:
 283              	.LBB54:
  10:src/../h/console.hpp ****         return instance;
 284              		.loc 3 10 24
 285 01ac 17050000 		lla	a0,_ZZN7Console11getInstanceEvE8instance
 285      13050500 
 286 01b4 97000000 		call	_ZN7ConsoleC1Ev@plt
 286      E7800000 
 287              	.LVL21:
 288 01bc 93071000 		li	a5,1
 289 01c0 17070000 		sb	a5,_ZGVZN7Console11getInstanceEvE8instance,a4
 289      2300F700 
 290 01c8 6FF09FFD 		j	.L14
 291              	.L25:
 292              	.LBE54:
 293              	.LBE57:
 294              	.LBB58:
 295              	.LBB59:
 296 01cc 17050000 		lla	a0,_ZZN7Console11getInstanceEvE8instance
 296      13050500 
 297 01d4 97000000 		call	_ZN7ConsoleC1Ev@plt
 297      E7800000 
 298              	.LVL22:
 299 01dc 93071000 		li	a5,1
 300 01e0 17070000 		sb	a5,_ZGVZN7Console11getInstanceEvE8instance,a4
 300      2300F700 
 301              	.L16:
 302              		.loc 3 11 9 is_stmt 1
 303              	.LVL23:
 304              	.LBE59:
 305              	.LBE58:
 306              	.LBB61:
 307              	.LBB62:
  12:src/../h/console.hpp ****     }
  13:src/../h/console.hpp **** 
  14:src/../h/console.hpp ****     Console(const Console&) = delete;
  15:src/../h/console.hpp ****     void operator=(Console const&) = delete;
  16:src/../h/console.hpp **** 
  17:src/../h/console.hpp ****     void put_in_input(char c);
  18:src/../h/console.hpp ****     char get_from_input();
  19:src/../h/console.hpp ****     void put_in_output(char c);
  20:src/../h/console.hpp ****     char get_from_output();
  21:src/../h/console.hpp ****     int get_output_size(){ return output_buffer->getCnt(); }
 308              		.loc 3 21 28
 309              		.loc 3 21 56 is_stmt 0
 310 01e8 17050000 		ld	a0,_ZZN7Console11getInstanceEvE8instance+8
 310      03350500 
 311 01f0 97000000 		call	_ZN8MyBuffer6getCntEv@plt
 311      E7800000 
GAS LISTING /tmp/cc30rIB7.s 			page 12


 312              	.LVL24:
 313              	.LBE62:
 314              	.LBE61:
  40:src/main.cpp  **** 
  41:src/main.cpp  ****     // ako sam obrisao userMain pristupam nepostojecoj strukturi
  42:src/main.cpp  **** //    while(!((TCB*)userMainThread)->is_finished()){
  43:src/main.cpp  **** //        thread_dispatch();
  44:src/main.cpp  **** //    }
  45:src/main.cpp  **** 
  46:src/main.cpp  ****     while(!is_user_main_finished || Console::getInstance().get_output_size()){
 315              		.loc 4 46 34
 316 01f8 63040502 		beqz	a0,.L17
 317              	.L15:
  47:src/main.cpp  ****         thread_dispatch();
 318              		.loc 4 47 9 is_stmt 1 discriminator 5
 319              		.loc 4 47 24 is_stmt 0 discriminator 5
 320 01fc 97000000 		call	thread_dispatch@plt
 320      E7800000 
 321              	.LVL25:
 322              	.LEHE0:
 323              	.L18:
  46:src/main.cpp  ****         thread_dispatch();
 324              		.loc 4 46 5 is_stmt 1
  46:src/main.cpp  ****         thread_dispatch();
 325              		.loc 4 46 34
  46:src/main.cpp  ****         thread_dispatch();
 326              		.loc 4 46 11 is_stmt 0
 327 0204 97070000 		lbu	a5,.LANCHOR0
 327      83C70700 
  46:src/main.cpp  ****         thread_dispatch();
 328              		.loc 4 46 34
 329 020c E38807FE 		beqz	a5,.L15
 330              	.LBB63:
 331              	.LBB60:
  10:src/../h/console.hpp ****         return instance;
 332              		.loc 3 10 9 is_stmt 1
  10:src/../h/console.hpp ****         return instance;
 333              		.loc 3 10 24 is_stmt 0
 334 0210 97070000 		lbu	a5,_ZGVZN7Console11getInstanceEvE8instance
 334      83C70700 
 335 0218 E39807FC 		bnez	a5,.L16
 336 021c 6FF01FFB 		j	.L25
 337              	.L17:
 338              	.LBE60:
 339              	.LBE63:
  48:src/main.cpp  ****     }
  49:src/main.cpp  **** 
  50:src/main.cpp  **** 
  51:src/main.cpp  ****     delete Console::getInstance().get_input_buff();
 340              		.loc 4 51 5 is_stmt 1
 341              	.LBB64:
 342              	.LBB65:
  10:src/../h/console.hpp ****         return instance;
 343              		.loc 3 10 9
  10:src/../h/console.hpp ****         return instance;
 344              		.loc 3 10 24 is_stmt 0
 345 0220 97070000 		lbu	a5,_ZGVZN7Console11getInstanceEvE8instance
GAS LISTING /tmp/cc30rIB7.s 			page 13


 345      83C70700 
 346 0228 638A0704 		beqz	a5,.L26
 347              	.L19:
  11:src/../h/console.hpp ****     }
 348              		.loc 3 11 9 is_stmt 1
 349              	.LVL26:
 350              	.LBE65:
 351              	.LBE64:
 352              	.LBB67:
 353              	.LBB68:
  22:src/../h/console.hpp ****     int get_input_size(){ return input_buffer->getCnt(); }
  23:src/../h/console.hpp **** 
  24:src/../h/console.hpp ****     MyBuffer* get_input_buff(){return input_buffer;}
 354              		.loc 3 24 32
 355              		.loc 3 24 39 is_stmt 0
 356 022c 97040000 		ld	s1,_ZZN7Console11getInstanceEvE8instance
 356      83B40400 
 357              	.LVL27:
 358              	.LBE68:
 359              	.LBE67:
 360              		.loc 4 51 51
 361 0234 63880402 		beqz	s1,.L20
 362              		.loc 4 51 50 discriminator 2
 363 0238 13850400 		mv	a0,s1
 364 023c 97000000 		call	_ZN8MyBufferD1Ev@plt
 364      E7800000 
 365              	.LVL28:
 366              	.LBB69:
 367              	.LBB70:
 368              		.file 5 "src/../h/../h/my_buffer.hpp"
   1:src/../h/../h/my_buffer.hpp **** #ifndef _my_buffer_hpp_
   2:src/../h/../h/my_buffer.hpp **** #define _my_buffer_hpp_
   3:src/../h/../h/my_buffer.hpp **** 
   4:src/../h/../h/my_buffer.hpp **** #include "../h/semaphore.hpp"
   5:src/../h/../h/my_buffer.hpp **** #include "../h/MemoryAllocator.hpp"
   6:src/../h/../h/my_buffer.hpp **** #include "../lib/hw.h"
   7:src/../h/../h/my_buffer.hpp **** 
   8:src/../h/../h/my_buffer.hpp **** class MyBuffer {
   9:src/../h/../h/my_buffer.hpp **** private:
  10:src/../h/../h/my_buffer.hpp ****     int cap;
  11:src/../h/../h/my_buffer.hpp ****     int *buffer;
  12:src/../h/../h/my_buffer.hpp ****     int head, tail;
  13:src/../h/../h/my_buffer.hpp **** 
  14:src/../h/../h/my_buffer.hpp ****     MySemaphore* spaceAvailable;
  15:src/../h/../h/my_buffer.hpp ****     MySemaphore* itemAvailable;
  16:src/../h/../h/my_buffer.hpp ****     MySemaphore* mutexHead;
  17:src/../h/../h/my_buffer.hpp ****     MySemaphore* mutexTail;
  18:src/../h/../h/my_buffer.hpp **** 
  19:src/../h/../h/my_buffer.hpp **** 
  20:src/../h/../h/my_buffer.hpp **** 
  21:src/../h/../h/my_buffer.hpp **** public:
  22:src/../h/../h/my_buffer.hpp ****     MyBuffer(int _cap);
  23:src/../h/../h/my_buffer.hpp ****     ~MyBuffer();
  24:src/../h/../h/my_buffer.hpp **** 
  25:src/../h/../h/my_buffer.hpp ****     void put(int val);
  26:src/../h/../h/my_buffer.hpp ****     int get();
  27:src/../h/../h/my_buffer.hpp **** 
GAS LISTING /tmp/cc30rIB7.s 			page 14


  28:src/../h/../h/my_buffer.hpp ****     int getCnt();
  29:src/../h/../h/my_buffer.hpp **** 
  30:src/../h/../h/my_buffer.hpp ****     // operatori
  31:src/../h/../h/my_buffer.hpp ****     void *operator new(uint64 n){
  32:src/../h/../h/my_buffer.hpp ****         uint64 ssize = (n + MEM_BLOCK_SIZE - 1) / MEM_BLOCK_SIZE;
  33:src/../h/../h/my_buffer.hpp ****         return MemoryAllocator::getInstance().memory_alloc(ssize);
  34:src/../h/../h/my_buffer.hpp ****     }
  35:src/../h/../h/my_buffer.hpp **** 
  36:src/../h/../h/my_buffer.hpp ****     void *operator new[](uint64 n){
  37:src/../h/../h/my_buffer.hpp ****         uint64 ssize = (n + MEM_BLOCK_SIZE - 1) / MEM_BLOCK_SIZE;
  38:src/../h/../h/my_buffer.hpp ****         return MemoryAllocator::getInstance().memory_alloc(ssize);
  39:src/../h/../h/my_buffer.hpp ****     }
  40:src/../h/../h/my_buffer.hpp **** 
  41:src/../h/../h/my_buffer.hpp ****     void operator delete(void* p)noexcept{
  42:src/../h/../h/my_buffer.hpp ****         MemoryAllocator::getInstance().memory_free(p);
 369              		.loc 5 42 9 is_stmt 1 discriminator 2
 370              	.LBB71:
 371              	.LBB72:
 372              		.file 6 "src/../h/../h/../h/../h/MemoryAllocator.hpp"
   1:src/../h/../h/../h/../h/MemoryAllocator.hpp **** #ifndef _memory_allocator_hpp_
   2:src/../h/../h/../h/../h/MemoryAllocator.hpp **** #define _memory_allocator_hpp_
   3:src/../h/../h/../h/../h/MemoryAllocator.hpp **** 
   4:src/../h/../h/../h/../h/MemoryAllocator.hpp **** #include "../lib/hw.h"
   5:src/../h/../h/../h/../h/MemoryAllocator.hpp **** 
   6:src/../h/../h/../h/../h/MemoryAllocator.hpp **** class MemoryAllocator{
   7:src/../h/../h/../h/../h/MemoryAllocator.hpp **** public:
   8:src/../h/../h/../h/../h/MemoryAllocator.hpp **** 
   9:src/../h/../h/../h/../h/MemoryAllocator.hpp ****     // dodaj instancu
  10:src/../h/../h/../h/../h/MemoryAllocator.hpp ****     static MemoryAllocator& getInstance(){
  11:src/../h/../h/../h/../h/MemoryAllocator.hpp ****         static MemoryAllocator instance;
 373              		.loc 6 11 9 discriminator 2
 374              		.loc 6 11 32 is_stmt 0 discriminator 2
 375 0244 97070000 		lbu	a5,_ZGVZN15MemoryAllocator11getInstanceEvE8instance
 375      83C70700 
 376 024c 63880704 		beqz	a5,.L27
 377              	.L21:
  12:src/../h/../h/../h/../h/MemoryAllocator.hpp ****         return instance;
 378              		.loc 6 12 9 is_stmt 1
 379              	.LBE72:
 380              	.LBE71:
 381              		.loc 5 42 51 is_stmt 0
 382 0250 93850400 		mv	a1,s1
 383 0254 17050000 		lla	a0,_ZZN15MemoryAllocator11getInstanceEvE8instance
 383      13050500 
 384 025c 97000000 		call	_ZN15MemoryAllocator11memory_freeEPv@plt
 384      E7800000 
 385              	.LVL29:
 386              	.L20:
 387              	.LBE70:
 388              	.LBE69:
  52:src/main.cpp  ****     return 0;
 389              		.loc 4 52 5 is_stmt 1
  53:src/main.cpp  **** }...
 390              		.loc 4 53 1 is_stmt 0
 391 0264 13050000 		li	a0,0
 392 0268 83308103 		ld	ra,56(sp)
 393              		.cfi_remember_state
GAS LISTING /tmp/cc30rIB7.s 			page 15


 394              		.cfi_restore 1
 395 026c 03340103 		ld	s0,48(sp)
 396              		.cfi_restore 8
 397              		.cfi_def_cfa 2, 64
 398 0270 83348102 		ld	s1,40(sp)
 399              		.cfi_restore 9
 400 0274 13010104 		addi	sp,sp,64
 401              		.cfi_def_cfa_offset 0
 402 0278 67800000 		jr	ra
 403              	.L26:
 404              		.cfi_restore_state
 405              	.LBB80:
 406              	.LBB66:
  10:src/../h/console.hpp ****         return instance;
 407              		.loc 3 10 24
 408 027c 17050000 		lla	a0,_ZZN7Console11getInstanceEvE8instance
 408      13050500 
 409              	.LEHB1:
 410 0284 97000000 		call	_ZN7ConsoleC1Ev@plt
 410      E7800000 
 411              	.LVL30:
 412              	.LEHE1:
 413 028c 93071000 		li	a5,1
 414 0290 17070000 		sb	a5,_ZGVZN7Console11getInstanceEvE8instance,a4
 414      2300F700 
 415 0298 6FF05FF9 		j	.L19
 416              	.LVL31:
 417              	.L27:
 418              	.LBE66:
 419              	.LBE80:
 420              	.LBB81:
 421              	.LBB79:
 422              	.LBB78:
 423              	.LBB77:
 424              	.LBB73:
 425              	.LBB74:
 426              	.LBB75:
  13:src/../h/../h/../h/../h/MemoryAllocator.hpp ****     }
  14:src/../h/../h/../h/../h/MemoryAllocator.hpp **** 
  15:src/../h/../h/../h/../h/MemoryAllocator.hpp ****     MemoryAllocator(const MemoryAllocator&) = delete;
  16:src/../h/../h/../h/../h/MemoryAllocator.hpp ****     void operator=(MemoryAllocator const&) = delete;
  17:src/../h/../h/../h/../h/MemoryAllocator.hpp **** 
  18:src/../h/../h/../h/../h/MemoryAllocator.hpp ****     void* memory_alloc (size_t);
  19:src/../h/../h/../h/../h/MemoryAllocator.hpp **** 
  20:src/../h/../h/../h/../h/MemoryAllocator.hpp ****     int memory_free (void*);
  21:src/../h/../h/../h/../h/MemoryAllocator.hpp ****     int get_mem_alloc_heap_start(){return this->heapStart;}
  22:src/../h/../h/../h/../h/MemoryAllocator.hpp ****     int get_mem_alloc_heap_end(){return this->heapEnd;}
  23:src/../h/../h/../h/../h/MemoryAllocator.hpp **** 
  24:src/../h/../h/../h/../h/MemoryAllocator.hpp **** private:
  25:src/../h/../h/../h/../h/MemoryAllocator.hpp **** 
  26:src/../h/../h/../h/../h/MemoryAllocator.hpp ****     struct FreeMem{
  27:src/../h/../h/../h/../h/MemoryAllocator.hpp ****         size_t size;
  28:src/../h/../h/../h/../h/MemoryAllocator.hpp ****         FreeMem* next;
  29:src/../h/../h/../h/../h/MemoryAllocator.hpp ****         FreeMem* prev;
  30:src/../h/../h/../h/../h/MemoryAllocator.hpp ****     };
  31:src/../h/../h/../h/../h/MemoryAllocator.hpp **** 
  32:src/../h/../h/../h/../h/MemoryAllocator.hpp ****     FreeMem* fmem_head = nullptr;
GAS LISTING /tmp/cc30rIB7.s 			page 16


  33:src/../h/../h/../h/../h/MemoryAllocator.hpp ****     size_t heapStart;
  34:src/../h/../h/../h/../h/MemoryAllocator.hpp ****     size_t heapEnd;
  35:src/../h/../h/../h/../h/MemoryAllocator.hpp **** 
  36:src/../h/../h/../h/../h/MemoryAllocator.hpp ****     MemoryAllocator(){
 427              		.loc 6 36 22
 428 029c 17060000 		lla	a2,_ZZN15MemoryAllocator11getInstanceEvE8instance
 428      13060600 
 429              	.LBB76:
  37:src/../h/../h/../h/../h/MemoryAllocator.hpp **** 
  38:src/../h/../h/../h/../h/MemoryAllocator.hpp ****         heapStart = (size_t)HEAP_START_ADDR + ((size_t)HEAP_END_ADDR - (size_t)HEAP_START_ADDR) / 8
 430              		.loc 6 38 9 is_stmt 1
 431              		.loc 6 38 70 is_stmt 0
 432 02a4 97070000 		la	a5,HEAP_END_ADDR
 432      83B70700 
 433 02ac 03B70700 		ld	a4,0(a5)
 434 02b0 97070000 		la	a5,HEAP_START_ADDR
 434      83B70700 
 435 02b8 83B70700 		ld	a5,0(a5)
 436 02bc B306F740 		sub	a3,a4,a5
 437              		.loc 6 38 97
 438 02c0 93D63600 		srli	a3,a3,3
 439              		.loc 6 38 45
 440 02c4 B387D700 		add	a5,a5,a3
 441              		.loc 6 38 101
 442 02c8 93871700 		addi	a5,a5,1
 443              		.loc 6 38 19
 444 02cc 2334F600 		sd	a5,8(a2)
  39:src/../h/../h/../h/../h/MemoryAllocator.hpp ****         heapEnd = (size_t)HEAP_END_ADDR - 1;
 445              		.loc 6 39 9 is_stmt 1
 446              		.loc 6 39 41 is_stmt 0
 447 02d0 1307F7FF 		addi	a4,a4,-1
 448              		.loc 6 39 17
 449 02d4 2338E600 		sd	a4,16(a2)
  40:src/../h/../h/../h/../h/MemoryAllocator.hpp **** 
  41:src/../h/../h/../h/../h/MemoryAllocator.hpp ****         size_t sizeInBlocks = (heapEnd - heapStart) / MEM_BLOCK_SIZE;
 450              		.loc 6 41 9 is_stmt 1
 451              		.loc 6 41 40 is_stmt 0
 452 02d8 3307F740 		sub	a4,a4,a5
 453              		.loc 6 41 16
 454 02dc 13576700 		srli	a4,a4,6
 455              	.LVL32:
  42:src/../h/../h/../h/../h/MemoryAllocator.hpp **** 
  43:src/../h/../h/../h/../h/MemoryAllocator.hpp ****         // poravnaj na prvu krstenu adresu
  44:src/../h/../h/../h/../h/MemoryAllocator.hpp ****         fmem_head = (FreeMem*)(heapStart + ((heapStart % MEM_BLOCK_SIZE != 0)?(MEM_BLOCK_SIZE - hea
 456              		.loc 6 44 9 is_stmt 1
 457              		.loc 6 44 56 is_stmt 0
 458 02e0 93F6F703 		andi	a3,a5,63
 459              		.loc 6 44 78
 460 02e4 63860600 		beqz	a3,.L22
 461 02e8 13060004 		li	a2,64
 462 02ec B306D640 		sub	a3,a2,a3
 463              	.L22:
 464              		.loc 6 44 42
 465 02f0 B387D700 		add	a5,a5,a3
 466              		.loc 6 44 19
 467 02f4 97060000 		sd	a5,_ZZN15MemoryAllocator11getInstanceEvE8instance,a3
 467      23B0F600 
GAS LISTING /tmp/cc30rIB7.s 			page 17


  45:src/../h/../h/../h/../h/MemoryAllocator.hpp **** 
  46:src/../h/../h/../h/../h/MemoryAllocator.hpp ****         // napravi node
  47:src/../h/../h/../h/../h/MemoryAllocator.hpp **** 
  48:src/../h/../h/../h/../h/MemoryAllocator.hpp ****         fmem_head->next = nullptr;
 468              		.loc 6 48 9 is_stmt 1
 469              		.loc 6 48 25 is_stmt 0
 470 02fc 23B40700 		sd	zero,8(a5)
  49:src/../h/../h/../h/../h/MemoryAllocator.hpp ****         fmem_head->prev = nullptr;
 471              		.loc 6 49 9 is_stmt 1
 472              		.loc 6 49 25 is_stmt 0
 473 0300 23B80700 		sd	zero,16(a5)
  50:src/../h/../h/../h/../h/MemoryAllocator.hpp ****         fmem_head->size = sizeInBlocks;
 474              		.loc 6 50 9 is_stmt 1
 475              		.loc 6 50 25 is_stmt 0
 476 0304 23B0E700 		sd	a4,0(a5)
 477              	.LVL33:
 478              	.LBE76:
 479              	.LBE75:
 480              	.LBE74:
 481              	.LBE73:
  11:src/../h/../h/../h/../h/MemoryAllocator.hpp ****         return instance;
 482              		.loc 6 11 32
 483 0308 93071000 		li	a5,1
 484 030c 17070000 		sb	a5,_ZGVZN15MemoryAllocator11getInstanceEvE8instance,a4
 484      2300F700 
 485 0314 6FF0DFF3 		j	.L21
 486              	.LBE77:
 487              	.LBE78:
 488              	.LBE79:
 489              	.LBE81:
 490              		.cfi_endproc
 491              	.LFE78:
 492              		.globl	__gxx_personality_v0
 493              		.section	.gcc_except_table,"a",@progbits
 494              	.LLSDA78:
 495 0000 FF       		.byte	0xff
 496 0001 FF       		.byte	0xff
 497 0002 03       		.byte	0x3
 498 0003 1A       		.byte	0x1a
 499 0004 00000000 		.4byte	.LEHB0-.LFB78
 500 0008 00000000 		.4byte	.LEHE0-.LEHB0
 501 000c 00000000 		.4byte	0
 502 0010 00       		.byte	0
 503 0011 00000000 		.4byte	.LEHB1-.LFB78
 504 0015 00000000 		.4byte	.LEHE1-.LEHB1
 505 0019 00000000 		.4byte	0
 506 001d 00       		.byte	0
 507              		.text
 509              		.weak	_ZGVZN7Console11getInstanceEvE8instance
 510              		.section	.bss._ZGVZN7Console11getInstanceEvE8instance,"awG",@nobits,_ZGVZN7Console11getInstanceEvE
 511              		.align	3
 514              	_ZGVZN7Console11getInstanceEvE8instance:
 515 0000 00000000 		.zero	8
 515      00000000 
 516              		.weak	_ZZN7Console11getInstanceEvE8instance
 517              		.section	.bss._ZZN7Console11getInstanceEvE8instance,"awG",@nobits,_ZZN7Console11getInstanceEvE8ins
 518              		.align	3
GAS LISTING /tmp/cc30rIB7.s 			page 18


 521              	_ZZN7Console11getInstanceEvE8instance:
 522 0000 00000000 		.zero	16
 522      00000000 
 522      00000000 
 522      00000000 
 523              		.weak	_ZGVZN15MemoryAllocator11getInstanceEvE8instance
 524              		.section	.bss._ZGVZN15MemoryAllocator11getInstanceEvE8instance,"awG",@nobits,_ZGVZN15MemoryAllocat
 525              		.align	3
 528              	_ZGVZN15MemoryAllocator11getInstanceEvE8instance:
 529 0000 00000000 		.zero	8
 529      00000000 
 530              		.weak	_ZZN15MemoryAllocator11getInstanceEvE8instance
 531              		.section	.bss._ZZN15MemoryAllocator11getInstanceEvE8instance,"awG",@nobits,_ZZN15MemoryAllocator11
 532              		.align	3
 535              	_ZZN15MemoryAllocator11getInstanceEvE8instance:
 536 0000 00000000 		.zero	24
 536      00000000 
 536      00000000 
 536      00000000 
 536      00000000 
 537              		.bss
 538              		.set	.LANCHOR0,. + 0
 541              	_ZL21is_user_main_finished:
 542 0000 00       		.zero	1
 543              		.text
 544              	.Letext0:
 545              		.file 7 "src/../lib/hw.h"
 546              		.file 8 "src/../h/../h/../h/semaphore.hpp"
 547              		.file 9 "src/../test/../h/../h/../h/TCB.hpp"
 548              		.file 10 "src/../test/../h/syscall_c.h"
 549              		.file 11 "src/../test/userMain.hpp"
 4737              		.align	3
 4740              	DW.ref.__gxx_personality_v0:
 4741 0000 00000000 		.dword	__gxx_personality_v0
 4741      00000000 
 4742              		.ident	"GCC: (Ubuntu 9.4.0-1ubuntu1~20.04) 9.4.0"
 4743              		.section	.note.GNU-stack,"",@progbits
GAS LISTING /tmp/cc30rIB7.s 			page 19

