GAS LISTING /tmp/cczjkVlp.s 			page 1


   1              		.file	"main.cpp"
   2              		.option pic
   3              		.option norelax
   4              		.text
   5              	.Ltext0:
   6              		.align	2
   7              		.globl	_Z13idle_functionPv
   9              	_Z13idle_functionPv:
  10              	.LFB73:
  11              		.file 1 "src/../h/fun.hpp"
   1:src/../h/fun.hpp **** #ifndef _fun_hpp_
   2:src/../h/fun.hpp **** #define _fun_hpp_
   3:src/../h/fun.hpp **** 
   4:src/../h/fun.hpp **** #include "../lib/hw.h"
   5:src/../h/fun.hpp **** #include "../h/console.hpp"
   6:src/../h/fun.hpp **** //#include "../test/printing.hpp"
   7:src/../h/fun.hpp **** #include "../h/riscv.hpp"
   8:src/../h/fun.hpp **** #include "../h/syscall_c.h"
   9:src/../h/fun.hpp **** #include "../test/userMain.hpp"
  10:src/../h/fun.hpp **** 
  11:src/../h/fun.hpp **** void idle_function(void* arg){
  12              		.loc 1 11 30
  13              		.cfi_startproc
  14              	.LVL0:
  15 0000 130101FF 		addi	sp,sp,-16
  16              		.cfi_def_cfa_offset 16
  17 0004 23341100 		sd	ra,8(sp)
  18 0008 23308100 		sd	s0,0(sp)
  19              		.cfi_offset 1, -8
  20              		.cfi_offset 8, -16
  21 000c 13040101 		addi	s0,sp,16
  22              		.cfi_def_cfa 8, 0
  23              	.LVL1:
  24              	.L2:
  12:src/../h/fun.hpp ****     while(1){
  25              		.loc 1 12 5 discriminator 1
  13:src/../h/fun.hpp ****         thread_dispatch();
  26              		.loc 1 13 9 discriminator 1
  27              		.loc 1 13 24 is_stmt 0 discriminator 1
  28 0010 97000000 		call	thread_dispatch@plt
  28      E7800000 
  29              	.LVL2:
  12:src/../h/fun.hpp ****     while(1){
  30              		.loc 1 12 5 is_stmt 1 discriminator 1
  31 0018 6FF09FFF 		j	.L2
  32              		.cfi_endproc
  33              	.LFE73:
  35              		.align	2
  36              		.globl	_Z13putc_functionPv
  38              	_Z13putc_functionPv:
  39              	.LFB74:
  14:src/../h/fun.hpp ****     }
  15:src/../h/fun.hpp **** }
  16:src/../h/fun.hpp **** 
  17:src/../h/fun.hpp **** void putc_function(void* arg){
  40              		.loc 1 17 30
  41              		.cfi_startproc
GAS LISTING /tmp/cczjkVlp.s 			page 2


  42              	.LVL3:
  43 001c 130101FE 		addi	sp,sp,-32
  44              		.cfi_def_cfa_offset 32
  45 0020 233C1100 		sd	ra,24(sp)
  46 0024 23388100 		sd	s0,16(sp)
  47 0028 23349100 		sd	s1,8(sp)
  48              		.cfi_offset 1, -8
  49              		.cfi_offset 8, -16
  50              		.cfi_offset 9, -24
  51 002c 13040102 		addi	s0,sp,32
  52              		.cfi_def_cfa 8, 0
  18:src/../h/fun.hpp ****     switch_to_priviledged();
  53              		.loc 1 18 5
  54              		.loc 1 18 26 is_stmt 0
  55 0030 97000000 		call	switch_to_priviledged@plt
  55      E7800000 
  56              	.LVL4:
  19:src/../h/fun.hpp ****     Riscv::mc_sstatus(Riscv::SSTATUS_SIE);
  57              		.loc 1 19 5 is_stmt 1
  58              	.LBB26:
  59              	.LBB27:
  60              		.file 2 "src/../h/riscv.hpp"
   1:src/../h/riscv.hpp **** #ifndef _riscv_hpp_
   2:src/../h/riscv.hpp **** #define _riscv_hpp_
   3:src/../h/riscv.hpp **** 
   4:src/../h/riscv.hpp **** #include "../lib/hw.h"
   5:src/../h/riscv.hpp **** 
   6:src/../h/riscv.hpp **** class Riscv
   7:src/../h/riscv.hpp **** {
   8:src/../h/riscv.hpp **** public:
   9:src/../h/riscv.hpp **** 
  10:src/../h/riscv.hpp ****     // u korisnicki
  11:src/../h/riscv.hpp ****     static void switch_to_user();
  12:src/../h/riscv.hpp **** 
  13:src/../h/riscv.hpp ****     // u privilegovani
  14:src/../h/riscv.hpp ****     static void switch_to_priviledged();
  15:src/../h/riscv.hpp **** 
  16:src/../h/riscv.hpp ****     // push x3..x31 registers onto stack
  17:src/../h/riscv.hpp ****     static void pushRegisters();
  18:src/../h/riscv.hpp **** 
  19:src/../h/riscv.hpp ****     // pop x3..x31 registers onto stack
  20:src/../h/riscv.hpp ****     static void popRegisters();
  21:src/../h/riscv.hpp **** 
  22:src/../h/riscv.hpp ****     // pop sstatus.spp and sstatus.spie bits (has to be a non inline function)
  23:src/../h/riscv.hpp ****     static void popSppSpie();
  24:src/../h/riscv.hpp **** 
  25:src/../h/riscv.hpp ****     // read register scause
  26:src/../h/riscv.hpp ****     static uint64 r_scause();
  27:src/../h/riscv.hpp **** 
  28:src/../h/riscv.hpp ****     // write register scause
  29:src/../h/riscv.hpp ****     static void w_scause(uint64 scause);
  30:src/../h/riscv.hpp **** 
  31:src/../h/riscv.hpp ****     // read register sepc
  32:src/../h/riscv.hpp ****     static uint64 r_sepc();
  33:src/../h/riscv.hpp **** 
  34:src/../h/riscv.hpp ****     // write register sepc
  35:src/../h/riscv.hpp ****     static void w_sepc(uint64 sepc);
GAS LISTING /tmp/cczjkVlp.s 			page 3


  36:src/../h/riscv.hpp **** 
  37:src/../h/riscv.hpp ****     // read register stvec
  38:src/../h/riscv.hpp ****     static uint64 r_stvec();
  39:src/../h/riscv.hpp **** 
  40:src/../h/riscv.hpp ****     // write register stvec
  41:src/../h/riscv.hpp ****     static void w_stvec(uint64 stvec);
  42:src/../h/riscv.hpp **** 
  43:src/../h/riscv.hpp ****     // read register stval
  44:src/../h/riscv.hpp ****     static uint64 r_stval();
  45:src/../h/riscv.hpp **** 
  46:src/../h/riscv.hpp ****     // write register stval
  47:src/../h/riscv.hpp ****     static void w_stval(uint64 stval);
  48:src/../h/riscv.hpp **** 
  49:src/../h/riscv.hpp ****     enum BitMaskSip
  50:src/../h/riscv.hpp ****     {
  51:src/../h/riscv.hpp ****         SIP_SSIP = (1 << 1),
  52:src/../h/riscv.hpp ****         SIP_STIP = (1 << 5),
  53:src/../h/riscv.hpp ****         SIP_SEIP = (1 << 9),
  54:src/../h/riscv.hpp ****     };
  55:src/../h/riscv.hpp **** 
  56:src/../h/riscv.hpp ****     // mask set register sip
  57:src/../h/riscv.hpp ****     static void ms_sip(uint64 mask);
  58:src/../h/riscv.hpp **** 
  59:src/../h/riscv.hpp ****     // mask clear register sip
  60:src/../h/riscv.hpp ****     static void mc_sip(uint64 mask);
  61:src/../h/riscv.hpp **** 
  62:src/../h/riscv.hpp ****     // read register sip
  63:src/../h/riscv.hpp ****     static uint64 r_sip();
  64:src/../h/riscv.hpp **** 
  65:src/../h/riscv.hpp ****     // write register sip
  66:src/../h/riscv.hpp ****     static void w_sip(uint64 sip);
  67:src/../h/riscv.hpp **** 
  68:src/../h/riscv.hpp ****     enum BitMaskSstatus
  69:src/../h/riscv.hpp ****     {
  70:src/../h/riscv.hpp ****         SSTATUS_SIE = (1 << 1),
  71:src/../h/riscv.hpp ****         SSTATUS_SPIE = (1 << 5),
  72:src/../h/riscv.hpp ****         SSTATUS_SPP = (1 << 8),
  73:src/../h/riscv.hpp ****     };
  74:src/../h/riscv.hpp **** 
  75:src/../h/riscv.hpp ****     // mask set register sstatus
  76:src/../h/riscv.hpp ****     static void ms_sstatus(uint64 mask);
  77:src/../h/riscv.hpp **** 
  78:src/../h/riscv.hpp ****     // mask clear register sstatus
  79:src/../h/riscv.hpp ****     static void mc_sstatus(uint64 mask);
  80:src/../h/riscv.hpp **** 
  81:src/../h/riscv.hpp ****     // read register sstatus
  82:src/../h/riscv.hpp ****     static uint64 r_sstatus();
  83:src/../h/riscv.hpp **** 
  84:src/../h/riscv.hpp ****     // write register sstatus
  85:src/../h/riscv.hpp ****     static void w_sstatus(uint64 sstatus);
  86:src/../h/riscv.hpp **** 
  87:src/../h/riscv.hpp ****     // supervisor trap
  88:src/../h/riscv.hpp ****     static void supervisorTrap();
  89:src/../h/riscv.hpp **** 
  90:src/../h/riscv.hpp **** private:
  91:src/../h/riscv.hpp **** 
  92:src/../h/riscv.hpp ****     // supervisor trap handler
GAS LISTING /tmp/cczjkVlp.s 			page 4


  93:src/../h/riscv.hpp ****     static void handleSupervisorTrap();
  94:src/../h/riscv.hpp **** 
  95:src/../h/riscv.hpp **** };
  96:src/../h/riscv.hpp **** 
  97:src/../h/riscv.hpp **** 
  98:src/../h/riscv.hpp **** inline uint64 Riscv::r_scause()
  99:src/../h/riscv.hpp **** {
 100:src/../h/riscv.hpp ****     uint64 volatile scause;
 101:src/../h/riscv.hpp ****     __asm__ volatile ("csrr %[scause], scause" : [scause] "=r"(scause));
 102:src/../h/riscv.hpp ****     return scause;
 103:src/../h/riscv.hpp **** }
 104:src/../h/riscv.hpp **** 
 105:src/../h/riscv.hpp **** inline void Riscv::w_scause(uint64 scause)
 106:src/../h/riscv.hpp **** {
 107:src/../h/riscv.hpp ****     __asm__ volatile ("csrw scause, %[scause]" : : [scause] "r"(scause));
 108:src/../h/riscv.hpp **** }
 109:src/../h/riscv.hpp **** 
 110:src/../h/riscv.hpp **** inline uint64 Riscv::r_sepc()
 111:src/../h/riscv.hpp **** {
 112:src/../h/riscv.hpp ****     uint64 volatile sepc;
 113:src/../h/riscv.hpp ****     __asm__ volatile ("csrr %[sepc], sepc" : [sepc] "=r"(sepc));
 114:src/../h/riscv.hpp ****     return sepc;
 115:src/../h/riscv.hpp **** }
 116:src/../h/riscv.hpp **** 
 117:src/../h/riscv.hpp **** inline void Riscv::w_sepc(uint64 sepc)
 118:src/../h/riscv.hpp **** {
 119:src/../h/riscv.hpp ****     __asm__ volatile ("csrw sepc, %[sepc]" : : [sepc] "r"(sepc));
 120:src/../h/riscv.hpp **** }
 121:src/../h/riscv.hpp **** 
 122:src/../h/riscv.hpp **** inline uint64 Riscv::r_stvec()
 123:src/../h/riscv.hpp **** {
 124:src/../h/riscv.hpp ****     uint64 volatile stvec;
 125:src/../h/riscv.hpp ****     __asm__ volatile ("csrr %[stvec], stvec" : [stvec] "=r"(stvec));
 126:src/../h/riscv.hpp ****     return stvec;
 127:src/../h/riscv.hpp **** }
 128:src/../h/riscv.hpp **** 
 129:src/../h/riscv.hpp **** inline void Riscv::w_stvec(uint64 stvec)
 130:src/../h/riscv.hpp **** {
 131:src/../h/riscv.hpp ****     __asm__ volatile ("csrw stvec, %[stvec]" : : [stvec] "r"(stvec));
 132:src/../h/riscv.hpp **** }
 133:src/../h/riscv.hpp **** 
 134:src/../h/riscv.hpp **** inline uint64 Riscv::r_stval()
 135:src/../h/riscv.hpp **** {
 136:src/../h/riscv.hpp ****     uint64 volatile stval;
 137:src/../h/riscv.hpp ****     __asm__ volatile ("csrr %[stval], stval" : [stval] "=r"(stval));
 138:src/../h/riscv.hpp ****     return stval;
 139:src/../h/riscv.hpp **** }
 140:src/../h/riscv.hpp **** 
 141:src/../h/riscv.hpp **** inline void Riscv::w_stval(uint64 stval)
 142:src/../h/riscv.hpp **** {
 143:src/../h/riscv.hpp ****     __asm__ volatile ("csrw stval, %[stval]" : : [stval] "r"(stval));
 144:src/../h/riscv.hpp **** }
 145:src/../h/riscv.hpp **** 
 146:src/../h/riscv.hpp **** inline void Riscv::ms_sip(uint64 mask)
 147:src/../h/riscv.hpp **** {
 148:src/../h/riscv.hpp ****     __asm__ volatile ("csrs sip, %[mask]" : : [mask] "r"(mask));
 149:src/../h/riscv.hpp **** }
GAS LISTING /tmp/cczjkVlp.s 			page 5


 150:src/../h/riscv.hpp **** 
 151:src/../h/riscv.hpp **** inline void Riscv::mc_sip(uint64 mask)
 152:src/../h/riscv.hpp **** {
 153:src/../h/riscv.hpp ****     __asm__ volatile ("csrc sip, %[mask]" : : [mask] "r"(mask));
 154:src/../h/riscv.hpp **** }
 155:src/../h/riscv.hpp **** 
 156:src/../h/riscv.hpp **** inline uint64 Riscv::r_sip()
 157:src/../h/riscv.hpp **** {
 158:src/../h/riscv.hpp ****     uint64 volatile sip;
 159:src/../h/riscv.hpp ****     __asm__ volatile ("csrr %[sip], sip" : [sip] "=r"(sip));
 160:src/../h/riscv.hpp ****     return sip;
 161:src/../h/riscv.hpp **** }
 162:src/../h/riscv.hpp **** 
 163:src/../h/riscv.hpp **** inline void Riscv::w_sip(uint64 sip)
 164:src/../h/riscv.hpp **** {
 165:src/../h/riscv.hpp ****     __asm__ volatile ("csrw sip, %[sip]" : : [sip] "r"(sip));
 166:src/../h/riscv.hpp **** }
 167:src/../h/riscv.hpp **** 
 168:src/../h/riscv.hpp **** inline void Riscv::ms_sstatus(uint64 mask)
 169:src/../h/riscv.hpp **** {
 170:src/../h/riscv.hpp ****     __asm__ volatile ("csrs sstatus, %[mask]" : : [mask] "r"(mask));
 171:src/../h/riscv.hpp **** }
 172:src/../h/riscv.hpp **** 
 173:src/../h/riscv.hpp **** inline void Riscv::mc_sstatus(uint64 mask)
 174:src/../h/riscv.hpp **** {
 175:src/../h/riscv.hpp ****     __asm__ volatile ("csrc sstatus, %[mask]" : : [mask] "r"(mask));
  61              		.loc 2 175 5
  62              		.loc 2 175 68 is_stmt 0
  63 0038 93072000 		li	a5,2
  64              	#APP
  65              	# 175 "src/../h/riscv.hpp" 1
 176              	}
  66              		csrc sstatus, a5
  67              	# 0 "" 2
  68              		.loc 2 176 1
  69              	#NO_APP
  70 0040 6F000004 		j	.L5
  71              	.LVL5:
  72              	.L10:
  73              	.LBE27:
  74              	.LBE26:
  75              	.LBB28:
  76              	.LBB29:
  77              		.file 3 "src/../h/console.hpp"
   1:src/../h/console.hpp **** #ifndef _console_hpp_
   2:src/../h/console.hpp **** #define _console_hpp_
   3:src/../h/console.hpp **** 
   4:src/../h/console.hpp **** #include "../h/my_buffer.hpp"
   5:src/../h/console.hpp **** 
   6:src/../h/console.hpp **** class Console{
   7:src/../h/console.hpp **** public:
   8:src/../h/console.hpp **** 
   9:src/../h/console.hpp ****     static Console& getInstance(){
  10:src/../h/console.hpp ****         static Console instance;
  78              		.loc 3 10 24
  79 0044 17050000 		lla	a0,_ZZN7Console11getInstanceEvE8instance
  79      13050500 
GAS LISTING /tmp/cczjkVlp.s 			page 6


  80 004c 97000000 		call	_ZN7ConsoleC1Ev@plt
  80      E7800000 
  81              	.LVL6:
  82 0054 93071000 		li	a5,1
  83 0058 17070000 		sb	a5,_ZGVZN7Console11getInstanceEvE8instance,a4
  83      2300F700 
  84              	.L7:
  11:src/../h/console.hpp ****         return instance;
  85              		.loc 3 11 9 is_stmt 1
  86              	.LBE29:
  87              	.LBE28:
  20:src/../h/fun.hpp ****     while(1){
  21:src/../h/fun.hpp ****         while((*((char*)CONSOLE_STATUS) & CONSOLE_TX_STATUS_BIT)
  22:src/../h/fun.hpp ****               /*&& Console::getInstance().get_output_size()*/) {
  23:src/../h/fun.hpp ****             *((char*)CONSOLE_TX_DATA) = Console::getInstance().get_from_output();
  88              		.loc 1 23 13 is_stmt 0
  89 0060 97070000 		la	a5,CONSOLE_TX_DATA
  89      83B70700 
  90 0068 83B40700 		ld	s1,0(a5)
  91              		.loc 1 23 79
  92 006c 17050000 		lla	a0,_ZZN7Console11getInstanceEvE8instance
  92      13050500 
  93 0074 97000000 		call	_ZN7Console15get_from_outputEv@plt
  93      E7800000 
  94              	.LVL7:
  95              		.loc 1 23 39
  96 007c 2380A400 		sb	a0,0(s1)
  97              	.L5:
  20:src/../h/fun.hpp ****     while(1){
  98              		.loc 1 20 5 is_stmt 1
  21:src/../h/fun.hpp ****               /*&& Console::getInstance().get_output_size()*/) {
  99              		.loc 1 21 9
  21:src/../h/fun.hpp ****               /*&& Console::getInstance().get_output_size()*/) {
 100              		.loc 1 21 64
  21:src/../h/fun.hpp ****               /*&& Console::getInstance().get_output_size()*/) {
 101              		.loc 1 21 16 is_stmt 0
 102 0080 97070000 		la	a5,CONSOLE_STATUS
 102      83B70700 
 103 0088 83B70700 		ld	a5,0(a5)
 104 008c 83C70700 		lbu	a5,0(a5)
  21:src/../h/fun.hpp ****               /*&& Console::getInstance().get_output_size()*/) {
 105              		.loc 1 21 64
 106 0090 93F70702 		andi	a5,a5,32
 107 0094 638A0700 		beqz	a5,.L6
 108              		.loc 1 23 13 is_stmt 1
 109              	.LBB31:
 110              	.LBB30:
  10:src/../h/console.hpp ****         return instance;
 111              		.loc 3 10 9
  10:src/../h/console.hpp ****         return instance;
 112              		.loc 3 10 24 is_stmt 0
 113 0098 97070000 		lbu	a5,_ZGVZN7Console11getInstanceEvE8instance
 113      83C70700 
 114 00a0 E39007FC 		bnez	a5,.L7
 115 00a4 6FF01FFA 		j	.L10
 116              	.L6:
 117              	.LBE30:
GAS LISTING /tmp/cczjkVlp.s 			page 7


 118              	.LBE31:
  24:src/../h/fun.hpp ****         }
  25:src/../h/fun.hpp ****         thread_dispatch();
 119              		.loc 1 25 9 is_stmt 1
 120              		.loc 1 25 24 is_stmt 0
 121 00a8 97000000 		call	thread_dispatch@plt
 121      E7800000 
 122              	.LVL8:
  20:src/../h/fun.hpp ****         while((*((char*)CONSOLE_STATUS) & CONSOLE_TX_STATUS_BIT)
 123              		.loc 1 20 5 is_stmt 1
  21:src/../h/fun.hpp ****               /*&& Console::getInstance().get_output_size()*/) {
 124              		.loc 1 21 9 is_stmt 0
 125 00b0 6FF01FFD 		j	.L5
 126              		.cfi_endproc
 127              	.LFE74:
 129              		.align	2
 130              		.globl	_Z17user_main_wrapperPv
 132              	_Z17user_main_wrapperPv:
 133              	.LFB75:
  26:src/../h/fun.hpp ****     }
  27:src/../h/fun.hpp **** }
  28:src/../h/fun.hpp **** 
  29:src/../h/fun.hpp **** static bool is_user_main_finished = false;
  30:src/../h/fun.hpp **** void user_main_wrapper(void* arg){
 134              		.loc 1 30 34 is_stmt 1
 135              		.cfi_startproc
 136              	.LVL9:
 137 00b4 130101FF 		addi	sp,sp,-16
 138              		.cfi_def_cfa_offset 16
 139 00b8 23341100 		sd	ra,8(sp)
 140 00bc 23308100 		sd	s0,0(sp)
 141              		.cfi_offset 1, -8
 142              		.cfi_offset 8, -16
 143 00c0 13040101 		addi	s0,sp,16
 144              		.cfi_def_cfa 8, 0
  31:src/../h/fun.hpp ****     switch_to_user();
 145              		.loc 1 31 5
 146              		.loc 1 31 19 is_stmt 0
 147 00c4 97000000 		call	switch_to_user@plt
 147      E7800000 
 148              	.LVL10:
  32:src/../h/fun.hpp ****     userMain();
 149              		.loc 1 32 5 is_stmt 1
 150              		.loc 1 32 13 is_stmt 0
 151 00cc 97000000 		call	_Z8userMainv@plt
 151      E7800000 
 152              	.LVL11:
  33:src/../h/fun.hpp ****     switch_to_priviledged();
 153              		.loc 1 33 5 is_stmt 1
 154              		.loc 1 33 26 is_stmt 0
 155 00d4 97000000 		call	switch_to_priviledged@plt
 155      E7800000 
 156              	.LVL12:
  34:src/../h/fun.hpp ****     is_user_main_finished = true;
 157              		.loc 1 34 5 is_stmt 1
 158              		.loc 1 34 27 is_stmt 0
 159 00dc 93071000 		li	a5,1
GAS LISTING /tmp/cczjkVlp.s 			page 8


 160 00e0 17070000 		sb	a5,.LANCHOR0,a4
 160      2300F700 
  35:src/../h/fun.hpp **** }
 161              		.loc 1 35 1
 162 00e8 83308100 		ld	ra,8(sp)
 163              		.cfi_restore 1
 164 00ec 03340100 		ld	s0,0(sp)
 165              		.cfi_restore 8
 166              		.cfi_def_cfa 2, 16
 167 00f0 13010101 		addi	sp,sp,16
 168              		.cfi_def_cfa_offset 0
 169 00f4 67800000 		jr	ra
 170              		.cfi_endproc
 171              	.LFE75:
 173              		.align	2
 174              		.globl	main
 176              	main:
 177              	.LFB76:
 178              		.file 4 "src/main.cpp"
   1:src/main.cpp  **** 
   2:src/main.cpp  **** #include "../lib/hw.h"
   3:src/main.cpp  **** #include "../h/console.hpp"
   4:src/main.cpp  **** #include "../test/printing.hpp"
   5:src/main.cpp  **** #include "../h/riscv.hpp"
   6:src/main.cpp  **** #include "../h/syscall_c.h"
   7:src/main.cpp  **** #include "../test/userMain.hpp"
   8:src/main.cpp  **** #include "../h/fun.hpp"
   9:src/main.cpp  **** 
  10:src/main.cpp  **** 
  11:src/main.cpp  **** 
  12:src/main.cpp  **** int main(){
 179              		.loc 4 12 11 is_stmt 1
 180              		.cfi_startproc
 181              		.cfi_personality 0x9b,DW.ref.__gxx_personality_v0
 182              		.cfi_lsda 0x1b,.LLSDA76
 183 00f8 130101FC 		addi	sp,sp,-64
 184              		.cfi_def_cfa_offset 64
 185 00fc 233C1102 		sd	ra,56(sp)
 186 0100 23388102 		sd	s0,48(sp)
 187 0104 23349102 		sd	s1,40(sp)
 188              		.cfi_offset 1, -8
 189              		.cfi_offset 8, -16
 190              		.cfi_offset 9, -24
 191 0108 13040104 		addi	s0,sp,64
 192              		.cfi_def_cfa 8, 0
  13:src/main.cpp  **** 
  14:src/main.cpp  ****     // ############################################################################################
  15:src/main.cpp  ****     // upis u stvec
  16:src/main.cpp  ****     uint64 address = reinterpret_cast<uint64>(&Riscv::supervisorTrap);
 193              		.loc 4 16 5
 194              		.loc 4 16 12 is_stmt 0
 195 010c 97070000 		la	a5,_ZN5Riscv14supervisorTrapEv
 195      83B70700 
 196              	.LVL13:
  17:src/main.cpp  ****     Riscv::w_stvec(address);
 197              		.loc 4 17 5 is_stmt 1
 198              	.LBB53:
GAS LISTING /tmp/cczjkVlp.s 			page 9


 199              	.LBB54:
 131:src/../h/riscv.hpp **** }
 200              		.loc 2 131 5
 131:src/../h/riscv.hpp **** }
 201              		.loc 2 131 69 is_stmt 0
 202              	#APP
 203              	# 131 "src/../h/riscv.hpp" 1
 204              		csrw stvec, a5
 205              	# 0 "" 2
 206              	.LVL14:
 207              	#NO_APP
 208              	.LBE54:
 209              	.LBE53:
  18:src/main.cpp  **** 
  19:src/main.cpp  ****     // kreiranje main niti
  20:src/main.cpp  ****     thread_t mainThread = nullptr;
 210              		.loc 4 20 5 is_stmt 1
 211              		.loc 4 20 14 is_stmt 0
 212 0118 233C04FC 		sd	zero,-40(s0)
  21:src/main.cpp  ****     thread_create(&mainThread, nullptr, nullptr);
 213              		.loc 4 21 5 is_stmt 1
 214              		.loc 4 21 18 is_stmt 0
 215 011c 13060000 		li	a2,0
 216 0120 93050000 		li	a1,0
 217 0124 130584FD 		addi	a0,s0,-40
 218              	.LEHB0:
 219 0128 97000000 		call	thread_create@plt
 219      E7800000 
 220              	.LVL15:
  22:src/main.cpp  ****     TCB::running = (TCB*)mainThread;
 221              		.loc 4 22 5 is_stmt 1
 222              		.loc 4 22 18 is_stmt 0
 223 0130 97070000 		la	a5,_ZN3TCB7runningE
 223      83B70700 
 224 0138 033784FD 		ld	a4,-40(s0)
 225 013c 23B0E700 		sd	a4,0(a5)
  23:src/main.cpp  **** 
  24:src/main.cpp  ****     // kreiranje idle niti
  25:src/main.cpp  ****     thread_create((thread_t*)&TCB::idle, &idle_function, nullptr);
 226              		.loc 4 25 5 is_stmt 1
 227              		.loc 4 25 18 is_stmt 0
 228 0140 13060000 		li	a2,0
 229 0144 97050000 		lla	a1,_Z13idle_functionPv
 229      93850500 
 230 014c 17050000 		la	a0,_ZN3TCB4idleE
 230      03350500 
 231 0154 97000000 		call	thread_create@plt
 231      E7800000 
 232              	.LVL16:
  26:src/main.cpp  **** 
  27:src/main.cpp  ****     // kreiranje userMain niti
  28:src/main.cpp  **** //    thread_t userMainThread = nullptr;
  29:src/main.cpp  **** //    thread_create(&userMainThread, &userMain, nullptr);
  30:src/main.cpp  **** 
  31:src/main.cpp  ****     thread_t userMainThread = nullptr;
 233              		.loc 4 31 5 is_stmt 1
 234              		.loc 4 31 14 is_stmt 0
GAS LISTING /tmp/cczjkVlp.s 			page 10


 235 015c 233804FC 		sd	zero,-48(s0)
  32:src/main.cpp  ****     thread_create(&userMainThread, &user_main_wrapper, nullptr);
 236              		.loc 4 32 5 is_stmt 1
 237              		.loc 4 32 18 is_stmt 0
 238 0160 13060000 		li	a2,0
 239 0164 97050000 		lla	a1,_Z17user_main_wrapperPv
 239      93850500 
 240 016c 130504FD 		addi	a0,s0,-48
 241 0170 97000000 		call	thread_create@plt
 241      E7800000 
 242              	.LVL17:
  33:src/main.cpp  **** 
  34:src/main.cpp  ****     // kreiranje niti za ispis
  35:src/main.cpp  ****     thread_t consoleWriter = nullptr;
 243              		.loc 4 35 5 is_stmt 1
 244              		.loc 4 35 14 is_stmt 0
 245 0178 233404FC 		sd	zero,-56(s0)
  36:src/main.cpp  ****     thread_create(&consoleWriter, &putc_function, nullptr);
 246              		.loc 4 36 5 is_stmt 1
 247              		.loc 4 36 18 is_stmt 0
 248 017c 13060000 		li	a2,0
 249 0180 97050000 		lla	a1,_Z13putc_functionPv
 249      93850500 
 250 0188 130584FC 		addi	a0,s0,-56
 251 018c 97000000 		call	thread_create@plt
 251      E7800000 
 252              	.LVL18:
  37:src/main.cpp  ****     Console::getInstance();
 253              		.loc 4 37 5 is_stmt 1
 254              	.LBB55:
 255              	.LBB56:
  10:src/../h/console.hpp ****         return instance;
 256              		.loc 3 10 9
  10:src/../h/console.hpp ****         return instance;
 257              		.loc 3 10 24 is_stmt 0
 258 0194 97070000 		lbu	a5,_ZGVZN7Console11getInstanceEvE8instance
 258      83C70700 
 259 019c 63880700 		beqz	a5,.L24
 260              	.L14:
 261              		.loc 3 11 9 is_stmt 1
 262              	.LBE56:
 263              	.LBE55:
  38:src/main.cpp  **** 
  39:src/main.cpp  ****     Riscv::ms_sstatus(Riscv::SSTATUS_SIE);
 264              		.loc 4 39 5
 265              	.LVL19:
 266              	.LBB58:
 267              	.LBB59:
 170:src/../h/riscv.hpp **** }
 268              		.loc 2 170 5
 170:src/../h/riscv.hpp **** }
 269              		.loc 2 170 68 is_stmt 0
 270 01a0 93072000 		li	a5,2
 271              	#APP
 272              	# 170 "src/../h/riscv.hpp" 1
 171:src/../h/riscv.hpp **** 
 273              		csrs sstatus, a5
GAS LISTING /tmp/cczjkVlp.s 			page 11


 274              	# 0 "" 2
 275              		.loc 2 171 1
 276              	#NO_APP
 277 01a8 6F00C005 		j	.L18
 278              	.LVL20:
 279              	.L24:
 280              	.LBE59:
 281              	.LBE58:
 282              	.LBB60:
 283              	.LBB57:
  10:src/../h/console.hpp ****         return instance;
 284              		.loc 3 10 24
 285 01ac 17050000 		lla	a0,_ZZN7Console11getInstanceEvE8instance
 285      13050500 
 286 01b4 97000000 		call	_ZN7ConsoleC1Ev@plt
 286      E7800000 
 287              	.LVL21:
 288 01bc 93071000 		li	a5,1
 289 01c0 17070000 		sb	a5,_ZGVZN7Console11getInstanceEvE8instance,a4
 289      2300F700 
 290 01c8 6FF09FFD 		j	.L14
 291              	.L25:
 292              	.LBE57:
 293              	.LBE60:
 294              	.LBB61:
 295              	.LBB62:
 296 01cc 17050000 		lla	a0,_ZZN7Console11getInstanceEvE8instance
 296      13050500 
 297 01d4 97000000 		call	_ZN7ConsoleC1Ev@plt
 297      E7800000 
 298              	.LVL22:
 299 01dc 93071000 		li	a5,1
 300 01e0 17070000 		sb	a5,_ZGVZN7Console11getInstanceEvE8instance,a4
 300      2300F700 
 301              	.L16:
 302              		.loc 3 11 9 is_stmt 1
 303              	.LVL23:
 304              	.LBE62:
 305              	.LBE61:
 306              	.LBB64:
 307              	.LBB65:
  12:src/../h/console.hpp ****     }
  13:src/../h/console.hpp **** 
  14:src/../h/console.hpp ****     Console(const Console&) = delete;
  15:src/../h/console.hpp ****     void operator=(Console const&) = delete;
  16:src/../h/console.hpp **** 
  17:src/../h/console.hpp ****     void put_in_input(char c);
  18:src/../h/console.hpp ****     char get_from_input();
  19:src/../h/console.hpp ****     void put_in_output(char c);
  20:src/../h/console.hpp ****     char get_from_output();
  21:src/../h/console.hpp ****     int get_output_size(){ return output_buffer->getCnt(); }
 308              		.loc 3 21 28
 309              		.loc 3 21 56 is_stmt 0
 310 01e8 17050000 		ld	a0,_ZZN7Console11getInstanceEvE8instance+8
 310      03350500 
 311 01f0 97000000 		call	_ZN8MyBuffer6getCntEv@plt
 311      E7800000 
GAS LISTING /tmp/cczjkVlp.s 			page 12


 312              	.LVL24:
 313              	.LBE65:
 314              	.LBE64:
  40:src/main.cpp  **** 
  41:src/main.cpp  ****     // ako sam obrisao userMain pristupam nepostojecoj strukturi
  42:src/main.cpp  **** //    while(!((TCB*)userMainThread)->is_finished()){
  43:src/main.cpp  **** //        thread_dispatch();
  44:src/main.cpp  **** //    }
  45:src/main.cpp  **** 
  46:src/main.cpp  ****     while(!is_user_main_finished || Console::getInstance().get_output_size()){
 315              		.loc 4 46 34
 316 01f8 63040502 		beqz	a0,.L17
 317              	.L15:
  47:src/main.cpp  ****         thread_dispatch();
 318              		.loc 4 47 9 is_stmt 1 discriminator 5
 319              		.loc 4 47 24 is_stmt 0 discriminator 5
 320 01fc 97000000 		call	thread_dispatch@plt
 320      E7800000 
 321              	.LVL25:
 322              	.LEHE0:
 323              	.L18:
  46:src/main.cpp  ****         thread_dispatch();
 324              		.loc 4 46 5 is_stmt 1
  46:src/main.cpp  ****         thread_dispatch();
 325              		.loc 4 46 34
  46:src/main.cpp  ****         thread_dispatch();
 326              		.loc 4 46 11 is_stmt 0
 327 0204 97070000 		lbu	a5,.LANCHOR0
 327      83C70700 
  46:src/main.cpp  ****         thread_dispatch();
 328              		.loc 4 46 34
 329 020c E38807FE 		beqz	a5,.L15
 330              	.LBB66:
 331              	.LBB63:
  10:src/../h/console.hpp ****         return instance;
 332              		.loc 3 10 9 is_stmt 1
  10:src/../h/console.hpp ****         return instance;
 333              		.loc 3 10 24 is_stmt 0
 334 0210 97070000 		lbu	a5,_ZGVZN7Console11getInstanceEvE8instance
 334      83C70700 
 335 0218 E39807FC 		bnez	a5,.L16
 336 021c 6FF01FFB 		j	.L25
 337              	.L17:
 338              	.LBE63:
 339              	.LBE66:
  48:src/main.cpp  ****     }
  49:src/main.cpp  **** 
  50:src/main.cpp  **** 
  51:src/main.cpp  ****     delete Console::getInstance().get_input_buff();
 340              		.loc 4 51 5 is_stmt 1
 341              	.LBB67:
 342              	.LBB68:
  10:src/../h/console.hpp ****         return instance;
 343              		.loc 3 10 9
  10:src/../h/console.hpp ****         return instance;
 344              		.loc 3 10 24 is_stmt 0
 345 0220 97070000 		lbu	a5,_ZGVZN7Console11getInstanceEvE8instance
GAS LISTING /tmp/cczjkVlp.s 			page 13


 345      83C70700 
 346 0228 6386070A 		beqz	a5,.L26
 347              	.L19:
  11:src/../h/console.hpp ****     }
 348              		.loc 3 11 9 is_stmt 1
 349              	.LVL26:
 350              	.LBE68:
 351              	.LBE67:
 352              	.LBB70:
 353              	.LBB71:
  22:src/../h/console.hpp ****     int get_input_size(){ return input_buffer->getCnt(); }
  23:src/../h/console.hpp **** 
  24:src/../h/console.hpp ****     MyBuffer* get_input_buff(){return input_buffer;}
 354              		.loc 3 24 32
 355              		.loc 3 24 39 is_stmt 0
 356 022c 97040000 		ld	s1,_ZZN7Console11getInstanceEvE8instance
 356      83B40400 
 357              	.LVL27:
 358              	.LBE71:
 359              	.LBE70:
 360              		.loc 4 51 51
 361 0234 63840408 		beqz	s1,.L20
 362              		.loc 4 51 50 discriminator 2
 363 0238 13850400 		mv	a0,s1
 364 023c 97000000 		call	_ZN8MyBufferD1Ev@plt
 364      E7800000 
 365              	.LVL28:
 366              	.LBB72:
 367              	.LBB73:
 368              		.file 5 "src/../h/../h/my_buffer.hpp"
   1:src/../h/../h/my_buffer.hpp **** #ifndef _my_buffer_hpp_
   2:src/../h/../h/my_buffer.hpp **** #define _my_buffer_hpp_
   3:src/../h/../h/my_buffer.hpp **** 
   4:src/../h/../h/my_buffer.hpp **** #include "../h/semaphore.hpp"
   5:src/../h/../h/my_buffer.hpp **** #include "../h/MemoryAllocator.hpp"
   6:src/../h/../h/my_buffer.hpp **** #include "../lib/hw.h"
   7:src/../h/../h/my_buffer.hpp **** 
   8:src/../h/../h/my_buffer.hpp **** class MyBuffer {
   9:src/../h/../h/my_buffer.hpp **** private:
  10:src/../h/../h/my_buffer.hpp ****     int cap;
  11:src/../h/../h/my_buffer.hpp ****     int *buffer;
  12:src/../h/../h/my_buffer.hpp ****     int head, tail;
  13:src/../h/../h/my_buffer.hpp **** 
  14:src/../h/../h/my_buffer.hpp ****     MySemaphore* spaceAvailable;
  15:src/../h/../h/my_buffer.hpp ****     MySemaphore* itemAvailable;
  16:src/../h/../h/my_buffer.hpp ****     MySemaphore* mutexHead;
  17:src/../h/../h/my_buffer.hpp ****     MySemaphore* mutexTail;
  18:src/../h/../h/my_buffer.hpp **** 
  19:src/../h/../h/my_buffer.hpp **** 
  20:src/../h/../h/my_buffer.hpp **** 
  21:src/../h/../h/my_buffer.hpp **** public:
  22:src/../h/../h/my_buffer.hpp ****     MyBuffer(int _cap);
  23:src/../h/../h/my_buffer.hpp ****     ~MyBuffer();
  24:src/../h/../h/my_buffer.hpp **** 
  25:src/../h/../h/my_buffer.hpp ****     void put(int val);
  26:src/../h/../h/my_buffer.hpp ****     int get();
  27:src/../h/../h/my_buffer.hpp **** 
GAS LISTING /tmp/cczjkVlp.s 			page 14


  28:src/../h/../h/my_buffer.hpp ****     int getCnt();
  29:src/../h/../h/my_buffer.hpp **** 
  30:src/../h/../h/my_buffer.hpp ****     // operatori
  31:src/../h/../h/my_buffer.hpp ****     void *operator new(uint64 n){
  32:src/../h/../h/my_buffer.hpp ****         uint64 ssize = (n + MEM_BLOCK_SIZE - 1) / MEM_BLOCK_SIZE;
  33:src/../h/../h/my_buffer.hpp ****         return MemoryAllocator::getInstance().memory_alloc(ssize);
  34:src/../h/../h/my_buffer.hpp ****     }
  35:src/../h/../h/my_buffer.hpp **** 
  36:src/../h/../h/my_buffer.hpp ****     void *operator new[](uint64 n){
  37:src/../h/../h/my_buffer.hpp ****         uint64 ssize = (n + MEM_BLOCK_SIZE - 1) / MEM_BLOCK_SIZE;
  38:src/../h/../h/my_buffer.hpp ****         return MemoryAllocator::getInstance().memory_alloc(ssize);
  39:src/../h/../h/my_buffer.hpp ****     }
  40:src/../h/../h/my_buffer.hpp **** 
  41:src/../h/../h/my_buffer.hpp ****     void operator delete(void* p)noexcept{
  42:src/../h/../h/my_buffer.hpp ****         MemoryAllocator::getInstance().memory_free(p);
 369              		.loc 5 42 9 is_stmt 1 discriminator 2
 370              	.LBB74:
 371              	.LBB75:
 372              		.file 6 "src/../h/../h/../h/../h/MemoryAllocator.hpp"
   1:src/../h/../h/../h/../h/MemoryAllocator.hpp **** #ifndef _memory_allocator_hpp_
   2:src/../h/../h/../h/../h/MemoryAllocator.hpp **** #define _memory_allocator_hpp_
   3:src/../h/../h/../h/../h/MemoryAllocator.hpp **** 
   4:src/../h/../h/../h/../h/MemoryAllocator.hpp **** #include "../lib/hw.h"
   5:src/../h/../h/../h/../h/MemoryAllocator.hpp **** 
   6:src/../h/../h/../h/../h/MemoryAllocator.hpp **** class MemoryAllocator{
   7:src/../h/../h/../h/../h/MemoryAllocator.hpp **** public:
   8:src/../h/../h/../h/../h/MemoryAllocator.hpp **** 
   9:src/../h/../h/../h/../h/MemoryAllocator.hpp ****     // dodaj instancu
  10:src/../h/../h/../h/../h/MemoryAllocator.hpp ****     static MemoryAllocator& getInstance(){
  11:src/../h/../h/../h/../h/MemoryAllocator.hpp ****         static MemoryAllocator instance;
 373              		.loc 6 11 9 discriminator 2
 374              		.loc 6 11 32 is_stmt 0 discriminator 2
 375 0244 97070000 		lbu	a5,_ZGVZN15MemoryAllocator11getInstanceEvE8instance
 375      83C70700 
 376 024c 639E0704 		bnez	a5,.L21
 377              	.LVL29:
 378              	.LBB76:
 379              	.LBB77:
 380              	.LBB78:
  12:src/../h/../h/../h/../h/MemoryAllocator.hpp ****         return instance;
  13:src/../h/../h/../h/../h/MemoryAllocator.hpp ****     }
  14:src/../h/../h/../h/../h/MemoryAllocator.hpp **** 
  15:src/../h/../h/../h/../h/MemoryAllocator.hpp ****     MemoryAllocator(const MemoryAllocator&) = delete;
  16:src/../h/../h/../h/../h/MemoryAllocator.hpp ****     void operator=(MemoryAllocator const&) = delete;
  17:src/../h/../h/../h/../h/MemoryAllocator.hpp **** 
  18:src/../h/../h/../h/../h/MemoryAllocator.hpp ****     void* memory_alloc (size_t);
  19:src/../h/../h/../h/../h/MemoryAllocator.hpp **** 
  20:src/../h/../h/../h/../h/MemoryAllocator.hpp ****     int memory_free (void*);
  21:src/../h/../h/../h/../h/MemoryAllocator.hpp **** 
  22:src/../h/../h/../h/../h/MemoryAllocator.hpp **** private:
  23:src/../h/../h/../h/../h/MemoryAllocator.hpp **** 
  24:src/../h/../h/../h/../h/MemoryAllocator.hpp ****     struct FreeMem{
  25:src/../h/../h/../h/../h/MemoryAllocator.hpp ****         size_t size;
  26:src/../h/../h/../h/../h/MemoryAllocator.hpp ****         FreeMem* next;
  27:src/../h/../h/../h/../h/MemoryAllocator.hpp ****         FreeMem* prev;
  28:src/../h/../h/../h/../h/MemoryAllocator.hpp ****     };
  29:src/../h/../h/../h/../h/MemoryAllocator.hpp **** 
GAS LISTING /tmp/cczjkVlp.s 			page 15


  30:src/../h/../h/../h/../h/MemoryAllocator.hpp ****     FreeMem* fmem_head = nullptr;
  31:src/../h/../h/../h/../h/MemoryAllocator.hpp **** 
  32:src/../h/../h/../h/../h/MemoryAllocator.hpp ****     MemoryAllocator(){
  33:src/../h/../h/../h/../h/MemoryAllocator.hpp **** 
  34:src/../h/../h/../h/../h/MemoryAllocator.hpp ****         size_t heapStart = (size_t)HEAP_START_ADDR;
 381              		.loc 6 34 9 is_stmt 1
 382              		.loc 6 34 16 is_stmt 0
 383 0250 97070000 		la	a5,HEAP_START_ADDR
 383      83B70700 
 384 0258 83B70700 		ld	a5,0(a5)
 385              	.LVL30:
  35:src/../h/../h/../h/../h/MemoryAllocator.hpp ****         size_t heapEnd = (size_t)HEAP_END_ADDR - 1;
 386              		.loc 6 35 9 is_stmt 1
 387              		.loc 6 35 48 is_stmt 0
 388 025c 17070000 		la	a4,HEAP_END_ADDR
 388      03370700 
 389 0264 03370700 		ld	a4,0(a4)
 390              		.loc 6 35 16
 391 0268 1307F7FF 		addi	a4,a4,-1
 392              	.LVL31:
  36:src/../h/../h/../h/../h/MemoryAllocator.hpp **** 
  37:src/../h/../h/../h/../h/MemoryAllocator.hpp ****         size_t sizeInBlocks = (heapEnd - heapStart) / MEM_BLOCK_SIZE;
 393              		.loc 6 37 9 is_stmt 1
 394              		.loc 6 37 40 is_stmt 0
 395 026c 3307F740 		sub	a4,a4,a5
 396              	.LVL32:
 397              		.loc 6 37 16
 398 0270 13576700 		srli	a4,a4,6
 399              	.LVL33:
  38:src/../h/../h/../h/../h/MemoryAllocator.hpp **** 
  39:src/../h/../h/../h/../h/MemoryAllocator.hpp ****         // poravnaj na prvu krstenu adresu
  40:src/../h/../h/../h/../h/MemoryAllocator.hpp ****         fmem_head = (FreeMem*)(heapStart + ((heapStart % MEM_BLOCK_SIZE != 0)?(MEM_BLOCK_SIZE - hea
 400              		.loc 6 40 9 is_stmt 1
 401              		.loc 6 40 56 is_stmt 0
 402 0274 93F6F703 		andi	a3,a5,63
 403              		.loc 6 40 78
 404 0278 63860600 		beqz	a3,.L22
 405 027c 13060004 		li	a2,64
 406 0280 B306D640 		sub	a3,a2,a3
 407              	.L22:
 408              		.loc 6 40 42
 409 0284 B387D700 		add	a5,a5,a3
 410              	.LVL34:
 411              		.loc 6 40 19
 412 0288 97060000 		sd	a5,_ZZN15MemoryAllocator11getInstanceEvE8instance,a3
 412      23B0F600 
  41:src/../h/../h/../h/../h/MemoryAllocator.hpp **** 
  42:src/../h/../h/../h/../h/MemoryAllocator.hpp ****         // napravi node
  43:src/../h/../h/../h/../h/MemoryAllocator.hpp **** 
  44:src/../h/../h/../h/../h/MemoryAllocator.hpp ****         fmem_head->next = nullptr;
 413              		.loc 6 44 9 is_stmt 1
 414              		.loc 6 44 25 is_stmt 0
 415 0290 23B40700 		sd	zero,8(a5)
  45:src/../h/../h/../h/../h/MemoryAllocator.hpp ****         fmem_head->prev = nullptr;
 416              		.loc 6 45 9 is_stmt 1
 417              		.loc 6 45 25 is_stmt 0
 418 0294 23B80700 		sd	zero,16(a5)
GAS LISTING /tmp/cczjkVlp.s 			page 16


  46:src/../h/../h/../h/../h/MemoryAllocator.hpp ****         fmem_head->size = sizeInBlocks;
 419              		.loc 6 46 9 is_stmt 1
 420              		.loc 6 46 25 is_stmt 0
 421 0298 23B0E700 		sd	a4,0(a5)
 422              	.LVL35:
 423              	.LBE78:
 424              	.LBE77:
 425              	.LBE76:
  11:src/../h/../h/../h/../h/MemoryAllocator.hpp ****         return instance;
 426              		.loc 6 11 32
 427 029c 93071000 		li	a5,1
 428 02a0 17070000 		sb	a5,_ZGVZN15MemoryAllocator11getInstanceEvE8instance,a4
 428      2300F700 
 429              	.L21:
  12:src/../h/../h/../h/../h/MemoryAllocator.hpp ****     }
 430              		.loc 6 12 9 is_stmt 1
 431              	.LBE75:
 432              	.LBE74:
 433              		.loc 5 42 51 is_stmt 0
 434 02a8 93850400 		mv	a1,s1
 435 02ac 17050000 		lla	a0,_ZZN15MemoryAllocator11getInstanceEvE8instance
 435      13050500 
 436 02b4 97000000 		call	_ZN15MemoryAllocator11memory_freeEPv@plt
 436      E7800000 
 437              	.LVL36:
 438              	.L20:
 439              	.LBE73:
 440              	.LBE72:
  52:src/main.cpp  ****     return 0;
 441              		.loc 4 52 5 is_stmt 1
  53:src/main.cpp  **** }...
 442              		.loc 4 53 1 is_stmt 0
 443 02bc 13050000 		li	a0,0
 444 02c0 83308103 		ld	ra,56(sp)
 445              		.cfi_remember_state
 446              		.cfi_restore 1
 447 02c4 03340103 		ld	s0,48(sp)
 448              		.cfi_restore 8
 449              		.cfi_def_cfa 2, 64
 450 02c8 83348102 		ld	s1,40(sp)
 451              		.cfi_restore 9
 452 02cc 13010104 		addi	sp,sp,64
 453              		.cfi_def_cfa_offset 0
 454 02d0 67800000 		jr	ra
 455              	.L26:
 456              		.cfi_restore_state
 457              	.LBB79:
 458              	.LBB69:
  10:src/../h/console.hpp ****         return instance;
 459              		.loc 3 10 24
 460 02d4 17050000 		lla	a0,_ZZN7Console11getInstanceEvE8instance
 460      13050500 
 461              	.LEHB1:
 462 02dc 97000000 		call	_ZN7ConsoleC1Ev@plt
 462      E7800000 
 463              	.LVL37:
 464              	.LEHE1:
GAS LISTING /tmp/cczjkVlp.s 			page 17


 465 02e4 93071000 		li	a5,1
 466 02e8 17070000 		sb	a5,_ZGVZN7Console11getInstanceEvE8instance,a4
 466      2300F700 
 467 02f0 6FF0DFF3 		j	.L19
 468              	.LBE69:
 469              	.LBE79:
 470              		.cfi_endproc
 471              	.LFE76:
 472              		.globl	__gxx_personality_v0
 473              		.section	.gcc_except_table,"a",@progbits
 474              	.LLSDA76:
 475 0000 FF       		.byte	0xff
 476 0001 FF       		.byte	0xff
 477 0002 03       		.byte	0x3
 478 0003 1A       		.byte	0x1a
 479 0004 00000000 		.4byte	.LEHB0-.LFB76
 480 0008 00000000 		.4byte	.LEHE0-.LEHB0
 481 000c 00000000 		.4byte	0
 482 0010 00       		.byte	0
 483 0011 00000000 		.4byte	.LEHB1-.LFB76
 484 0015 00000000 		.4byte	.LEHE1-.LEHB1
 485 0019 00000000 		.4byte	0
 486 001d 00       		.byte	0
 487              		.text
 489              		.weak	_ZGVZN7Console11getInstanceEvE8instance
 490              		.section	.bss._ZGVZN7Console11getInstanceEvE8instance,"awG",@nobits,_ZGVZN7Console11getInstanceEvE
 491              		.align	3
 494              	_ZGVZN7Console11getInstanceEvE8instance:
 495 0000 00000000 		.zero	8
 495      00000000 
 496              		.weak	_ZZN7Console11getInstanceEvE8instance
 497              		.section	.bss._ZZN7Console11getInstanceEvE8instance,"awG",@nobits,_ZZN7Console11getInstanceEvE8ins
 498              		.align	3
 501              	_ZZN7Console11getInstanceEvE8instance:
 502 0000 00000000 		.zero	16
 502      00000000 
 502      00000000 
 502      00000000 
 503              		.weak	_ZGVZN15MemoryAllocator11getInstanceEvE8instance
 504              		.section	.bss._ZGVZN15MemoryAllocator11getInstanceEvE8instance,"awG",@nobits,_ZGVZN15MemoryAllocat
 505              		.align	3
 508              	_ZGVZN15MemoryAllocator11getInstanceEvE8instance:
 509 0000 00000000 		.zero	8
 509      00000000 
 510              		.weak	_ZZN15MemoryAllocator11getInstanceEvE8instance
 511              		.section	.bss._ZZN15MemoryAllocator11getInstanceEvE8instance,"awG",@nobits,_ZZN15MemoryAllocator11
 512              		.align	3
 515              	_ZZN15MemoryAllocator11getInstanceEvE8instance:
 516 0000 00000000 		.zero	8
 516      00000000 
 517              		.bss
 518              		.set	.LANCHOR0,. + 0
 521              	_ZL21is_user_main_finished:
 522 0000 00       		.zero	1
 523              		.text
 524              	.Letext0:
 525              		.file 7 "src/../lib/hw.h"
GAS LISTING /tmp/cczjkVlp.s 			page 18


 526              		.file 8 "src/../h/../h/../h/semaphore.hpp"
 527              		.file 9 "src/../test/../h/../h/../h/TCB.hpp"
 528              		.file 10 "src/../test/../h/syscall_c.h"
 529              		.file 11 "src/../test/userMain.hpp"
 4686              		.align	3
 4689              	DW.ref.__gxx_personality_v0:
 4690 0000 00000000 		.dword	__gxx_personality_v0
 4690      00000000 
 4691              		.ident	"GCC: (Ubuntu 9.4.0-1ubuntu1~20.04) 9.4.0"
 4692              		.section	.note.GNU-stack,"",@progbits
GAS LISTING /tmp/cczjkVlp.s 			page 19


DEFINED SYMBOLS
                            *ABS*:0000000000000000 main.cpp
     /tmp/cczjkVlp.s:9      .text:0000000000000000 _Z13idle_functionPv
     /tmp/cczjkVlp.s:13     .text:0000000000000000 .L0 
     /tmp/cczjkVlp.s:15     .text:0000000000000000 .L0 
     /tmp/cczjkVlp.s:16     .text:0000000000000004 .L0 
     /tmp/cczjkVlp.s:19     .text:000000000000000c .L0 
     /tmp/cczjkVlp.s:20     .text:000000000000000c .L0 
     /tmp/cczjkVlp.s:22     .text:0000000000000010 .L0 
     /tmp/cczjkVlp.s:26     .text:0000000000000010 .L0 
     /tmp/cczjkVlp.s:27     .text:0000000000000010 .L0 
     /tmp/cczjkVlp.s:28     .text:0000000000000010 .L0 
     /tmp/cczjkVlp.s:31     .text:0000000000000018 .L0 
     /tmp/cczjkVlp.s:32     .text:000000000000001c .L0 
     /tmp/cczjkVlp.s:38     .text:000000000000001c _Z13putc_functionPv
     /tmp/cczjkVlp.s:41     .text:000000000000001c .L0 
     /tmp/cczjkVlp.s:43     .text:000000000000001c .L0 
     /tmp/cczjkVlp.s:44     .text:0000000000000020 .L0 
     /tmp/cczjkVlp.s:48     .text:000000000000002c .L0 
     /tmp/cczjkVlp.s:49     .text:000000000000002c .L0 
     /tmp/cczjkVlp.s:50     .text:000000000000002c .L0 
     /tmp/cczjkVlp.s:52     .text:0000000000000030 .L0 
     /tmp/cczjkVlp.s:54     .text:0000000000000030 .L0 
     /tmp/cczjkVlp.s:55     .text:0000000000000030 .L0 
     /tmp/cczjkVlp.s:61     .text:0000000000000038 .L0 
     /tmp/cczjkVlp.s:62     .text:0000000000000038 .L0 
     /tmp/cczjkVlp.s:63     .text:0000000000000038 .L0 
     /tmp/cczjkVlp.s:70     .text:0000000000000040 .L0 
     /tmp/cczjkVlp.s:501    .bss._ZZN7Console11getInstanceEvE8instance:0000000000000000 _ZZN7Console11getInstanceEvE8instance
     /tmp/cczjkVlp.s:79     .text:0000000000000044 .L0 
     /tmp/cczjkVlp.s:494    .bss._ZGVZN7Console11getInstanceEvE8instance:0000000000000000 _ZGVZN7Console11getInstanceEvE8instance
     /tmp/cczjkVlp.s:88     .text:0000000000000060 .L0 
     /tmp/cczjkVlp.s:89     .text:0000000000000060 .L0 
     /tmp/cczjkVlp.s:92     .text:000000000000006c .L0 
     /tmp/cczjkVlp.s:96     .text:000000000000007c .L0 
     /tmp/cczjkVlp.s:99     .text:0000000000000080 .L0 
     /tmp/cczjkVlp.s:100    .text:0000000000000080 .L0 
     /tmp/cczjkVlp.s:101    .text:0000000000000080 .L0 
     /tmp/cczjkVlp.s:102    .text:0000000000000080 .L0 
     /tmp/cczjkVlp.s:106    .text:0000000000000090 .L0 
     /tmp/cczjkVlp.s:111    .text:0000000000000098 .L0 
     /tmp/cczjkVlp.s:112    .text:0000000000000098 .L0 
     /tmp/cczjkVlp.s:113    .text:0000000000000098 .L0 
     /tmp/cczjkVlp.s:120    .text:00000000000000a8 .L0 
     /tmp/cczjkVlp.s:121    .text:00000000000000a8 .L0 
     /tmp/cczjkVlp.s:124    .text:00000000000000b0 .L0 
     /tmp/cczjkVlp.s:125    .text:00000000000000b0 .L0 
     /tmp/cczjkVlp.s:126    .text:00000000000000b4 .L0 
     /tmp/cczjkVlp.s:132    .text:00000000000000b4 _Z17user_main_wrapperPv
     /tmp/cczjkVlp.s:135    .text:00000000000000b4 .L0 
     /tmp/cczjkVlp.s:137    .text:00000000000000b4 .L0 
     /tmp/cczjkVlp.s:138    .text:00000000000000b8 .L0 
     /tmp/cczjkVlp.s:141    .text:00000000000000c0 .L0 
     /tmp/cczjkVlp.s:142    .text:00000000000000c0 .L0 
     /tmp/cczjkVlp.s:144    .text:00000000000000c4 .L0 
     /tmp/cczjkVlp.s:146    .text:00000000000000c4 .L0 
     /tmp/cczjkVlp.s:147    .text:00000000000000c4 .L0 
GAS LISTING /tmp/cczjkVlp.s 			page 20


     /tmp/cczjkVlp.s:150    .text:00000000000000cc .L0 
     /tmp/cczjkVlp.s:151    .text:00000000000000cc .L0 
     /tmp/cczjkVlp.s:154    .text:00000000000000d4 .L0 
     /tmp/cczjkVlp.s:155    .text:00000000000000d4 .L0 
     /tmp/cczjkVlp.s:158    .text:00000000000000dc .L0 
     /tmp/cczjkVlp.s:159    .text:00000000000000dc .L0 
     /tmp/cczjkVlp.s:162    .text:00000000000000e8 .L0 
     /tmp/cczjkVlp.s:163    .text:00000000000000ec .L0 
     /tmp/cczjkVlp.s:165    .text:00000000000000f0 .L0 
     /tmp/cczjkVlp.s:166    .text:00000000000000f0 .L0 
     /tmp/cczjkVlp.s:168    .text:00000000000000f4 .L0 
     /tmp/cczjkVlp.s:170    .text:00000000000000f8 .L0 
     /tmp/cczjkVlp.s:176    .text:00000000000000f8 main
     /tmp/cczjkVlp.s:180    .text:00000000000000f8 .L0 
     /tmp/cczjkVlp.s:4689   .data.rel.local.DW.ref.__gxx_personality_v0:0000000000000000 DW.ref.__gxx_personality_v0
     /tmp/cczjkVlp.s:183    .text:00000000000000f8 .L0 
     /tmp/cczjkVlp.s:184    .text:00000000000000fc .L0 
     /tmp/cczjkVlp.s:188    .text:0000000000000108 .L0 
     /tmp/cczjkVlp.s:189    .text:0000000000000108 .L0 
     /tmp/cczjkVlp.s:190    .text:0000000000000108 .L0 
     /tmp/cczjkVlp.s:192    .text:000000000000010c .L0 
     /tmp/cczjkVlp.s:194    .text:000000000000010c .L0 
     /tmp/cczjkVlp.s:195    .text:000000000000010c .L0 
     /tmp/cczjkVlp.s:200    .text:0000000000000114 .L0 
     /tmp/cczjkVlp.s:201    .text:0000000000000114 .L0 
  src/../h/riscv.hpp:131    .text:0000000000000114 .L0 
     /tmp/cczjkVlp.s:211    .text:0000000000000118 .L0 
     /tmp/cczjkVlp.s:212    .text:0000000000000118 .L0 
     /tmp/cczjkVlp.s:214    .text:000000000000011c .L0 
     /tmp/cczjkVlp.s:215    .text:000000000000011c .L0 
     /tmp/cczjkVlp.s:222    .text:0000000000000130 .L0 
     /tmp/cczjkVlp.s:223    .text:0000000000000130 .L0 
     /tmp/cczjkVlp.s:227    .text:0000000000000140 .L0 
     /tmp/cczjkVlp.s:228    .text:0000000000000140 .L0 
     /tmp/cczjkVlp.s:234    .text:000000000000015c .L0 
     /tmp/cczjkVlp.s:235    .text:000000000000015c .L0 
     /tmp/cczjkVlp.s:237    .text:0000000000000160 .L0 
     /tmp/cczjkVlp.s:238    .text:0000000000000160 .L0 
     /tmp/cczjkVlp.s:244    .text:0000000000000178 .L0 
     /tmp/cczjkVlp.s:245    .text:0000000000000178 .L0 
     /tmp/cczjkVlp.s:247    .text:000000000000017c .L0 
     /tmp/cczjkVlp.s:248    .text:000000000000017c .L0 
     /tmp/cczjkVlp.s:256    .text:0000000000000194 .L0 
     /tmp/cczjkVlp.s:257    .text:0000000000000194 .L0 
     /tmp/cczjkVlp.s:258    .text:0000000000000194 .L0 
     /tmp/cczjkVlp.s:264    .text:00000000000001a0 .L0 
     /tmp/cczjkVlp.s:268    .text:00000000000001a0 .L0 
     /tmp/cczjkVlp.s:269    .text:00000000000001a0 .L0 
     /tmp/cczjkVlp.s:270    .text:00000000000001a0 .L0 
     /tmp/cczjkVlp.s:277    .text:00000000000001a8 .L0 
     /tmp/cczjkVlp.s:285    .text:00000000000001ac .L0 
     /tmp/cczjkVlp.s:308    .text:00000000000001e8 .L0 
     /tmp/cczjkVlp.s:309    .text:00000000000001e8 .L0 
     /tmp/cczjkVlp.s:310    .text:00000000000001e8 .L0 
     /tmp/cczjkVlp.s:316    .text:00000000000001f8 .L0 
     /tmp/cczjkVlp.s:319    .text:00000000000001fc .L0 
     /tmp/cczjkVlp.s:320    .text:00000000000001fc .L0 
GAS LISTING /tmp/cczjkVlp.s 			page 21


     /tmp/cczjkVlp.s:325    .text:0000000000000204 .L0 
     /tmp/cczjkVlp.s:326    .text:0000000000000204 .L0 
     /tmp/cczjkVlp.s:327    .text:0000000000000204 .L0 
     /tmp/cczjkVlp.s:329    .text:000000000000020c .L0 
     /tmp/cczjkVlp.s:333    .text:0000000000000210 .L0 
     /tmp/cczjkVlp.s:334    .text:0000000000000210 .L0 
     /tmp/cczjkVlp.s:343    .text:0000000000000220 .L0 
     /tmp/cczjkVlp.s:344    .text:0000000000000220 .L0 
     /tmp/cczjkVlp.s:345    .text:0000000000000220 .L0 
     /tmp/cczjkVlp.s:354    .text:000000000000022c .L0 
     /tmp/cczjkVlp.s:355    .text:000000000000022c .L0 
     /tmp/cczjkVlp.s:356    .text:000000000000022c .L0 
     /tmp/cczjkVlp.s:361    .text:0000000000000234 .L0 
     /tmp/cczjkVlp.s:363    .text:0000000000000238 .L0 
     /tmp/cczjkVlp.s:373    .text:0000000000000244 .L0 
     /tmp/cczjkVlp.s:374    .text:0000000000000244 .L0 
     /tmp/cczjkVlp.s:508    .bss._ZGVZN15MemoryAllocator11getInstanceEvE8instance:0000000000000000 _ZGVZN15MemoryAllocator11getInstanceEvE8instance
     /tmp/cczjkVlp.s:375    .text:0000000000000244 .L0 
     /tmp/cczjkVlp.s:382    .text:0000000000000250 .L0 
     /tmp/cczjkVlp.s:383    .text:0000000000000250 .L0 
     /tmp/cczjkVlp.s:387    .text:000000000000025c .L0 
     /tmp/cczjkVlp.s:388    .text:000000000000025c .L0 
     /tmp/cczjkVlp.s:391    .text:0000000000000268 .L0 
     /tmp/cczjkVlp.s:394    .text:000000000000026c .L0 
     /tmp/cczjkVlp.s:395    .text:000000000000026c .L0 
     /tmp/cczjkVlp.s:398    .text:0000000000000270 .L0 
     /tmp/cczjkVlp.s:401    .text:0000000000000274 .L0 
     /tmp/cczjkVlp.s:402    .text:0000000000000274 .L0 
     /tmp/cczjkVlp.s:404    .text:0000000000000278 .L0 
     /tmp/cczjkVlp.s:409    .text:0000000000000284 .L0 
     /tmp/cczjkVlp.s:515    .bss._ZZN15MemoryAllocator11getInstanceEvE8instance:0000000000000000 _ZZN15MemoryAllocator11getInstanceEvE8instance
     /tmp/cczjkVlp.s:412    .text:0000000000000288 .L0 
     /tmp/cczjkVlp.s:414    .text:0000000000000290 .L0 
     /tmp/cczjkVlp.s:415    .text:0000000000000290 .L0 
     /tmp/cczjkVlp.s:417    .text:0000000000000294 .L0 
     /tmp/cczjkVlp.s:418    .text:0000000000000294 .L0 
     /tmp/cczjkVlp.s:420    .text:0000000000000298 .L0 
     /tmp/cczjkVlp.s:421    .text:0000000000000298 .L0 
     /tmp/cczjkVlp.s:427    .text:000000000000029c .L0 
     /tmp/cczjkVlp.s:433    .text:00000000000002a8 .L0 
     /tmp/cczjkVlp.s:434    .text:00000000000002a8 .L0 
     /tmp/cczjkVlp.s:442    .text:00000000000002bc .L0 
     /tmp/cczjkVlp.s:443    .text:00000000000002bc .L0 
     /tmp/cczjkVlp.s:445    .text:00000000000002c4 .L0 
     /tmp/cczjkVlp.s:446    .text:00000000000002c4 .L0 
     /tmp/cczjkVlp.s:448    .text:00000000000002c8 .L0 
     /tmp/cczjkVlp.s:449    .text:00000000000002c8 .L0 
     /tmp/cczjkVlp.s:451    .text:00000000000002cc .L0 
     /tmp/cczjkVlp.s:453    .text:00000000000002d0 .L0 
     /tmp/cczjkVlp.s:456    .text:00000000000002d4 .L0 
     /tmp/cczjkVlp.s:460    .text:00000000000002d4 .L0 
     /tmp/cczjkVlp.s:470    .text:00000000000002f4 .L0 
     /tmp/cczjkVlp.s:518    .bss:0000000000000000 .LANCHOR0
     /tmp/cczjkVlp.s:521    .bss:0000000000000000 _ZL21is_user_main_finished
     /tmp/cczjkVlp.s:530    .text:00000000000002f4 .L0 
     /tmp/cczjkVlp.s:79     .text:0000000000000044 .L0 
     /tmp/cczjkVlp.s:83     .text:0000000000000058 .L0 
GAS LISTING /tmp/cczjkVlp.s 			page 22


     /tmp/cczjkVlp.s:89     .text:0000000000000060 .L0 
     /tmp/cczjkVlp.s:92     .text:000000000000006c .L0 
     /tmp/cczjkVlp.s:102    .text:0000000000000080 .L0 
     /tmp/cczjkVlp.s:113    .text:0000000000000098 .L0 
     /tmp/cczjkVlp.s:160    .text:00000000000000e0 .L0 
     /tmp/cczjkVlp.s:195    .text:000000000000010c .L0 
     /tmp/cczjkVlp.s:223    .text:0000000000000130 .L0 
     /tmp/cczjkVlp.s:229    .text:0000000000000144 .L0 
     /tmp/cczjkVlp.s:230    .text:000000000000014c .L0 
     /tmp/cczjkVlp.s:239    .text:0000000000000164 .L0 
     /tmp/cczjkVlp.s:249    .text:0000000000000180 .L0 
     /tmp/cczjkVlp.s:258    .text:0000000000000194 .L0 
     /tmp/cczjkVlp.s:285    .text:00000000000001ac .L0 
     /tmp/cczjkVlp.s:289    .text:00000000000001c0 .L0 
     /tmp/cczjkVlp.s:296    .text:00000000000001cc .L0 
     /tmp/cczjkVlp.s:300    .text:00000000000001e0 .L0 
     /tmp/cczjkVlp.s:310    .text:00000000000001e8 .L0 
     /tmp/cczjkVlp.s:327    .text:0000000000000204 .L0 
     /tmp/cczjkVlp.s:334    .text:0000000000000210 .L0 
     /tmp/cczjkVlp.s:345    .text:0000000000000220 .L0 
     /tmp/cczjkVlp.s:356    .text:000000000000022c .L0 
     /tmp/cczjkVlp.s:375    .text:0000000000000244 .L0 
     /tmp/cczjkVlp.s:383    .text:0000000000000250 .L0 
     /tmp/cczjkVlp.s:388    .text:000000000000025c .L0 
     /tmp/cczjkVlp.s:412    .text:0000000000000288 .L0 
     /tmp/cczjkVlp.s:428    .text:00000000000002a0 .L0 
     /tmp/cczjkVlp.s:435    .text:00000000000002ac .L0 
     /tmp/cczjkVlp.s:460    .text:00000000000002d4 .L0 
     /tmp/cczjkVlp.s:466    .text:00000000000002e8 .L0 
     /tmp/cczjkVlp.s:24     .text:0000000000000010 .L2
     /tmp/cczjkVlp.s:97     .text:0000000000000080 .L5
     /tmp/cczjkVlp.s:116    .text:00000000000000a8 .L6
     /tmp/cczjkVlp.s:84     .text:0000000000000060 .L7
     /tmp/cczjkVlp.s:72     .text:0000000000000044 .L10
     /tmp/cczjkVlp.s:279    .text:00000000000001ac .L24
     /tmp/cczjkVlp.s:323    .text:0000000000000204 .L18
     /tmp/cczjkVlp.s:260    .text:00000000000001a0 .L14
     /tmp/cczjkVlp.s:337    .text:0000000000000220 .L17
     /tmp/cczjkVlp.s:317    .text:00000000000001fc .L15
     /tmp/cczjkVlp.s:301    .text:00000000000001e8 .L16
     /tmp/cczjkVlp.s:291    .text:00000000000001cc .L25
     /tmp/cczjkVlp.s:455    .text:00000000000002d4 .L26
     /tmp/cczjkVlp.s:438    .text:00000000000002bc .L20
     /tmp/cczjkVlp.s:429    .text:00000000000002a8 .L21
     /tmp/cczjkVlp.s:407    .text:0000000000000284 .L22
     /tmp/cczjkVlp.s:347    .text:000000000000022c .L19
     /tmp/cczjkVlp.s:218    .text:0000000000000128 .LEHB0
     /tmp/cczjkVlp.s:177    .text:00000000000000f8 .LFB76
     /tmp/cczjkVlp.s:322    .text:0000000000000204 .LEHE0
     /tmp/cczjkVlp.s:461    .text:00000000000002dc .LEHB1
     /tmp/cczjkVlp.s:464    .text:00000000000002e4 .LEHE1
     /tmp/cczjkVlp.s:2853   .debug_abbrev:0000000000000000 .Ldebug_abbrev0
     /tmp/cczjkVlp.s:4581   .debug_str:0000000000000e62 .LASF251
     /tmp/cczjkVlp.s:4277   .debug_str:0000000000000418 .LASF252
     /tmp/cczjkVlp.s:4189   .debug_str:0000000000000100 .LASF253
     /tmp/cczjkVlp.s:5      .text:0000000000000000 .Ltext0
     /tmp/cczjkVlp.s:524    .text:00000000000002f4 .Letext0
GAS LISTING /tmp/cczjkVlp.s 			page 23


     /tmp/cczjkVlp.s:4157   .debug_line:0000000000000000 .Ldebug_line0
     /tmp/cczjkVlp.s:4319   .debug_str:0000000000000553 .LASF0
     /tmp/cczjkVlp.s:4353   .debug_str:0000000000000678 .LASF1
     /tmp/cczjkVlp.s:4505   .debug_str:0000000000000c61 .LASF2
     /tmp/cczjkVlp.s:4515   .debug_str:0000000000000ca3 .LASF4
     /tmp/cczjkVlp.s:4333   .debug_str:00000000000005c9 .LASF3
     /tmp/cczjkVlp.s:4177   .debug_str:000000000000009e .LASF5
     /tmp/cczjkVlp.s:4451   .debug_str:0000000000000a4c .LASF6
     /tmp/cczjkVlp.s:4345   .debug_str:0000000000000640 .LASF7
     /tmp/cczjkVlp.s:4289   .debug_str:0000000000000465 .LASF8
     /tmp/cczjkVlp.s:4299   .debug_str:00000000000004b2 .LASF9
     /tmp/cczjkVlp.s:4211   .debug_str:00000000000001c7 .LASF10
     /tmp/cczjkVlp.s:4605   .debug_str:0000000000001010 .LASF11
     /tmp/cczjkVlp.s:4275   .debug_str:0000000000000409 .LASF12
     /tmp/cczjkVlp.s:4225   .debug_str:000000000000023f .LASF13
     /tmp/cczjkVlp.s:4209   .debug_str:00000000000001b7 .LASF14
     /tmp/cczjkVlp.s:4559   .debug_str:0000000000000dda .LASF15
     /tmp/cczjkVlp.s:4253   .debug_str:0000000000000313 .LASF16
     /tmp/cczjkVlp.s:4547   .debug_str:0000000000000d82 .LASF17
     /tmp/cczjkVlp.s:4445   .debug_str:00000000000009ff .LASF21
     /tmp/cczjkVlp.s:4575   .debug_str:0000000000000e3f .LASF69
     /tmp/cczjkVlp.s:4351   .debug_str:0000000000000673 .LASF18
     /tmp/cczjkVlp.s:4213   .debug_str:00000000000001d6 .LASF19
     /tmp/cczjkVlp.s:4195   .debug_str:0000000000000153 .LASF20
     /tmp/cczjkVlp.s:4655   .debug_str:0000000000001183 .LASF75
     /tmp/cczjkVlp.s:4397   .debug_str:000000000000081a .LASF77
     /tmp/cczjkVlp.s:4335   .debug_str:00000000000005db .LASF23
     /tmp/cczjkVlp.s:4509   .debug_str:0000000000000c7c .LASF22
     /tmp/cczjkVlp.s:4617   .debug_str:0000000000001058 .LASF24
     /tmp/cczjkVlp.s:4229   .debug_str:000000000000026a .LASF25
     /tmp/cczjkVlp.s:4389   .debug_str:00000000000007c8 .LASF26
     /tmp/cczjkVlp.s:4187   .debug_str:00000000000000f4 .LASF27
     /tmp/cczjkVlp.s:4471   .debug_str:0000000000000b3e .LASF28
     /tmp/cczjkVlp.s:4543   .debug_str:0000000000000d65 .LASF29
     /tmp/cczjkVlp.s:4191   .debug_str:0000000000000134 .LASF122
     /tmp/cczjkVlp.s:4219   .debug_str:000000000000020a .LASF30
     /tmp/cczjkVlp.s:4671   .debug_str:00000000000011f5 .LASF31
     /tmp/cczjkVlp.s:4313   .debug_str:0000000000000520 .LASF33
     /tmp/cczjkVlp.s:4491   .debug_str:0000000000000beb .LASF32
     /tmp/cczjkVlp.s:4223   .debug_str:000000000000021f .LASF34
     /tmp/cczjkVlp.s:4475   .debug_str:0000000000000b76 .LASF35
     /tmp/cczjkVlp.s:4379   .debug_str:000000000000076e .LASF36
     /tmp/cczjkVlp.s:4681   .debug_str:0000000000001225 .LASF37
     /tmp/cczjkVlp.s:4281   .debug_str:000000000000042a .LASF38
     /tmp/cczjkVlp.s:4305   .debug_str:00000000000004ef .LASF39
     /tmp/cczjkVlp.s:4301   .debug_str:00000000000004c0 .LASF40
     /tmp/cczjkVlp.s:4613   .debug_str:000000000000103a .LASF41
     /tmp/cczjkVlp.s:4603   .debug_str:0000000000000fe9 .LASF42
     /tmp/cczjkVlp.s:4571   .debug_str:0000000000000e1a .LASF43
     /tmp/cczjkVlp.s:4419   .debug_str:0000000000000905 .LASF44
     /tmp/cczjkVlp.s:4317   .debug_str:000000000000054d .LASF45
     /tmp/cczjkVlp.s:4203   .debug_str:0000000000000180 .LASF46
     /tmp/cczjkVlp.s:4169   .debug_str:0000000000000056 .LASF47
     /tmp/cczjkVlp.s:4641   .debug_str:0000000000001101 .LASF48
     /tmp/cczjkVlp.s:4205   .debug_str:0000000000000199 .LASF49
     /tmp/cczjkVlp.s:4457   .debug_str:0000000000000a7d .LASF50
     /tmp/cczjkVlp.s:4635   .debug_str:00000000000010d8 .LASF51
GAS LISTING /tmp/cczjkVlp.s 			page 24


     /tmp/cczjkVlp.s:4409   .debug_str:00000000000008ad .LASF52
     /tmp/cczjkVlp.s:4551   .debug_str:0000000000000da9 .LASF53
     /tmp/cczjkVlp.s:4265   .debug_str:00000000000003a8 .LASF54
     /tmp/cczjkVlp.s:4251   .debug_str:000000000000030b .LASF55
     /tmp/cczjkVlp.s:4261   .debug_str:000000000000036d .LASF56
     /tmp/cczjkVlp.s:4255   .debug_str:0000000000000329 .LASF57
     /tmp/cczjkVlp.s:4453   .debug_str:0000000000000a5f .LASF58
     /tmp/cczjkVlp.s:4207   .debug_str:00000000000001a7 .LASF59
     /tmp/cczjkVlp.s:4443   .debug_str:00000000000009ea .LASF60
     /tmp/cczjkVlp.s:4167   .debug_str:0000000000000046 .LASF61
     /tmp/cczjkVlp.s:4371   .debug_str:0000000000000721 .LASF63
     /tmp/cczjkVlp.s:4545   .debug_str:0000000000000d6f .LASF62
     /tmp/cczjkVlp.s:4493   .debug_str:0000000000000bf4 .LASF64
     /tmp/cczjkVlp.s:4363   .debug_str:00000000000006cd .LASF65
     /tmp/cczjkVlp.s:4679   .debug_str:000000000000121b .LASF66
     /tmp/cczjkVlp.s:4273   .debug_str:0000000000000404 .LASF67
     /tmp/cczjkVlp.s:4417   .debug_str:0000000000000900 .LASF68
     /tmp/cczjkVlp.s:4565   .debug_str:0000000000000dfe .LASF70
     /tmp/cczjkVlp.s:4517   .debug_str:0000000000000caa .LASF71
     /tmp/cczjkVlp.s:4173   .debug_str:000000000000007d .LASF72
     /tmp/cczjkVlp.s:4557   .debug_str:0000000000000dcc .LASF73
     /tmp/cczjkVlp.s:4441   .debug_str:00000000000009c1 .LASF74
     /tmp/cczjkVlp.s:4383   .debug_str:00000000000007a0 .LASF76
     /tmp/cczjkVlp.s:4271   .debug_str:00000000000003ed .LASF78
     /tmp/cczjkVlp.s:4483   .debug_str:0000000000000baf .LASF111
     /tmp/cczjkVlp.s:4365   .debug_str:00000000000006e2 .LASF113
     /tmp/cczjkVlp.s:4497   .debug_str:0000000000000c26 .LASF79
     /tmp/cczjkVlp.s:4519   .debug_str:0000000000000caf .LASF80
     /tmp/cczjkVlp.s:4629   .debug_str:00000000000010b9 .LASF81
     /tmp/cczjkVlp.s:4233   .debug_str:0000000000000284 .LASF82
     /tmp/cczjkVlp.s:4485   .debug_str:0000000000000bbf .LASF83
     /tmp/cczjkVlp.s:4411   .debug_str:00000000000008cf .LASF84
     /tmp/cczjkVlp.s:4463   .debug_str:0000000000000adb .LASF85
     /tmp/cczjkVlp.s:4263   .debug_str:0000000000000388 .LASF86
     /tmp/cczjkVlp.s:4619   .debug_str:0000000000001074 .LASF87
     /tmp/cczjkVlp.s:4461   .debug_str:0000000000000abc .LASF88
     /tmp/cczjkVlp.s:4561   .debug_str:0000000000000de6 .LASF89
     /tmp/cczjkVlp.s:4495   .debug_str:0000000000000c0a .LASF90
     /tmp/cczjkVlp.s:4339   .debug_str:0000000000000600 .LASF91
     /tmp/cczjkVlp.s:4435   .debug_str:0000000000000999 .LASF92
     /tmp/cczjkVlp.s:4637   .debug_str:00000000000010e6 .LASF93
     /tmp/cczjkVlp.s:4583   .debug_str:0000000000000f26 .LASF94
     /tmp/cczjkVlp.s:4549   .debug_str:0000000000000d98 .LASF95
     /tmp/cczjkVlp.s:4269   .debug_str:00000000000003d0 .LASF96
     /tmp/cczjkVlp.s:4669   .debug_str:00000000000011e7 .LASF97
     /tmp/cczjkVlp.s:4197   .debug_str:0000000000000158 .LASF98
     /tmp/cczjkVlp.s:4589   .debug_str:0000000000000f63 .LASF99
     /tmp/cczjkVlp.s:4487   .debug_str:0000000000000bcb .LASF100
     /tmp/cczjkVlp.s:4341   .debug_str:000000000000060f .LASF101
     /tmp/cczjkVlp.s:4257   .debug_str:0000000000000336 .LASF102
     /tmp/cczjkVlp.s:4587   .debug_str:0000000000000f54 .LASF103
     /tmp/cczjkVlp.s:4331   .debug_str:00000000000005ae .LASF104
     /tmp/cczjkVlp.s:4627   .debug_str:00000000000010ac .LASF105
     /tmp/cczjkVlp.s:4601   .debug_str:0000000000000fd1 .LASF106
     /tmp/cczjkVlp.s:4529   .debug_str:0000000000000cf6 .LASF107
     /tmp/cczjkVlp.s:4217   .debug_str:00000000000001ed .LASF108
     /tmp/cczjkVlp.s:4241   .debug_str:00000000000002bd .LASF109
GAS LISTING /tmp/cczjkVlp.s 			page 25


     /tmp/cczjkVlp.s:4459   .debug_str:0000000000000aa0 .LASF110
     /tmp/cczjkVlp.s:4357   .debug_str:0000000000000695 .LASF112
     /tmp/cczjkVlp.s:4585   .debug_str:0000000000000f44 .LASF114
     /tmp/cczjkVlp.s:4293   .debug_str:000000000000048d .LASF115
     /tmp/cczjkVlp.s:4285   .debug_str:000000000000044d .LASF116
     /tmp/cczjkVlp.s:4375   .debug_str:0000000000000746 .LASF117
     /tmp/cczjkVlp.s:4507   .debug_str:0000000000000c6f .LASF118
     /tmp/cczjkVlp.s:4577   .debug_str:0000000000000e47 .LASF119
     /tmp/cczjkVlp.s:4279   .debug_str:0000000000000425 .LASF120
     /tmp/cczjkVlp.s:4425   .debug_str:0000000000000941 .LASF254
     /tmp/cczjkVlp.s:4439   .debug_str:00000000000009bc .LASF255
     /tmp/cczjkVlp.s:4373   .debug_str:0000000000000737 .LASF121
     /tmp/cczjkVlp.s:4359   .debug_str:000000000000069b .LASF123
     /tmp/cczjkVlp.s:4245   .debug_str:00000000000002e3 .LASF224
     /tmp/cczjkVlp.s:4405   .debug_str:0000000000000888 .LASF226
     /tmp/cczjkVlp.s:4541   .debug_str:0000000000000d52 .LASF256
     /tmp/cczjkVlp.s:4165   .debug_str:0000000000000041 .LASF124
     /tmp/cczjkVlp.s:4337   .debug_str:00000000000005f7 .LASF125
     /tmp/cczjkVlp.s:4665   .debug_str:00000000000011c9 .LASF126
     /tmp/cczjkVlp.s:4597   .debug_str:0000000000000fba .LASF127
     /tmp/cczjkVlp.s:4563   .debug_str:0000000000000df5 .LASF128
     /tmp/cczjkVlp.s:4567   .debug_str:0000000000000e06 .LASF129
     /tmp/cczjkVlp.s:4311   .debug_str:0000000000000515 .LASF130
     /tmp/cczjkVlp.s:4231   .debug_str:0000000000000277 .LASF131
     /tmp/cczjkVlp.s:4193   .debug_str:000000000000014d .LASF132
     /tmp/cczjkVlp.s:4297   .debug_str:00000000000004a7 .LASF133
     /tmp/cczjkVlp.s:4537   .debug_str:0000000000000d46 .LASF134
     /tmp/cczjkVlp.s:4361   .debug_str:00000000000006c4 .LASF135
     /tmp/cczjkVlp.s:4287   .debug_str:0000000000000459 .LASF136
     /tmp/cczjkVlp.s:4489   .debug_str:0000000000000be6 .LASF137
     /tmp/cczjkVlp.s:4525   .debug_str:0000000000000cdf .LASF138
     /tmp/cczjkVlp.s:4539   .debug_str:0000000000000d4b .LASF139
     /tmp/cczjkVlp.s:4599   .debug_str:0000000000000fc2 .LASF140
     /tmp/cczjkVlp.s:4387   .debug_str:00000000000007ba .LASF141
     /tmp/cczjkVlp.s:4355   .debug_str:000000000000068b .LASF142
     /tmp/cczjkVlp.s:4237   .debug_str:00000000000002a1 .LASF143
     /tmp/cczjkVlp.s:4321   .debug_str:0000000000000560 .LASF144
     /tmp/cczjkVlp.s:4481   .debug_str:0000000000000ba5 .LASF145
     /tmp/cczjkVlp.s:4479   .debug_str:0000000000000b94 .LASF146
     /tmp/cczjkVlp.s:4579   .debug_str:0000000000000e4f .LASF257
     /tmp/cczjkVlp.s:4645   .debug_str:000000000000112b .LASF258
     /tmp/cczjkVlp.s:4609   .debug_str:000000000000102a .LASF147
     /tmp/cczjkVlp.s:4399   .debug_str:000000000000083e .LASF148
     /tmp/cczjkVlp.s:4413   .debug_str:00000000000008e7 .LASF149
     /tmp/cczjkVlp.s:4401   .debug_str:0000000000000854 .LASF150
     /tmp/cczjkVlp.s:4215   .debug_str:00000000000001db .LASF151
     /tmp/cczjkVlp.s:4329   .debug_str:000000000000059c .LASF152
     /tmp/cczjkVlp.s:4631   .debug_str:00000000000010c6 .LASF153
     /tmp/cczjkVlp.s:4377   .debug_str:0000000000000753 .LASF154
     /tmp/cczjkVlp.s:4469   .debug_str:0000000000000b2b .LASF155
     /tmp/cczjkVlp.s:4381   .debug_str:000000000000078d .LASF156
     /tmp/cczjkVlp.s:4531   .debug_str:0000000000000d06 .LASF157
     /tmp/cczjkVlp.s:4499   .debug_str:0000000000000c31 .LASF158
     /tmp/cczjkVlp.s:4643   .debug_str:000000000000111c .LASF159
     /tmp/cczjkVlp.s:4535   .debug_str:0000000000000d28 .LASF160
     /tmp/cczjkVlp.s:4303   .debug_str:00000000000004e1 .LASF161
     /tmp/cczjkVlp.s:4259   .debug_str:0000000000000350 .LASF162
GAS LISTING /tmp/cczjkVlp.s 			page 26


     /tmp/cczjkVlp.s:4421   .debug_str:000000000000092a .LASF163
     /tmp/cczjkVlp.s:4171   .debug_str:000000000000005e .LASF164
     /tmp/cczjkVlp.s:4309   .debug_str:0000000000000505 .LASF165
     /tmp/cczjkVlp.s:4465   .debug_str:0000000000000aee .LASF166
     /tmp/cczjkVlp.s:4651   .debug_str:000000000000116c .LASF167
     /tmp/cczjkVlp.s:4467   .debug_str:0000000000000b0d .LASF168
     /tmp/cczjkVlp.s:4623   .debug_str:0000000000001096 .LASF169
     /tmp/cczjkVlp.s:4367   .debug_str:00000000000006fd .LASF170
     /tmp/cczjkVlp.s:4327   .debug_str:000000000000058c .LASF171
     /tmp/cczjkVlp.s:4661   .debug_str:00000000000011b2 .LASF172
     /tmp/cczjkVlp.s:4449   .debug_str:0000000000000a3e .LASF173
     /tmp/cczjkVlp.s:4569   .debug_str:0000000000000e15 .LASF174
     /tmp/cczjkVlp.s:4675   .debug_str:000000000000120a .LASF175
     /tmp/cczjkVlp.s:4201   .debug_str:0000000000000178 .LASF259
     /tmp/cczjkVlp.s:4199   .debug_str:0000000000000172 .LASF176
     /tmp/cczjkVlp.s:4621   .debug_str:0000000000001087 .LASF260
     /tmp/cczjkVlp.s:4267   .debug_str:00000000000003c4 .LASF177
     /tmp/cczjkVlp.s:4349   .debug_str:0000000000000666 .LASF178
     /tmp/cczjkVlp.s:4393   .debug_str:0000000000000801 .LASF179
     /tmp/cczjkVlp.s:4615   .debug_str:0000000000001049 .LASF180
     /tmp/cczjkVlp.s:4595   .debug_str:0000000000000f9e .LASF181
     /tmp/cczjkVlp.s:4161   .debug_str:0000000000000019 .LASF182
     /tmp/cczjkVlp.s:4403   .debug_str:0000000000000865 .LASF183
     /tmp/cczjkVlp.s:4527   .debug_str:0000000000000ce8 .LASF184
     /tmp/cczjkVlp.s:4227   .debug_str:000000000000024f .LASF185
     /tmp/cczjkVlp.s:4325   .debug_str:000000000000057f .LASF186
     /tmp/cczjkVlp.s:4649   .debug_str:0000000000001152 .LASF187
     /tmp/cczjkVlp.s:4307   .debug_str:00000000000004fa .LASF188
     /tmp/cczjkVlp.s:4315   .debug_str:0000000000000535 .LASF189
     /tmp/cczjkVlp.s:4611   .debug_str:0000000000001031 .LASF190
     /tmp/cczjkVlp.s:4175   .debug_str:0000000000000089 .LASF191
     /tmp/cczjkVlp.s:4501   .debug_str:0000000000000c4d .LASF192
     /tmp/cczjkVlp.s:4433   .debug_str:0000000000000984 .LASF193
     /tmp/cczjkVlp.s:4625   .debug_str:00000000000010a5 .LASF194
     /tmp/cczjkVlp.s:4473   .debug_str:0000000000000b63 .LASF195
     /tmp/cczjkVlp.s:4423   .debug_str:000000000000093a .LASF196
     /tmp/cczjkVlp.s:4347   .debug_str:0000000000000653 .LASF197
     /tmp/cczjkVlp.s:4653   .debug_str:000000000000117b .LASF198
     /tmp/cczjkVlp.s:4555   .debug_str:0000000000000db8 .LASF199
     /tmp/cczjkVlp.s:4415   .debug_str:00000000000008f8 .LASF200
     /tmp/cczjkVlp.s:4431   .debug_str:0000000000000970 .LASF201
     /tmp/cczjkVlp.s:4437   .debug_str:00000000000009b4 .LASF202
     /tmp/cczjkVlp.s:4477   .debug_str:0000000000000b80 .LASF203
     /tmp/cczjkVlp.s:4677   .debug_str:0000000000001213 .LASF204
     /tmp/cczjkVlp.s:4647   .debug_str:000000000000113e .LASF205
     /tmp/cczjkVlp.s:4553   .debug_str:0000000000000db1 .LASF206
     /tmp/cczjkVlp.s:4521   .debug_str:0000000000000cc5 .LASF207
     /tmp/cczjkVlp.s:4523   .debug_str:0000000000000cd8 .LASF208
     /tmp/cczjkVlp.s:4249   .debug_str:00000000000002f8 .LASF209
     /tmp/cczjkVlp.s:4247   .debug_str:00000000000002f2 .LASF210
     /tmp/cczjkVlp.s:4181   .debug_str:00000000000000b0 .LASF211
     /tmp/cczjkVlp.s:4593   .debug_str:0000000000000f98 .LASF212
     /tmp/cczjkVlp.s:4239   .debug_str:00000000000002ab .LASF213
     /tmp/cczjkVlp.s:4179   .debug_str:00000000000000a5 .LASF214
     /tmp/cczjkVlp.s:4511   .debug_str:0000000000000c86 .LASF215
     /tmp/cczjkVlp.s:4503   .debug_str:0000000000000c56 .LASF216
     /tmp/cczjkVlp.s:4667   .debug_str:00000000000011cf .LASF217
GAS LISTING /tmp/cczjkVlp.s 			page 27


     /tmp/cczjkVlp.s:4639   .debug_str:00000000000010f7 .LASF218
     /tmp/cczjkVlp.s:4657   .debug_str:000000000000118f .LASF219
     /tmp/cczjkVlp.s:4633   .debug_str:00000000000010ce .LASF220
     /tmp/cczjkVlp.s:4183   .debug_str:00000000000000c2 .LASF221
     /tmp/cczjkVlp.s:4607   .debug_str:000000000000101b .LASF222
     /tmp/cczjkVlp.s:4185   .debug_str:00000000000000d8 .LASF223
     /tmp/cczjkVlp.s:4533   .debug_str:0000000000000d13 .LASF225
     /tmp/cczjkVlp.s:4343   .debug_str:000000000000061e .LASF227
     /tmp/cczjkVlp.s:4243   .debug_str:00000000000002cd .LASF228
     /tmp/cczjkVlp.s:4283   .debug_str:0000000000000448 .LASF229
     /tmp/cczjkVlp.s:471    .text:00000000000002f4 .LFE76
     /tmp/cczjkVlp.s:4429   .debug_str:0000000000000968 .LASF242
     /tmp/cczjkVlp.s:4407   .debug_str:00000000000008a2 .LASF230
     /tmp/cczjkVlp.s:4427   .debug_str:0000000000000959 .LASF231
     /tmp/cczjkVlp.s:4323   .debug_str:0000000000000571 .LASF232
     /tmp/cczjkVlp.s:198    .text:0000000000000114 .LBB53
     /tmp/cczjkVlp.s:209    .text:0000000000000118 .LBE53
     /tmp/cczjkVlp.s:254    .text:0000000000000194 .LBB55
     /tmp/cczjkVlp.s:4131   .debug_ranges:0000000000000000 .Ldebug_ranges0
     /tmp/cczjkVlp.s:287    .text:00000000000001bc .LVL21
     /tmp/cczjkVlp.s:266    .text:00000000000001a0 .LBB58
     /tmp/cczjkVlp.s:281    .text:00000000000001ac .LBE58
     /tmp/cczjkVlp.s:4005   .debug_loc:0000000000000000 .LLST4
     /tmp/cczjkVlp.s:294    .text:00000000000001cc .LBB61
     /tmp/cczjkVlp.s:298    .text:00000000000001dc .LVL22
     /tmp/cczjkVlp.s:306    .text:00000000000001e8 .LBB64
     /tmp/cczjkVlp.s:314    .text:00000000000001f8 .LBE64
     /tmp/cczjkVlp.s:4013   .debug_loc:0000000000000024 .LLST5
     /tmp/cczjkVlp.s:312    .text:00000000000001f8 .LVL24
     /tmp/cczjkVlp.s:341    .text:0000000000000220 .LBB67
     /tmp/cczjkVlp.s:463    .text:00000000000002e4 .LVL37
     /tmp/cczjkVlp.s:352    .text:000000000000022c .LBB70
     /tmp/cczjkVlp.s:359    .text:0000000000000234 .LBE70
     /tmp/cczjkVlp.s:4022   .debug_loc:0000000000000050 .LLST6
     /tmp/cczjkVlp.s:366    .text:0000000000000244 .LBB72
     /tmp/cczjkVlp.s:440    .text:00000000000002bc .LBE72
     /tmp/cczjkVlp.s:4031   .debug_loc:000000000000007c .LLST7
     /tmp/cczjkVlp.s:370    .text:0000000000000244 .LBB74
     /tmp/cczjkVlp.s:432    .text:00000000000002a8 .LBE74
     /tmp/cczjkVlp.s:378    .text:0000000000000250 .LBB76
     /tmp/cczjkVlp.s:425    .text:000000000000029c .LBE76
     /tmp/cczjkVlp.s:4038   .debug_loc:000000000000009f .LLST8
     /tmp/cczjkVlp.s:380    .text:0000000000000250 .LBB78
     /tmp/cczjkVlp.s:423    .text:000000000000029c .LBE78
     /tmp/cczjkVlp.s:4047   .debug_loc:00000000000000cb .LLST9
     /tmp/cczjkVlp.s:4054   .debug_loc:00000000000000ee .LLST10
     /tmp/cczjkVlp.s:4061   .debug_loc:0000000000000111 .LLST11
     /tmp/cczjkVlp.s:437    .text:00000000000002bc .LVL36
     /tmp/cczjkVlp.s:220    .text:0000000000000130 .LVL15
     /tmp/cczjkVlp.s:232    .text:000000000000015c .LVL16
     /tmp/cczjkVlp.s:242    .text:0000000000000178 .LVL17
     /tmp/cczjkVlp.s:252    .text:0000000000000194 .LVL18
     /tmp/cczjkVlp.s:321    .text:0000000000000204 .LVL25
     /tmp/cczjkVlp.s:365    .text:0000000000000244 .LVL28
     /tmp/cczjkVlp.s:4163   .debug_str:000000000000002f .LASF233
     /tmp/cczjkVlp.s:4291   .debug_str:0000000000000475 .LASF234
     /tmp/cczjkVlp.s:133    .text:00000000000000b4 .LFB75
GAS LISTING /tmp/cczjkVlp.s 			page 28


     /tmp/cczjkVlp.s:171    .text:00000000000000f8 .LFE75
     /tmp/cczjkVlp.s:4068   .debug_loc:0000000000000134 .LLST3
     /tmp/cczjkVlp.s:148    .text:00000000000000cc .LVL10
     /tmp/cczjkVlp.s:152    .text:00000000000000d4 .LVL11
     /tmp/cczjkVlp.s:156    .text:00000000000000dc .LVL12
     /tmp/cczjkVlp.s:4295   .debug_str:0000000000000499 .LASF235
     /tmp/cczjkVlp.s:4391   .debug_str:00000000000007ed .LASF236
     /tmp/cczjkVlp.s:39     .text:000000000000001c .LFB74
     /tmp/cczjkVlp.s:127    .text:00000000000000b4 .LFE74
     /tmp/cczjkVlp.s:4082   .debug_loc:000000000000016d .LLST1
     /tmp/cczjkVlp.s:58     .text:0000000000000038 .LBB26
     /tmp/cczjkVlp.s:74     .text:0000000000000044 .LBE26
     /tmp/cczjkVlp.s:4096   .debug_loc:00000000000001a6 .LLST2
     /tmp/cczjkVlp.s:75     .text:0000000000000044 .LBB28
     /tmp/cczjkVlp.s:81     .text:0000000000000054 .LVL6
     /tmp/cczjkVlp.s:56     .text:0000000000000038 .LVL4
     /tmp/cczjkVlp.s:94     .text:000000000000007c .LVL7
     /tmp/cczjkVlp.s:122    .text:00000000000000b0 .LVL8
     /tmp/cczjkVlp.s:4385   .debug_str:00000000000007ac .LASF237
     /tmp/cczjkVlp.s:4573   .debug_str:0000000000000e2b .LASF238
     /tmp/cczjkVlp.s:10     .text:0000000000000000 .LFB73
     /tmp/cczjkVlp.s:33     .text:000000000000001c .LFE73
     /tmp/cczjkVlp.s:4104   .debug_loc:00000000000001ca .LLST0
     /tmp/cczjkVlp.s:29     .text:0000000000000018 .LVL2
     /tmp/cczjkVlp.s:4513   .debug_str:0000000000000c9e .LASF239
     /tmp/cczjkVlp.s:4369   .debug_str:000000000000071b .LASF240
     /tmp/cczjkVlp.s:4235   .debug_str:000000000000029c .LASF241
     /tmp/cczjkVlp.s:4221   .debug_str:0000000000000216 .LASF246
     /tmp/cczjkVlp.s:4591   .debug_str:0000000000000f72 .LASF247
     /tmp/cczjkVlp.s:4663   .debug_str:00000000000011bf .LASF243
     /tmp/cczjkVlp.s:4673   .debug_str:0000000000001202 .LASF244
     /tmp/cczjkVlp.s:4659   .debug_str:00000000000011a5 .LASF245
     /tmp/cczjkVlp.s:4159   .debug_str:0000000000000000 .LASF261
     /tmp/cczjkVlp.s:4447   .debug_str:0000000000000a0f .LASF248
     /tmp/cczjkVlp.s:4395   .debug_str:000000000000080d .LASF249
     /tmp/cczjkVlp.s:4455   .debug_str:0000000000000a74 .LASF250
     /tmp/cczjkVlp.s:265    .text:00000000000001a0 .LVL19
     /tmp/cczjkVlp.s:278    .text:00000000000001ac .LVL20
     /tmp/cczjkVlp.s:303    .text:00000000000001e8 .LVL23
     /tmp/cczjkVlp.s:349    .text:000000000000022c .LVL26
     /tmp/cczjkVlp.s:357    .text:0000000000000234 .LVL27
     /tmp/cczjkVlp.s:377    .text:0000000000000250 .LVL29
     /tmp/cczjkVlp.s:422    .text:000000000000029c .LVL35
     /tmp/cczjkVlp.s:385    .text:000000000000025c .LVL30
     /tmp/cczjkVlp.s:410    .text:0000000000000288 .LVL34
     /tmp/cczjkVlp.s:392    .text:000000000000026c .LVL31
     /tmp/cczjkVlp.s:396    .text:0000000000000270 .LVL32
     /tmp/cczjkVlp.s:399    .text:0000000000000274 .LVL33
     /tmp/cczjkVlp.s:136    .text:00000000000000b4 .LVL9
     /tmp/cczjkVlp.s:42     .text:000000000000001c .LVL3
     /tmp/cczjkVlp.s:71     .text:0000000000000044 .LVL5
     /tmp/cczjkVlp.s:14     .text:0000000000000000 .LVL0
     /tmp/cczjkVlp.s:23     .text:0000000000000010 .LVL1
     /tmp/cczjkVlp.s:531    .debug_info:0000000000000000 .Ldebug_info0
     /tmp/cczjkVlp.s:87     .text:0000000000000060 .LBE28
     /tmp/cczjkVlp.s:109    .text:0000000000000098 .LBB31
     /tmp/cczjkVlp.s:118    .text:00000000000000a8 .LBE31
GAS LISTING /tmp/cczjkVlp.s 			page 29


     /tmp/cczjkVlp.s:263    .text:00000000000001a0 .LBE55
     /tmp/cczjkVlp.s:282    .text:00000000000001ac .LBB60
     /tmp/cczjkVlp.s:293    .text:00000000000001cc .LBE60
     /tmp/cczjkVlp.s:305    .text:00000000000001e8 .LBE61
     /tmp/cczjkVlp.s:330    .text:0000000000000210 .LBB66
     /tmp/cczjkVlp.s:339    .text:0000000000000220 .LBE66
     /tmp/cczjkVlp.s:351    .text:000000000000022c .LBE67
     /tmp/cczjkVlp.s:457    .text:00000000000002d4 .LBB79
     /tmp/cczjkVlp.s:469    .text:00000000000002f4 .LBE79
     /tmp/cczjkVlp.s:474    .gcc_except_table:0000000000000000 .LLSDA76

UNDEFINED SYMBOLS
thread_dispatch
switch_to_priviledged
_ZN7ConsoleC1Ev
CONSOLE_TX_DATA
_ZN7Console15get_from_outputEv
CONSOLE_STATUS
switch_to_user
_Z8userMainv
_ZN5Riscv14supervisorTrapEv
thread_create
_ZN3TCB7runningE
_ZN3TCB4idleE
_ZN8MyBuffer6getCntEv
_ZN8MyBufferD1Ev
HEAP_START_ADDR
HEAP_END_ADDR
_ZN15MemoryAllocator11memory_freeEPv
__gxx_personality_v0
