GAS LISTING /tmp/ccwQDsh3.s 			page 1


   1              		.file	"main.cpp"
   2              		.option pic
   3              		.option norelax
   4              		.text
   5              	.Ltext0:
   6              		.align	2
   7              		.globl	_Z13idle_functionPv
   9              	_Z13idle_functionPv:
  10              	.LFB75:
  11              		.file 1 "src/../h/fun.hpp"
   1:src/../h/fun.hpp **** #ifndef _fun_hpp_
   2:src/../h/fun.hpp **** #define _fun_hpp_
   3:src/../h/fun.hpp **** 
   4:src/../h/fun.hpp **** #include "../lib/hw.h"
   5:src/../h/fun.hpp **** #include "../h/console.hpp"
   6:src/../h/fun.hpp **** //#include "../test/printing.hpp"
   7:src/../h/fun.hpp **** #include "../h/riscv.hpp"
   8:src/../h/fun.hpp **** #include "../h/syscall_c.h"
   9:src/../h/fun.hpp **** #include "../test/userMain.hpp"
  10:src/../h/fun.hpp **** #include "../h/SlabI.h"
  11:src/../h/fun.hpp **** 
  12:src/../h/fun.hpp **** void idle_function(void* arg){
  12              		.loc 1 12 30
  13              		.cfi_startproc
  14              	.LVL0:
  15 0000 130101FF 		addi	sp,sp,-16
  16              		.cfi_def_cfa_offset 16
  17 0004 23341100 		sd	ra,8(sp)
  18 0008 23308100 		sd	s0,0(sp)
  19              		.cfi_offset 1, -8
  20              		.cfi_offset 8, -16
  21 000c 13040101 		addi	s0,sp,16
  22              		.cfi_def_cfa 8, 0
  23              	.LVL1:
  24              	.L2:
  13:src/../h/fun.hpp ****     while(1){
  25              		.loc 1 13 5 discriminator 1
  14:src/../h/fun.hpp ****         thread_dispatch();
  26              		.loc 1 14 9 discriminator 1
  27              		.loc 1 14 24 is_stmt 0 discriminator 1
  28 0010 97000000 		call	thread_dispatch@plt
  28      E7800000 
  29              	.LVL2:
  13:src/../h/fun.hpp ****     while(1){
  30              		.loc 1 13 5 is_stmt 1 discriminator 1
  31 0018 6FF09FFF 		j	.L2
  32              		.cfi_endproc
  33              	.LFE75:
  35              		.align	2
  36              		.globl	_Z13putc_functionPv
  38              	_Z13putc_functionPv:
  39              	.LFB76:
  15:src/../h/fun.hpp ****     }
  16:src/../h/fun.hpp **** }
  17:src/../h/fun.hpp **** 
  18:src/../h/fun.hpp **** void putc_function(void* arg){
  40              		.loc 1 18 30
GAS LISTING /tmp/ccwQDsh3.s 			page 2


  41              		.cfi_startproc
  42              	.LVL3:
  43 001c 130101FE 		addi	sp,sp,-32
  44              		.cfi_def_cfa_offset 32
  45 0020 233C1100 		sd	ra,24(sp)
  46 0024 23388100 		sd	s0,16(sp)
  47 0028 23349100 		sd	s1,8(sp)
  48              		.cfi_offset 1, -8
  49              		.cfi_offset 8, -16
  50              		.cfi_offset 9, -24
  51 002c 13040102 		addi	s0,sp,32
  52              		.cfi_def_cfa 8, 0
  19:src/../h/fun.hpp ****     switch_to_priviledged();
  53              		.loc 1 19 5
  54              		.loc 1 19 26 is_stmt 0
  55 0030 97000000 		call	switch_to_priviledged@plt
  55      E7800000 
  56              	.LVL4:
  20:src/../h/fun.hpp ****     Riscv::mc_sstatus(Riscv::SSTATUS_SIE);
  57              		.loc 1 20 5 is_stmt 1
  58              	.LBB22:
  59              	.LBB23:
  60              		.file 2 "src/../h/riscv.hpp"
   1:src/../h/riscv.hpp **** #ifndef _riscv_hpp_
   2:src/../h/riscv.hpp **** #define _riscv_hpp_
   3:src/../h/riscv.hpp **** 
   4:src/../h/riscv.hpp **** #include "../lib/hw.h"
   5:src/../h/riscv.hpp **** 
   6:src/../h/riscv.hpp **** class Riscv
   7:src/../h/riscv.hpp **** {
   8:src/../h/riscv.hpp **** public:
   9:src/../h/riscv.hpp **** 
  10:src/../h/riscv.hpp ****     // u korisnicki
  11:src/../h/riscv.hpp ****     static void switch_to_user();
  12:src/../h/riscv.hpp **** 
  13:src/../h/riscv.hpp ****     // u privilegovani
  14:src/../h/riscv.hpp ****     static void switch_to_priviledged();
  15:src/../h/riscv.hpp **** 
  16:src/../h/riscv.hpp ****     // push x3..x31 registers onto stack
  17:src/../h/riscv.hpp ****     static void pushRegisters();
  18:src/../h/riscv.hpp **** 
  19:src/../h/riscv.hpp ****     // pop x3..x31 registers onto stack
  20:src/../h/riscv.hpp ****     static void popRegisters();
  21:src/../h/riscv.hpp **** 
  22:src/../h/riscv.hpp ****     // pop sstatus.spp and sstatus.spie bits (has to be a non inline function)
  23:src/../h/riscv.hpp ****     static void popSppSpie();
  24:src/../h/riscv.hpp **** 
  25:src/../h/riscv.hpp ****     // read register scause
  26:src/../h/riscv.hpp ****     static uint64 r_scause();
  27:src/../h/riscv.hpp **** 
  28:src/../h/riscv.hpp ****     // write register scause
  29:src/../h/riscv.hpp ****     static void w_scause(uint64 scause);
  30:src/../h/riscv.hpp **** 
  31:src/../h/riscv.hpp ****     // read register sepc
  32:src/../h/riscv.hpp ****     static uint64 r_sepc();
  33:src/../h/riscv.hpp **** 
  34:src/../h/riscv.hpp ****     // write register sepc
GAS LISTING /tmp/ccwQDsh3.s 			page 3


  35:src/../h/riscv.hpp ****     static void w_sepc(uint64 sepc);
  36:src/../h/riscv.hpp **** 
  37:src/../h/riscv.hpp ****     // read register stvec
  38:src/../h/riscv.hpp ****     static uint64 r_stvec();
  39:src/../h/riscv.hpp **** 
  40:src/../h/riscv.hpp ****     // write register stvec
  41:src/../h/riscv.hpp ****     static void w_stvec(uint64 stvec);
  42:src/../h/riscv.hpp **** 
  43:src/../h/riscv.hpp ****     // read register stval
  44:src/../h/riscv.hpp ****     static uint64 r_stval();
  45:src/../h/riscv.hpp **** 
  46:src/../h/riscv.hpp ****     // write register stval
  47:src/../h/riscv.hpp ****     static void w_stval(uint64 stval);
  48:src/../h/riscv.hpp **** 
  49:src/../h/riscv.hpp ****     enum BitMaskSip
  50:src/../h/riscv.hpp ****     {
  51:src/../h/riscv.hpp ****         SIP_SSIP = (1 << 1),
  52:src/../h/riscv.hpp ****         SIP_STIP = (1 << 5),
  53:src/../h/riscv.hpp ****         SIP_SEIP = (1 << 9),
  54:src/../h/riscv.hpp ****     };
  55:src/../h/riscv.hpp **** 
  56:src/../h/riscv.hpp ****     // mask set register sip
  57:src/../h/riscv.hpp ****     static void ms_sip(uint64 mask);
  58:src/../h/riscv.hpp **** 
  59:src/../h/riscv.hpp ****     // mask clear register sip
  60:src/../h/riscv.hpp ****     static void mc_sip(uint64 mask);
  61:src/../h/riscv.hpp **** 
  62:src/../h/riscv.hpp ****     // read register sip
  63:src/../h/riscv.hpp ****     static uint64 r_sip();
  64:src/../h/riscv.hpp **** 
  65:src/../h/riscv.hpp ****     // write register sip
  66:src/../h/riscv.hpp ****     static void w_sip(uint64 sip);
  67:src/../h/riscv.hpp **** 
  68:src/../h/riscv.hpp ****     enum BitMaskSstatus
  69:src/../h/riscv.hpp ****     {
  70:src/../h/riscv.hpp ****         SSTATUS_SIE = (1 << 1),
  71:src/../h/riscv.hpp ****         SSTATUS_SPIE = (1 << 5),
  72:src/../h/riscv.hpp ****         SSTATUS_SPP = (1 << 8),
  73:src/../h/riscv.hpp ****     };
  74:src/../h/riscv.hpp **** 
  75:src/../h/riscv.hpp ****     // mask set register sstatus
  76:src/../h/riscv.hpp ****     static void ms_sstatus(uint64 mask);
  77:src/../h/riscv.hpp **** 
  78:src/../h/riscv.hpp ****     // mask clear register sstatus
  79:src/../h/riscv.hpp ****     static void mc_sstatus(uint64 mask);
  80:src/../h/riscv.hpp **** 
  81:src/../h/riscv.hpp ****     // read register sstatus
  82:src/../h/riscv.hpp ****     static uint64 r_sstatus();
  83:src/../h/riscv.hpp **** 
  84:src/../h/riscv.hpp ****     // write register sstatus
  85:src/../h/riscv.hpp ****     static void w_sstatus(uint64 sstatus);
  86:src/../h/riscv.hpp **** 
  87:src/../h/riscv.hpp ****     // supervisor trap
  88:src/../h/riscv.hpp ****     static void supervisorTrap();
  89:src/../h/riscv.hpp **** 
  90:src/../h/riscv.hpp **** private:
  91:src/../h/riscv.hpp **** 
GAS LISTING /tmp/ccwQDsh3.s 			page 4


  92:src/../h/riscv.hpp ****     // supervisor trap handler
  93:src/../h/riscv.hpp ****     static void handleSupervisorTrap();
  94:src/../h/riscv.hpp **** 
  95:src/../h/riscv.hpp **** };
  96:src/../h/riscv.hpp **** 
  97:src/../h/riscv.hpp **** 
  98:src/../h/riscv.hpp **** inline uint64 Riscv::r_scause()
  99:src/../h/riscv.hpp **** {
 100:src/../h/riscv.hpp ****     uint64 volatile scause;
 101:src/../h/riscv.hpp ****     __asm__ volatile ("csrr %[scause], scause" : [scause] "=r"(scause));
 102:src/../h/riscv.hpp ****     return scause;
 103:src/../h/riscv.hpp **** }
 104:src/../h/riscv.hpp **** 
 105:src/../h/riscv.hpp **** inline void Riscv::w_scause(uint64 scause)
 106:src/../h/riscv.hpp **** {
 107:src/../h/riscv.hpp ****     __asm__ volatile ("csrw scause, %[scause]" : : [scause] "r"(scause));
 108:src/../h/riscv.hpp **** }
 109:src/../h/riscv.hpp **** 
 110:src/../h/riscv.hpp **** inline uint64 Riscv::r_sepc()
 111:src/../h/riscv.hpp **** {
 112:src/../h/riscv.hpp ****     uint64 volatile sepc;
 113:src/../h/riscv.hpp ****     __asm__ volatile ("csrr %[sepc], sepc" : [sepc] "=r"(sepc));
 114:src/../h/riscv.hpp ****     return sepc;
 115:src/../h/riscv.hpp **** }
 116:src/../h/riscv.hpp **** 
 117:src/../h/riscv.hpp **** inline void Riscv::w_sepc(uint64 sepc)
 118:src/../h/riscv.hpp **** {
 119:src/../h/riscv.hpp ****     __asm__ volatile ("csrw sepc, %[sepc]" : : [sepc] "r"(sepc));
 120:src/../h/riscv.hpp **** }
 121:src/../h/riscv.hpp **** 
 122:src/../h/riscv.hpp **** inline uint64 Riscv::r_stvec()
 123:src/../h/riscv.hpp **** {
 124:src/../h/riscv.hpp ****     uint64 volatile stvec;
 125:src/../h/riscv.hpp ****     __asm__ volatile ("csrr %[stvec], stvec" : [stvec] "=r"(stvec));
 126:src/../h/riscv.hpp ****     return stvec;
 127:src/../h/riscv.hpp **** }
 128:src/../h/riscv.hpp **** 
 129:src/../h/riscv.hpp **** inline void Riscv::w_stvec(uint64 stvec)
 130:src/../h/riscv.hpp **** {
 131:src/../h/riscv.hpp ****     __asm__ volatile ("csrw stvec, %[stvec]" : : [stvec] "r"(stvec));
 132:src/../h/riscv.hpp **** }
 133:src/../h/riscv.hpp **** 
 134:src/../h/riscv.hpp **** inline uint64 Riscv::r_stval()
 135:src/../h/riscv.hpp **** {
 136:src/../h/riscv.hpp ****     uint64 volatile stval;
 137:src/../h/riscv.hpp ****     __asm__ volatile ("csrr %[stval], stval" : [stval] "=r"(stval));
 138:src/../h/riscv.hpp ****     return stval;
 139:src/../h/riscv.hpp **** }
 140:src/../h/riscv.hpp **** 
 141:src/../h/riscv.hpp **** inline void Riscv::w_stval(uint64 stval)
 142:src/../h/riscv.hpp **** {
 143:src/../h/riscv.hpp ****     __asm__ volatile ("csrw stval, %[stval]" : : [stval] "r"(stval));
 144:src/../h/riscv.hpp **** }
 145:src/../h/riscv.hpp **** 
 146:src/../h/riscv.hpp **** inline void Riscv::ms_sip(uint64 mask)
 147:src/../h/riscv.hpp **** {
 148:src/../h/riscv.hpp ****     __asm__ volatile ("csrs sip, %[mask]" : : [mask] "r"(mask));
GAS LISTING /tmp/ccwQDsh3.s 			page 5


 149:src/../h/riscv.hpp **** }
 150:src/../h/riscv.hpp **** 
 151:src/../h/riscv.hpp **** inline void Riscv::mc_sip(uint64 mask)
 152:src/../h/riscv.hpp **** {
 153:src/../h/riscv.hpp ****     __asm__ volatile ("csrc sip, %[mask]" : : [mask] "r"(mask));
 154:src/../h/riscv.hpp **** }
 155:src/../h/riscv.hpp **** 
 156:src/../h/riscv.hpp **** inline uint64 Riscv::r_sip()
 157:src/../h/riscv.hpp **** {
 158:src/../h/riscv.hpp ****     uint64 volatile sip;
 159:src/../h/riscv.hpp ****     __asm__ volatile ("csrr %[sip], sip" : [sip] "=r"(sip));
 160:src/../h/riscv.hpp ****     return sip;
 161:src/../h/riscv.hpp **** }
 162:src/../h/riscv.hpp **** 
 163:src/../h/riscv.hpp **** inline void Riscv::w_sip(uint64 sip)
 164:src/../h/riscv.hpp **** {
 165:src/../h/riscv.hpp ****     __asm__ volatile ("csrw sip, %[sip]" : : [sip] "r"(sip));
 166:src/../h/riscv.hpp **** }
 167:src/../h/riscv.hpp **** 
 168:src/../h/riscv.hpp **** inline void Riscv::ms_sstatus(uint64 mask)
 169:src/../h/riscv.hpp **** {
 170:src/../h/riscv.hpp ****     __asm__ volatile ("csrs sstatus, %[mask]" : : [mask] "r"(mask));
 171:src/../h/riscv.hpp **** }
 172:src/../h/riscv.hpp **** 
 173:src/../h/riscv.hpp **** inline void Riscv::mc_sstatus(uint64 mask)
 174:src/../h/riscv.hpp **** {
 175:src/../h/riscv.hpp ****     __asm__ volatile ("csrc sstatus, %[mask]" : : [mask] "r"(mask));
  61              		.loc 2 175 5
  62              		.loc 2 175 68 is_stmt 0
  63 0038 93072000 		li	a5,2
  64              	#APP
  65              	# 175 "src/../h/riscv.hpp" 1
 176              	}
  66              		csrc sstatus, a5
  67              	# 0 "" 2
  68              		.loc 2 176 1
  69              	#NO_APP
  70 0040 6F000004 		j	.L5
  71              	.LVL5:
  72              	.L10:
  73              	.LBE23:
  74              	.LBE22:
  75              	.LBB24:
  76              	.LBB25:
  77              		.file 3 "src/../h/console.hpp"
   1:src/../h/console.hpp **** #ifndef _console_hpp_
   2:src/../h/console.hpp **** #define _console_hpp_
   3:src/../h/console.hpp **** 
   4:src/../h/console.hpp **** #include "../h/my_buffer.hpp"
   5:src/../h/console.hpp **** 
   6:src/../h/console.hpp **** class Console{
   7:src/../h/console.hpp **** public:
   8:src/../h/console.hpp **** 
   9:src/../h/console.hpp ****     static Console& getInstance(){
  10:src/../h/console.hpp ****         static Console instance;
  78              		.loc 3 10 24
  79 0044 17050000 		lla	a0,_ZZN7Console11getInstanceEvE8instance
GAS LISTING /tmp/ccwQDsh3.s 			page 6


  79      13050500 
  80 004c 97000000 		call	_ZN7ConsoleC1Ev@plt
  80      E7800000 
  81              	.LVL6:
  82 0054 93071000 		li	a5,1
  83 0058 17070000 		sb	a5,_ZGVZN7Console11getInstanceEvE8instance,a4
  83      2300F700 
  84              	.L7:
  11:src/../h/console.hpp ****         return instance;
  85              		.loc 3 11 9 is_stmt 1
  86              	.LBE25:
  87              	.LBE24:
  21:src/../h/fun.hpp ****     while(1){
  22:src/../h/fun.hpp ****         while((*((char*)CONSOLE_STATUS) & CONSOLE_TX_STATUS_BIT)
  23:src/../h/fun.hpp ****               /*&& Console::getInstance().get_output_size()*/) {
  24:src/../h/fun.hpp ****             *((char*)CONSOLE_TX_DATA) = Console::getInstance().get_from_output();
  88              		.loc 1 24 13 is_stmt 0
  89 0060 97070000 		la	a5,CONSOLE_TX_DATA
  89      83B70700 
  90 0068 83B40700 		ld	s1,0(a5)
  91              		.loc 1 24 79
  92 006c 17050000 		lla	a0,_ZZN7Console11getInstanceEvE8instance
  92      13050500 
  93 0074 97000000 		call	_ZN7Console15get_from_outputEv@plt
  93      E7800000 
  94              	.LVL7:
  95              		.loc 1 24 39
  96 007c 2380A400 		sb	a0,0(s1)
  97              	.L5:
  21:src/../h/fun.hpp ****     while(1){
  98              		.loc 1 21 5 is_stmt 1
  22:src/../h/fun.hpp ****               /*&& Console::getInstance().get_output_size()*/) {
  99              		.loc 1 22 9
  22:src/../h/fun.hpp ****               /*&& Console::getInstance().get_output_size()*/) {
 100              		.loc 1 22 64
  22:src/../h/fun.hpp ****               /*&& Console::getInstance().get_output_size()*/) {
 101              		.loc 1 22 16 is_stmt 0
 102 0080 97070000 		la	a5,CONSOLE_STATUS
 102      83B70700 
 103 0088 83B70700 		ld	a5,0(a5)
 104 008c 83C70700 		lbu	a5,0(a5)
  22:src/../h/fun.hpp ****               /*&& Console::getInstance().get_output_size()*/) {
 105              		.loc 1 22 64
 106 0090 93F70702 		andi	a5,a5,32
 107 0094 638A0700 		beqz	a5,.L6
 108              		.loc 1 24 13 is_stmt 1
 109              	.LBB27:
 110              	.LBB26:
  10:src/../h/console.hpp ****         return instance;
 111              		.loc 3 10 9
  10:src/../h/console.hpp ****         return instance;
 112              		.loc 3 10 24 is_stmt 0
 113 0098 97070000 		lbu	a5,_ZGVZN7Console11getInstanceEvE8instance
 113      83C70700 
 114 00a0 E39007FC 		bnez	a5,.L7
 115 00a4 6FF01FFA 		j	.L10
 116              	.L6:
GAS LISTING /tmp/ccwQDsh3.s 			page 7


 117              	.LBE26:
 118              	.LBE27:
  25:src/../h/fun.hpp ****         }
  26:src/../h/fun.hpp ****         thread_dispatch();
 119              		.loc 1 26 9 is_stmt 1
 120              		.loc 1 26 24 is_stmt 0
 121 00a8 97000000 		call	thread_dispatch@plt
 121      E7800000 
 122              	.LVL8:
  21:src/../h/fun.hpp ****         while((*((char*)CONSOLE_STATUS) & CONSOLE_TX_STATUS_BIT)
 123              		.loc 1 21 5 is_stmt 1
  22:src/../h/fun.hpp ****               /*&& Console::getInstance().get_output_size()*/) {
 124              		.loc 1 22 9 is_stmt 0
 125 00b0 6FF01FFD 		j	.L5
 126              		.cfi_endproc
 127              	.LFE76:
 129              		.align	2
 130              		.globl	_Z17user_main_wrapperPv
 132              	_Z17user_main_wrapperPv:
 133              	.LFB77:
  27:src/../h/fun.hpp ****     }
  28:src/../h/fun.hpp **** }
  29:src/../h/fun.hpp **** 
  30:src/../h/fun.hpp **** static bool is_user_main_finished = false;
  31:src/../h/fun.hpp **** void user_main_wrapper(void* arg){
 134              		.loc 1 31 34 is_stmt 1
 135              		.cfi_startproc
 136              	.LVL9:
 137 00b4 130101FF 		addi	sp,sp,-16
 138              		.cfi_def_cfa_offset 16
 139 00b8 23341100 		sd	ra,8(sp)
 140 00bc 23308100 		sd	s0,0(sp)
 141              		.cfi_offset 1, -8
 142              		.cfi_offset 8, -16
 143 00c0 13040101 		addi	s0,sp,16
 144              		.cfi_def_cfa 8, 0
  32:src/../h/fun.hpp ****     switch_to_user();
 145              		.loc 1 32 5
 146              		.loc 1 32 19 is_stmt 0
 147 00c4 97000000 		call	switch_to_user@plt
 147      E7800000 
 148              	.LVL10:
  33:src/../h/fun.hpp ****     userMain();
 149              		.loc 1 33 5 is_stmt 1
 150              		.loc 1 33 13 is_stmt 0
 151 00cc 97000000 		call	_Z8userMainv@plt
 151      E7800000 
 152              	.LVL11:
  34:src/../h/fun.hpp ****     switch_to_priviledged();
 153              		.loc 1 34 5 is_stmt 1
 154              		.loc 1 34 26 is_stmt 0
 155 00d4 97000000 		call	switch_to_priviledged@plt
 155      E7800000 
 156              	.LVL12:
  35:src/../h/fun.hpp ****     is_user_main_finished = true;
 157              		.loc 1 35 5 is_stmt 1
 158              		.loc 1 35 27 is_stmt 0
GAS LISTING /tmp/ccwQDsh3.s 			page 8


 159 00dc 93071000 		li	a5,1
 160 00e0 17070000 		sb	a5,.LANCHOR0,a4
 160      2300F700 
  36:src/../h/fun.hpp **** }
 161              		.loc 1 36 1
 162 00e8 83308100 		ld	ra,8(sp)
 163              		.cfi_restore 1
 164 00ec 03340100 		ld	s0,0(sp)
 165              		.cfi_restore 8
 166              		.cfi_def_cfa 2, 16
 167 00f0 13010101 		addi	sp,sp,16
 168              		.cfi_def_cfa_offset 0
 169 00f4 67800000 		jr	ra
 170              		.cfi_endproc
 171              	.LFE77:
 173              		.align	2
 174              		.globl	_Z12memory_setupv
 176              	_Z12memory_setupv:
 177              	.LFB78:
  37:src/../h/fun.hpp **** 
  38:src/../h/fun.hpp **** void memory_setup(){
 178              		.loc 1 38 20 is_stmt 1
 179              		.cfi_startproc
 180 00f8 130101FF 		addi	sp,sp,-16
 181              		.cfi_def_cfa_offset 16
 182 00fc 23341100 		sd	ra,8(sp)
 183 0100 23308100 		sd	s0,0(sp)
 184              		.cfi_offset 1, -8
 185              		.cfi_offset 8, -16
 186 0104 13040101 		addi	s0,sp,16
 187              		.cfi_def_cfa 8, 0
  39:src/../h/fun.hpp ****     void * space = (void*)HEAP_START_ADDR;
 188              		.loc 1 39 5
 189              		.loc 1 39 12 is_stmt 0
 190 0108 97070000 		la	a5,HEAP_START_ADDR
 190      83B70700 
 191 0110 03B50700 		ld	a0,0(a5)
 192              	.LVL13:
  40:src/../h/fun.hpp ****     int block_num = ((size_t)HEAP_END_ADDR - (size_t)HEAP_START_ADDR) / 8 / BLOCK_SIZE;
 193              		.loc 1 40 5 is_stmt 1
 194              		.loc 1 40 44 is_stmt 0
 195 0114 97070000 		la	a5,HEAP_END_ADDR
 195      83B70700 
 196 011c 83B50700 		ld	a1,0(a5)
 197 0120 B385A540 		sub	a1,a1,a0
 198              		.loc 1 40 9
 199 0124 93D5F500 		srli	a1,a1,15
 200              	.LVL14:
  41:src/../h/fun.hpp ****     kmem_init(space, block_num);
 201              		.loc 1 41 5 is_stmt 1
 202              		.loc 1 41 14 is_stmt 0
 203 0128 9B850500 		sext.w	a1,a1
 204 012c 97000000 		call	_Z9kmem_initPvi@plt
 204      E7800000 
 205              	.LVL15:
  42:src/../h/fun.hpp **** //    printString("Buddy allocator heap start: ");
  43:src/../h/fun.hpp **** //    printInt(BuddySystem::getInstance().get_buddy_alloc_heap_start());
GAS LISTING /tmp/ccwQDsh3.s 			page 9


  44:src/../h/fun.hpp **** //    printString("\n");
  45:src/../h/fun.hpp **** //    printString("Buddy allocator heap end: ");
  46:src/../h/fun.hpp **** //    printInt(BuddySystem::getInstance().get_buddy_alloc_heap_end());
  47:src/../h/fun.hpp **** //    printString("\n");
  48:src/../h/fun.hpp **** //    printString("Memory allocator heap start: ");
  49:src/../h/fun.hpp **** //    printInt(MemoryAllocator::getInstance().get_mem_alloc_heap_start());
  50:src/../h/fun.hpp **** //    printString("\n");
  51:src/../h/fun.hpp **** //    printString("Memory allocator heap end: ");
  52:src/../h/fun.hpp **** //    printInt(MemoryAllocator::getInstance().get_mem_alloc_heap_end());
  53:src/../h/fun.hpp **** //    printString("\n\n");
  54:src/../h/fun.hpp **** }
 206              		.loc 1 54 1
 207 0134 83308100 		ld	ra,8(sp)
 208              		.cfi_restore 1
 209 0138 03340100 		ld	s0,0(sp)
 210              		.cfi_restore 8
 211              		.cfi_def_cfa 2, 16
 212 013c 13010101 		addi	sp,sp,16
 213              		.cfi_def_cfa_offset 0
 214 0140 67800000 		jr	ra
 215              		.cfi_endproc
 216              	.LFE78:
 218              		.align	2
 219              		.globl	main
 221              	main:
 222              	.LFB79:
 223              		.file 4 "src/main.cpp"
   1:src/main.cpp  **** 
   2:src/main.cpp  **** #include "../lib/hw.h"
   3:src/main.cpp  **** #include "../h/console.hpp"
   4:src/main.cpp  **** #include "../test/printing.hpp"
   5:src/main.cpp  **** #include "../h/riscv.hpp"
   6:src/main.cpp  **** #include "../h/syscall_c.h"
   7:src/main.cpp  **** #include "../test/userMain.hpp"
   8:src/main.cpp  **** #include "../h/fun.hpp"
   9:src/main.cpp  **** 
  10:src/main.cpp  **** 
  11:src/main.cpp  **** 
  12:src/main.cpp  **** int main(){
 224              		.loc 4 12 11 is_stmt 1
 225              		.cfi_startproc
 226              		.cfi_personality 0x9b,DW.ref.__gxx_personality_v0
 227              		.cfi_lsda 0x1b,.LLSDA79
 228 0144 130101FC 		addi	sp,sp,-64
 229              		.cfi_def_cfa_offset 64
 230 0148 233C1102 		sd	ra,56(sp)
 231 014c 23388102 		sd	s0,48(sp)
 232 0150 23349102 		sd	s1,40(sp)
 233              		.cfi_offset 1, -8
 234              		.cfi_offset 8, -16
 235              		.cfi_offset 9, -24
 236 0154 13040104 		addi	s0,sp,64
 237              		.cfi_def_cfa 8, 0
  13:src/main.cpp  **** 
  14:src/main.cpp  ****     // ############################################################################################
  15:src/main.cpp  ****     // upis u stvec
  16:src/main.cpp  ****     uint64 address = reinterpret_cast<uint64>(&Riscv::supervisorTrap);
GAS LISTING /tmp/ccwQDsh3.s 			page 10


 238              		.loc 4 16 5
 239              		.loc 4 16 12 is_stmt 0
 240 0158 97070000 		la	a5,_ZN5Riscv14supervisorTrapEv
 240      83B70700 
 241              	.LVL16:
  17:src/main.cpp  ****     Riscv::w_stvec(address);
 242              		.loc 4 17 5 is_stmt 1
 243              	.LBB50:
 244              	.LBB51:
 131:src/../h/riscv.hpp **** }
 245              		.loc 2 131 5
 131:src/../h/riscv.hpp **** }
 246              		.loc 2 131 69 is_stmt 0
 247              	#APP
 248              	# 131 "src/../h/riscv.hpp" 1
 249              		csrw stvec, a5
 250              	# 0 "" 2
 251              	.LVL17:
 252              	#NO_APP
 253              	.LBE51:
 254              	.LBE50:
  18:src/main.cpp  **** 
  19:src/main.cpp  ****     // kreiranje main niti
  20:src/main.cpp  ****     thread_t mainThread = nullptr;
 255              		.loc 4 20 5 is_stmt 1
 256              		.loc 4 20 14 is_stmt 0
 257 0164 233C04FC 		sd	zero,-40(s0)
  21:src/main.cpp  ****     thread_create(&mainThread, nullptr, nullptr);
 258              		.loc 4 21 5 is_stmt 1
 259              		.loc 4 21 18 is_stmt 0
 260 0168 13060000 		li	a2,0
 261 016c 93050000 		li	a1,0
 262 0170 130584FD 		addi	a0,s0,-40
 263              	.LEHB0:
 264 0174 97000000 		call	thread_create@plt
 264      E7800000 
 265              	.LVL18:
  22:src/main.cpp  ****     TCB::running = (TCB*)mainThread;
 266              		.loc 4 22 5 is_stmt 1
 267              		.loc 4 22 18 is_stmt 0
 268 017c 97070000 		la	a5,_ZN3TCB7runningE
 268      83B70700 
 269 0184 033784FD 		ld	a4,-40(s0)
 270 0188 23B0E700 		sd	a4,0(a5)
  23:src/main.cpp  **** 
  24:src/main.cpp  ****     // kreiranje idle niti
  25:src/main.cpp  ****     thread_create((thread_t*)&TCB::idle, &idle_function, nullptr);
 271              		.loc 4 25 5 is_stmt 1
 272              		.loc 4 25 18 is_stmt 0
 273 018c 13060000 		li	a2,0
 274 0190 97050000 		lla	a1,_Z13idle_functionPv
 274      93850500 
 275 0198 17050000 		la	a0,_ZN3TCB4idleE
 275      03350500 
 276 01a0 97000000 		call	thread_create@plt
 276      E7800000 
 277              	.LVL19:
GAS LISTING /tmp/ccwQDsh3.s 			page 11


  26:src/main.cpp  **** 
  27:src/main.cpp  ****     // kreiranje userMain niti
  28:src/main.cpp  **** //    thread_t userMainThread = nullptr;
  29:src/main.cpp  **** //    thread_create(&userMainThread, &userMain, nullptr);
  30:src/main.cpp  **** 
  31:src/main.cpp  ****     thread_t userMainThread = nullptr;
 278              		.loc 4 31 5 is_stmt 1
 279              		.loc 4 31 14 is_stmt 0
 280 01a8 233804FC 		sd	zero,-48(s0)
  32:src/main.cpp  ****     thread_create(&userMainThread, &user_main_wrapper, nullptr);
 281              		.loc 4 32 5 is_stmt 1
 282              		.loc 4 32 18 is_stmt 0
 283 01ac 13060000 		li	a2,0
 284 01b0 97050000 		lla	a1,_Z17user_main_wrapperPv
 284      93850500 
 285 01b8 130504FD 		addi	a0,s0,-48
 286 01bc 97000000 		call	thread_create@plt
 286      E7800000 
 287              	.LVL20:
  33:src/main.cpp  **** 
  34:src/main.cpp  ****     // kreiranje niti za ispis
  35:src/main.cpp  ****     thread_t consoleWriter = nullptr;
 288              		.loc 4 35 5 is_stmt 1
 289              		.loc 4 35 14 is_stmt 0
 290 01c4 233404FC 		sd	zero,-56(s0)
  36:src/main.cpp  ****     thread_create(&consoleWriter, &putc_function, nullptr);
 291              		.loc 4 36 5 is_stmt 1
 292              		.loc 4 36 18 is_stmt 0
 293 01c8 13060000 		li	a2,0
 294 01cc 97050000 		lla	a1,_Z13putc_functionPv
 294      93850500 
 295 01d4 130584FC 		addi	a0,s0,-56
 296 01d8 97000000 		call	thread_create@plt
 296      E7800000 
 297              	.LVL21:
  37:src/main.cpp  ****     Console::getInstance();
 298              		.loc 4 37 5 is_stmt 1
 299              	.LBB52:
 300              	.LBB53:
  10:src/../h/console.hpp ****         return instance;
 301              		.loc 3 10 9
  10:src/../h/console.hpp ****         return instance;
 302              		.loc 3 10 24 is_stmt 0
 303 01e0 97070000 		lbu	a5,_ZGVZN7Console11getInstanceEvE8instance
 303      83C70700 
 304 01e8 638C0700 		beqz	a5,.L26
 305              	.L16:
 306              		.loc 3 11 9 is_stmt 1
 307              	.LBE53:
 308              	.LBE52:
  38:src/main.cpp  ****     memory_setup();
 309              		.loc 4 38 5
 310              		.loc 4 38 17 is_stmt 0
 311 01ec 97000000 		call	_Z12memory_setupv
 311      E7800000 
 312              	.LVL22:
  39:src/main.cpp  **** 
GAS LISTING /tmp/ccwQDsh3.s 			page 12


  40:src/main.cpp  ****     Riscv::ms_sstatus(Riscv::SSTATUS_SIE);
 313              		.loc 4 40 5 is_stmt 1
 314              	.LBB55:
 315              	.LBB56:
 170:src/../h/riscv.hpp **** }
 316              		.loc 2 170 5
 170:src/../h/riscv.hpp **** }
 317              		.loc 2 170 68 is_stmt 0
 318 01f4 93072000 		li	a5,2
 319              	#APP
 320              	# 170 "src/../h/riscv.hpp" 1
 171:src/../h/riscv.hpp **** 
 321              		csrs sstatus, a5
 322              	# 0 "" 2
 323              		.loc 2 171 1
 324              	#NO_APP
 325 01fc 6F00C005 		j	.L20
 326              	.LVL23:
 327              	.L26:
 328              	.LBE56:
 329              	.LBE55:
 330              	.LBB57:
 331              	.LBB54:
  10:src/../h/console.hpp ****         return instance;
 332              		.loc 3 10 24
 333 0200 17050000 		lla	a0,_ZZN7Console11getInstanceEvE8instance
 333      13050500 
 334 0208 97000000 		call	_ZN7ConsoleC1Ev@plt
 334      E7800000 
 335              	.LVL24:
 336 0210 93071000 		li	a5,1
 337 0214 17070000 		sb	a5,_ZGVZN7Console11getInstanceEvE8instance,a4
 337      2300F700 
 338 021c 6FF01FFD 		j	.L16
 339              	.L27:
 340              	.LBE54:
 341              	.LBE57:
 342              	.LBB58:
 343              	.LBB59:
 344 0220 17050000 		lla	a0,_ZZN7Console11getInstanceEvE8instance
 344      13050500 
 345 0228 97000000 		call	_ZN7ConsoleC1Ev@plt
 345      E7800000 
 346              	.LVL25:
 347 0230 93071000 		li	a5,1
 348 0234 17070000 		sb	a5,_ZGVZN7Console11getInstanceEvE8instance,a4
 348      2300F700 
 349              	.L18:
 350              		.loc 3 11 9 is_stmt 1
 351              	.LVL26:
 352              	.LBE59:
 353              	.LBE58:
 354              	.LBB61:
 355              	.LBB62:
  12:src/../h/console.hpp ****     }
  13:src/../h/console.hpp **** 
  14:src/../h/console.hpp ****     Console(const Console&) = delete;
GAS LISTING /tmp/ccwQDsh3.s 			page 13


  15:src/../h/console.hpp ****     void operator=(Console const&) = delete;
  16:src/../h/console.hpp **** 
  17:src/../h/console.hpp ****     void put_in_input(char c);
  18:src/../h/console.hpp ****     char get_from_input();
  19:src/../h/console.hpp ****     void put_in_output(char c);
  20:src/../h/console.hpp ****     char get_from_output();
  21:src/../h/console.hpp ****     int get_output_size(){ return output_buffer->getCnt(); }
 356              		.loc 3 21 28
 357              		.loc 3 21 56 is_stmt 0
 358 023c 17050000 		ld	a0,_ZZN7Console11getInstanceEvE8instance+8
 358      03350500 
 359 0244 97000000 		call	_ZN8MyBuffer6getCntEv@plt
 359      E7800000 
 360              	.LVL27:
 361              	.LBE62:
 362              	.LBE61:
  41:src/main.cpp  **** 
  42:src/main.cpp  ****     // ako sam obrisao userMain pristupam nepostojecoj strukturi
  43:src/main.cpp  **** //    while(!((TCB*)userMainThread)->is_finished()){
  44:src/main.cpp  **** //        thread_dispatch();
  45:src/main.cpp  **** //    }
  46:src/main.cpp  **** 
  47:src/main.cpp  ****     while(!is_user_main_finished || Console::getInstance().get_output_size()){
 363              		.loc 4 47 34
 364 024c 63040502 		beqz	a0,.L19
 365              	.L17:
  48:src/main.cpp  ****         thread_dispatch();
 366              		.loc 4 48 9 is_stmt 1 discriminator 5
 367              		.loc 4 48 24 is_stmt 0 discriminator 5
 368 0250 97000000 		call	thread_dispatch@plt
 368      E7800000 
 369              	.LVL28:
 370              	.LEHE0:
 371              	.L20:
  47:src/main.cpp  ****         thread_dispatch();
 372              		.loc 4 47 5 is_stmt 1
  47:src/main.cpp  ****         thread_dispatch();
 373              		.loc 4 47 34
  47:src/main.cpp  ****         thread_dispatch();
 374              		.loc 4 47 11 is_stmt 0
 375 0258 97070000 		lbu	a5,.LANCHOR0
 375      83C70700 
  47:src/main.cpp  ****         thread_dispatch();
 376              		.loc 4 47 34
 377 0260 E38807FE 		beqz	a5,.L17
 378              	.LBB63:
 379              	.LBB60:
  10:src/../h/console.hpp ****         return instance;
 380              		.loc 3 10 9 is_stmt 1
  10:src/../h/console.hpp ****         return instance;
 381              		.loc 3 10 24 is_stmt 0
 382 0264 97070000 		lbu	a5,_ZGVZN7Console11getInstanceEvE8instance
 382      83C70700 
 383 026c E39807FC 		bnez	a5,.L18
 384 0270 6FF01FFB 		j	.L27
 385              	.L19:
 386              	.LBE60:
GAS LISTING /tmp/ccwQDsh3.s 			page 14


 387              	.LBE63:
  49:src/main.cpp  ****     }
  50:src/main.cpp  **** 
  51:src/main.cpp  **** 
  52:src/main.cpp  ****     delete Console::getInstance().get_input_buff();
 388              		.loc 4 52 5 is_stmt 1
 389              	.LBB64:
 390              	.LBB65:
  10:src/../h/console.hpp ****         return instance;
 391              		.loc 3 10 9
  10:src/../h/console.hpp ****         return instance;
 392              		.loc 3 10 24 is_stmt 0
 393 0274 97070000 		lbu	a5,_ZGVZN7Console11getInstanceEvE8instance
 393      83C70700 
 394 027c 638A0704 		beqz	a5,.L28
 395              	.L21:
  11:src/../h/console.hpp ****     }
 396              		.loc 3 11 9 is_stmt 1
 397              	.LVL29:
 398              	.LBE65:
 399              	.LBE64:
 400              	.LBB67:
 401              	.LBB68:
  22:src/../h/console.hpp ****     int get_input_size(){ return input_buffer->getCnt(); }
  23:src/../h/console.hpp **** 
  24:src/../h/console.hpp ****     MyBuffer* get_input_buff(){return input_buffer;}
 402              		.loc 3 24 32
 403              		.loc 3 24 39 is_stmt 0
 404 0280 97040000 		ld	s1,_ZZN7Console11getInstanceEvE8instance
 404      83B40400 
 405              	.LVL30:
 406              	.LBE68:
 407              	.LBE67:
 408              		.loc 4 52 51
 409 0288 63880402 		beqz	s1,.L22
 410              		.loc 4 52 50 discriminator 2
 411 028c 13850400 		mv	a0,s1
 412 0290 97000000 		call	_ZN8MyBufferD1Ev@plt
 412      E7800000 
 413              	.LVL31:
 414              	.LBB69:
 415              	.LBB70:
 416              		.file 5 "src/../h/../h/my_buffer.hpp"
   1:src/../h/../h/my_buffer.hpp **** #ifndef _my_buffer_hpp_
   2:src/../h/../h/my_buffer.hpp **** #define _my_buffer_hpp_
   3:src/../h/../h/my_buffer.hpp **** 
   4:src/../h/../h/my_buffer.hpp **** #include "../h/semaphore.hpp"
   5:src/../h/../h/my_buffer.hpp **** #include "../h/MemoryAllocator.hpp"
   6:src/../h/../h/my_buffer.hpp **** #include "../lib/hw.h"
   7:src/../h/../h/my_buffer.hpp **** 
   8:src/../h/../h/my_buffer.hpp **** class MyBuffer {
   9:src/../h/../h/my_buffer.hpp **** private:
  10:src/../h/../h/my_buffer.hpp ****     int cap;
  11:src/../h/../h/my_buffer.hpp ****     int *buffer;
  12:src/../h/../h/my_buffer.hpp ****     int head, tail;
  13:src/../h/../h/my_buffer.hpp **** 
  14:src/../h/../h/my_buffer.hpp ****     MySemaphore* spaceAvailable;
GAS LISTING /tmp/ccwQDsh3.s 			page 15


  15:src/../h/../h/my_buffer.hpp ****     MySemaphore* itemAvailable;
  16:src/../h/../h/my_buffer.hpp ****     MySemaphore* mutexHead;
  17:src/../h/../h/my_buffer.hpp ****     MySemaphore* mutexTail;
  18:src/../h/../h/my_buffer.hpp **** 
  19:src/../h/../h/my_buffer.hpp **** 
  20:src/../h/../h/my_buffer.hpp **** 
  21:src/../h/../h/my_buffer.hpp **** public:
  22:src/../h/../h/my_buffer.hpp ****     MyBuffer(int _cap);
  23:src/../h/../h/my_buffer.hpp ****     ~MyBuffer();
  24:src/../h/../h/my_buffer.hpp **** 
  25:src/../h/../h/my_buffer.hpp ****     void put(int val);
  26:src/../h/../h/my_buffer.hpp ****     int get();
  27:src/../h/../h/my_buffer.hpp **** 
  28:src/../h/../h/my_buffer.hpp ****     int getCnt();
  29:src/../h/../h/my_buffer.hpp **** 
  30:src/../h/../h/my_buffer.hpp ****     // operatori
  31:src/../h/../h/my_buffer.hpp ****     void *operator new(uint64 n){
  32:src/../h/../h/my_buffer.hpp ****         uint64 ssize = (n + MEM_BLOCK_SIZE - 1) / MEM_BLOCK_SIZE;
  33:src/../h/../h/my_buffer.hpp ****         return MemoryAllocator::getInstance().memory_alloc(ssize);
  34:src/../h/../h/my_buffer.hpp ****     }
  35:src/../h/../h/my_buffer.hpp **** 
  36:src/../h/../h/my_buffer.hpp ****     void *operator new[](uint64 n){
  37:src/../h/../h/my_buffer.hpp ****         uint64 ssize = (n + MEM_BLOCK_SIZE - 1) / MEM_BLOCK_SIZE;
  38:src/../h/../h/my_buffer.hpp ****         return MemoryAllocator::getInstance().memory_alloc(ssize);
  39:src/../h/../h/my_buffer.hpp ****     }
  40:src/../h/../h/my_buffer.hpp **** 
  41:src/../h/../h/my_buffer.hpp ****     void operator delete(void* p)noexcept{
  42:src/../h/../h/my_buffer.hpp ****         MemoryAllocator::getInstance().memory_free(p);
 417              		.loc 5 42 9 is_stmt 1 discriminator 2
 418              	.LBB71:
 419              	.LBB72:
 420              		.file 6 "src/../h/../h/../h/../h/MemoryAllocator.hpp"
   1:src/../h/../h/../h/../h/MemoryAllocator.hpp **** #ifndef _memory_allocator_hpp_
   2:src/../h/../h/../h/../h/MemoryAllocator.hpp **** #define _memory_allocator_hpp_
   3:src/../h/../h/../h/../h/MemoryAllocator.hpp **** 
   4:src/../h/../h/../h/../h/MemoryAllocator.hpp **** #include "../lib/hw.h"
   5:src/../h/../h/../h/../h/MemoryAllocator.hpp **** 
   6:src/../h/../h/../h/../h/MemoryAllocator.hpp **** class MemoryAllocator{
   7:src/../h/../h/../h/../h/MemoryAllocator.hpp **** public:
   8:src/../h/../h/../h/../h/MemoryAllocator.hpp **** 
   9:src/../h/../h/../h/../h/MemoryAllocator.hpp ****     // dodaj instancu
  10:src/../h/../h/../h/../h/MemoryAllocator.hpp ****     static MemoryAllocator& getInstance(){
  11:src/../h/../h/../h/../h/MemoryAllocator.hpp ****         static MemoryAllocator instance;
 421              		.loc 6 11 9 discriminator 2
 422              		.loc 6 11 32 is_stmt 0 discriminator 2
 423 0298 97070000 		lbu	a5,_ZGVZN15MemoryAllocator11getInstanceEvE8instance
 423      83C70700 
 424 02a0 63880704 		beqz	a5,.L29
 425              	.L23:
  12:src/../h/../h/../h/../h/MemoryAllocator.hpp ****         return instance;
 426              		.loc 6 12 9 is_stmt 1
 427              	.LBE72:
 428              	.LBE71:
 429              		.loc 5 42 51 is_stmt 0
 430 02a4 93850400 		mv	a1,s1
 431 02a8 17050000 		lla	a0,_ZZN15MemoryAllocator11getInstanceEvE8instance
 431      13050500 
GAS LISTING /tmp/ccwQDsh3.s 			page 16


 432 02b0 97000000 		call	_ZN15MemoryAllocator11memory_freeEPv@plt
 432      E7800000 
 433              	.LVL32:
 434              	.L22:
 435              	.LBE70:
 436              	.LBE69:
  53:src/main.cpp  ****     return 0;
 437              		.loc 4 53 5 is_stmt 1
  54:src/main.cpp  **** }...
 438              		.loc 4 54 1 is_stmt 0
 439 02b8 13050000 		li	a0,0
 440 02bc 83308103 		ld	ra,56(sp)
 441              		.cfi_remember_state
 442              		.cfi_restore 1
 443 02c0 03340103 		ld	s0,48(sp)
 444              		.cfi_restore 8
 445              		.cfi_def_cfa 2, 64
 446 02c4 83348102 		ld	s1,40(sp)
 447              		.cfi_restore 9
 448 02c8 13010104 		addi	sp,sp,64
 449              		.cfi_def_cfa_offset 0
 450 02cc 67800000 		jr	ra
 451              	.L28:
 452              		.cfi_restore_state
 453              	.LBB80:
 454              	.LBB66:
  10:src/../h/console.hpp ****         return instance;
 455              		.loc 3 10 24
 456 02d0 17050000 		lla	a0,_ZZN7Console11getInstanceEvE8instance
 456      13050500 
 457              	.LEHB1:
 458 02d8 97000000 		call	_ZN7ConsoleC1Ev@plt
 458      E7800000 
 459              	.LVL33:
 460              	.LEHE1:
 461 02e0 93071000 		li	a5,1
 462 02e4 17070000 		sb	a5,_ZGVZN7Console11getInstanceEvE8instance,a4
 462      2300F700 
 463 02ec 6FF05FF9 		j	.L21
 464              	.LVL34:
 465              	.L29:
 466              	.LBE66:
 467              	.LBE80:
 468              	.LBB81:
 469              	.LBB79:
 470              	.LBB78:
 471              	.LBB77:
 472              	.LBB73:
 473              	.LBB74:
 474              	.LBB75:
  13:src/../h/../h/../h/../h/MemoryAllocator.hpp ****     }
  14:src/../h/../h/../h/../h/MemoryAllocator.hpp **** 
  15:src/../h/../h/../h/../h/MemoryAllocator.hpp ****     MemoryAllocator(const MemoryAllocator&) = delete;
  16:src/../h/../h/../h/../h/MemoryAllocator.hpp ****     void operator=(MemoryAllocator const&) = delete;
  17:src/../h/../h/../h/../h/MemoryAllocator.hpp **** 
  18:src/../h/../h/../h/../h/MemoryAllocator.hpp ****     void* memory_alloc (size_t);
  19:src/../h/../h/../h/../h/MemoryAllocator.hpp **** 
GAS LISTING /tmp/ccwQDsh3.s 			page 17


  20:src/../h/../h/../h/../h/MemoryAllocator.hpp ****     int memory_free (void*);
  21:src/../h/../h/../h/../h/MemoryAllocator.hpp ****     int get_mem_alloc_heap_start(){return this->heapStart;}
  22:src/../h/../h/../h/../h/MemoryAllocator.hpp ****     int get_mem_alloc_heap_end(){return this->heapEnd;}
  23:src/../h/../h/../h/../h/MemoryAllocator.hpp **** 
  24:src/../h/../h/../h/../h/MemoryAllocator.hpp **** private:
  25:src/../h/../h/../h/../h/MemoryAllocator.hpp **** 
  26:src/../h/../h/../h/../h/MemoryAllocator.hpp ****     struct FreeMem{
  27:src/../h/../h/../h/../h/MemoryAllocator.hpp ****         size_t size;
  28:src/../h/../h/../h/../h/MemoryAllocator.hpp ****         FreeMem* next;
  29:src/../h/../h/../h/../h/MemoryAllocator.hpp ****         FreeMem* prev;
  30:src/../h/../h/../h/../h/MemoryAllocator.hpp ****     };
  31:src/../h/../h/../h/../h/MemoryAllocator.hpp **** 
  32:src/../h/../h/../h/../h/MemoryAllocator.hpp ****     FreeMem* fmem_head = nullptr;
  33:src/../h/../h/../h/../h/MemoryAllocator.hpp ****     size_t heapStart;
  34:src/../h/../h/../h/../h/MemoryAllocator.hpp ****     size_t heapEnd;
  35:src/../h/../h/../h/../h/MemoryAllocator.hpp **** 
  36:src/../h/../h/../h/../h/MemoryAllocator.hpp ****     MemoryAllocator(){
 475              		.loc 6 36 22
 476 02f0 17060000 		lla	a2,_ZZN15MemoryAllocator11getInstanceEvE8instance
 476      13060600 
 477              	.LBB76:
  37:src/../h/../h/../h/../h/MemoryAllocator.hpp **** 
  38:src/../h/../h/../h/../h/MemoryAllocator.hpp ****         heapStart = (size_t)HEAP_START_ADDR + ((size_t)HEAP_END_ADDR - (size_t)HEAP_START_ADDR) / 8
 478              		.loc 6 38 9 is_stmt 1
 479              		.loc 6 38 70 is_stmt 0
 480 02f8 97070000 		la	a5,HEAP_END_ADDR
 480      83B70700 
 481 0300 03B70700 		ld	a4,0(a5)
 482 0304 97070000 		la	a5,HEAP_START_ADDR
 482      83B70700 
 483 030c 83B70700 		ld	a5,0(a5)
 484 0310 B306F740 		sub	a3,a4,a5
 485              		.loc 6 38 97
 486 0314 93D63600 		srli	a3,a3,3
 487              		.loc 6 38 45
 488 0318 B387D700 		add	a5,a5,a3
 489              		.loc 6 38 101
 490 031c 93871700 		addi	a5,a5,1
 491              		.loc 6 38 19
 492 0320 2334F600 		sd	a5,8(a2)
  39:src/../h/../h/../h/../h/MemoryAllocator.hpp ****         heapEnd = (size_t)HEAP_END_ADDR - 1;
 493              		.loc 6 39 9 is_stmt 1
 494              		.loc 6 39 41 is_stmt 0
 495 0324 1307F7FF 		addi	a4,a4,-1
 496              		.loc 6 39 17
 497 0328 2338E600 		sd	a4,16(a2)
  40:src/../h/../h/../h/../h/MemoryAllocator.hpp **** 
  41:src/../h/../h/../h/../h/MemoryAllocator.hpp ****         size_t sizeInBlocks = (heapEnd - heapStart) / MEM_BLOCK_SIZE;
 498              		.loc 6 41 9 is_stmt 1
 499              		.loc 6 41 40 is_stmt 0
 500 032c 3307F740 		sub	a4,a4,a5
 501              		.loc 6 41 16
 502 0330 13576700 		srli	a4,a4,6
 503              	.LVL35:
  42:src/../h/../h/../h/../h/MemoryAllocator.hpp **** 
  43:src/../h/../h/../h/../h/MemoryAllocator.hpp ****         // poravnaj na prvu krstenu adresu
  44:src/../h/../h/../h/../h/MemoryAllocator.hpp ****         fmem_head = (FreeMem*)(heapStart + ((heapStart % MEM_BLOCK_SIZE != 0)?(MEM_BLOCK_SIZE - hea
GAS LISTING /tmp/ccwQDsh3.s 			page 18


 504              		.loc 6 44 9 is_stmt 1
 505              		.loc 6 44 56 is_stmt 0
 506 0334 93F6F703 		andi	a3,a5,63
 507              		.loc 6 44 78
 508 0338 63860600 		beqz	a3,.L24
 509 033c 13060004 		li	a2,64
 510 0340 B306D640 		sub	a3,a2,a3
 511              	.L24:
 512              		.loc 6 44 42
 513 0344 B387D700 		add	a5,a5,a3
 514              		.loc 6 44 19
 515 0348 97060000 		sd	a5,_ZZN15MemoryAllocator11getInstanceEvE8instance,a3
 515      23B0F600 
  45:src/../h/../h/../h/../h/MemoryAllocator.hpp **** 
  46:src/../h/../h/../h/../h/MemoryAllocator.hpp ****         // napravi node
  47:src/../h/../h/../h/../h/MemoryAllocator.hpp **** 
  48:src/../h/../h/../h/../h/MemoryAllocator.hpp ****         fmem_head->next = nullptr;
 516              		.loc 6 48 9 is_stmt 1
 517              		.loc 6 48 25 is_stmt 0
 518 0350 23B40700 		sd	zero,8(a5)
  49:src/../h/../h/../h/../h/MemoryAllocator.hpp ****         fmem_head->prev = nullptr;
 519              		.loc 6 49 9 is_stmt 1
 520              		.loc 6 49 25 is_stmt 0
 521 0354 23B80700 		sd	zero,16(a5)
  50:src/../h/../h/../h/../h/MemoryAllocator.hpp ****         fmem_head->size = sizeInBlocks;
 522              		.loc 6 50 9 is_stmt 1
 523              		.loc 6 50 25 is_stmt 0
 524 0358 23B0E700 		sd	a4,0(a5)
 525              	.LVL36:
 526              	.LBE76:
 527              	.LBE75:
 528              	.LBE74:
 529              	.LBE73:
  11:src/../h/../h/../h/../h/MemoryAllocator.hpp ****         return instance;
 530              		.loc 6 11 32
 531 035c 93071000 		li	a5,1
 532 0360 17070000 		sb	a5,_ZGVZN15MemoryAllocator11getInstanceEvE8instance,a4
 532      2300F700 
 533 0368 6FF0DFF3 		j	.L23
 534              	.LBE77:
 535              	.LBE78:
 536              	.LBE79:
 537              	.LBE81:
 538              		.cfi_endproc
 539              	.LFE79:
 540              		.globl	__gxx_personality_v0
 541              		.section	.gcc_except_table,"a",@progbits
 542              	.LLSDA79:
 543 0000 FF       		.byte	0xff
 544 0001 FF       		.byte	0xff
 545 0002 03       		.byte	0x3
 546 0003 1A       		.byte	0x1a
 547 0004 00000000 		.4byte	.LEHB0-.LFB79
 548 0008 00000000 		.4byte	.LEHE0-.LEHB0
 549 000c 00000000 		.4byte	0
 550 0010 00       		.byte	0
 551 0011 00000000 		.4byte	.LEHB1-.LFB79
GAS LISTING /tmp/ccwQDsh3.s 			page 19


 552 0015 00000000 		.4byte	.LEHE1-.LEHB1
 553 0019 00000000 		.4byte	0
 554 001d 00       		.byte	0
 555              		.text
 557              		.weak	_ZGVZN7Console11getInstanceEvE8instance
 558              		.section	.bss._ZGVZN7Console11getInstanceEvE8instance,"awG",@nobits,_ZGVZN7Console11getInstanceEvE
 559              		.align	3
 562              	_ZGVZN7Console11getInstanceEvE8instance:
 563 0000 00000000 		.zero	8
 563      00000000 
 564              		.weak	_ZZN7Console11getInstanceEvE8instance
 565              		.section	.bss._ZZN7Console11getInstanceEvE8instance,"awG",@nobits,_ZZN7Console11getInstanceEvE8ins
 566              		.align	3
 569              	_ZZN7Console11getInstanceEvE8instance:
 570 0000 00000000 		.zero	16
 570      00000000 
 570      00000000 
 570      00000000 
 571              		.weak	_ZGVZN15MemoryAllocator11getInstanceEvE8instance
 572              		.section	.bss._ZGVZN15MemoryAllocator11getInstanceEvE8instance,"awG",@nobits,_ZGVZN15MemoryAllocat
 573              		.align	3
 576              	_ZGVZN15MemoryAllocator11getInstanceEvE8instance:
 577 0000 00000000 		.zero	8
 577      00000000 
 578              		.weak	_ZZN15MemoryAllocator11getInstanceEvE8instance
 579              		.section	.bss._ZZN15MemoryAllocator11getInstanceEvE8instance,"awG",@nobits,_ZZN15MemoryAllocator11
 580              		.align	3
 583              	_ZZN15MemoryAllocator11getInstanceEvE8instance:
 584 0000 00000000 		.zero	24
 584      00000000 
 584      00000000 
 584      00000000 
 584      00000000 
 585              		.bss
 586              		.set	.LANCHOR0,. + 0
 589              	_ZL21is_user_main_finished:
 590 0000 00       		.zero	1
 591              		.text
 592              	.Letext0:
 593              		.file 7 "src/../lib/hw.h"
 594              		.file 8 "src/../h/../h/../h/semaphore.hpp"
 595              		.file 9 "src/../test/../h/../h/../h/TCB.hpp"
 596              		.file 10 "src/../test/../h/syscall_c.h"
 597              		.file 11 "src/../h/../h/SlabI.h"
 598              		.file 12 "src/../test/userMain.hpp"
 4867              		.align	3
 4870              	DW.ref.__gxx_personality_v0:
 4871 0000 00000000 		.dword	__gxx_personality_v0
 4871      00000000 
 4872              		.ident	"GCC: (Ubuntu 9.4.0-1ubuntu1~20.04) 9.4.0"
 4873              		.section	.note.GNU-stack,"",@progbits
GAS LISTING /tmp/ccwQDsh3.s 			page 20


DEFINED SYMBOLS
                            *ABS*:0000000000000000 main.cpp
     /tmp/ccwQDsh3.s:9      .text:0000000000000000 _Z13idle_functionPv
     /tmp/ccwQDsh3.s:13     .text:0000000000000000 .L0 
     /tmp/ccwQDsh3.s:15     .text:0000000000000000 .L0 
     /tmp/ccwQDsh3.s:16     .text:0000000000000004 .L0 
     /tmp/ccwQDsh3.s:19     .text:000000000000000c .L0 
     /tmp/ccwQDsh3.s:20     .text:000000000000000c .L0 
     /tmp/ccwQDsh3.s:22     .text:0000000000000010 .L0 
     /tmp/ccwQDsh3.s:26     .text:0000000000000010 .L0 
     /tmp/ccwQDsh3.s:27     .text:0000000000000010 .L0 
     /tmp/ccwQDsh3.s:28     .text:0000000000000010 .L0 
     /tmp/ccwQDsh3.s:31     .text:0000000000000018 .L0 
     /tmp/ccwQDsh3.s:32     .text:000000000000001c .L0 
     /tmp/ccwQDsh3.s:38     .text:000000000000001c _Z13putc_functionPv
     /tmp/ccwQDsh3.s:41     .text:000000000000001c .L0 
     /tmp/ccwQDsh3.s:43     .text:000000000000001c .L0 
     /tmp/ccwQDsh3.s:44     .text:0000000000000020 .L0 
     /tmp/ccwQDsh3.s:48     .text:000000000000002c .L0 
     /tmp/ccwQDsh3.s:49     .text:000000000000002c .L0 
     /tmp/ccwQDsh3.s:50     .text:000000000000002c .L0 
     /tmp/ccwQDsh3.s:52     .text:0000000000000030 .L0 
     /tmp/ccwQDsh3.s:54     .text:0000000000000030 .L0 
     /tmp/ccwQDsh3.s:55     .text:0000000000000030 .L0 
     /tmp/ccwQDsh3.s:61     .text:0000000000000038 .L0 
     /tmp/ccwQDsh3.s:62     .text:0000000000000038 .L0 
     /tmp/ccwQDsh3.s:63     .text:0000000000000038 .L0 
     /tmp/ccwQDsh3.s:70     .text:0000000000000040 .L0 
     /tmp/ccwQDsh3.s:569    .bss._ZZN7Console11getInstanceEvE8instance:0000000000000000 _ZZN7Console11getInstanceEvE8instance
     /tmp/ccwQDsh3.s:79     .text:0000000000000044 .L0 
     /tmp/ccwQDsh3.s:562    .bss._ZGVZN7Console11getInstanceEvE8instance:0000000000000000 _ZGVZN7Console11getInstanceEvE8instance
     /tmp/ccwQDsh3.s:88     .text:0000000000000060 .L0 
     /tmp/ccwQDsh3.s:89     .text:0000000000000060 .L0 
     /tmp/ccwQDsh3.s:92     .text:000000000000006c .L0 
     /tmp/ccwQDsh3.s:96     .text:000000000000007c .L0 
     /tmp/ccwQDsh3.s:99     .text:0000000000000080 .L0 
     /tmp/ccwQDsh3.s:100    .text:0000000000000080 .L0 
     /tmp/ccwQDsh3.s:101    .text:0000000000000080 .L0 
     /tmp/ccwQDsh3.s:102    .text:0000000000000080 .L0 
     /tmp/ccwQDsh3.s:106    .text:0000000000000090 .L0 
     /tmp/ccwQDsh3.s:111    .text:0000000000000098 .L0 
     /tmp/ccwQDsh3.s:112    .text:0000000000000098 .L0 
     /tmp/ccwQDsh3.s:113    .text:0000000000000098 .L0 
     /tmp/ccwQDsh3.s:120    .text:00000000000000a8 .L0 
     /tmp/ccwQDsh3.s:121    .text:00000000000000a8 .L0 
     /tmp/ccwQDsh3.s:124    .text:00000000000000b0 .L0 
     /tmp/ccwQDsh3.s:125    .text:00000000000000b0 .L0 
     /tmp/ccwQDsh3.s:126    .text:00000000000000b4 .L0 
     /tmp/ccwQDsh3.s:132    .text:00000000000000b4 _Z17user_main_wrapperPv
     /tmp/ccwQDsh3.s:135    .text:00000000000000b4 .L0 
     /tmp/ccwQDsh3.s:137    .text:00000000000000b4 .L0 
     /tmp/ccwQDsh3.s:138    .text:00000000000000b8 .L0 
     /tmp/ccwQDsh3.s:141    .text:00000000000000c0 .L0 
     /tmp/ccwQDsh3.s:142    .text:00000000000000c0 .L0 
     /tmp/ccwQDsh3.s:144    .text:00000000000000c4 .L0 
     /tmp/ccwQDsh3.s:146    .text:00000000000000c4 .L0 
     /tmp/ccwQDsh3.s:147    .text:00000000000000c4 .L0 
GAS LISTING /tmp/ccwQDsh3.s 			page 21


     /tmp/ccwQDsh3.s:150    .text:00000000000000cc .L0 
     /tmp/ccwQDsh3.s:151    .text:00000000000000cc .L0 
     /tmp/ccwQDsh3.s:154    .text:00000000000000d4 .L0 
     /tmp/ccwQDsh3.s:155    .text:00000000000000d4 .L0 
     /tmp/ccwQDsh3.s:158    .text:00000000000000dc .L0 
     /tmp/ccwQDsh3.s:159    .text:00000000000000dc .L0 
     /tmp/ccwQDsh3.s:162    .text:00000000000000e8 .L0 
     /tmp/ccwQDsh3.s:163    .text:00000000000000ec .L0 
     /tmp/ccwQDsh3.s:165    .text:00000000000000f0 .L0 
     /tmp/ccwQDsh3.s:166    .text:00000000000000f0 .L0 
     /tmp/ccwQDsh3.s:168    .text:00000000000000f4 .L0 
     /tmp/ccwQDsh3.s:170    .text:00000000000000f8 .L0 
     /tmp/ccwQDsh3.s:176    .text:00000000000000f8 _Z12memory_setupv
     /tmp/ccwQDsh3.s:179    .text:00000000000000f8 .L0 
     /tmp/ccwQDsh3.s:180    .text:00000000000000f8 .L0 
     /tmp/ccwQDsh3.s:181    .text:00000000000000fc .L0 
     /tmp/ccwQDsh3.s:184    .text:0000000000000104 .L0 
     /tmp/ccwQDsh3.s:185    .text:0000000000000104 .L0 
     /tmp/ccwQDsh3.s:187    .text:0000000000000108 .L0 
     /tmp/ccwQDsh3.s:189    .text:0000000000000108 .L0 
     /tmp/ccwQDsh3.s:190    .text:0000000000000108 .L0 
     /tmp/ccwQDsh3.s:194    .text:0000000000000114 .L0 
     /tmp/ccwQDsh3.s:195    .text:0000000000000114 .L0 
     /tmp/ccwQDsh3.s:199    .text:0000000000000124 .L0 
     /tmp/ccwQDsh3.s:202    .text:0000000000000128 .L0 
     /tmp/ccwQDsh3.s:203    .text:0000000000000128 .L0 
     /tmp/ccwQDsh3.s:207    .text:0000000000000134 .L0 
     /tmp/ccwQDsh3.s:208    .text:0000000000000138 .L0 
     /tmp/ccwQDsh3.s:210    .text:000000000000013c .L0 
     /tmp/ccwQDsh3.s:211    .text:000000000000013c .L0 
     /tmp/ccwQDsh3.s:213    .text:0000000000000140 .L0 
     /tmp/ccwQDsh3.s:215    .text:0000000000000144 .L0 
     /tmp/ccwQDsh3.s:221    .text:0000000000000144 main
     /tmp/ccwQDsh3.s:225    .text:0000000000000144 .L0 
     /tmp/ccwQDsh3.s:4870   .data.rel.local.DW.ref.__gxx_personality_v0:0000000000000000 DW.ref.__gxx_personality_v0
     /tmp/ccwQDsh3.s:228    .text:0000000000000144 .L0 
     /tmp/ccwQDsh3.s:229    .text:0000000000000148 .L0 
     /tmp/ccwQDsh3.s:233    .text:0000000000000154 .L0 
     /tmp/ccwQDsh3.s:234    .text:0000000000000154 .L0 
     /tmp/ccwQDsh3.s:235    .text:0000000000000154 .L0 
     /tmp/ccwQDsh3.s:237    .text:0000000000000158 .L0 
     /tmp/ccwQDsh3.s:239    .text:0000000000000158 .L0 
     /tmp/ccwQDsh3.s:240    .text:0000000000000158 .L0 
     /tmp/ccwQDsh3.s:245    .text:0000000000000160 .L0 
     /tmp/ccwQDsh3.s:246    .text:0000000000000160 .L0 
  src/../h/riscv.hpp:131    .text:0000000000000160 .L0 
     /tmp/ccwQDsh3.s:256    .text:0000000000000164 .L0 
     /tmp/ccwQDsh3.s:257    .text:0000000000000164 .L0 
     /tmp/ccwQDsh3.s:259    .text:0000000000000168 .L0 
     /tmp/ccwQDsh3.s:260    .text:0000000000000168 .L0 
     /tmp/ccwQDsh3.s:267    .text:000000000000017c .L0 
     /tmp/ccwQDsh3.s:268    .text:000000000000017c .L0 
     /tmp/ccwQDsh3.s:272    .text:000000000000018c .L0 
     /tmp/ccwQDsh3.s:273    .text:000000000000018c .L0 
     /tmp/ccwQDsh3.s:279    .text:00000000000001a8 .L0 
     /tmp/ccwQDsh3.s:280    .text:00000000000001a8 .L0 
     /tmp/ccwQDsh3.s:282    .text:00000000000001ac .L0 
GAS LISTING /tmp/ccwQDsh3.s 			page 22


     /tmp/ccwQDsh3.s:283    .text:00000000000001ac .L0 
     /tmp/ccwQDsh3.s:289    .text:00000000000001c4 .L0 
     /tmp/ccwQDsh3.s:290    .text:00000000000001c4 .L0 
     /tmp/ccwQDsh3.s:292    .text:00000000000001c8 .L0 
     /tmp/ccwQDsh3.s:293    .text:00000000000001c8 .L0 
     /tmp/ccwQDsh3.s:301    .text:00000000000001e0 .L0 
     /tmp/ccwQDsh3.s:302    .text:00000000000001e0 .L0 
     /tmp/ccwQDsh3.s:303    .text:00000000000001e0 .L0 
     /tmp/ccwQDsh3.s:309    .text:00000000000001ec .L0 
     /tmp/ccwQDsh3.s:310    .text:00000000000001ec .L0 
     /tmp/ccwQDsh3.s:311    .text:00000000000001ec .L0 
     /tmp/ccwQDsh3.s:316    .text:00000000000001f4 .L0 
     /tmp/ccwQDsh3.s:317    .text:00000000000001f4 .L0 
     /tmp/ccwQDsh3.s:318    .text:00000000000001f4 .L0 
     /tmp/ccwQDsh3.s:325    .text:00000000000001fc .L0 
     /tmp/ccwQDsh3.s:333    .text:0000000000000200 .L0 
     /tmp/ccwQDsh3.s:356    .text:000000000000023c .L0 
     /tmp/ccwQDsh3.s:357    .text:000000000000023c .L0 
     /tmp/ccwQDsh3.s:358    .text:000000000000023c .L0 
     /tmp/ccwQDsh3.s:364    .text:000000000000024c .L0 
     /tmp/ccwQDsh3.s:367    .text:0000000000000250 .L0 
     /tmp/ccwQDsh3.s:368    .text:0000000000000250 .L0 
     /tmp/ccwQDsh3.s:373    .text:0000000000000258 .L0 
     /tmp/ccwQDsh3.s:374    .text:0000000000000258 .L0 
     /tmp/ccwQDsh3.s:375    .text:0000000000000258 .L0 
     /tmp/ccwQDsh3.s:377    .text:0000000000000260 .L0 
     /tmp/ccwQDsh3.s:381    .text:0000000000000264 .L0 
     /tmp/ccwQDsh3.s:382    .text:0000000000000264 .L0 
     /tmp/ccwQDsh3.s:391    .text:0000000000000274 .L0 
     /tmp/ccwQDsh3.s:392    .text:0000000000000274 .L0 
     /tmp/ccwQDsh3.s:393    .text:0000000000000274 .L0 
     /tmp/ccwQDsh3.s:402    .text:0000000000000280 .L0 
     /tmp/ccwQDsh3.s:403    .text:0000000000000280 .L0 
     /tmp/ccwQDsh3.s:404    .text:0000000000000280 .L0 
     /tmp/ccwQDsh3.s:409    .text:0000000000000288 .L0 
     /tmp/ccwQDsh3.s:411    .text:000000000000028c .L0 
     /tmp/ccwQDsh3.s:421    .text:0000000000000298 .L0 
     /tmp/ccwQDsh3.s:422    .text:0000000000000298 .L0 
     /tmp/ccwQDsh3.s:576    .bss._ZGVZN15MemoryAllocator11getInstanceEvE8instance:0000000000000000 _ZGVZN15MemoryAllocator11getInstanceEvE8instance
     /tmp/ccwQDsh3.s:423    .text:0000000000000298 .L0 
     /tmp/ccwQDsh3.s:429    .text:00000000000002a4 .L0 
     /tmp/ccwQDsh3.s:430    .text:00000000000002a4 .L0 
     /tmp/ccwQDsh3.s:583    .bss._ZZN15MemoryAllocator11getInstanceEvE8instance:0000000000000000 _ZZN15MemoryAllocator11getInstanceEvE8instance
     /tmp/ccwQDsh3.s:438    .text:00000000000002b8 .L0 
     /tmp/ccwQDsh3.s:439    .text:00000000000002b8 .L0 
     /tmp/ccwQDsh3.s:441    .text:00000000000002c0 .L0 
     /tmp/ccwQDsh3.s:442    .text:00000000000002c0 .L0 
     /tmp/ccwQDsh3.s:444    .text:00000000000002c4 .L0 
     /tmp/ccwQDsh3.s:445    .text:00000000000002c4 .L0 
     /tmp/ccwQDsh3.s:447    .text:00000000000002c8 .L0 
     /tmp/ccwQDsh3.s:449    .text:00000000000002cc .L0 
     /tmp/ccwQDsh3.s:452    .text:00000000000002d0 .L0 
     /tmp/ccwQDsh3.s:456    .text:00000000000002d0 .L0 
     /tmp/ccwQDsh3.s:476    .text:00000000000002f0 .L0 
     /tmp/ccwQDsh3.s:479    .text:00000000000002f8 .L0 
     /tmp/ccwQDsh3.s:480    .text:00000000000002f8 .L0 
     /tmp/ccwQDsh3.s:486    .text:0000000000000314 .L0 
GAS LISTING /tmp/ccwQDsh3.s 			page 23


     /tmp/ccwQDsh3.s:488    .text:0000000000000318 .L0 
     /tmp/ccwQDsh3.s:490    .text:000000000000031c .L0 
     /tmp/ccwQDsh3.s:492    .text:0000000000000320 .L0 
     /tmp/ccwQDsh3.s:494    .text:0000000000000324 .L0 
     /tmp/ccwQDsh3.s:495    .text:0000000000000324 .L0 
     /tmp/ccwQDsh3.s:497    .text:0000000000000328 .L0 
     /tmp/ccwQDsh3.s:499    .text:000000000000032c .L0 
     /tmp/ccwQDsh3.s:500    .text:000000000000032c .L0 
     /tmp/ccwQDsh3.s:502    .text:0000000000000330 .L0 
     /tmp/ccwQDsh3.s:505    .text:0000000000000334 .L0 
     /tmp/ccwQDsh3.s:506    .text:0000000000000334 .L0 
     /tmp/ccwQDsh3.s:508    .text:0000000000000338 .L0 
     /tmp/ccwQDsh3.s:513    .text:0000000000000344 .L0 
     /tmp/ccwQDsh3.s:515    .text:0000000000000348 .L0 
     /tmp/ccwQDsh3.s:517    .text:0000000000000350 .L0 
     /tmp/ccwQDsh3.s:518    .text:0000000000000350 .L0 
     /tmp/ccwQDsh3.s:520    .text:0000000000000354 .L0 
     /tmp/ccwQDsh3.s:521    .text:0000000000000354 .L0 
     /tmp/ccwQDsh3.s:523    .text:0000000000000358 .L0 
     /tmp/ccwQDsh3.s:524    .text:0000000000000358 .L0 
     /tmp/ccwQDsh3.s:531    .text:000000000000035c .L0 
     /tmp/ccwQDsh3.s:538    .text:000000000000036c .L0 
     /tmp/ccwQDsh3.s:586    .bss:0000000000000000 .LANCHOR0
     /tmp/ccwQDsh3.s:589    .bss:0000000000000000 _ZL21is_user_main_finished
     /tmp/ccwQDsh3.s:599    .text:000000000000036c .L0 
     /tmp/ccwQDsh3.s:79     .text:0000000000000044 .L0 
     /tmp/ccwQDsh3.s:83     .text:0000000000000058 .L0 
     /tmp/ccwQDsh3.s:89     .text:0000000000000060 .L0 
     /tmp/ccwQDsh3.s:92     .text:000000000000006c .L0 
     /tmp/ccwQDsh3.s:102    .text:0000000000000080 .L0 
     /tmp/ccwQDsh3.s:113    .text:0000000000000098 .L0 
     /tmp/ccwQDsh3.s:160    .text:00000000000000e0 .L0 
     /tmp/ccwQDsh3.s:190    .text:0000000000000108 .L0 
     /tmp/ccwQDsh3.s:195    .text:0000000000000114 .L0 
     /tmp/ccwQDsh3.s:240    .text:0000000000000158 .L0 
     /tmp/ccwQDsh3.s:268    .text:000000000000017c .L0 
     /tmp/ccwQDsh3.s:274    .text:0000000000000190 .L0 
     /tmp/ccwQDsh3.s:275    .text:0000000000000198 .L0 
     /tmp/ccwQDsh3.s:284    .text:00000000000001b0 .L0 
     /tmp/ccwQDsh3.s:294    .text:00000000000001cc .L0 
     /tmp/ccwQDsh3.s:303    .text:00000000000001e0 .L0 
     /tmp/ccwQDsh3.s:333    .text:0000000000000200 .L0 
     /tmp/ccwQDsh3.s:337    .text:0000000000000214 .L0 
     /tmp/ccwQDsh3.s:344    .text:0000000000000220 .L0 
     /tmp/ccwQDsh3.s:348    .text:0000000000000234 .L0 
     /tmp/ccwQDsh3.s:358    .text:000000000000023c .L0 
     /tmp/ccwQDsh3.s:375    .text:0000000000000258 .L0 
     /tmp/ccwQDsh3.s:382    .text:0000000000000264 .L0 
     /tmp/ccwQDsh3.s:393    .text:0000000000000274 .L0 
     /tmp/ccwQDsh3.s:404    .text:0000000000000280 .L0 
     /tmp/ccwQDsh3.s:423    .text:0000000000000298 .L0 
     /tmp/ccwQDsh3.s:431    .text:00000000000002a8 .L0 
     /tmp/ccwQDsh3.s:456    .text:00000000000002d0 .L0 
     /tmp/ccwQDsh3.s:462    .text:00000000000002e4 .L0 
     /tmp/ccwQDsh3.s:476    .text:00000000000002f0 .L0 
     /tmp/ccwQDsh3.s:480    .text:00000000000002f8 .L0 
     /tmp/ccwQDsh3.s:482    .text:0000000000000304 .L0 
GAS LISTING /tmp/ccwQDsh3.s 			page 24


     /tmp/ccwQDsh3.s:515    .text:0000000000000348 .L0 
     /tmp/ccwQDsh3.s:532    .text:0000000000000360 .L0 
     /tmp/ccwQDsh3.s:24     .text:0000000000000010 .L2
     /tmp/ccwQDsh3.s:97     .text:0000000000000080 .L5
     /tmp/ccwQDsh3.s:116    .text:00000000000000a8 .L6
     /tmp/ccwQDsh3.s:84     .text:0000000000000060 .L7
     /tmp/ccwQDsh3.s:72     .text:0000000000000044 .L10
     /tmp/ccwQDsh3.s:327    .text:0000000000000200 .L26
     /tmp/ccwQDsh3.s:371    .text:0000000000000258 .L20
     /tmp/ccwQDsh3.s:305    .text:00000000000001ec .L16
     /tmp/ccwQDsh3.s:385    .text:0000000000000274 .L19
     /tmp/ccwQDsh3.s:365    .text:0000000000000250 .L17
     /tmp/ccwQDsh3.s:349    .text:000000000000023c .L18
     /tmp/ccwQDsh3.s:339    .text:0000000000000220 .L27
     /tmp/ccwQDsh3.s:451    .text:00000000000002d0 .L28
     /tmp/ccwQDsh3.s:434    .text:00000000000002b8 .L22
     /tmp/ccwQDsh3.s:465    .text:00000000000002f0 .L29
     /tmp/ccwQDsh3.s:395    .text:0000000000000280 .L21
     /tmp/ccwQDsh3.s:511    .text:0000000000000344 .L24
     /tmp/ccwQDsh3.s:425    .text:00000000000002a4 .L23
     /tmp/ccwQDsh3.s:263    .text:0000000000000174 .LEHB0
     /tmp/ccwQDsh3.s:222    .text:0000000000000144 .LFB79
     /tmp/ccwQDsh3.s:370    .text:0000000000000258 .LEHE0
     /tmp/ccwQDsh3.s:457    .text:00000000000002d8 .LEHB1
     /tmp/ccwQDsh3.s:460    .text:00000000000002e0 .LEHE1
     /tmp/ccwQDsh3.s:2981   .debug_abbrev:0000000000000000 .Ldebug_abbrev0
     /tmp/ccwQDsh3.s:4762   .debug_str:0000000000000f51 .LASF261
     /tmp/ccwQDsh3.s:4446   .debug_str:0000000000000462 .LASF262
     /tmp/ccwQDsh3.s:4350   .debug_str:0000000000000100 .LASF263
     /tmp/ccwQDsh3.s:5      .text:0000000000000000 .Ltext0
     /tmp/ccwQDsh3.s:592    .text:000000000000036c .Letext0
     /tmp/ccwQDsh3.s:4318   .debug_line:0000000000000000 .Ldebug_line0
     /tmp/ccwQDsh3.s:4490   .debug_str:00000000000005ce .LASF0
     /tmp/ccwQDsh3.s:4526   .debug_str:0000000000000722 .LASF1
     /tmp/ccwQDsh3.s:4684   .debug_str:0000000000000d43 .LASF2
     /tmp/ccwQDsh3.s:4696   .debug_str:0000000000000d92 .LASF4
     /tmp/ccwQDsh3.s:4504   .debug_str:0000000000000644 .LASF3
     /tmp/ccwQDsh3.s:4338   .debug_str:000000000000009e .LASF5
     /tmp/ccwQDsh3.s:4626   .debug_str:0000000000000ae6 .LASF6
     /tmp/ccwQDsh3.s:4518   .debug_str:00000000000006ea .LASF7
     /tmp/ccwQDsh3.s:4458   .debug_str:00000000000004af .LASF8
     /tmp/ccwQDsh3.s:4470   .debug_str:000000000000052d .LASF9
     /tmp/ccwQDsh3.s:4372   .debug_str:00000000000001c7 .LASF10
     /tmp/ccwQDsh3.s:4788   .debug_str:0000000000001109 .LASF11
     /tmp/ccwQDsh3.s:4444   .debug_str:0000000000000453 .LASF12
     /tmp/ccwQDsh3.s:4388   .debug_str:0000000000000249 .LASF13
     /tmp/ccwQDsh3.s:4370   .debug_str:00000000000001b7 .LASF14
     /tmp/ccwQDsh3.s:4740   .debug_str:0000000000000ec9 .LASF15
     /tmp/ccwQDsh3.s:4420   .debug_str:0000000000000357 .LASF16
     /tmp/ccwQDsh3.s:4728   .debug_str:0000000000000e71 .LASF17
     /tmp/ccwQDsh3.s:4620   .debug_str:0000000000000ab9 .LASF21
     /tmp/ccwQDsh3.s:4756   .debug_str:0000000000000f2e .LASF75
     /tmp/ccwQDsh3.s:4524   .debug_str:000000000000071d .LASF18
     /tmp/ccwQDsh3.s:4374   .debug_str:00000000000001d6 .LASF19
     /tmp/ccwQDsh3.s:4356   .debug_str:0000000000000153 .LASF20
     /tmp/ccwQDsh3.s:4838   .debug_str:0000000000001266 .LASF81
     /tmp/ccwQDsh3.s:4572   .debug_str:00000000000008d4 .LASF83
GAS LISTING /tmp/ccwQDsh3.s 			page 25


     /tmp/ccwQDsh3.s:4506   .debug_str:0000000000000656 .LASF23
     /tmp/ccwQDsh3.s:4688   .debug_str:0000000000000d5e .LASF22
     /tmp/ccwQDsh3.s:4800   .debug_str:000000000000114c .LASF24
     /tmp/ccwQDsh3.s:4392   .debug_str:0000000000000274 .LASF25
     /tmp/ccwQDsh3.s:4564   .debug_str:0000000000000882 .LASF26
     /tmp/ccwQDsh3.s:4348   .debug_str:00000000000000f4 .LASF27
     /tmp/ccwQDsh3.s:4646   .debug_str:0000000000000bd8 .LASF28
     /tmp/ccwQDsh3.s:4680   .debug_str:0000000000000d1f .LASF29
     /tmp/ccwQDsh3.s:4460   .debug_str:00000000000004bf .LASF30
     /tmp/ccwQDsh3.s:4400   .debug_str:00000000000002ab .LASF31
     /tmp/ccwQDsh3.s:4516   .debug_str:00000000000006bb .LASF32
     /tmp/ccwQDsh3.s:4724   .debug_str:0000000000000e54 .LASF33
     /tmp/ccwQDsh3.s:4824   .debug_str:00000000000011f5 .LASF34
     /tmp/ccwQDsh3.s:4854   .debug_str:00000000000012db .LASF35
     /tmp/ccwQDsh3.s:4352   .debug_str:0000000000000134 .LASF128
     /tmp/ccwQDsh3.s:4380   .debug_str:000000000000020a .LASF36
     /tmp/ccwQDsh3.s:4852   .debug_str:00000000000012ce .LASF37
     /tmp/ccwQDsh3.s:4484   .debug_str:000000000000059b .LASF39
     /tmp/ccwQDsh3.s:4666   .debug_str:0000000000000c85 .LASF38
     /tmp/ccwQDsh3.s:4384   .debug_str:000000000000021f .LASF40
     /tmp/ccwQDsh3.s:4650   .debug_str:0000000000000c10 .LASF41
     /tmp/ccwQDsh3.s:4554   .debug_str:0000000000000828 .LASF42
     /tmp/ccwQDsh3.s:4862   .debug_str:00000000000012fe .LASF43
     /tmp/ccwQDsh3.s:4450   .debug_str:0000000000000474 .LASF44
     /tmp/ccwQDsh3.s:4476   .debug_str:000000000000056a .LASF45
     /tmp/ccwQDsh3.s:4472   .debug_str:000000000000053b .LASF46
     /tmp/ccwQDsh3.s:4796   .debug_str:0000000000001133 .LASF47
     /tmp/ccwQDsh3.s:4786   .debug_str:00000000000010e2 .LASF48
     /tmp/ccwQDsh3.s:4752   .debug_str:0000000000000f09 .LASF49
     /tmp/ccwQDsh3.s:4594   .debug_str:00000000000009bf .LASF50
     /tmp/ccwQDsh3.s:4488   .debug_str:00000000000005c8 .LASF51
     /tmp/ccwQDsh3.s:4364   .debug_str:0000000000000180 .LASF52
     /tmp/ccwQDsh3.s:4330   .debug_str:0000000000000056 .LASF53
     /tmp/ccwQDsh3.s:4408   .debug_str:00000000000002fa .LASF54
     /tmp/ccwQDsh3.s:4366   .debug_str:0000000000000199 .LASF55
     /tmp/ccwQDsh3.s:4632   .debug_str:0000000000000b17 .LASF56
     /tmp/ccwQDsh3.s:4818   .debug_str:00000000000011cc .LASF57
     /tmp/ccwQDsh3.s:4584   .debug_str:0000000000000967 .LASF58
     /tmp/ccwQDsh3.s:4732   .debug_str:0000000000000e98 .LASF59
     /tmp/ccwQDsh3.s:4432   .debug_str:00000000000003ec .LASF60
     /tmp/ccwQDsh3.s:4418   .debug_str:000000000000034f .LASF61
     /tmp/ccwQDsh3.s:4428   .debug_str:00000000000003b1 .LASF62
     /tmp/ccwQDsh3.s:4422   .debug_str:000000000000036d .LASF63
     /tmp/ccwQDsh3.s:4628   .debug_str:0000000000000af9 .LASF64
     /tmp/ccwQDsh3.s:4368   .debug_str:00000000000001a7 .LASF65
     /tmp/ccwQDsh3.s:4618   .debug_str:0000000000000aa4 .LASF66
     /tmp/ccwQDsh3.s:4328   .debug_str:0000000000000046 .LASF67
     /tmp/ccwQDsh3.s:4544   .debug_str:00000000000007cb .LASF69
     /tmp/ccwQDsh3.s:4726   .debug_str:0000000000000e5e .LASF68
     /tmp/ccwQDsh3.s:4670   .debug_str:0000000000000cbd .LASF70
     /tmp/ccwQDsh3.s:4536   .debug_str:0000000000000777 .LASF71
     /tmp/ccwQDsh3.s:4860   .debug_str:00000000000012f4 .LASF72
     /tmp/ccwQDsh3.s:4442   .debug_str:000000000000044e .LASF73
     /tmp/ccwQDsh3.s:4592   .debug_str:00000000000009ba .LASF74
     /tmp/ccwQDsh3.s:4746   .debug_str:0000000000000eed .LASF76
     /tmp/ccwQDsh3.s:4698   .debug_str:0000000000000d99 .LASF77
     /tmp/ccwQDsh3.s:4334   .debug_str:000000000000007d .LASF78
GAS LISTING /tmp/ccwQDsh3.s 			page 26


     /tmp/ccwQDsh3.s:4738   .debug_str:0000000000000ebb .LASF79
     /tmp/ccwQDsh3.s:4616   .debug_str:0000000000000a7b .LASF80
     /tmp/ccwQDsh3.s:4558   .debug_str:000000000000085a .LASF82
     /tmp/ccwQDsh3.s:4440   .debug_str:0000000000000437 .LASF84
     /tmp/ccwQDsh3.s:4658   .debug_str:0000000000000c49 .LASF117
     /tmp/ccwQDsh3.s:4538   .debug_str:000000000000078c .LASF119
     /tmp/ccwQDsh3.s:4674   .debug_str:0000000000000cef .LASF85
     /tmp/ccwQDsh3.s:4700   .debug_str:0000000000000d9e .LASF86
     /tmp/ccwQDsh3.s:4812   .debug_str:00000000000011ad .LASF87
     /tmp/ccwQDsh3.s:4396   .debug_str:000000000000028e .LASF88
     /tmp/ccwQDsh3.s:4660   .debug_str:0000000000000c59 .LASF89
     /tmp/ccwQDsh3.s:4586   .debug_str:0000000000000989 .LASF90
     /tmp/ccwQDsh3.s:4638   .debug_str:0000000000000b75 .LASF91
     /tmp/ccwQDsh3.s:4430   .debug_str:00000000000003cc .LASF92
     /tmp/ccwQDsh3.s:4802   .debug_str:0000000000001168 .LASF93
     /tmp/ccwQDsh3.s:4636   .debug_str:0000000000000b56 .LASF94
     /tmp/ccwQDsh3.s:4742   .debug_str:0000000000000ed5 .LASF95
     /tmp/ccwQDsh3.s:4672   .debug_str:0000000000000cd3 .LASF96
     /tmp/ccwQDsh3.s:4510   .debug_str:000000000000067b .LASF97
     /tmp/ccwQDsh3.s:4610   .debug_str:0000000000000a53 .LASF98
     /tmp/ccwQDsh3.s:4820   .debug_str:00000000000011da .LASF99
     /tmp/ccwQDsh3.s:4764   .debug_str:0000000000001015 .LASF100
     /tmp/ccwQDsh3.s:4730   .debug_str:0000000000000e87 .LASF101
     /tmp/ccwQDsh3.s:4436   .debug_str:0000000000000414 .LASF102
     /tmp/ccwQDsh3.s:4850   .debug_str:00000000000012c0 .LASF103
     /tmp/ccwQDsh3.s:4358   .debug_str:0000000000000158 .LASF104
     /tmp/ccwQDsh3.s:4772   .debug_str:000000000000105c .LASF105
     /tmp/ccwQDsh3.s:4662   .debug_str:0000000000000c65 .LASF106
     /tmp/ccwQDsh3.s:4512   .debug_str:000000000000068a .LASF107
     /tmp/ccwQDsh3.s:4424   .debug_str:000000000000037a .LASF108
     /tmp/ccwQDsh3.s:4768   .debug_str:0000000000001043 .LASF109
     /tmp/ccwQDsh3.s:4502   .debug_str:0000000000000629 .LASF110
     /tmp/ccwQDsh3.s:4810   .debug_str:00000000000011a0 .LASF111
     /tmp/ccwQDsh3.s:4784   .debug_str:00000000000010ca .LASF112
     /tmp/ccwQDsh3.s:4710   .debug_str:0000000000000de5 .LASF113
     /tmp/ccwQDsh3.s:4378   .debug_str:00000000000001ed .LASF114
     /tmp/ccwQDsh3.s:4404   .debug_str:00000000000002d4 .LASF115
     /tmp/ccwQDsh3.s:4634   .debug_str:0000000000000b3a .LASF116
     /tmp/ccwQDsh3.s:4530   .debug_str:000000000000073f .LASF118
     /tmp/ccwQDsh3.s:4766   .debug_str:0000000000001033 .LASF120
     /tmp/ccwQDsh3.s:4464   .debug_str:0000000000000508 .LASF121
     /tmp/ccwQDsh3.s:4454   .debug_str:0000000000000497 .LASF122
     /tmp/ccwQDsh3.s:4550   .debug_str:0000000000000800 .LASF123
     /tmp/ccwQDsh3.s:4686   .debug_str:0000000000000d51 .LASF124
     /tmp/ccwQDsh3.s:4758   .debug_str:0000000000000f36 .LASF125
     /tmp/ccwQDsh3.s:4448   .debug_str:000000000000046f .LASF126
     /tmp/ccwQDsh3.s:4600   .debug_str:00000000000009fb .LASF264
     /tmp/ccwQDsh3.s:4614   .debug_str:0000000000000a76 .LASF265
     /tmp/ccwQDsh3.s:4546   .debug_str:00000000000007e1 .LASF127
     /tmp/ccwQDsh3.s:4532   .debug_str:0000000000000745 .LASF129
     /tmp/ccwQDsh3.s:4410   .debug_str:0000000000000315 .LASF230
     /tmp/ccwQDsh3.s:4580   .debug_str:0000000000000942 .LASF232
     /tmp/ccwQDsh3.s:4722   .debug_str:0000000000000e41 .LASF266
     /tmp/ccwQDsh3.s:4326   .debug_str:0000000000000041 .LASF130
     /tmp/ccwQDsh3.s:4508   .debug_str:0000000000000672 .LASF131
     /tmp/ccwQDsh3.s:4846   .debug_str:00000000000012a2 .LASF132
     /tmp/ccwQDsh3.s:4780   .debug_str:00000000000010b3 .LASF133
GAS LISTING /tmp/ccwQDsh3.s 			page 27


     /tmp/ccwQDsh3.s:4744   .debug_str:0000000000000ee4 .LASF134
     /tmp/ccwQDsh3.s:4748   .debug_str:0000000000000ef5 .LASF135
     /tmp/ccwQDsh3.s:4482   .debug_str:0000000000000590 .LASF136
     /tmp/ccwQDsh3.s:4394   .debug_str:0000000000000281 .LASF137
     /tmp/ccwQDsh3.s:4354   .debug_str:000000000000014d .LASF138
     /tmp/ccwQDsh3.s:4468   .debug_str:0000000000000522 .LASF139
     /tmp/ccwQDsh3.s:4718   .debug_str:0000000000000e35 .LASF140
     /tmp/ccwQDsh3.s:4534   .debug_str:000000000000076e .LASF141
     /tmp/ccwQDsh3.s:4456   .debug_str:00000000000004a3 .LASF142
     /tmp/ccwQDsh3.s:4664   .debug_str:0000000000000c80 .LASF143
     /tmp/ccwQDsh3.s:4706   .debug_str:0000000000000dce .LASF144
     /tmp/ccwQDsh3.s:4720   .debug_str:0000000000000e3a .LASF145
     /tmp/ccwQDsh3.s:4782   .debug_str:00000000000010bb .LASF146
     /tmp/ccwQDsh3.s:4562   .debug_str:0000000000000874 .LASF147
     /tmp/ccwQDsh3.s:4528   .debug_str:0000000000000735 .LASF148
     /tmp/ccwQDsh3.s:4798   .debug_str:0000000000001142 .LASF149
     /tmp/ccwQDsh3.s:4492   .debug_str:00000000000005db .LASF150
     /tmp/ccwQDsh3.s:4656   .debug_str:0000000000000c3f .LASF151
     /tmp/ccwQDsh3.s:4654   .debug_str:0000000000000c2e .LASF152
     /tmp/ccwQDsh3.s:4760   .debug_str:0000000000000f3e .LASF267
     /tmp/ccwQDsh3.s:4828   .debug_str:000000000000120e .LASF268
     /tmp/ccwQDsh3.s:4792   .debug_str:0000000000001123 .LASF153
     /tmp/ccwQDsh3.s:4574   .debug_str:00000000000008f8 .LASF154
     /tmp/ccwQDsh3.s:4588   .debug_str:00000000000009a1 .LASF155
     /tmp/ccwQDsh3.s:4576   .debug_str:000000000000090e .LASF156
     /tmp/ccwQDsh3.s:4376   .debug_str:00000000000001db .LASF157
     /tmp/ccwQDsh3.s:4500   .debug_str:0000000000000617 .LASF158
     /tmp/ccwQDsh3.s:4814   .debug_str:00000000000011ba .LASF159
     /tmp/ccwQDsh3.s:4552   .debug_str:000000000000080d .LASF160
     /tmp/ccwQDsh3.s:4644   .debug_str:0000000000000bc5 .LASF161
     /tmp/ccwQDsh3.s:4556   .debug_str:0000000000000847 .LASF162
     /tmp/ccwQDsh3.s:4712   .debug_str:0000000000000df5 .LASF163
     /tmp/ccwQDsh3.s:4676   .debug_str:0000000000000cfa .LASF164
     /tmp/ccwQDsh3.s:4826   .debug_str:00000000000011ff .LASF165
     /tmp/ccwQDsh3.s:4716   .debug_str:0000000000000e17 .LASF166
     /tmp/ccwQDsh3.s:4474   .debug_str:000000000000055c .LASF167
     /tmp/ccwQDsh3.s:4426   .debug_str:0000000000000394 .LASF168
     /tmp/ccwQDsh3.s:4596   .debug_str:00000000000009e4 .LASF169
     /tmp/ccwQDsh3.s:4332   .debug_str:000000000000005e .LASF170
     /tmp/ccwQDsh3.s:4480   .debug_str:0000000000000580 .LASF171
     /tmp/ccwQDsh3.s:4640   .debug_str:0000000000000b88 .LASF172
     /tmp/ccwQDsh3.s:4834   .debug_str:000000000000124f .LASF173
     /tmp/ccwQDsh3.s:4642   .debug_str:0000000000000ba7 .LASF174
     /tmp/ccwQDsh3.s:4806   .debug_str:000000000000118a .LASF175
     /tmp/ccwQDsh3.s:4540   .debug_str:00000000000007a7 .LASF176
     /tmp/ccwQDsh3.s:4498   .debug_str:0000000000000607 .LASF177
     /tmp/ccwQDsh3.s:4844   .debug_str:0000000000001295 .LASF178
     /tmp/ccwQDsh3.s:4624   .debug_str:0000000000000ad8 .LASF179
     /tmp/ccwQDsh3.s:4750   .debug_str:0000000000000f04 .LASF180
     /tmp/ccwQDsh3.s:4856   .debug_str:00000000000012e3 .LASF181
     /tmp/ccwQDsh3.s:4362   .debug_str:0000000000000178 .LASF269
     /tmp/ccwQDsh3.s:4360   .debug_str:0000000000000172 .LASF182
     /tmp/ccwQDsh3.s:4804   .debug_str:000000000000117b .LASF270
     /tmp/ccwQDsh3.s:4434   .debug_str:0000000000000408 .LASF183
     /tmp/ccwQDsh3.s:4522   .debug_str:0000000000000710 .LASF184
     /tmp/ccwQDsh3.s:4568   .debug_str:00000000000008bb .LASF185
     /tmp/ccwQDsh3.s:4622   .debug_str:0000000000000ac9 .LASF186
GAS LISTING /tmp/ccwQDsh3.s 			page 28


     /tmp/ccwQDsh3.s:4778   .debug_str:0000000000001097 .LASF187
     /tmp/ccwQDsh3.s:4322   .debug_str:0000000000000019 .LASF188
     /tmp/ccwQDsh3.s:4578   .debug_str:000000000000091f .LASF189
     /tmp/ccwQDsh3.s:4708   .debug_str:0000000000000dd7 .LASF190
     /tmp/ccwQDsh3.s:4390   .debug_str:0000000000000259 .LASF191
     /tmp/ccwQDsh3.s:4496   .debug_str:00000000000005fa .LASF192
     /tmp/ccwQDsh3.s:4832   .debug_str:0000000000001235 .LASF193
     /tmp/ccwQDsh3.s:4478   .debug_str:0000000000000575 .LASF194
     /tmp/ccwQDsh3.s:4486   .debug_str:00000000000005b0 .LASF195
     /tmp/ccwQDsh3.s:4794   .debug_str:000000000000112a .LASF196
     /tmp/ccwQDsh3.s:4336   .debug_str:0000000000000089 .LASF197
     /tmp/ccwQDsh3.s:4678   .debug_str:0000000000000d16 .LASF198
     /tmp/ccwQDsh3.s:4608   .debug_str:0000000000000a3e .LASF199
     /tmp/ccwQDsh3.s:4808   .debug_str:0000000000001199 .LASF200
     /tmp/ccwQDsh3.s:4648   .debug_str:0000000000000bfd .LASF201
     /tmp/ccwQDsh3.s:4598   .debug_str:00000000000009f4 .LASF202
     /tmp/ccwQDsh3.s:4520   .debug_str:00000000000006fd .LASF203
     /tmp/ccwQDsh3.s:4836   .debug_str:000000000000125e .LASF204
     /tmp/ccwQDsh3.s:4736   .debug_str:0000000000000ea7 .LASF205
     /tmp/ccwQDsh3.s:4590   .debug_str:00000000000009b2 .LASF206
     /tmp/ccwQDsh3.s:4606   .debug_str:0000000000000a2a .LASF207
     /tmp/ccwQDsh3.s:4612   .debug_str:0000000000000a6e .LASF208
     /tmp/ccwQDsh3.s:4652   .debug_str:0000000000000c1a .LASF209
     /tmp/ccwQDsh3.s:4858   .debug_str:00000000000012ec .LASF210
     /tmp/ccwQDsh3.s:4830   .debug_str:0000000000001221 .LASF211
     /tmp/ccwQDsh3.s:4734   .debug_str:0000000000000ea0 .LASF212
     /tmp/ccwQDsh3.s:4702   .debug_str:0000000000000db4 .LASF213
     /tmp/ccwQDsh3.s:4704   .debug_str:0000000000000dc7 .LASF214
     /tmp/ccwQDsh3.s:4416   .debug_str:000000000000033c .LASF215
     /tmp/ccwQDsh3.s:4412   .debug_str:0000000000000324 .LASF216
     /tmp/ccwQDsh3.s:4342   .debug_str:00000000000000b0 .LASF217
     /tmp/ccwQDsh3.s:4776   .debug_str:0000000000001091 .LASF218
     /tmp/ccwQDsh3.s:4402   .debug_str:00000000000002c2 .LASF219
     /tmp/ccwQDsh3.s:4340   .debug_str:00000000000000a5 .LASF220
     /tmp/ccwQDsh3.s:4690   .debug_str:0000000000000d68 .LASF221
     /tmp/ccwQDsh3.s:4682   .debug_str:0000000000000d38 .LASF222
     /tmp/ccwQDsh3.s:4848   .debug_str:00000000000012a8 .LASF223
     /tmp/ccwQDsh3.s:4822   .debug_str:00000000000011eb .LASF224
     /tmp/ccwQDsh3.s:4840   .debug_str:0000000000001272 .LASF225
     /tmp/ccwQDsh3.s:4816   .debug_str:00000000000011c2 .LASF226
     /tmp/ccwQDsh3.s:4344   .debug_str:00000000000000c2 .LASF227
     /tmp/ccwQDsh3.s:4790   .debug_str:0000000000001114 .LASF228
     /tmp/ccwQDsh3.s:4346   .debug_str:00000000000000d8 .LASF229
     /tmp/ccwQDsh3.s:4714   .debug_str:0000000000000e02 .LASF231
     /tmp/ccwQDsh3.s:4514   .debug_str:0000000000000699 .LASF233
     /tmp/ccwQDsh3.s:4406   .debug_str:00000000000002e4 .LASF234
     /tmp/ccwQDsh3.s:4452   .debug_str:0000000000000492 .LASF235
     /tmp/ccwQDsh3.s:539    .text:000000000000036c .LFE79
     /tmp/ccwQDsh3.s:4604   .debug_str:0000000000000a22 .LASF252
     /tmp/ccwQDsh3.s:4582   .debug_str:000000000000095c .LASF236
     /tmp/ccwQDsh3.s:4602   .debug_str:0000000000000a13 .LASF237
     /tmp/ccwQDsh3.s:4494   .debug_str:00000000000005ec .LASF238
     /tmp/ccwQDsh3.s:243    .text:0000000000000160 .LBB50
     /tmp/ccwQDsh3.s:254    .text:0000000000000164 .LBE50
     /tmp/ccwQDsh3.s:299    .text:00000000000001e0 .LBB52
     /tmp/ccwQDsh3.s:4280   .debug_ranges:0000000000000000 .Ldebug_ranges0
     /tmp/ccwQDsh3.s:335    .text:0000000000000210 .LVL24
GAS LISTING /tmp/ccwQDsh3.s 			page 29


     /tmp/ccwQDsh3.s:314    .text:00000000000001f4 .LBB55
     /tmp/ccwQDsh3.s:329    .text:0000000000000200 .LBE55
     /tmp/ccwQDsh3.s:4150   .debug_loc:0000000000000000 .LLST6
     /tmp/ccwQDsh3.s:342    .text:0000000000000220 .LBB58
     /tmp/ccwQDsh3.s:346    .text:0000000000000230 .LVL25
     /tmp/ccwQDsh3.s:354    .text:000000000000023c .LBB61
     /tmp/ccwQDsh3.s:362    .text:000000000000024c .LBE61
     /tmp/ccwQDsh3.s:4158   .debug_loc:0000000000000024 .LLST7
     /tmp/ccwQDsh3.s:360    .text:000000000000024c .LVL27
     /tmp/ccwQDsh3.s:389    .text:0000000000000274 .LBB64
     /tmp/ccwQDsh3.s:459    .text:00000000000002e0 .LVL33
     /tmp/ccwQDsh3.s:400    .text:0000000000000280 .LBB67
     /tmp/ccwQDsh3.s:407    .text:0000000000000288 .LBE67
     /tmp/ccwQDsh3.s:4167   .debug_loc:0000000000000050 .LLST8
     /tmp/ccwQDsh3.s:414    .text:0000000000000298 .LBB69
     /tmp/ccwQDsh3.s:4176   .debug_loc:000000000000007c .LLST9
     /tmp/ccwQDsh3.s:418    .text:0000000000000298 .LBB71
     /tmp/ccwQDsh3.s:472    .text:00000000000002f0 .LBB73
     /tmp/ccwQDsh3.s:529    .text:000000000000035c .LBE73
     /tmp/ccwQDsh3.s:4187   .debug_loc:00000000000000b2 .LLST10
     /tmp/ccwQDsh3.s:477    .text:00000000000002f8 .LBB76
     /tmp/ccwQDsh3.s:526    .text:000000000000035c .LBE76
     /tmp/ccwQDsh3.s:4196   .debug_loc:00000000000000de .LLST11
     /tmp/ccwQDsh3.s:433    .text:00000000000002b8 .LVL32
     /tmp/ccwQDsh3.s:265    .text:000000000000017c .LVL18
     /tmp/ccwQDsh3.s:277    .text:00000000000001a8 .LVL19
     /tmp/ccwQDsh3.s:287    .text:00000000000001c4 .LVL20
     /tmp/ccwQDsh3.s:297    .text:00000000000001e0 .LVL21
     /tmp/ccwQDsh3.s:312    .text:00000000000001f4 .LVL22
     /tmp/ccwQDsh3.s:369    .text:0000000000000258 .LVL28
     /tmp/ccwQDsh3.s:413    .text:0000000000000298 .LVL31
     /tmp/ccwQDsh3.s:4694   .debug_str:0000000000000d85 .LASF239
     /tmp/ccwQDsh3.s:4414   .debug_str:000000000000032a .LASF240
     /tmp/ccwQDsh3.s:177    .text:00000000000000f8 .LFB78
     /tmp/ccwQDsh3.s:216    .text:0000000000000144 .LFE78
     /tmp/ccwQDsh3.s:4438   .debug_str:0000000000000431 .LASF241
     /tmp/ccwQDsh3.s:4203   .debug_loc:0000000000000101 .LLST4
     /tmp/ccwQDsh3.s:4386   .debug_str:000000000000023f .LASF242
     /tmp/ccwQDsh3.s:4210   .debug_loc:0000000000000124 .LLST5
     /tmp/ccwQDsh3.s:205    .text:0000000000000134 .LVL15
     /tmp/ccwQDsh3.s:4324   .debug_str:000000000000002f .LASF243
     /tmp/ccwQDsh3.s:4462   .debug_str:00000000000004f0 .LASF244
     /tmp/ccwQDsh3.s:133    .text:00000000000000b4 .LFB77
     /tmp/ccwQDsh3.s:171    .text:00000000000000f8 .LFE77
     /tmp/ccwQDsh3.s:4217   .debug_loc:0000000000000147 .LLST3
     /tmp/ccwQDsh3.s:148    .text:00000000000000cc .LVL10
     /tmp/ccwQDsh3.s:152    .text:00000000000000d4 .LVL11
     /tmp/ccwQDsh3.s:156    .text:00000000000000dc .LVL12
     /tmp/ccwQDsh3.s:4466   .debug_str:0000000000000514 .LASF245
     /tmp/ccwQDsh3.s:4566   .debug_str:00000000000008a7 .LASF246
     /tmp/ccwQDsh3.s:39     .text:000000000000001c .LFB76
     /tmp/ccwQDsh3.s:127    .text:00000000000000b4 .LFE76
     /tmp/ccwQDsh3.s:4231   .debug_loc:0000000000000180 .LLST1
     /tmp/ccwQDsh3.s:58     .text:0000000000000038 .LBB22
     /tmp/ccwQDsh3.s:74     .text:0000000000000044 .LBE22
     /tmp/ccwQDsh3.s:4245   .debug_loc:00000000000001b9 .LLST2
     /tmp/ccwQDsh3.s:75     .text:0000000000000044 .LBB24
GAS LISTING /tmp/ccwQDsh3.s 			page 30


     /tmp/ccwQDsh3.s:81     .text:0000000000000054 .LVL6
     /tmp/ccwQDsh3.s:56     .text:0000000000000038 .LVL4
     /tmp/ccwQDsh3.s:94     .text:000000000000007c .LVL7
     /tmp/ccwQDsh3.s:122    .text:00000000000000b0 .LVL8
     /tmp/ccwQDsh3.s:4560   .debug_str:0000000000000866 .LASF247
     /tmp/ccwQDsh3.s:4754   .debug_str:0000000000000f1a .LASF248
     /tmp/ccwQDsh3.s:10     .text:0000000000000000 .LFB75
     /tmp/ccwQDsh3.s:33     .text:000000000000001c .LFE75
     /tmp/ccwQDsh3.s:4253   .debug_loc:00000000000001dd .LLST0
     /tmp/ccwQDsh3.s:29     .text:0000000000000018 .LVL2
     /tmp/ccwQDsh3.s:4692   .debug_str:0000000000000d80 .LASF249
     /tmp/ccwQDsh3.s:4542   .debug_str:00000000000007c5 .LASF250
     /tmp/ccwQDsh3.s:4398   .debug_str:00000000000002a6 .LASF251
     /tmp/ccwQDsh3.s:4382   .debug_str:0000000000000216 .LASF254
     /tmp/ccwQDsh3.s:4774   .debug_str:000000000000106b .LASF255
     /tmp/ccwQDsh3.s:4842   .debug_str:0000000000001288 .LASF253
     /tmp/ccwQDsh3.s:4320   .debug_str:0000000000000000 .LASF271
     /tmp/ccwQDsh3.s:4668   .debug_str:0000000000000c8e .LASF256
     /tmp/ccwQDsh3.s:4548   .debug_str:00000000000007f0 .LASF257
     /tmp/ccwQDsh3.s:4770   .debug_str:0000000000001052 .LASF258
     /tmp/ccwQDsh3.s:4570   .debug_str:00000000000008c7 .LASF259
     /tmp/ccwQDsh3.s:4630   .debug_str:0000000000000b0e .LASF260
     /tmp/ccwQDsh3.s:326    .text:0000000000000200 .LVL23
     /tmp/ccwQDsh3.s:351    .text:000000000000023c .LVL26
     /tmp/ccwQDsh3.s:397    .text:0000000000000280 .LVL29
     /tmp/ccwQDsh3.s:405    .text:0000000000000288 .LVL30
     /tmp/ccwQDsh3.s:464    .text:00000000000002f0 .LVL34
     /tmp/ccwQDsh3.s:525    .text:000000000000035c .LVL36
     /tmp/ccwQDsh3.s:503    .text:0000000000000334 .LVL35
     /tmp/ccwQDsh3.s:192    .text:0000000000000114 .LVL13
     /tmp/ccwQDsh3.s:200    .text:0000000000000128 .LVL14
     /tmp/ccwQDsh3.s:136    .text:00000000000000b4 .LVL9
     /tmp/ccwQDsh3.s:42     .text:000000000000001c .LVL3
     /tmp/ccwQDsh3.s:71     .text:0000000000000044 .LVL5
     /tmp/ccwQDsh3.s:14     .text:0000000000000000 .LVL0
     /tmp/ccwQDsh3.s:23     .text:0000000000000010 .LVL1
     /tmp/ccwQDsh3.s:600    .debug_info:0000000000000000 .Ldebug_info0
     /tmp/ccwQDsh3.s:87     .text:0000000000000060 .LBE24
     /tmp/ccwQDsh3.s:109    .text:0000000000000098 .LBB27
     /tmp/ccwQDsh3.s:118    .text:00000000000000a8 .LBE27
     /tmp/ccwQDsh3.s:308    .text:00000000000001ec .LBE52
     /tmp/ccwQDsh3.s:330    .text:0000000000000200 .LBB57
     /tmp/ccwQDsh3.s:341    .text:0000000000000220 .LBE57
     /tmp/ccwQDsh3.s:353    .text:000000000000023c .LBE58
     /tmp/ccwQDsh3.s:378    .text:0000000000000264 .LBB63
     /tmp/ccwQDsh3.s:387    .text:0000000000000274 .LBE63
     /tmp/ccwQDsh3.s:399    .text:0000000000000280 .LBE64
     /tmp/ccwQDsh3.s:453    .text:00000000000002d0 .LBB80
     /tmp/ccwQDsh3.s:467    .text:00000000000002f0 .LBE80
     /tmp/ccwQDsh3.s:436    .text:00000000000002b8 .LBE69
     /tmp/ccwQDsh3.s:468    .text:00000000000002f0 .LBB81
     /tmp/ccwQDsh3.s:537    .text:000000000000036c .LBE81
     /tmp/ccwQDsh3.s:428    .text:00000000000002a4 .LBE71
     /tmp/ccwQDsh3.s:470    .text:00000000000002f0 .LBB78
     /tmp/ccwQDsh3.s:535    .text:000000000000036c .LBE78
     /tmp/ccwQDsh3.s:542    .gcc_except_table:0000000000000000 .LLSDA79

GAS LISTING /tmp/ccwQDsh3.s 			page 31


UNDEFINED SYMBOLS
thread_dispatch
switch_to_priviledged
_ZN7ConsoleC1Ev
CONSOLE_TX_DATA
_ZN7Console15get_from_outputEv
CONSOLE_STATUS
switch_to_user
_Z8userMainv
HEAP_START_ADDR
HEAP_END_ADDR
_Z9kmem_initPvi
_ZN5Riscv14supervisorTrapEv
thread_create
_ZN3TCB7runningE
_ZN3TCB4idleE
_ZN8MyBuffer6getCntEv
_ZN8MyBufferD1Ev
_ZN15MemoryAllocator11memory_freeEPv
__gxx_personality_v0
