GAS LISTING /tmp/ccdTjN6i.s 			page 1


   1              		.file	"main.cpp"
   2              		.option pic
   3              		.option norelax
   4              		.text
   5              	.Ltext0:
   6              		.align	2
   7              		.globl	_Z13idle_functionPv
   9              	_Z13idle_functionPv:
  10              	.LFB60:
  11              		.file 1 "src/../h/fun.hpp"
   1:src/../h/fun.hpp **** #ifndef _fun_hpp_
   2:src/../h/fun.hpp **** #define _fun_hpp_
   3:src/../h/fun.hpp **** 
   4:src/../h/fun.hpp **** #include "../lib/hw.h"
   5:src/../h/fun.hpp **** #include "../h/console.hpp"
   6:src/../h/fun.hpp **** //#include "../test/printing.hpp"
   7:src/../h/fun.hpp **** #include "../h/riscv.hpp"
   8:src/../h/fun.hpp **** #include "../h/syscall_c.h"
   9:src/../h/fun.hpp **** #include "../test/userMain.hpp"
  10:src/../h/fun.hpp **** #include "../h/SlabI.h"
  11:src/../h/fun.hpp **** 
  12:src/../h/fun.hpp **** void idle_function(void* arg){
  12              		.loc 1 12 30
  13              		.cfi_startproc
  14              	.LVL0:
  15 0000 130101FF 		addi	sp,sp,-16
  16              		.cfi_def_cfa_offset 16
  17 0004 23341100 		sd	ra,8(sp)
  18 0008 23308100 		sd	s0,0(sp)
  19              		.cfi_offset 1, -8
  20              		.cfi_offset 8, -16
  21 000c 13040101 		addi	s0,sp,16
  22              		.cfi_def_cfa 8, 0
  23              	.LVL1:
  24              	.L2:
  13:src/../h/fun.hpp ****     while(1){
  25              		.loc 1 13 5 discriminator 1
  14:src/../h/fun.hpp ****         thread_dispatch();
  26              		.loc 1 14 9 discriminator 1
  27              		.loc 1 14 24 is_stmt 0 discriminator 1
  28 0010 97000000 		call	thread_dispatch@plt
  28      E7800000 
  29              	.LVL2:
  13:src/../h/fun.hpp ****     while(1){
  30              		.loc 1 13 5 is_stmt 1 discriminator 1
  31 0018 6FF09FFF 		j	.L2
  32              		.cfi_endproc
  33              	.LFE60:
  35              		.align	2
  36              		.globl	_Z13putc_functionPv
  38              	_Z13putc_functionPv:
  39              	.LFB61:
  15:src/../h/fun.hpp ****     }
  16:src/../h/fun.hpp **** }
  17:src/../h/fun.hpp **** 
  18:src/../h/fun.hpp **** void putc_function(void* arg){
  40              		.loc 1 18 30
GAS LISTING /tmp/ccdTjN6i.s 			page 2


  41              		.cfi_startproc
  42              	.LVL3:
  43 001c 130101FE 		addi	sp,sp,-32
  44              		.cfi_def_cfa_offset 32
  45 0020 233C1100 		sd	ra,24(sp)
  46 0024 23388100 		sd	s0,16(sp)
  47 0028 23349100 		sd	s1,8(sp)
  48              		.cfi_offset 1, -8
  49              		.cfi_offset 8, -16
  50              		.cfi_offset 9, -24
  51 002c 13040102 		addi	s0,sp,32
  52              		.cfi_def_cfa 8, 0
  19:src/../h/fun.hpp ****     switch_to_priviledged();
  53              		.loc 1 19 5
  54              		.loc 1 19 26 is_stmt 0
  55 0030 97000000 		call	switch_to_priviledged@plt
  55      E7800000 
  56              	.LVL4:
  20:src/../h/fun.hpp ****     Riscv::mc_sstatus(Riscv::SSTATUS_SIE);
  57              		.loc 1 20 5 is_stmt 1
  58              	.LBB14:
  59              	.LBB15:
  60              		.file 2 "src/../h/riscv.hpp"
   1:src/../h/riscv.hpp **** #ifndef _riscv_hpp_
   2:src/../h/riscv.hpp **** #define _riscv_hpp_
   3:src/../h/riscv.hpp **** 
   4:src/../h/riscv.hpp **** #include "../lib/hw.h"
   5:src/../h/riscv.hpp **** 
   6:src/../h/riscv.hpp **** class Riscv
   7:src/../h/riscv.hpp **** {
   8:src/../h/riscv.hpp **** public:
   9:src/../h/riscv.hpp **** 
  10:src/../h/riscv.hpp ****     // u korisnicki
  11:src/../h/riscv.hpp ****     static void switch_to_user();
  12:src/../h/riscv.hpp **** 
  13:src/../h/riscv.hpp ****     // u privilegovani
  14:src/../h/riscv.hpp ****     static void switch_to_priviledged();
  15:src/../h/riscv.hpp **** 
  16:src/../h/riscv.hpp ****     // push x3..x31 registers onto stack
  17:src/../h/riscv.hpp ****     static void pushRegisters();
  18:src/../h/riscv.hpp **** 
  19:src/../h/riscv.hpp ****     // pop x3..x31 registers onto stack
  20:src/../h/riscv.hpp ****     static void popRegisters();
  21:src/../h/riscv.hpp **** 
  22:src/../h/riscv.hpp ****     // pop sstatus.spp and sstatus.spie bits (has to be a non inline function)
  23:src/../h/riscv.hpp ****     static void popSppSpie();
  24:src/../h/riscv.hpp **** 
  25:src/../h/riscv.hpp ****     // read register scause
  26:src/../h/riscv.hpp ****     static uint64 r_scause();
  27:src/../h/riscv.hpp **** 
  28:src/../h/riscv.hpp ****     // write register scause
  29:src/../h/riscv.hpp ****     static void w_scause(uint64 scause);
  30:src/../h/riscv.hpp **** 
  31:src/../h/riscv.hpp ****     // read register sepc
  32:src/../h/riscv.hpp ****     static uint64 r_sepc();
  33:src/../h/riscv.hpp **** 
  34:src/../h/riscv.hpp ****     // write register sepc
GAS LISTING /tmp/ccdTjN6i.s 			page 3


  35:src/../h/riscv.hpp ****     static void w_sepc(uint64 sepc);
  36:src/../h/riscv.hpp **** 
  37:src/../h/riscv.hpp ****     // read register stvec
  38:src/../h/riscv.hpp ****     static uint64 r_stvec();
  39:src/../h/riscv.hpp **** 
  40:src/../h/riscv.hpp ****     // write register stvec
  41:src/../h/riscv.hpp ****     static void w_stvec(uint64 stvec);
  42:src/../h/riscv.hpp **** 
  43:src/../h/riscv.hpp ****     // read register stval
  44:src/../h/riscv.hpp ****     static uint64 r_stval();
  45:src/../h/riscv.hpp **** 
  46:src/../h/riscv.hpp ****     // write register stval
  47:src/../h/riscv.hpp ****     static void w_stval(uint64 stval);
  48:src/../h/riscv.hpp **** 
  49:src/../h/riscv.hpp ****     enum BitMaskSip
  50:src/../h/riscv.hpp ****     {
  51:src/../h/riscv.hpp ****         SIP_SSIP = (1 << 1),
  52:src/../h/riscv.hpp ****         SIP_STIP = (1 << 5),
  53:src/../h/riscv.hpp ****         SIP_SEIP = (1 << 9),
  54:src/../h/riscv.hpp ****     };
  55:src/../h/riscv.hpp **** 
  56:src/../h/riscv.hpp ****     // mask set register sip
  57:src/../h/riscv.hpp ****     static void ms_sip(uint64 mask);
  58:src/../h/riscv.hpp **** 
  59:src/../h/riscv.hpp ****     // mask clear register sip
  60:src/../h/riscv.hpp ****     static void mc_sip(uint64 mask);
  61:src/../h/riscv.hpp **** 
  62:src/../h/riscv.hpp ****     // read register sip
  63:src/../h/riscv.hpp ****     static uint64 r_sip();
  64:src/../h/riscv.hpp **** 
  65:src/../h/riscv.hpp ****     // write register sip
  66:src/../h/riscv.hpp ****     static void w_sip(uint64 sip);
  67:src/../h/riscv.hpp **** 
  68:src/../h/riscv.hpp ****     enum BitMaskSstatus
  69:src/../h/riscv.hpp ****     {
  70:src/../h/riscv.hpp ****         SSTATUS_SIE = (1 << 1),
  71:src/../h/riscv.hpp ****         SSTATUS_SPIE = (1 << 5),
  72:src/../h/riscv.hpp ****         SSTATUS_SPP = (1 << 8),
  73:src/../h/riscv.hpp ****     };
  74:src/../h/riscv.hpp **** 
  75:src/../h/riscv.hpp ****     // mask set register sstatus
  76:src/../h/riscv.hpp ****     static void ms_sstatus(uint64 mask);
  77:src/../h/riscv.hpp **** 
  78:src/../h/riscv.hpp ****     // mask clear register sstatus
  79:src/../h/riscv.hpp ****     static void mc_sstatus(uint64 mask);
  80:src/../h/riscv.hpp **** 
  81:src/../h/riscv.hpp ****     // read register sstatus
  82:src/../h/riscv.hpp ****     static uint64 r_sstatus();
  83:src/../h/riscv.hpp **** 
  84:src/../h/riscv.hpp ****     // write register sstatus
  85:src/../h/riscv.hpp ****     static void w_sstatus(uint64 sstatus);
  86:src/../h/riscv.hpp **** 
  87:src/../h/riscv.hpp ****     // supervisor trap
  88:src/../h/riscv.hpp ****     static void supervisorTrap();
  89:src/../h/riscv.hpp **** 
  90:src/../h/riscv.hpp **** private:
  91:src/../h/riscv.hpp **** 
GAS LISTING /tmp/ccdTjN6i.s 			page 4


  92:src/../h/riscv.hpp ****     // supervisor trap handler
  93:src/../h/riscv.hpp ****     static void handleSupervisorTrap();
  94:src/../h/riscv.hpp **** 
  95:src/../h/riscv.hpp **** };
  96:src/../h/riscv.hpp **** 
  97:src/../h/riscv.hpp **** 
  98:src/../h/riscv.hpp **** inline uint64 Riscv::r_scause()
  99:src/../h/riscv.hpp **** {
 100:src/../h/riscv.hpp ****     uint64 volatile scause;
 101:src/../h/riscv.hpp ****     __asm__ volatile ("csrr %[scause], scause" : [scause] "=r"(scause));
 102:src/../h/riscv.hpp ****     return scause;
 103:src/../h/riscv.hpp **** }
 104:src/../h/riscv.hpp **** 
 105:src/../h/riscv.hpp **** inline void Riscv::w_scause(uint64 scause)
 106:src/../h/riscv.hpp **** {
 107:src/../h/riscv.hpp ****     __asm__ volatile ("csrw scause, %[scause]" : : [scause] "r"(scause));
 108:src/../h/riscv.hpp **** }
 109:src/../h/riscv.hpp **** 
 110:src/../h/riscv.hpp **** inline uint64 Riscv::r_sepc()
 111:src/../h/riscv.hpp **** {
 112:src/../h/riscv.hpp ****     uint64 volatile sepc;
 113:src/../h/riscv.hpp ****     __asm__ volatile ("csrr %[sepc], sepc" : [sepc] "=r"(sepc));
 114:src/../h/riscv.hpp ****     return sepc;
 115:src/../h/riscv.hpp **** }
 116:src/../h/riscv.hpp **** 
 117:src/../h/riscv.hpp **** inline void Riscv::w_sepc(uint64 sepc)
 118:src/../h/riscv.hpp **** {
 119:src/../h/riscv.hpp ****     __asm__ volatile ("csrw sepc, %[sepc]" : : [sepc] "r"(sepc));
 120:src/../h/riscv.hpp **** }
 121:src/../h/riscv.hpp **** 
 122:src/../h/riscv.hpp **** inline uint64 Riscv::r_stvec()
 123:src/../h/riscv.hpp **** {
 124:src/../h/riscv.hpp ****     uint64 volatile stvec;
 125:src/../h/riscv.hpp ****     __asm__ volatile ("csrr %[stvec], stvec" : [stvec] "=r"(stvec));
 126:src/../h/riscv.hpp ****     return stvec;
 127:src/../h/riscv.hpp **** }
 128:src/../h/riscv.hpp **** 
 129:src/../h/riscv.hpp **** inline void Riscv::w_stvec(uint64 stvec)
 130:src/../h/riscv.hpp **** {
 131:src/../h/riscv.hpp ****     __asm__ volatile ("csrw stvec, %[stvec]" : : [stvec] "r"(stvec));
 132:src/../h/riscv.hpp **** }
 133:src/../h/riscv.hpp **** 
 134:src/../h/riscv.hpp **** inline uint64 Riscv::r_stval()
 135:src/../h/riscv.hpp **** {
 136:src/../h/riscv.hpp ****     uint64 volatile stval;
 137:src/../h/riscv.hpp ****     __asm__ volatile ("csrr %[stval], stval" : [stval] "=r"(stval));
 138:src/../h/riscv.hpp ****     return stval;
 139:src/../h/riscv.hpp **** }
 140:src/../h/riscv.hpp **** 
 141:src/../h/riscv.hpp **** inline void Riscv::w_stval(uint64 stval)
 142:src/../h/riscv.hpp **** {
 143:src/../h/riscv.hpp ****     __asm__ volatile ("csrw stval, %[stval]" : : [stval] "r"(stval));
 144:src/../h/riscv.hpp **** }
 145:src/../h/riscv.hpp **** 
 146:src/../h/riscv.hpp **** inline void Riscv::ms_sip(uint64 mask)
 147:src/../h/riscv.hpp **** {
 148:src/../h/riscv.hpp ****     __asm__ volatile ("csrs sip, %[mask]" : : [mask] "r"(mask));
GAS LISTING /tmp/ccdTjN6i.s 			page 5


 149:src/../h/riscv.hpp **** }
 150:src/../h/riscv.hpp **** 
 151:src/../h/riscv.hpp **** inline void Riscv::mc_sip(uint64 mask)
 152:src/../h/riscv.hpp **** {
 153:src/../h/riscv.hpp ****     __asm__ volatile ("csrc sip, %[mask]" : : [mask] "r"(mask));
 154:src/../h/riscv.hpp **** }
 155:src/../h/riscv.hpp **** 
 156:src/../h/riscv.hpp **** inline uint64 Riscv::r_sip()
 157:src/../h/riscv.hpp **** {
 158:src/../h/riscv.hpp ****     uint64 volatile sip;
 159:src/../h/riscv.hpp ****     __asm__ volatile ("csrr %[sip], sip" : [sip] "=r"(sip));
 160:src/../h/riscv.hpp ****     return sip;
 161:src/../h/riscv.hpp **** }
 162:src/../h/riscv.hpp **** 
 163:src/../h/riscv.hpp **** inline void Riscv::w_sip(uint64 sip)
 164:src/../h/riscv.hpp **** {
 165:src/../h/riscv.hpp ****     __asm__ volatile ("csrw sip, %[sip]" : : [sip] "r"(sip));
 166:src/../h/riscv.hpp **** }
 167:src/../h/riscv.hpp **** 
 168:src/../h/riscv.hpp **** inline void Riscv::ms_sstatus(uint64 mask)
 169:src/../h/riscv.hpp **** {
 170:src/../h/riscv.hpp ****     __asm__ volatile ("csrs sstatus, %[mask]" : : [mask] "r"(mask));
 171:src/../h/riscv.hpp **** }
 172:src/../h/riscv.hpp **** 
 173:src/../h/riscv.hpp **** inline void Riscv::mc_sstatus(uint64 mask)
 174:src/../h/riscv.hpp **** {
 175:src/../h/riscv.hpp ****     __asm__ volatile ("csrc sstatus, %[mask]" : : [mask] "r"(mask));
  61              		.loc 2 175 5
  62              		.loc 2 175 68 is_stmt 0
  63 0038 93072000 		li	a5,2
  64              	#APP
  65              	# 175 "src/../h/riscv.hpp" 1
 176              	}
  66              		csrc sstatus, a5
  67              	# 0 "" 2
  68              		.loc 2 176 1
  69              	#NO_APP
  70 0040 6F004002 		j	.L5
  71              	.LVL5:
  72              	.L9:
  73              	.LBE15:
  74              	.LBE14:
  21:src/../h/fun.hpp ****     while(1){
  22:src/../h/fun.hpp ****         while((*((char*)CONSOLE_STATUS) & CONSOLE_TX_STATUS_BIT)
  23:src/../h/fun.hpp ****               /*&& Console::getInstance().get_output_size()*/) {
  24:src/../h/fun.hpp ****             *((char*)CONSOLE_TX_DATA) = Console::getInstance().get_from_output();
  75              		.loc 1 24 13 is_stmt 1
  76              		.loc 1 24 62 is_stmt 0
  77 0044 97000000 		call	_ZN7Console11getInstanceEv@plt
  77      E7800000 
  78              	.LVL6:
  79              		.loc 1 24 13
  80 004c 97070000 		la	a5,CONSOLE_TX_DATA
  80      83B70700 
  81 0054 83B40700 		ld	s1,0(a5)
  82              		.loc 1 24 79
  83 0058 97000000 		call	_ZN7Console15get_from_outputEv@plt
GAS LISTING /tmp/ccdTjN6i.s 			page 6


  83      E7800000 
  84              	.LVL7:
  85              		.loc 1 24 39
  86 0060 2380A400 		sb	a0,0(s1)
  87              	.L5:
  21:src/../h/fun.hpp ****     while(1){
  88              		.loc 1 21 5 is_stmt 1
  22:src/../h/fun.hpp ****               /*&& Console::getInstance().get_output_size()*/) {
  89              		.loc 1 22 9
  22:src/../h/fun.hpp ****               /*&& Console::getInstance().get_output_size()*/) {
  90              		.loc 1 22 64
  22:src/../h/fun.hpp ****               /*&& Console::getInstance().get_output_size()*/) {
  91              		.loc 1 22 16 is_stmt 0
  92 0064 97070000 		la	a5,CONSOLE_STATUS
  92      83B70700 
  93 006c 83B70700 		ld	a5,0(a5)
  94 0070 83C70700 		lbu	a5,0(a5)
  22:src/../h/fun.hpp ****               /*&& Console::getInstance().get_output_size()*/) {
  95              		.loc 1 22 64
  96 0074 93F70702 		andi	a5,a5,32
  97 0078 E39607FC 		bnez	a5,.L9
  25:src/../h/fun.hpp ****         }
  26:src/../h/fun.hpp ****         thread_dispatch();
  98              		.loc 1 26 9 is_stmt 1
  99              		.loc 1 26 24 is_stmt 0
 100 007c 97000000 		call	thread_dispatch@plt
 100      E7800000 
 101              	.LVL8:
  21:src/../h/fun.hpp ****         while((*((char*)CONSOLE_STATUS) & CONSOLE_TX_STATUS_BIT)
 102              		.loc 1 21 5 is_stmt 1
  22:src/../h/fun.hpp ****               /*&& Console::getInstance().get_output_size()*/) {
 103              		.loc 1 22 9 is_stmt 0
 104 0084 6FF01FFE 		j	.L5
 105              		.cfi_endproc
 106              	.LFE61:
 108              		.align	2
 109              		.globl	_Z17user_main_wrapperPv
 111              	_Z17user_main_wrapperPv:
 112              	.LFB62:
  27:src/../h/fun.hpp ****     }
  28:src/../h/fun.hpp **** }
  29:src/../h/fun.hpp **** 
  30:src/../h/fun.hpp **** static bool is_user_main_finished = false;
  31:src/../h/fun.hpp **** void user_main_wrapper(void* arg){
 113              		.loc 1 31 34 is_stmt 1
 114              		.cfi_startproc
 115              	.LVL9:
 116 0088 130101FF 		addi	sp,sp,-16
 117              		.cfi_def_cfa_offset 16
 118 008c 23341100 		sd	ra,8(sp)
 119 0090 23308100 		sd	s0,0(sp)
 120              		.cfi_offset 1, -8
 121              		.cfi_offset 8, -16
 122 0094 13040101 		addi	s0,sp,16
 123              		.cfi_def_cfa 8, 0
  32:src/../h/fun.hpp ****     switch_to_user();
 124              		.loc 1 32 5
GAS LISTING /tmp/ccdTjN6i.s 			page 7


 125              		.loc 1 32 19 is_stmt 0
 126 0098 97000000 		call	switch_to_user@plt
 126      E7800000 
 127              	.LVL10:
  33:src/../h/fun.hpp ****     userMain();
 128              		.loc 1 33 5 is_stmt 1
 129              		.loc 1 33 13 is_stmt 0
 130 00a0 97000000 		call	_Z8userMainv@plt
 130      E7800000 
 131              	.LVL11:
  34:src/../h/fun.hpp ****     switch_to_priviledged();
 132              		.loc 1 34 5 is_stmt 1
 133              		.loc 1 34 26 is_stmt 0
 134 00a8 97000000 		call	switch_to_priviledged@plt
 134      E7800000 
 135              	.LVL12:
  35:src/../h/fun.hpp ****     is_user_main_finished = true;
 136              		.loc 1 35 5 is_stmt 1
 137              		.loc 1 35 27 is_stmt 0
 138 00b0 93071000 		li	a5,1
 139 00b4 17070000 		sb	a5,.LANCHOR0,a4
 139      2300F700 
  36:src/../h/fun.hpp **** }
 140              		.loc 1 36 1
 141 00bc 83308100 		ld	ra,8(sp)
 142              		.cfi_restore 1
 143 00c0 03340100 		ld	s0,0(sp)
 144              		.cfi_restore 8
 145              		.cfi_def_cfa 2, 16
 146 00c4 13010101 		addi	sp,sp,16
 147              		.cfi_def_cfa_offset 0
 148 00c8 67800000 		jr	ra
 149              		.cfi_endproc
 150              	.LFE62:
 152              		.align	2
 153              		.globl	_Z12memory_setupv
 155              	_Z12memory_setupv:
 156              	.LFB63:
  37:src/../h/fun.hpp **** 
  38:src/../h/fun.hpp **** void memory_setup(){
 157              		.loc 1 38 20 is_stmt 1
 158              		.cfi_startproc
 159 00cc 130101FF 		addi	sp,sp,-16
 160              		.cfi_def_cfa_offset 16
 161 00d0 23341100 		sd	ra,8(sp)
 162 00d4 23308100 		sd	s0,0(sp)
 163              		.cfi_offset 1, -8
 164              		.cfi_offset 8, -16
 165 00d8 13040101 		addi	s0,sp,16
 166              		.cfi_def_cfa 8, 0
  39:src/../h/fun.hpp ****     void * space = (void*)HEAP_START_ADDR;
 167              		.loc 1 39 5
 168              		.loc 1 39 12 is_stmt 0
 169 00dc 97070000 		la	a5,HEAP_START_ADDR
 169      83B70700 
 170 00e4 03B50700 		ld	a0,0(a5)
 171              	.LVL13:
GAS LISTING /tmp/ccdTjN6i.s 			page 8


  40:src/../h/fun.hpp ****     int block_num = ((size_t)HEAP_END_ADDR - (size_t)HEAP_START_ADDR) / 8 / BLOCK_SIZE;
 172              		.loc 1 40 5 is_stmt 1
 173              		.loc 1 40 44 is_stmt 0
 174 00e8 97070000 		la	a5,HEAP_END_ADDR
 174      83B70700 
 175 00f0 83B50700 		ld	a1,0(a5)
 176 00f4 B385A540 		sub	a1,a1,a0
 177              		.loc 1 40 9
 178 00f8 93D5F500 		srli	a1,a1,15
 179              	.LVL14:
  41:src/../h/fun.hpp ****     kmem_init(space, block_num);
 180              		.loc 1 41 5 is_stmt 1
 181              		.loc 1 41 14 is_stmt 0
 182 00fc 9B850500 		sext.w	a1,a1
 183 0100 97000000 		call	_Z9kmem_initPvi@plt
 183      E7800000 
 184              	.LVL15:
  42:src/../h/fun.hpp **** //    printString("Buddy allocator heap start: ");
  43:src/../h/fun.hpp **** //    printInt(BuddySystem::getInstance().get_buddy_alloc_heap_start());
  44:src/../h/fun.hpp **** //    printString("\n");
  45:src/../h/fun.hpp **** //    printString("Buddy allocator heap end: ");
  46:src/../h/fun.hpp **** //    printInt(BuddySystem::getInstance().get_buddy_alloc_heap_end());
  47:src/../h/fun.hpp **** //    printString("\n");
  48:src/../h/fun.hpp **** //    printString("Memory allocator heap start: ");
  49:src/../h/fun.hpp **** //    printInt(MemoryAllocator::getInstance().get_mem_alloc_heap_start());
  50:src/../h/fun.hpp **** //    printString("\n");
  51:src/../h/fun.hpp **** //    printString("Memory allocator heap end: ");
  52:src/../h/fun.hpp **** //    printInt(MemoryAllocator::getInstance().get_mem_alloc_heap_end());
  53:src/../h/fun.hpp **** //    printString("\n\n");
  54:src/../h/fun.hpp **** }
 185              		.loc 1 54 1
 186 0108 83308100 		ld	ra,8(sp)
 187              		.cfi_restore 1
 188 010c 03340100 		ld	s0,0(sp)
 189              		.cfi_restore 8
 190              		.cfi_def_cfa 2, 16
 191 0110 13010101 		addi	sp,sp,16
 192              		.cfi_def_cfa_offset 0
 193 0114 67800000 		jr	ra
 194              		.cfi_endproc
 195              	.LFE63:
 197              		.align	2
 198              		.globl	main
 200              	main:
 201              	.LFB64:
 202              		.file 3 "src/main.cpp"
   1:src/main.cpp  **** 
   2:src/main.cpp  **** #include "../lib/hw.h"
   3:src/main.cpp  **** #include "../h/console.hpp"
   4:src/main.cpp  **** #include "../test/printing.hpp"
   5:src/main.cpp  **** #include "../h/riscv.hpp"
   6:src/main.cpp  **** #include "../h/syscall_c.h"
   7:src/main.cpp  **** #include "../test/userMain.hpp"
   8:src/main.cpp  **** #include "../h/fun.hpp"
   9:src/main.cpp  **** 
  10:src/main.cpp  **** 
  11:src/main.cpp  **** 
GAS LISTING /tmp/ccdTjN6i.s 			page 9


  12:src/main.cpp  **** int main(){
 203              		.loc 3 12 11 is_stmt 1
 204              		.cfi_startproc
 205              		.cfi_personality 0x9b,DW.ref.__gxx_personality_v0
 206              		.cfi_lsda 0x1b,.LLSDA64
 207 0118 130101FC 		addi	sp,sp,-64
 208              		.cfi_def_cfa_offset 64
 209 011c 233C1102 		sd	ra,56(sp)
 210 0120 23388102 		sd	s0,48(sp)
 211 0124 23349102 		sd	s1,40(sp)
 212              		.cfi_offset 1, -8
 213              		.cfi_offset 8, -16
 214              		.cfi_offset 9, -24
 215 0128 13040104 		addi	s0,sp,64
 216              		.cfi_def_cfa 8, 0
  13:src/main.cpp  **** 
  14:src/main.cpp  ****     // ############################################################################################
  15:src/main.cpp  ****     // upis u stvec
  16:src/main.cpp  ****     uint64 address = reinterpret_cast<uint64>(&Riscv::supervisorTrap);
 217              		.loc 3 16 5
 218              		.loc 3 16 12 is_stmt 0
 219 012c 97070000 		la	a5,_ZN5Riscv14supervisorTrapEv
 219      83B70700 
 220              	.LVL16:
  17:src/main.cpp  ****     Riscv::w_stvec(address);
 221              		.loc 3 17 5 is_stmt 1
 222              	.LBB16:
 223              	.LBB17:
 131:src/../h/riscv.hpp **** }
 224              		.loc 2 131 5
 131:src/../h/riscv.hpp **** }
 225              		.loc 2 131 69 is_stmt 0
 226              	#APP
 227              	# 131 "src/../h/riscv.hpp" 1
 228              		csrw stvec, a5
 229              	# 0 "" 2
 230              	.LVL17:
 231              	#NO_APP
 232              	.LBE17:
 233              	.LBE16:
  18:src/main.cpp  **** 
  19:src/main.cpp  ****     memory_setup();
 234              		.loc 3 19 5 is_stmt 1
 235              	.LEHB0:
 236              		.loc 3 19 17 is_stmt 0
 237 0138 97000000 		call	_Z12memory_setupv
 237      E7800000 
 238              	.LVL18:
  20:src/main.cpp  **** 
  21:src/main.cpp  ****     // kreiranje main niti
  22:src/main.cpp  ****     thread_t mainThread = nullptr;
 239              		.loc 3 22 5 is_stmt 1
 240              		.loc 3 22 14 is_stmt 0
 241 0140 233C04FC 		sd	zero,-40(s0)
  23:src/main.cpp  ****     thread_create(&mainThread, nullptr, nullptr);
 242              		.loc 3 23 5 is_stmt 1
 243              		.loc 3 23 18 is_stmt 0
GAS LISTING /tmp/ccdTjN6i.s 			page 10


 244 0144 13060000 		li	a2,0
 245 0148 93050000 		li	a1,0
 246 014c 130584FD 		addi	a0,s0,-40
 247 0150 97000000 		call	thread_create@plt
 247      E7800000 
 248              	.LVL19:
  24:src/main.cpp  ****     TCB::running = (TCB*)mainThread;
 249              		.loc 3 24 5 is_stmt 1
 250              		.loc 3 24 18 is_stmt 0
 251 0158 97070000 		la	a5,_ZN3TCB7runningE
 251      83B70700 
 252 0160 033784FD 		ld	a4,-40(s0)
 253 0164 23B0E700 		sd	a4,0(a5)
  25:src/main.cpp  **** 
  26:src/main.cpp  ****     // kreiranje idle niti
  27:src/main.cpp  ****     thread_create((thread_t*)&TCB::idle, &idle_function, nullptr);
 254              		.loc 3 27 5 is_stmt 1
 255              		.loc 3 27 18 is_stmt 0
 256 0168 13060000 		li	a2,0
 257 016c 97050000 		lla	a1,_Z13idle_functionPv
 257      93850500 
 258 0174 17050000 		la	a0,_ZN3TCB4idleE
 258      03350500 
 259 017c 97000000 		call	thread_create@plt
 259      E7800000 
 260              	.LVL20:
  28:src/main.cpp  **** 
  29:src/main.cpp  ****     // kreiranje userMain niti
  30:src/main.cpp  **** //    thread_t userMainThread = nullptr;
  31:src/main.cpp  **** //    thread_create(&userMainThread, &userMain, nullptr);
  32:src/main.cpp  **** 
  33:src/main.cpp  ****     thread_t userMainThread = nullptr;
 261              		.loc 3 33 5 is_stmt 1
 262              		.loc 3 33 14 is_stmt 0
 263 0184 233804FC 		sd	zero,-48(s0)
  34:src/main.cpp  ****     thread_create(&userMainThread, &user_main_wrapper, nullptr);
 264              		.loc 3 34 5 is_stmt 1
 265              		.loc 3 34 18 is_stmt 0
 266 0188 13060000 		li	a2,0
 267 018c 97050000 		lla	a1,_Z17user_main_wrapperPv
 267      93850500 
 268 0194 130504FD 		addi	a0,s0,-48
 269 0198 97000000 		call	thread_create@plt
 269      E7800000 
 270              	.LVL21:
  35:src/main.cpp  **** 
  36:src/main.cpp  ****     // kreiranje niti za ispis
  37:src/main.cpp  ****     thread_t consoleWriter = nullptr;
 271              		.loc 3 37 5 is_stmt 1
 272              		.loc 3 37 14 is_stmt 0
 273 01a0 233404FC 		sd	zero,-56(s0)
  38:src/main.cpp  ****     thread_create(&consoleWriter, &putc_function, nullptr);
 274              		.loc 3 38 5 is_stmt 1
 275              		.loc 3 38 18 is_stmt 0
 276 01a4 13060000 		li	a2,0
 277 01a8 97050000 		lla	a1,_Z13putc_functionPv
 277      93850500 
GAS LISTING /tmp/ccdTjN6i.s 			page 11


 278 01b0 130584FC 		addi	a0,s0,-56
 279 01b4 97000000 		call	thread_create@plt
 279      E7800000 
 280              	.LVL22:
  39:src/main.cpp  **** 
  40:src/main.cpp  ****     // memory and console setup
  41:src/main.cpp  ****     Console::getInstance();
 281              		.loc 3 41 5 is_stmt 1
 282              		.loc 3 41 26 is_stmt 0
 283 01bc 97000000 		call	_ZN7Console11getInstanceEv@plt
 283      E7800000 
 284              	.LVL23:
  42:src/main.cpp  **** 
  43:src/main.cpp  ****     Riscv::ms_sstatus(Riscv::SSTATUS_SIE);
 285              		.loc 3 43 5 is_stmt 1
 286              	.LBB18:
 287              	.LBB19:
 170:src/../h/riscv.hpp **** }
 288              		.loc 2 170 5
 170:src/../h/riscv.hpp **** }
 289              		.loc 2 170 68 is_stmt 0
 290 01c4 93072000 		li	a5,2
 291              	#APP
 292              	# 170 "src/../h/riscv.hpp" 1
 171:src/../h/riscv.hpp **** 
 293              		csrs sstatus, a5
 294              	# 0 "" 2
 295              		.loc 2 171 1
 296              	#NO_APP
 297 01cc 6F00C000 		j	.L17
 298              	.LVL24:
 299              	.L15:
 300              	.LBE19:
 301              	.LBE18:
  44:src/main.cpp  **** 
  45:src/main.cpp  ****     // ako sam obrisao userMain pristupam nepostojecoj strukturi
  46:src/main.cpp  **** //    while(!((TCB*)userMainThread)->is_finished()){
  47:src/main.cpp  **** //        thread_dispatch();
  48:src/main.cpp  **** //    }
  49:src/main.cpp  **** 
  50:src/main.cpp  ****     while(!is_user_main_finished || Console::getInstance().get_output_size()){
  51:src/main.cpp  ****         thread_dispatch();
 302              		.loc 3 51 9 is_stmt 1 discriminator 5
 303              		.loc 3 51 24 is_stmt 0 discriminator 5
 304 01d0 97000000 		call	thread_dispatch@plt
 304      E7800000 
 305              	.LVL25:
 306              	.L17:
  50:src/main.cpp  ****         thread_dispatch();
 307              		.loc 3 50 5 is_stmt 1
  50:src/main.cpp  ****         thread_dispatch();
 308              		.loc 3 50 34
  50:src/main.cpp  ****         thread_dispatch();
 309              		.loc 3 50 11 is_stmt 0
 310 01d8 97070000 		lbu	a5,.LANCHOR0
 310      83C70700 
  50:src/main.cpp  ****         thread_dispatch();
GAS LISTING /tmp/ccdTjN6i.s 			page 12


 311              		.loc 3 50 34
 312 01e0 E38807FE 		beqz	a5,.L15
  50:src/main.cpp  ****         thread_dispatch();
 313              		.loc 3 50 58 discriminator 2
 314 01e4 97000000 		call	_ZN7Console11getInstanceEv@plt
 314      E7800000 
 315              	.LVL26:
 316              	.LBB20:
 317              	.LBB21:
 318              		.file 4 "src/../h/console.hpp"
   1:src/../h/console.hpp **** #ifndef _console_hpp_
   2:src/../h/console.hpp **** #define _console_hpp_
   3:src/../h/console.hpp **** 
   4:src/../h/console.hpp **** #include "../h/my_buffer.hpp"
   5:src/../h/console.hpp **** 
   6:src/../h/console.hpp **** class Console{
   7:src/../h/console.hpp **** public:
   8:src/../h/console.hpp **** 
   9:src/../h/console.hpp ****     static Console& getInstance();
  10:src/../h/console.hpp **** 
  11:src/../h/console.hpp ****     Console(const Console&) = delete;
  12:src/../h/console.hpp ****     void operator=(Console const&) = delete;
  13:src/../h/console.hpp **** 
  14:src/../h/console.hpp ****     void put_in_input(char c);
  15:src/../h/console.hpp ****     char get_from_input();
  16:src/../h/console.hpp ****     void put_in_output(char c);
  17:src/../h/console.hpp ****     char get_from_output();
  18:src/../h/console.hpp ****     int get_output_size(){ return output_buffer->getCnt(); }
 319              		.loc 4 18 28 is_stmt 1 discriminator 2
 320              		.loc 4 18 56 is_stmt 0 discriminator 2
 321 01ec 03358500 		ld	a0,8(a0)
 322              	.LVL27:
 323 01f0 97000000 		call	_ZN8MyBuffer6getCntEv@plt
 323      E7800000 
 324              	.LVL28:
 325              	.LBE21:
 326              	.LBE20:
  50:src/main.cpp  ****         thread_dispatch();
 327              		.loc 3 50 34 discriminator 2
 328 01f8 E31C05FC 		bnez	a0,.L15
  52:src/main.cpp  ****     }
  53:src/main.cpp  **** 
  54:src/main.cpp  **** 
  55:src/main.cpp  ****     delete Console::getInstance().get_input_buff();
 329              		.loc 3 55 5 is_stmt 1
 330              		.loc 3 55 33 is_stmt 0
 331 01fc 97000000 		call	_ZN7Console11getInstanceEv@plt
 331      E7800000 
 332              	.LVL29:
 333              	.LEHE0:
 334              	.LBB22:
 335              	.LBB23:
  19:src/../h/console.hpp ****     int get_input_size(){ return input_buffer->getCnt(); }
  20:src/../h/console.hpp **** 
  21:src/../h/console.hpp ****     MyBuffer* get_input_buff(){return input_buffer;}
 336              		.loc 4 21 32 is_stmt 1
 337              		.loc 4 21 39 is_stmt 0
GAS LISTING /tmp/ccdTjN6i.s 			page 13


 338 0204 83340500 		ld	s1,0(a0)
 339              	.LVL30:
 340              	.LBE23:
 341              	.LBE22:
 342              		.loc 3 55 51
 343 0208 638E0400 		beqz	s1,.L18
 344              	.LVL31:
 345              	.LBB24:
 346              	.LBB25:
 347              		.file 5 "src/../h/../h/my_buffer.hpp"
   1:src/../h/../h/my_buffer.hpp **** #ifndef _my_buffer_hpp_
   2:src/../h/../h/my_buffer.hpp **** #define _my_buffer_hpp_
   3:src/../h/../h/my_buffer.hpp **** 
   4:src/../h/../h/my_buffer.hpp **** #include "../h/semaphore.hpp"
   5:src/../h/../h/my_buffer.hpp **** #include "../h/MemoryAllocator.hpp"
   6:src/../h/../h/my_buffer.hpp **** #include "../lib/hw.h"
   7:src/../h/../h/my_buffer.hpp **** #include "SlabI.h"
   8:src/../h/../h/my_buffer.hpp **** 
   9:src/../h/../h/my_buffer.hpp **** class MyBuffer {
  10:src/../h/../h/my_buffer.hpp **** private:
  11:src/../h/../h/my_buffer.hpp ****     int cap;
  12:src/../h/../h/my_buffer.hpp ****     int *buffer;
  13:src/../h/../h/my_buffer.hpp ****     int head, tail;
  14:src/../h/../h/my_buffer.hpp **** 
  15:src/../h/../h/my_buffer.hpp ****     MySemaphore* spaceAvailable;
  16:src/../h/../h/my_buffer.hpp ****     MySemaphore* itemAvailable;
  17:src/../h/../h/my_buffer.hpp ****     MySemaphore* mutexHead;
  18:src/../h/../h/my_buffer.hpp ****     MySemaphore* mutexTail;
  19:src/../h/../h/my_buffer.hpp **** 
  20:src/../h/../h/my_buffer.hpp ****     static kmem_cache_t* buffer_cache;
  21:src/../h/../h/my_buffer.hpp ****     static void buffer_setup(void* MyBuffer);
  22:src/../h/../h/my_buffer.hpp ****     static void buffer_destroy(void* MyBuffer);
  23:src/../h/../h/my_buffer.hpp **** 
  24:src/../h/../h/my_buffer.hpp **** public:
  25:src/../h/../h/my_buffer.hpp **** 
  26:src/../h/../h/my_buffer.hpp ****     static kmem_cache_t* &get_buffer_cache();
  27:src/../h/../h/my_buffer.hpp **** 
  28:src/../h/../h/my_buffer.hpp ****     void put(int val);
  29:src/../h/../h/my_buffer.hpp ****     int get();
  30:src/../h/../h/my_buffer.hpp ****     int getCnt();
  31:src/../h/../h/my_buffer.hpp **** 
  32:src/../h/../h/my_buffer.hpp ****     // operatori
  33:src/../h/../h/my_buffer.hpp ****     void *operator new(uint64 n){
  34:src/../h/../h/my_buffer.hpp ****         return kmem_cache_alloc(get_buffer_cache());
  35:src/../h/../h/my_buffer.hpp ****     }
  36:src/../h/../h/my_buffer.hpp **** 
  37:src/../h/../h/my_buffer.hpp ****     void *operator new[](uint64 n){
  38:src/../h/../h/my_buffer.hpp ****         if(n == 0)return nullptr;
  39:src/../h/../h/my_buffer.hpp ****         size_t num_of_elem = n / sizeof(MyBuffer);
  40:src/../h/../h/my_buffer.hpp ****         MyBuffer** arr =  (MyBuffer**)kmalloc(num_of_elem);
  41:src/../h/../h/my_buffer.hpp ****         return (void*)arr;
  42:src/../h/../h/my_buffer.hpp ****     }
  43:src/../h/../h/my_buffer.hpp **** 
  44:src/../h/../h/my_buffer.hpp ****     void operator delete(void* p)noexcept{
  45:src/../h/../h/my_buffer.hpp ****         kmem_cache_free(get_buffer_cache(), p);
 348              		.loc 5 45 9 is_stmt 1 discriminator 2
 349              		.loc 5 45 42 is_stmt 0 discriminator 2
GAS LISTING /tmp/ccdTjN6i.s 			page 14


 350 020c 97000000 		call	_ZN8MyBuffer16get_buffer_cacheEv@plt
 350      E7800000 
 351              	.LVL32:
 352              		.loc 5 45 24 discriminator 2
 353 0214 93850400 		mv	a1,s1
 354 0218 03350500 		ld	a0,0(a0)
 355 021c 97000000 		call	_Z15kmem_cache_freeP12kmem_cache_sPv@plt
 355      E7800000 
 356              	.LVL33:
 357              	.L18:
 358              	.LBE25:
 359              	.LBE24:
  56:src/main.cpp  ****     return 0;
 360              		.loc 3 56 5 is_stmt 1
  57:src/main.cpp  **** }...
 361              		.loc 3 57 1 is_stmt 0
 362 0224 13050000 		li	a0,0
 363 0228 83308103 		ld	ra,56(sp)
 364              		.cfi_restore 1
 365 022c 03340103 		ld	s0,48(sp)
 366              		.cfi_restore 8
 367              		.cfi_def_cfa 2, 64
 368 0230 83348102 		ld	s1,40(sp)
 369              		.cfi_restore 9
 370 0234 13010104 		addi	sp,sp,64
 371              		.cfi_def_cfa_offset 0
 372 0238 67800000 		jr	ra
 373              		.cfi_endproc
 374              	.LFE64:
 375              		.globl	__gxx_personality_v0
 376              		.section	.gcc_except_table,"a",@progbits
 377              	.LLSDA64:
 378 0000 FF       		.byte	0xff
 379 0001 FF       		.byte	0xff
 380 0002 03       		.byte	0x3
 381 0003 0D       		.byte	0xd
 382 0004 00000000 		.4byte	.LEHB0-.LFB64
 383 0008 00000000 		.4byte	.LEHE0-.LEHB0
 384 000c 00000000 		.4byte	0
 385 0010 00       		.byte	0
 386              		.text
 388              		.bss
 389              		.set	.LANCHOR0,. + 0
 392              	_ZL21is_user_main_finished:
 393 0000 00       		.zero	1
 394              		.text
 395              	.Letext0:
 396              		.file 6 "src/../lib/hw.h"
 397              		.file 7 "src/../h/../h/../h/SlabI.h"
 398              		.file 8 "src/../h/../h/../h/semaphore.hpp"
 399              		.file 9 "src/../test/../h/../h/../h/TCB.hpp"
 400              		.file 10 "src/../test/../h/syscall_c.h"
 401              		.file 11 "src/../test/userMain.hpp"
 4176              		.align	3
 4179              	DW.ref.__gxx_personality_v0:
 4180 0000 00000000 		.dword	__gxx_personality_v0
 4180      00000000 
GAS LISTING /tmp/ccdTjN6i.s 			page 15


 4181              		.ident	"GCC: (Ubuntu 9.4.0-1ubuntu1~20.04) 9.4.0"
 4182              		.section	.note.GNU-stack,"",@progbits
GAS LISTING /tmp/ccdTjN6i.s 			page 16


DEFINED SYMBOLS
                            *ABS*:0000000000000000 main.cpp
     /tmp/ccdTjN6i.s:9      .text:0000000000000000 _Z13idle_functionPv
     /tmp/ccdTjN6i.s:13     .text:0000000000000000 .L0 
     /tmp/ccdTjN6i.s:15     .text:0000000000000000 .L0 
     /tmp/ccdTjN6i.s:16     .text:0000000000000004 .L0 
     /tmp/ccdTjN6i.s:19     .text:000000000000000c .L0 
     /tmp/ccdTjN6i.s:20     .text:000000000000000c .L0 
     /tmp/ccdTjN6i.s:22     .text:0000000000000010 .L0 
     /tmp/ccdTjN6i.s:26     .text:0000000000000010 .L0 
     /tmp/ccdTjN6i.s:27     .text:0000000000000010 .L0 
     /tmp/ccdTjN6i.s:28     .text:0000000000000010 .L0 
     /tmp/ccdTjN6i.s:31     .text:0000000000000018 .L0 
     /tmp/ccdTjN6i.s:32     .text:000000000000001c .L0 
     /tmp/ccdTjN6i.s:38     .text:000000000000001c _Z13putc_functionPv
     /tmp/ccdTjN6i.s:41     .text:000000000000001c .L0 
     /tmp/ccdTjN6i.s:43     .text:000000000000001c .L0 
     /tmp/ccdTjN6i.s:44     .text:0000000000000020 .L0 
     /tmp/ccdTjN6i.s:48     .text:000000000000002c .L0 
     /tmp/ccdTjN6i.s:49     .text:000000000000002c .L0 
     /tmp/ccdTjN6i.s:50     .text:000000000000002c .L0 
     /tmp/ccdTjN6i.s:52     .text:0000000000000030 .L0 
     /tmp/ccdTjN6i.s:54     .text:0000000000000030 .L0 
     /tmp/ccdTjN6i.s:55     .text:0000000000000030 .L0 
     /tmp/ccdTjN6i.s:61     .text:0000000000000038 .L0 
     /tmp/ccdTjN6i.s:62     .text:0000000000000038 .L0 
     /tmp/ccdTjN6i.s:63     .text:0000000000000038 .L0 
     /tmp/ccdTjN6i.s:70     .text:0000000000000040 .L0 
     /tmp/ccdTjN6i.s:76     .text:0000000000000044 .L0 
     /tmp/ccdTjN6i.s:77     .text:0000000000000044 .L0 
     /tmp/ccdTjN6i.s:80     .text:000000000000004c .L0 
     /tmp/ccdTjN6i.s:83     .text:0000000000000058 .L0 
     /tmp/ccdTjN6i.s:86     .text:0000000000000060 .L0 
     /tmp/ccdTjN6i.s:89     .text:0000000000000064 .L0 
     /tmp/ccdTjN6i.s:90     .text:0000000000000064 .L0 
     /tmp/ccdTjN6i.s:91     .text:0000000000000064 .L0 
     /tmp/ccdTjN6i.s:92     .text:0000000000000064 .L0 
     /tmp/ccdTjN6i.s:96     .text:0000000000000074 .L0 
     /tmp/ccdTjN6i.s:99     .text:000000000000007c .L0 
     /tmp/ccdTjN6i.s:100    .text:000000000000007c .L0 
     /tmp/ccdTjN6i.s:103    .text:0000000000000084 .L0 
     /tmp/ccdTjN6i.s:104    .text:0000000000000084 .L0 
     /tmp/ccdTjN6i.s:105    .text:0000000000000088 .L0 
     /tmp/ccdTjN6i.s:111    .text:0000000000000088 _Z17user_main_wrapperPv
     /tmp/ccdTjN6i.s:114    .text:0000000000000088 .L0 
     /tmp/ccdTjN6i.s:116    .text:0000000000000088 .L0 
     /tmp/ccdTjN6i.s:117    .text:000000000000008c .L0 
     /tmp/ccdTjN6i.s:120    .text:0000000000000094 .L0 
     /tmp/ccdTjN6i.s:121    .text:0000000000000094 .L0 
     /tmp/ccdTjN6i.s:123    .text:0000000000000098 .L0 
     /tmp/ccdTjN6i.s:125    .text:0000000000000098 .L0 
     /tmp/ccdTjN6i.s:126    .text:0000000000000098 .L0 
     /tmp/ccdTjN6i.s:129    .text:00000000000000a0 .L0 
     /tmp/ccdTjN6i.s:130    .text:00000000000000a0 .L0 
     /tmp/ccdTjN6i.s:133    .text:00000000000000a8 .L0 
     /tmp/ccdTjN6i.s:134    .text:00000000000000a8 .L0 
     /tmp/ccdTjN6i.s:137    .text:00000000000000b0 .L0 
GAS LISTING /tmp/ccdTjN6i.s 			page 17


     /tmp/ccdTjN6i.s:138    .text:00000000000000b0 .L0 
     /tmp/ccdTjN6i.s:141    .text:00000000000000bc .L0 
     /tmp/ccdTjN6i.s:142    .text:00000000000000c0 .L0 
     /tmp/ccdTjN6i.s:144    .text:00000000000000c4 .L0 
     /tmp/ccdTjN6i.s:145    .text:00000000000000c4 .L0 
     /tmp/ccdTjN6i.s:147    .text:00000000000000c8 .L0 
     /tmp/ccdTjN6i.s:149    .text:00000000000000cc .L0 
     /tmp/ccdTjN6i.s:155    .text:00000000000000cc _Z12memory_setupv
     /tmp/ccdTjN6i.s:158    .text:00000000000000cc .L0 
     /tmp/ccdTjN6i.s:159    .text:00000000000000cc .L0 
     /tmp/ccdTjN6i.s:160    .text:00000000000000d0 .L0 
     /tmp/ccdTjN6i.s:163    .text:00000000000000d8 .L0 
     /tmp/ccdTjN6i.s:164    .text:00000000000000d8 .L0 
     /tmp/ccdTjN6i.s:166    .text:00000000000000dc .L0 
     /tmp/ccdTjN6i.s:168    .text:00000000000000dc .L0 
     /tmp/ccdTjN6i.s:169    .text:00000000000000dc .L0 
     /tmp/ccdTjN6i.s:173    .text:00000000000000e8 .L0 
     /tmp/ccdTjN6i.s:174    .text:00000000000000e8 .L0 
     /tmp/ccdTjN6i.s:178    .text:00000000000000f8 .L0 
     /tmp/ccdTjN6i.s:181    .text:00000000000000fc .L0 
     /tmp/ccdTjN6i.s:182    .text:00000000000000fc .L0 
     /tmp/ccdTjN6i.s:186    .text:0000000000000108 .L0 
     /tmp/ccdTjN6i.s:187    .text:000000000000010c .L0 
     /tmp/ccdTjN6i.s:189    .text:0000000000000110 .L0 
     /tmp/ccdTjN6i.s:190    .text:0000000000000110 .L0 
     /tmp/ccdTjN6i.s:192    .text:0000000000000114 .L0 
     /tmp/ccdTjN6i.s:194    .text:0000000000000118 .L0 
     /tmp/ccdTjN6i.s:200    .text:0000000000000118 main
     /tmp/ccdTjN6i.s:204    .text:0000000000000118 .L0 
     /tmp/ccdTjN6i.s:4179   .data.rel.local.DW.ref.__gxx_personality_v0:0000000000000000 DW.ref.__gxx_personality_v0
     /tmp/ccdTjN6i.s:207    .text:0000000000000118 .L0 
     /tmp/ccdTjN6i.s:208    .text:000000000000011c .L0 
     /tmp/ccdTjN6i.s:212    .text:0000000000000128 .L0 
     /tmp/ccdTjN6i.s:213    .text:0000000000000128 .L0 
     /tmp/ccdTjN6i.s:214    .text:0000000000000128 .L0 
     /tmp/ccdTjN6i.s:216    .text:000000000000012c .L0 
     /tmp/ccdTjN6i.s:218    .text:000000000000012c .L0 
     /tmp/ccdTjN6i.s:219    .text:000000000000012c .L0 
     /tmp/ccdTjN6i.s:224    .text:0000000000000134 .L0 
     /tmp/ccdTjN6i.s:225    .text:0000000000000134 .L0 
  src/../h/riscv.hpp:131    .text:0000000000000134 .L0 
     /tmp/ccdTjN6i.s:236    .text:0000000000000138 .L0 
     /tmp/ccdTjN6i.s:237    .text:0000000000000138 .L0 
     /tmp/ccdTjN6i.s:240    .text:0000000000000140 .L0 
     /tmp/ccdTjN6i.s:241    .text:0000000000000140 .L0 
     /tmp/ccdTjN6i.s:243    .text:0000000000000144 .L0 
     /tmp/ccdTjN6i.s:244    .text:0000000000000144 .L0 
     /tmp/ccdTjN6i.s:250    .text:0000000000000158 .L0 
     /tmp/ccdTjN6i.s:251    .text:0000000000000158 .L0 
     /tmp/ccdTjN6i.s:255    .text:0000000000000168 .L0 
     /tmp/ccdTjN6i.s:256    .text:0000000000000168 .L0 
     /tmp/ccdTjN6i.s:262    .text:0000000000000184 .L0 
     /tmp/ccdTjN6i.s:263    .text:0000000000000184 .L0 
     /tmp/ccdTjN6i.s:265    .text:0000000000000188 .L0 
     /tmp/ccdTjN6i.s:266    .text:0000000000000188 .L0 
     /tmp/ccdTjN6i.s:272    .text:00000000000001a0 .L0 
     /tmp/ccdTjN6i.s:273    .text:00000000000001a0 .L0 
GAS LISTING /tmp/ccdTjN6i.s 			page 18


     /tmp/ccdTjN6i.s:275    .text:00000000000001a4 .L0 
     /tmp/ccdTjN6i.s:276    .text:00000000000001a4 .L0 
     /tmp/ccdTjN6i.s:282    .text:00000000000001bc .L0 
     /tmp/ccdTjN6i.s:283    .text:00000000000001bc .L0 
     /tmp/ccdTjN6i.s:288    .text:00000000000001c4 .L0 
     /tmp/ccdTjN6i.s:289    .text:00000000000001c4 .L0 
     /tmp/ccdTjN6i.s:290    .text:00000000000001c4 .L0 
     /tmp/ccdTjN6i.s:297    .text:00000000000001cc .L0 
     /tmp/ccdTjN6i.s:303    .text:00000000000001d0 .L0 
     /tmp/ccdTjN6i.s:304    .text:00000000000001d0 .L0 
     /tmp/ccdTjN6i.s:308    .text:00000000000001d8 .L0 
     /tmp/ccdTjN6i.s:309    .text:00000000000001d8 .L0 
     /tmp/ccdTjN6i.s:310    .text:00000000000001d8 .L0 
     /tmp/ccdTjN6i.s:312    .text:00000000000001e0 .L0 
     /tmp/ccdTjN6i.s:314    .text:00000000000001e4 .L0 
     /tmp/ccdTjN6i.s:320    .text:00000000000001ec .L0 
     /tmp/ccdTjN6i.s:321    .text:00000000000001ec .L0 
     /tmp/ccdTjN6i.s:328    .text:00000000000001f8 .L0 
     /tmp/ccdTjN6i.s:330    .text:00000000000001fc .L0 
     /tmp/ccdTjN6i.s:331    .text:00000000000001fc .L0 
     /tmp/ccdTjN6i.s:337    .text:0000000000000204 .L0 
     /tmp/ccdTjN6i.s:338    .text:0000000000000204 .L0 
     /tmp/ccdTjN6i.s:343    .text:0000000000000208 .L0 
     /tmp/ccdTjN6i.s:349    .text:000000000000020c .L0 
     /tmp/ccdTjN6i.s:350    .text:000000000000020c .L0 
     /tmp/ccdTjN6i.s:353    .text:0000000000000214 .L0 
     /tmp/ccdTjN6i.s:361    .text:0000000000000224 .L0 
     /tmp/ccdTjN6i.s:362    .text:0000000000000224 .L0 
     /tmp/ccdTjN6i.s:364    .text:000000000000022c .L0 
     /tmp/ccdTjN6i.s:366    .text:0000000000000230 .L0 
     /tmp/ccdTjN6i.s:367    .text:0000000000000230 .L0 
     /tmp/ccdTjN6i.s:369    .text:0000000000000234 .L0 
     /tmp/ccdTjN6i.s:371    .text:0000000000000238 .L0 
     /tmp/ccdTjN6i.s:373    .text:000000000000023c .L0 
     /tmp/ccdTjN6i.s:389    .bss:0000000000000000 .LANCHOR0
     /tmp/ccdTjN6i.s:392    .bss:0000000000000000 _ZL21is_user_main_finished
     /tmp/ccdTjN6i.s:402    .text:000000000000023c .L0 
     /tmp/ccdTjN6i.s:80     .text:000000000000004c .L0 
     /tmp/ccdTjN6i.s:92     .text:0000000000000064 .L0 
     /tmp/ccdTjN6i.s:139    .text:00000000000000b4 .L0 
     /tmp/ccdTjN6i.s:169    .text:00000000000000dc .L0 
     /tmp/ccdTjN6i.s:174    .text:00000000000000e8 .L0 
     /tmp/ccdTjN6i.s:219    .text:000000000000012c .L0 
     /tmp/ccdTjN6i.s:251    .text:0000000000000158 .L0 
     /tmp/ccdTjN6i.s:257    .text:000000000000016c .L0 
     /tmp/ccdTjN6i.s:258    .text:0000000000000174 .L0 
     /tmp/ccdTjN6i.s:267    .text:000000000000018c .L0 
     /tmp/ccdTjN6i.s:277    .text:00000000000001a8 .L0 
     /tmp/ccdTjN6i.s:310    .text:00000000000001d8 .L0 
     /tmp/ccdTjN6i.s:24     .text:0000000000000010 .L2
     /tmp/ccdTjN6i.s:87     .text:0000000000000064 .L5
     /tmp/ccdTjN6i.s:72     .text:0000000000000044 .L9
     /tmp/ccdTjN6i.s:306    .text:00000000000001d8 .L17
     /tmp/ccdTjN6i.s:299    .text:00000000000001d0 .L15
     /tmp/ccdTjN6i.s:357    .text:0000000000000224 .L18
     /tmp/ccdTjN6i.s:235    .text:0000000000000138 .LEHB0
     /tmp/ccdTjN6i.s:201    .text:0000000000000118 .LFB64
GAS LISTING /tmp/ccdTjN6i.s 			page 19


     /tmp/ccdTjN6i.s:333    .text:0000000000000204 .LEHE0
     /tmp/ccdTjN6i.s:2497   .debug_abbrev:0000000000000000 .Ldebug_abbrev0
     /tmp/ccdTjN6i.s:4079   .debug_str:0000000000000f00 .LASF257
     /tmp/ccdTjN6i.s:3755   .debug_str:000000000000044b .LASF258
     /tmp/ccdTjN6i.s:3663   .debug_str:00000000000000db .LASF259
     /tmp/ccdTjN6i.s:5      .text:0000000000000000 .Ltext0
     /tmp/ccdTjN6i.s:395    .text:000000000000023c .Letext0
     /tmp/ccdTjN6i.s:3635   .debug_line:0000000000000000 .Ldebug_line0
     /tmp/ccdTjN6i.s:3803   .debug_str:00000000000005e0 .LASF0
     /tmp/ccdTjN6i.s:3839   .debug_str:0000000000000716 .LASF1
     /tmp/ccdTjN6i.s:3991   .debug_str:0000000000000c85 .LASF2
     /tmp/ccdTjN6i.s:4003   .debug_str:0000000000000cc5 .LASF4
     /tmp/ccdTjN6i.s:3819   .debug_str:0000000000000663 .LASF3
     /tmp/ccdTjN6i.s:3653   .debug_str:0000000000000086 .LASF5
     /tmp/ccdTjN6i.s:3941   .debug_str:0000000000000a94 .LASF6
     /tmp/ccdTjN6i.s:3831   .debug_str:00000000000006cf .LASF7
     /tmp/ccdTjN6i.s:3875   .debug_str:0000000000000866 .LASF8
     /tmp/ccdTjN6i.s:3771   .debug_str:00000000000004cb .LASF9
     /tmp/ccdTjN6i.s:3783   .debug_str:000000000000052b .LASF10
     /tmp/ccdTjN6i.s:3687   .debug_str:00000000000001c4 .LASF11
     /tmp/ccdTjN6i.s:4093   .debug_str:000000000000106e .LASF12
     /tmp/ccdTjN6i.s:3753   .debug_str:000000000000043c .LASF13
     /tmp/ccdTjN6i.s:3699   .debug_str:0000000000000238 .LASF14
     /tmp/ccdTjN6i.s:3685   .debug_str:00000000000001b4 .LASF15
     /tmp/ccdTjN6i.s:4051   .debug_str:0000000000000e32 .LASF16
     /tmp/ccdTjN6i.s:3731   .debug_str:0000000000000352 .LASF17
     /tmp/ccdTjN6i.s:4037   .debug_str:0000000000000dc2 .LASF18
     /tmp/ccdTjN6i.s:3749   .debug_str:000000000000042a .LASF19
     /tmp/ccdTjN6i.s:3747   .debug_str:000000000000041d .LASF260
     /tmp/ccdTjN6i.s:3693   .debug_str:0000000000000202 .LASF52
     /tmp/ccdTjN6i.s:3977   .debug_str:0000000000000c0f .LASF20
     /tmp/ccdTjN6i.s:3695   .debug_str:000000000000020e .LASF22
     /tmp/ccdTjN6i.s:3963   .debug_str:0000000000000b99 .LASF21
     /tmp/ccdTjN6i.s:3871   .debug_str:0000000000000834 .LASF23
     /tmp/ccdTjN6i.s:4171   .debug_str:00000000000012c8 .LASF24
     /tmp/ccdTjN6i.s:3759   .debug_str:000000000000045d .LASF25
     /tmp/ccdTjN6i.s:3789   .debug_str:0000000000000568 .LASF26
     /tmp/ccdTjN6i.s:3785   .debug_str:0000000000000539 .LASF27
     /tmp/ccdTjN6i.s:4101   .debug_str:0000000000001098 .LASF28
     /tmp/ccdTjN6i.s:4091   .debug_str:0000000000001047 .LASF29
     /tmp/ccdTjN6i.s:3821   .debug_str:0000000000000675 .LASF34
     /tmp/ccdTjN6i.s:3913   .debug_str:00000000000009ba .LASF36
     /tmp/ccdTjN6i.s:3801   .debug_str:00000000000005da .LASF30
     /tmp/ccdTjN6i.s:3673   .debug_str:000000000000013d .LASF31
     /tmp/ccdTjN6i.s:3647   .debug_str:000000000000004a .LASF32
     /tmp/ccdTjN6i.s:4127   .debug_str:000000000000116b .LASF33
     /tmp/ccdTjN6i.s:4033   .debug_str:0000000000000da1 .LASF35
     /tmp/ccdTjN6i.s:3947   .debug_str:0000000000000ac5 .LASF37
     /tmp/ccdTjN6i.s:4119   .debug_str:0000000000001121 .LASF38
     /tmp/ccdTjN6i.s:3903   .debug_str:0000000000000964 .LASF39
     /tmp/ccdTjN6i.s:4043   .debug_str:0000000000000e01 .LASF40
     /tmp/ccdTjN6i.s:3741   .debug_str:00000000000003d8 .LASF41
     /tmp/ccdTjN6i.s:3729   .debug_str:000000000000034a .LASF42
     /tmp/ccdTjN6i.s:3737   .debug_str:000000000000039d .LASF43
     /tmp/ccdTjN6i.s:4161   .debug_str:0000000000001286 .LASF44
     /tmp/ccdTjN6i.s:3943   .debug_str:0000000000000aa7 .LASF45
     /tmp/ccdTjN6i.s:3677   .debug_str:0000000000000160 .LASF46
GAS LISTING /tmp/ccdTjN6i.s 			page 20


     /tmp/ccdTjN6i.s:3937   .debug_str:0000000000000a71 .LASF47
     /tmp/ccdTjN6i.s:3645   .debug_str:000000000000003a .LASF48
     /tmp/ccdTjN6i.s:3859   .debug_str:00000000000007c9 .LASF50
     /tmp/ccdTjN6i.s:4035   .debug_str:0000000000000daf .LASF49
     /tmp/ccdTjN6i.s:3979   .debug_str:0000000000000c18 .LASF51
     /tmp/ccdTjN6i.s:3765   .debug_str:000000000000048c .LASF63
     /tmp/ccdTjN6i.s:3725   .debug_str:0000000000000308 .LASF65
     /tmp/ccdTjN6i.s:3849   .debug_str:000000000000076b .LASF53
     /tmp/ccdTjN6i.s:4075   .debug_str:0000000000000ed8 .LASF54
     /tmp/ccdTjN6i.s:3681   .debug_str:0000000000000180 .LASF56
     /tmp/ccdTjN6i.s:4167   .debug_str:00000000000012ac .LASF55
     /tmp/ccdTjN6i.s:4089   .debug_str:0000000000001020 .LASF57
     /tmp/ccdTjN6i.s:3923   .debug_str:0000000000000a1d .LASF115
     /tmp/ccdTjN6i.s:4169   .debug_str:00000000000012be .LASF58
     /tmp/ccdTjN6i.s:3751   .debug_str:0000000000000437 .LASF59
     /tmp/ccdTjN6i.s:3911   .debug_str:00000000000009b5 .LASF60
     /tmp/ccdTjN6i.s:4057   .debug_str:0000000000000e56 .LASF261
     /tmp/ccdTjN6i.s:4049   .debug_str:0000000000000e24 .LASF61
     /tmp/ccdTjN6i.s:3797   .debug_str:0000000000000599 .LASF62
     /tmp/ccdTjN6i.s:3877   .debug_str:000000000000087a .LASF143
     /tmp/ccdTjN6i.s:3891   .debug_str:00000000000008de .LASF145
     /tmp/ccdTjN6i.s:3969   .debug_str:0000000000000bc4 .LASF64
     /tmp/ccdTjN6i.s:3851   .debug_str:0000000000000780 .LASF66
     /tmp/ccdTjN6i.s:3983   .debug_str:0000000000000c4a .LASF67
     /tmp/ccdTjN6i.s:4007   .debug_str:0000000000000cd9 .LASF68
     /tmp/ccdTjN6i.s:4159   .debug_str:0000000000001278 .LASF69
     /tmp/ccdTjN6i.s:3667   .debug_str:0000000000000115 .LASF70
     /tmp/ccdTjN6i.s:4115   .debug_str:000000000000110a .LASF71
     /tmp/ccdTjN6i.s:3705   .debug_str:0000000000000270 .LASF72
     /tmp/ccdTjN6i.s:3935   .debug_str:0000000000000a65 .LASF73
     /tmp/ccdTjN6i.s:3905   .debug_str:0000000000000986 .LASF74
     /tmp/ccdTjN6i.s:3953   .debug_str:0000000000000b23 .LASF75
     /tmp/ccdTjN6i.s:3739   .debug_str:00000000000003b8 .LASF76
     /tmp/ccdTjN6i.s:4105   .debug_str:00000000000010b6 .LASF77
     /tmp/ccdTjN6i.s:3951   .debug_str:0000000000000b04 .LASF78
     /tmp/ccdTjN6i.s:4053   .debug_str:0000000000000e3e .LASF79
     /tmp/ccdTjN6i.s:3981   .debug_str:0000000000000c2e .LASF80
     /tmp/ccdTjN6i.s:3825   .debug_str:000000000000068f .LASF81
     /tmp/ccdTjN6i.s:3971   .debug_str:0000000000000bd4 .LASF82
     /tmp/ccdTjN6i.s:4121   .debug_str:000000000000112f .LASF83
     /tmp/ccdTjN6i.s:4071   .debug_str:0000000000000eaa .LASF84
     /tmp/ccdTjN6i.s:4041   .debug_str:0000000000000df0 .LASF85
     /tmp/ccdTjN6i.s:3745   .debug_str:0000000000000400 .LASF86
     /tmp/ccdTjN6i.s:3907   .debug_str:000000000000099e .LASF87
     /tmp/ccdTjN6i.s:3973   .debug_str:0000000000000bef .LASF88
     /tmp/ccdTjN6i.s:3827   .debug_str:000000000000069e .LASF89
     /tmp/ccdTjN6i.s:3733   .debug_str:0000000000000368 .LASF90
     /tmp/ccdTjN6i.s:3865   .debug_str:00000000000007ff .LASF91
     /tmp/ccdTjN6i.s:3815   .debug_str:000000000000063a .LASF92
     /tmp/ccdTjN6i.s:4113   .debug_str:00000000000010fd .LASF93
     /tmp/ccdTjN6i.s:4077   .debug_str:0000000000000ee8 .LASF94
     /tmp/ccdTjN6i.s:4017   .debug_str:0000000000000d20 .LASF95
     /tmp/ccdTjN6i.s:3691   .debug_str:00000000000001e5 .LASF96
     /tmp/ccdTjN6i.s:3713   .debug_str:00000000000002a9 .LASF97
     /tmp/ccdTjN6i.s:3949   .debug_str:0000000000000ae8 .LASF98
     /tmp/ccdTjN6i.s:3843   .debug_str:0000000000000733 .LASF99
     /tmp/ccdTjN6i.s:4073   .debug_str:0000000000000ec8 .LASF100
GAS LISTING /tmp/ccdTjN6i.s 			page 21


     /tmp/ccdTjN6i.s:3777   .debug_str:0000000000000506 .LASF101
     /tmp/ccdTjN6i.s:3763   .debug_str:0000000000000480 .LASF102
     /tmp/ccdTjN6i.s:3867   .debug_str:000000000000080e .LASF103
     /tmp/ccdTjN6i.s:3993   .debug_str:0000000000000c93 .LASF104
     /tmp/ccdTjN6i.s:4065   .debug_str:0000000000000e86 .LASF105
     /tmp/ccdTjN6i.s:3757   .debug_str:0000000000000458 .LASF106
     /tmp/ccdTjN6i.s:3927   .debug_str:0000000000000a41 .LASF107
     /tmp/ccdTjN6i.s:3813   .debug_str:000000000000061a .LASF108
     /tmp/ccdTjN6i.s:3933   .debug_str:0000000000000a60 .LASF262
     /tmp/ccdTjN6i.s:3805   .debug_str:00000000000005ed .LASF109
     /tmp/ccdTjN6i.s:4155   .debug_str:0000000000001248 .LASF110
     /tmp/ccdTjN6i.s:3861   .debug_str:00000000000007df .LASF111
     /tmp/ccdTjN6i.s:3845   .debug_str:0000000000000739 .LASF112
     /tmp/ccdTjN6i.s:3719   .debug_str:00000000000002e1 .LASF229
     /tmp/ccdTjN6i.s:3899   .debug_str:000000000000093f .LASF231
     /tmp/ccdTjN6i.s:3817   .debug_str:0000000000000655 .LASF113
     /tmp/ccdTjN6i.s:3869   .debug_str:000000000000081b .LASF114
     /tmp/ccdTjN6i.s:4031   .debug_str:0000000000000d8e .LASF116
     /tmp/ccdTjN6i.s:3675   .debug_str:0000000000000156 .LASF117
     /tmp/ccdTjN6i.s:3643   .debug_str:0000000000000035 .LASF118
     /tmp/ccdTjN6i.s:3823   .debug_str:0000000000000686 .LASF119
     /tmp/ccdTjN6i.s:4153   .debug_str:0000000000001242 .LASF120
     /tmp/ccdTjN6i.s:4085   .debug_str:0000000000001009 .LASF121
     /tmp/ccdTjN6i.s:4055   .debug_str:0000000000000e4d .LASF122
     /tmp/ccdTjN6i.s:4059   .debug_str:0000000000000e5e .LASF123
     /tmp/ccdTjN6i.s:3795   .debug_str:000000000000058e .LASF124
     /tmp/ccdTjN6i.s:3703   .debug_str:0000000000000263 .LASF125
     /tmp/ccdTjN6i.s:3665   .debug_str:000000000000010f .LASF126
     /tmp/ccdTjN6i.s:3781   .debug_str:0000000000000520 .LASF127
     /tmp/ccdTjN6i.s:4025   .debug_str:0000000000000d73 .LASF128
     /tmp/ccdTjN6i.s:3847   .debug_str:0000000000000762 .LASF129
     /tmp/ccdTjN6i.s:3769   .debug_str:00000000000004bf .LASF130
     /tmp/ccdTjN6i.s:3975   .debug_str:0000000000000c0a .LASF131
     /tmp/ccdTjN6i.s:4013   .debug_str:0000000000000d09 .LASF132
     /tmp/ccdTjN6i.s:4029   .debug_str:0000000000000d87 .LASF133
     /tmp/ccdTjN6i.s:4087   .debug_str:0000000000001011 .LASF134
     /tmp/ccdTjN6i.s:3881   .debug_str:0000000000000894 .LASF135
     /tmp/ccdTjN6i.s:3841   .debug_str:0000000000000729 .LASF136
     /tmp/ccdTjN6i.s:3709   .debug_str:000000000000028d .LASF137
     /tmp/ccdTjN6i.s:3641   .debug_str:0000000000000028 .LASF138
     /tmp/ccdTjN6i.s:3931   .debug_str:0000000000000a53 .LASF139
     /tmp/ccdTjN6i.s:4109   .debug_str:00000000000010d8 .LASF140
     /tmp/ccdTjN6i.s:4027   .debug_str:0000000000000d78 .LASF141
     /tmp/ccdTjN6i.s:3727   .debug_str:000000000000032a .LASF142
     /tmp/ccdTjN6i.s:3919   .debug_str:00000000000009f6 .LASF144
     /tmp/ccdTjN6i.s:4125   .debug_str:000000000000114a .LASF146
     /tmp/ccdTjN6i.s:4067   .debug_str:0000000000000e8e .LASF263
     /tmp/ccdTjN6i.s:4131   .debug_str:0000000000001195 .LASF264
     /tmp/ccdTjN6i.s:4097   .debug_str:0000000000001088 .LASF147
     /tmp/ccdTjN6i.s:3893   .debug_str:00000000000008f5 .LASF148
     /tmp/ccdTjN6i.s:3863   .debug_str:00000000000007ee .LASF149
     /tmp/ccdTjN6i.s:3895   .debug_str:000000000000090b .LASF150
     /tmp/ccdTjN6i.s:3689   .debug_str:00000000000001d3 .LASF151
     /tmp/ccdTjN6i.s:3717   .debug_str:00000000000002cf .LASF152
     /tmp/ccdTjN6i.s:3929   .debug_str:0000000000000a4b .LASF153
     /tmp/ccdTjN6i.s:4143   .debug_str:00000000000011e7 .LASF154
     /tmp/ccdTjN6i.s:3735   .debug_str:0000000000000382 .LASF155
GAS LISTING /tmp/ccdTjN6i.s 			page 22


     /tmp/ccdTjN6i.s:3959   .debug_str:0000000000000b73 .LASF156
     /tmp/ccdTjN6i.s:3995   .debug_str:0000000000000ca0 .LASF157
     /tmp/ccdTjN6i.s:3873   .debug_str:0000000000000853 .LASF158
     /tmp/ccdTjN6i.s:4005   .debug_str:0000000000000ccc .LASF159
     /tmp/ccdTjN6i.s:3985   .debug_str:0000000000000c55 .LASF160
     /tmp/ccdTjN6i.s:4129   .debug_str:0000000000001186 .LASF161
     /tmp/ccdTjN6i.s:4023   .debug_str:0000000000000d55 .LASF162
     /tmp/ccdTjN6i.s:3787   .debug_str:000000000000055a .LASF163
     /tmp/ccdTjN6i.s:4081   .debug_str:0000000000000fd0 .LASF164
     /tmp/ccdTjN6i.s:3915   .debug_str:00000000000009df .LASF165
     /tmp/ccdTjN6i.s:3649   .debug_str:0000000000000052 .LASF166
     /tmp/ccdTjN6i.s:3793   .debug_str:000000000000057e .LASF167
     /tmp/ccdTjN6i.s:3955   .debug_str:0000000000000b36 .LASF168
     /tmp/ccdTjN6i.s:4137   .debug_str:00000000000011c8 .LASF169
     /tmp/ccdTjN6i.s:3957   .debug_str:0000000000000b55 .LASF170
     /tmp/ccdTjN6i.s:3683   .debug_str:00000000000001a5 .LASF171
     /tmp/ccdTjN6i.s:3855   .debug_str:00000000000007a5 .LASF172
     /tmp/ccdTjN6i.s:4147   .debug_str:0000000000001209 .LASF173
     /tmp/ccdTjN6i.s:4151   .debug_str:0000000000001224 .LASF174
     /tmp/ccdTjN6i.s:4001   .debug_str:0000000000000cb7 .LASF175
     /tmp/ccdTjN6i.s:4163   .debug_str:0000000000001293 .LASF176
     /tmp/ccdTjN6i.s:4149   .debug_str:0000000000001217 .LASF177
     /tmp/ccdTjN6i.s:3939   .debug_str:0000000000000a86 .LASF178
     /tmp/ccdTjN6i.s:4061   .debug_str:0000000000000e6d .LASF179
     /tmp/ccdTjN6i.s:4069   .debug_str:0000000000000ea1 .LASF180
     /tmp/ccdTjN6i.s:3671   .debug_str:0000000000000135 .LASF265
     /tmp/ccdTjN6i.s:3669   .debug_str:000000000000012f .LASF181
     /tmp/ccdTjN6i.s:4107   .debug_str:00000000000010c9 .LASF266
     /tmp/ccdTjN6i.s:3743   .debug_str:00000000000003f4 .LASF182
     /tmp/ccdTjN6i.s:3835   .debug_str:00000000000006f5 .LASF183
     /tmp/ccdTjN6i.s:3887   .debug_str:00000000000008c5 .LASF184
     /tmp/ccdTjN6i.s:4103   .debug_str:00000000000010a7 .LASF185
     /tmp/ccdTjN6i.s:4083   .debug_str:0000000000000fed .LASF186
     /tmp/ccdTjN6i.s:3637   .debug_str:0000000000000000 .LASF187
     /tmp/ccdTjN6i.s:3897   .debug_str:000000000000091c .LASF188
     /tmp/ccdTjN6i.s:4015   .debug_str:0000000000000d12 .LASF189
     /tmp/ccdTjN6i.s:3701   .debug_str:0000000000000248 .LASF190
     /tmp/ccdTjN6i.s:3809   .debug_str:0000000000000607 .LASF191
     /tmp/ccdTjN6i.s:4135   .debug_str:00000000000011ae .LASF192
     /tmp/ccdTjN6i.s:3791   .debug_str:0000000000000573 .LASF193
     /tmp/ccdTjN6i.s:3799   .debug_str:00000000000005c2 .LASF194
     /tmp/ccdTjN6i.s:4099   .debug_str:000000000000108f .LASF195
     /tmp/ccdTjN6i.s:3651   .debug_str:0000000000000071 .LASF196
     /tmp/ccdTjN6i.s:3987   .debug_str:0000000000000c71 .LASF197
     /tmp/ccdTjN6i.s:3659   .debug_str:00000000000000aa .LASF198
     /tmp/ccdTjN6i.s:4111   .debug_str:00000000000010f6 .LASF199
     /tmp/ccdTjN6i.s:3961   .debug_str:0000000000000b86 .LASF200
     /tmp/ccdTjN6i.s:3917   .debug_str:00000000000009ef .LASF201
     /tmp/ccdTjN6i.s:3833   .debug_str:00000000000006e2 .LASF202
     /tmp/ccdTjN6i.s:4141   .debug_str:00000000000011df .LASF203
     /tmp/ccdTjN6i.s:4047   .debug_str:0000000000000e10 .LASF204
     /tmp/ccdTjN6i.s:3909   .debug_str:00000000000009ad .LASF205
     /tmp/ccdTjN6i.s:3925   .debug_str:0000000000000a2d .LASF206
     /tmp/ccdTjN6i.s:3997   .debug_str:0000000000000caa .LASF207
     /tmp/ccdTjN6i.s:3965   .debug_str:0000000000000ba3 .LASF208
     /tmp/ccdTjN6i.s:4165   .debug_str:00000000000012a4 .LASF209
     /tmp/ccdTjN6i.s:3837   .debug_str:0000000000000702 .LASF210
GAS LISTING /tmp/ccdTjN6i.s 			page 23


     /tmp/ccdTjN6i.s:4045   .debug_str:0000000000000e09 .LASF211
     /tmp/ccdTjN6i.s:4009   .debug_str:0000000000000cef .LASF212
     /tmp/ccdTjN6i.s:4011   .debug_str:0000000000000d02 .LASF213
     /tmp/ccdTjN6i.s:3773   .debug_str:00000000000004db .LASF214
     /tmp/ccdTjN6i.s:3721   .debug_str:00000000000002f0 .LASF215
     /tmp/ccdTjN6i.s:3657   .debug_str:0000000000000098 .LASF216
     /tmp/ccdTjN6i.s:3811   .debug_str:0000000000000614 .LASF217
     /tmp/ccdTjN6i.s:3711   .debug_str:0000000000000297 .LASF218
     /tmp/ccdTjN6i.s:3655   .debug_str:000000000000008d .LASF219
     /tmp/ccdTjN6i.s:4039   .debug_str:0000000000000dd8 .LASF220
     /tmp/ccdTjN6i.s:3989   .debug_str:0000000000000c7a .LASF221
     /tmp/ccdTjN6i.s:4157   .debug_str:0000000000001260 .LASF222
     /tmp/ccdTjN6i.s:4123   .debug_str:0000000000001140 .LASF223
     /tmp/ccdTjN6i.s:4145   .debug_str:00000000000011f3 .LASF224
     /tmp/ccdTjN6i.s:4117   .debug_str:0000000000001117 .LASF225
     /tmp/ccdTjN6i.s:3921   .debug_str:0000000000000a07 .LASF226
     /tmp/ccdTjN6i.s:4095   .debug_str:0000000000001079 .LASF227
     /tmp/ccdTjN6i.s:3661   .debug_str:00000000000000bf .LASF228
     /tmp/ccdTjN6i.s:4021   .debug_str:0000000000000d40 .LASF230
     /tmp/ccdTjN6i.s:3829   .debug_str:00000000000006ad .LASF232
     /tmp/ccdTjN6i.s:3715   .debug_str:00000000000002b9 .LASF233
     /tmp/ccdTjN6i.s:3761   .debug_str:000000000000047b .LASF234
     /tmp/ccdTjN6i.s:374    .text:000000000000023c .LFE64
     /tmp/ccdTjN6i.s:4139   .debug_str:00000000000011d7 .LASF267
     /tmp/ccdTjN6i.s:3901   .debug_str:0000000000000959 .LASF235
     /tmp/ccdTjN6i.s:3883   .debug_str:00000000000008a2 .LASF236
     /tmp/ccdTjN6i.s:3807   .debug_str:00000000000005f9 .LASF237
     /tmp/ccdTjN6i.s:222    .text:0000000000000134 .LBB16
     /tmp/ccdTjN6i.s:233    .text:0000000000000138 .LBE16
     /tmp/ccdTjN6i.s:286    .text:00000000000001c4 .LBB18
     /tmp/ccdTjN6i.s:301    .text:00000000000001d0 .LBE18
     /tmp/ccdTjN6i.s:3529   .debug_loc:0000000000000000 .LLST6
     /tmp/ccdTjN6i.s:316    .text:00000000000001ec .LBB20
     /tmp/ccdTjN6i.s:326    .text:00000000000001f8 .LBE20
     /tmp/ccdTjN6i.s:3537   .debug_loc:0000000000000024 .LLST7
     /tmp/ccdTjN6i.s:324    .text:00000000000001f8 .LVL28
     /tmp/ccdTjN6i.s:334    .text:0000000000000204 .LBB22
     /tmp/ccdTjN6i.s:341    .text:0000000000000208 .LBE22
     /tmp/ccdTjN6i.s:3544   .debug_loc:0000000000000047 .LLST8
     /tmp/ccdTjN6i.s:345    .text:000000000000020c .LBB24
     /tmp/ccdTjN6i.s:359    .text:0000000000000224 .LBE24
     /tmp/ccdTjN6i.s:3551   .debug_loc:000000000000006a .LLST9
     /tmp/ccdTjN6i.s:351    .text:0000000000000214 .LVL32
     /tmp/ccdTjN6i.s:356    .text:0000000000000224 .LVL33
     /tmp/ccdTjN6i.s:238    .text:0000000000000140 .LVL18
     /tmp/ccdTjN6i.s:248    .text:0000000000000158 .LVL19
     /tmp/ccdTjN6i.s:260    .text:0000000000000184 .LVL20
     /tmp/ccdTjN6i.s:270    .text:00000000000001a0 .LVL21
     /tmp/ccdTjN6i.s:280    .text:00000000000001bc .LVL22
     /tmp/ccdTjN6i.s:284    .text:00000000000001c4 .LVL23
     /tmp/ccdTjN6i.s:305    .text:00000000000001d8 .LVL25
     /tmp/ccdTjN6i.s:315    .text:00000000000001ec .LVL26
     /tmp/ccdTjN6i.s:332    .text:0000000000000204 .LVL29
     /tmp/ccdTjN6i.s:3967   .debug_str:0000000000000bb7 .LASF238
     /tmp/ccdTjN6i.s:3723   .debug_str:00000000000002f6 .LASF239
     /tmp/ccdTjN6i.s:156    .text:00000000000000cc .LFB63
     /tmp/ccdTjN6i.s:195    .text:0000000000000118 .LFE63
GAS LISTING /tmp/ccdTjN6i.s 			page 24


     /tmp/ccdTjN6i.s:4133   .debug_str:00000000000011a8 .LASF240
     /tmp/ccdTjN6i.s:3558   .debug_loc:000000000000008d .LLST4
     /tmp/ccdTjN6i.s:3697   .debug_str:000000000000022e .LASF241
     /tmp/ccdTjN6i.s:3565   .debug_loc:00000000000000b0 .LLST5
     /tmp/ccdTjN6i.s:184    .text:0000000000000108 .LVL15
     /tmp/ccdTjN6i.s:3639   .debug_str:0000000000000016 .LASF242
     /tmp/ccdTjN6i.s:3775   .debug_str:00000000000004ee .LASF243
     /tmp/ccdTjN6i.s:112    .text:0000000000000088 .LFB62
     /tmp/ccdTjN6i.s:150    .text:00000000000000cc .LFE62
     /tmp/ccdTjN6i.s:3572   .debug_loc:00000000000000d3 .LLST3
     /tmp/ccdTjN6i.s:127    .text:00000000000000a0 .LVL10
     /tmp/ccdTjN6i.s:131    .text:00000000000000a8 .LVL11
     /tmp/ccdTjN6i.s:135    .text:00000000000000b0 .LVL12
     /tmp/ccdTjN6i.s:3779   .debug_str:0000000000000512 .LASF244
     /tmp/ccdTjN6i.s:3885   .debug_str:00000000000008b1 .LASF245
     /tmp/ccdTjN6i.s:39     .text:000000000000001c .LFB61
     /tmp/ccdTjN6i.s:106    .text:0000000000000088 .LFE61
     /tmp/ccdTjN6i.s:3586   .debug_loc:000000000000010c .LLST1
     /tmp/ccdTjN6i.s:58     .text:0000000000000038 .LBB14
     /tmp/ccdTjN6i.s:74     .text:0000000000000044 .LBE14
     /tmp/ccdTjN6i.s:3600   .debug_loc:0000000000000145 .LLST2
     /tmp/ccdTjN6i.s:56     .text:0000000000000038 .LVL4
     /tmp/ccdTjN6i.s:78     .text:000000000000004c .LVL6
     /tmp/ccdTjN6i.s:84     .text:0000000000000060 .LVL7
     /tmp/ccdTjN6i.s:101    .text:0000000000000084 .LVL8
     /tmp/ccdTjN6i.s:3879   .debug_str:0000000000000886 .LASF246
     /tmp/ccdTjN6i.s:4063   .debug_str:0000000000000e72 .LASF247
     /tmp/ccdTjN6i.s:10     .text:0000000000000000 .LFB60
     /tmp/ccdTjN6i.s:33     .text:000000000000001c .LFE60
     /tmp/ccdTjN6i.s:3608   .debug_loc:0000000000000169 .LLST0
     /tmp/ccdTjN6i.s:29     .text:0000000000000018 .LVL2
     /tmp/ccdTjN6i.s:3999   .debug_str:0000000000000cb2 .LASF248
     /tmp/ccdTjN6i.s:3857   .debug_str:00000000000007c3 .LASF249
     /tmp/ccdTjN6i.s:3707   .debug_str:0000000000000288 .LASF250
     /tmp/ccdTjN6i.s:3767   .debug_str:000000000000049a .LASF251
     /tmp/ccdTjN6i.s:3679   .debug_str:0000000000000170 .LASF252
     /tmp/ccdTjN6i.s:4019   .debug_str:0000000000000d30 .LASF253
     /tmp/ccdTjN6i.s:3853   .debug_str:000000000000079b .LASF254
     /tmp/ccdTjN6i.s:3889   .debug_str:00000000000008d1 .LASF255
     /tmp/ccdTjN6i.s:3945   .debug_str:0000000000000abc .LASF256
     /tmp/ccdTjN6i.s:298    .text:00000000000001d0 .LVL24
     /tmp/ccdTjN6i.s:322    .text:00000000000001f0 .LVL27
     /tmp/ccdTjN6i.s:339    .text:0000000000000208 .LVL30
     /tmp/ccdTjN6i.s:344    .text:000000000000020c .LVL31
     /tmp/ccdTjN6i.s:171    .text:00000000000000e8 .LVL13
     /tmp/ccdTjN6i.s:179    .text:00000000000000fc .LVL14
     /tmp/ccdTjN6i.s:115    .text:0000000000000088 .LVL9
     /tmp/ccdTjN6i.s:42     .text:000000000000001c .LVL3
     /tmp/ccdTjN6i.s:71     .text:0000000000000044 .LVL5
     /tmp/ccdTjN6i.s:14     .text:0000000000000000 .LVL0
     /tmp/ccdTjN6i.s:23     .text:0000000000000010 .LVL1
     /tmp/ccdTjN6i.s:403    .debug_info:0000000000000000 .Ldebug_info0
     /tmp/ccdTjN6i.s:377    .gcc_except_table:0000000000000000 .LLSDA64

UNDEFINED SYMBOLS
thread_dispatch
switch_to_priviledged
GAS LISTING /tmp/ccdTjN6i.s 			page 25


_ZN7Console11getInstanceEv
CONSOLE_TX_DATA
_ZN7Console15get_from_outputEv
CONSOLE_STATUS
switch_to_user
_Z8userMainv
HEAP_START_ADDR
HEAP_END_ADDR
_Z9kmem_initPvi
_ZN5Riscv14supervisorTrapEv
thread_create
_ZN3TCB7runningE
_ZN3TCB4idleE
_ZN8MyBuffer6getCntEv
_ZN8MyBuffer16get_buffer_cacheEv
_Z15kmem_cache_freeP12kmem_cache_sPv
__gxx_personality_v0
