GAS LISTING /tmp/cc5RAsms.s 			page 1


   1              		.file	"my_buffer.cpp"
   2              		.option pic
   3              		.option norelax
   4              		.text
   5              	.Ltext0:
   6              		.align	2
   7              		.globl	_ZN8MyBufferC2Ei
   9              	_ZN8MyBufferC2Ei:
  10              	.LFB22:
  11              		.file 1 "src/my_buffer.cpp"
   1:src/my_buffer.cpp **** #include "../h/my_buffer.hpp"
   2:src/my_buffer.cpp **** 
   3:src/my_buffer.cpp **** MyBuffer::MyBuffer(int _cap) : cap(_cap + 1), head(0), tail(0) {
  12              		.loc 1 3 1
  13              		.cfi_startproc
  14              	.LVL0:
  15 0000 130101FE 		addi	sp,sp,-32
  16              		.cfi_def_cfa_offset 32
  17 0004 233C1100 		sd	ra,24(sp)
  18 0008 23388100 		sd	s0,16(sp)
  19 000c 23349100 		sd	s1,8(sp)
  20 0010 23302101 		sd	s2,0(sp)
  21              		.cfi_offset 1, -8
  22              		.cfi_offset 8, -16
  23              		.cfi_offset 9, -24
  24              		.cfi_offset 18, -32
  25 0014 13040102 		addi	s0,sp,32
  26              		.cfi_def_cfa 8, 0
  27 0018 93040500 		mv	s1,a0
  28 001c 13890500 		mv	s2,a1
  29              	.LBB15:
  30              		.loc 1 3 41 is_stmt 0
  31 0020 9B871500 		addiw	a5,a1,1
  32              		.loc 1 3 62
  33 0024 2320F500 		sw	a5,0(a0)
  34 0028 23280500 		sw	zero,16(a0)
  35 002c 232A0500 		sw	zero,20(a0)
   4:src/my_buffer.cpp ****     buffer = (int *)MemoryAllocator::getInstance().memory_alloc(sizeof(int) * cap);
  36              		.loc 1 4 5 is_stmt 1
  37              	.LBB16:
  38              	.LBB17:
  39              		.file 2 "src/../h/../h/../h/MemoryAllocator.hpp"
   1:src/../h/../h/../h/MemoryAllocator.hpp **** #ifndef _memory_allocator_hpp_
   2:src/../h/../h/../h/MemoryAllocator.hpp **** #define _memory_allocator_hpp_
   3:src/../h/../h/../h/MemoryAllocator.hpp **** 
   4:src/../h/../h/../h/MemoryAllocator.hpp **** #include "../lib/hw.h"
   5:src/../h/../h/../h/MemoryAllocator.hpp **** 
   6:src/../h/../h/../h/MemoryAllocator.hpp **** class MemoryAllocator{
   7:src/../h/../h/../h/MemoryAllocator.hpp **** public:
   8:src/../h/../h/../h/MemoryAllocator.hpp **** 
   9:src/../h/../h/../h/MemoryAllocator.hpp ****     // dodaj instancu
  10:src/../h/../h/../h/MemoryAllocator.hpp ****     static MemoryAllocator& getInstance(){
  11:src/../h/../h/../h/MemoryAllocator.hpp ****         static MemoryAllocator instance;
  40              		.loc 2 11 9
  41              		.loc 2 11 32 is_stmt 0
  42 0030 97070000 		lbu	a5,_ZGVZN15MemoryAllocator11getInstanceEvE8instance
  42      83C70700 
GAS LISTING /tmp/cc5RAsms.s 			page 2


  43 0038 638C0706 		beqz	a5,.L5
  44              	.L2:
  12:src/../h/../h/../h/MemoryAllocator.hpp ****         return instance;
  45              		.loc 2 12 9 is_stmt 1
  46              	.LBE17:
  47              	.LBE16:
  48              		.loc 1 4 79 is_stmt 0
  49 003c 83A50400 		lw	a1,0(s1)
  50              	.LVL1:
  51              		.loc 1 4 64
  52 0040 93952500 		slli	a1,a1,2
  53 0044 17050000 		lla	a0,_ZZN15MemoryAllocator11getInstanceEvE8instance
  53      13050500 
  54              	.LVL2:
  55 004c 97000000 		call	_ZN15MemoryAllocator12memory_allocEm@plt
  55      E7800000 
  56              	.LVL3:
  57              		.loc 1 4 12
  58 0054 23B4A400 		sd	a0,8(s1)
   5:src/my_buffer.cpp ****     MySemaphore::sem_open(&itemAvailable, 0);
  59              		.loc 1 5 5 is_stmt 1
  60              		.loc 1 5 26 is_stmt 0
  61 0058 93050000 		li	a1,0
  62 005c 13850402 		addi	a0,s1,32
  63 0060 97000000 		call	_ZN11MySemaphore8sem_openEPPS_m@plt
  63      E7800000 
  64              	.LVL4:
   6:src/my_buffer.cpp ****     MySemaphore::sem_open(&spaceAvailable, _cap);
  65              		.loc 1 6 5 is_stmt 1
  66              		.loc 1 6 26 is_stmt 0
  67 0068 93050900 		mv	a1,s2
  68 006c 13858401 		addi	a0,s1,24
  69 0070 97000000 		call	_ZN11MySemaphore8sem_openEPPS_m@plt
  69      E7800000 
  70              	.LVL5:
   7:src/my_buffer.cpp ****     MySemaphore::sem_open(&mutexHead, 1);
  71              		.loc 1 7 5 is_stmt 1
  72              		.loc 1 7 26 is_stmt 0
  73 0078 93051000 		li	a1,1
  74 007c 13858402 		addi	a0,s1,40
  75 0080 97000000 		call	_ZN11MySemaphore8sem_openEPPS_m@plt
  75      E7800000 
  76              	.LVL6:
   8:src/my_buffer.cpp ****     MySemaphore::sem_open(&mutexTail, 1);
  77              		.loc 1 8 5 is_stmt 1
  78              		.loc 1 8 26 is_stmt 0
  79 0088 93051000 		li	a1,1
  80 008c 13850403 		addi	a0,s1,48
  81 0090 97000000 		call	_ZN11MySemaphore8sem_openEPPS_m@plt
  81      E7800000 
  82              	.LVL7:
  83              	.LBE15:
   9:src/my_buffer.cpp **** }
  84              		.loc 1 9 1
  85 0098 83308101 		ld	ra,24(sp)
  86              		.cfi_remember_state
  87              		.cfi_restore 1
GAS LISTING /tmp/cc5RAsms.s 			page 3


  88 009c 03340101 		ld	s0,16(sp)
  89              		.cfi_restore 8
  90              		.cfi_def_cfa 2, 32
  91 00a0 83348100 		ld	s1,8(sp)
  92              		.cfi_restore 9
  93              	.LVL8:
  94 00a4 03390100 		ld	s2,0(sp)
  95              		.cfi_restore 18
  96 00a8 13010102 		addi	sp,sp,32
  97              		.cfi_def_cfa_offset 0
  98 00ac 67800000 		jr	ra
  99              	.LVL9:
 100              	.L5:
 101              		.cfi_restore_state
 102              	.LBB24:
 103              	.LBB23:
 104              	.LBB22:
 105              	.LBB18:
 106              	.LBB19:
 107              	.LBB20:
  13:src/../h/../h/../h/MemoryAllocator.hpp ****     }
  14:src/../h/../h/../h/MemoryAllocator.hpp **** 
  15:src/../h/../h/../h/MemoryAllocator.hpp ****     MemoryAllocator(const MemoryAllocator&) = delete;
  16:src/../h/../h/../h/MemoryAllocator.hpp ****     void operator=(MemoryAllocator const&) = delete;
  17:src/../h/../h/../h/MemoryAllocator.hpp **** 
  18:src/../h/../h/../h/MemoryAllocator.hpp ****     void* memory_alloc (size_t);
  19:src/../h/../h/../h/MemoryAllocator.hpp **** 
  20:src/../h/../h/../h/MemoryAllocator.hpp ****     int memory_free (void*);
  21:src/../h/../h/../h/MemoryAllocator.hpp ****     int get_mem_alloc_heap_start(){return this->heapStart;}
  22:src/../h/../h/../h/MemoryAllocator.hpp ****     int get_mem_alloc_heap_end(){return this->heapEnd;}
  23:src/../h/../h/../h/MemoryAllocator.hpp **** 
  24:src/../h/../h/../h/MemoryAllocator.hpp **** private:
  25:src/../h/../h/../h/MemoryAllocator.hpp **** 
  26:src/../h/../h/../h/MemoryAllocator.hpp ****     struct FreeMem{
  27:src/../h/../h/../h/MemoryAllocator.hpp ****         size_t size;
  28:src/../h/../h/../h/MemoryAllocator.hpp ****         FreeMem* next;
  29:src/../h/../h/../h/MemoryAllocator.hpp ****         FreeMem* prev;
  30:src/../h/../h/../h/MemoryAllocator.hpp ****     };
  31:src/../h/../h/../h/MemoryAllocator.hpp **** 
  32:src/../h/../h/../h/MemoryAllocator.hpp ****     FreeMem* fmem_head = nullptr;
  33:src/../h/../h/../h/MemoryAllocator.hpp ****     size_t heapStart;
  34:src/../h/../h/../h/MemoryAllocator.hpp ****     size_t heapEnd;
  35:src/../h/../h/../h/MemoryAllocator.hpp **** 
  36:src/../h/../h/../h/MemoryAllocator.hpp ****     MemoryAllocator(){
 108              		.loc 2 36 22
 109 00b0 17060000 		lla	a2,_ZZN15MemoryAllocator11getInstanceEvE8instance
 109      13060600 
 110              	.LBB21:
  37:src/../h/../h/../h/MemoryAllocator.hpp **** 
  38:src/../h/../h/../h/MemoryAllocator.hpp ****         heapStart = (size_t)HEAP_START_ADDR + ((size_t)HEAP_END_ADDR - (size_t)HEAP_START_ADDR) / 8
 111              		.loc 2 38 9 is_stmt 1
 112              		.loc 2 38 70 is_stmt 0
 113 00b8 97070000 		la	a5,HEAP_END_ADDR
 113      83B70700 
 114 00c0 03B70700 		ld	a4,0(a5)
 115 00c4 97070000 		la	a5,HEAP_START_ADDR
 115      83B70700 
GAS LISTING /tmp/cc5RAsms.s 			page 4


 116 00cc 83B70700 		ld	a5,0(a5)
 117 00d0 B306F740 		sub	a3,a4,a5
 118              		.loc 2 38 97
 119 00d4 93D63600 		srli	a3,a3,3
 120              		.loc 2 38 45
 121 00d8 B387D700 		add	a5,a5,a3
 122              		.loc 2 38 101
 123 00dc 93871700 		addi	a5,a5,1
 124              		.loc 2 38 19
 125 00e0 2334F600 		sd	a5,8(a2)
  39:src/../h/../h/../h/MemoryAllocator.hpp ****         heapEnd = (size_t)HEAP_END_ADDR - 1;
 126              		.loc 2 39 9 is_stmt 1
 127              		.loc 2 39 41 is_stmt 0
 128 00e4 1307F7FF 		addi	a4,a4,-1
 129              		.loc 2 39 17
 130 00e8 2338E600 		sd	a4,16(a2)
  40:src/../h/../h/../h/MemoryAllocator.hpp **** 
  41:src/../h/../h/../h/MemoryAllocator.hpp ****         // poravnaj na prvu krstenu adresu
  42:src/../h/../h/../h/MemoryAllocator.hpp ****         fmem_head = (FreeMem*)(heapStart + ((heapStart % MEM_BLOCK_SIZE != 0)?(MEM_BLOCK_SIZE - hea
 131              		.loc 2 42 9 is_stmt 1
 132              		.loc 2 42 56 is_stmt 0
 133 00ec 93F6F703 		andi	a3,a5,63
 134              		.loc 2 42 78
 135 00f0 63860600 		beqz	a3,.L3
 136 00f4 13060004 		li	a2,64
 137 00f8 B306D640 		sub	a3,a2,a3
 138              	.L3:
 139              		.loc 2 42 42
 140 00fc B387D700 		add	a5,a5,a3
 141              		.loc 2 42 19
 142 0100 97060000 		sd	a5,_ZZN15MemoryAllocator11getInstanceEvE8instance,a3
 142      23B0F600 
  43:src/../h/../h/../h/MemoryAllocator.hpp **** 
  44:src/../h/../h/../h/MemoryAllocator.hpp ****         size_t sizeInBlocks = (heapEnd - (size_t)fmem_head) / MEM_BLOCK_SIZE;
 143              		.loc 2 44 9 is_stmt 1
 144              		.loc 2 44 40 is_stmt 0
 145 0108 3307F740 		sub	a4,a4,a5
 146              		.loc 2 44 16
 147 010c 13576700 		srli	a4,a4,6
 148              	.LVL10:
  45:src/../h/../h/../h/MemoryAllocator.hpp **** 
  46:src/../h/../h/../h/MemoryAllocator.hpp ****         // napravi node
  47:src/../h/../h/../h/MemoryAllocator.hpp **** 
  48:src/../h/../h/../h/MemoryAllocator.hpp ****         fmem_head->next = nullptr;
 149              		.loc 2 48 9 is_stmt 1
 150              		.loc 2 48 25 is_stmt 0
 151 0110 23B40700 		sd	zero,8(a5)
  49:src/../h/../h/../h/MemoryAllocator.hpp ****         fmem_head->prev = nullptr;
 152              		.loc 2 49 9 is_stmt 1
 153              		.loc 2 49 25 is_stmt 0
 154 0114 23B80700 		sd	zero,16(a5)
  50:src/../h/../h/../h/MemoryAllocator.hpp ****         fmem_head->size = sizeInBlocks;
 155              		.loc 2 50 9 is_stmt 1
 156              		.loc 2 50 25 is_stmt 0
 157 0118 23B0E700 		sd	a4,0(a5)
 158              	.LVL11:
 159              	.LBE21:
GAS LISTING /tmp/cc5RAsms.s 			page 5


 160              	.LBE20:
 161              	.LBE19:
 162              	.LBE18:
  11:src/../h/../h/../h/MemoryAllocator.hpp ****         return instance;
 163              		.loc 2 11 32
 164 011c 93071000 		li	a5,1
 165 0120 17070000 		sb	a5,_ZGVZN15MemoryAllocator11getInstanceEvE8instance,a4
 165      2300F700 
 166 0128 6FF05FF1 		j	.L2
 167              	.LBE22:
 168              	.LBE23:
 169              	.LBE24:
 170              		.cfi_endproc
 171              	.LFE22:
 173              		.globl	_ZN8MyBufferC1Ei
 174              		.set	_ZN8MyBufferC1Ei,_ZN8MyBufferC2Ei
 175              		.align	2
 176              		.globl	_ZN8MyBufferD2Ev
 178              	_ZN8MyBufferD2Ev:
 179              	.LFB25:
  10:src/my_buffer.cpp **** 
  11:src/my_buffer.cpp **** MyBuffer::~MyBuffer() {
 180              		.loc 1 11 1 is_stmt 1
 181              		.cfi_startproc
 182              		.cfi_personality 0x9b,DW.ref.__gxx_personality_v0
 183              		.cfi_lsda 0x1b,.LLSDA25
 184              	.LVL12:
 185 012c 130101FE 		addi	sp,sp,-32
 186              		.cfi_def_cfa_offset 32
 187 0130 233C1100 		sd	ra,24(sp)
 188 0134 23388100 		sd	s0,16(sp)
 189 0138 23349100 		sd	s1,8(sp)
 190              		.cfi_offset 1, -8
 191              		.cfi_offset 8, -16
 192              		.cfi_offset 9, -24
 193 013c 13040102 		addi	s0,sp,32
 194              		.cfi_def_cfa 8, 0
 195 0140 93040500 		mv	s1,a0
 196              	.LBB32:
  12:src/my_buffer.cpp ****     MemoryAllocator::getInstance().memory_free((void*)buffer);
 197              		.loc 1 12 5
 198              	.LBB33:
 199              	.LBB34:
  11:src/../h/../h/../h/MemoryAllocator.hpp ****         return instance;
 200              		.loc 2 11 9
  11:src/../h/../h/../h/MemoryAllocator.hpp ****         return instance;
 201              		.loc 2 11 32 is_stmt 0
 202 0144 97070000 		lbu	a5,_ZGVZN15MemoryAllocator11getInstanceEvE8instance
 202      83C70700 
 203 014c 638E0704 		beqz	a5,.L10
 204              	.L7:
  12:src/../h/../h/../h/MemoryAllocator.hpp ****     }
 205              		.loc 2 12 9 is_stmt 1
 206              	.LBE34:
 207              	.LBE33:
 208              		.loc 1 12 47 is_stmt 0
 209 0150 83B58400 		ld	a1,8(s1)
GAS LISTING /tmp/cc5RAsms.s 			page 6


 210 0154 17050000 		lla	a0,_ZZN15MemoryAllocator11getInstanceEvE8instance
 210      13050500 
 211              	.LVL13:
 212 015c 97000000 		call	_ZN15MemoryAllocator11memory_freeEPv@plt
 212      E7800000 
 213              	.LVL14:
  13:src/my_buffer.cpp ****     MySemaphore::sem_close(itemAvailable);
 214              		.loc 1 13 5 is_stmt 1
 215              		.loc 1 13 27 is_stmt 0
 216 0164 03B50402 		ld	a0,32(s1)
 217 0168 97000000 		call	_ZN11MySemaphore9sem_closeEPS_@plt
 217      E7800000 
 218              	.LVL15:
  14:src/my_buffer.cpp ****     MySemaphore::sem_close(spaceAvailable);
 219              		.loc 1 14 5 is_stmt 1
 220              		.loc 1 14 27 is_stmt 0
 221 0170 03B58401 		ld	a0,24(s1)
 222 0174 97000000 		call	_ZN11MySemaphore9sem_closeEPS_@plt
 222      E7800000 
 223              	.LVL16:
  15:src/my_buffer.cpp ****     MySemaphore::sem_close(mutexTail);
 224              		.loc 1 15 5 is_stmt 1
 225              		.loc 1 15 27 is_stmt 0
 226 017c 03B50403 		ld	a0,48(s1)
 227 0180 97000000 		call	_ZN11MySemaphore9sem_closeEPS_@plt
 227      E7800000 
 228              	.LVL17:
  16:src/my_buffer.cpp ****     MySemaphore::sem_close(mutexHead);
 229              		.loc 1 16 5 is_stmt 1
 230              		.loc 1 16 27 is_stmt 0
 231 0188 03B58402 		ld	a0,40(s1)
 232 018c 97000000 		call	_ZN11MySemaphore9sem_closeEPS_@plt
 232      E7800000 
 233              	.LVL18:
 234              	.LBE32:
  17:src/my_buffer.cpp **** }
 235              		.loc 1 17 1
 236 0194 83308101 		ld	ra,24(sp)
 237              		.cfi_remember_state
 238              		.cfi_restore 1
 239 0198 03340101 		ld	s0,16(sp)
 240              		.cfi_restore 8
 241              		.cfi_def_cfa 2, 32
 242 019c 83348100 		ld	s1,8(sp)
 243              		.cfi_restore 9
 244              	.LVL19:
 245 01a0 13010102 		addi	sp,sp,32
 246              		.cfi_def_cfa_offset 0
 247 01a4 67800000 		jr	ra
 248              	.LVL20:
 249              	.L10:
 250              		.cfi_restore_state
 251              	.LBB41:
 252              	.LBB40:
 253              	.LBB39:
 254              	.LBB35:
 255              	.LBB36:
GAS LISTING /tmp/cc5RAsms.s 			page 7


 256              	.LBB37:
  36:src/../h/../h/../h/MemoryAllocator.hpp **** 
 257              		.loc 2 36 22
 258 01a8 17060000 		lla	a2,_ZZN15MemoryAllocator11getInstanceEvE8instance
 258      13060600 
 259              	.LBB38:
  38:src/../h/../h/../h/MemoryAllocator.hpp ****         heapEnd = (size_t)HEAP_END_ADDR - 1;
 260              		.loc 2 38 9 is_stmt 1
  38:src/../h/../h/../h/MemoryAllocator.hpp ****         heapEnd = (size_t)HEAP_END_ADDR - 1;
 261              		.loc 2 38 70 is_stmt 0
 262 01b0 97070000 		la	a5,HEAP_END_ADDR
 262      83B70700 
 263 01b8 03B70700 		ld	a4,0(a5)
 264 01bc 97070000 		la	a5,HEAP_START_ADDR
 264      83B70700 
 265 01c4 83B70700 		ld	a5,0(a5)
 266 01c8 B306F740 		sub	a3,a4,a5
  38:src/../h/../h/../h/MemoryAllocator.hpp ****         heapEnd = (size_t)HEAP_END_ADDR - 1;
 267              		.loc 2 38 97
 268 01cc 93D63600 		srli	a3,a3,3
  38:src/../h/../h/../h/MemoryAllocator.hpp ****         heapEnd = (size_t)HEAP_END_ADDR - 1;
 269              		.loc 2 38 45
 270 01d0 B387D700 		add	a5,a5,a3
  38:src/../h/../h/../h/MemoryAllocator.hpp ****         heapEnd = (size_t)HEAP_END_ADDR - 1;
 271              		.loc 2 38 101
 272 01d4 93871700 		addi	a5,a5,1
  38:src/../h/../h/../h/MemoryAllocator.hpp ****         heapEnd = (size_t)HEAP_END_ADDR - 1;
 273              		.loc 2 38 19
 274 01d8 2334F600 		sd	a5,8(a2)
  39:src/../h/../h/../h/MemoryAllocator.hpp **** 
 275              		.loc 2 39 9 is_stmt 1
  39:src/../h/../h/../h/MemoryAllocator.hpp **** 
 276              		.loc 2 39 41 is_stmt 0
 277 01dc 1307F7FF 		addi	a4,a4,-1
  39:src/../h/../h/../h/MemoryAllocator.hpp **** 
 278              		.loc 2 39 17
 279 01e0 2338E600 		sd	a4,16(a2)
  42:src/../h/../h/../h/MemoryAllocator.hpp **** 
 280              		.loc 2 42 9 is_stmt 1
  42:src/../h/../h/../h/MemoryAllocator.hpp **** 
 281              		.loc 2 42 56 is_stmt 0
 282 01e4 93F6F703 		andi	a3,a5,63
  42:src/../h/../h/../h/MemoryAllocator.hpp **** 
 283              		.loc 2 42 78
 284 01e8 63860600 		beqz	a3,.L8
 285 01ec 13060004 		li	a2,64
 286 01f0 B306D640 		sub	a3,a2,a3
 287              	.L8:
  42:src/../h/../h/../h/MemoryAllocator.hpp **** 
 288              		.loc 2 42 42
 289 01f4 B387D700 		add	a5,a5,a3
  42:src/../h/../h/../h/MemoryAllocator.hpp **** 
 290              		.loc 2 42 19
 291 01f8 97060000 		sd	a5,_ZZN15MemoryAllocator11getInstanceEvE8instance,a3
 291      23B0F600 
  44:src/../h/../h/../h/MemoryAllocator.hpp **** 
 292              		.loc 2 44 9 is_stmt 1
GAS LISTING /tmp/cc5RAsms.s 			page 8


  44:src/../h/../h/../h/MemoryAllocator.hpp **** 
 293              		.loc 2 44 40 is_stmt 0
 294 0200 3307F740 		sub	a4,a4,a5
  44:src/../h/../h/../h/MemoryAllocator.hpp **** 
 295              		.loc 2 44 16
 296 0204 13576700 		srli	a4,a4,6
 297              	.LVL21:
  48:src/../h/../h/../h/MemoryAllocator.hpp ****         fmem_head->prev = nullptr;
 298              		.loc 2 48 9 is_stmt 1
  48:src/../h/../h/../h/MemoryAllocator.hpp ****         fmem_head->prev = nullptr;
 299              		.loc 2 48 25 is_stmt 0
 300 0208 23B40700 		sd	zero,8(a5)
  49:src/../h/../h/../h/MemoryAllocator.hpp ****         fmem_head->size = sizeInBlocks;
 301              		.loc 2 49 9 is_stmt 1
  49:src/../h/../h/../h/MemoryAllocator.hpp ****         fmem_head->size = sizeInBlocks;
 302              		.loc 2 49 25 is_stmt 0
 303 020c 23B80700 		sd	zero,16(a5)
 304              		.loc 2 50 9 is_stmt 1
 305              		.loc 2 50 25 is_stmt 0
 306 0210 23B0E700 		sd	a4,0(a5)
 307              	.LVL22:
 308              	.LBE38:
 309              	.LBE37:
 310              	.LBE36:
 311              	.LBE35:
  11:src/../h/../h/../h/MemoryAllocator.hpp ****         return instance;
 312              		.loc 2 11 32
 313 0214 93071000 		li	a5,1
 314 0218 17070000 		sb	a5,_ZGVZN15MemoryAllocator11getInstanceEvE8instance,a4
 314      2300F700 
 315 0220 6FF01FF3 		j	.L7
 316              	.LBE39:
 317              	.LBE40:
 318              	.LBE41:
 319              		.cfi_endproc
 320              	.LFE25:
 321              		.globl	__gxx_personality_v0
 322              		.section	.gcc_except_table,"a",@progbits
 323              	.LLSDA25:
 324 0000 FF       		.byte	0xff
 325 0001 FF       		.byte	0xff
 326 0002 03       		.byte	0x3
 327 0003 00       		.byte	0
 328              		.text
 330              		.globl	_ZN8MyBufferD1Ev
 331              		.set	_ZN8MyBufferD1Ev,_ZN8MyBufferD2Ev
 332              		.align	2
 333              		.globl	_ZN8MyBuffer3putEi
 335              	_ZN8MyBuffer3putEi:
 336              	.LFB27:
  18:src/my_buffer.cpp **** 
  19:src/my_buffer.cpp **** void MyBuffer::put(int val) {
 337              		.loc 1 19 29 is_stmt 1
 338              		.cfi_startproc
 339              	.LVL23:
 340 0224 130101FE 		addi	sp,sp,-32
 341              		.cfi_def_cfa_offset 32
GAS LISTING /tmp/cc5RAsms.s 			page 9


 342 0228 233C1100 		sd	ra,24(sp)
 343 022c 23388100 		sd	s0,16(sp)
 344 0230 23349100 		sd	s1,8(sp)
 345 0234 23302101 		sd	s2,0(sp)
 346              		.cfi_offset 1, -8
 347              		.cfi_offset 8, -16
 348              		.cfi_offset 9, -24
 349              		.cfi_offset 18, -32
 350 0238 13040102 		addi	s0,sp,32
 351              		.cfi_def_cfa 8, 0
 352 023c 93040500 		mv	s1,a0
 353 0240 13890500 		mv	s2,a1
  20:src/my_buffer.cpp ****     MySemaphore::sem_wait(spaceAvailable);
 354              		.loc 1 20 5
 355              		.loc 1 20 26 is_stmt 0
 356 0244 03358501 		ld	a0,24(a0)
 357              	.LVL24:
 358 0248 97000000 		call	_ZN11MySemaphore8sem_waitEPS_@plt
 358      E7800000 
 359              	.LVL25:
  21:src/my_buffer.cpp **** 
  22:src/my_buffer.cpp ****     MySemaphore::sem_wait(mutexTail);
 360              		.loc 1 22 5 is_stmt 1
 361              		.loc 1 22 26 is_stmt 0
 362 0250 03B50403 		ld	a0,48(s1)
 363 0254 97000000 		call	_ZN11MySemaphore8sem_waitEPS_@plt
 363      E7800000 
 364              	.LVL26:
  23:src/my_buffer.cpp ****     buffer[tail] = val;
 365              		.loc 1 23 5 is_stmt 1
 366 025c 83B78400 		ld	a5,8(s1)
 367              		.loc 1 23 12 is_stmt 0
 368 0260 03A74401 		lw	a4,20(s1)
 369              		.loc 1 23 16
 370 0264 13172700 		slli	a4,a4,2
 371 0268 B387E700 		add	a5,a5,a4
 372              		.loc 1 23 18
 373 026c 23A02701 		sw	s2,0(a5)
  24:src/my_buffer.cpp ****     tail = (tail + 1) % cap;
 374              		.loc 1 24 5 is_stmt 1
 375              		.loc 1 24 13 is_stmt 0
 376 0270 83A74401 		lw	a5,20(s1)
 377              		.loc 1 24 18
 378 0274 9B871700 		addiw	a5,a5,1
 379              		.loc 1 24 25
 380 0278 03A70400 		lw	a4,0(s1)
 381              		.loc 1 24 23
 382 027c BBE7E702 		remw	a5,a5,a4
 383              		.loc 1 24 10
 384 0280 23AAF400 		sw	a5,20(s1)
  25:src/my_buffer.cpp ****     MySemaphore::sem_signal(mutexTail);
 385              		.loc 1 25 5 is_stmt 1
 386              		.loc 1 25 28 is_stmt 0
 387 0284 03B50403 		ld	a0,48(s1)
 388 0288 97000000 		call	_ZN11MySemaphore10sem_signalEPS_@plt
 388      E7800000 
 389              	.LVL27:
GAS LISTING /tmp/cc5RAsms.s 			page 10


  26:src/my_buffer.cpp **** 
  27:src/my_buffer.cpp ****     MySemaphore::sem_signal(itemAvailable);
 390              		.loc 1 27 5 is_stmt 1
 391              		.loc 1 27 28 is_stmt 0
 392 0290 03B50402 		ld	a0,32(s1)
 393 0294 97000000 		call	_ZN11MySemaphore10sem_signalEPS_@plt
 393      E7800000 
 394              	.LVL28:
  28:src/my_buffer.cpp **** 
  29:src/my_buffer.cpp **** }
 395              		.loc 1 29 1
 396 029c 83308101 		ld	ra,24(sp)
 397              		.cfi_restore 1
 398 02a0 03340101 		ld	s0,16(sp)
 399              		.cfi_restore 8
 400              		.cfi_def_cfa 2, 32
 401 02a4 83348100 		ld	s1,8(sp)
 402              		.cfi_restore 9
 403              	.LVL29:
 404 02a8 03390100 		ld	s2,0(sp)
 405              		.cfi_restore 18
 406 02ac 13010102 		addi	sp,sp,32
 407              		.cfi_def_cfa_offset 0
 408 02b0 67800000 		jr	ra
 409              		.cfi_endproc
 410              	.LFE27:
 412              		.align	2
 413              		.globl	_ZN8MyBuffer3getEv
 415              	_ZN8MyBuffer3getEv:
 416              	.LFB28:
  30:src/my_buffer.cpp **** 
  31:src/my_buffer.cpp **** int MyBuffer::get() {
 417              		.loc 1 31 21 is_stmt 1
 418              		.cfi_startproc
 419              	.LVL30:
 420 02b4 130101FE 		addi	sp,sp,-32
 421              		.cfi_def_cfa_offset 32
 422 02b8 233C1100 		sd	ra,24(sp)
 423 02bc 23388100 		sd	s0,16(sp)
 424 02c0 23349100 		sd	s1,8(sp)
 425 02c4 23302101 		sd	s2,0(sp)
 426              		.cfi_offset 1, -8
 427              		.cfi_offset 8, -16
 428              		.cfi_offset 9, -24
 429              		.cfi_offset 18, -32
 430 02c8 13040102 		addi	s0,sp,32
 431              		.cfi_def_cfa 8, 0
 432 02cc 93040500 		mv	s1,a0
  32:src/my_buffer.cpp ****     MySemaphore::sem_wait(itemAvailable);
 433              		.loc 1 32 5
 434              		.loc 1 32 26 is_stmt 0
 435 02d0 03350502 		ld	a0,32(a0)
 436              	.LVL31:
 437 02d4 97000000 		call	_ZN11MySemaphore8sem_waitEPS_@plt
 437      E7800000 
 438              	.LVL32:
  33:src/my_buffer.cpp **** 
GAS LISTING /tmp/cc5RAsms.s 			page 11


  34:src/my_buffer.cpp ****     MySemaphore::sem_wait(mutexHead);
 439              		.loc 1 34 5 is_stmt 1
 440              		.loc 1 34 26 is_stmt 0
 441 02dc 03B58402 		ld	a0,40(s1)
 442 02e0 97000000 		call	_ZN11MySemaphore8sem_waitEPS_@plt
 442      E7800000 
 443              	.LVL33:
  35:src/my_buffer.cpp **** 
  36:src/my_buffer.cpp ****     int ret = buffer[head];
 444              		.loc 1 36 5 is_stmt 1
 445              		.loc 1 36 15 is_stmt 0
 446 02e8 03B78400 		ld	a4,8(s1)
 447              		.loc 1 36 22
 448 02ec 83A70401 		lw	a5,16(s1)
 449              		.loc 1 36 26
 450 02f0 93962700 		slli	a3,a5,2
 451 02f4 3307D700 		add	a4,a4,a3
 452              		.loc 1 36 9
 453 02f8 03290700 		lw	s2,0(a4)
 454              	.LVL34:
  37:src/my_buffer.cpp ****     head = (head + 1) % cap;
 455              		.loc 1 37 5 is_stmt 1
 456              		.loc 1 37 18 is_stmt 0
 457 02fc 9B871700 		addiw	a5,a5,1
 458              		.loc 1 37 25
 459 0300 03A70400 		lw	a4,0(s1)
 460              		.loc 1 37 23
 461 0304 BBE7E702 		remw	a5,a5,a4
 462              		.loc 1 37 10
 463 0308 23A8F400 		sw	a5,16(s1)
  38:src/my_buffer.cpp ****     MySemaphore::sem_signal(mutexHead);
 464              		.loc 1 38 5 is_stmt 1
 465              		.loc 1 38 28 is_stmt 0
 466 030c 03B58402 		ld	a0,40(s1)
 467 0310 97000000 		call	_ZN11MySemaphore10sem_signalEPS_@plt
 467      E7800000 
 468              	.LVL35:
  39:src/my_buffer.cpp **** 
  40:src/my_buffer.cpp ****     MySemaphore::sem_signal(spaceAvailable);
 469              		.loc 1 40 5 is_stmt 1
 470              		.loc 1 40 28 is_stmt 0
 471 0318 03B58401 		ld	a0,24(s1)
 472 031c 97000000 		call	_ZN11MySemaphore10sem_signalEPS_@plt
 472      E7800000 
 473              	.LVL36:
  41:src/my_buffer.cpp **** 
  42:src/my_buffer.cpp ****     return ret;
 474              		.loc 1 42 5 is_stmt 1
  43:src/my_buffer.cpp **** }
 475              		.loc 1 43 1 is_stmt 0
 476 0324 13050900 		mv	a0,s2
 477 0328 83308101 		ld	ra,24(sp)
 478              		.cfi_restore 1
 479 032c 03340101 		ld	s0,16(sp)
 480              		.cfi_restore 8
 481              		.cfi_def_cfa 2, 32
 482 0330 83348100 		ld	s1,8(sp)
GAS LISTING /tmp/cc5RAsms.s 			page 12


 483              		.cfi_restore 9
 484              	.LVL37:
 485 0334 03390100 		ld	s2,0(sp)
 486              		.cfi_restore 18
 487              	.LVL38:
 488 0338 13010102 		addi	sp,sp,32
 489              		.cfi_def_cfa_offset 0
 490 033c 67800000 		jr	ra
 491              		.cfi_endproc
 492              	.LFE28:
 494              		.align	2
 495              		.globl	_ZN8MyBuffer6getCntEv
 497              	_ZN8MyBuffer6getCntEv:
 498              	.LFB29:
  44:src/my_buffer.cpp **** 
  45:src/my_buffer.cpp **** int MyBuffer::getCnt() {
 499              		.loc 1 45 24 is_stmt 1
 500              		.cfi_startproc
 501              	.LVL39:
 502 0340 130101FE 		addi	sp,sp,-32
 503              		.cfi_def_cfa_offset 32
 504 0344 233C1100 		sd	ra,24(sp)
 505 0348 23388100 		sd	s0,16(sp)
 506 034c 23349100 		sd	s1,8(sp)
 507 0350 23302101 		sd	s2,0(sp)
 508              		.cfi_offset 1, -8
 509              		.cfi_offset 8, -16
 510              		.cfi_offset 9, -24
 511              		.cfi_offset 18, -32
 512 0354 13040102 		addi	s0,sp,32
 513              		.cfi_def_cfa 8, 0
 514 0358 93040500 		mv	s1,a0
  46:src/my_buffer.cpp ****     int ret;
 515              		.loc 1 46 5
  47:src/my_buffer.cpp **** 
  48:src/my_buffer.cpp ****     MySemaphore::sem_wait(mutexHead);
 516              		.loc 1 48 5
 517              		.loc 1 48 26 is_stmt 0
 518 035c 03358502 		ld	a0,40(a0)
 519              	.LVL40:
 520 0360 97000000 		call	_ZN11MySemaphore8sem_waitEPS_@plt
 520      E7800000 
 521              	.LVL41:
  49:src/my_buffer.cpp ****     MySemaphore::sem_wait(mutexTail);
 522              		.loc 1 49 5 is_stmt 1
 523              		.loc 1 49 26 is_stmt 0
 524 0368 03B50403 		ld	a0,48(s1)
 525 036c 97000000 		call	_ZN11MySemaphore8sem_waitEPS_@plt
 525      E7800000 
 526              	.LVL42:
  50:src/my_buffer.cpp **** 
  51:src/my_buffer.cpp ****     if (tail >= head) {
 527              		.loc 1 51 5 is_stmt 1
 528              		.loc 1 51 9 is_stmt 0
 529 0374 83A74401 		lw	a5,20(s1)
 530              		.loc 1 51 17
 531 0378 03A90401 		lw	s2,16(s1)
GAS LISTING /tmp/cc5RAsms.s 			page 13


 532              		.loc 1 51 5
 533 037c 63CE2703 		blt	a5,s2,.L16
  52:src/my_buffer.cpp ****         ret = tail - head;
 534              		.loc 1 52 9 is_stmt 1
 535              		.loc 1 52 13 is_stmt 0
 536 0380 3B892741 		subw	s2,a5,s2
 537              	.LVL43:
 538              	.L17:
  53:src/my_buffer.cpp ****     } else {
  54:src/my_buffer.cpp ****         ret = cap - head + tail;
  55:src/my_buffer.cpp ****     }
  56:src/my_buffer.cpp **** 
  57:src/my_buffer.cpp ****     MySemaphore::sem_signal(mutexTail);
 539              		.loc 1 57 5 is_stmt 1
 540              		.loc 1 57 28 is_stmt 0
 541 0384 03B50403 		ld	a0,48(s1)
 542 0388 97000000 		call	_ZN11MySemaphore10sem_signalEPS_@plt
 542      E7800000 
 543              	.LVL44:
  58:src/my_buffer.cpp ****     MySemaphore::sem_signal(mutexHead);
 544              		.loc 1 58 5 is_stmt 1
 545              		.loc 1 58 28 is_stmt 0
 546 0390 03B58402 		ld	a0,40(s1)
 547 0394 97000000 		call	_ZN11MySemaphore10sem_signalEPS_@plt
 547      E7800000 
 548              	.LVL45:
  59:src/my_buffer.cpp **** 
  60:src/my_buffer.cpp ****     return ret;
 549              		.loc 1 60 5 is_stmt 1
  61:src/my_buffer.cpp **** }
 550              		.loc 1 61 1 is_stmt 0
 551 039c 13050900 		mv	a0,s2
 552 03a0 83308101 		ld	ra,24(sp)
 553              		.cfi_remember_state
 554              		.cfi_restore 1
 555 03a4 03340101 		ld	s0,16(sp)
 556              		.cfi_restore 8
 557              		.cfi_def_cfa 2, 32
 558 03a8 83348100 		ld	s1,8(sp)
 559              		.cfi_restore 9
 560              	.LVL46:
 561 03ac 03390100 		ld	s2,0(sp)
 562              		.cfi_restore 18
 563              	.LVL47:
 564 03b0 13010102 		addi	sp,sp,32
 565              		.cfi_def_cfa_offset 0
 566 03b4 67800000 		jr	ra
 567              	.LVL48:
 568              	.L16:
 569              		.cfi_restore_state
  54:src/my_buffer.cpp ****     }
 570              		.loc 1 54 9 is_stmt 1
  54:src/my_buffer.cpp ****     }
 571              		.loc 1 54 15 is_stmt 0
 572 03b8 03A70400 		lw	a4,0(s1)
  54:src/my_buffer.cpp ****     }
 573              		.loc 1 54 19
GAS LISTING /tmp/cc5RAsms.s 			page 14


 574 03bc 3B092741 		subw	s2,a4,s2
  54:src/my_buffer.cpp ****     }
 575              		.loc 1 54 13
 576 03c0 3B09F900 		addw	s2,s2,a5
 577 03c4 6FF01FFC 		j	.L17
 578              		.cfi_endproc
 579              	.LFE29:
 581              		.weak	_ZGVZN15MemoryAllocator11getInstanceEvE8instance
 582              		.section	.bss._ZGVZN15MemoryAllocator11getInstanceEvE8instance,"awG",@nobits,_ZGVZN15MemoryAllocat
 583              		.align	3
 586              	_ZGVZN15MemoryAllocator11getInstanceEvE8instance:
 587 0000 00000000 		.zero	8
 587      00000000 
 588              		.weak	_ZZN15MemoryAllocator11getInstanceEvE8instance
 589              		.section	.bss._ZZN15MemoryAllocator11getInstanceEvE8instance,"awG",@nobits,_ZZN15MemoryAllocator11
 590              		.align	3
 593              	_ZZN15MemoryAllocator11getInstanceEvE8instance:
 594 0000 00000000 		.zero	24
 594      00000000 
 594      00000000 
 594      00000000 
 594      00000000 
 595              		.text
 596              	.Letext0:
 597              		.file 3 "src/../h/../h/../lib/hw.h"
 598              		.file 4 "src/../h/../h/semaphore.hpp"
 599              		.file 5 "src/../h/my_buffer.hpp"
 3044              		.align	3
 3047              	DW.ref.__gxx_personality_v0:
 3048 0000 00000000 		.dword	__gxx_personality_v0
 3048      00000000 
 3049              		.ident	"GCC: (Ubuntu 9.4.0-1ubuntu1~20.04) 9.4.0"
 3050              		.section	.note.GNU-stack,"",@progbits
GAS LISTING /tmp/cc5RAsms.s 			page 15

