GAS LISTING /tmp/ccHqBDKf.s 			page 1


   1              		.file	"my_buffer.cpp"
   2              		.option pic
   3              		.option norelax
   4              		.text
   5              	.Ltext0:
   6              		.align	2
   7              		.globl	_ZN8MyBufferC2Ei
   9              	_ZN8MyBufferC2Ei:
  10              	.LFB20:
  11              		.file 1 "src/my_buffer.cpp"
   1:src/my_buffer.cpp **** #include "../h/my_buffer.hpp"
   2:src/my_buffer.cpp **** 
   3:src/my_buffer.cpp **** MyBuffer::MyBuffer(int _cap) : cap(_cap + 1), head(0), tail(0) {
  12              		.loc 1 3 1
  13              		.cfi_startproc
  14              	.LVL0:
  15 0000 130101FE 		addi	sp,sp,-32
  16              		.cfi_def_cfa_offset 32
  17 0004 233C1100 		sd	ra,24(sp)
  18 0008 23388100 		sd	s0,16(sp)
  19 000c 23349100 		sd	s1,8(sp)
  20 0010 23302101 		sd	s2,0(sp)
  21              		.cfi_offset 1, -8
  22              		.cfi_offset 8, -16
  23              		.cfi_offset 9, -24
  24              		.cfi_offset 18, -32
  25 0014 13040102 		addi	s0,sp,32
  26              		.cfi_def_cfa 8, 0
  27 0018 93040500 		mv	s1,a0
  28 001c 13890500 		mv	s2,a1
  29              	.LBB12:
  30              		.loc 1 3 41 is_stmt 0
  31 0020 9B871500 		addiw	a5,a1,1
  32              		.loc 1 3 62
  33 0024 2320F500 		sw	a5,0(a0)
  34 0028 23280500 		sw	zero,16(a0)
  35 002c 232A0500 		sw	zero,20(a0)
   4:src/my_buffer.cpp ****     buffer = (int *)MemoryAllocator::getInstance().memory_alloc(sizeof(int) * cap);
  36              		.loc 1 4 5 is_stmt 1
  37              	.LBB13:
  38              	.LBB14:
  39              		.file 2 "src/../h/../h/../h/MemoryAllocator.hpp"
   1:src/../h/../h/../h/MemoryAllocator.hpp **** #ifndef _memory_allocator_hpp_
   2:src/../h/../h/../h/MemoryAllocator.hpp **** #define _memory_allocator_hpp_
   3:src/../h/../h/../h/MemoryAllocator.hpp **** 
   4:src/../h/../h/../h/MemoryAllocator.hpp **** #include "../lib/hw.h"
   5:src/../h/../h/../h/MemoryAllocator.hpp **** 
   6:src/../h/../h/../h/MemoryAllocator.hpp **** class MemoryAllocator{
   7:src/../h/../h/../h/MemoryAllocator.hpp **** public:
   8:src/../h/../h/../h/MemoryAllocator.hpp **** 
   9:src/../h/../h/../h/MemoryAllocator.hpp ****     // dodaj instancu
  10:src/../h/../h/../h/MemoryAllocator.hpp ****     static MemoryAllocator& getInstance(){
  11:src/../h/../h/../h/MemoryAllocator.hpp ****         static MemoryAllocator instance;
  40              		.loc 2 11 9
  41              		.loc 2 11 32 is_stmt 0
  42 0030 97070000 		lbu	a5,_ZGVZN15MemoryAllocator11getInstanceEvE8instance
  42      83C70700 
GAS LISTING /tmp/ccHqBDKf.s 			page 2


  43 0038 639E0704 		bnez	a5,.L2
  44              	.LVL1:
  45              	.LBB15:
  46              	.LBB16:
  47              	.LBB17:
  12:src/../h/../h/../h/MemoryAllocator.hpp ****         return instance;
  13:src/../h/../h/../h/MemoryAllocator.hpp ****     }
  14:src/../h/../h/../h/MemoryAllocator.hpp **** 
  15:src/../h/../h/../h/MemoryAllocator.hpp ****     MemoryAllocator(const MemoryAllocator&) = delete;
  16:src/../h/../h/../h/MemoryAllocator.hpp ****     void operator=(MemoryAllocator const&) = delete;
  17:src/../h/../h/../h/MemoryAllocator.hpp **** 
  18:src/../h/../h/../h/MemoryAllocator.hpp ****     void* memory_alloc (size_t);
  19:src/../h/../h/../h/MemoryAllocator.hpp **** 
  20:src/../h/../h/../h/MemoryAllocator.hpp ****     int memory_free (void*);
  21:src/../h/../h/../h/MemoryAllocator.hpp **** 
  22:src/../h/../h/../h/MemoryAllocator.hpp **** private:
  23:src/../h/../h/../h/MemoryAllocator.hpp **** 
  24:src/../h/../h/../h/MemoryAllocator.hpp ****     struct FreeMem{
  25:src/../h/../h/../h/MemoryAllocator.hpp ****         size_t size;
  26:src/../h/../h/../h/MemoryAllocator.hpp ****         FreeMem* next;
  27:src/../h/../h/../h/MemoryAllocator.hpp ****         FreeMem* prev;
  28:src/../h/../h/../h/MemoryAllocator.hpp ****     };
  29:src/../h/../h/../h/MemoryAllocator.hpp **** 
  30:src/../h/../h/../h/MemoryAllocator.hpp ****     FreeMem* fmem_head = nullptr;
  31:src/../h/../h/../h/MemoryAllocator.hpp **** 
  32:src/../h/../h/../h/MemoryAllocator.hpp ****     MemoryAllocator(){
  33:src/../h/../h/../h/MemoryAllocator.hpp **** 
  34:src/../h/../h/../h/MemoryAllocator.hpp ****         size_t heapStart = (size_t)HEAP_START_ADDR;
  48              		.loc 2 34 9 is_stmt 1
  49              		.loc 2 34 16 is_stmt 0
  50 003c 97070000 		la	a5,HEAP_START_ADDR
  50      83B70700 
  51 0044 83B70700 		ld	a5,0(a5)
  52              	.LVL2:
  35:src/../h/../h/../h/MemoryAllocator.hpp ****         size_t heapEnd = (size_t)HEAP_END_ADDR - 1;
  53              		.loc 2 35 9 is_stmt 1
  54              		.loc 2 35 48 is_stmt 0
  55 0048 17070000 		la	a4,HEAP_END_ADDR
  55      03370700 
  56 0050 03370700 		ld	a4,0(a4)
  57              		.loc 2 35 16
  58 0054 1307F7FF 		addi	a4,a4,-1
  59              	.LVL3:
  36:src/../h/../h/../h/MemoryAllocator.hpp **** 
  37:src/../h/../h/../h/MemoryAllocator.hpp ****         size_t sizeInBlocks = (heapEnd - heapStart) / MEM_BLOCK_SIZE;
  60              		.loc 2 37 9 is_stmt 1
  61              		.loc 2 37 40 is_stmt 0
  62 0058 3307F740 		sub	a4,a4,a5
  63              	.LVL4:
  64              		.loc 2 37 16
  65 005c 13576700 		srli	a4,a4,6
  66              	.LVL5:
  38:src/../h/../h/../h/MemoryAllocator.hpp **** 
  39:src/../h/../h/../h/MemoryAllocator.hpp ****         // poravnaj na prvu krstenu adresu
  40:src/../h/../h/../h/MemoryAllocator.hpp ****         fmem_head = (FreeMem*)(heapStart + ((heapStart % MEM_BLOCK_SIZE != 0)?(MEM_BLOCK_SIZE - hea
  67              		.loc 2 40 9 is_stmt 1
  68              		.loc 2 40 56 is_stmt 0
GAS LISTING /tmp/ccHqBDKf.s 			page 3


  69 0060 93F6F703 		andi	a3,a5,63
  70              		.loc 2 40 78
  71 0064 63860600 		beqz	a3,.L3
  72 0068 13060004 		li	a2,64
  73 006c B306D640 		sub	a3,a2,a3
  74              	.L3:
  75              		.loc 2 40 42
  76 0070 B387D700 		add	a5,a5,a3
  77              	.LVL6:
  78              		.loc 2 40 19
  79 0074 97060000 		sd	a5,_ZZN15MemoryAllocator11getInstanceEvE8instance,a3
  79      23B0F600 
  41:src/../h/../h/../h/MemoryAllocator.hpp **** 
  42:src/../h/../h/../h/MemoryAllocator.hpp ****         // napravi node
  43:src/../h/../h/../h/MemoryAllocator.hpp **** 
  44:src/../h/../h/../h/MemoryAllocator.hpp ****         fmem_head->next = nullptr;
  80              		.loc 2 44 9 is_stmt 1
  81              		.loc 2 44 25 is_stmt 0
  82 007c 23B40700 		sd	zero,8(a5)
  45:src/../h/../h/../h/MemoryAllocator.hpp ****         fmem_head->prev = nullptr;
  83              		.loc 2 45 9 is_stmt 1
  84              		.loc 2 45 25 is_stmt 0
  85 0080 23B80700 		sd	zero,16(a5)
  46:src/../h/../h/../h/MemoryAllocator.hpp ****         fmem_head->size = sizeInBlocks;
  86              		.loc 2 46 9 is_stmt 1
  87              		.loc 2 46 25 is_stmt 0
  88 0084 23B0E700 		sd	a4,0(a5)
  89              	.LVL7:
  90              	.LBE17:
  91              	.LBE16:
  92              	.LBE15:
  11:src/../h/../h/../h/MemoryAllocator.hpp ****         return instance;
  93              		.loc 2 11 32
  94 0088 93071000 		li	a5,1
  95 008c 17070000 		sb	a5,_ZGVZN15MemoryAllocator11getInstanceEvE8instance,a4
  95      2300F700 
  96              	.L2:
  12:src/../h/../h/../h/MemoryAllocator.hpp ****     }
  97              		.loc 2 12 9 is_stmt 1
  98              	.LBE14:
  99              	.LBE13:
 100              		.loc 1 4 79 is_stmt 0
 101 0094 83A50400 		lw	a1,0(s1)
 102              	.LVL8:
 103              		.loc 1 4 64
 104 0098 93952500 		slli	a1,a1,2
 105 009c 17050000 		lla	a0,_ZZN15MemoryAllocator11getInstanceEvE8instance
 105      13050500 
 106              	.LVL9:
 107 00a4 97000000 		call	_ZN15MemoryAllocator12memory_allocEm@plt
 107      E7800000 
 108              	.LVL10:
 109              		.loc 1 4 12
 110 00ac 23B4A400 		sd	a0,8(s1)
   5:src/my_buffer.cpp ****     MySemaphore::sem_open(&itemAvailable, 0);
 111              		.loc 1 5 5 is_stmt 1
 112              		.loc 1 5 26 is_stmt 0
GAS LISTING /tmp/ccHqBDKf.s 			page 4


 113 00b0 93050000 		li	a1,0
 114 00b4 13850402 		addi	a0,s1,32
 115 00b8 97000000 		call	_ZN11MySemaphore8sem_openEPPS_m@plt
 115      E7800000 
 116              	.LVL11:
   6:src/my_buffer.cpp ****     MySemaphore::sem_open(&spaceAvailable, _cap);
 117              		.loc 1 6 5 is_stmt 1
 118              		.loc 1 6 26 is_stmt 0
 119 00c0 93050900 		mv	a1,s2
 120 00c4 13858401 		addi	a0,s1,24
 121 00c8 97000000 		call	_ZN11MySemaphore8sem_openEPPS_m@plt
 121      E7800000 
 122              	.LVL12:
   7:src/my_buffer.cpp ****     MySemaphore::sem_open(&mutexHead, 1);
 123              		.loc 1 7 5 is_stmt 1
 124              		.loc 1 7 26 is_stmt 0
 125 00d0 93051000 		li	a1,1
 126 00d4 13858402 		addi	a0,s1,40
 127 00d8 97000000 		call	_ZN11MySemaphore8sem_openEPPS_m@plt
 127      E7800000 
 128              	.LVL13:
   8:src/my_buffer.cpp ****     MySemaphore::sem_open(&mutexTail, 1);
 129              		.loc 1 8 5 is_stmt 1
 130              		.loc 1 8 26 is_stmt 0
 131 00e0 93051000 		li	a1,1
 132 00e4 13850403 		addi	a0,s1,48
 133 00e8 97000000 		call	_ZN11MySemaphore8sem_openEPPS_m@plt
 133      E7800000 
 134              	.LVL14:
 135              	.LBE12:
   9:src/my_buffer.cpp **** }
 136              		.loc 1 9 1
 137 00f0 83308101 		ld	ra,24(sp)
 138              		.cfi_restore 1
 139 00f4 03340101 		ld	s0,16(sp)
 140              		.cfi_restore 8
 141              		.cfi_def_cfa 2, 32
 142 00f8 83348100 		ld	s1,8(sp)
 143              		.cfi_restore 9
 144              	.LVL15:
 145 00fc 03390100 		ld	s2,0(sp)
 146              		.cfi_restore 18
 147 0100 13010102 		addi	sp,sp,32
 148              		.cfi_def_cfa_offset 0
 149 0104 67800000 		jr	ra
 150              		.cfi_endproc
 151              	.LFE20:
 153              		.globl	_ZN8MyBufferC1Ei
 154              		.set	_ZN8MyBufferC1Ei,_ZN8MyBufferC2Ei
 155              		.align	2
 156              		.globl	_ZN8MyBufferD2Ev
 158              	_ZN8MyBufferD2Ev:
 159              	.LFB23:
  10:src/my_buffer.cpp **** 
  11:src/my_buffer.cpp **** MyBuffer::~MyBuffer() {
 160              		.loc 1 11 1 is_stmt 1
 161              		.cfi_startproc
GAS LISTING /tmp/ccHqBDKf.s 			page 5


 162              		.cfi_personality 0x9b,DW.ref.__gxx_personality_v0
 163              		.cfi_lsda 0x1b,.LLSDA23
 164              	.LVL16:
 165 0108 130101FE 		addi	sp,sp,-32
 166              		.cfi_def_cfa_offset 32
 167 010c 233C1100 		sd	ra,24(sp)
 168 0110 23388100 		sd	s0,16(sp)
 169 0114 23349100 		sd	s1,8(sp)
 170              		.cfi_offset 1, -8
 171              		.cfi_offset 8, -16
 172              		.cfi_offset 9, -24
 173 0118 13040102 		addi	s0,sp,32
 174              		.cfi_def_cfa 8, 0
 175 011c 93040500 		mv	s1,a0
 176              	.LBB24:
  12:src/my_buffer.cpp ****     MemoryAllocator::getInstance().memory_free((void*)buffer);
 177              		.loc 1 12 5
 178              	.LBB25:
 179              	.LBB26:
  11:src/../h/../h/../h/MemoryAllocator.hpp ****         return instance;
 180              		.loc 2 11 9
  11:src/../h/../h/../h/MemoryAllocator.hpp ****         return instance;
 181              		.loc 2 11 32 is_stmt 0
 182 0120 97070000 		lbu	a5,_ZGVZN15MemoryAllocator11getInstanceEvE8instance
 182      83C70700 
 183 0128 639E0704 		bnez	a5,.L6
 184              	.LVL17:
 185              	.LBB27:
 186              	.LBB28:
 187              	.LBB29:
  34:src/../h/../h/../h/MemoryAllocator.hpp ****         size_t heapEnd = (size_t)HEAP_END_ADDR - 1;
 188              		.loc 2 34 9 is_stmt 1
  34:src/../h/../h/../h/MemoryAllocator.hpp ****         size_t heapEnd = (size_t)HEAP_END_ADDR - 1;
 189              		.loc 2 34 16 is_stmt 0
 190 012c 97070000 		la	a5,HEAP_START_ADDR
 190      83B70700 
 191 0134 83B70700 		ld	a5,0(a5)
 192              	.LVL18:
  35:src/../h/../h/../h/MemoryAllocator.hpp **** 
 193              		.loc 2 35 9 is_stmt 1
  35:src/../h/../h/../h/MemoryAllocator.hpp **** 
 194              		.loc 2 35 48 is_stmt 0
 195 0138 17070000 		la	a4,HEAP_END_ADDR
 195      03370700 
 196 0140 03370700 		ld	a4,0(a4)
  35:src/../h/../h/../h/MemoryAllocator.hpp **** 
 197              		.loc 2 35 16
 198 0144 1307F7FF 		addi	a4,a4,-1
 199              	.LVL19:
  37:src/../h/../h/../h/MemoryAllocator.hpp **** 
 200              		.loc 2 37 9 is_stmt 1
  37:src/../h/../h/../h/MemoryAllocator.hpp **** 
 201              		.loc 2 37 40 is_stmt 0
 202 0148 3307F740 		sub	a4,a4,a5
 203              	.LVL20:
  37:src/../h/../h/../h/MemoryAllocator.hpp **** 
 204              		.loc 2 37 16
GAS LISTING /tmp/ccHqBDKf.s 			page 6


 205 014c 13576700 		srli	a4,a4,6
 206              	.LVL21:
  40:src/../h/../h/../h/MemoryAllocator.hpp **** 
 207              		.loc 2 40 9 is_stmt 1
  40:src/../h/../h/../h/MemoryAllocator.hpp **** 
 208              		.loc 2 40 56 is_stmt 0
 209 0150 93F6F703 		andi	a3,a5,63
  40:src/../h/../h/../h/MemoryAllocator.hpp **** 
 210              		.loc 2 40 78
 211 0154 63860600 		beqz	a3,.L7
 212 0158 13060004 		li	a2,64
 213 015c B306D640 		sub	a3,a2,a3
 214              	.L7:
  40:src/../h/../h/../h/MemoryAllocator.hpp **** 
 215              		.loc 2 40 42
 216 0160 B387D700 		add	a5,a5,a3
 217              	.LVL22:
  40:src/../h/../h/../h/MemoryAllocator.hpp **** 
 218              		.loc 2 40 19
 219 0164 97060000 		sd	a5,_ZZN15MemoryAllocator11getInstanceEvE8instance,a3
 219      23B0F600 
  44:src/../h/../h/../h/MemoryAllocator.hpp ****         fmem_head->prev = nullptr;
 220              		.loc 2 44 9 is_stmt 1
  44:src/../h/../h/../h/MemoryAllocator.hpp ****         fmem_head->prev = nullptr;
 221              		.loc 2 44 25 is_stmt 0
 222 016c 23B40700 		sd	zero,8(a5)
  45:src/../h/../h/../h/MemoryAllocator.hpp ****         fmem_head->size = sizeInBlocks;
 223              		.loc 2 45 9 is_stmt 1
  45:src/../h/../h/../h/MemoryAllocator.hpp ****         fmem_head->size = sizeInBlocks;
 224              		.loc 2 45 25 is_stmt 0
 225 0170 23B80700 		sd	zero,16(a5)
 226              		.loc 2 46 9 is_stmt 1
 227              		.loc 2 46 25 is_stmt 0
 228 0174 23B0E700 		sd	a4,0(a5)
 229              	.LVL23:
 230              	.LBE29:
 231              	.LBE28:
 232              	.LBE27:
  11:src/../h/../h/../h/MemoryAllocator.hpp ****         return instance;
 233              		.loc 2 11 32
 234 0178 93071000 		li	a5,1
 235 017c 17070000 		sb	a5,_ZGVZN15MemoryAllocator11getInstanceEvE8instance,a4
 235      2300F700 
 236              	.L6:
  12:src/../h/../h/../h/MemoryAllocator.hpp ****     }
 237              		.loc 2 12 9 is_stmt 1
 238              	.LBE26:
 239              	.LBE25:
 240              		.loc 1 12 47 is_stmt 0
 241 0184 83B58400 		ld	a1,8(s1)
 242 0188 17050000 		lla	a0,_ZZN15MemoryAllocator11getInstanceEvE8instance
 242      13050500 
 243              	.LVL24:
 244 0190 97000000 		call	_ZN15MemoryAllocator11memory_freeEPv@plt
 244      E7800000 
 245              	.LVL25:
  13:src/my_buffer.cpp ****     MySemaphore::sem_close(itemAvailable);
GAS LISTING /tmp/ccHqBDKf.s 			page 7


 246              		.loc 1 13 5 is_stmt 1
 247              		.loc 1 13 27 is_stmt 0
 248 0198 03B50402 		ld	a0,32(s1)
 249 019c 97000000 		call	_ZN11MySemaphore9sem_closeEPS_@plt
 249      E7800000 
 250              	.LVL26:
  14:src/my_buffer.cpp ****     MySemaphore::sem_close(spaceAvailable);
 251              		.loc 1 14 5 is_stmt 1
 252              		.loc 1 14 27 is_stmt 0
 253 01a4 03B58401 		ld	a0,24(s1)
 254 01a8 97000000 		call	_ZN11MySemaphore9sem_closeEPS_@plt
 254      E7800000 
 255              	.LVL27:
  15:src/my_buffer.cpp ****     MySemaphore::sem_close(mutexTail);
 256              		.loc 1 15 5 is_stmt 1
 257              		.loc 1 15 27 is_stmt 0
 258 01b0 03B50403 		ld	a0,48(s1)
 259 01b4 97000000 		call	_ZN11MySemaphore9sem_closeEPS_@plt
 259      E7800000 
 260              	.LVL28:
  16:src/my_buffer.cpp ****     MySemaphore::sem_close(mutexHead);
 261              		.loc 1 16 5 is_stmt 1
 262              		.loc 1 16 27 is_stmt 0
 263 01bc 03B58402 		ld	a0,40(s1)
 264 01c0 97000000 		call	_ZN11MySemaphore9sem_closeEPS_@plt
 264      E7800000 
 265              	.LVL29:
 266              	.LBE24:
  17:src/my_buffer.cpp **** }
 267              		.loc 1 17 1
 268 01c8 83308101 		ld	ra,24(sp)
 269              		.cfi_restore 1
 270 01cc 03340101 		ld	s0,16(sp)
 271              		.cfi_restore 8
 272              		.cfi_def_cfa 2, 32
 273 01d0 83348100 		ld	s1,8(sp)
 274              		.cfi_restore 9
 275              	.LVL30:
 276 01d4 13010102 		addi	sp,sp,32
 277              		.cfi_def_cfa_offset 0
 278 01d8 67800000 		jr	ra
 279              		.cfi_endproc
 280              	.LFE23:
 281              		.globl	__gxx_personality_v0
 282              		.section	.gcc_except_table,"a",@progbits
 283              	.LLSDA23:
 284 0000 FF       		.byte	0xff
 285 0001 FF       		.byte	0xff
 286 0002 03       		.byte	0x3
 287 0003 00       		.byte	0
 288              		.text
 290              		.globl	_ZN8MyBufferD1Ev
 291              		.set	_ZN8MyBufferD1Ev,_ZN8MyBufferD2Ev
 292              		.align	2
 293              		.globl	_ZN8MyBuffer3putEi
 295              	_ZN8MyBuffer3putEi:
 296              	.LFB25:
GAS LISTING /tmp/ccHqBDKf.s 			page 8


  18:src/my_buffer.cpp **** 
  19:src/my_buffer.cpp **** void MyBuffer::put(int val) {
 297              		.loc 1 19 29 is_stmt 1
 298              		.cfi_startproc
 299              	.LVL31:
 300 01dc 130101FE 		addi	sp,sp,-32
 301              		.cfi_def_cfa_offset 32
 302 01e0 233C1100 		sd	ra,24(sp)
 303 01e4 23388100 		sd	s0,16(sp)
 304 01e8 23349100 		sd	s1,8(sp)
 305 01ec 23302101 		sd	s2,0(sp)
 306              		.cfi_offset 1, -8
 307              		.cfi_offset 8, -16
 308              		.cfi_offset 9, -24
 309              		.cfi_offset 18, -32
 310 01f0 13040102 		addi	s0,sp,32
 311              		.cfi_def_cfa 8, 0
 312 01f4 93040500 		mv	s1,a0
 313 01f8 13890500 		mv	s2,a1
  20:src/my_buffer.cpp ****     MySemaphore::sem_wait(spaceAvailable);
 314              		.loc 1 20 5
 315              		.loc 1 20 26 is_stmt 0
 316 01fc 03358501 		ld	a0,24(a0)
 317              	.LVL32:
 318 0200 97000000 		call	_ZN11MySemaphore8sem_waitEPS_@plt
 318      E7800000 
 319              	.LVL33:
  21:src/my_buffer.cpp **** 
  22:src/my_buffer.cpp ****     MySemaphore::sem_wait(mutexTail);
 320              		.loc 1 22 5 is_stmt 1
 321              		.loc 1 22 26 is_stmt 0
 322 0208 03B50403 		ld	a0,48(s1)
 323 020c 97000000 		call	_ZN11MySemaphore8sem_waitEPS_@plt
 323      E7800000 
 324              	.LVL34:
  23:src/my_buffer.cpp ****     buffer[tail] = val;
 325              		.loc 1 23 5 is_stmt 1
 326 0214 83B78400 		ld	a5,8(s1)
 327              		.loc 1 23 12 is_stmt 0
 328 0218 03A74401 		lw	a4,20(s1)
 329              		.loc 1 23 16
 330 021c 13172700 		slli	a4,a4,2
 331 0220 B387E700 		add	a5,a5,a4
 332              		.loc 1 23 18
 333 0224 23A02701 		sw	s2,0(a5)
  24:src/my_buffer.cpp ****     tail = (tail + 1) % cap;
 334              		.loc 1 24 5 is_stmt 1
 335              		.loc 1 24 13 is_stmt 0
 336 0228 83A74401 		lw	a5,20(s1)
 337              		.loc 1 24 18
 338 022c 9B871700 		addiw	a5,a5,1
 339              		.loc 1 24 25
 340 0230 03A70400 		lw	a4,0(s1)
 341              		.loc 1 24 23
 342 0234 BBE7E702 		remw	a5,a5,a4
 343              		.loc 1 24 10
 344 0238 23AAF400 		sw	a5,20(s1)
GAS LISTING /tmp/ccHqBDKf.s 			page 9


  25:src/my_buffer.cpp ****     MySemaphore::sem_signal(mutexTail);
 345              		.loc 1 25 5 is_stmt 1
 346              		.loc 1 25 28 is_stmt 0
 347 023c 03B50403 		ld	a0,48(s1)
 348 0240 97000000 		call	_ZN11MySemaphore10sem_signalEPS_@plt
 348      E7800000 
 349              	.LVL35:
  26:src/my_buffer.cpp **** 
  27:src/my_buffer.cpp ****     MySemaphore::sem_signal(itemAvailable);
 350              		.loc 1 27 5 is_stmt 1
 351              		.loc 1 27 28 is_stmt 0
 352 0248 03B50402 		ld	a0,32(s1)
 353 024c 97000000 		call	_ZN11MySemaphore10sem_signalEPS_@plt
 353      E7800000 
 354              	.LVL36:
  28:src/my_buffer.cpp **** 
  29:src/my_buffer.cpp **** }
 355              		.loc 1 29 1
 356 0254 83308101 		ld	ra,24(sp)
 357              		.cfi_restore 1
 358 0258 03340101 		ld	s0,16(sp)
 359              		.cfi_restore 8
 360              		.cfi_def_cfa 2, 32
 361 025c 83348100 		ld	s1,8(sp)
 362              		.cfi_restore 9
 363              	.LVL37:
 364 0260 03390100 		ld	s2,0(sp)
 365              		.cfi_restore 18
 366 0264 13010102 		addi	sp,sp,32
 367              		.cfi_def_cfa_offset 0
 368 0268 67800000 		jr	ra
 369              		.cfi_endproc
 370              	.LFE25:
 372              		.align	2
 373              		.globl	_ZN8MyBuffer3getEv
 375              	_ZN8MyBuffer3getEv:
 376              	.LFB26:
  30:src/my_buffer.cpp **** 
  31:src/my_buffer.cpp **** int MyBuffer::get() {
 377              		.loc 1 31 21 is_stmt 1
 378              		.cfi_startproc
 379              	.LVL38:
 380 026c 130101FE 		addi	sp,sp,-32
 381              		.cfi_def_cfa_offset 32
 382 0270 233C1100 		sd	ra,24(sp)
 383 0274 23388100 		sd	s0,16(sp)
 384 0278 23349100 		sd	s1,8(sp)
 385 027c 23302101 		sd	s2,0(sp)
 386              		.cfi_offset 1, -8
 387              		.cfi_offset 8, -16
 388              		.cfi_offset 9, -24
 389              		.cfi_offset 18, -32
 390 0280 13040102 		addi	s0,sp,32
 391              		.cfi_def_cfa 8, 0
 392 0284 93040500 		mv	s1,a0
  32:src/my_buffer.cpp ****     MySemaphore::sem_wait(itemAvailable);
 393              		.loc 1 32 5
GAS LISTING /tmp/ccHqBDKf.s 			page 10


 394              		.loc 1 32 26 is_stmt 0
 395 0288 03350502 		ld	a0,32(a0)
 396              	.LVL39:
 397 028c 97000000 		call	_ZN11MySemaphore8sem_waitEPS_@plt
 397      E7800000 
 398              	.LVL40:
  33:src/my_buffer.cpp **** 
  34:src/my_buffer.cpp ****     MySemaphore::sem_wait(mutexHead);
 399              		.loc 1 34 5 is_stmt 1
 400              		.loc 1 34 26 is_stmt 0
 401 0294 03B58402 		ld	a0,40(s1)
 402 0298 97000000 		call	_ZN11MySemaphore8sem_waitEPS_@plt
 402      E7800000 
 403              	.LVL41:
  35:src/my_buffer.cpp **** 
  36:src/my_buffer.cpp ****     int ret = buffer[head];
 404              		.loc 1 36 5 is_stmt 1
 405              		.loc 1 36 15 is_stmt 0
 406 02a0 03B78400 		ld	a4,8(s1)
 407              		.loc 1 36 22
 408 02a4 83A70401 		lw	a5,16(s1)
 409              		.loc 1 36 26
 410 02a8 93962700 		slli	a3,a5,2
 411 02ac 3307D700 		add	a4,a4,a3
 412              		.loc 1 36 9
 413 02b0 03290700 		lw	s2,0(a4)
 414              	.LVL42:
  37:src/my_buffer.cpp ****     head = (head + 1) % cap;
 415              		.loc 1 37 5 is_stmt 1
 416              		.loc 1 37 18 is_stmt 0
 417 02b4 9B871700 		addiw	a5,a5,1
 418              		.loc 1 37 25
 419 02b8 03A70400 		lw	a4,0(s1)
 420              		.loc 1 37 23
 421 02bc BBE7E702 		remw	a5,a5,a4
 422              		.loc 1 37 10
 423 02c0 23A8F400 		sw	a5,16(s1)
  38:src/my_buffer.cpp ****     MySemaphore::sem_signal(mutexHead);
 424              		.loc 1 38 5 is_stmt 1
 425              		.loc 1 38 28 is_stmt 0
 426 02c4 03B58402 		ld	a0,40(s1)
 427 02c8 97000000 		call	_ZN11MySemaphore10sem_signalEPS_@plt
 427      E7800000 
 428              	.LVL43:
  39:src/my_buffer.cpp **** 
  40:src/my_buffer.cpp ****     MySemaphore::sem_signal(spaceAvailable);
 429              		.loc 1 40 5 is_stmt 1
 430              		.loc 1 40 28 is_stmt 0
 431 02d0 03B58401 		ld	a0,24(s1)
 432 02d4 97000000 		call	_ZN11MySemaphore10sem_signalEPS_@plt
 432      E7800000 
 433              	.LVL44:
  41:src/my_buffer.cpp **** 
  42:src/my_buffer.cpp ****     return ret;
 434              		.loc 1 42 5 is_stmt 1
  43:src/my_buffer.cpp **** }
 435              		.loc 1 43 1 is_stmt 0
GAS LISTING /tmp/ccHqBDKf.s 			page 11


 436 02dc 13050900 		mv	a0,s2
 437 02e0 83308101 		ld	ra,24(sp)
 438              		.cfi_restore 1
 439 02e4 03340101 		ld	s0,16(sp)
 440              		.cfi_restore 8
 441              		.cfi_def_cfa 2, 32
 442 02e8 83348100 		ld	s1,8(sp)
 443              		.cfi_restore 9
 444              	.LVL45:
 445 02ec 03390100 		ld	s2,0(sp)
 446              		.cfi_restore 18
 447              	.LVL46:
 448 02f0 13010102 		addi	sp,sp,32
 449              		.cfi_def_cfa_offset 0
 450 02f4 67800000 		jr	ra
 451              		.cfi_endproc
 452              	.LFE26:
 454              		.align	2
 455              		.globl	_ZN8MyBuffer6getCntEv
 457              	_ZN8MyBuffer6getCntEv:
 458              	.LFB27:
  44:src/my_buffer.cpp **** 
  45:src/my_buffer.cpp **** int MyBuffer::getCnt() {
 459              		.loc 1 45 24 is_stmt 1
 460              		.cfi_startproc
 461              	.LVL47:
 462 02f8 130101FE 		addi	sp,sp,-32
 463              		.cfi_def_cfa_offset 32
 464 02fc 233C1100 		sd	ra,24(sp)
 465 0300 23388100 		sd	s0,16(sp)
 466 0304 23349100 		sd	s1,8(sp)
 467 0308 23302101 		sd	s2,0(sp)
 468              		.cfi_offset 1, -8
 469              		.cfi_offset 8, -16
 470              		.cfi_offset 9, -24
 471              		.cfi_offset 18, -32
 472 030c 13040102 		addi	s0,sp,32
 473              		.cfi_def_cfa 8, 0
 474 0310 93040500 		mv	s1,a0
  46:src/my_buffer.cpp ****     int ret;
 475              		.loc 1 46 5
  47:src/my_buffer.cpp **** 
  48:src/my_buffer.cpp ****     MySemaphore::sem_wait(mutexHead);
 476              		.loc 1 48 5
 477              		.loc 1 48 26 is_stmt 0
 478 0314 03358502 		ld	a0,40(a0)
 479              	.LVL48:
 480 0318 97000000 		call	_ZN11MySemaphore8sem_waitEPS_@plt
 480      E7800000 
 481              	.LVL49:
  49:src/my_buffer.cpp ****     MySemaphore::sem_wait(mutexTail);
 482              		.loc 1 49 5 is_stmt 1
 483              		.loc 1 49 26 is_stmt 0
 484 0320 03B50403 		ld	a0,48(s1)
 485 0324 97000000 		call	_ZN11MySemaphore8sem_waitEPS_@plt
 485      E7800000 
 486              	.LVL50:
GAS LISTING /tmp/ccHqBDKf.s 			page 12


  50:src/my_buffer.cpp **** 
  51:src/my_buffer.cpp ****     if (tail >= head) {
 487              		.loc 1 51 5 is_stmt 1
 488              		.loc 1 51 9 is_stmt 0
 489 032c 83A74401 		lw	a5,20(s1)
 490              		.loc 1 51 17
 491 0330 03A90401 		lw	s2,16(s1)
 492              		.loc 1 51 5
 493 0334 63CE2703 		blt	a5,s2,.L14
  52:src/my_buffer.cpp ****         ret = tail - head;
 494              		.loc 1 52 9 is_stmt 1
 495              		.loc 1 52 13 is_stmt 0
 496 0338 3B892741 		subw	s2,a5,s2
 497              	.LVL51:
 498              	.L15:
  53:src/my_buffer.cpp ****     } else {
  54:src/my_buffer.cpp ****         ret = cap - head + tail;
  55:src/my_buffer.cpp ****     }
  56:src/my_buffer.cpp **** 
  57:src/my_buffer.cpp ****     MySemaphore::sem_signal(mutexTail);
 499              		.loc 1 57 5 is_stmt 1
 500              		.loc 1 57 28 is_stmt 0
 501 033c 03B50403 		ld	a0,48(s1)
 502 0340 97000000 		call	_ZN11MySemaphore10sem_signalEPS_@plt
 502      E7800000 
 503              	.LVL52:
  58:src/my_buffer.cpp ****     MySemaphore::sem_signal(mutexHead);
 504              		.loc 1 58 5 is_stmt 1
 505              		.loc 1 58 28 is_stmt 0
 506 0348 03B58402 		ld	a0,40(s1)
 507 034c 97000000 		call	_ZN11MySemaphore10sem_signalEPS_@plt
 507      E7800000 
 508              	.LVL53:
  59:src/my_buffer.cpp **** 
  60:src/my_buffer.cpp ****     return ret;
 509              		.loc 1 60 5 is_stmt 1
  61:src/my_buffer.cpp **** }
 510              		.loc 1 61 1 is_stmt 0
 511 0354 13050900 		mv	a0,s2
 512 0358 83308101 		ld	ra,24(sp)
 513              		.cfi_remember_state
 514              		.cfi_restore 1
 515 035c 03340101 		ld	s0,16(sp)
 516              		.cfi_restore 8
 517              		.cfi_def_cfa 2, 32
 518 0360 83348100 		ld	s1,8(sp)
 519              		.cfi_restore 9
 520              	.LVL54:
 521 0364 03390100 		ld	s2,0(sp)
 522              		.cfi_restore 18
 523              	.LVL55:
 524 0368 13010102 		addi	sp,sp,32
 525              		.cfi_def_cfa_offset 0
 526 036c 67800000 		jr	ra
 527              	.LVL56:
 528              	.L14:
 529              		.cfi_restore_state
GAS LISTING /tmp/ccHqBDKf.s 			page 13


  54:src/my_buffer.cpp ****     }
 530              		.loc 1 54 9 is_stmt 1
  54:src/my_buffer.cpp ****     }
 531              		.loc 1 54 15 is_stmt 0
 532 0370 03A70400 		lw	a4,0(s1)
  54:src/my_buffer.cpp ****     }
 533              		.loc 1 54 19
 534 0374 3B092741 		subw	s2,a4,s2
  54:src/my_buffer.cpp ****     }
 535              		.loc 1 54 13
 536 0378 3B09F900 		addw	s2,s2,a5
 537 037c 6FF01FFC 		j	.L15
 538              		.cfi_endproc
 539              	.LFE27:
 541              		.weak	_ZGVZN15MemoryAllocator11getInstanceEvE8instance
 542              		.section	.bss._ZGVZN15MemoryAllocator11getInstanceEvE8instance,"awG",@nobits,_ZGVZN15MemoryAllocat
 543              		.align	3
 546              	_ZGVZN15MemoryAllocator11getInstanceEvE8instance:
 547 0000 00000000 		.zero	8
 547      00000000 
 548              		.weak	_ZZN15MemoryAllocator11getInstanceEvE8instance
 549              		.section	.bss._ZZN15MemoryAllocator11getInstanceEvE8instance,"awG",@nobits,_ZZN15MemoryAllocator11
 550              		.align	3
 553              	_ZZN15MemoryAllocator11getInstanceEvE8instance:
 554 0000 00000000 		.zero	8
 554      00000000 
 555              		.text
 556              	.Letext0:
 557              		.file 3 "src/../h/../h/../lib/hw.h"
 558              		.file 4 "src/../h/../h/semaphore.hpp"
 559              		.file 5 "src/../h/my_buffer.hpp"
 2973              		.align	3
 2976              	DW.ref.__gxx_personality_v0:
 2977 0000 00000000 		.dword	__gxx_personality_v0
 2977      00000000 
 2978              		.ident	"GCC: (Ubuntu 9.4.0-1ubuntu1~20.04) 9.4.0"
 2979              		.section	.note.GNU-stack,"",@progbits
GAS LISTING /tmp/ccHqBDKf.s 			page 14


DEFINED SYMBOLS
                            *ABS*:0000000000000000 my_buffer.cpp
     /tmp/ccHqBDKf.s:9      .text:0000000000000000 _ZN8MyBufferC2Ei
     /tmp/ccHqBDKf.s:13     .text:0000000000000000 .L0 
     /tmp/ccHqBDKf.s:15     .text:0000000000000000 .L0 
     /tmp/ccHqBDKf.s:16     .text:0000000000000004 .L0 
     /tmp/ccHqBDKf.s:21     .text:0000000000000014 .L0 
     /tmp/ccHqBDKf.s:22     .text:0000000000000014 .L0 
     /tmp/ccHqBDKf.s:23     .text:0000000000000014 .L0 
     /tmp/ccHqBDKf.s:24     .text:0000000000000014 .L0 
     /tmp/ccHqBDKf.s:26     .text:0000000000000018 .L0 
     /tmp/ccHqBDKf.s:31     .text:0000000000000020 .L0 
     /tmp/ccHqBDKf.s:33     .text:0000000000000024 .L0 
     /tmp/ccHqBDKf.s:40     .text:0000000000000030 .L0 
     /tmp/ccHqBDKf.s:41     .text:0000000000000030 .L0 
     /tmp/ccHqBDKf.s:546    .bss._ZGVZN15MemoryAllocator11getInstanceEvE8instance:0000000000000000 _ZGVZN15MemoryAllocator11getInstanceEvE8instance
     /tmp/ccHqBDKf.s:42     .text:0000000000000030 .L0 
     /tmp/ccHqBDKf.s:49     .text:000000000000003c .L0 
     /tmp/ccHqBDKf.s:50     .text:000000000000003c .L0 
     /tmp/ccHqBDKf.s:54     .text:0000000000000048 .L0 
     /tmp/ccHqBDKf.s:55     .text:0000000000000048 .L0 
     /tmp/ccHqBDKf.s:58     .text:0000000000000054 .L0 
     /tmp/ccHqBDKf.s:61     .text:0000000000000058 .L0 
     /tmp/ccHqBDKf.s:62     .text:0000000000000058 .L0 
     /tmp/ccHqBDKf.s:65     .text:000000000000005c .L0 
     /tmp/ccHqBDKf.s:68     .text:0000000000000060 .L0 
     /tmp/ccHqBDKf.s:69     .text:0000000000000060 .L0 
     /tmp/ccHqBDKf.s:71     .text:0000000000000064 .L0 
     /tmp/ccHqBDKf.s:76     .text:0000000000000070 .L0 
     /tmp/ccHqBDKf.s:553    .bss._ZZN15MemoryAllocator11getInstanceEvE8instance:0000000000000000 _ZZN15MemoryAllocator11getInstanceEvE8instance
     /tmp/ccHqBDKf.s:79     .text:0000000000000074 .L0 
     /tmp/ccHqBDKf.s:81     .text:000000000000007c .L0 
     /tmp/ccHqBDKf.s:82     .text:000000000000007c .L0 
     /tmp/ccHqBDKf.s:84     .text:0000000000000080 .L0 
     /tmp/ccHqBDKf.s:85     .text:0000000000000080 .L0 
     /tmp/ccHqBDKf.s:87     .text:0000000000000084 .L0 
     /tmp/ccHqBDKf.s:88     .text:0000000000000084 .L0 
     /tmp/ccHqBDKf.s:94     .text:0000000000000088 .L0 
     /tmp/ccHqBDKf.s:100    .text:0000000000000094 .L0 
     /tmp/ccHqBDKf.s:101    .text:0000000000000094 .L0 
     /tmp/ccHqBDKf.s:104    .text:0000000000000098 .L0 
     /tmp/ccHqBDKf.s:110    .text:00000000000000ac .L0 
     /tmp/ccHqBDKf.s:112    .text:00000000000000b0 .L0 
     /tmp/ccHqBDKf.s:113    .text:00000000000000b0 .L0 
     /tmp/ccHqBDKf.s:118    .text:00000000000000c0 .L0 
     /tmp/ccHqBDKf.s:119    .text:00000000000000c0 .L0 
     /tmp/ccHqBDKf.s:124    .text:00000000000000d0 .L0 
     /tmp/ccHqBDKf.s:125    .text:00000000000000d0 .L0 
     /tmp/ccHqBDKf.s:130    .text:00000000000000e0 .L0 
     /tmp/ccHqBDKf.s:131    .text:00000000000000e0 .L0 
     /tmp/ccHqBDKf.s:137    .text:00000000000000f0 .L0 
     /tmp/ccHqBDKf.s:138    .text:00000000000000f4 .L0 
     /tmp/ccHqBDKf.s:140    .text:00000000000000f8 .L0 
     /tmp/ccHqBDKf.s:141    .text:00000000000000f8 .L0 
     /tmp/ccHqBDKf.s:143    .text:00000000000000fc .L0 
     /tmp/ccHqBDKf.s:146    .text:0000000000000100 .L0 
     /tmp/ccHqBDKf.s:148    .text:0000000000000104 .L0 
GAS LISTING /tmp/ccHqBDKf.s 			page 15


     /tmp/ccHqBDKf.s:150    .text:0000000000000108 .L0 
     /tmp/ccHqBDKf.s:9      .text:0000000000000000 _ZN8MyBufferC1Ei
     /tmp/ccHqBDKf.s:158    .text:0000000000000108 _ZN8MyBufferD2Ev
     /tmp/ccHqBDKf.s:161    .text:0000000000000108 .L0 
     /tmp/ccHqBDKf.s:2976   .data.rel.local.DW.ref.__gxx_personality_v0:0000000000000000 DW.ref.__gxx_personality_v0
     /tmp/ccHqBDKf.s:165    .text:0000000000000108 .L0 
     /tmp/ccHqBDKf.s:166    .text:000000000000010c .L0 
     /tmp/ccHqBDKf.s:170    .text:0000000000000118 .L0 
     /tmp/ccHqBDKf.s:171    .text:0000000000000118 .L0 
     /tmp/ccHqBDKf.s:172    .text:0000000000000118 .L0 
     /tmp/ccHqBDKf.s:174    .text:000000000000011c .L0 
     /tmp/ccHqBDKf.s:180    .text:0000000000000120 .L0 
     /tmp/ccHqBDKf.s:181    .text:0000000000000120 .L0 
     /tmp/ccHqBDKf.s:182    .text:0000000000000120 .L0 
     /tmp/ccHqBDKf.s:189    .text:000000000000012c .L0 
     /tmp/ccHqBDKf.s:190    .text:000000000000012c .L0 
     /tmp/ccHqBDKf.s:194    .text:0000000000000138 .L0 
     /tmp/ccHqBDKf.s:195    .text:0000000000000138 .L0 
     /tmp/ccHqBDKf.s:198    .text:0000000000000144 .L0 
     /tmp/ccHqBDKf.s:201    .text:0000000000000148 .L0 
     /tmp/ccHqBDKf.s:202    .text:0000000000000148 .L0 
     /tmp/ccHqBDKf.s:205    .text:000000000000014c .L0 
     /tmp/ccHqBDKf.s:208    .text:0000000000000150 .L0 
     /tmp/ccHqBDKf.s:209    .text:0000000000000150 .L0 
     /tmp/ccHqBDKf.s:211    .text:0000000000000154 .L0 
     /tmp/ccHqBDKf.s:216    .text:0000000000000160 .L0 
     /tmp/ccHqBDKf.s:219    .text:0000000000000164 .L0 
     /tmp/ccHqBDKf.s:221    .text:000000000000016c .L0 
     /tmp/ccHqBDKf.s:222    .text:000000000000016c .L0 
     /tmp/ccHqBDKf.s:224    .text:0000000000000170 .L0 
     /tmp/ccHqBDKf.s:225    .text:0000000000000170 .L0 
     /tmp/ccHqBDKf.s:227    .text:0000000000000174 .L0 
     /tmp/ccHqBDKf.s:228    .text:0000000000000174 .L0 
     /tmp/ccHqBDKf.s:234    .text:0000000000000178 .L0 
     /tmp/ccHqBDKf.s:240    .text:0000000000000184 .L0 
     /tmp/ccHqBDKf.s:241    .text:0000000000000184 .L0 
     /tmp/ccHqBDKf.s:247    .text:0000000000000198 .L0 
     /tmp/ccHqBDKf.s:248    .text:0000000000000198 .L0 
     /tmp/ccHqBDKf.s:252    .text:00000000000001a4 .L0 
     /tmp/ccHqBDKf.s:253    .text:00000000000001a4 .L0 
     /tmp/ccHqBDKf.s:257    .text:00000000000001b0 .L0 
     /tmp/ccHqBDKf.s:258    .text:00000000000001b0 .L0 
     /tmp/ccHqBDKf.s:262    .text:00000000000001bc .L0 
     /tmp/ccHqBDKf.s:263    .text:00000000000001bc .L0 
     /tmp/ccHqBDKf.s:268    .text:00000000000001c8 .L0 
     /tmp/ccHqBDKf.s:269    .text:00000000000001cc .L0 
     /tmp/ccHqBDKf.s:271    .text:00000000000001d0 .L0 
     /tmp/ccHqBDKf.s:272    .text:00000000000001d0 .L0 
     /tmp/ccHqBDKf.s:274    .text:00000000000001d4 .L0 
     /tmp/ccHqBDKf.s:277    .text:00000000000001d8 .L0 
     /tmp/ccHqBDKf.s:279    .text:00000000000001dc .L0 
     /tmp/ccHqBDKf.s:158    .text:0000000000000108 _ZN8MyBufferD1Ev
     /tmp/ccHqBDKf.s:295    .text:00000000000001dc _ZN8MyBuffer3putEi
     /tmp/ccHqBDKf.s:298    .text:00000000000001dc .L0 
     /tmp/ccHqBDKf.s:300    .text:00000000000001dc .L0 
     /tmp/ccHqBDKf.s:301    .text:00000000000001e0 .L0 
     /tmp/ccHqBDKf.s:306    .text:00000000000001f0 .L0 
GAS LISTING /tmp/ccHqBDKf.s 			page 16


     /tmp/ccHqBDKf.s:307    .text:00000000000001f0 .L0 
     /tmp/ccHqBDKf.s:308    .text:00000000000001f0 .L0 
     /tmp/ccHqBDKf.s:309    .text:00000000000001f0 .L0 
     /tmp/ccHqBDKf.s:311    .text:00000000000001f4 .L0 
     /tmp/ccHqBDKf.s:315    .text:00000000000001fc .L0 
     /tmp/ccHqBDKf.s:316    .text:00000000000001fc .L0 
     /tmp/ccHqBDKf.s:321    .text:0000000000000208 .L0 
     /tmp/ccHqBDKf.s:322    .text:0000000000000208 .L0 
     /tmp/ccHqBDKf.s:326    .text:0000000000000214 .L0 
     /tmp/ccHqBDKf.s:328    .text:0000000000000218 .L0 
     /tmp/ccHqBDKf.s:330    .text:000000000000021c .L0 
     /tmp/ccHqBDKf.s:333    .text:0000000000000224 .L0 
     /tmp/ccHqBDKf.s:335    .text:0000000000000228 .L0 
     /tmp/ccHqBDKf.s:336    .text:0000000000000228 .L0 
     /tmp/ccHqBDKf.s:338    .text:000000000000022c .L0 
     /tmp/ccHqBDKf.s:340    .text:0000000000000230 .L0 
     /tmp/ccHqBDKf.s:342    .text:0000000000000234 .L0 
     /tmp/ccHqBDKf.s:344    .text:0000000000000238 .L0 
     /tmp/ccHqBDKf.s:346    .text:000000000000023c .L0 
     /tmp/ccHqBDKf.s:347    .text:000000000000023c .L0 
     /tmp/ccHqBDKf.s:351    .text:0000000000000248 .L0 
     /tmp/ccHqBDKf.s:352    .text:0000000000000248 .L0 
     /tmp/ccHqBDKf.s:356    .text:0000000000000254 .L0 
     /tmp/ccHqBDKf.s:357    .text:0000000000000258 .L0 
     /tmp/ccHqBDKf.s:359    .text:000000000000025c .L0 
     /tmp/ccHqBDKf.s:360    .text:000000000000025c .L0 
     /tmp/ccHqBDKf.s:362    .text:0000000000000260 .L0 
     /tmp/ccHqBDKf.s:365    .text:0000000000000264 .L0 
     /tmp/ccHqBDKf.s:367    .text:0000000000000268 .L0 
     /tmp/ccHqBDKf.s:369    .text:000000000000026c .L0 
     /tmp/ccHqBDKf.s:375    .text:000000000000026c _ZN8MyBuffer3getEv
     /tmp/ccHqBDKf.s:378    .text:000000000000026c .L0 
     /tmp/ccHqBDKf.s:380    .text:000000000000026c .L0 
     /tmp/ccHqBDKf.s:381    .text:0000000000000270 .L0 
     /tmp/ccHqBDKf.s:386    .text:0000000000000280 .L0 
     /tmp/ccHqBDKf.s:387    .text:0000000000000280 .L0 
     /tmp/ccHqBDKf.s:388    .text:0000000000000280 .L0 
     /tmp/ccHqBDKf.s:389    .text:0000000000000280 .L0 
     /tmp/ccHqBDKf.s:391    .text:0000000000000284 .L0 
     /tmp/ccHqBDKf.s:394    .text:0000000000000288 .L0 
     /tmp/ccHqBDKf.s:395    .text:0000000000000288 .L0 
     /tmp/ccHqBDKf.s:400    .text:0000000000000294 .L0 
     /tmp/ccHqBDKf.s:401    .text:0000000000000294 .L0 
     /tmp/ccHqBDKf.s:405    .text:00000000000002a0 .L0 
     /tmp/ccHqBDKf.s:406    .text:00000000000002a0 .L0 
     /tmp/ccHqBDKf.s:408    .text:00000000000002a4 .L0 
     /tmp/ccHqBDKf.s:410    .text:00000000000002a8 .L0 
     /tmp/ccHqBDKf.s:413    .text:00000000000002b0 .L0 
     /tmp/ccHqBDKf.s:416    .text:00000000000002b4 .L0 
     /tmp/ccHqBDKf.s:417    .text:00000000000002b4 .L0 
     /tmp/ccHqBDKf.s:419    .text:00000000000002b8 .L0 
     /tmp/ccHqBDKf.s:421    .text:00000000000002bc .L0 
     /tmp/ccHqBDKf.s:423    .text:00000000000002c0 .L0 
     /tmp/ccHqBDKf.s:425    .text:00000000000002c4 .L0 
     /tmp/ccHqBDKf.s:426    .text:00000000000002c4 .L0 
     /tmp/ccHqBDKf.s:430    .text:00000000000002d0 .L0 
     /tmp/ccHqBDKf.s:431    .text:00000000000002d0 .L0 
GAS LISTING /tmp/ccHqBDKf.s 			page 17


     /tmp/ccHqBDKf.s:435    .text:00000000000002dc .L0 
     /tmp/ccHqBDKf.s:436    .text:00000000000002dc .L0 
     /tmp/ccHqBDKf.s:438    .text:00000000000002e4 .L0 
     /tmp/ccHqBDKf.s:440    .text:00000000000002e8 .L0 
     /tmp/ccHqBDKf.s:441    .text:00000000000002e8 .L0 
     /tmp/ccHqBDKf.s:443    .text:00000000000002ec .L0 
     /tmp/ccHqBDKf.s:446    .text:00000000000002f0 .L0 
     /tmp/ccHqBDKf.s:449    .text:00000000000002f4 .L0 
     /tmp/ccHqBDKf.s:451    .text:00000000000002f8 .L0 
     /tmp/ccHqBDKf.s:457    .text:00000000000002f8 _ZN8MyBuffer6getCntEv
     /tmp/ccHqBDKf.s:460    .text:00000000000002f8 .L0 
     /tmp/ccHqBDKf.s:462    .text:00000000000002f8 .L0 
     /tmp/ccHqBDKf.s:463    .text:00000000000002fc .L0 
     /tmp/ccHqBDKf.s:468    .text:000000000000030c .L0 
     /tmp/ccHqBDKf.s:469    .text:000000000000030c .L0 
     /tmp/ccHqBDKf.s:470    .text:000000000000030c .L0 
     /tmp/ccHqBDKf.s:471    .text:000000000000030c .L0 
     /tmp/ccHqBDKf.s:473    .text:0000000000000310 .L0 
     /tmp/ccHqBDKf.s:476    .text:0000000000000314 .L0 
     /tmp/ccHqBDKf.s:477    .text:0000000000000314 .L0 
     /tmp/ccHqBDKf.s:478    .text:0000000000000314 .L0 
     /tmp/ccHqBDKf.s:483    .text:0000000000000320 .L0 
     /tmp/ccHqBDKf.s:484    .text:0000000000000320 .L0 
     /tmp/ccHqBDKf.s:488    .text:000000000000032c .L0 
     /tmp/ccHqBDKf.s:489    .text:000000000000032c .L0 
     /tmp/ccHqBDKf.s:491    .text:0000000000000330 .L0 
     /tmp/ccHqBDKf.s:493    .text:0000000000000334 .L0 
     /tmp/ccHqBDKf.s:495    .text:0000000000000338 .L0 
     /tmp/ccHqBDKf.s:496    .text:0000000000000338 .L0 
     /tmp/ccHqBDKf.s:500    .text:000000000000033c .L0 
     /tmp/ccHqBDKf.s:501    .text:000000000000033c .L0 
     /tmp/ccHqBDKf.s:505    .text:0000000000000348 .L0 
     /tmp/ccHqBDKf.s:506    .text:0000000000000348 .L0 
     /tmp/ccHqBDKf.s:510    .text:0000000000000354 .L0 
     /tmp/ccHqBDKf.s:511    .text:0000000000000354 .L0 
     /tmp/ccHqBDKf.s:513    .text:000000000000035c .L0 
     /tmp/ccHqBDKf.s:514    .text:000000000000035c .L0 
     /tmp/ccHqBDKf.s:516    .text:0000000000000360 .L0 
     /tmp/ccHqBDKf.s:517    .text:0000000000000360 .L0 
     /tmp/ccHqBDKf.s:519    .text:0000000000000364 .L0 
     /tmp/ccHqBDKf.s:522    .text:0000000000000368 .L0 
     /tmp/ccHqBDKf.s:525    .text:000000000000036c .L0 
     /tmp/ccHqBDKf.s:529    .text:0000000000000370 .L0 
     /tmp/ccHqBDKf.s:531    .text:0000000000000370 .L0 
     /tmp/ccHqBDKf.s:532    .text:0000000000000370 .L0 
     /tmp/ccHqBDKf.s:534    .text:0000000000000374 .L0 
     /tmp/ccHqBDKf.s:536    .text:0000000000000378 .L0 
     /tmp/ccHqBDKf.s:538    .text:0000000000000380 .L0 
     /tmp/ccHqBDKf.s:560    .text:0000000000000380 .L0 
     /tmp/ccHqBDKf.s:42     .text:0000000000000030 .L0 
     /tmp/ccHqBDKf.s:50     .text:000000000000003c .L0 
     /tmp/ccHqBDKf.s:55     .text:0000000000000048 .L0 
     /tmp/ccHqBDKf.s:79     .text:0000000000000074 .L0 
     /tmp/ccHqBDKf.s:95     .text:000000000000008c .L0 
     /tmp/ccHqBDKf.s:105    .text:000000000000009c .L0 
     /tmp/ccHqBDKf.s:182    .text:0000000000000120 .L0 
     /tmp/ccHqBDKf.s:190    .text:000000000000012c .L0 
GAS LISTING /tmp/ccHqBDKf.s 			page 18


     /tmp/ccHqBDKf.s:195    .text:0000000000000138 .L0 
     /tmp/ccHqBDKf.s:219    .text:0000000000000164 .L0 
     /tmp/ccHqBDKf.s:235    .text:000000000000017c .L0 
     /tmp/ccHqBDKf.s:242    .text:0000000000000188 .L0 
     /tmp/ccHqBDKf.s:96     .text:0000000000000094 .L2
     /tmp/ccHqBDKf.s:74     .text:0000000000000070 .L3
     /tmp/ccHqBDKf.s:236    .text:0000000000000184 .L6
     /tmp/ccHqBDKf.s:214    .text:0000000000000160 .L7
     /tmp/ccHqBDKf.s:528    .text:0000000000000370 .L14
     /tmp/ccHqBDKf.s:498    .text:000000000000033c .L15
     /tmp/ccHqBDKf.s:1697   .debug_abbrev:0000000000000000 .Ldebug_abbrev0
     /tmp/ccHqBDKf.s:2932   .debug_str:00000000000005bf .LASF93
     /tmp/ccHqBDKf.s:2852   .debug_str:000000000000034c .LASF94
     /tmp/ccHqBDKf.s:2834   .debug_str:0000000000000282 .LASF95
     /tmp/ccHqBDKf.s:5      .text:0000000000000000 .Ltext0
     /tmp/ccHqBDKf.s:556    .text:0000000000000380 .Letext0
     /tmp/ccHqBDKf.s:2758   .debug_line:0000000000000000 .Ldebug_line0
     /tmp/ccHqBDKf.s:2876   .debug_str:00000000000003fc .LASF0
     /tmp/ccHqBDKf.s:2888   .debug_str:000000000000045d .LASF1
     /tmp/ccHqBDKf.s:2864   .debug_str:00000000000003a2 .LASF2
     /tmp/ccHqBDKf.s:2842   .debug_str:00000000000002dd .LASF4
     /tmp/ccHqBDKf.s:2920   .debug_str:0000000000000571 .LASF3
     /tmp/ccHqBDKf.s:2778   .debug_str:00000000000000b8 .LASF5
     /tmp/ccHqBDKf.s:2890   .debug_str:0000000000000470 .LASF6
     /tmp/ccHqBDKf.s:2874   .debug_str:00000000000003e9 .LASF7
     /tmp/ccHqBDKf.s:2946   .debug_str:00000000000006e4 .LASF8
     /tmp/ccHqBDKf.s:2832   .debug_str:0000000000000274 .LASF9
     /tmp/ccHqBDKf.s:2900   .debug_str:00000000000004d5 .LASF10
     /tmp/ccHqBDKf.s:2786   .debug_str:00000000000000e4 .LASF11
     /tmp/ccHqBDKf.s:2936   .debug_str:000000000000068f .LASF12
     /tmp/ccHqBDKf.s:2782   .debug_str:00000000000000c7 .LASF13
     /tmp/ccHqBDKf.s:2762   .debug_str:0000000000000011 .LASF14
     /tmp/ccHqBDKf.s:2788   .debug_str:00000000000000ef .LASF15
     /tmp/ccHqBDKf.s:2916   .debug_str:000000000000054e .LASF16
     /tmp/ccHqBDKf.s:2798   .debug_str:0000000000000155 .LASF17
     /tmp/ccHqBDKf.s:2860   .debug_str:0000000000000383 .LASF21
     /tmp/ccHqBDKf.s:2824   .debug_str:0000000000000211 .LASF96
     /tmp/ccHqBDKf.s:2930   .debug_str:00000000000005ba .LASF18
     /tmp/ccHqBDKf.s:2966   .debug_str:00000000000007af .LASF19
     /tmp/ccHqBDKf.s:2956   .debug_str:0000000000000748 .LASF20
     /tmp/ccHqBDKf.s:2934   .debug_str:0000000000000683 .LASF97
     /tmp/ccHqBDKf.s:2776   .debug_str:0000000000000094 .LASF98
     /tmp/ccHqBDKf.s:2942   .debug_str:00000000000006bd .LASF23
     /tmp/ccHqBDKf.s:2870   .debug_str:00000000000003ce .LASF22
     /tmp/ccHqBDKf.s:2848   .debug_str:000000000000031f .LASF24
     /tmp/ccHqBDKf.s:2804   .debug_str:0000000000000182 .LASF25
     /tmp/ccHqBDKf.s:2904   .debug_str:00000000000004ec .LASF26
     /tmp/ccHqBDKf.s:2910   .debug_str:0000000000000525 .LASF27
     /tmp/ccHqBDKf.s:2892   .debug_str:0000000000000483 .LASF28
     /tmp/ccHqBDKf.s:2898   .debug_str:00000000000004cb .LASF29
     /tmp/ccHqBDKf.s:2806   .debug_str:000000000000018f .LASF84
     /tmp/ccHqBDKf.s:2908   .debug_str:0000000000000519 .LASF30
     /tmp/ccHqBDKf.s:2948   .debug_str:00000000000006f4 .LASF31
     /tmp/ccHqBDKf.s:2958   .debug_str:000000000000074d .LASF33
     /tmp/ccHqBDKf.s:2818   .debug_str:00000000000001e1 .LASF32
     /tmp/ccHqBDKf.s:2846   .debug_str:00000000000002ff .LASF34
     /tmp/ccHqBDKf.s:2928   .debug_str:00000000000005b0 .LASF35
GAS LISTING /tmp/ccHqBDKf.s 			page 19


     /tmp/ccHqBDKf.s:2766   .debug_str:0000000000000036 .LASF36
     /tmp/ccHqBDKf.s:2792   .debug_str:0000000000000116 .LASF37
     /tmp/ccHqBDKf.s:2772   .debug_str:000000000000006f .LASF38
     /tmp/ccHqBDKf.s:2944   .debug_str:00000000000006d9 .LASF39
     /tmp/ccHqBDKf.s:2964   .debug_str:000000000000078e .LASF40
     /tmp/ccHqBDKf.s:2838   .debug_str:00000000000002c4 .LASF41
     /tmp/ccHqBDKf.s:2962   .debug_str:0000000000000767 .LASF42
     /tmp/ccHqBDKf.s:2938   .debug_str:000000000000069e .LASF43
     /tmp/ccHqBDKf.s:2954   .debug_str:0000000000000723 .LASF44
     /tmp/ccHqBDKf.s:2812   .debug_str:00000000000001be .LASF45
     /tmp/ccHqBDKf.s:2868   .debug_str:00000000000003b5 .LASF46
     /tmp/ccHqBDKf.s:2780   .debug_str:00000000000000bf .LASF47
     /tmp/ccHqBDKf.s:2790   .debug_str:00000000000000fb .LASF48
     /tmp/ccHqBDKf.s:2896   .debug_str:00000000000004bd .LASF49
     /tmp/ccHqBDKf.s:2796   .debug_str:0000000000000132 .LASF50
     /tmp/ccHqBDKf.s:2940   .debug_str:00000000000006af .LASF51
     /tmp/ccHqBDKf.s:2820   .debug_str:00000000000001ea .LASF52
     /tmp/ccHqBDKf.s:2902   .debug_str:00000000000004e4 .LASF53
     /tmp/ccHqBDKf.s:2826   .debug_str:0000000000000219 .LASF54
     /tmp/ccHqBDKf.s:2906   .debug_str:0000000000000511 .LASF55
     /tmp/ccHqBDKf.s:2844   .debug_str:00000000000002e4 .LASF56
     /tmp/ccHqBDKf.s:2784   .debug_str:00000000000000d7 .LASF57
     /tmp/ccHqBDKf.s:2764   .debug_str:0000000000000021 .LASF58
     /tmp/ccHqBDKf.s:2830   .debug_str:0000000000000264 .LASF59
     /tmp/ccHqBDKf.s:2886   .debug_str:0000000000000448 .LASF60
     /tmp/ccHqBDKf.s:2924   .debug_str:000000000000058d .LASF61
     /tmp/ccHqBDKf.s:2880   .debug_str:000000000000041f .LASF63
     /tmp/ccHqBDKf.s:2926   .debug_str:000000000000059d .LASF62
     /tmp/ccHqBDKf.s:2912   .debug_str:0000000000000531 .LASF64
     /tmp/ccHqBDKf.s:2894   .debug_str:00000000000004a8 .LASF65
     /tmp/ccHqBDKf.s:2854   .debug_str:000000000000035e .LASF66
     /tmp/ccHqBDKf.s:2802   .debug_str:000000000000017d .LASF67
     /tmp/ccHqBDKf.s:2866   .debug_str:00000000000003b0 .LASF68
     /tmp/ccHqBDKf.s:2822   .debug_str:000000000000020c .LASF69
     /tmp/ccHqBDKf.s:2952   .debug_str:000000000000071a .LASF70
     /tmp/ccHqBDKf.s:2914   .debug_str:0000000000000547 .LASF71
     /tmp/ccHqBDKf.s:2862   .debug_str:0000000000000393 .LASF72
     /tmp/ccHqBDKf.s:2836   .debug_str:00000000000002b6 .LASF73
     /tmp/ccHqBDKf.s:2856   .debug_str:0000000000000368 .LASF74
     /tmp/ccHqBDKf.s:2882   .debug_str:0000000000000435 .LASF75
     /tmp/ccHqBDKf.s:2760   .debug_str:0000000000000000 .LASF76
     /tmp/ccHqBDKf.s:2840   .debug_str:00000000000002d3 .LASF77
     /tmp/ccHqBDKf.s:2872   .debug_str:00000000000003d8 .LASF78
     /tmp/ccHqBDKf.s:2794   .debug_str:000000000000011f .LASF99
     /tmp/ccHqBDKf.s:2816   .debug_str:00000000000001ce .LASF100
     /tmp/ccHqBDKf.s:2774   .debug_str:000000000000008d .LASF79
     /tmp/ccHqBDKf.s:2878   .debug_str:0000000000000409 .LASF80
     /tmp/ccHqBDKf.s:2968   .debug_str:00000000000007b4 .LASF81
     /tmp/ccHqBDKf.s:2808   .debug_str:00000000000001a8 .LASF82
     /tmp/ccHqBDKf.s:2770   .debug_str:000000000000005d .LASF83
     /tmp/ccHqBDKf.s:2800   .debug_str:000000000000016b .LASF85
     /tmp/ccHqBDKf.s:458    .text:00000000000002f8 .LFB27
     /tmp/ccHqBDKf.s:539    .text:0000000000000380 .LFE27
     /tmp/ccHqBDKf.s:2960   .debug_str:0000000000000762 .LASF86
     /tmp/ccHqBDKf.s:2545   .debug_loc:0000000000000000 .LLST15
     /tmp/ccHqBDKf.s:2567   .debug_loc:000000000000005f .LLST16
     /tmp/ccHqBDKf.s:481    .text:0000000000000320 .LVL49
GAS LISTING /tmp/ccHqBDKf.s 			page 20


     /tmp/ccHqBDKf.s:486    .text:000000000000032c .LVL50
     /tmp/ccHqBDKf.s:503    .text:0000000000000348 .LVL52
     /tmp/ccHqBDKf.s:508    .text:0000000000000354 .LVL53
     /tmp/ccHqBDKf.s:376    .text:000000000000026c .LFB26
     /tmp/ccHqBDKf.s:452    .text:00000000000002f8 .LFE26
     /tmp/ccHqBDKf.s:2574   .debug_loc:0000000000000082 .LLST13
     /tmp/ccHqBDKf.s:2592   .debug_loc:00000000000000ce .LLST14
     /tmp/ccHqBDKf.s:398    .text:0000000000000294 .LVL40
     /tmp/ccHqBDKf.s:403    .text:00000000000002a0 .LVL41
     /tmp/ccHqBDKf.s:428    .text:00000000000002d0 .LVL43
     /tmp/ccHqBDKf.s:433    .text:00000000000002dc .LVL44
     /tmp/ccHqBDKf.s:296    .text:00000000000001dc .LFB25
     /tmp/ccHqBDKf.s:370    .text:000000000000026c .LFE25
     /tmp/ccHqBDKf.s:2603   .debug_loc:0000000000000104 .LLST11
     /tmp/ccHqBDKf.s:2621   .debug_loc:0000000000000150 .LLST12
     /tmp/ccHqBDKf.s:319    .text:0000000000000208 .LVL33
     /tmp/ccHqBDKf.s:324    .text:0000000000000214 .LVL34
     /tmp/ccHqBDKf.s:349    .text:0000000000000248 .LVL35
     /tmp/ccHqBDKf.s:354    .text:0000000000000254 .LVL36
     /tmp/ccHqBDKf.s:2922   .debug_str:0000000000000583 .LASF87
     /tmp/ccHqBDKf.s:2850   .debug_str:000000000000033b .LASF88
     /tmp/ccHqBDKf.s:159    .text:0000000000000108 .LFB23
     /tmp/ccHqBDKf.s:280    .text:00000000000001dc .LFE23
     /tmp/ccHqBDKf.s:2635   .debug_loc:0000000000000189 .LLST6
     /tmp/ccHqBDKf.s:178    .text:0000000000000120 .LBB25
     /tmp/ccHqBDKf.s:239    .text:0000000000000184 .LBE25
     /tmp/ccHqBDKf.s:185    .text:000000000000012c .LBB27
     /tmp/ccHqBDKf.s:232    .text:0000000000000178 .LBE27
     /tmp/ccHqBDKf.s:2653   .debug_loc:00000000000001d5 .LLST7
     /tmp/ccHqBDKf.s:187    .text:000000000000012c .LBB29
     /tmp/ccHqBDKf.s:230    .text:0000000000000178 .LBE29
     /tmp/ccHqBDKf.s:2662   .debug_loc:0000000000000201 .LLST8
     /tmp/ccHqBDKf.s:2669   .debug_loc:0000000000000224 .LLST9
     /tmp/ccHqBDKf.s:2676   .debug_loc:0000000000000247 .LLST10
     /tmp/ccHqBDKf.s:245    .text:0000000000000198 .LVL25
     /tmp/ccHqBDKf.s:250    .text:00000000000001a4 .LVL26
     /tmp/ccHqBDKf.s:255    .text:00000000000001b0 .LVL27
     /tmp/ccHqBDKf.s:260    .text:00000000000001bc .LVL28
     /tmp/ccHqBDKf.s:265    .text:00000000000001c8 .LVL29
     /tmp/ccHqBDKf.s:2810   .debug_str:00000000000001b9 .LASF101
     /tmp/ccHqBDKf.s:2858   .debug_str:0000000000000372 .LASF89
     /tmp/ccHqBDKf.s:10     .text:0000000000000000 .LFB20
     /tmp/ccHqBDKf.s:151    .text:0000000000000108 .LFE20
     /tmp/ccHqBDKf.s:2683   .debug_loc:000000000000026a .LLST0
     /tmp/ccHqBDKf.s:2701   .debug_loc:00000000000002b6 .LLST1
     /tmp/ccHqBDKf.s:37     .text:0000000000000030 .LBB13
     /tmp/ccHqBDKf.s:99     .text:0000000000000094 .LBE13
     /tmp/ccHqBDKf.s:45     .text:000000000000003c .LBB15
     /tmp/ccHqBDKf.s:92     .text:0000000000000088 .LBE15
     /tmp/ccHqBDKf.s:2715   .debug_loc:00000000000002ef .LLST2
     /tmp/ccHqBDKf.s:47     .text:000000000000003c .LBB17
     /tmp/ccHqBDKf.s:90     .text:0000000000000088 .LBE17
     /tmp/ccHqBDKf.s:2724   .debug_loc:000000000000031b .LLST3
     /tmp/ccHqBDKf.s:2731   .debug_loc:000000000000033e .LLST4
     /tmp/ccHqBDKf.s:2738   .debug_loc:0000000000000361 .LLST5
     /tmp/ccHqBDKf.s:108    .text:00000000000000ac .LVL10
     /tmp/ccHqBDKf.s:116    .text:00000000000000c0 .LVL11
GAS LISTING /tmp/ccHqBDKf.s 			page 21


     /tmp/ccHqBDKf.s:122    .text:00000000000000d0 .LVL12
     /tmp/ccHqBDKf.s:128    .text:00000000000000e0 .LVL13
     /tmp/ccHqBDKf.s:134    .text:00000000000000f0 .LVL14
     /tmp/ccHqBDKf.s:2814   .debug_str:00000000000001c4 .LASF90
     /tmp/ccHqBDKf.s:2768   .debug_str:0000000000000055 .LASF91
     /tmp/ccHqBDKf.s:2918   .debug_str:0000000000000564 .LASF92
     /tmp/ccHqBDKf.s:2950   .debug_str:0000000000000701 .LASF102
     /tmp/ccHqBDKf.s:2884   .debug_str:000000000000043f .LASF103
     /tmp/ccHqBDKf.s:2828   .debug_str:0000000000000235 .LASF104
     /tmp/ccHqBDKf.s:461    .text:00000000000002f8 .LVL47
     /tmp/ccHqBDKf.s:479    .text:0000000000000318 .LVL48
     /tmp/ccHqBDKf.s:520    .text:0000000000000364 .LVL54
     /tmp/ccHqBDKf.s:527    .text:0000000000000370 .LVL56
     /tmp/ccHqBDKf.s:497    .text:000000000000033c .LVL51
     /tmp/ccHqBDKf.s:523    .text:0000000000000368 .LVL55
     /tmp/ccHqBDKf.s:379    .text:000000000000026c .LVL38
     /tmp/ccHqBDKf.s:396    .text:000000000000028c .LVL39
     /tmp/ccHqBDKf.s:444    .text:00000000000002ec .LVL45
     /tmp/ccHqBDKf.s:414    .text:00000000000002b4 .LVL42
     /tmp/ccHqBDKf.s:447    .text:00000000000002f0 .LVL46
     /tmp/ccHqBDKf.s:299    .text:00000000000001dc .LVL31
     /tmp/ccHqBDKf.s:317    .text:0000000000000200 .LVL32
     /tmp/ccHqBDKf.s:363    .text:0000000000000260 .LVL37
     /tmp/ccHqBDKf.s:164    .text:0000000000000108 .LVL16
     /tmp/ccHqBDKf.s:243    .text:0000000000000190 .LVL24
     /tmp/ccHqBDKf.s:275    .text:00000000000001d4 .LVL30
     /tmp/ccHqBDKf.s:184    .text:000000000000012c .LVL17
     /tmp/ccHqBDKf.s:229    .text:0000000000000178 .LVL23
     /tmp/ccHqBDKf.s:192    .text:0000000000000138 .LVL18
     /tmp/ccHqBDKf.s:217    .text:0000000000000164 .LVL22
     /tmp/ccHqBDKf.s:199    .text:0000000000000148 .LVL19
     /tmp/ccHqBDKf.s:203    .text:000000000000014c .LVL20
     /tmp/ccHqBDKf.s:206    .text:0000000000000150 .LVL21
     /tmp/ccHqBDKf.s:14     .text:0000000000000000 .LVL0
     /tmp/ccHqBDKf.s:106    .text:00000000000000a4 .LVL9
     /tmp/ccHqBDKf.s:144    .text:00000000000000fc .LVL15
     /tmp/ccHqBDKf.s:102    .text:0000000000000098 .LVL8
     /tmp/ccHqBDKf.s:44     .text:000000000000003c .LVL1
     /tmp/ccHqBDKf.s:89     .text:0000000000000088 .LVL7
     /tmp/ccHqBDKf.s:52     .text:0000000000000048 .LVL2
     /tmp/ccHqBDKf.s:77     .text:0000000000000074 .LVL6
     /tmp/ccHqBDKf.s:59     .text:0000000000000058 .LVL3
     /tmp/ccHqBDKf.s:63     .text:000000000000005c .LVL4
     /tmp/ccHqBDKf.s:66     .text:0000000000000060 .LVL5
     /tmp/ccHqBDKf.s:561    .debug_info:0000000000000000 .Ldebug_info0
     /tmp/ccHqBDKf.s:283    .gcc_except_table:0000000000000000 .LLSDA23

UNDEFINED SYMBOLS
HEAP_START_ADDR
HEAP_END_ADDR
_ZN15MemoryAllocator12memory_allocEm
_ZN11MySemaphore8sem_openEPPS_m
_ZN15MemoryAllocator11memory_freeEPv
_ZN11MySemaphore9sem_closeEPS_
__gxx_personality_v0
_ZN11MySemaphore8sem_waitEPS_
_ZN11MySemaphore10sem_signalEPS_
GAS LISTING /tmp/ccHqBDKf.s 			page 22


