GAS LISTING /tmp/cc5RAsms.s 			page 1


   1              		.file	"my_buffer.cpp"
   2              		.option pic
   3              		.option norelax
   4              		.text
   5              	.Ltext0:
   6              		.align	2
   7              		.globl	_ZN8MyBufferC2Ei
   9              	_ZN8MyBufferC2Ei:
  10              	.LFB22:
  11              		.file 1 "src/my_buffer.cpp"
   1:src/my_buffer.cpp **** #include "../h/my_buffer.hpp"
   2:src/my_buffer.cpp **** 
   3:src/my_buffer.cpp **** MyBuffer::MyBuffer(int _cap) : cap(_cap + 1), head(0), tail(0) {
  12              		.loc 1 3 1
  13              		.cfi_startproc
  14              	.LVL0:
  15 0000 130101FE 		addi	sp,sp,-32
  16              		.cfi_def_cfa_offset 32
  17 0004 233C1100 		sd	ra,24(sp)
  18 0008 23388100 		sd	s0,16(sp)
  19 000c 23349100 		sd	s1,8(sp)
  20 0010 23302101 		sd	s2,0(sp)
  21              		.cfi_offset 1, -8
  22              		.cfi_offset 8, -16
  23              		.cfi_offset 9, -24
  24              		.cfi_offset 18, -32
  25 0014 13040102 		addi	s0,sp,32
  26              		.cfi_def_cfa 8, 0
  27 0018 93040500 		mv	s1,a0
  28 001c 13890500 		mv	s2,a1
  29              	.LBB15:
  30              		.loc 1 3 41 is_stmt 0
  31 0020 9B871500 		addiw	a5,a1,1
  32              		.loc 1 3 62
  33 0024 2320F500 		sw	a5,0(a0)
  34 0028 23280500 		sw	zero,16(a0)
  35 002c 232A0500 		sw	zero,20(a0)
   4:src/my_buffer.cpp ****     buffer = (int *)MemoryAllocator::getInstance().memory_alloc(sizeof(int) * cap);
  36              		.loc 1 4 5 is_stmt 1
  37              	.LBB16:
  38              	.LBB17:
  39              		.file 2 "src/../h/../h/../h/MemoryAllocator.hpp"
   1:src/../h/../h/../h/MemoryAllocator.hpp **** #ifndef _memory_allocator_hpp_
   2:src/../h/../h/../h/MemoryAllocator.hpp **** #define _memory_allocator_hpp_
   3:src/../h/../h/../h/MemoryAllocator.hpp **** 
   4:src/../h/../h/../h/MemoryAllocator.hpp **** #include "../lib/hw.h"
   5:src/../h/../h/../h/MemoryAllocator.hpp **** 
   6:src/../h/../h/../h/MemoryAllocator.hpp **** class MemoryAllocator{
   7:src/../h/../h/../h/MemoryAllocator.hpp **** public:
   8:src/../h/../h/../h/MemoryAllocator.hpp **** 
   9:src/../h/../h/../h/MemoryAllocator.hpp ****     // dodaj instancu
  10:src/../h/../h/../h/MemoryAllocator.hpp ****     static MemoryAllocator& getInstance(){
  11:src/../h/../h/../h/MemoryAllocator.hpp ****         static MemoryAllocator instance;
  40              		.loc 2 11 9
  41              		.loc 2 11 32 is_stmt 0
  42 0030 97070000 		lbu	a5,_ZGVZN15MemoryAllocator11getInstanceEvE8instance
  42      83C70700 
GAS LISTING /tmp/cc5RAsms.s 			page 2


  43 0038 638C0706 		beqz	a5,.L5
  44              	.L2:
  12:src/../h/../h/../h/MemoryAllocator.hpp ****         return instance;
  45              		.loc 2 12 9 is_stmt 1
  46              	.LBE17:
  47              	.LBE16:
  48              		.loc 1 4 79 is_stmt 0
  49 003c 83A50400 		lw	a1,0(s1)
  50              	.LVL1:
  51              		.loc 1 4 64
  52 0040 93952500 		slli	a1,a1,2
  53 0044 17050000 		lla	a0,_ZZN15MemoryAllocator11getInstanceEvE8instance
  53      13050500 
  54              	.LVL2:
  55 004c 97000000 		call	_ZN15MemoryAllocator12memory_allocEm@plt
  55      E7800000 
  56              	.LVL3:
  57              		.loc 1 4 12
  58 0054 23B4A400 		sd	a0,8(s1)
   5:src/my_buffer.cpp ****     MySemaphore::sem_open(&itemAvailable, 0);
  59              		.loc 1 5 5 is_stmt 1
  60              		.loc 1 5 26 is_stmt 0
  61 0058 93050000 		li	a1,0
  62 005c 13850402 		addi	a0,s1,32
  63 0060 97000000 		call	_ZN11MySemaphore8sem_openEPPS_m@plt
  63      E7800000 
  64              	.LVL4:
   6:src/my_buffer.cpp ****     MySemaphore::sem_open(&spaceAvailable, _cap);
  65              		.loc 1 6 5 is_stmt 1
  66              		.loc 1 6 26 is_stmt 0
  67 0068 93050900 		mv	a1,s2
  68 006c 13858401 		addi	a0,s1,24
  69 0070 97000000 		call	_ZN11MySemaphore8sem_openEPPS_m@plt
  69      E7800000 
  70              	.LVL5:
   7:src/my_buffer.cpp ****     MySemaphore::sem_open(&mutexHead, 1);
  71              		.loc 1 7 5 is_stmt 1
  72              		.loc 1 7 26 is_stmt 0
  73 0078 93051000 		li	a1,1
  74 007c 13858402 		addi	a0,s1,40
  75 0080 97000000 		call	_ZN11MySemaphore8sem_openEPPS_m@plt
  75      E7800000 
  76              	.LVL6:
   8:src/my_buffer.cpp ****     MySemaphore::sem_open(&mutexTail, 1);
  77              		.loc 1 8 5 is_stmt 1
  78              		.loc 1 8 26 is_stmt 0
  79 0088 93051000 		li	a1,1
  80 008c 13850403 		addi	a0,s1,48
  81 0090 97000000 		call	_ZN11MySemaphore8sem_openEPPS_m@plt
  81      E7800000 
  82              	.LVL7:
  83              	.LBE15:
   9:src/my_buffer.cpp **** }
  84              		.loc 1 9 1
  85 0098 83308101 		ld	ra,24(sp)
  86              		.cfi_remember_state
  87              		.cfi_restore 1
GAS LISTING /tmp/cc5RAsms.s 			page 3


  88 009c 03340101 		ld	s0,16(sp)
  89              		.cfi_restore 8
  90              		.cfi_def_cfa 2, 32
  91 00a0 83348100 		ld	s1,8(sp)
  92              		.cfi_restore 9
  93              	.LVL8:
  94 00a4 03390100 		ld	s2,0(sp)
  95              		.cfi_restore 18
  96 00a8 13010102 		addi	sp,sp,32
  97              		.cfi_def_cfa_offset 0
  98 00ac 67800000 		jr	ra
  99              	.LVL9:
 100              	.L5:
 101              		.cfi_restore_state
 102              	.LBB24:
 103              	.LBB23:
 104              	.LBB22:
 105              	.LBB18:
 106              	.LBB19:
 107              	.LBB20:
  13:src/../h/../h/../h/MemoryAllocator.hpp ****     }
  14:src/../h/../h/../h/MemoryAllocator.hpp **** 
  15:src/../h/../h/../h/MemoryAllocator.hpp ****     MemoryAllocator(const MemoryAllocator&) = delete;
  16:src/../h/../h/../h/MemoryAllocator.hpp ****     void operator=(MemoryAllocator const&) = delete;
  17:src/../h/../h/../h/MemoryAllocator.hpp **** 
  18:src/../h/../h/../h/MemoryAllocator.hpp ****     void* memory_alloc (size_t);
  19:src/../h/../h/../h/MemoryAllocator.hpp **** 
  20:src/../h/../h/../h/MemoryAllocator.hpp ****     int memory_free (void*);
  21:src/../h/../h/../h/MemoryAllocator.hpp ****     int get_mem_alloc_heap_start(){return this->heapStart;}
  22:src/../h/../h/../h/MemoryAllocator.hpp ****     int get_mem_alloc_heap_end(){return this->heapEnd;}
  23:src/../h/../h/../h/MemoryAllocator.hpp **** 
  24:src/../h/../h/../h/MemoryAllocator.hpp **** private:
  25:src/../h/../h/../h/MemoryAllocator.hpp **** 
  26:src/../h/../h/../h/MemoryAllocator.hpp ****     struct FreeMem{
  27:src/../h/../h/../h/MemoryAllocator.hpp ****         size_t size;
  28:src/../h/../h/../h/MemoryAllocator.hpp ****         FreeMem* next;
  29:src/../h/../h/../h/MemoryAllocator.hpp ****         FreeMem* prev;
  30:src/../h/../h/../h/MemoryAllocator.hpp ****     };
  31:src/../h/../h/../h/MemoryAllocator.hpp **** 
  32:src/../h/../h/../h/MemoryAllocator.hpp ****     FreeMem* fmem_head = nullptr;
  33:src/../h/../h/../h/MemoryAllocator.hpp ****     size_t heapStart;
  34:src/../h/../h/../h/MemoryAllocator.hpp ****     size_t heapEnd;
  35:src/../h/../h/../h/MemoryAllocator.hpp **** 
  36:src/../h/../h/../h/MemoryAllocator.hpp ****     MemoryAllocator(){
 108              		.loc 2 36 22
 109 00b0 17060000 		lla	a2,_ZZN15MemoryAllocator11getInstanceEvE8instance
 109      13060600 
 110              	.LBB21:
  37:src/../h/../h/../h/MemoryAllocator.hpp **** 
  38:src/../h/../h/../h/MemoryAllocator.hpp ****         heapStart = (size_t)HEAP_START_ADDR + ((size_t)HEAP_END_ADDR - (size_t)HEAP_START_ADDR) / 8
 111              		.loc 2 38 9 is_stmt 1
 112              		.loc 2 38 70 is_stmt 0
 113 00b8 97070000 		la	a5,HEAP_END_ADDR
 113      83B70700 
 114 00c0 03B70700 		ld	a4,0(a5)
 115 00c4 97070000 		la	a5,HEAP_START_ADDR
 115      83B70700 
GAS LISTING /tmp/cc5RAsms.s 			page 4


 116 00cc 83B70700 		ld	a5,0(a5)
 117 00d0 B306F740 		sub	a3,a4,a5
 118              		.loc 2 38 97
 119 00d4 93D63600 		srli	a3,a3,3
 120              		.loc 2 38 45
 121 00d8 B387D700 		add	a5,a5,a3
 122              		.loc 2 38 101
 123 00dc 93871700 		addi	a5,a5,1
 124              		.loc 2 38 19
 125 00e0 2334F600 		sd	a5,8(a2)
  39:src/../h/../h/../h/MemoryAllocator.hpp ****         heapEnd = (size_t)HEAP_END_ADDR - 1;
 126              		.loc 2 39 9 is_stmt 1
 127              		.loc 2 39 41 is_stmt 0
 128 00e4 1307F7FF 		addi	a4,a4,-1
 129              		.loc 2 39 17
 130 00e8 2338E600 		sd	a4,16(a2)
  40:src/../h/../h/../h/MemoryAllocator.hpp **** 
  41:src/../h/../h/../h/MemoryAllocator.hpp ****         // poravnaj na prvu krstenu adresu
  42:src/../h/../h/../h/MemoryAllocator.hpp ****         fmem_head = (FreeMem*)(heapStart + ((heapStart % MEM_BLOCK_SIZE != 0)?(MEM_BLOCK_SIZE - hea
 131              		.loc 2 42 9 is_stmt 1
 132              		.loc 2 42 56 is_stmt 0
 133 00ec 93F6F703 		andi	a3,a5,63
 134              		.loc 2 42 78
 135 00f0 63860600 		beqz	a3,.L3
 136 00f4 13060004 		li	a2,64
 137 00f8 B306D640 		sub	a3,a2,a3
 138              	.L3:
 139              		.loc 2 42 42
 140 00fc B387D700 		add	a5,a5,a3
 141              		.loc 2 42 19
 142 0100 97060000 		sd	a5,_ZZN15MemoryAllocator11getInstanceEvE8instance,a3
 142      23B0F600 
  43:src/../h/../h/../h/MemoryAllocator.hpp **** 
  44:src/../h/../h/../h/MemoryAllocator.hpp ****         size_t sizeInBlocks = (heapEnd - (size_t)fmem_head) / MEM_BLOCK_SIZE;
 143              		.loc 2 44 9 is_stmt 1
 144              		.loc 2 44 40 is_stmt 0
 145 0108 3307F740 		sub	a4,a4,a5
 146              		.loc 2 44 16
 147 010c 13576700 		srli	a4,a4,6
 148              	.LVL10:
  45:src/../h/../h/../h/MemoryAllocator.hpp **** 
  46:src/../h/../h/../h/MemoryAllocator.hpp ****         // napravi node
  47:src/../h/../h/../h/MemoryAllocator.hpp **** 
  48:src/../h/../h/../h/MemoryAllocator.hpp ****         fmem_head->next = nullptr;
 149              		.loc 2 48 9 is_stmt 1
 150              		.loc 2 48 25 is_stmt 0
 151 0110 23B40700 		sd	zero,8(a5)
  49:src/../h/../h/../h/MemoryAllocator.hpp ****         fmem_head->prev = nullptr;
 152              		.loc 2 49 9 is_stmt 1
 153              		.loc 2 49 25 is_stmt 0
 154 0114 23B80700 		sd	zero,16(a5)
  50:src/../h/../h/../h/MemoryAllocator.hpp ****         fmem_head->size = sizeInBlocks;
 155              		.loc 2 50 9 is_stmt 1
 156              		.loc 2 50 25 is_stmt 0
 157 0118 23B0E700 		sd	a4,0(a5)
 158              	.LVL11:
 159              	.LBE21:
GAS LISTING /tmp/cc5RAsms.s 			page 5


 160              	.LBE20:
 161              	.LBE19:
 162              	.LBE18:
  11:src/../h/../h/../h/MemoryAllocator.hpp ****         return instance;
 163              		.loc 2 11 32
 164 011c 93071000 		li	a5,1
 165 0120 17070000 		sb	a5,_ZGVZN15MemoryAllocator11getInstanceEvE8instance,a4
 165      2300F700 
 166 0128 6FF05FF1 		j	.L2
 167              	.LBE22:
 168              	.LBE23:
 169              	.LBE24:
 170              		.cfi_endproc
 171              	.LFE22:
 173              		.globl	_ZN8MyBufferC1Ei
 174              		.set	_ZN8MyBufferC1Ei,_ZN8MyBufferC2Ei
 175              		.align	2
 176              		.globl	_ZN8MyBufferD2Ev
 178              	_ZN8MyBufferD2Ev:
 179              	.LFB25:
  10:src/my_buffer.cpp **** 
  11:src/my_buffer.cpp **** MyBuffer::~MyBuffer() {
 180              		.loc 1 11 1 is_stmt 1
 181              		.cfi_startproc
 182              		.cfi_personality 0x9b,DW.ref.__gxx_personality_v0
 183              		.cfi_lsda 0x1b,.LLSDA25
 184              	.LVL12:
 185 012c 130101FE 		addi	sp,sp,-32
 186              		.cfi_def_cfa_offset 32
 187 0130 233C1100 		sd	ra,24(sp)
 188 0134 23388100 		sd	s0,16(sp)
 189 0138 23349100 		sd	s1,8(sp)
 190              		.cfi_offset 1, -8
 191              		.cfi_offset 8, -16
 192              		.cfi_offset 9, -24
 193 013c 13040102 		addi	s0,sp,32
 194              		.cfi_def_cfa 8, 0
 195 0140 93040500 		mv	s1,a0
 196              	.LBB32:
  12:src/my_buffer.cpp ****     MemoryAllocator::getInstance().memory_free((void*)buffer);
 197              		.loc 1 12 5
 198              	.LBB33:
 199              	.LBB34:
  11:src/../h/../h/../h/MemoryAllocator.hpp ****         return instance;
 200              		.loc 2 11 9
  11:src/../h/../h/../h/MemoryAllocator.hpp ****         return instance;
 201              		.loc 2 11 32 is_stmt 0
 202 0144 97070000 		lbu	a5,_ZGVZN15MemoryAllocator11getInstanceEvE8instance
 202      83C70700 
 203 014c 638E0704 		beqz	a5,.L10
 204              	.L7:
  12:src/../h/../h/../h/MemoryAllocator.hpp ****     }
 205              		.loc 2 12 9 is_stmt 1
 206              	.LBE34:
 207              	.LBE33:
 208              		.loc 1 12 47 is_stmt 0
 209 0150 83B58400 		ld	a1,8(s1)
GAS LISTING /tmp/cc5RAsms.s 			page 6


 210 0154 17050000 		lla	a0,_ZZN15MemoryAllocator11getInstanceEvE8instance
 210      13050500 
 211              	.LVL13:
 212 015c 97000000 		call	_ZN15MemoryAllocator11memory_freeEPv@plt
 212      E7800000 
 213              	.LVL14:
  13:src/my_buffer.cpp ****     MySemaphore::sem_close(itemAvailable);
 214              		.loc 1 13 5 is_stmt 1
 215              		.loc 1 13 27 is_stmt 0
 216 0164 03B50402 		ld	a0,32(s1)
 217 0168 97000000 		call	_ZN11MySemaphore9sem_closeEPS_@plt
 217      E7800000 
 218              	.LVL15:
  14:src/my_buffer.cpp ****     MySemaphore::sem_close(spaceAvailable);
 219              		.loc 1 14 5 is_stmt 1
 220              		.loc 1 14 27 is_stmt 0
 221 0170 03B58401 		ld	a0,24(s1)
 222 0174 97000000 		call	_ZN11MySemaphore9sem_closeEPS_@plt
 222      E7800000 
 223              	.LVL16:
  15:src/my_buffer.cpp ****     MySemaphore::sem_close(mutexTail);
 224              		.loc 1 15 5 is_stmt 1
 225              		.loc 1 15 27 is_stmt 0
 226 017c 03B50403 		ld	a0,48(s1)
 227 0180 97000000 		call	_ZN11MySemaphore9sem_closeEPS_@plt
 227      E7800000 
 228              	.LVL17:
  16:src/my_buffer.cpp ****     MySemaphore::sem_close(mutexHead);
 229              		.loc 1 16 5 is_stmt 1
 230              		.loc 1 16 27 is_stmt 0
 231 0188 03B58402 		ld	a0,40(s1)
 232 018c 97000000 		call	_ZN11MySemaphore9sem_closeEPS_@plt
 232      E7800000 
 233              	.LVL18:
 234              	.LBE32:
  17:src/my_buffer.cpp **** }
 235              		.loc 1 17 1
 236 0194 83308101 		ld	ra,24(sp)
 237              		.cfi_remember_state
 238              		.cfi_restore 1
 239 0198 03340101 		ld	s0,16(sp)
 240              		.cfi_restore 8
 241              		.cfi_def_cfa 2, 32
 242 019c 83348100 		ld	s1,8(sp)
 243              		.cfi_restore 9
 244              	.LVL19:
 245 01a0 13010102 		addi	sp,sp,32
 246              		.cfi_def_cfa_offset 0
 247 01a4 67800000 		jr	ra
 248              	.LVL20:
 249              	.L10:
 250              		.cfi_restore_state
 251              	.LBB41:
 252              	.LBB40:
 253              	.LBB39:
 254              	.LBB35:
 255              	.LBB36:
GAS LISTING /tmp/cc5RAsms.s 			page 7


 256              	.LBB37:
  36:src/../h/../h/../h/MemoryAllocator.hpp **** 
 257              		.loc 2 36 22
 258 01a8 17060000 		lla	a2,_ZZN15MemoryAllocator11getInstanceEvE8instance
 258      13060600 
 259              	.LBB38:
  38:src/../h/../h/../h/MemoryAllocator.hpp ****         heapEnd = (size_t)HEAP_END_ADDR - 1;
 260              		.loc 2 38 9 is_stmt 1
  38:src/../h/../h/../h/MemoryAllocator.hpp ****         heapEnd = (size_t)HEAP_END_ADDR - 1;
 261              		.loc 2 38 70 is_stmt 0
 262 01b0 97070000 		la	a5,HEAP_END_ADDR
 262      83B70700 
 263 01b8 03B70700 		ld	a4,0(a5)
 264 01bc 97070000 		la	a5,HEAP_START_ADDR
 264      83B70700 
 265 01c4 83B70700 		ld	a5,0(a5)
 266 01c8 B306F740 		sub	a3,a4,a5
  38:src/../h/../h/../h/MemoryAllocator.hpp ****         heapEnd = (size_t)HEAP_END_ADDR - 1;
 267              		.loc 2 38 97
 268 01cc 93D63600 		srli	a3,a3,3
  38:src/../h/../h/../h/MemoryAllocator.hpp ****         heapEnd = (size_t)HEAP_END_ADDR - 1;
 269              		.loc 2 38 45
 270 01d0 B387D700 		add	a5,a5,a3
  38:src/../h/../h/../h/MemoryAllocator.hpp ****         heapEnd = (size_t)HEAP_END_ADDR - 1;
 271              		.loc 2 38 101
 272 01d4 93871700 		addi	a5,a5,1
  38:src/../h/../h/../h/MemoryAllocator.hpp ****         heapEnd = (size_t)HEAP_END_ADDR - 1;
 273              		.loc 2 38 19
 274 01d8 2334F600 		sd	a5,8(a2)
  39:src/../h/../h/../h/MemoryAllocator.hpp **** 
 275              		.loc 2 39 9 is_stmt 1
  39:src/../h/../h/../h/MemoryAllocator.hpp **** 
 276              		.loc 2 39 41 is_stmt 0
 277 01dc 1307F7FF 		addi	a4,a4,-1
  39:src/../h/../h/../h/MemoryAllocator.hpp **** 
 278              		.loc 2 39 17
 279 01e0 2338E600 		sd	a4,16(a2)
  42:src/../h/../h/../h/MemoryAllocator.hpp **** 
 280              		.loc 2 42 9 is_stmt 1
  42:src/../h/../h/../h/MemoryAllocator.hpp **** 
 281              		.loc 2 42 56 is_stmt 0
 282 01e4 93F6F703 		andi	a3,a5,63
  42:src/../h/../h/../h/MemoryAllocator.hpp **** 
 283              		.loc 2 42 78
 284 01e8 63860600 		beqz	a3,.L8
 285 01ec 13060004 		li	a2,64
 286 01f0 B306D640 		sub	a3,a2,a3
 287              	.L8:
  42:src/../h/../h/../h/MemoryAllocator.hpp **** 
 288              		.loc 2 42 42
 289 01f4 B387D700 		add	a5,a5,a3
  42:src/../h/../h/../h/MemoryAllocator.hpp **** 
 290              		.loc 2 42 19
 291 01f8 97060000 		sd	a5,_ZZN15MemoryAllocator11getInstanceEvE8instance,a3
 291      23B0F600 
  44:src/../h/../h/../h/MemoryAllocator.hpp **** 
 292              		.loc 2 44 9 is_stmt 1
GAS LISTING /tmp/cc5RAsms.s 			page 8


  44:src/../h/../h/../h/MemoryAllocator.hpp **** 
 293              		.loc 2 44 40 is_stmt 0
 294 0200 3307F740 		sub	a4,a4,a5
  44:src/../h/../h/../h/MemoryAllocator.hpp **** 
 295              		.loc 2 44 16
 296 0204 13576700 		srli	a4,a4,6
 297              	.LVL21:
  48:src/../h/../h/../h/MemoryAllocator.hpp ****         fmem_head->prev = nullptr;
 298              		.loc 2 48 9 is_stmt 1
  48:src/../h/../h/../h/MemoryAllocator.hpp ****         fmem_head->prev = nullptr;
 299              		.loc 2 48 25 is_stmt 0
 300 0208 23B40700 		sd	zero,8(a5)
  49:src/../h/../h/../h/MemoryAllocator.hpp ****         fmem_head->size = sizeInBlocks;
 301              		.loc 2 49 9 is_stmt 1
  49:src/../h/../h/../h/MemoryAllocator.hpp ****         fmem_head->size = sizeInBlocks;
 302              		.loc 2 49 25 is_stmt 0
 303 020c 23B80700 		sd	zero,16(a5)
 304              		.loc 2 50 9 is_stmt 1
 305              		.loc 2 50 25 is_stmt 0
 306 0210 23B0E700 		sd	a4,0(a5)
 307              	.LVL22:
 308              	.LBE38:
 309              	.LBE37:
 310              	.LBE36:
 311              	.LBE35:
  11:src/../h/../h/../h/MemoryAllocator.hpp ****         return instance;
 312              		.loc 2 11 32
 313 0214 93071000 		li	a5,1
 314 0218 17070000 		sb	a5,_ZGVZN15MemoryAllocator11getInstanceEvE8instance,a4
 314      2300F700 
 315 0220 6FF01FF3 		j	.L7
 316              	.LBE39:
 317              	.LBE40:
 318              	.LBE41:
 319              		.cfi_endproc
 320              	.LFE25:
 321              		.globl	__gxx_personality_v0
 322              		.section	.gcc_except_table,"a",@progbits
 323              	.LLSDA25:
 324 0000 FF       		.byte	0xff
 325 0001 FF       		.byte	0xff
 326 0002 03       		.byte	0x3
 327 0003 00       		.byte	0
 328              		.text
 330              		.globl	_ZN8MyBufferD1Ev
 331              		.set	_ZN8MyBufferD1Ev,_ZN8MyBufferD2Ev
 332              		.align	2
 333              		.globl	_ZN8MyBuffer3putEi
 335              	_ZN8MyBuffer3putEi:
 336              	.LFB27:
  18:src/my_buffer.cpp **** 
  19:src/my_buffer.cpp **** void MyBuffer::put(int val) {
 337              		.loc 1 19 29 is_stmt 1
 338              		.cfi_startproc
 339              	.LVL23:
 340 0224 130101FE 		addi	sp,sp,-32
 341              		.cfi_def_cfa_offset 32
GAS LISTING /tmp/cc5RAsms.s 			page 9


 342 0228 233C1100 		sd	ra,24(sp)
 343 022c 23388100 		sd	s0,16(sp)
 344 0230 23349100 		sd	s1,8(sp)
 345 0234 23302101 		sd	s2,0(sp)
 346              		.cfi_offset 1, -8
 347              		.cfi_offset 8, -16
 348              		.cfi_offset 9, -24
 349              		.cfi_offset 18, -32
 350 0238 13040102 		addi	s0,sp,32
 351              		.cfi_def_cfa 8, 0
 352 023c 93040500 		mv	s1,a0
 353 0240 13890500 		mv	s2,a1
  20:src/my_buffer.cpp ****     MySemaphore::sem_wait(spaceAvailable);
 354              		.loc 1 20 5
 355              		.loc 1 20 26 is_stmt 0
 356 0244 03358501 		ld	a0,24(a0)
 357              	.LVL24:
 358 0248 97000000 		call	_ZN11MySemaphore8sem_waitEPS_@plt
 358      E7800000 
 359              	.LVL25:
  21:src/my_buffer.cpp **** 
  22:src/my_buffer.cpp ****     MySemaphore::sem_wait(mutexTail);
 360              		.loc 1 22 5 is_stmt 1
 361              		.loc 1 22 26 is_stmt 0
 362 0250 03B50403 		ld	a0,48(s1)
 363 0254 97000000 		call	_ZN11MySemaphore8sem_waitEPS_@plt
 363      E7800000 
 364              	.LVL26:
  23:src/my_buffer.cpp ****     buffer[tail] = val;
 365              		.loc 1 23 5 is_stmt 1
 366 025c 83B78400 		ld	a5,8(s1)
 367              		.loc 1 23 12 is_stmt 0
 368 0260 03A74401 		lw	a4,20(s1)
 369              		.loc 1 23 16
 370 0264 13172700 		slli	a4,a4,2
 371 0268 B387E700 		add	a5,a5,a4
 372              		.loc 1 23 18
 373 026c 23A02701 		sw	s2,0(a5)
  24:src/my_buffer.cpp ****     tail = (tail + 1) % cap;
 374              		.loc 1 24 5 is_stmt 1
 375              		.loc 1 24 13 is_stmt 0
 376 0270 83A74401 		lw	a5,20(s1)
 377              		.loc 1 24 18
 378 0274 9B871700 		addiw	a5,a5,1
 379              		.loc 1 24 25
 380 0278 03A70400 		lw	a4,0(s1)
 381              		.loc 1 24 23
 382 027c BBE7E702 		remw	a5,a5,a4
 383              		.loc 1 24 10
 384 0280 23AAF400 		sw	a5,20(s1)
  25:src/my_buffer.cpp ****     MySemaphore::sem_signal(mutexTail);
 385              		.loc 1 25 5 is_stmt 1
 386              		.loc 1 25 28 is_stmt 0
 387 0284 03B50403 		ld	a0,48(s1)
 388 0288 97000000 		call	_ZN11MySemaphore10sem_signalEPS_@plt
 388      E7800000 
 389              	.LVL27:
GAS LISTING /tmp/cc5RAsms.s 			page 10


  26:src/my_buffer.cpp **** 
  27:src/my_buffer.cpp ****     MySemaphore::sem_signal(itemAvailable);
 390              		.loc 1 27 5 is_stmt 1
 391              		.loc 1 27 28 is_stmt 0
 392 0290 03B50402 		ld	a0,32(s1)
 393 0294 97000000 		call	_ZN11MySemaphore10sem_signalEPS_@plt
 393      E7800000 
 394              	.LVL28:
  28:src/my_buffer.cpp **** 
  29:src/my_buffer.cpp **** }
 395              		.loc 1 29 1
 396 029c 83308101 		ld	ra,24(sp)
 397              		.cfi_restore 1
 398 02a0 03340101 		ld	s0,16(sp)
 399              		.cfi_restore 8
 400              		.cfi_def_cfa 2, 32
 401 02a4 83348100 		ld	s1,8(sp)
 402              		.cfi_restore 9
 403              	.LVL29:
 404 02a8 03390100 		ld	s2,0(sp)
 405              		.cfi_restore 18
 406 02ac 13010102 		addi	sp,sp,32
 407              		.cfi_def_cfa_offset 0
 408 02b0 67800000 		jr	ra
 409              		.cfi_endproc
 410              	.LFE27:
 412              		.align	2
 413              		.globl	_ZN8MyBuffer3getEv
 415              	_ZN8MyBuffer3getEv:
 416              	.LFB28:
  30:src/my_buffer.cpp **** 
  31:src/my_buffer.cpp **** int MyBuffer::get() {
 417              		.loc 1 31 21 is_stmt 1
 418              		.cfi_startproc
 419              	.LVL30:
 420 02b4 130101FE 		addi	sp,sp,-32
 421              		.cfi_def_cfa_offset 32
 422 02b8 233C1100 		sd	ra,24(sp)
 423 02bc 23388100 		sd	s0,16(sp)
 424 02c0 23349100 		sd	s1,8(sp)
 425 02c4 23302101 		sd	s2,0(sp)
 426              		.cfi_offset 1, -8
 427              		.cfi_offset 8, -16
 428              		.cfi_offset 9, -24
 429              		.cfi_offset 18, -32
 430 02c8 13040102 		addi	s0,sp,32
 431              		.cfi_def_cfa 8, 0
 432 02cc 93040500 		mv	s1,a0
  32:src/my_buffer.cpp ****     MySemaphore::sem_wait(itemAvailable);
 433              		.loc 1 32 5
 434              		.loc 1 32 26 is_stmt 0
 435 02d0 03350502 		ld	a0,32(a0)
 436              	.LVL31:
 437 02d4 97000000 		call	_ZN11MySemaphore8sem_waitEPS_@plt
 437      E7800000 
 438              	.LVL32:
  33:src/my_buffer.cpp **** 
GAS LISTING /tmp/cc5RAsms.s 			page 11


  34:src/my_buffer.cpp ****     MySemaphore::sem_wait(mutexHead);
 439              		.loc 1 34 5 is_stmt 1
 440              		.loc 1 34 26 is_stmt 0
 441 02dc 03B58402 		ld	a0,40(s1)
 442 02e0 97000000 		call	_ZN11MySemaphore8sem_waitEPS_@plt
 442      E7800000 
 443              	.LVL33:
  35:src/my_buffer.cpp **** 
  36:src/my_buffer.cpp ****     int ret = buffer[head];
 444              		.loc 1 36 5 is_stmt 1
 445              		.loc 1 36 15 is_stmt 0
 446 02e8 03B78400 		ld	a4,8(s1)
 447              		.loc 1 36 22
 448 02ec 83A70401 		lw	a5,16(s1)
 449              		.loc 1 36 26
 450 02f0 93962700 		slli	a3,a5,2
 451 02f4 3307D700 		add	a4,a4,a3
 452              		.loc 1 36 9
 453 02f8 03290700 		lw	s2,0(a4)
 454              	.LVL34:
  37:src/my_buffer.cpp ****     head = (head + 1) % cap;
 455              		.loc 1 37 5 is_stmt 1
 456              		.loc 1 37 18 is_stmt 0
 457 02fc 9B871700 		addiw	a5,a5,1
 458              		.loc 1 37 25
 459 0300 03A70400 		lw	a4,0(s1)
 460              		.loc 1 37 23
 461 0304 BBE7E702 		remw	a5,a5,a4
 462              		.loc 1 37 10
 463 0308 23A8F400 		sw	a5,16(s1)
  38:src/my_buffer.cpp ****     MySemaphore::sem_signal(mutexHead);
 464              		.loc 1 38 5 is_stmt 1
 465              		.loc 1 38 28 is_stmt 0
 466 030c 03B58402 		ld	a0,40(s1)
 467 0310 97000000 		call	_ZN11MySemaphore10sem_signalEPS_@plt
 467      E7800000 
 468              	.LVL35:
  39:src/my_buffer.cpp **** 
  40:src/my_buffer.cpp ****     MySemaphore::sem_signal(spaceAvailable);
 469              		.loc 1 40 5 is_stmt 1
 470              		.loc 1 40 28 is_stmt 0
 471 0318 03B58401 		ld	a0,24(s1)
 472 031c 97000000 		call	_ZN11MySemaphore10sem_signalEPS_@plt
 472      E7800000 
 473              	.LVL36:
  41:src/my_buffer.cpp **** 
  42:src/my_buffer.cpp ****     return ret;
 474              		.loc 1 42 5 is_stmt 1
  43:src/my_buffer.cpp **** }
 475              		.loc 1 43 1 is_stmt 0
 476 0324 13050900 		mv	a0,s2
 477 0328 83308101 		ld	ra,24(sp)
 478              		.cfi_restore 1
 479 032c 03340101 		ld	s0,16(sp)
 480              		.cfi_restore 8
 481              		.cfi_def_cfa 2, 32
 482 0330 83348100 		ld	s1,8(sp)
GAS LISTING /tmp/cc5RAsms.s 			page 12


 483              		.cfi_restore 9
 484              	.LVL37:
 485 0334 03390100 		ld	s2,0(sp)
 486              		.cfi_restore 18
 487              	.LVL38:
 488 0338 13010102 		addi	sp,sp,32
 489              		.cfi_def_cfa_offset 0
 490 033c 67800000 		jr	ra
 491              		.cfi_endproc
 492              	.LFE28:
 494              		.align	2
 495              		.globl	_ZN8MyBuffer6getCntEv
 497              	_ZN8MyBuffer6getCntEv:
 498              	.LFB29:
  44:src/my_buffer.cpp **** 
  45:src/my_buffer.cpp **** int MyBuffer::getCnt() {
 499              		.loc 1 45 24 is_stmt 1
 500              		.cfi_startproc
 501              	.LVL39:
 502 0340 130101FE 		addi	sp,sp,-32
 503              		.cfi_def_cfa_offset 32
 504 0344 233C1100 		sd	ra,24(sp)
 505 0348 23388100 		sd	s0,16(sp)
 506 034c 23349100 		sd	s1,8(sp)
 507 0350 23302101 		sd	s2,0(sp)
 508              		.cfi_offset 1, -8
 509              		.cfi_offset 8, -16
 510              		.cfi_offset 9, -24
 511              		.cfi_offset 18, -32
 512 0354 13040102 		addi	s0,sp,32
 513              		.cfi_def_cfa 8, 0
 514 0358 93040500 		mv	s1,a0
  46:src/my_buffer.cpp ****     int ret;
 515              		.loc 1 46 5
  47:src/my_buffer.cpp **** 
  48:src/my_buffer.cpp ****     MySemaphore::sem_wait(mutexHead);
 516              		.loc 1 48 5
 517              		.loc 1 48 26 is_stmt 0
 518 035c 03358502 		ld	a0,40(a0)
 519              	.LVL40:
 520 0360 97000000 		call	_ZN11MySemaphore8sem_waitEPS_@plt
 520      E7800000 
 521              	.LVL41:
  49:src/my_buffer.cpp ****     MySemaphore::sem_wait(mutexTail);
 522              		.loc 1 49 5 is_stmt 1
 523              		.loc 1 49 26 is_stmt 0
 524 0368 03B50403 		ld	a0,48(s1)
 525 036c 97000000 		call	_ZN11MySemaphore8sem_waitEPS_@plt
 525      E7800000 
 526              	.LVL42:
  50:src/my_buffer.cpp **** 
  51:src/my_buffer.cpp ****     if (tail >= head) {
 527              		.loc 1 51 5 is_stmt 1
 528              		.loc 1 51 9 is_stmt 0
 529 0374 83A74401 		lw	a5,20(s1)
 530              		.loc 1 51 17
 531 0378 03A90401 		lw	s2,16(s1)
GAS LISTING /tmp/cc5RAsms.s 			page 13


 532              		.loc 1 51 5
 533 037c 63CE2703 		blt	a5,s2,.L16
  52:src/my_buffer.cpp ****         ret = tail - head;
 534              		.loc 1 52 9 is_stmt 1
 535              		.loc 1 52 13 is_stmt 0
 536 0380 3B892741 		subw	s2,a5,s2
 537              	.LVL43:
 538              	.L17:
  53:src/my_buffer.cpp ****     } else {
  54:src/my_buffer.cpp ****         ret = cap - head + tail;
  55:src/my_buffer.cpp ****     }
  56:src/my_buffer.cpp **** 
  57:src/my_buffer.cpp ****     MySemaphore::sem_signal(mutexTail);
 539              		.loc 1 57 5 is_stmt 1
 540              		.loc 1 57 28 is_stmt 0
 541 0384 03B50403 		ld	a0,48(s1)
 542 0388 97000000 		call	_ZN11MySemaphore10sem_signalEPS_@plt
 542      E7800000 
 543              	.LVL44:
  58:src/my_buffer.cpp ****     MySemaphore::sem_signal(mutexHead);
 544              		.loc 1 58 5 is_stmt 1
 545              		.loc 1 58 28 is_stmt 0
 546 0390 03B58402 		ld	a0,40(s1)
 547 0394 97000000 		call	_ZN11MySemaphore10sem_signalEPS_@plt
 547      E7800000 
 548              	.LVL45:
  59:src/my_buffer.cpp **** 
  60:src/my_buffer.cpp ****     return ret;
 549              		.loc 1 60 5 is_stmt 1
  61:src/my_buffer.cpp **** }
 550              		.loc 1 61 1 is_stmt 0
 551 039c 13050900 		mv	a0,s2
 552 03a0 83308101 		ld	ra,24(sp)
 553              		.cfi_remember_state
 554              		.cfi_restore 1
 555 03a4 03340101 		ld	s0,16(sp)
 556              		.cfi_restore 8
 557              		.cfi_def_cfa 2, 32
 558 03a8 83348100 		ld	s1,8(sp)
 559              		.cfi_restore 9
 560              	.LVL46:
 561 03ac 03390100 		ld	s2,0(sp)
 562              		.cfi_restore 18
 563              	.LVL47:
 564 03b0 13010102 		addi	sp,sp,32
 565              		.cfi_def_cfa_offset 0
 566 03b4 67800000 		jr	ra
 567              	.LVL48:
 568              	.L16:
 569              		.cfi_restore_state
  54:src/my_buffer.cpp ****     }
 570              		.loc 1 54 9 is_stmt 1
  54:src/my_buffer.cpp ****     }
 571              		.loc 1 54 15 is_stmt 0
 572 03b8 03A70400 		lw	a4,0(s1)
  54:src/my_buffer.cpp ****     }
 573              		.loc 1 54 19
GAS LISTING /tmp/cc5RAsms.s 			page 14


 574 03bc 3B092741 		subw	s2,a4,s2
  54:src/my_buffer.cpp ****     }
 575              		.loc 1 54 13
 576 03c0 3B09F900 		addw	s2,s2,a5
 577 03c4 6FF01FFC 		j	.L17
 578              		.cfi_endproc
 579              	.LFE29:
 581              		.weak	_ZGVZN15MemoryAllocator11getInstanceEvE8instance
 582              		.section	.bss._ZGVZN15MemoryAllocator11getInstanceEvE8instance,"awG",@nobits,_ZGVZN15MemoryAllocat
 583              		.align	3
 586              	_ZGVZN15MemoryAllocator11getInstanceEvE8instance:
 587 0000 00000000 		.zero	8
 587      00000000 
 588              		.weak	_ZZN15MemoryAllocator11getInstanceEvE8instance
 589              		.section	.bss._ZZN15MemoryAllocator11getInstanceEvE8instance,"awG",@nobits,_ZZN15MemoryAllocator11
 590              		.align	3
 593              	_ZZN15MemoryAllocator11getInstanceEvE8instance:
 594 0000 00000000 		.zero	24
 594      00000000 
 594      00000000 
 594      00000000 
 594      00000000 
 595              		.text
 596              	.Letext0:
 597              		.file 3 "src/../h/../h/../lib/hw.h"
 598              		.file 4 "src/../h/../h/semaphore.hpp"
 599              		.file 5 "src/../h/my_buffer.hpp"
 3044              		.align	3
 3047              	DW.ref.__gxx_personality_v0:
 3048 0000 00000000 		.dword	__gxx_personality_v0
 3048      00000000 
 3049              		.ident	"GCC: (Ubuntu 9.4.0-1ubuntu1~20.04) 9.4.0"
 3050              		.section	.note.GNU-stack,"",@progbits
GAS LISTING /tmp/cc5RAsms.s 			page 15


DEFINED SYMBOLS
                            *ABS*:0000000000000000 my_buffer.cpp
     /tmp/cc5RAsms.s:9      .text:0000000000000000 _ZN8MyBufferC2Ei
     /tmp/cc5RAsms.s:13     .text:0000000000000000 .L0 
     /tmp/cc5RAsms.s:15     .text:0000000000000000 .L0 
     /tmp/cc5RAsms.s:16     .text:0000000000000004 .L0 
     /tmp/cc5RAsms.s:21     .text:0000000000000014 .L0 
     /tmp/cc5RAsms.s:22     .text:0000000000000014 .L0 
     /tmp/cc5RAsms.s:23     .text:0000000000000014 .L0 
     /tmp/cc5RAsms.s:24     .text:0000000000000014 .L0 
     /tmp/cc5RAsms.s:26     .text:0000000000000018 .L0 
     /tmp/cc5RAsms.s:31     .text:0000000000000020 .L0 
     /tmp/cc5RAsms.s:33     .text:0000000000000024 .L0 
     /tmp/cc5RAsms.s:40     .text:0000000000000030 .L0 
     /tmp/cc5RAsms.s:41     .text:0000000000000030 .L0 
     /tmp/cc5RAsms.s:586    .bss._ZGVZN15MemoryAllocator11getInstanceEvE8instance:0000000000000000 _ZGVZN15MemoryAllocator11getInstanceEvE8instance
     /tmp/cc5RAsms.s:42     .text:0000000000000030 .L0 
     /tmp/cc5RAsms.s:48     .text:000000000000003c .L0 
     /tmp/cc5RAsms.s:49     .text:000000000000003c .L0 
     /tmp/cc5RAsms.s:52     .text:0000000000000040 .L0 
     /tmp/cc5RAsms.s:593    .bss._ZZN15MemoryAllocator11getInstanceEvE8instance:0000000000000000 _ZZN15MemoryAllocator11getInstanceEvE8instance
     /tmp/cc5RAsms.s:58     .text:0000000000000054 .L0 
     /tmp/cc5RAsms.s:60     .text:0000000000000058 .L0 
     /tmp/cc5RAsms.s:61     .text:0000000000000058 .L0 
     /tmp/cc5RAsms.s:66     .text:0000000000000068 .L0 
     /tmp/cc5RAsms.s:67     .text:0000000000000068 .L0 
     /tmp/cc5RAsms.s:72     .text:0000000000000078 .L0 
     /tmp/cc5RAsms.s:73     .text:0000000000000078 .L0 
     /tmp/cc5RAsms.s:78     .text:0000000000000088 .L0 
     /tmp/cc5RAsms.s:79     .text:0000000000000088 .L0 
     /tmp/cc5RAsms.s:85     .text:0000000000000098 .L0 
     /tmp/cc5RAsms.s:86     .text:000000000000009c .L0 
     /tmp/cc5RAsms.s:87     .text:000000000000009c .L0 
     /tmp/cc5RAsms.s:89     .text:00000000000000a0 .L0 
     /tmp/cc5RAsms.s:90     .text:00000000000000a0 .L0 
     /tmp/cc5RAsms.s:92     .text:00000000000000a4 .L0 
     /tmp/cc5RAsms.s:95     .text:00000000000000a8 .L0 
     /tmp/cc5RAsms.s:97     .text:00000000000000ac .L0 
     /tmp/cc5RAsms.s:101    .text:00000000000000b0 .L0 
     /tmp/cc5RAsms.s:109    .text:00000000000000b0 .L0 
     /tmp/cc5RAsms.s:112    .text:00000000000000b8 .L0 
     /tmp/cc5RAsms.s:113    .text:00000000000000b8 .L0 
     /tmp/cc5RAsms.s:119    .text:00000000000000d4 .L0 
     /tmp/cc5RAsms.s:121    .text:00000000000000d8 .L0 
     /tmp/cc5RAsms.s:123    .text:00000000000000dc .L0 
     /tmp/cc5RAsms.s:125    .text:00000000000000e0 .L0 
     /tmp/cc5RAsms.s:127    .text:00000000000000e4 .L0 
     /tmp/cc5RAsms.s:128    .text:00000000000000e4 .L0 
     /tmp/cc5RAsms.s:130    .text:00000000000000e8 .L0 
     /tmp/cc5RAsms.s:132    .text:00000000000000ec .L0 
     /tmp/cc5RAsms.s:133    .text:00000000000000ec .L0 
     /tmp/cc5RAsms.s:135    .text:00000000000000f0 .L0 
     /tmp/cc5RAsms.s:140    .text:00000000000000fc .L0 
     /tmp/cc5RAsms.s:142    .text:0000000000000100 .L0 
     /tmp/cc5RAsms.s:144    .text:0000000000000108 .L0 
     /tmp/cc5RAsms.s:145    .text:0000000000000108 .L0 
     /tmp/cc5RAsms.s:147    .text:000000000000010c .L0 
GAS LISTING /tmp/cc5RAsms.s 			page 16


     /tmp/cc5RAsms.s:150    .text:0000000000000110 .L0 
     /tmp/cc5RAsms.s:151    .text:0000000000000110 .L0 
     /tmp/cc5RAsms.s:153    .text:0000000000000114 .L0 
     /tmp/cc5RAsms.s:154    .text:0000000000000114 .L0 
     /tmp/cc5RAsms.s:156    .text:0000000000000118 .L0 
     /tmp/cc5RAsms.s:157    .text:0000000000000118 .L0 
     /tmp/cc5RAsms.s:164    .text:000000000000011c .L0 
     /tmp/cc5RAsms.s:170    .text:000000000000012c .L0 
     /tmp/cc5RAsms.s:9      .text:0000000000000000 _ZN8MyBufferC1Ei
     /tmp/cc5RAsms.s:178    .text:000000000000012c _ZN8MyBufferD2Ev
     /tmp/cc5RAsms.s:181    .text:000000000000012c .L0 
     /tmp/cc5RAsms.s:3047   .data.rel.local.DW.ref.__gxx_personality_v0:0000000000000000 DW.ref.__gxx_personality_v0
     /tmp/cc5RAsms.s:185    .text:000000000000012c .L0 
     /tmp/cc5RAsms.s:186    .text:0000000000000130 .L0 
     /tmp/cc5RAsms.s:190    .text:000000000000013c .L0 
     /tmp/cc5RAsms.s:191    .text:000000000000013c .L0 
     /tmp/cc5RAsms.s:192    .text:000000000000013c .L0 
     /tmp/cc5RAsms.s:194    .text:0000000000000140 .L0 
     /tmp/cc5RAsms.s:200    .text:0000000000000144 .L0 
     /tmp/cc5RAsms.s:201    .text:0000000000000144 .L0 
     /tmp/cc5RAsms.s:202    .text:0000000000000144 .L0 
     /tmp/cc5RAsms.s:208    .text:0000000000000150 .L0 
     /tmp/cc5RAsms.s:209    .text:0000000000000150 .L0 
     /tmp/cc5RAsms.s:215    .text:0000000000000164 .L0 
     /tmp/cc5RAsms.s:216    .text:0000000000000164 .L0 
     /tmp/cc5RAsms.s:220    .text:0000000000000170 .L0 
     /tmp/cc5RAsms.s:221    .text:0000000000000170 .L0 
     /tmp/cc5RAsms.s:225    .text:000000000000017c .L0 
     /tmp/cc5RAsms.s:226    .text:000000000000017c .L0 
     /tmp/cc5RAsms.s:230    .text:0000000000000188 .L0 
     /tmp/cc5RAsms.s:231    .text:0000000000000188 .L0 
     /tmp/cc5RAsms.s:236    .text:0000000000000194 .L0 
     /tmp/cc5RAsms.s:237    .text:0000000000000198 .L0 
     /tmp/cc5RAsms.s:238    .text:0000000000000198 .L0 
     /tmp/cc5RAsms.s:240    .text:000000000000019c .L0 
     /tmp/cc5RAsms.s:241    .text:000000000000019c .L0 
     /tmp/cc5RAsms.s:243    .text:00000000000001a0 .L0 
     /tmp/cc5RAsms.s:246    .text:00000000000001a4 .L0 
     /tmp/cc5RAsms.s:250    .text:00000000000001a8 .L0 
     /tmp/cc5RAsms.s:258    .text:00000000000001a8 .L0 
     /tmp/cc5RAsms.s:261    .text:00000000000001b0 .L0 
     /tmp/cc5RAsms.s:262    .text:00000000000001b0 .L0 
     /tmp/cc5RAsms.s:268    .text:00000000000001cc .L0 
     /tmp/cc5RAsms.s:270    .text:00000000000001d0 .L0 
     /tmp/cc5RAsms.s:272    .text:00000000000001d4 .L0 
     /tmp/cc5RAsms.s:274    .text:00000000000001d8 .L0 
     /tmp/cc5RAsms.s:276    .text:00000000000001dc .L0 
     /tmp/cc5RAsms.s:277    .text:00000000000001dc .L0 
     /tmp/cc5RAsms.s:279    .text:00000000000001e0 .L0 
     /tmp/cc5RAsms.s:281    .text:00000000000001e4 .L0 
     /tmp/cc5RAsms.s:282    .text:00000000000001e4 .L0 
     /tmp/cc5RAsms.s:284    .text:00000000000001e8 .L0 
     /tmp/cc5RAsms.s:289    .text:00000000000001f4 .L0 
     /tmp/cc5RAsms.s:291    .text:00000000000001f8 .L0 
     /tmp/cc5RAsms.s:293    .text:0000000000000200 .L0 
     /tmp/cc5RAsms.s:294    .text:0000000000000200 .L0 
     /tmp/cc5RAsms.s:296    .text:0000000000000204 .L0 
GAS LISTING /tmp/cc5RAsms.s 			page 17


     /tmp/cc5RAsms.s:299    .text:0000000000000208 .L0 
     /tmp/cc5RAsms.s:300    .text:0000000000000208 .L0 
     /tmp/cc5RAsms.s:302    .text:000000000000020c .L0 
     /tmp/cc5RAsms.s:303    .text:000000000000020c .L0 
     /tmp/cc5RAsms.s:305    .text:0000000000000210 .L0 
     /tmp/cc5RAsms.s:306    .text:0000000000000210 .L0 
     /tmp/cc5RAsms.s:313    .text:0000000000000214 .L0 
     /tmp/cc5RAsms.s:319    .text:0000000000000224 .L0 
     /tmp/cc5RAsms.s:178    .text:000000000000012c _ZN8MyBufferD1Ev
     /tmp/cc5RAsms.s:335    .text:0000000000000224 _ZN8MyBuffer3putEi
     /tmp/cc5RAsms.s:338    .text:0000000000000224 .L0 
     /tmp/cc5RAsms.s:340    .text:0000000000000224 .L0 
     /tmp/cc5RAsms.s:341    .text:0000000000000228 .L0 
     /tmp/cc5RAsms.s:346    .text:0000000000000238 .L0 
     /tmp/cc5RAsms.s:347    .text:0000000000000238 .L0 
     /tmp/cc5RAsms.s:348    .text:0000000000000238 .L0 
     /tmp/cc5RAsms.s:349    .text:0000000000000238 .L0 
     /tmp/cc5RAsms.s:351    .text:000000000000023c .L0 
     /tmp/cc5RAsms.s:355    .text:0000000000000244 .L0 
     /tmp/cc5RAsms.s:356    .text:0000000000000244 .L0 
     /tmp/cc5RAsms.s:361    .text:0000000000000250 .L0 
     /tmp/cc5RAsms.s:362    .text:0000000000000250 .L0 
     /tmp/cc5RAsms.s:366    .text:000000000000025c .L0 
     /tmp/cc5RAsms.s:368    .text:0000000000000260 .L0 
     /tmp/cc5RAsms.s:370    .text:0000000000000264 .L0 
     /tmp/cc5RAsms.s:373    .text:000000000000026c .L0 
     /tmp/cc5RAsms.s:375    .text:0000000000000270 .L0 
     /tmp/cc5RAsms.s:376    .text:0000000000000270 .L0 
     /tmp/cc5RAsms.s:378    .text:0000000000000274 .L0 
     /tmp/cc5RAsms.s:380    .text:0000000000000278 .L0 
     /tmp/cc5RAsms.s:382    .text:000000000000027c .L0 
     /tmp/cc5RAsms.s:384    .text:0000000000000280 .L0 
     /tmp/cc5RAsms.s:386    .text:0000000000000284 .L0 
     /tmp/cc5RAsms.s:387    .text:0000000000000284 .L0 
     /tmp/cc5RAsms.s:391    .text:0000000000000290 .L0 
     /tmp/cc5RAsms.s:392    .text:0000000000000290 .L0 
     /tmp/cc5RAsms.s:396    .text:000000000000029c .L0 
     /tmp/cc5RAsms.s:397    .text:00000000000002a0 .L0 
     /tmp/cc5RAsms.s:399    .text:00000000000002a4 .L0 
     /tmp/cc5RAsms.s:400    .text:00000000000002a4 .L0 
     /tmp/cc5RAsms.s:402    .text:00000000000002a8 .L0 
     /tmp/cc5RAsms.s:405    .text:00000000000002ac .L0 
     /tmp/cc5RAsms.s:407    .text:00000000000002b0 .L0 
     /tmp/cc5RAsms.s:409    .text:00000000000002b4 .L0 
     /tmp/cc5RAsms.s:415    .text:00000000000002b4 _ZN8MyBuffer3getEv
     /tmp/cc5RAsms.s:418    .text:00000000000002b4 .L0 
     /tmp/cc5RAsms.s:420    .text:00000000000002b4 .L0 
     /tmp/cc5RAsms.s:421    .text:00000000000002b8 .L0 
     /tmp/cc5RAsms.s:426    .text:00000000000002c8 .L0 
     /tmp/cc5RAsms.s:427    .text:00000000000002c8 .L0 
     /tmp/cc5RAsms.s:428    .text:00000000000002c8 .L0 
     /tmp/cc5RAsms.s:429    .text:00000000000002c8 .L0 
     /tmp/cc5RAsms.s:431    .text:00000000000002cc .L0 
     /tmp/cc5RAsms.s:434    .text:00000000000002d0 .L0 
     /tmp/cc5RAsms.s:435    .text:00000000000002d0 .L0 
     /tmp/cc5RAsms.s:440    .text:00000000000002dc .L0 
     /tmp/cc5RAsms.s:441    .text:00000000000002dc .L0 
GAS LISTING /tmp/cc5RAsms.s 			page 18


     /tmp/cc5RAsms.s:445    .text:00000000000002e8 .L0 
     /tmp/cc5RAsms.s:446    .text:00000000000002e8 .L0 
     /tmp/cc5RAsms.s:448    .text:00000000000002ec .L0 
     /tmp/cc5RAsms.s:450    .text:00000000000002f0 .L0 
     /tmp/cc5RAsms.s:453    .text:00000000000002f8 .L0 
     /tmp/cc5RAsms.s:456    .text:00000000000002fc .L0 
     /tmp/cc5RAsms.s:457    .text:00000000000002fc .L0 
     /tmp/cc5RAsms.s:459    .text:0000000000000300 .L0 
     /tmp/cc5RAsms.s:461    .text:0000000000000304 .L0 
     /tmp/cc5RAsms.s:463    .text:0000000000000308 .L0 
     /tmp/cc5RAsms.s:465    .text:000000000000030c .L0 
     /tmp/cc5RAsms.s:466    .text:000000000000030c .L0 
     /tmp/cc5RAsms.s:470    .text:0000000000000318 .L0 
     /tmp/cc5RAsms.s:471    .text:0000000000000318 .L0 
     /tmp/cc5RAsms.s:475    .text:0000000000000324 .L0 
     /tmp/cc5RAsms.s:476    .text:0000000000000324 .L0 
     /tmp/cc5RAsms.s:478    .text:000000000000032c .L0 
     /tmp/cc5RAsms.s:480    .text:0000000000000330 .L0 
     /tmp/cc5RAsms.s:481    .text:0000000000000330 .L0 
     /tmp/cc5RAsms.s:483    .text:0000000000000334 .L0 
     /tmp/cc5RAsms.s:486    .text:0000000000000338 .L0 
     /tmp/cc5RAsms.s:489    .text:000000000000033c .L0 
     /tmp/cc5RAsms.s:491    .text:0000000000000340 .L0 
     /tmp/cc5RAsms.s:497    .text:0000000000000340 _ZN8MyBuffer6getCntEv
     /tmp/cc5RAsms.s:500    .text:0000000000000340 .L0 
     /tmp/cc5RAsms.s:502    .text:0000000000000340 .L0 
     /tmp/cc5RAsms.s:503    .text:0000000000000344 .L0 
     /tmp/cc5RAsms.s:508    .text:0000000000000354 .L0 
     /tmp/cc5RAsms.s:509    .text:0000000000000354 .L0 
     /tmp/cc5RAsms.s:510    .text:0000000000000354 .L0 
     /tmp/cc5RAsms.s:511    .text:0000000000000354 .L0 
     /tmp/cc5RAsms.s:513    .text:0000000000000358 .L0 
     /tmp/cc5RAsms.s:516    .text:000000000000035c .L0 
     /tmp/cc5RAsms.s:517    .text:000000000000035c .L0 
     /tmp/cc5RAsms.s:518    .text:000000000000035c .L0 
     /tmp/cc5RAsms.s:523    .text:0000000000000368 .L0 
     /tmp/cc5RAsms.s:524    .text:0000000000000368 .L0 
     /tmp/cc5RAsms.s:528    .text:0000000000000374 .L0 
     /tmp/cc5RAsms.s:529    .text:0000000000000374 .L0 
     /tmp/cc5RAsms.s:531    .text:0000000000000378 .L0 
     /tmp/cc5RAsms.s:533    .text:000000000000037c .L0 
     /tmp/cc5RAsms.s:535    .text:0000000000000380 .L0 
     /tmp/cc5RAsms.s:536    .text:0000000000000380 .L0 
     /tmp/cc5RAsms.s:540    .text:0000000000000384 .L0 
     /tmp/cc5RAsms.s:541    .text:0000000000000384 .L0 
     /tmp/cc5RAsms.s:545    .text:0000000000000390 .L0 
     /tmp/cc5RAsms.s:546    .text:0000000000000390 .L0 
     /tmp/cc5RAsms.s:550    .text:000000000000039c .L0 
     /tmp/cc5RAsms.s:551    .text:000000000000039c .L0 
     /tmp/cc5RAsms.s:553    .text:00000000000003a4 .L0 
     /tmp/cc5RAsms.s:554    .text:00000000000003a4 .L0 
     /tmp/cc5RAsms.s:556    .text:00000000000003a8 .L0 
     /tmp/cc5RAsms.s:557    .text:00000000000003a8 .L0 
     /tmp/cc5RAsms.s:559    .text:00000000000003ac .L0 
     /tmp/cc5RAsms.s:562    .text:00000000000003b0 .L0 
     /tmp/cc5RAsms.s:565    .text:00000000000003b4 .L0 
     /tmp/cc5RAsms.s:569    .text:00000000000003b8 .L0 
GAS LISTING /tmp/cc5RAsms.s 			page 19


     /tmp/cc5RAsms.s:571    .text:00000000000003b8 .L0 
     /tmp/cc5RAsms.s:572    .text:00000000000003b8 .L0 
     /tmp/cc5RAsms.s:574    .text:00000000000003bc .L0 
     /tmp/cc5RAsms.s:576    .text:00000000000003c0 .L0 
     /tmp/cc5RAsms.s:578    .text:00000000000003c8 .L0 
     /tmp/cc5RAsms.s:600    .text:00000000000003c8 .L0 
     /tmp/cc5RAsms.s:42     .text:0000000000000030 .L0 
     /tmp/cc5RAsms.s:53     .text:0000000000000044 .L0 
     /tmp/cc5RAsms.s:109    .text:00000000000000b0 .L0 
     /tmp/cc5RAsms.s:113    .text:00000000000000b8 .L0 
     /tmp/cc5RAsms.s:115    .text:00000000000000c4 .L0 
     /tmp/cc5RAsms.s:142    .text:0000000000000100 .L0 
     /tmp/cc5RAsms.s:165    .text:0000000000000120 .L0 
     /tmp/cc5RAsms.s:202    .text:0000000000000144 .L0 
     /tmp/cc5RAsms.s:210    .text:0000000000000154 .L0 
     /tmp/cc5RAsms.s:258    .text:00000000000001a8 .L0 
     /tmp/cc5RAsms.s:262    .text:00000000000001b0 .L0 
     /tmp/cc5RAsms.s:264    .text:00000000000001bc .L0 
     /tmp/cc5RAsms.s:291    .text:00000000000001f8 .L0 
     /tmp/cc5RAsms.s:314    .text:0000000000000218 .L0 
     /tmp/cc5RAsms.s:100    .text:00000000000000b0 .L5
     /tmp/cc5RAsms.s:138    .text:00000000000000fc .L3
     /tmp/cc5RAsms.s:44     .text:000000000000003c .L2
     /tmp/cc5RAsms.s:249    .text:00000000000001a8 .L10
     /tmp/cc5RAsms.s:287    .text:00000000000001f4 .L8
     /tmp/cc5RAsms.s:204    .text:0000000000000150 .L7
     /tmp/cc5RAsms.s:568    .text:00000000000003b8 .L16
     /tmp/cc5RAsms.s:538    .text:0000000000000384 .L17
     /tmp/cc5RAsms.s:1755   .debug_abbrev:0000000000000000 .Ldebug_abbrev0
     /tmp/cc5RAsms.s:2859   .debug_str:0000000000000150 .LASF96
     /tmp/cc5RAsms.s:2919   .debug_str:000000000000046b .LASF97
     /tmp/cc5RAsms.s:2901   .debug_str:0000000000000383 .LASF98
     /tmp/cc5RAsms.s:5      .text:0000000000000000 .Ltext0
     /tmp/cc5RAsms.s:596    .text:00000000000003c8 .Letext0
     /tmp/cc5RAsms.s:2821   .debug_line:0000000000000000 .Ldebug_line0
     /tmp/cc5RAsms.s:2943   .debug_str:000000000000051b .LASF0
     /tmp/cc5RAsms.s:2955   .debug_str:000000000000057c .LASF1
     /tmp/cc5RAsms.s:2931   .debug_str:00000000000004c1 .LASF2
     /tmp/cc5RAsms.s:2909   .debug_str:0000000000000403 .LASF4
     /tmp/cc5RAsms.s:2989   .debug_str:00000000000006a7 .LASF3
     /tmp/cc5RAsms.s:2841   .debug_str:00000000000000b8 .LASF5
     /tmp/cc5RAsms.s:2957   .debug_str:000000000000058f .LASF6
     /tmp/cc5RAsms.s:2941   .debug_str:0000000000000508 .LASF7
     /tmp/cc5RAsms.s:3015   .debug_str:0000000000000760 .LASF8
     /tmp/cc5RAsms.s:2899   .debug_str:0000000000000375 .LASF9
     /tmp/cc5RAsms.s:2967   .debug_str:00000000000005f4 .LASF10
     /tmp/cc5RAsms.s:2849   .debug_str:00000000000000e4 .LASF11
     /tmp/cc5RAsms.s:3005   .debug_str:000000000000070b .LASF12
     /tmp/cc5RAsms.s:2845   .debug_str:00000000000000c7 .LASF13
     /tmp/cc5RAsms.s:2825   .debug_str:0000000000000011 .LASF14
     /tmp/cc5RAsms.s:2853   .debug_str:0000000000000120 .LASF15
     /tmp/cc5RAsms.s:2983   .debug_str:000000000000066d .LASF16
     /tmp/cc5RAsms.s:2865   .debug_str:0000000000000256 .LASF17
     /tmp/cc5RAsms.s:2927   .debug_str:00000000000004a2 .LASF21
     /tmp/cc5RAsms.s:2891   .debug_str:0000000000000312 .LASF99
     /tmp/cc5RAsms.s:2999   .debug_str:00000000000006f0 .LASF18
     /tmp/cc5RAsms.s:3037   .debug_str:000000000000084b .LASF19
GAS LISTING /tmp/cc5RAsms.s 			page 20


     /tmp/cc5RAsms.s:3027   .debug_str:00000000000007e4 .LASF20
     /tmp/cc5RAsms.s:3003   .debug_str:00000000000006ff .LASF100
     /tmp/cc5RAsms.s:2839   .debug_str:0000000000000094 .LASF101
     /tmp/cc5RAsms.s:3011   .debug_str:0000000000000739 .LASF23
     /tmp/cc5RAsms.s:2937   .debug_str:00000000000004ed .LASF22
     /tmp/cc5RAsms.s:2915   .debug_str:000000000000043e .LASF24
     /tmp/cc5RAsms.s:2871   .debug_str:0000000000000283 .LASF25
     /tmp/cc5RAsms.s:2971   .debug_str:000000000000060b .LASF26
     /tmp/cc5RAsms.s:2977   .debug_str:0000000000000644 .LASF27
     /tmp/cc5RAsms.s:2959   .debug_str:00000000000005a2 .LASF28
     /tmp/cc5RAsms.s:2913   .debug_str:0000000000000425 .LASF29
     /tmp/cc5RAsms.s:2851   .debug_str:00000000000000ef .LASF30
     /tmp/cc5RAsms.s:2985   .debug_str:0000000000000683 .LASF31
     /tmp/cc5RAsms.s:2907   .debug_str:00000000000003d4 .LASF32
     /tmp/cc5RAsms.s:2965   .debug_str:00000000000005ea .LASF33
     /tmp/cc5RAsms.s:2881   .debug_str:00000000000002c5 .LASF34
     /tmp/cc5RAsms.s:2831   .debug_str:0000000000000055 .LASF35
     /tmp/cc5RAsms.s:2873   .debug_str:0000000000000290 .LASF90
     /tmp/cc5RAsms.s:2975   .debug_str:0000000000000638 .LASF36
     /tmp/cc5RAsms.s:3017   .debug_str:0000000000000770 .LASF37
     /tmp/cc5RAsms.s:3029   .debug_str:00000000000007e9 .LASF39
     /tmp/cc5RAsms.s:2885   .debug_str:00000000000002e2 .LASF38
     /tmp/cc5RAsms.s:3019   .debug_str:000000000000077d .LASF40
     /tmp/cc5RAsms.s:2997   .debug_str:00000000000006e6 .LASF41
     /tmp/cc5RAsms.s:2829   .debug_str:0000000000000036 .LASF42
     /tmp/cc5RAsms.s:2857   .debug_str:0000000000000147 .LASF43
     /tmp/cc5RAsms.s:2835   .debug_str:000000000000006f .LASF44
     /tmp/cc5RAsms.s:3013   .debug_str:0000000000000755 .LASF45
     /tmp/cc5RAsms.s:3035   .debug_str:000000000000082a .LASF46
     /tmp/cc5RAsms.s:2905   .debug_str:00000000000003c5 .LASF47
     /tmp/cc5RAsms.s:3033   .debug_str:0000000000000803 .LASF48
     /tmp/cc5RAsms.s:3007   .debug_str:000000000000071a .LASF49
     /tmp/cc5RAsms.s:3025   .debug_str:00000000000007bf .LASF50
     /tmp/cc5RAsms.s:2879   .debug_str:00000000000002bf .LASF51
     /tmp/cc5RAsms.s:2935   .debug_str:00000000000004d4 .LASF52
     /tmp/cc5RAsms.s:2843   .debug_str:00000000000000bf .LASF53
     /tmp/cc5RAsms.s:2855   .debug_str:000000000000012c .LASF54
     /tmp/cc5RAsms.s:2963   .debug_str:00000000000005dc .LASF55
     /tmp/cc5RAsms.s:2863   .debug_str:0000000000000233 .LASF56
     /tmp/cc5RAsms.s:3009   .debug_str:000000000000072b .LASF57
     /tmp/cc5RAsms.s:2887   .debug_str:00000000000002eb .LASF58
     /tmp/cc5RAsms.s:2969   .debug_str:0000000000000603 .LASF59
     /tmp/cc5RAsms.s:2893   .debug_str:000000000000031a .LASF60
     /tmp/cc5RAsms.s:2973   .debug_str:0000000000000630 .LASF61
     /tmp/cc5RAsms.s:2911   .debug_str:000000000000040a .LASF62
     /tmp/cc5RAsms.s:2847   .debug_str:00000000000000d7 .LASF63
     /tmp/cc5RAsms.s:2827   .debug_str:0000000000000021 .LASF64
     /tmp/cc5RAsms.s:2897   .debug_str:0000000000000365 .LASF65
     /tmp/cc5RAsms.s:2953   .debug_str:0000000000000567 .LASF66
     /tmp/cc5RAsms.s:2993   .debug_str:00000000000006c3 .LASF67
     /tmp/cc5RAsms.s:2947   .debug_str:000000000000053e .LASF69
     /tmp/cc5RAsms.s:2995   .debug_str:00000000000006d3 .LASF68
     /tmp/cc5RAsms.s:2979   .debug_str:0000000000000650 .LASF70
     /tmp/cc5RAsms.s:2961   .debug_str:00000000000005c7 .LASF71
     /tmp/cc5RAsms.s:2921   .debug_str:000000000000047d .LASF72
     /tmp/cc5RAsms.s:2869   .debug_str:000000000000027e .LASF73
     /tmp/cc5RAsms.s:2933   .debug_str:00000000000004cf .LASF74
GAS LISTING /tmp/cc5RAsms.s 			page 21


     /tmp/cc5RAsms.s:2889   .debug_str:000000000000030d .LASF75
     /tmp/cc5RAsms.s:3023   .debug_str:00000000000007b6 .LASF76
     /tmp/cc5RAsms.s:2981   .debug_str:0000000000000666 .LASF77
     /tmp/cc5RAsms.s:2929   .debug_str:00000000000004b2 .LASF78
     /tmp/cc5RAsms.s:2903   .debug_str:00000000000003b7 .LASF79
     /tmp/cc5RAsms.s:2923   .debug_str:0000000000000487 .LASF80
     /tmp/cc5RAsms.s:2949   .debug_str:0000000000000554 .LASF81
     /tmp/cc5RAsms.s:2823   .debug_str:0000000000000000 .LASF82
     /tmp/cc5RAsms.s:3001   .debug_str:00000000000006f5 .LASF83
     /tmp/cc5RAsms.s:2939   .debug_str:00000000000004f7 .LASF84
     /tmp/cc5RAsms.s:2861   .debug_str:0000000000000220 .LASF102
     /tmp/cc5RAsms.s:2883   .debug_str:00000000000002cf .LASF103
     /tmp/cc5RAsms.s:2837   .debug_str:000000000000008d .LASF85
     /tmp/cc5RAsms.s:2945   .debug_str:0000000000000528 .LASF86
     /tmp/cc5RAsms.s:3039   .debug_str:0000000000000850 .LASF87
     /tmp/cc5RAsms.s:2875   .debug_str:00000000000002a9 .LASF88
     /tmp/cc5RAsms.s:2833   .debug_str:000000000000005d .LASF89
     /tmp/cc5RAsms.s:2867   .debug_str:000000000000026c .LASF91
     /tmp/cc5RAsms.s:498    .text:0000000000000340 .LFB29
     /tmp/cc5RAsms.s:579    .text:00000000000003c8 .LFE29
     /tmp/cc5RAsms.s:3031   .debug_str:00000000000007fe .LASF92
     /tmp/cc5RAsms.s:2610   .debug_loc:0000000000000000 .LLST11
     /tmp/cc5RAsms.s:2632   .debug_loc:000000000000005f .LLST12
     /tmp/cc5RAsms.s:521    .text:0000000000000368 .LVL41
     /tmp/cc5RAsms.s:526    .text:0000000000000374 .LVL42
     /tmp/cc5RAsms.s:543    .text:0000000000000390 .LVL44
     /tmp/cc5RAsms.s:548    .text:000000000000039c .LVL45
     /tmp/cc5RAsms.s:416    .text:00000000000002b4 .LFB28
     /tmp/cc5RAsms.s:492    .text:0000000000000340 .LFE28
     /tmp/cc5RAsms.s:2639   .debug_loc:0000000000000082 .LLST9
     /tmp/cc5RAsms.s:2657   .debug_loc:00000000000000ce .LLST10
     /tmp/cc5RAsms.s:438    .text:00000000000002dc .LVL32
     /tmp/cc5RAsms.s:443    .text:00000000000002e8 .LVL33
     /tmp/cc5RAsms.s:468    .text:0000000000000318 .LVL35
     /tmp/cc5RAsms.s:473    .text:0000000000000324 .LVL36
     /tmp/cc5RAsms.s:336    .text:0000000000000224 .LFB27
     /tmp/cc5RAsms.s:410    .text:00000000000002b4 .LFE27
     /tmp/cc5RAsms.s:2668   .debug_loc:0000000000000104 .LLST7
     /tmp/cc5RAsms.s:2686   .debug_loc:0000000000000150 .LLST8
     /tmp/cc5RAsms.s:359    .text:0000000000000250 .LVL25
     /tmp/cc5RAsms.s:364    .text:000000000000025c .LVL26
     /tmp/cc5RAsms.s:389    .text:0000000000000290 .LVL27
     /tmp/cc5RAsms.s:394    .text:000000000000029c .LVL28
     /tmp/cc5RAsms.s:2991   .debug_str:00000000000006b9 .LASF93
     /tmp/cc5RAsms.s:2917   .debug_str:000000000000045a .LASF94
     /tmp/cc5RAsms.s:179    .text:000000000000012c .LFB25
     /tmp/cc5RAsms.s:320    .text:0000000000000224 .LFE25
     /tmp/cc5RAsms.s:2700   .debug_loc:0000000000000189 .LLST4
     /tmp/cc5RAsms.s:198    .text:0000000000000144 .LBB33
     /tmp/cc5RAsms.s:2807   .debug_ranges:0000000000000000 .Ldebug_ranges0
     /tmp/cc5RAsms.s:254    .text:00000000000001a8 .LBB35
     /tmp/cc5RAsms.s:311    .text:0000000000000214 .LBE35
     /tmp/cc5RAsms.s:2722   .debug_loc:00000000000001e8 .LLST5
     /tmp/cc5RAsms.s:259    .text:00000000000001b0 .LBB38
     /tmp/cc5RAsms.s:308    .text:0000000000000214 .LBE38
     /tmp/cc5RAsms.s:2731   .debug_loc:0000000000000214 .LLST6
     /tmp/cc5RAsms.s:213    .text:0000000000000164 .LVL14
GAS LISTING /tmp/cc5RAsms.s 			page 22


     /tmp/cc5RAsms.s:218    .text:0000000000000170 .LVL15
     /tmp/cc5RAsms.s:223    .text:000000000000017c .LVL16
     /tmp/cc5RAsms.s:228    .text:0000000000000188 .LVL17
     /tmp/cc5RAsms.s:233    .text:0000000000000194 .LVL18
     /tmp/cc5RAsms.s:2877   .debug_str:00000000000002ba .LASF104
     /tmp/cc5RAsms.s:2925   .debug_str:0000000000000491 .LASF95
     /tmp/cc5RAsms.s:10     .text:0000000000000000 .LFB22
     /tmp/cc5RAsms.s:171    .text:000000000000012c .LFE22
     /tmp/cc5RAsms.s:2738   .debug_loc:0000000000000237 .LLST0
     /tmp/cc5RAsms.s:2760   .debug_loc:0000000000000296 .LLST1
     /tmp/cc5RAsms.s:37     .text:0000000000000030 .LBB16
     /tmp/cc5RAsms.s:105    .text:00000000000000b0 .LBB18
     /tmp/cc5RAsms.s:162    .text:000000000000011c .LBE18
     /tmp/cc5RAsms.s:2778   .debug_loc:00000000000002e2 .LLST2
     /tmp/cc5RAsms.s:110    .text:00000000000000b8 .LBB21
     /tmp/cc5RAsms.s:159    .text:000000000000011c .LBE21
     /tmp/cc5RAsms.s:2787   .debug_loc:000000000000030e .LLST3
     /tmp/cc5RAsms.s:56     .text:0000000000000054 .LVL3
     /tmp/cc5RAsms.s:64     .text:0000000000000068 .LVL4
     /tmp/cc5RAsms.s:70     .text:0000000000000078 .LVL5
     /tmp/cc5RAsms.s:76     .text:0000000000000088 .LVL6
     /tmp/cc5RAsms.s:82     .text:0000000000000098 .LVL7
     /tmp/cc5RAsms.s:2987   .debug_str:000000000000069a .LASF105
     /tmp/cc5RAsms.s:3021   .debug_str:000000000000079d .LASF106
     /tmp/cc5RAsms.s:2951   .debug_str:000000000000055e .LASF107
     /tmp/cc5RAsms.s:2895   .debug_str:0000000000000336 .LASF108
     /tmp/cc5RAsms.s:501    .text:0000000000000340 .LVL39
     /tmp/cc5RAsms.s:519    .text:0000000000000360 .LVL40
     /tmp/cc5RAsms.s:560    .text:00000000000003ac .LVL46
     /tmp/cc5RAsms.s:567    .text:00000000000003b8 .LVL48
     /tmp/cc5RAsms.s:537    .text:0000000000000384 .LVL43
     /tmp/cc5RAsms.s:563    .text:00000000000003b0 .LVL47
     /tmp/cc5RAsms.s:419    .text:00000000000002b4 .LVL30
     /tmp/cc5RAsms.s:436    .text:00000000000002d4 .LVL31
     /tmp/cc5RAsms.s:484    .text:0000000000000334 .LVL37
     /tmp/cc5RAsms.s:454    .text:00000000000002fc .LVL34
     /tmp/cc5RAsms.s:487    .text:0000000000000338 .LVL38
     /tmp/cc5RAsms.s:339    .text:0000000000000224 .LVL23
     /tmp/cc5RAsms.s:357    .text:0000000000000248 .LVL24
     /tmp/cc5RAsms.s:403    .text:00000000000002a8 .LVL29
     /tmp/cc5RAsms.s:184    .text:000000000000012c .LVL12
     /tmp/cc5RAsms.s:211    .text:000000000000015c .LVL13
     /tmp/cc5RAsms.s:244    .text:00000000000001a0 .LVL19
     /tmp/cc5RAsms.s:248    .text:00000000000001a8 .LVL20
     /tmp/cc5RAsms.s:307    .text:0000000000000214 .LVL22
     /tmp/cc5RAsms.s:297    .text:0000000000000208 .LVL21
     /tmp/cc5RAsms.s:14     .text:0000000000000000 .LVL0
     /tmp/cc5RAsms.s:54     .text:000000000000004c .LVL2
     /tmp/cc5RAsms.s:93     .text:00000000000000a4 .LVL8
     /tmp/cc5RAsms.s:99     .text:00000000000000b0 .LVL9
     /tmp/cc5RAsms.s:50     .text:0000000000000040 .LVL1
     /tmp/cc5RAsms.s:158    .text:000000000000011c .LVL11
     /tmp/cc5RAsms.s:148    .text:0000000000000110 .LVL10
     /tmp/cc5RAsms.s:601    .debug_info:0000000000000000 .Ldebug_info0
     /tmp/cc5RAsms.s:47     .text:000000000000003c .LBE16
     /tmp/cc5RAsms.s:103    .text:00000000000000b0 .LBB23
     /tmp/cc5RAsms.s:168    .text:000000000000012c .LBE23
GAS LISTING /tmp/cc5RAsms.s 			page 23


     /tmp/cc5RAsms.s:207    .text:0000000000000150 .LBE33
     /tmp/cc5RAsms.s:252    .text:00000000000001a8 .LBB40
     /tmp/cc5RAsms.s:317    .text:0000000000000224 .LBE40
     /tmp/cc5RAsms.s:323    .gcc_except_table:0000000000000000 .LLSDA25

UNDEFINED SYMBOLS
_ZN15MemoryAllocator12memory_allocEm
_ZN11MySemaphore8sem_openEPPS_m
HEAP_END_ADDR
HEAP_START_ADDR
_ZN15MemoryAllocator11memory_freeEPv
_ZN11MySemaphore9sem_closeEPS_
__gxx_personality_v0
_ZN11MySemaphore8sem_waitEPS_
_ZN11MySemaphore10sem_signalEPS_
