GAS LISTING /tmp/cc5do5qQ.s 			page 1


   1              		.file	"my_buffer.cpp"
   2              		.option pic
   3              		.option norelax
   4              		.text
   5              	.Ltext0:
   6              		.align	2
   7              		.globl	_ZN8MyBuffer12buffer_setupEPv
   9              	_ZN8MyBuffer12buffer_setupEPv:
  10              	.LFB22:
  11              		.file 1 "src/my_buffer.cpp"
   1:src/my_buffer.cpp **** #include "../h/my_buffer.hpp"
   2:src/my_buffer.cpp **** 
   3:src/my_buffer.cpp **** kmem_cache_t* MyBuffer::buffer_cache = nullptr;
   4:src/my_buffer.cpp **** 
   5:src/my_buffer.cpp **** void MyBuffer::put(int val) {
   6:src/my_buffer.cpp ****     MySemaphore::sem_wait(spaceAvailable);
   7:src/my_buffer.cpp **** 
   8:src/my_buffer.cpp ****     MySemaphore::sem_wait(mutexTail);
   9:src/my_buffer.cpp ****     if(buffer == nullptr)buffer = (int*)kmalloc(sizeof(int) * cap);
  10:src/my_buffer.cpp ****     buffer[tail] = val;
  11:src/my_buffer.cpp ****     tail = (tail + 1) % cap;
  12:src/my_buffer.cpp ****     MySemaphore::sem_signal(mutexTail);
  13:src/my_buffer.cpp **** 
  14:src/my_buffer.cpp ****     MySemaphore::sem_signal(itemAvailable);
  15:src/my_buffer.cpp **** 
  16:src/my_buffer.cpp **** }
  17:src/my_buffer.cpp **** 
  18:src/my_buffer.cpp **** int MyBuffer::get() {
  19:src/my_buffer.cpp ****     MySemaphore::sem_wait(itemAvailable);
  20:src/my_buffer.cpp **** 
  21:src/my_buffer.cpp ****     MySemaphore::sem_wait(mutexHead);
  22:src/my_buffer.cpp ****     if(buffer == nullptr)buffer = (int*)kmalloc(sizeof(int) * cap);
  23:src/my_buffer.cpp ****     int ret = buffer[head];
  24:src/my_buffer.cpp ****     head = (head + 1) % cap;
  25:src/my_buffer.cpp ****     MySemaphore::sem_signal(mutexHead);
  26:src/my_buffer.cpp **** 
  27:src/my_buffer.cpp ****     MySemaphore::sem_signal(spaceAvailable);
  28:src/my_buffer.cpp **** 
  29:src/my_buffer.cpp ****     return ret;
  30:src/my_buffer.cpp **** }
  31:src/my_buffer.cpp **** 
  32:src/my_buffer.cpp **** int MyBuffer::getCnt() {
  33:src/my_buffer.cpp ****     int ret;
  34:src/my_buffer.cpp **** 
  35:src/my_buffer.cpp ****     MySemaphore::sem_wait(mutexHead);
  36:src/my_buffer.cpp ****     MySemaphore::sem_wait(mutexTail);
  37:src/my_buffer.cpp **** 
  38:src/my_buffer.cpp ****     if (tail >= head) {
  39:src/my_buffer.cpp ****         ret = tail - head;
  40:src/my_buffer.cpp ****     } else {
  41:src/my_buffer.cpp ****         ret = cap - head + tail;
  42:src/my_buffer.cpp ****     }
  43:src/my_buffer.cpp **** 
  44:src/my_buffer.cpp ****     MySemaphore::sem_signal(mutexTail);
  45:src/my_buffer.cpp ****     MySemaphore::sem_signal(mutexHead);
  46:src/my_buffer.cpp **** 
  47:src/my_buffer.cpp ****     return ret;
GAS LISTING /tmp/cc5do5qQ.s 			page 2


  48:src/my_buffer.cpp **** }
  49:src/my_buffer.cpp **** 
  50:src/my_buffer.cpp **** kmem_cache_t* &MyBuffer::get_buffer_cache() {
  51:src/my_buffer.cpp ****     if(buffer_cache)return buffer_cache;
  52:src/my_buffer.cpp ****     buffer_cache = kmem_cache_create("buffer_cache", sizeof(MyBuffer), &buffer_setup, &buffer_destr
  53:src/my_buffer.cpp ****     return buffer_cache;
  54:src/my_buffer.cpp **** }
  55:src/my_buffer.cpp **** 
  56:src/my_buffer.cpp **** void MyBuffer::buffer_setup(void *myBuffer) {
  12              		.loc 1 56 45
  13              		.cfi_startproc
  14              	.LVL0:
  15 0000 130101FE 		addi	sp,sp,-32
  16              		.cfi_def_cfa_offset 32
  17 0004 233C1100 		sd	ra,24(sp)
  18 0008 23388100 		sd	s0,16(sp)
  19 000c 23349100 		sd	s1,8(sp)
  20              		.cfi_offset 1, -8
  21              		.cfi_offset 8, -16
  22              		.cfi_offset 9, -24
  23 0010 13040102 		addi	s0,sp,32
  24              		.cfi_def_cfa 8, 0
  25 0014 93040500 		mv	s1,a0
  57:src/my_buffer.cpp ****     MyBuffer* buffer = (MyBuffer*)myBuffer;
  26              		.loc 1 57 5
  27              	.LVL1:
  58:src/my_buffer.cpp ****     buffer->cap = DEFAULT_BUFFER_SIZE + 1;
  28              		.loc 1 58 5
  29              		.loc 1 58 17 is_stmt 0
  30 0018 93070040 		li	a5,1024
  31 001c 2320F500 		sw	a5,0(a0)
  59:src/my_buffer.cpp ****     buffer->head = 0;
  32              		.loc 1 59 5 is_stmt 1
  33              		.loc 1 59 18 is_stmt 0
  34 0020 23280500 		sw	zero,16(a0)
  60:src/my_buffer.cpp ****     buffer->tail = 0;
  35              		.loc 1 60 5 is_stmt 1
  36              		.loc 1 60 18 is_stmt 0
  37 0024 232A0500 		sw	zero,20(a0)
  61:src/my_buffer.cpp ****     buffer->buffer = nullptr;
  38              		.loc 1 61 5 is_stmt 1
  39              		.loc 1 61 20 is_stmt 0
  40 0028 23340500 		sd	zero,8(a0)
  62:src/my_buffer.cpp ****     MySemaphore::sem_open(&buffer->itemAvailable, 0);
  41              		.loc 1 62 5 is_stmt 1
  42              		.loc 1 62 26 is_stmt 0
  43 002c 93050000 		li	a1,0
  44 0030 13050502 		addi	a0,a0,32
  45              	.LVL2:
  46 0034 97000000 		call	_ZN11MySemaphore8sem_openEPPS_m@plt
  46      E7800000 
  47              	.LVL3:
  63:src/my_buffer.cpp ****     MySemaphore::sem_open(&buffer->spaceAvailable, buffer->cap);
  48              		.loc 1 63 5 is_stmt 1
  49              		.loc 1 63 26 is_stmt 0
  50 003c 83A50400 		lw	a1,0(s1)
  51 0040 13858401 		addi	a0,s1,24
GAS LISTING /tmp/cc5do5qQ.s 			page 3


  52 0044 97000000 		call	_ZN11MySemaphore8sem_openEPPS_m@plt
  52      E7800000 
  53              	.LVL4:
  64:src/my_buffer.cpp ****     MySemaphore::sem_open(&buffer->mutexHead, 1);
  54              		.loc 1 64 5 is_stmt 1
  55              		.loc 1 64 26 is_stmt 0
  56 004c 93051000 		li	a1,1
  57 0050 13858402 		addi	a0,s1,40
  58 0054 97000000 		call	_ZN11MySemaphore8sem_openEPPS_m@plt
  58      E7800000 
  59              	.LVL5:
  65:src/my_buffer.cpp ****     MySemaphore::sem_open(&buffer->mutexTail, 1);
  60              		.loc 1 65 5 is_stmt 1
  61              		.loc 1 65 26 is_stmt 0
  62 005c 93051000 		li	a1,1
  63 0060 13850403 		addi	a0,s1,48
  64 0064 97000000 		call	_ZN11MySemaphore8sem_openEPPS_m@plt
  64      E7800000 
  65              	.LVL6:
  66:src/my_buffer.cpp **** }
  66              		.loc 1 66 1
  67 006c 83308101 		ld	ra,24(sp)
  68              		.cfi_restore 1
  69 0070 03340101 		ld	s0,16(sp)
  70              		.cfi_restore 8
  71              		.cfi_def_cfa 2, 32
  72 0074 83348100 		ld	s1,8(sp)
  73              		.cfi_restore 9
  74              	.LVL7:
  75 0078 13010102 		addi	sp,sp,32
  76              		.cfi_def_cfa_offset 0
  77 007c 67800000 		jr	ra
  78              		.cfi_endproc
  79              	.LFE22:
  81              		.align	2
  82              		.globl	_ZN8MyBuffer14buffer_destroyEPv
  84              	_ZN8MyBuffer14buffer_destroyEPv:
  85              	.LFB23:
  67:src/my_buffer.cpp **** 
  68:src/my_buffer.cpp **** void MyBuffer::buffer_destroy(void *myBuffer) {
  86              		.loc 1 68 47 is_stmt 1
  87              		.cfi_startproc
  88              	.LVL8:
  89 0080 130101FE 		addi	sp,sp,-32
  90              		.cfi_def_cfa_offset 32
  91 0084 233C1100 		sd	ra,24(sp)
  92 0088 23388100 		sd	s0,16(sp)
  93 008c 23349100 		sd	s1,8(sp)
  94              		.cfi_offset 1, -8
  95              		.cfi_offset 8, -16
  96              		.cfi_offset 9, -24
  97 0090 13040102 		addi	s0,sp,32
  98              		.cfi_def_cfa 8, 0
  99 0094 93040500 		mv	s1,a0
  69:src/my_buffer.cpp ****     MyBuffer* buffer = (MyBuffer*)myBuffer;
 100              		.loc 1 69 5
 101              	.LVL9:
GAS LISTING /tmp/cc5do5qQ.s 			page 4


  70:src/my_buffer.cpp ****     kfree(buffer->buffer);
 102              		.loc 1 70 5
 103              		.loc 1 70 10 is_stmt 0
 104 0098 03358500 		ld	a0,8(a0)
 105              	.LVL10:
 106 009c 97000000 		call	_Z5kfreePKv@plt
 106      E7800000 
 107              	.LVL11:
  71:src/my_buffer.cpp ****     MySemaphore::sem_close(buffer->itemAvailable);
 108              		.loc 1 71 5 is_stmt 1
 109              		.loc 1 71 27 is_stmt 0
 110 00a4 03B50402 		ld	a0,32(s1)
 111 00a8 97000000 		call	_ZN11MySemaphore9sem_closeEPS_@plt
 111      E7800000 
 112              	.LVL12:
  72:src/my_buffer.cpp ****     MySemaphore::sem_close(buffer->spaceAvailable);
 113              		.loc 1 72 5 is_stmt 1
 114              		.loc 1 72 27 is_stmt 0
 115 00b0 03B58401 		ld	a0,24(s1)
 116 00b4 97000000 		call	_ZN11MySemaphore9sem_closeEPS_@plt
 116      E7800000 
 117              	.LVL13:
  73:src/my_buffer.cpp ****     MySemaphore::sem_close(buffer->mutexTail);
 118              		.loc 1 73 5 is_stmt 1
 119              		.loc 1 73 27 is_stmt 0
 120 00bc 03B50403 		ld	a0,48(s1)
 121 00c0 97000000 		call	_ZN11MySemaphore9sem_closeEPS_@plt
 121      E7800000 
 122              	.LVL14:
  74:src/my_buffer.cpp ****     MySemaphore::sem_close(buffer->mutexHead);
 123              		.loc 1 74 5 is_stmt 1
 124              		.loc 1 74 27 is_stmt 0
 125 00c8 03B58402 		ld	a0,40(s1)
 126 00cc 97000000 		call	_ZN11MySemaphore9sem_closeEPS_@plt
 126      E7800000 
 127              	.LVL15:
  75:src/my_buffer.cpp **** //    kmem_cache_free(get_buffer_cache(), myBuffer);
  76:src/my_buffer.cpp **** }
 128              		.loc 1 76 1
 129 00d4 83308101 		ld	ra,24(sp)
 130              		.cfi_restore 1
 131 00d8 03340101 		ld	s0,16(sp)
 132              		.cfi_restore 8
 133              		.cfi_def_cfa 2, 32
 134 00dc 83348100 		ld	s1,8(sp)
 135              		.cfi_restore 9
 136              	.LVL16:
 137 00e0 13010102 		addi	sp,sp,32
 138              		.cfi_def_cfa_offset 0
 139 00e4 67800000 		jr	ra
 140              		.cfi_endproc
 141              	.LFE23:
 143              		.align	2
 144              		.globl	_ZN8MyBuffer3putEi
 146              	_ZN8MyBuffer3putEi:
 147              	.LFB18:
   5:src/my_buffer.cpp ****     MySemaphore::sem_wait(spaceAvailable);
GAS LISTING /tmp/cc5do5qQ.s 			page 5


 148              		.loc 1 5 29 is_stmt 1
 149              		.cfi_startproc
 150              	.LVL17:
 151 00e8 130101FE 		addi	sp,sp,-32
 152              		.cfi_def_cfa_offset 32
 153 00ec 233C1100 		sd	ra,24(sp)
 154 00f0 23388100 		sd	s0,16(sp)
 155 00f4 23349100 		sd	s1,8(sp)
 156 00f8 23302101 		sd	s2,0(sp)
 157              		.cfi_offset 1, -8
 158              		.cfi_offset 8, -16
 159              		.cfi_offset 9, -24
 160              		.cfi_offset 18, -32
 161 00fc 13040102 		addi	s0,sp,32
 162              		.cfi_def_cfa 8, 0
 163 0100 93040500 		mv	s1,a0
 164 0104 13890500 		mv	s2,a1
   6:src/my_buffer.cpp **** 
 165              		.loc 1 6 5
   6:src/my_buffer.cpp **** 
 166              		.loc 1 6 26 is_stmt 0
 167 0108 03358501 		ld	a0,24(a0)
 168              	.LVL18:
 169 010c 97000000 		call	_ZN11MySemaphore8sem_waitEPS_@plt
 169      E7800000 
 170              	.LVL19:
   8:src/my_buffer.cpp ****     if(buffer == nullptr)buffer = (int*)kmalloc(sizeof(int) * cap);
 171              		.loc 1 8 5 is_stmt 1
   8:src/my_buffer.cpp ****     if(buffer == nullptr)buffer = (int*)kmalloc(sizeof(int) * cap);
 172              		.loc 1 8 26 is_stmt 0
 173 0114 03B50403 		ld	a0,48(s1)
 174 0118 97000000 		call	_ZN11MySemaphore8sem_waitEPS_@plt
 174      E7800000 
 175              	.LVL20:
   9:src/my_buffer.cpp ****     buffer[tail] = val;
 176              		.loc 1 9 5 is_stmt 1
   9:src/my_buffer.cpp ****     buffer[tail] = val;
 177              		.loc 1 9 8 is_stmt 0
 178 0120 83B78400 		ld	a5,8(s1)
   9:src/my_buffer.cpp ****     buffer[tail] = val;
 179              		.loc 1 9 5
 180 0124 638E0704 		beqz	a5,.L8
 181              	.L6:
  10:src/my_buffer.cpp ****     tail = (tail + 1) % cap;
 182              		.loc 1 10 5 is_stmt 1
 183 0128 83B78400 		ld	a5,8(s1)
  10:src/my_buffer.cpp ****     tail = (tail + 1) % cap;
 184              		.loc 1 10 12 is_stmt 0
 185 012c 03A74401 		lw	a4,20(s1)
  10:src/my_buffer.cpp ****     tail = (tail + 1) % cap;
 186              		.loc 1 10 16
 187 0130 13172700 		slli	a4,a4,2
 188 0134 B387E700 		add	a5,a5,a4
  10:src/my_buffer.cpp ****     tail = (tail + 1) % cap;
 189              		.loc 1 10 18
 190 0138 23A02701 		sw	s2,0(a5)
  11:src/my_buffer.cpp ****     MySemaphore::sem_signal(mutexTail);
GAS LISTING /tmp/cc5do5qQ.s 			page 6


 191              		.loc 1 11 5 is_stmt 1
  11:src/my_buffer.cpp ****     MySemaphore::sem_signal(mutexTail);
 192              		.loc 1 11 13 is_stmt 0
 193 013c 83A74401 		lw	a5,20(s1)
  11:src/my_buffer.cpp ****     MySemaphore::sem_signal(mutexTail);
 194              		.loc 1 11 18
 195 0140 9B871700 		addiw	a5,a5,1
  11:src/my_buffer.cpp ****     MySemaphore::sem_signal(mutexTail);
 196              		.loc 1 11 25
 197 0144 03A70400 		lw	a4,0(s1)
  11:src/my_buffer.cpp ****     MySemaphore::sem_signal(mutexTail);
 198              		.loc 1 11 23
 199 0148 BBE7E702 		remw	a5,a5,a4
  11:src/my_buffer.cpp ****     MySemaphore::sem_signal(mutexTail);
 200              		.loc 1 11 10
 201 014c 23AAF400 		sw	a5,20(s1)
  12:src/my_buffer.cpp **** 
 202              		.loc 1 12 5 is_stmt 1
  12:src/my_buffer.cpp **** 
 203              		.loc 1 12 28 is_stmt 0
 204 0150 03B50403 		ld	a0,48(s1)
 205 0154 97000000 		call	_ZN11MySemaphore10sem_signalEPS_@plt
 205      E7800000 
 206              	.LVL21:
  14:src/my_buffer.cpp **** 
 207              		.loc 1 14 5 is_stmt 1
  14:src/my_buffer.cpp **** 
 208              		.loc 1 14 28 is_stmt 0
 209 015c 03B50402 		ld	a0,32(s1)
 210 0160 97000000 		call	_ZN11MySemaphore10sem_signalEPS_@plt
 210      E7800000 
 211              	.LVL22:
  16:src/my_buffer.cpp **** 
 212              		.loc 1 16 1
 213 0168 83308101 		ld	ra,24(sp)
 214              		.cfi_remember_state
 215              		.cfi_restore 1
 216 016c 03340101 		ld	s0,16(sp)
 217              		.cfi_restore 8
 218              		.cfi_def_cfa 2, 32
 219 0170 83348100 		ld	s1,8(sp)
 220              		.cfi_restore 9
 221              	.LVL23:
 222 0174 03390100 		ld	s2,0(sp)
 223              		.cfi_restore 18
 224 0178 13010102 		addi	sp,sp,32
 225              		.cfi_def_cfa_offset 0
 226 017c 67800000 		jr	ra
 227              	.LVL24:
 228              	.L8:
 229              		.cfi_restore_state
   9:src/my_buffer.cpp ****     buffer[tail] = val;
 230              		.loc 1 9 26 is_stmt 1 discriminator 1
   9:src/my_buffer.cpp ****     buffer[tail] = val;
 231              		.loc 1 9 63 is_stmt 0 discriminator 1
 232 0180 03A50400 		lw	a0,0(s1)
   9:src/my_buffer.cpp ****     buffer[tail] = val;
GAS LISTING /tmp/cc5do5qQ.s 			page 7


 233              		.loc 1 9 48 discriminator 1
 234 0184 13152500 		slli	a0,a0,2
 235 0188 97000000 		call	_Z7kmallocm@plt
 235      E7800000 
 236              	.LVL25:
   9:src/my_buffer.cpp ****     buffer[tail] = val;
 237              		.loc 1 9 33 discriminator 1
 238 0190 23B4A400 		sd	a0,8(s1)
 239 0194 6FF05FF9 		j	.L6
 240              		.cfi_endproc
 241              	.LFE18:
 243              		.align	2
 244              		.globl	_ZN8MyBuffer3getEv
 246              	_ZN8MyBuffer3getEv:
 247              	.LFB19:
  18:src/my_buffer.cpp ****     MySemaphore::sem_wait(itemAvailable);
 248              		.loc 1 18 21 is_stmt 1
 249              		.cfi_startproc
 250              	.LVL26:
 251 0198 130101FE 		addi	sp,sp,-32
 252              		.cfi_def_cfa_offset 32
 253 019c 233C1100 		sd	ra,24(sp)
 254 01a0 23388100 		sd	s0,16(sp)
 255 01a4 23349100 		sd	s1,8(sp)
 256 01a8 23302101 		sd	s2,0(sp)
 257              		.cfi_offset 1, -8
 258              		.cfi_offset 8, -16
 259              		.cfi_offset 9, -24
 260              		.cfi_offset 18, -32
 261 01ac 13040102 		addi	s0,sp,32
 262              		.cfi_def_cfa 8, 0
 263 01b0 93040500 		mv	s1,a0
  19:src/my_buffer.cpp **** 
 264              		.loc 1 19 5
  19:src/my_buffer.cpp **** 
 265              		.loc 1 19 26 is_stmt 0
 266 01b4 03350502 		ld	a0,32(a0)
 267              	.LVL27:
 268 01b8 97000000 		call	_ZN11MySemaphore8sem_waitEPS_@plt
 268      E7800000 
 269              	.LVL28:
  21:src/my_buffer.cpp ****     if(buffer == nullptr)buffer = (int*)kmalloc(sizeof(int) * cap);
 270              		.loc 1 21 5 is_stmt 1
  21:src/my_buffer.cpp ****     if(buffer == nullptr)buffer = (int*)kmalloc(sizeof(int) * cap);
 271              		.loc 1 21 26 is_stmt 0
 272 01c0 03B58402 		ld	a0,40(s1)
 273 01c4 97000000 		call	_ZN11MySemaphore8sem_waitEPS_@plt
 273      E7800000 
 274              	.LVL29:
  22:src/my_buffer.cpp ****     int ret = buffer[head];
 275              		.loc 1 22 5 is_stmt 1
  22:src/my_buffer.cpp ****     int ret = buffer[head];
 276              		.loc 1 22 8 is_stmt 0
 277 01cc 83B78400 		ld	a5,8(s1)
  22:src/my_buffer.cpp ****     int ret = buffer[head];
 278              		.loc 1 22 5
 279 01d0 638E0704 		beqz	a5,.L12
GAS LISTING /tmp/cc5do5qQ.s 			page 8


 280              	.L10:
  23:src/my_buffer.cpp ****     head = (head + 1) % cap;
 281              		.loc 1 23 5 is_stmt 1
  23:src/my_buffer.cpp ****     head = (head + 1) % cap;
 282              		.loc 1 23 15 is_stmt 0
 283 01d4 03B78400 		ld	a4,8(s1)
  23:src/my_buffer.cpp ****     head = (head + 1) % cap;
 284              		.loc 1 23 22
 285 01d8 83A70401 		lw	a5,16(s1)
  23:src/my_buffer.cpp ****     head = (head + 1) % cap;
 286              		.loc 1 23 26
 287 01dc 93962700 		slli	a3,a5,2
 288 01e0 3307D700 		add	a4,a4,a3
  23:src/my_buffer.cpp ****     head = (head + 1) % cap;
 289              		.loc 1 23 9
 290 01e4 03290700 		lw	s2,0(a4)
 291              	.LVL30:
  24:src/my_buffer.cpp ****     MySemaphore::sem_signal(mutexHead);
 292              		.loc 1 24 5 is_stmt 1
  24:src/my_buffer.cpp ****     MySemaphore::sem_signal(mutexHead);
 293              		.loc 1 24 18 is_stmt 0
 294 01e8 9B871700 		addiw	a5,a5,1
  24:src/my_buffer.cpp ****     MySemaphore::sem_signal(mutexHead);
 295              		.loc 1 24 25
 296 01ec 03A70400 		lw	a4,0(s1)
  24:src/my_buffer.cpp ****     MySemaphore::sem_signal(mutexHead);
 297              		.loc 1 24 23
 298 01f0 BBE7E702 		remw	a5,a5,a4
  24:src/my_buffer.cpp ****     MySemaphore::sem_signal(mutexHead);
 299              		.loc 1 24 10
 300 01f4 23A8F400 		sw	a5,16(s1)
  25:src/my_buffer.cpp **** 
 301              		.loc 1 25 5 is_stmt 1
  25:src/my_buffer.cpp **** 
 302              		.loc 1 25 28 is_stmt 0
 303 01f8 03B58402 		ld	a0,40(s1)
 304 01fc 97000000 		call	_ZN11MySemaphore10sem_signalEPS_@plt
 304      E7800000 
 305              	.LVL31:
  27:src/my_buffer.cpp **** 
 306              		.loc 1 27 5 is_stmt 1
  27:src/my_buffer.cpp **** 
 307              		.loc 1 27 28 is_stmt 0
 308 0204 03B58401 		ld	a0,24(s1)
 309 0208 97000000 		call	_ZN11MySemaphore10sem_signalEPS_@plt
 309      E7800000 
 310              	.LVL32:
  29:src/my_buffer.cpp **** }
 311              		.loc 1 29 5 is_stmt 1
  30:src/my_buffer.cpp **** 
 312              		.loc 1 30 1 is_stmt 0
 313 0210 13050900 		mv	a0,s2
 314 0214 83308101 		ld	ra,24(sp)
 315              		.cfi_remember_state
 316              		.cfi_restore 1
 317 0218 03340101 		ld	s0,16(sp)
 318              		.cfi_restore 8
GAS LISTING /tmp/cc5do5qQ.s 			page 9


 319              		.cfi_def_cfa 2, 32
 320 021c 83348100 		ld	s1,8(sp)
 321              		.cfi_restore 9
 322              	.LVL33:
 323 0220 03390100 		ld	s2,0(sp)
 324              		.cfi_restore 18
 325              	.LVL34:
 326 0224 13010102 		addi	sp,sp,32
 327              		.cfi_def_cfa_offset 0
 328 0228 67800000 		jr	ra
 329              	.LVL35:
 330              	.L12:
 331              		.cfi_restore_state
  22:src/my_buffer.cpp ****     int ret = buffer[head];
 332              		.loc 1 22 26 is_stmt 1 discriminator 1
  22:src/my_buffer.cpp ****     int ret = buffer[head];
 333              		.loc 1 22 63 is_stmt 0 discriminator 1
 334 022c 03A50400 		lw	a0,0(s1)
  22:src/my_buffer.cpp ****     int ret = buffer[head];
 335              		.loc 1 22 48 discriminator 1
 336 0230 13152500 		slli	a0,a0,2
 337 0234 97000000 		call	_Z7kmallocm@plt
 337      E7800000 
 338              	.LVL36:
  22:src/my_buffer.cpp ****     int ret = buffer[head];
 339              		.loc 1 22 33 discriminator 1
 340 023c 23B4A400 		sd	a0,8(s1)
 341 0240 6FF05FF9 		j	.L10
 342              		.cfi_endproc
 343              	.LFE19:
 345              		.align	2
 346              		.globl	_ZN8MyBuffer6getCntEv
 348              	_ZN8MyBuffer6getCntEv:
 349              	.LFB20:
  32:src/my_buffer.cpp ****     int ret;
 350              		.loc 1 32 24 is_stmt 1
 351              		.cfi_startproc
 352              	.LVL37:
 353 0244 130101FE 		addi	sp,sp,-32
 354              		.cfi_def_cfa_offset 32
 355 0248 233C1100 		sd	ra,24(sp)
 356 024c 23388100 		sd	s0,16(sp)
 357 0250 23349100 		sd	s1,8(sp)
 358 0254 23302101 		sd	s2,0(sp)
 359              		.cfi_offset 1, -8
 360              		.cfi_offset 8, -16
 361              		.cfi_offset 9, -24
 362              		.cfi_offset 18, -32
 363 0258 13040102 		addi	s0,sp,32
 364              		.cfi_def_cfa 8, 0
 365 025c 93040500 		mv	s1,a0
  33:src/my_buffer.cpp **** 
 366              		.loc 1 33 5
  35:src/my_buffer.cpp ****     MySemaphore::sem_wait(mutexTail);
 367              		.loc 1 35 5
  35:src/my_buffer.cpp ****     MySemaphore::sem_wait(mutexTail);
 368              		.loc 1 35 26 is_stmt 0
GAS LISTING /tmp/cc5do5qQ.s 			page 10


 369 0260 03358502 		ld	a0,40(a0)
 370              	.LVL38:
 371 0264 97000000 		call	_ZN11MySemaphore8sem_waitEPS_@plt
 371      E7800000 
 372              	.LVL39:
  36:src/my_buffer.cpp **** 
 373              		.loc 1 36 5 is_stmt 1
  36:src/my_buffer.cpp **** 
 374              		.loc 1 36 26 is_stmt 0
 375 026c 03B50403 		ld	a0,48(s1)
 376 0270 97000000 		call	_ZN11MySemaphore8sem_waitEPS_@plt
 376      E7800000 
 377              	.LVL40:
  38:src/my_buffer.cpp ****         ret = tail - head;
 378              		.loc 1 38 5 is_stmt 1
  38:src/my_buffer.cpp ****         ret = tail - head;
 379              		.loc 1 38 9 is_stmt 0
 380 0278 83A74401 		lw	a5,20(s1)
  38:src/my_buffer.cpp ****         ret = tail - head;
 381              		.loc 1 38 17
 382 027c 03A90401 		lw	s2,16(s1)
  38:src/my_buffer.cpp ****         ret = tail - head;
 383              		.loc 1 38 5
 384 0280 63CE2703 		blt	a5,s2,.L14
  39:src/my_buffer.cpp ****     } else {
 385              		.loc 1 39 9 is_stmt 1
  39:src/my_buffer.cpp ****     } else {
 386              		.loc 1 39 13 is_stmt 0
 387 0284 3B892741 		subw	s2,a5,s2
 388              	.LVL41:
 389              	.L15:
  44:src/my_buffer.cpp ****     MySemaphore::sem_signal(mutexHead);
 390              		.loc 1 44 5 is_stmt 1
  44:src/my_buffer.cpp ****     MySemaphore::sem_signal(mutexHead);
 391              		.loc 1 44 28 is_stmt 0
 392 0288 03B50403 		ld	a0,48(s1)
 393 028c 97000000 		call	_ZN11MySemaphore10sem_signalEPS_@plt
 393      E7800000 
 394              	.LVL42:
  45:src/my_buffer.cpp **** 
 395              		.loc 1 45 5 is_stmt 1
  45:src/my_buffer.cpp **** 
 396              		.loc 1 45 28 is_stmt 0
 397 0294 03B58402 		ld	a0,40(s1)
 398 0298 97000000 		call	_ZN11MySemaphore10sem_signalEPS_@plt
 398      E7800000 
 399              	.LVL43:
  47:src/my_buffer.cpp **** }
 400              		.loc 1 47 5 is_stmt 1
  48:src/my_buffer.cpp **** 
 401              		.loc 1 48 1 is_stmt 0
 402 02a0 13050900 		mv	a0,s2
 403 02a4 83308101 		ld	ra,24(sp)
 404              		.cfi_remember_state
 405              		.cfi_restore 1
 406 02a8 03340101 		ld	s0,16(sp)
 407              		.cfi_restore 8
GAS LISTING /tmp/cc5do5qQ.s 			page 11


 408              		.cfi_def_cfa 2, 32
 409 02ac 83348100 		ld	s1,8(sp)
 410              		.cfi_restore 9
 411              	.LVL44:
 412 02b0 03390100 		ld	s2,0(sp)
 413              		.cfi_restore 18
 414              	.LVL45:
 415 02b4 13010102 		addi	sp,sp,32
 416              		.cfi_def_cfa_offset 0
 417 02b8 67800000 		jr	ra
 418              	.LVL46:
 419              	.L14:
 420              		.cfi_restore_state
  41:src/my_buffer.cpp ****     }
 421              		.loc 1 41 9 is_stmt 1
  41:src/my_buffer.cpp ****     }
 422              		.loc 1 41 15 is_stmt 0
 423 02bc 03A70400 		lw	a4,0(s1)
  41:src/my_buffer.cpp ****     }
 424              		.loc 1 41 19
 425 02c0 3B092741 		subw	s2,a4,s2
  41:src/my_buffer.cpp ****     }
 426              		.loc 1 41 13
 427 02c4 3B09F900 		addw	s2,s2,a5
 428 02c8 6FF01FFC 		j	.L15
 429              		.cfi_endproc
 430              	.LFE20:
 432              		.section	.rodata.str1.8,"aMS",@progbits,1
 433              		.align	3
 434              	.LC0:
 435 0000 62756666 		.string	"buffer_cache"
 435      65725F63 
 435      61636865 
 435      00
 436              		.text
 437              		.align	2
 438              		.globl	_ZN8MyBuffer16get_buffer_cacheEv
 440              	_ZN8MyBuffer16get_buffer_cacheEv:
 441              	.LFB21:
  50:src/my_buffer.cpp ****     if(buffer_cache)return buffer_cache;
 442              		.loc 1 50 45 is_stmt 1
 443              		.cfi_startproc
  51:src/my_buffer.cpp ****     buffer_cache = kmem_cache_create("buffer_cache", sizeof(MyBuffer), &buffer_setup, &buffer_destr
 444              		.loc 1 51 5
  51:src/my_buffer.cpp ****     buffer_cache = kmem_cache_create("buffer_cache", sizeof(MyBuffer), &buffer_setup, &buffer_destr
 445              		.loc 1 51 20 is_stmt 0
 446 02cc 97070000 		ld	a5,.LANCHOR0
 446      83B70700 
  51:src/my_buffer.cpp ****     buffer_cache = kmem_cache_create("buffer_cache", sizeof(MyBuffer), &buffer_setup, &buffer_destr
 447              		.loc 1 51 5
 448 02d4 63880700 		beqz	a5,.L23
  54:src/my_buffer.cpp **** 
 449              		.loc 1 54 1
 450 02d8 17050000 		lla	a0,.LANCHOR0
 450      13050500 
 451 02e0 67800000 		ret
 452              	.L23:
GAS LISTING /tmp/cc5do5qQ.s 			page 12


  50:src/my_buffer.cpp ****     if(buffer_cache)return buffer_cache;
 453              		.loc 1 50 45
 454 02e4 130101FF 		addi	sp,sp,-16
 455              		.cfi_def_cfa_offset 16
 456 02e8 23341100 		sd	ra,8(sp)
 457 02ec 23308100 		sd	s0,0(sp)
 458              		.cfi_offset 1, -8
 459              		.cfi_offset 8, -16
 460 02f0 13040101 		addi	s0,sp,16
 461              		.cfi_def_cfa 8, 0
  52:src/my_buffer.cpp ****     return buffer_cache;
 462              		.loc 1 52 5 is_stmt 1
  52:src/my_buffer.cpp ****     return buffer_cache;
 463              		.loc 1 52 37 is_stmt 0
 464 02f4 97060000 		lla	a3,_ZN8MyBuffer14buffer_destroyEPv
 464      93860600 
 465 02fc 17060000 		lla	a2,_ZN8MyBuffer12buffer_setupEPv
 465      13060600 
 466 0304 93058003 		li	a1,56
 467 0308 17050000 		lla	a0,.LC0
 467      13050500 
 468 0310 97000000 		call	_Z17kmem_cache_createPKcmPFvPvES3_@plt
 468      E7800000 
 469              	.LVL47:
  52:src/my_buffer.cpp ****     return buffer_cache;
 470              		.loc 1 52 18
 471 0318 97070000 		sd	a0,.LANCHOR0,a5
 471      23B0A700 
  53:src/my_buffer.cpp **** }
 472              		.loc 1 53 5 is_stmt 1
  54:src/my_buffer.cpp **** 
 473              		.loc 1 54 1 is_stmt 0
 474 0320 17050000 		lla	a0,.LANCHOR0
 474      13050500 
 475 0328 83308100 		ld	ra,8(sp)
 476              		.cfi_restore 1
 477 032c 03340100 		ld	s0,0(sp)
 478              		.cfi_restore 8
 479              		.cfi_def_cfa 2, 16
 480 0330 13010101 		addi	sp,sp,16
 481              		.cfi_def_cfa_offset 0
 482 0334 67800000 		jr	ra
 483              		.cfi_endproc
 484              	.LFE21:
 486              		.globl	_ZN8MyBuffer12buffer_cacheE
 487              		.bss
 488              		.align	3
 489              		.set	.LANCHOR0,. + 0
 492              	_ZN8MyBuffer12buffer_cacheE:
 493 0000 00000000 		.zero	8
 493      00000000 
 494              		.text
 495              	.Letext0:
 496              		.file 2 "src/../h/../h/../lib/hw.h"
 497              		.file 3 "src/../h/../h/SlabI.h"
 498              		.file 4 "src/../h/../h/semaphore.hpp"
 499              		.file 5 "src/../h/my_buffer.hpp"
GAS LISTING /tmp/cc5do5qQ.s 			page 13


GAS LISTING /tmp/cc5do5qQ.s 			page 14


DEFINED SYMBOLS
                            *ABS*:0000000000000000 my_buffer.cpp
     /tmp/cc5do5qQ.s:9      .text:0000000000000000 _ZN8MyBuffer12buffer_setupEPv
     /tmp/cc5do5qQ.s:13     .text:0000000000000000 .L0 
     /tmp/cc5do5qQ.s:15     .text:0000000000000000 .L0 
     /tmp/cc5do5qQ.s:16     .text:0000000000000004 .L0 
     /tmp/cc5do5qQ.s:20     .text:0000000000000010 .L0 
     /tmp/cc5do5qQ.s:21     .text:0000000000000010 .L0 
     /tmp/cc5do5qQ.s:22     .text:0000000000000010 .L0 
     /tmp/cc5do5qQ.s:24     .text:0000000000000014 .L0 
     /tmp/cc5do5qQ.s:28     .text:0000000000000018 .L0 
     /tmp/cc5do5qQ.s:29     .text:0000000000000018 .L0 
     /tmp/cc5do5qQ.s:30     .text:0000000000000018 .L0 
     /tmp/cc5do5qQ.s:33     .text:0000000000000020 .L0 
     /tmp/cc5do5qQ.s:34     .text:0000000000000020 .L0 
     /tmp/cc5do5qQ.s:36     .text:0000000000000024 .L0 
     /tmp/cc5do5qQ.s:37     .text:0000000000000024 .L0 
     /tmp/cc5do5qQ.s:39     .text:0000000000000028 .L0 
     /tmp/cc5do5qQ.s:40     .text:0000000000000028 .L0 
     /tmp/cc5do5qQ.s:42     .text:000000000000002c .L0 
     /tmp/cc5do5qQ.s:43     .text:000000000000002c .L0 
     /tmp/cc5do5qQ.s:49     .text:000000000000003c .L0 
     /tmp/cc5do5qQ.s:50     .text:000000000000003c .L0 
     /tmp/cc5do5qQ.s:55     .text:000000000000004c .L0 
     /tmp/cc5do5qQ.s:56     .text:000000000000004c .L0 
     /tmp/cc5do5qQ.s:61     .text:000000000000005c .L0 
     /tmp/cc5do5qQ.s:62     .text:000000000000005c .L0 
     /tmp/cc5do5qQ.s:67     .text:000000000000006c .L0 
     /tmp/cc5do5qQ.s:68     .text:0000000000000070 .L0 
     /tmp/cc5do5qQ.s:70     .text:0000000000000074 .L0 
     /tmp/cc5do5qQ.s:71     .text:0000000000000074 .L0 
     /tmp/cc5do5qQ.s:73     .text:0000000000000078 .L0 
     /tmp/cc5do5qQ.s:76     .text:000000000000007c .L0 
     /tmp/cc5do5qQ.s:78     .text:0000000000000080 .L0 
     /tmp/cc5do5qQ.s:84     .text:0000000000000080 _ZN8MyBuffer14buffer_destroyEPv
     /tmp/cc5do5qQ.s:87     .text:0000000000000080 .L0 
     /tmp/cc5do5qQ.s:89     .text:0000000000000080 .L0 
     /tmp/cc5do5qQ.s:90     .text:0000000000000084 .L0 
     /tmp/cc5do5qQ.s:94     .text:0000000000000090 .L0 
     /tmp/cc5do5qQ.s:95     .text:0000000000000090 .L0 
     /tmp/cc5do5qQ.s:96     .text:0000000000000090 .L0 
     /tmp/cc5do5qQ.s:98     .text:0000000000000094 .L0 
     /tmp/cc5do5qQ.s:102    .text:0000000000000098 .L0 
     /tmp/cc5do5qQ.s:103    .text:0000000000000098 .L0 
     /tmp/cc5do5qQ.s:104    .text:0000000000000098 .L0 
     /tmp/cc5do5qQ.s:109    .text:00000000000000a4 .L0 
     /tmp/cc5do5qQ.s:110    .text:00000000000000a4 .L0 
     /tmp/cc5do5qQ.s:114    .text:00000000000000b0 .L0 
     /tmp/cc5do5qQ.s:115    .text:00000000000000b0 .L0 
     /tmp/cc5do5qQ.s:119    .text:00000000000000bc .L0 
     /tmp/cc5do5qQ.s:120    .text:00000000000000bc .L0 
     /tmp/cc5do5qQ.s:124    .text:00000000000000c8 .L0 
     /tmp/cc5do5qQ.s:125    .text:00000000000000c8 .L0 
     /tmp/cc5do5qQ.s:129    .text:00000000000000d4 .L0 
     /tmp/cc5do5qQ.s:130    .text:00000000000000d8 .L0 
     /tmp/cc5do5qQ.s:132    .text:00000000000000dc .L0 
     /tmp/cc5do5qQ.s:133    .text:00000000000000dc .L0 
GAS LISTING /tmp/cc5do5qQ.s 			page 15


     /tmp/cc5do5qQ.s:135    .text:00000000000000e0 .L0 
     /tmp/cc5do5qQ.s:138    .text:00000000000000e4 .L0 
     /tmp/cc5do5qQ.s:140    .text:00000000000000e8 .L0 
     /tmp/cc5do5qQ.s:146    .text:00000000000000e8 _ZN8MyBuffer3putEi
     /tmp/cc5do5qQ.s:149    .text:00000000000000e8 .L0 
     /tmp/cc5do5qQ.s:151    .text:00000000000000e8 .L0 
     /tmp/cc5do5qQ.s:152    .text:00000000000000ec .L0 
     /tmp/cc5do5qQ.s:157    .text:00000000000000fc .L0 
     /tmp/cc5do5qQ.s:158    .text:00000000000000fc .L0 
     /tmp/cc5do5qQ.s:159    .text:00000000000000fc .L0 
     /tmp/cc5do5qQ.s:160    .text:00000000000000fc .L0 
     /tmp/cc5do5qQ.s:162    .text:0000000000000100 .L0 
     /tmp/cc5do5qQ.s:166    .text:0000000000000108 .L0 
     /tmp/cc5do5qQ.s:167    .text:0000000000000108 .L0 
     /tmp/cc5do5qQ.s:172    .text:0000000000000114 .L0 
     /tmp/cc5do5qQ.s:173    .text:0000000000000114 .L0 
     /tmp/cc5do5qQ.s:177    .text:0000000000000120 .L0 
     /tmp/cc5do5qQ.s:178    .text:0000000000000120 .L0 
     /tmp/cc5do5qQ.s:180    .text:0000000000000124 .L0 
     /tmp/cc5do5qQ.s:183    .text:0000000000000128 .L0 
     /tmp/cc5do5qQ.s:185    .text:000000000000012c .L0 
     /tmp/cc5do5qQ.s:187    .text:0000000000000130 .L0 
     /tmp/cc5do5qQ.s:190    .text:0000000000000138 .L0 
     /tmp/cc5do5qQ.s:192    .text:000000000000013c .L0 
     /tmp/cc5do5qQ.s:193    .text:000000000000013c .L0 
     /tmp/cc5do5qQ.s:195    .text:0000000000000140 .L0 
     /tmp/cc5do5qQ.s:197    .text:0000000000000144 .L0 
     /tmp/cc5do5qQ.s:199    .text:0000000000000148 .L0 
     /tmp/cc5do5qQ.s:201    .text:000000000000014c .L0 
     /tmp/cc5do5qQ.s:203    .text:0000000000000150 .L0 
     /tmp/cc5do5qQ.s:204    .text:0000000000000150 .L0 
     /tmp/cc5do5qQ.s:208    .text:000000000000015c .L0 
     /tmp/cc5do5qQ.s:209    .text:000000000000015c .L0 
     /tmp/cc5do5qQ.s:213    .text:0000000000000168 .L0 
     /tmp/cc5do5qQ.s:214    .text:000000000000016c .L0 
     /tmp/cc5do5qQ.s:215    .text:000000000000016c .L0 
     /tmp/cc5do5qQ.s:217    .text:0000000000000170 .L0 
     /tmp/cc5do5qQ.s:218    .text:0000000000000170 .L0 
     /tmp/cc5do5qQ.s:220    .text:0000000000000174 .L0 
     /tmp/cc5do5qQ.s:223    .text:0000000000000178 .L0 
     /tmp/cc5do5qQ.s:225    .text:000000000000017c .L0 
     /tmp/cc5do5qQ.s:229    .text:0000000000000180 .L0 
     /tmp/cc5do5qQ.s:231    .text:0000000000000180 .L0 
     /tmp/cc5do5qQ.s:232    .text:0000000000000180 .L0 
     /tmp/cc5do5qQ.s:234    .text:0000000000000184 .L0 
     /tmp/cc5do5qQ.s:238    .text:0000000000000190 .L0 
     /tmp/cc5do5qQ.s:240    .text:0000000000000198 .L0 
     /tmp/cc5do5qQ.s:246    .text:0000000000000198 _ZN8MyBuffer3getEv
     /tmp/cc5do5qQ.s:249    .text:0000000000000198 .L0 
     /tmp/cc5do5qQ.s:251    .text:0000000000000198 .L0 
     /tmp/cc5do5qQ.s:252    .text:000000000000019c .L0 
     /tmp/cc5do5qQ.s:257    .text:00000000000001ac .L0 
     /tmp/cc5do5qQ.s:258    .text:00000000000001ac .L0 
     /tmp/cc5do5qQ.s:259    .text:00000000000001ac .L0 
     /tmp/cc5do5qQ.s:260    .text:00000000000001ac .L0 
     /tmp/cc5do5qQ.s:262    .text:00000000000001b0 .L0 
     /tmp/cc5do5qQ.s:265    .text:00000000000001b4 .L0 
GAS LISTING /tmp/cc5do5qQ.s 			page 16


     /tmp/cc5do5qQ.s:266    .text:00000000000001b4 .L0 
     /tmp/cc5do5qQ.s:271    .text:00000000000001c0 .L0 
     /tmp/cc5do5qQ.s:272    .text:00000000000001c0 .L0 
     /tmp/cc5do5qQ.s:276    .text:00000000000001cc .L0 
     /tmp/cc5do5qQ.s:277    .text:00000000000001cc .L0 
     /tmp/cc5do5qQ.s:279    .text:00000000000001d0 .L0 
     /tmp/cc5do5qQ.s:282    .text:00000000000001d4 .L0 
     /tmp/cc5do5qQ.s:283    .text:00000000000001d4 .L0 
     /tmp/cc5do5qQ.s:285    .text:00000000000001d8 .L0 
     /tmp/cc5do5qQ.s:287    .text:00000000000001dc .L0 
     /tmp/cc5do5qQ.s:290    .text:00000000000001e4 .L0 
     /tmp/cc5do5qQ.s:293    .text:00000000000001e8 .L0 
     /tmp/cc5do5qQ.s:294    .text:00000000000001e8 .L0 
     /tmp/cc5do5qQ.s:296    .text:00000000000001ec .L0 
     /tmp/cc5do5qQ.s:298    .text:00000000000001f0 .L0 
     /tmp/cc5do5qQ.s:300    .text:00000000000001f4 .L0 
     /tmp/cc5do5qQ.s:302    .text:00000000000001f8 .L0 
     /tmp/cc5do5qQ.s:303    .text:00000000000001f8 .L0 
     /tmp/cc5do5qQ.s:307    .text:0000000000000204 .L0 
     /tmp/cc5do5qQ.s:308    .text:0000000000000204 .L0 
     /tmp/cc5do5qQ.s:312    .text:0000000000000210 .L0 
     /tmp/cc5do5qQ.s:313    .text:0000000000000210 .L0 
     /tmp/cc5do5qQ.s:315    .text:0000000000000218 .L0 
     /tmp/cc5do5qQ.s:316    .text:0000000000000218 .L0 
     /tmp/cc5do5qQ.s:318    .text:000000000000021c .L0 
     /tmp/cc5do5qQ.s:319    .text:000000000000021c .L0 
     /tmp/cc5do5qQ.s:321    .text:0000000000000220 .L0 
     /tmp/cc5do5qQ.s:324    .text:0000000000000224 .L0 
     /tmp/cc5do5qQ.s:327    .text:0000000000000228 .L0 
     /tmp/cc5do5qQ.s:331    .text:000000000000022c .L0 
     /tmp/cc5do5qQ.s:333    .text:000000000000022c .L0 
     /tmp/cc5do5qQ.s:334    .text:000000000000022c .L0 
     /tmp/cc5do5qQ.s:336    .text:0000000000000230 .L0 
     /tmp/cc5do5qQ.s:340    .text:000000000000023c .L0 
     /tmp/cc5do5qQ.s:342    .text:0000000000000244 .L0 
     /tmp/cc5do5qQ.s:348    .text:0000000000000244 _ZN8MyBuffer6getCntEv
     /tmp/cc5do5qQ.s:351    .text:0000000000000244 .L0 
     /tmp/cc5do5qQ.s:353    .text:0000000000000244 .L0 
     /tmp/cc5do5qQ.s:354    .text:0000000000000248 .L0 
     /tmp/cc5do5qQ.s:359    .text:0000000000000258 .L0 
     /tmp/cc5do5qQ.s:360    .text:0000000000000258 .L0 
     /tmp/cc5do5qQ.s:361    .text:0000000000000258 .L0 
     /tmp/cc5do5qQ.s:362    .text:0000000000000258 .L0 
     /tmp/cc5do5qQ.s:364    .text:000000000000025c .L0 
     /tmp/cc5do5qQ.s:367    .text:0000000000000260 .L0 
     /tmp/cc5do5qQ.s:368    .text:0000000000000260 .L0 
     /tmp/cc5do5qQ.s:369    .text:0000000000000260 .L0 
     /tmp/cc5do5qQ.s:374    .text:000000000000026c .L0 
     /tmp/cc5do5qQ.s:375    .text:000000000000026c .L0 
     /tmp/cc5do5qQ.s:379    .text:0000000000000278 .L0 
     /tmp/cc5do5qQ.s:380    .text:0000000000000278 .L0 
     /tmp/cc5do5qQ.s:382    .text:000000000000027c .L0 
     /tmp/cc5do5qQ.s:384    .text:0000000000000280 .L0 
     /tmp/cc5do5qQ.s:386    .text:0000000000000284 .L0 
     /tmp/cc5do5qQ.s:387    .text:0000000000000284 .L0 
     /tmp/cc5do5qQ.s:391    .text:0000000000000288 .L0 
     /tmp/cc5do5qQ.s:392    .text:0000000000000288 .L0 
GAS LISTING /tmp/cc5do5qQ.s 			page 17


     /tmp/cc5do5qQ.s:396    .text:0000000000000294 .L0 
     /tmp/cc5do5qQ.s:397    .text:0000000000000294 .L0 
     /tmp/cc5do5qQ.s:401    .text:00000000000002a0 .L0 
     /tmp/cc5do5qQ.s:402    .text:00000000000002a0 .L0 
     /tmp/cc5do5qQ.s:404    .text:00000000000002a8 .L0 
     /tmp/cc5do5qQ.s:405    .text:00000000000002a8 .L0 
     /tmp/cc5do5qQ.s:407    .text:00000000000002ac .L0 
     /tmp/cc5do5qQ.s:408    .text:00000000000002ac .L0 
     /tmp/cc5do5qQ.s:410    .text:00000000000002b0 .L0 
     /tmp/cc5do5qQ.s:413    .text:00000000000002b4 .L0 
     /tmp/cc5do5qQ.s:416    .text:00000000000002b8 .L0 
     /tmp/cc5do5qQ.s:420    .text:00000000000002bc .L0 
     /tmp/cc5do5qQ.s:422    .text:00000000000002bc .L0 
     /tmp/cc5do5qQ.s:423    .text:00000000000002bc .L0 
     /tmp/cc5do5qQ.s:425    .text:00000000000002c0 .L0 
     /tmp/cc5do5qQ.s:427    .text:00000000000002c4 .L0 
     /tmp/cc5do5qQ.s:429    .text:00000000000002cc .L0 
     /tmp/cc5do5qQ.s:440    .text:00000000000002cc _ZN8MyBuffer16get_buffer_cacheEv
     /tmp/cc5do5qQ.s:443    .text:00000000000002cc .L0 
     /tmp/cc5do5qQ.s:444    .text:00000000000002cc .L0 
     /tmp/cc5do5qQ.s:445    .text:00000000000002cc .L0 
     /tmp/cc5do5qQ.s:446    .text:00000000000002cc .L0 
     /tmp/cc5do5qQ.s:448    .text:00000000000002d4 .L0 
     /tmp/cc5do5qQ.s:450    .text:00000000000002d8 .L0 
     /tmp/cc5do5qQ.s:454    .text:00000000000002e4 .L0 
     /tmp/cc5do5qQ.s:455    .text:00000000000002e8 .L0 
     /tmp/cc5do5qQ.s:458    .text:00000000000002f0 .L0 
     /tmp/cc5do5qQ.s:459    .text:00000000000002f0 .L0 
     /tmp/cc5do5qQ.s:461    .text:00000000000002f4 .L0 
     /tmp/cc5do5qQ.s:463    .text:00000000000002f4 .L0 
     /tmp/cc5do5qQ.s:464    .text:00000000000002f4 .L0 
     /tmp/cc5do5qQ.s:471    .text:0000000000000318 .L0 
     /tmp/cc5do5qQ.s:473    .text:0000000000000320 .L0 
     /tmp/cc5do5qQ.s:474    .text:0000000000000320 .L0 
     /tmp/cc5do5qQ.s:476    .text:000000000000032c .L0 
     /tmp/cc5do5qQ.s:478    .text:0000000000000330 .L0 
     /tmp/cc5do5qQ.s:479    .text:0000000000000330 .L0 
     /tmp/cc5do5qQ.s:481    .text:0000000000000334 .L0 
     /tmp/cc5do5qQ.s:483    .text:0000000000000338 .L0 
     /tmp/cc5do5qQ.s:492    .bss:0000000000000000 _ZN8MyBuffer12buffer_cacheE
     /tmp/cc5do5qQ.s:489    .bss:0000000000000000 .LANCHOR0
     /tmp/cc5do5qQ.s:500    .text:0000000000000338 .L0 
     /tmp/cc5do5qQ.s:446    .text:00000000000002cc .L0 
     /tmp/cc5do5qQ.s:450    .text:00000000000002d8 .L0 
     /tmp/cc5do5qQ.s:464    .text:00000000000002f4 .L0 
     /tmp/cc5do5qQ.s:465    .text:00000000000002fc .L0 
     /tmp/cc5do5qQ.s:434    .rodata.str1.8:0000000000000000 .LC0
     /tmp/cc5do5qQ.s:467    .text:0000000000000308 .L0 
     /tmp/cc5do5qQ.s:471    .text:0000000000000318 .L0 
     /tmp/cc5do5qQ.s:474    .text:0000000000000320 .L0 
     /tmp/cc5do5qQ.s:228    .text:0000000000000180 .L8
     /tmp/cc5do5qQ.s:181    .text:0000000000000128 .L6
     /tmp/cc5do5qQ.s:330    .text:000000000000022c .L12
     /tmp/cc5do5qQ.s:280    .text:00000000000001d4 .L10
     /tmp/cc5do5qQ.s:419    .text:00000000000002bc .L14
     /tmp/cc5do5qQ.s:389    .text:0000000000000288 .L15
     /tmp/cc5do5qQ.s:452    .text:00000000000002e4 .L23
GAS LISTING /tmp/cc5do5qQ.s 			page 18


     /tmp/cc5do5qQ.s:1452   .debug_abbrev:0000000000000000 .Ldebug_abbrev0
     /tmp/cc5do5qQ.s:2387   .debug_str:0000000000000119 .LASF88
     /tmp/cc5do5qQ.s:2439   .debug_str:00000000000003d1 .LASF89
     /tmp/cc5do5qQ.s:2423   .debug_str:0000000000000303 .LASF90
     /tmp/cc5do5qQ.s:5      .text:0000000000000000 .Ltext0
     /tmp/cc5do5qQ.s:495    .text:0000000000000338 .Letext0
     /tmp/cc5do5qQ.s:2353   .debug_line:0000000000000000 .Ldebug_line0
     /tmp/cc5do5qQ.s:2463   .debug_str:00000000000004b7 .LASF0
     /tmp/cc5do5qQ.s:2475   .debug_str:0000000000000532 .LASF1
     /tmp/cc5do5qQ.s:2451   .debug_str:0000000000000418 .LASF2
     /tmp/cc5do5qQ.s:2431   .debug_str:0000000000000374 .LASF4
     /tmp/cc5do5qQ.s:2505   .debug_str:0000000000000609 .LASF3
     /tmp/cc5do5qQ.s:2371   .debug_str:00000000000000af .LASF5
     /tmp/cc5do5qQ.s:2477   .debug_str:0000000000000545 .LASF6
     /tmp/cc5do5qQ.s:2461   .debug_str:00000000000004a4 .LASF7
     /tmp/cc5do5qQ.s:2543   .debug_str:000000000000073f .LASF8
     /tmp/cc5do5qQ.s:2523   .debug_str:0000000000000691 .LASF9
     /tmp/cc5do5qQ.s:2421   .debug_str:00000000000002f5 .LASF10
     /tmp/cc5do5qQ.s:2487   .debug_str:0000000000000591 .LASF11
     /tmp/cc5do5qQ.s:2379   .debug_str:00000000000000db .LASF12
     /tmp/cc5do5qQ.s:2515   .debug_str:0000000000000658 .LASF13
     /tmp/cc5do5qQ.s:2375   .debug_str:00000000000000be .LASF14
     /tmp/cc5do5qQ.s:2357   .debug_str:0000000000000025 .LASF15
     /tmp/cc5do5qQ.s:2381   .debug_str:00000000000000e6 .LASF16
     /tmp/cc5do5qQ.s:2501   .debug_str:00000000000005eb .LASF17
     /tmp/cc5do5qQ.s:2393   .debug_str:000000000000021f .LASF18
     /tmp/cc5do5qQ.s:2527   .debug_str:00000000000006ae .LASF19
     /tmp/cc5do5qQ.s:2525   .debug_str:00000000000006a1 .LASF91
     /tmp/cc5do5qQ.s:2495   .debug_str:00000000000005c2 .LASF52
     /tmp/cc5do5qQ.s:2407   .debug_str:000000000000027c .LASF20
     /tmp/cc5do5qQ.s:2435   .debug_str:0000000000000396 .LASF22
     /tmp/cc5do5qQ.s:2511   .debug_str:000000000000063e .LASF21
     /tmp/cc5do5qQ.s:2363   .debug_str:0000000000000059 .LASF23
     /tmp/cc5do5qQ.s:2385   .debug_str:0000000000000110 .LASF24
     /tmp/cc5do5qQ.s:2367   .debug_str:000000000000008a .LASF25
     /tmp/cc5do5qQ.s:2521   .debug_str:0000000000000686 .LASF26
     /tmp/cc5do5qQ.s:2547   .debug_str:0000000000000765 .LASF27
     /tmp/cc5do5qQ.s:2427   .debug_str:0000000000000345 .LASF28
     /tmp/cc5do5qQ.s:2541   .debug_str:0000000000000718 .LASF29
     /tmp/cc5do5qQ.s:2517   .debug_str:0000000000000667 .LASF34
     /tmp/cc5do5qQ.s:2535   .debug_str:00000000000006db .LASF36
     /tmp/cc5do5qQ.s:2403   .debug_str:000000000000026a .LASF30
     /tmp/cc5do5qQ.s:2457   .debug_str:0000000000000469 .LASF31
     /tmp/cc5do5qQ.s:2373   .debug_str:00000000000000b6 .LASF32
     /tmp/cc5do5qQ.s:2437   .debug_str:00000000000003b6 .LASF33
     /tmp/cc5do5qQ.s:2483   .debug_str:000000000000057d .LASF35
     /tmp/cc5do5qQ.s:2391   .debug_str:00000000000001fc .LASF37
     /tmp/cc5do5qQ.s:2519   .debug_str:0000000000000678 .LASF38
     /tmp/cc5do5qQ.s:2409   .debug_str:0000000000000285 .LASF39
     /tmp/cc5do5qQ.s:2489   .debug_str:00000000000005a0 .LASF40
     /tmp/cc5do5qQ.s:2413   .debug_str:00000000000002ac .LASF41
     /tmp/cc5do5qQ.s:2493   .debug_str:00000000000005ba .LASF42
     /tmp/cc5do5qQ.s:2433   .debug_str:000000000000037b .LASF43
     /tmp/cc5do5qQ.s:2377   .debug_str:00000000000000ce .LASF44
     /tmp/cc5do5qQ.s:2359   .debug_str:0000000000000035 .LASF45
     /tmp/cc5do5qQ.s:2419   .debug_str:00000000000002e5 .LASF46
     /tmp/cc5do5qQ.s:2471   .debug_str:00000000000004fa .LASF47
GAS LISTING /tmp/cc5do5qQ.s 			page 19


     /tmp/cc5do5qQ.s:2507   .debug_str:000000000000061b .LASF48
     /tmp/cc5do5qQ.s:2467   .debug_str:00000000000004da .LASF50
     /tmp/cc5do5qQ.s:2509   .debug_str:000000000000062b .LASF49
     /tmp/cc5do5qQ.s:2497   .debug_str:00000000000005ce .LASF51
     /tmp/cc5do5qQ.s:2533   .debug_str:00000000000006cd .LASF92
     /tmp/cc5do5qQ.s:2459   .debug_str:0000000000000482 .LASF93
     /tmp/cc5do5qQ.s:2481   .debug_str:0000000000000568 .LASF53
     /tmp/cc5do5qQ.s:2513   .debug_str:0000000000000648 .LASF54
     /tmp/cc5do5qQ.s:2355   .debug_str:0000000000000000 .LASF56
     /tmp/cc5do5qQ.s:2491   .debug_str:00000000000005a8 .LASF55
     /tmp/cc5do5qQ.s:2455   .debug_str:0000000000000442 .LASF57
     /tmp/cc5do5qQ.s:2479   .debug_str:0000000000000558 .LASF68
     /tmp/cc5do5qQ.s:2441   .debug_str:00000000000003e3 .LASF58
     /tmp/cc5do5qQ.s:2399   .debug_str:0000000000000254 .LASF59
     /tmp/cc5do5qQ.s:2445   .debug_str:00000000000003f7 .LASF60
     /tmp/cc5do5qQ.s:2411   .debug_str:00000000000002a7 .LASF61
     /tmp/cc5do5qQ.s:2529   .debug_str:00000000000006bb .LASF62
     /tmp/cc5do5qQ.s:2499   .debug_str:00000000000005e4 .LASF63
     /tmp/cc5do5qQ.s:2447   .debug_str:00000000000003fc .LASF64
     /tmp/cc5do5qQ.s:2425   .debug_str:0000000000000337 .LASF65
     /tmp/cc5do5qQ.s:2443   .debug_str:00000000000003ed .LASF66
     /tmp/cc5do5qQ.s:2469   .debug_str:00000000000004f0 .LASF67
     /tmp/cc5do5qQ.s:2395   .debug_str:0000000000000235 .LASF69
     /tmp/cc5do5qQ.s:2449   .debug_str:000000000000040b .LASF70
     /tmp/cc5do5qQ.s:2383   .debug_str:00000000000000f2 .LASF71
     /tmp/cc5do5qQ.s:2361   .debug_str:000000000000004a .LASF72
     /tmp/cc5do5qQ.s:2429   .debug_str:0000000000000354 .LASF73
     /tmp/cc5do5qQ.s:2401   .debug_str:0000000000000259 .LASF94
     /tmp/cc5do5qQ.s:2549   .debug_str:0000000000000786 .LASF95
     /tmp/cc5do5qQ.s:2389   .debug_str:00000000000001e9 .LASF96
     /tmp/cc5do5qQ.s:2537   .debug_str:0000000000000700 .LASF97
     /tmp/cc5do5qQ.s:2369   .debug_str:00000000000000a8 .LASF74
     /tmp/cc5do5qQ.s:2465   .debug_str:00000000000004c4 .LASF75
     /tmp/cc5do5qQ.s:2551   .debug_str:00000000000007a7 .LASF76
     /tmp/cc5do5qQ.s:2417   .debug_str:00000000000002d4 .LASF77
     /tmp/cc5do5qQ.s:2365   .debug_str:0000000000000078 .LASF78
     /tmp/cc5do5qQ.s:2397   .debug_str:0000000000000242 .LASF79
     /tmp/cc5do5qQ.s:2453   .debug_str:0000000000000426 .LASF98
     /tmp/cc5do5qQ.s:85     .text:0000000000000080 .LFB23
     /tmp/cc5do5qQ.s:141    .text:00000000000000e8 .LFE23
     /tmp/cc5do5qQ.s:2531   .debug_str:00000000000006c4 .LASF80
     /tmp/cc5do5qQ.s:2170   .debug_loc:0000000000000000 .LLST2
     /tmp/cc5do5qQ.s:2188   .debug_loc:000000000000004c .LLST3
     /tmp/cc5do5qQ.s:107    .text:00000000000000a4 .LVL11
     /tmp/cc5do5qQ.s:112    .text:00000000000000b0 .LVL12
     /tmp/cc5do5qQ.s:117    .text:00000000000000bc .LVL13
     /tmp/cc5do5qQ.s:122    .text:00000000000000c8 .LVL14
     /tmp/cc5do5qQ.s:127    .text:00000000000000d4 .LVL15
     /tmp/cc5do5qQ.s:10     .text:0000000000000000 .LFB22
     /tmp/cc5do5qQ.s:79     .text:0000000000000080 .LFE22
     /tmp/cc5do5qQ.s:2206   .debug_loc:0000000000000098 .LLST0
     /tmp/cc5do5qQ.s:2224   .debug_loc:00000000000000e4 .LLST1
     /tmp/cc5do5qQ.s:47     .text:000000000000003c .LVL3
     /tmp/cc5do5qQ.s:53     .text:000000000000004c .LVL4
     /tmp/cc5do5qQ.s:59     .text:000000000000005c .LVL5
     /tmp/cc5do5qQ.s:65     .text:000000000000006c .LVL6
     /tmp/cc5do5qQ.s:441    .text:00000000000002cc .LFB21
GAS LISTING /tmp/cc5do5qQ.s 			page 20


     /tmp/cc5do5qQ.s:484    .text:0000000000000338 .LFE21
     /tmp/cc5do5qQ.s:469    .text:0000000000000318 .LVL47
     /tmp/cc5do5qQ.s:349    .text:0000000000000244 .LFB20
     /tmp/cc5do5qQ.s:430    .text:00000000000002cc .LFE20
     /tmp/cc5do5qQ.s:2539   .debug_str:0000000000000713 .LASF81
     /tmp/cc5do5qQ.s:2242   .debug_loc:0000000000000130 .LLST8
     /tmp/cc5do5qQ.s:2264   .debug_loc:000000000000018f .LLST9
     /tmp/cc5do5qQ.s:372    .text:000000000000026c .LVL39
     /tmp/cc5do5qQ.s:377    .text:0000000000000278 .LVL40
     /tmp/cc5do5qQ.s:394    .text:0000000000000294 .LVL42
     /tmp/cc5do5qQ.s:399    .text:00000000000002a0 .LVL43
     /tmp/cc5do5qQ.s:247    .text:0000000000000198 .LFB19
     /tmp/cc5do5qQ.s:343    .text:0000000000000244 .LFE19
     /tmp/cc5do5qQ.s:2271   .debug_loc:00000000000001b2 .LLST6
     /tmp/cc5do5qQ.s:2293   .debug_loc:0000000000000211 .LLST7
     /tmp/cc5do5qQ.s:269    .text:00000000000001c0 .LVL28
     /tmp/cc5do5qQ.s:274    .text:00000000000001cc .LVL29
     /tmp/cc5do5qQ.s:305    .text:0000000000000204 .LVL31
     /tmp/cc5do5qQ.s:310    .text:0000000000000210 .LVL32
     /tmp/cc5do5qQ.s:338    .text:000000000000023c .LVL36
     /tmp/cc5do5qQ.s:147    .text:00000000000000e8 .LFB18
     /tmp/cc5do5qQ.s:241    .text:0000000000000198 .LFE18
     /tmp/cc5do5qQ.s:2304   .debug_loc:0000000000000247 .LLST4
     /tmp/cc5do5qQ.s:2326   .debug_loc:00000000000002a6 .LLST5
     /tmp/cc5do5qQ.s:170    .text:0000000000000114 .LVL19
     /tmp/cc5do5qQ.s:175    .text:0000000000000120 .LVL20
     /tmp/cc5do5qQ.s:206    .text:000000000000015c .LVL21
     /tmp/cc5do5qQ.s:211    .text:0000000000000168 .LVL22
     /tmp/cc5do5qQ.s:236    .text:0000000000000190 .LVL25
     /tmp/cc5do5qQ.s:2405   .debug_str:0000000000000270 .LASF82
     /tmp/cc5do5qQ.s:2485   .debug_str:000000000000058b .LASF84
     /tmp/cc5do5qQ.s:2473   .debug_str:000000000000050f .LASF83
     /tmp/cc5do5qQ.s:2545   .debug_str:0000000000000753 .LASF85
     /tmp/cc5do5qQ.s:2415   .debug_str:00000000000002c8 .LASF86
     /tmp/cc5do5qQ.s:2503   .debug_str:0000000000000601 .LASF87
     /tmp/cc5do5qQ.s:88     .text:0000000000000080 .LVL8
     /tmp/cc5do5qQ.s:105    .text:000000000000009c .LVL10
     /tmp/cc5do5qQ.s:136    .text:00000000000000e0 .LVL16
     /tmp/cc5do5qQ.s:101    .text:0000000000000098 .LVL9
     /tmp/cc5do5qQ.s:14     .text:0000000000000000 .LVL0
     /tmp/cc5do5qQ.s:45     .text:0000000000000034 .LVL2
     /tmp/cc5do5qQ.s:74     .text:0000000000000078 .LVL7
     /tmp/cc5do5qQ.s:27     .text:0000000000000018 .LVL1
     /tmp/cc5do5qQ.s:352    .text:0000000000000244 .LVL37
     /tmp/cc5do5qQ.s:370    .text:0000000000000264 .LVL38
     /tmp/cc5do5qQ.s:411    .text:00000000000002b0 .LVL44
     /tmp/cc5do5qQ.s:418    .text:00000000000002bc .LVL46
     /tmp/cc5do5qQ.s:388    .text:0000000000000288 .LVL41
     /tmp/cc5do5qQ.s:414    .text:00000000000002b4 .LVL45
     /tmp/cc5do5qQ.s:250    .text:0000000000000198 .LVL26
     /tmp/cc5do5qQ.s:267    .text:00000000000001b8 .LVL27
     /tmp/cc5do5qQ.s:322    .text:0000000000000220 .LVL33
     /tmp/cc5do5qQ.s:329    .text:000000000000022c .LVL35
     /tmp/cc5do5qQ.s:291    .text:00000000000001e8 .LVL30
     /tmp/cc5do5qQ.s:325    .text:0000000000000224 .LVL34
     /tmp/cc5do5qQ.s:150    .text:00000000000000e8 .LVL17
     /tmp/cc5do5qQ.s:168    .text:000000000000010c .LVL18
GAS LISTING /tmp/cc5do5qQ.s 			page 21


     /tmp/cc5do5qQ.s:221    .text:0000000000000174 .LVL23
     /tmp/cc5do5qQ.s:227    .text:0000000000000180 .LVL24
     /tmp/cc5do5qQ.s:501    .debug_info:0000000000000000 .Ldebug_info0

UNDEFINED SYMBOLS
_ZN11MySemaphore8sem_openEPPS_m
_Z5kfreePKv
_ZN11MySemaphore9sem_closeEPS_
_ZN11MySemaphore8sem_waitEPS_
_ZN11MySemaphore10sem_signalEPS_
_Z7kmallocm
_Z17kmem_cache_createPKcmPFvPvES3_
