GAS LISTING /tmp/ccsA4SFV.s 			page 1


   1              		.file	"periodicThread.cpp"
   2              		.option pic
   3              		.option norelax
   4              		.text
   5              	.Ltext0:
   6              		.align	2
   7              		.globl	_ZN14periodicThread3putEP3TCB
   9              	_ZN14periodicThread3putEP3TCB:
  10              	.LFB29:
  11              		.file 1 "src/periodicThread.cpp"
   1:src/periodicThread.cpp **** #include "../h/periodic_threads.hpp"
   2:src/periodicThread.cpp **** #include "../h/TCB.hpp"
   3:src/periodicThread.cpp **** 
   4:src/periodicThread.cpp **** TCB* periodicThread::head = nullptr;
   5:src/periodicThread.cpp **** TCB* periodicThread::tail = nullptr;
   6:src/periodicThread.cpp **** 
   7:src/periodicThread.cpp **** void periodicThread::put(TCB *thread) {
  12              		.loc 1 7 39
  13              		.cfi_startproc
  14              	.LVL0:
  15 0000 130101FF 		addi	sp,sp,-16
  16              		.cfi_def_cfa_offset 16
  17 0004 23348100 		sd	s0,8(sp)
  18              		.cfi_offset 8, -8
  19 0008 13040101 		addi	s0,sp,16
  20              		.cfi_def_cfa 8, 0
   8:src/periodicThread.cpp ****     if(!head)head = thread;
  21              		.loc 1 8 5
  22              		.loc 1 8 8 is_stmt 0
  23 000c 97070000 		ld	a5,.LANCHOR0
  23      83B70700 
  24              		.loc 1 8 5
  25 0014 63820702 		beqz	a5,.L5
   9:src/periodicThread.cpp ****     else tail->set_next_period(thread); // tail->next_period = thread;
  26              		.loc 1 9 10 is_stmt 1
  27              		.loc 1 9 31 is_stmt 0
  28 0018 97070000 		ld	a5,.LANCHOR0+8
  28      83B70700 
  29              	.LVL1:
  30              	.LBB8:
  31              	.LBB9:
  32              		.file 2 "src/../h/TCB.hpp"
   1:src/../h/TCB.hpp **** #ifndef _thread_hpp_
   2:src/../h/TCB.hpp **** #define _thread_hpp_
   3:src/../h/TCB.hpp **** 
   4:src/../h/TCB.hpp **** #include "../lib/hw.h"
   5:src/../h/TCB.hpp **** #include "../h/scheduler.hpp"
   6:src/../h/TCB.hpp **** #include "../h/MemoryAllocator.hpp"
   7:src/../h/TCB.hpp **** #include "../h/TS.hpp"
   8:src/../h/TCB.hpp **** #include "../h/periodic_threads.hpp"
   9:src/../h/TCB.hpp **** #include "SlabI.h"
  10:src/../h/TCB.hpp **** 
  11:src/../h/TCB.hpp **** class TCB{
  12:src/../h/TCB.hpp **** public:
  13:src/../h/TCB.hpp ****     using Body = void (*)(void*);
  14:src/../h/TCB.hpp **** 
  15:src/../h/TCB.hpp ****     // trazene
GAS LISTING /tmp/ccsA4SFV.s 			page 2


  16:src/../h/TCB.hpp ****     static int thread_create(
  17:src/../h/TCB.hpp ****         TCB** handle,
  18:src/../h/TCB.hpp ****         void(*start_routine)(void*),
  19:src/../h/TCB.hpp ****         void* arg,
  20:src/../h/TCB.hpp ****         void* stack_space,
  21:src/../h/TCB.hpp ****         bool flag
  22:src/../h/TCB.hpp ****     );
  23:src/../h/TCB.hpp **** 
  24:src/../h/TCB.hpp ****     static int thread_exit();
  25:src/../h/TCB.hpp **** 
  26:src/../h/TCB.hpp ****     static void thread_dispatch();
  27:src/../h/TCB.hpp **** 
  28:src/../h/TCB.hpp ****     static int time_sleep(uint64 time);
  29:src/../h/TCB.hpp **** 
  30:src/../h/TCB.hpp ****     uint64 get_thread_id()const{ return id; }
  31:src/../h/TCB.hpp **** 
  32:src/../h/TCB.hpp ****     // getteri i setteri
  33:src/../h/TCB.hpp ****     void set_finished(bool f){ this->finished = f; }
  34:src/../h/TCB.hpp ****     bool is_finished()const{return finished;}
  35:src/../h/TCB.hpp ****     void set_next_scheduler(TCB* nextThread){ next_scheduler = nextThread; }
  36:src/../h/TCB.hpp ****     TCB* get_next_scheduler()const{ return next_scheduler; }
  37:src/../h/TCB.hpp ****     void set_next_sleep(TCB* nextThread){ next_sleep = nextThread; }
  38:src/../h/TCB.hpp ****     TCB* get_next_sleep()const{ return next_sleep; }
  39:src/../h/TCB.hpp ****     void set_next_blocked(TCB* nextThread){ next_blocked = nextThread; }
  40:src/../h/TCB.hpp ****     TCB* get_next_blocked()const{ return next_blocked; }
  41:src/../h/TCB.hpp ****     uint64 get_time_sleep()const{ return sleep; }
  42:src/../h/TCB.hpp ****     void set_time_sleep(uint64 new_time){ sleep = new_time; }
  43:src/../h/TCB.hpp ****     uint64 get_time_slice()const{ return time_slice; }
  44:src/../h/TCB.hpp ****     void set_periodic(bool b){
  45:src/../h/TCB.hpp ****         periodic = b;
  46:src/../h/TCB.hpp ****         periodicThread::getInstance().put(this);
  47:src/../h/TCB.hpp ****     }
  48:src/../h/TCB.hpp ****     void set_next_period(TCB* tcb){ next_period = tcb; }
  33              		.loc 2 48 37 is_stmt 1
  34              		.loc 2 48 49 is_stmt 0
  35 0020 23B4B706 		sd	a1,104(a5)
  36              	.LVL2:
  37              	.L3:
  38              	.LBE9:
  39              	.LBE8:
  10:src/periodicThread.cpp ****     tail = thread;
  40              		.loc 1 10 5 is_stmt 1
  41              		.loc 1 10 10 is_stmt 0
  42 0024 97070000 		sd	a1,.LANCHOR0+8,a5
  42      23B0B700 
  11:src/periodicThread.cpp **** }
  43              		.loc 1 11 1
  44 002c 03348100 		ld	s0,8(sp)
  45              		.cfi_remember_state
  46              		.cfi_restore 8
  47              		.cfi_def_cfa 2, 16
  48 0030 13010101 		addi	sp,sp,16
  49              		.cfi_def_cfa_offset 0
  50 0034 67800000 		jr	ra
  51              	.L5:
  52              		.cfi_restore_state
   8:src/periodicThread.cpp ****     else tail->set_next_period(thread); // tail->next_period = thread;
GAS LISTING /tmp/ccsA4SFV.s 			page 3


  53              		.loc 1 8 14 is_stmt 1 discriminator 1
   8:src/periodicThread.cpp ****     else tail->set_next_period(thread); // tail->next_period = thread;
  54              		.loc 1 8 19 is_stmt 0 discriminator 1
  55 0038 97070000 		sd	a1,.LANCHOR0,a5
  55      23B0B700 
  56 0040 6FF05FFE 		j	.L3
  57              		.cfi_endproc
  58              	.LFE29:
  60              		.align	2
  61              		.globl	_ZN14periodicThread3getEv
  63              	_ZN14periodicThread3getEv:
  64              	.LFB30:
  12:src/periodicThread.cpp **** 
  13:src/periodicThread.cpp **** TCB *periodicThread::get() {
  65              		.loc 1 13 28 is_stmt 1
  66              		.cfi_startproc
  67              	.LVL3:
  68 0044 130101FF 		addi	sp,sp,-16
  69              		.cfi_def_cfa_offset 16
  70 0048 23348100 		sd	s0,8(sp)
  71              		.cfi_offset 8, -8
  72 004c 13040101 		addi	s0,sp,16
  73              		.cfi_def_cfa 8, 0
  14:src/periodicThread.cpp ****     if(!head)return nullptr;
  74              		.loc 1 14 5
  75              		.loc 1 14 8 is_stmt 0
  76 0050 17050000 		ld	a0,.LANCHOR0
  76      03350500 
  77              	.LVL4:
  78              		.loc 1 14 5
  79 0058 630C0500 		beqz	a0,.L6
  15:src/periodicThread.cpp ****     TCB* tmp = head;
  80              		.loc 1 15 5 is_stmt 1
  81              	.LVL5:
  16:src/periodicThread.cpp ****     head = head->get_next_period(); // head = head->next_period
  82              		.loc 1 16 5
  83              	.LBB10:
  84              	.LBB11:
  49:src/../h/TCB.hpp ****     TCB* get_next_period()const{return next_period;}
  85              		.loc 2 49 33
  86              		.loc 2 49 40 is_stmt 0
  87 005c 83378506 		ld	a5,104(a0)
  88              	.LVL6:
  89              	.LBE11:
  90              	.LBE10:
  91              		.loc 1 16 10
  92 0060 17070000 		sd	a5,.LANCHOR0,a4
  92      2330F700 
  17:src/periodicThread.cpp ****     tmp->set_next_period(nullptr);
  93              		.loc 1 17 5 is_stmt 1
  94              	.LVL7:
  95              	.LBB12:
  96              	.LBB13:
  48:src/../h/TCB.hpp ****     TCB* get_next_period()const{return next_period;}
  97              		.loc 2 48 37
  48:src/../h/TCB.hpp ****     TCB* get_next_period()const{return next_period;}
  98              		.loc 2 48 49 is_stmt 0
GAS LISTING /tmp/ccsA4SFV.s 			page 4


  99 0068 23340506 		sd	zero,104(a0)
 100              	.LVL8:
 101              	.LBE13:
 102              	.LBE12:
  18:src/periodicThread.cpp ****     if(!head)tail = nullptr;
 103              		.loc 1 18 5 is_stmt 1
 104 006c 63880700 		beqz	a5,.L9
 105              	.LVL9:
 106              	.L6:
  19:src/periodicThread.cpp ****     return tmp;
  20:src/periodicThread.cpp **** }
 107              		.loc 1 20 1 is_stmt 0
 108 0070 03348100 		ld	s0,8(sp)
 109              		.cfi_remember_state
 110              		.cfi_restore 8
 111              		.cfi_def_cfa 2, 16
 112 0074 13010101 		addi	sp,sp,16
 113              		.cfi_def_cfa_offset 0
 114 0078 67800000 		jr	ra
 115              	.LVL10:
 116              	.L9:
 117              		.cfi_restore_state
  18:src/periodicThread.cpp ****     if(!head)tail = nullptr;
 118              		.loc 1 18 14 is_stmt 1 discriminator 1
  18:src/periodicThread.cpp ****     if(!head)tail = nullptr;
 119              		.loc 1 18 19 is_stmt 0 discriminator 1
 120 007c 97070000 		sd	zero,.LANCHOR0+8,a5
 120      23B00700 
 121 0084 6FF0DFFE 		j	.L6
 122              		.cfi_endproc
 123              	.LFE30:
 125              		.globl	_ZN14periodicThread4tailE
 126              		.globl	_ZN14periodicThread4headE
 127              		.bss
 128              		.align	3
 129              		.set	.LANCHOR0,. + 0
 132              	_ZN14periodicThread4headE:
 133 0000 00000000 		.zero	8
 133      00000000 
 136              	_ZN14periodicThread4tailE:
 137 0008 00000000 		.zero	8
 137      00000000 
 138              		.text
 139              	.Letext0:
 140              		.file 3 "src/../h/periodic_threads.hpp"
 141              		.file 4 "src/../h/../lib/hw.h"
 142              		.file 5 "src/../h/../h/SlabI.h"
 143              		.file 6 "src/../h/../h/../test/../h/syscall_c.h"
GAS LISTING /tmp/ccsA4SFV.s 			page 5

