GAS LISTING /tmp/ccnEErKE.s 			page 1


   1              		.file	"periodicThread.cpp"
   2              		.option pic
   3              		.option norelax
   4              		.text
   5              	.Ltext0:
   6              		.align	2
   7              		.globl	_ZN14periodicThread3putEP3TCB
   9              	_ZN14periodicThread3putEP3TCB:
  10              	.LFB40:
  11              		.file 1 "src/periodicThread.cpp"
   1:src/periodicThread.cpp **** #include "../h/periodic_threads.hpp"
   2:src/periodicThread.cpp **** #include "../h/TCB.hpp"
   3:src/periodicThread.cpp **** 
   4:src/periodicThread.cpp **** TCB* periodicThread::head = nullptr;
   5:src/periodicThread.cpp **** TCB* periodicThread::tail = nullptr;
   6:src/periodicThread.cpp **** 
   7:src/periodicThread.cpp **** void periodicThread::put(TCB *thread) {
  12              		.loc 1 7 39
  13              		.cfi_startproc
  14              	.LVL0:
  15 0000 130101FF 		addi	sp,sp,-16
  16              		.cfi_def_cfa_offset 16
  17 0004 23348100 		sd	s0,8(sp)
  18              		.cfi_offset 8, -8
  19 0008 13040101 		addi	s0,sp,16
  20              		.cfi_def_cfa 8, 0
   8:src/periodicThread.cpp ****     if(!head)head = thread;
  21              		.loc 1 8 5
  22              		.loc 1 8 8 is_stmt 0
  23 000c 97070000 		ld	a5,.LANCHOR0
  23      83B70700 
  24              		.loc 1 8 5
  25 0014 63820702 		beqz	a5,.L5
   9:src/periodicThread.cpp ****     else tail->set_next_period(thread); // tail->next_period = thread;
  26              		.loc 1 9 10 is_stmt 1
  27              		.loc 1 9 31 is_stmt 0
  28 0018 97070000 		ld	a5,.LANCHOR0+8
  28      83B70700 
  29              	.LVL1:
  30              	.LBB8:
  31              	.LBB9:
  32              		.file 2 "src/../h/TCB.hpp"
   1:src/../h/TCB.hpp **** #ifndef _thread_hpp_
   2:src/../h/TCB.hpp **** #define _thread_hpp_
   3:src/../h/TCB.hpp **** 
   4:src/../h/TCB.hpp **** #include "../lib/hw.h"
   5:src/../h/TCB.hpp **** #include "../h/scheduler.hpp"
   6:src/../h/TCB.hpp **** #include "../h/MemoryAllocator.hpp"
   7:src/../h/TCB.hpp **** #include "../h/TS.hpp"
   8:src/../h/TCB.hpp **** #include "../h/periodic_threads.hpp"
   9:src/../h/TCB.hpp **** 
  10:src/../h/TCB.hpp **** class TCB{
  11:src/../h/TCB.hpp **** public:
  12:src/../h/TCB.hpp **** 
  13:src/../h/TCB.hpp ****     ~TCB(){
  14:src/../h/TCB.hpp ****         MemoryAllocator::getInstance().memory_free((void*)stack);
  15:src/../h/TCB.hpp ****     }
GAS LISTING /tmp/ccnEErKE.s 			page 2


  16:src/../h/TCB.hpp **** 
  17:src/../h/TCB.hpp ****     using Body = void (*)(void*);
  18:src/../h/TCB.hpp **** 
  19:src/../h/TCB.hpp ****     // trazene
  20:src/../h/TCB.hpp ****     static int thread_create(
  21:src/../h/TCB.hpp ****         TCB** handle,
  22:src/../h/TCB.hpp ****         void(*start_routine)(void*),
  23:src/../h/TCB.hpp ****         void* arg,
  24:src/../h/TCB.hpp ****         void* stack_space,
  25:src/../h/TCB.hpp ****         bool flag
  26:src/../h/TCB.hpp ****     );
  27:src/../h/TCB.hpp **** 
  28:src/../h/TCB.hpp ****     static int thread_exit();
  29:src/../h/TCB.hpp **** 
  30:src/../h/TCB.hpp ****     static void thread_dispatch();
  31:src/../h/TCB.hpp **** 
  32:src/../h/TCB.hpp ****     static int time_sleep(uint64 time);
  33:src/../h/TCB.hpp **** 
  34:src/../h/TCB.hpp ****     // getteri i setteri
  35:src/../h/TCB.hpp ****     void set_finished(bool f){ this->finished = f; }
  36:src/../h/TCB.hpp **** 
  37:src/../h/TCB.hpp ****     bool is_finished()const{return finished;}
  38:src/../h/TCB.hpp **** 
  39:src/../h/TCB.hpp ****     void set_next_scheduler(TCB* nextThread){ next_scheduler = nextThread; }
  40:src/../h/TCB.hpp **** 
  41:src/../h/TCB.hpp ****     TCB* get_next_scheduler()const{ return next_scheduler; }
  42:src/../h/TCB.hpp **** 
  43:src/../h/TCB.hpp ****     void set_next_sleep(TCB* nextThread){ next_sleep = nextThread; }
  44:src/../h/TCB.hpp **** 
  45:src/../h/TCB.hpp ****     TCB* get_next_sleep()const{ return next_sleep; }
  46:src/../h/TCB.hpp **** 
  47:src/../h/TCB.hpp ****     void set_next_blocked(TCB* nextThread){ next_blocked = nextThread; }
  48:src/../h/TCB.hpp **** 
  49:src/../h/TCB.hpp ****     TCB* get_next_blocked()const{ return next_blocked; }
  50:src/../h/TCB.hpp **** 
  51:src/../h/TCB.hpp ****     uint64 get_thread_id()const{ return id; }
  52:src/../h/TCB.hpp **** 
  53:src/../h/TCB.hpp ****     uint64 get_time_sleep()const{ return sleep; }
  54:src/../h/TCB.hpp **** 
  55:src/../h/TCB.hpp ****     void set_time_sleep(uint64 new_time){ sleep = new_time; }
  56:src/../h/TCB.hpp **** 
  57:src/../h/TCB.hpp ****     uint64 get_time_slice()const{ return time_slice; }
  58:src/../h/TCB.hpp **** 
  59:src/../h/TCB.hpp ****     void set_periodic(bool b){
  60:src/../h/TCB.hpp ****         periodic = b;
  61:src/../h/TCB.hpp ****         periodicThread::getInstance().put(this);
  62:src/../h/TCB.hpp ****     }
  63:src/../h/TCB.hpp **** 
  64:src/../h/TCB.hpp ****     void set_next_period(TCB* tcb){ next_period = tcb; }
  33              		.loc 2 64 37 is_stmt 1
  34              		.loc 2 64 49 is_stmt 0
  35 0020 23B4B706 		sd	a1,104(a5)
  36              	.LVL2:
  37              	.L3:
  38              	.LBE9:
  39              	.LBE8:
  10:src/periodicThread.cpp ****     tail = thread;
GAS LISTING /tmp/ccnEErKE.s 			page 3


  40              		.loc 1 10 5 is_stmt 1
  41              		.loc 1 10 10 is_stmt 0
  42 0024 97070000 		sd	a1,.LANCHOR0+8,a5
  42      23B0B700 
  11:src/periodicThread.cpp **** }
  43              		.loc 1 11 1
  44 002c 03348100 		ld	s0,8(sp)
  45              		.cfi_remember_state
  46              		.cfi_restore 8
  47              		.cfi_def_cfa 2, 16
  48 0030 13010101 		addi	sp,sp,16
  49              		.cfi_def_cfa_offset 0
  50 0034 67800000 		jr	ra
  51              	.L5:
  52              		.cfi_restore_state
   8:src/periodicThread.cpp ****     else tail->set_next_period(thread); // tail->next_period = thread;
  53              		.loc 1 8 14 is_stmt 1 discriminator 1
   8:src/periodicThread.cpp ****     else tail->set_next_period(thread); // tail->next_period = thread;
  54              		.loc 1 8 19 is_stmt 0 discriminator 1
  55 0038 97070000 		sd	a1,.LANCHOR0,a5
  55      23B0B700 
  56 0040 6FF05FFE 		j	.L3
  57              		.cfi_endproc
  58              	.LFE40:
  60              		.align	2
  61              		.globl	_ZN14periodicThread3getEv
  63              	_ZN14periodicThread3getEv:
  64              	.LFB41:
  12:src/periodicThread.cpp **** 
  13:src/periodicThread.cpp **** TCB *periodicThread::get() {
  65              		.loc 1 13 28 is_stmt 1
  66              		.cfi_startproc
  67              	.LVL3:
  68 0044 130101FF 		addi	sp,sp,-16
  69              		.cfi_def_cfa_offset 16
  70 0048 23348100 		sd	s0,8(sp)
  71              		.cfi_offset 8, -8
  72 004c 13040101 		addi	s0,sp,16
  73              		.cfi_def_cfa 8, 0
  14:src/periodicThread.cpp ****     if(!head)return nullptr;
  74              		.loc 1 14 5
  75              		.loc 1 14 8 is_stmt 0
  76 0050 17050000 		ld	a0,.LANCHOR0
  76      03350500 
  77              	.LVL4:
  78              		.loc 1 14 5
  79 0058 630C0500 		beqz	a0,.L6
  15:src/periodicThread.cpp ****     TCB* tmp = head;
  80              		.loc 1 15 5 is_stmt 1
  81              	.LVL5:
  16:src/periodicThread.cpp ****     head = head->get_next_period(); // head = head->next_period
  82              		.loc 1 16 5
  83              	.LBB10:
  84              	.LBB11:
  65:src/../h/TCB.hpp **** 
  66:src/../h/TCB.hpp ****     TCB* get_next_period()const{return next_period;}
  85              		.loc 2 66 33
GAS LISTING /tmp/ccnEErKE.s 			page 4


  86              		.loc 2 66 40 is_stmt 0
  87 005c 83378506 		ld	a5,104(a0)
  88              	.LVL6:
  89              	.LBE11:
  90              	.LBE10:
  91              		.loc 1 16 10
  92 0060 17070000 		sd	a5,.LANCHOR0,a4
  92      2330F700 
  17:src/periodicThread.cpp ****     tmp->set_next_period(nullptr);
  93              		.loc 1 17 5 is_stmt 1
  94              	.LVL7:
  95              	.LBB12:
  96              	.LBB13:
  64:src/../h/TCB.hpp **** 
  97              		.loc 2 64 37
  64:src/../h/TCB.hpp **** 
  98              		.loc 2 64 49 is_stmt 0
  99 0068 23340506 		sd	zero,104(a0)
 100              	.LVL8:
 101              	.LBE13:
 102              	.LBE12:
  18:src/periodicThread.cpp ****     if(!head)tail = nullptr;
 103              		.loc 1 18 5 is_stmt 1
 104 006c 63880700 		beqz	a5,.L9
 105              	.LVL9:
 106              	.L6:
  19:src/periodicThread.cpp ****     return tmp;
  20:src/periodicThread.cpp **** }
 107              		.loc 1 20 1 is_stmt 0
 108 0070 03348100 		ld	s0,8(sp)
 109              		.cfi_remember_state
 110              		.cfi_restore 8
 111              		.cfi_def_cfa 2, 16
 112 0074 13010101 		addi	sp,sp,16
 113              		.cfi_def_cfa_offset 0
 114 0078 67800000 		jr	ra
 115              	.LVL10:
 116              	.L9:
 117              		.cfi_restore_state
  18:src/periodicThread.cpp ****     if(!head)tail = nullptr;
 118              		.loc 1 18 14 is_stmt 1 discriminator 1
  18:src/periodicThread.cpp ****     if(!head)tail = nullptr;
 119              		.loc 1 18 19 is_stmt 0 discriminator 1
 120 007c 97070000 		sd	zero,.LANCHOR0+8,a5
 120      23B00700 
 121 0084 6FF0DFFE 		j	.L6
 122              		.cfi_endproc
 123              	.LFE41:
 125              		.globl	_ZN14periodicThread4tailE
 126              		.globl	_ZN14periodicThread4headE
 127              		.bss
 128              		.align	3
 129              		.set	.LANCHOR0,. + 0
 132              	_ZN14periodicThread4headE:
 133 0000 00000000 		.zero	8
 133      00000000 
 136              	_ZN14periodicThread4tailE:
GAS LISTING /tmp/ccnEErKE.s 			page 5


 137 0008 00000000 		.zero	8
 137      00000000 
 138              		.text
 139              	.Letext0:
 140              		.file 3 "src/../h/periodic_threads.hpp"
 141              		.file 4 "src/../h/../lib/hw.h"
GAS LISTING /tmp/ccnEErKE.s 			page 6


DEFINED SYMBOLS
                            *ABS*:0000000000000000 periodicThread.cpp
     /tmp/ccnEErKE.s:9      .text:0000000000000000 _ZN14periodicThread3putEP3TCB
     /tmp/ccnEErKE.s:13     .text:0000000000000000 .L0 
     /tmp/ccnEErKE.s:15     .text:0000000000000000 .L0 
     /tmp/ccnEErKE.s:16     .text:0000000000000004 .L0 
     /tmp/ccnEErKE.s:18     .text:0000000000000008 .L0 
     /tmp/ccnEErKE.s:20     .text:000000000000000c .L0 
     /tmp/ccnEErKE.s:22     .text:000000000000000c .L0 
     /tmp/ccnEErKE.s:23     .text:000000000000000c .L0 
     /tmp/ccnEErKE.s:25     .text:0000000000000014 .L0 
     /tmp/ccnEErKE.s:27     .text:0000000000000018 .L0 
     /tmp/ccnEErKE.s:28     .text:0000000000000018 .L0 
     /tmp/ccnEErKE.s:34     .text:0000000000000020 .L0 
     /tmp/ccnEErKE.s:35     .text:0000000000000020 .L0 
     /tmp/ccnEErKE.s:41     .text:0000000000000024 .L0 
     /tmp/ccnEErKE.s:42     .text:0000000000000024 .L0 
     /tmp/ccnEErKE.s:44     .text:000000000000002c .L0 
     /tmp/ccnEErKE.s:45     .text:0000000000000030 .L0 
     /tmp/ccnEErKE.s:46     .text:0000000000000030 .L0 
     /tmp/ccnEErKE.s:47     .text:0000000000000030 .L0 
     /tmp/ccnEErKE.s:49     .text:0000000000000034 .L0 
     /tmp/ccnEErKE.s:52     .text:0000000000000038 .L0 
     /tmp/ccnEErKE.s:54     .text:0000000000000038 .L0 
     /tmp/ccnEErKE.s:55     .text:0000000000000038 .L0 
     /tmp/ccnEErKE.s:57     .text:0000000000000044 .L0 
     /tmp/ccnEErKE.s:63     .text:0000000000000044 _ZN14periodicThread3getEv
     /tmp/ccnEErKE.s:66     .text:0000000000000044 .L0 
     /tmp/ccnEErKE.s:68     .text:0000000000000044 .L0 
     /tmp/ccnEErKE.s:69     .text:0000000000000048 .L0 
     /tmp/ccnEErKE.s:71     .text:000000000000004c .L0 
     /tmp/ccnEErKE.s:73     .text:0000000000000050 .L0 
     /tmp/ccnEErKE.s:75     .text:0000000000000050 .L0 
     /tmp/ccnEErKE.s:76     .text:0000000000000050 .L0 
     /tmp/ccnEErKE.s:79     .text:0000000000000058 .L0 
     /tmp/ccnEErKE.s:82     .text:000000000000005c .L0 
     /tmp/ccnEErKE.s:85     .text:000000000000005c .L0 
     /tmp/ccnEErKE.s:86     .text:000000000000005c .L0 
     /tmp/ccnEErKE.s:87     .text:000000000000005c .L0 
     /tmp/ccnEErKE.s:92     .text:0000000000000060 .L0 
     /tmp/ccnEErKE.s:97     .text:0000000000000068 .L0 
     /tmp/ccnEErKE.s:98     .text:0000000000000068 .L0 
     /tmp/ccnEErKE.s:99     .text:0000000000000068 .L0 
     /tmp/ccnEErKE.s:104    .text:000000000000006c .L0 
     /tmp/ccnEErKE.s:108    .text:0000000000000070 .L0 
     /tmp/ccnEErKE.s:109    .text:0000000000000074 .L0 
     /tmp/ccnEErKE.s:110    .text:0000000000000074 .L0 
     /tmp/ccnEErKE.s:111    .text:0000000000000074 .L0 
     /tmp/ccnEErKE.s:113    .text:0000000000000078 .L0 
     /tmp/ccnEErKE.s:117    .text:000000000000007c .L0 
     /tmp/ccnEErKE.s:119    .text:000000000000007c .L0 
     /tmp/ccnEErKE.s:120    .text:000000000000007c .L0 
     /tmp/ccnEErKE.s:122    .text:0000000000000088 .L0 
     /tmp/ccnEErKE.s:136    .bss:0000000000000008 _ZN14periodicThread4tailE
     /tmp/ccnEErKE.s:132    .bss:0000000000000000 _ZN14periodicThread4headE
     /tmp/ccnEErKE.s:129    .bss:0000000000000000 .LANCHOR0
     /tmp/ccnEErKE.s:142    .text:0000000000000088 .L0 
GAS LISTING /tmp/ccnEErKE.s 			page 7


     /tmp/ccnEErKE.s:23     .text:000000000000000c .L0 
     /tmp/ccnEErKE.s:28     .text:0000000000000018 .L0 
     /tmp/ccnEErKE.s:42     .text:0000000000000024 .L0 
     /tmp/ccnEErKE.s:55     .text:0000000000000038 .L0 
     /tmp/ccnEErKE.s:76     .text:0000000000000050 .L0 
     /tmp/ccnEErKE.s:92     .text:0000000000000060 .L0 
     /tmp/ccnEErKE.s:120    .text:000000000000007c .L0 
     /tmp/ccnEErKE.s:51     .text:0000000000000038 .L5
     /tmp/ccnEErKE.s:37     .text:0000000000000024 .L3
     /tmp/ccnEErKE.s:106    .text:0000000000000070 .L6
     /tmp/ccnEErKE.s:116    .text:000000000000007c .L9
     /tmp/ccnEErKE.s:1064   .debug_abbrev:0000000000000000 .Ldebug_abbrev0
     /tmp/ccnEErKE.s:2164   .debug_str:000000000000063f .LASF98
     /tmp/ccnEErKE.s:2156   .debug_str:00000000000005fe .LASF99
     /tmp/ccnEErKE.s:2058   .debug_str:00000000000002c9 .LASF100
     /tmp/ccnEErKE.s:5      .text:0000000000000000 .Ltext0
     /tmp/ccnEErKE.s:139    .text:0000000000000088 .Letext0
     /tmp/ccnEErKE.s:1978   .debug_line:0000000000000000 .Ldebug_line0
     /tmp/ccnEErKE.s:1980   .debug_str:0000000000000000 .LASF0
     /tmp/ccnEErKE.s:2166   .debug_str:0000000000000703 .LASF10
     /tmp/ccnEErKE.s:2040   .debug_str:0000000000000249 .LASF12
     /tmp/ccnEErKE.s:2102   .debug_str:000000000000043e .LASF2
     /tmp/ccnEErKE.s:2090   .debug_str:00000000000003f1 .LASF1
     /tmp/ccnEErKE.s:2016   .debug_str:000000000000015d .LASF3
     /tmp/ccnEErKE.s:1990   .debug_str:000000000000006d .LASF101
     /tmp/ccnEErKE.s:1982   .debug_str:000000000000000f .LASF102
     /tmp/ccnEErKE.s:2036   .debug_str:000000000000022a .LASF4
     /tmp/ccnEErKE.s:2078   .debug_str:0000000000000393 .LASF5
     /tmp/ccnEErKE.s:2048   .debug_str:000000000000027e .LASF61
     /tmp/ccnEErKE.s:1992   .debug_str:000000000000008b .LASF103
     /tmp/ccnEErKE.s:2042   .debug_str:000000000000026c .LASF6
     /tmp/ccnEErKE.s:2132   .debug_str:000000000000052c .LASF8
     /tmp/ccnEErKE.s:2032   .debug_str:0000000000000215 .LASF7
     /tmp/ccnEErKE.s:2012   .debug_str:0000000000000127 .LASF9
     /tmp/ccnEErKE.s:1994   .debug_str:0000000000000093 .LASF11
     /tmp/ccnEErKE.s:2028   .debug_str:00000000000001e1 .LASF13
     /tmp/ccnEErKE.s:2022   .debug_str:0000000000000197 .LASF46
     /tmp/ccnEErKE.s:2080   .debug_str:0000000000000398 .LASF48
     /tmp/ccnEErKE.s:2142   .debug_str:0000000000000584 .LASF14
     /tmp/ccnEErKE.s:2010   .debug_str:0000000000000111 .LASF15
     /tmp/ccnEErKE.s:2124   .debug_str:0000000000000508 .LASF16
     /tmp/ccnEErKE.s:2150   .debug_str:00000000000005c6 .LASF17
     /tmp/ccnEErKE.s:2002   .debug_str:00000000000000d8 .LASF18
     /tmp/ccnEErKE.s:2184   .debug_str:0000000000000791 .LASF19
     /tmp/ccnEErKE.s:2162   .debug_str:000000000000062c .LASF20
     /tmp/ccnEErKE.s:2178   .debug_str:000000000000075d .LASF21
     /tmp/ccnEErKE.s:2070   .debug_str:0000000000000346 .LASF22
     /tmp/ccnEErKE.s:2006   .debug_str:00000000000000e9 .LASF23
     /tmp/ccnEErKE.s:2076   .debug_str:0000000000000384 .LASF24
     /tmp/ccnEErKE.s:2120   .debug_str:00000000000004df .LASF25
     /tmp/ccnEErKE.s:2134   .debug_str:0000000000000538 .LASF26
     /tmp/ccnEErKE.s:1998   .debug_str:00000000000000ae .LASF27
     /tmp/ccnEErKE.s:2024   .debug_str:00000000000001a7 .LASF28
     /tmp/ccnEErKE.s:2138   .debug_str:0000000000000556 .LASF29
     /tmp/ccnEErKE.s:2108   .debug_str:0000000000000477 .LASF30
     /tmp/ccnEErKE.s:2062   .debug_str:0000000000000309 .LASF31
     /tmp/ccnEErKE.s:2196   .debug_str:0000000000000803 .LASF32
GAS LISTING /tmp/ccnEErKE.s 			page 8


     /tmp/ccnEErKE.s:2038   .debug_str:000000000000022f .LASF33
     /tmp/ccnEErKE.s:2168   .debug_str:000000000000070f .LASF34
     /tmp/ccnEErKE.s:2074   .debug_str:0000000000000369 .LASF35
     /tmp/ccnEErKE.s:2000   .debug_str:00000000000000c9 .LASF36
     /tmp/ccnEErKE.s:2088   .debug_str:00000000000003d7 .LASF37
     /tmp/ccnEErKE.s:2066   .debug_str:000000000000032f .LASF38
     /tmp/ccnEErKE.s:2110   .debug_str:0000000000000488 .LASF39
     /tmp/ccnEErKE.s:2152   .debug_str:00000000000005de .LASF40
     /tmp/ccnEErKE.s:2170   .debug_str:000000000000071e .LASF41
     /tmp/ccnEErKE.s:2054   .debug_str:00000000000002ab .LASF42
     /tmp/ccnEErKE.s:2030   .debug_str:00000000000001f8 .LASF43
     /tmp/ccnEErKE.s:2194   .debug_str:00000000000007f3 .LASF44
     /tmp/ccnEErKE.s:2096   .debug_str:0000000000000413 .LASF45
     /tmp/ccnEErKE.s:2084   .debug_str:00000000000003c1 .LASF47
     /tmp/ccnEErKE.s:2086   .debug_str:00000000000003c7 .LASF49
     /tmp/ccnEErKE.s:2186   .debug_str:00000000000007a9 .LASF50
     /tmp/ccnEErKE.s:2158   .debug_str:0000000000000615 .LASF51
     /tmp/ccnEErKE.s:2052   .debug_str:000000000000029b .LASF52
     /tmp/ccnEErKE.s:2060   .debug_str:00000000000002fd .LASF53
     /tmp/ccnEErKE.s:2140   .debug_str:0000000000000574 .LASF54
     /tmp/ccnEErKE.s:2122   .debug_str:00000000000004fb .LASF56
     /tmp/ccnEErKE.s:2154   .debug_str:00000000000005eb .LASF55
     /tmp/ccnEErKE.s:2014   .debug_str:0000000000000150 .LASF57
     /tmp/ccnEErKE.s:2046   .debug_str:0000000000000276 .LASF58
     /tmp/ccnEErKE.s:2092   .debug_str:00000000000003fb .LASF59
     /tmp/ccnEErKE.s:2106   .debug_str:000000000000045f .LASF104
     /tmp/ccnEErKE.s:2004   .debug_str:00000000000000e4 .LASF105
     /tmp/ccnEErKE.s:2136   .debug_str:0000000000000547 .LASF60
     /tmp/ccnEErKE.s:2026   .debug_str:00000000000001b8 .LASF62
     /tmp/ccnEErKE.s:1996   .debug_str:000000000000009f .LASF106
     /tmp/ccnEErKE.s:1986   .debug_str:0000000000000043 .LASF107
     /tmp/ccnEErKE.s:2020   .debug_str:0000000000000184 .LASF108
     /tmp/ccnEErKE.s:2044   .debug_str:0000000000000271 .LASF63
     /tmp/ccnEErKE.s:2100   .debug_str:0000000000000435 .LASF64
     /tmp/ccnEErKE.s:2098   .debug_str:000000000000042f .LASF65
     /tmp/ccnEErKE.s:2068   .debug_str:000000000000033e .LASF66
     /tmp/ccnEErKE.s:2064   .debug_str:0000000000000326 .LASF67
     /tmp/ccnEErKE.s:2148   .debug_str:00000000000005b7 .LASF68
     /tmp/ccnEErKE.s:2160   .debug_str:0000000000000621 .LASF69
     /tmp/ccnEErKE.s:2198   .debug_str:0000000000000811 .LASF70
     /tmp/ccnEErKE.s:2104   .debug_str:0000000000000459 .LASF71
     /tmp/ccnEErKE.s:2130   .debug_str:0000000000000521 .LASF72
     /tmp/ccnEErKE.s:2182   .debug_str:000000000000078c .LASF73
     /tmp/ccnEErKE.s:2008   .debug_str:0000000000000108 .LASF74
     /tmp/ccnEErKE.s:2172   .debug_str:0000000000000736 .LASF75
     /tmp/ccnEErKE.s:2188   .debug_str:00000000000007b6 .LASF76
     /tmp/ccnEErKE.s:2112   .debug_str:00000000000004a3 .LASF77
     /tmp/ccnEErKE.s:2082   .debug_str:00000000000003b3 .LASF78
     /tmp/ccnEErKE.s:2034   .debug_str:0000000000000223 .LASF80
     /tmp/ccnEErKE.s:2146   .debug_str:00000000000005a5 .LASF79
     /tmp/ccnEErKE.s:2126   .debug_str:0000000000000515 .LASF81
     /tmp/ccnEErKE.s:2114   .debug_str:00000000000004b6 .LASF82
     /tmp/ccnEErKE.s:2094   .debug_str:0000000000000400 .LASF83
     /tmp/ccnEErKE.s:2176   .debug_str:000000000000074d .LASF84
     /tmp/ccnEErKE.s:2056   .debug_str:00000000000002bb .LASF85
     /tmp/ccnEErKE.s:2180   .debug_str:000000000000077d .LASF86
     /tmp/ccnEErKE.s:2174   .debug_str:0000000000000742 .LASF87
GAS LISTING /tmp/ccnEErKE.s 			page 9


     /tmp/ccnEErKE.s:2116   .debug_str:00000000000004c9 .LASF88
     /tmp/ccnEErKE.s:2072   .debug_str:0000000000000359 .LASF89
     /tmp/ccnEErKE.s:1988   .debug_str:000000000000005d .LASF90
     /tmp/ccnEErKE.s:2018   .debug_str:0000000000000178 .LASF91
     /tmp/ccnEErKE.s:2144   .debug_str:000000000000058f .LASF92
     /tmp/ccnEErKE.s:2192   .debug_str:00000000000007dd .LASF93
     /tmp/ccnEErKE.s:2050   .debug_str:0000000000000296 .LASF94
     /tmp/ccnEErKE.s:2190   .debug_str:00000000000007c3 .LASF95
     /tmp/ccnEErKE.s:1984   .debug_str:0000000000000029 .LASF96
     /tmp/ccnEErKE.s:64     .text:0000000000000044 .LFB41
     /tmp/ccnEErKE.s:123    .text:0000000000000088 .LFE41
     /tmp/ccnEErKE.s:2128   .debug_str:000000000000051c .LASF97
     /tmp/ccnEErKE.s:1904   .debug_loc:0000000000000000 .LLST2
     /tmp/ccnEErKE.s:1918   .debug_loc:0000000000000039 .LLST3
     /tmp/ccnEErKE.s:83     .text:000000000000005c .LBB10
     /tmp/ccnEErKE.s:90     .text:0000000000000060 .LBE10
     /tmp/ccnEErKE.s:1929   .debug_loc:000000000000006f .LLST4
     /tmp/ccnEErKE.s:95     .text:0000000000000068 .LBB12
     /tmp/ccnEErKE.s:102    .text:000000000000006c .LBE12
     /tmp/ccnEErKE.s:1936   .debug_loc:0000000000000092 .LLST5
     /tmp/ccnEErKE.s:1944   .debug_loc:00000000000000b6 .LLST6
     /tmp/ccnEErKE.s:10     .text:0000000000000000 .LFB40
     /tmp/ccnEErKE.s:58     .text:0000000000000044 .LFE40
     /tmp/ccnEErKE.s:2118   .debug_str:00000000000004d8 .LASF109
     /tmp/ccnEErKE.s:30     .text:0000000000000020 .LBB8
     /tmp/ccnEErKE.s:39     .text:0000000000000024 .LBE8
     /tmp/ccnEErKE.s:1951   .debug_loc:00000000000000d9 .LLST0
     /tmp/ccnEErKE.s:1958   .debug_loc:00000000000000fc .LLST1
     /tmp/ccnEErKE.s:67     .text:0000000000000044 .LVL3
     /tmp/ccnEErKE.s:77     .text:0000000000000058 .LVL4
     /tmp/ccnEErKE.s:81     .text:000000000000005c .LVL5
     /tmp/ccnEErKE.s:105    .text:0000000000000070 .LVL9
     /tmp/ccnEErKE.s:115    .text:000000000000007c .LVL10
     /tmp/ccnEErKE.s:88     .text:0000000000000060 .LVL6
     /tmp/ccnEErKE.s:94     .text:0000000000000068 .LVL7
     /tmp/ccnEErKE.s:100    .text:000000000000006c .LVL8
     /tmp/ccnEErKE.s:29     .text:0000000000000020 .LVL1
     /tmp/ccnEErKE.s:36     .text:0000000000000024 .LVL2
     /tmp/ccnEErKE.s:143    .debug_info:0000000000000000 .Ldebug_info0

NO UNDEFINED SYMBOLS
