GAS LISTING /tmp/ccn0TTqR.s 			page 1


   1              		.file	"riscv.cpp"
   2              		.option pic
   3              		.option norelax
   4              		.text
   5              	.Ltext0:
   6              		.align	2
   7              		.globl	_ZN5Riscv14switch_to_userEv
   9              	_ZN5Riscv14switch_to_userEv:
  10              	.LFB75:
  11              		.file 1 "src/riscv.cpp"
   1:src/riscv.cpp **** #include "../h/riscv.hpp"
   2:src/riscv.cpp **** #include "../h/MemoryAllocator.hpp"
   3:src/riscv.cpp **** #include "../h/TCB.hpp"
   4:src/riscv.cpp **** #include "../h/semaphore.hpp"
   5:src/riscv.cpp **** #include "../h/console.hpp"
   6:src/riscv.cpp **** 
   7:src/riscv.cpp **** void Riscv::switch_to_user(){
  12              		.loc 1 7 29
  13              		.cfi_startproc
  14 0000 130101FF 		addi	sp,sp,-16
  15              		.cfi_def_cfa_offset 16
  16 0004 23348100 		sd	s0,8(sp)
  17              		.cfi_offset 8, -8
  18 0008 13040101 		addi	s0,sp,16
  19              		.cfi_def_cfa 8, 0
   8:src/riscv.cpp ****     mc_sstatus(SSTATUS_SPP);
  20              		.loc 1 8 5
  21              	.LVL0:
  22              	.LBB75:
  23              	.LBB76:
  24              		.file 2 "src/../h/riscv.hpp"
   1:src/../h/riscv.hpp **** #ifndef _riscv_hpp_
   2:src/../h/riscv.hpp **** #define _riscv_hpp_
   3:src/../h/riscv.hpp **** 
   4:src/../h/riscv.hpp **** #include "../lib/hw.h"
   5:src/../h/riscv.hpp **** 
   6:src/../h/riscv.hpp **** class Riscv
   7:src/../h/riscv.hpp **** {
   8:src/../h/riscv.hpp **** public:
   9:src/../h/riscv.hpp **** 
  10:src/../h/riscv.hpp ****     // u korisnicki
  11:src/../h/riscv.hpp ****     static void switch_to_user();
  12:src/../h/riscv.hpp **** 
  13:src/../h/riscv.hpp ****     // u privilegovani
  14:src/../h/riscv.hpp ****     static void switch_to_priviledged();
  15:src/../h/riscv.hpp **** 
  16:src/../h/riscv.hpp ****     // push x3..x31 registers onto stack
  17:src/../h/riscv.hpp ****     static void pushRegisters();
  18:src/../h/riscv.hpp **** 
  19:src/../h/riscv.hpp ****     // pop x3..x31 registers onto stack
  20:src/../h/riscv.hpp ****     static void popRegisters();
  21:src/../h/riscv.hpp **** 
  22:src/../h/riscv.hpp ****     // pop sstatus.spp and sstatus.spie bits (has to be a non inline function)
  23:src/../h/riscv.hpp ****     static void popSppSpie();
  24:src/../h/riscv.hpp **** 
  25:src/../h/riscv.hpp ****     // read register scause
  26:src/../h/riscv.hpp ****     static uint64 r_scause();
GAS LISTING /tmp/ccn0TTqR.s 			page 2


  27:src/../h/riscv.hpp **** 
  28:src/../h/riscv.hpp ****     // write register scause
  29:src/../h/riscv.hpp ****     static void w_scause(uint64 scause);
  30:src/../h/riscv.hpp **** 
  31:src/../h/riscv.hpp ****     // read register sepc
  32:src/../h/riscv.hpp ****     static uint64 r_sepc();
  33:src/../h/riscv.hpp **** 
  34:src/../h/riscv.hpp ****     // write register sepc
  35:src/../h/riscv.hpp ****     static void w_sepc(uint64 sepc);
  36:src/../h/riscv.hpp **** 
  37:src/../h/riscv.hpp ****     // read register stvec
  38:src/../h/riscv.hpp ****     static uint64 r_stvec();
  39:src/../h/riscv.hpp **** 
  40:src/../h/riscv.hpp ****     // write register stvec
  41:src/../h/riscv.hpp ****     static void w_stvec(uint64 stvec);
  42:src/../h/riscv.hpp **** 
  43:src/../h/riscv.hpp ****     // read register stval
  44:src/../h/riscv.hpp ****     static uint64 r_stval();
  45:src/../h/riscv.hpp **** 
  46:src/../h/riscv.hpp ****     // write register stval
  47:src/../h/riscv.hpp ****     static void w_stval(uint64 stval);
  48:src/../h/riscv.hpp **** 
  49:src/../h/riscv.hpp ****     enum BitMaskSip
  50:src/../h/riscv.hpp ****     {
  51:src/../h/riscv.hpp ****         SIP_SSIP = (1 << 1),
  52:src/../h/riscv.hpp ****         SIP_STIP = (1 << 5),
  53:src/../h/riscv.hpp ****         SIP_SEIP = (1 << 9),
  54:src/../h/riscv.hpp ****     };
  55:src/../h/riscv.hpp **** 
  56:src/../h/riscv.hpp ****     // mask set register sip
  57:src/../h/riscv.hpp ****     static void ms_sip(uint64 mask);
  58:src/../h/riscv.hpp **** 
  59:src/../h/riscv.hpp ****     // mask clear register sip
  60:src/../h/riscv.hpp ****     static void mc_sip(uint64 mask);
  61:src/../h/riscv.hpp **** 
  62:src/../h/riscv.hpp ****     // read register sip
  63:src/../h/riscv.hpp ****     static uint64 r_sip();
  64:src/../h/riscv.hpp **** 
  65:src/../h/riscv.hpp ****     // write register sip
  66:src/../h/riscv.hpp ****     static void w_sip(uint64 sip);
  67:src/../h/riscv.hpp **** 
  68:src/../h/riscv.hpp ****     enum BitMaskSstatus
  69:src/../h/riscv.hpp ****     {
  70:src/../h/riscv.hpp ****         SSTATUS_SIE = (1 << 1),
  71:src/../h/riscv.hpp ****         SSTATUS_SPIE = (1 << 5),
  72:src/../h/riscv.hpp ****         SSTATUS_SPP = (1 << 8),
  73:src/../h/riscv.hpp ****     };
  74:src/../h/riscv.hpp **** 
  75:src/../h/riscv.hpp ****     // mask set register sstatus
  76:src/../h/riscv.hpp ****     static void ms_sstatus(uint64 mask);
  77:src/../h/riscv.hpp **** 
  78:src/../h/riscv.hpp ****     // mask clear register sstatus
  79:src/../h/riscv.hpp ****     static void mc_sstatus(uint64 mask);
  80:src/../h/riscv.hpp **** 
  81:src/../h/riscv.hpp ****     // read register sstatus
  82:src/../h/riscv.hpp ****     static uint64 r_sstatus();
  83:src/../h/riscv.hpp **** 
GAS LISTING /tmp/ccn0TTqR.s 			page 3


  84:src/../h/riscv.hpp ****     // write register sstatus
  85:src/../h/riscv.hpp ****     static void w_sstatus(uint64 sstatus);
  86:src/../h/riscv.hpp **** 
  87:src/../h/riscv.hpp ****     // supervisor trap
  88:src/../h/riscv.hpp ****     static void supervisorTrap();
  89:src/../h/riscv.hpp **** 
  90:src/../h/riscv.hpp **** private:
  91:src/../h/riscv.hpp **** 
  92:src/../h/riscv.hpp ****     // supervisor trap handler
  93:src/../h/riscv.hpp ****     static void handleSupervisorTrap();
  94:src/../h/riscv.hpp **** 
  95:src/../h/riscv.hpp **** };
  96:src/../h/riscv.hpp **** 
  97:src/../h/riscv.hpp **** 
  98:src/../h/riscv.hpp **** inline uint64 Riscv::r_scause()
  99:src/../h/riscv.hpp **** {
 100:src/../h/riscv.hpp ****     uint64 volatile scause;
 101:src/../h/riscv.hpp ****     __asm__ volatile ("csrr %[scause], scause" : [scause] "=r"(scause));
 102:src/../h/riscv.hpp ****     return scause;
 103:src/../h/riscv.hpp **** }
 104:src/../h/riscv.hpp **** 
 105:src/../h/riscv.hpp **** inline void Riscv::w_scause(uint64 scause)
 106:src/../h/riscv.hpp **** {
 107:src/../h/riscv.hpp ****     __asm__ volatile ("csrw scause, %[scause]" : : [scause] "r"(scause));
 108:src/../h/riscv.hpp **** }
 109:src/../h/riscv.hpp **** 
 110:src/../h/riscv.hpp **** inline uint64 Riscv::r_sepc()
 111:src/../h/riscv.hpp **** {
 112:src/../h/riscv.hpp ****     uint64 volatile sepc;
 113:src/../h/riscv.hpp ****     __asm__ volatile ("csrr %[sepc], sepc" : [sepc] "=r"(sepc));
 114:src/../h/riscv.hpp ****     return sepc;
 115:src/../h/riscv.hpp **** }
 116:src/../h/riscv.hpp **** 
 117:src/../h/riscv.hpp **** inline void Riscv::w_sepc(uint64 sepc)
 118:src/../h/riscv.hpp **** {
 119:src/../h/riscv.hpp ****     __asm__ volatile ("csrw sepc, %[sepc]" : : [sepc] "r"(sepc));
 120:src/../h/riscv.hpp **** }
 121:src/../h/riscv.hpp **** 
 122:src/../h/riscv.hpp **** inline uint64 Riscv::r_stvec()
 123:src/../h/riscv.hpp **** {
 124:src/../h/riscv.hpp ****     uint64 volatile stvec;
 125:src/../h/riscv.hpp ****     __asm__ volatile ("csrr %[stvec], stvec" : [stvec] "=r"(stvec));
 126:src/../h/riscv.hpp ****     return stvec;
 127:src/../h/riscv.hpp **** }
 128:src/../h/riscv.hpp **** 
 129:src/../h/riscv.hpp **** inline void Riscv::w_stvec(uint64 stvec)
 130:src/../h/riscv.hpp **** {
 131:src/../h/riscv.hpp ****     __asm__ volatile ("csrw stvec, %[stvec]" : : [stvec] "r"(stvec));
 132:src/../h/riscv.hpp **** }
 133:src/../h/riscv.hpp **** 
 134:src/../h/riscv.hpp **** inline uint64 Riscv::r_stval()
 135:src/../h/riscv.hpp **** {
 136:src/../h/riscv.hpp ****     uint64 volatile stval;
 137:src/../h/riscv.hpp ****     __asm__ volatile ("csrr %[stval], stval" : [stval] "=r"(stval));
 138:src/../h/riscv.hpp ****     return stval;
 139:src/../h/riscv.hpp **** }
 140:src/../h/riscv.hpp **** 
GAS LISTING /tmp/ccn0TTqR.s 			page 4


 141:src/../h/riscv.hpp **** inline void Riscv::w_stval(uint64 stval)
 142:src/../h/riscv.hpp **** {
 143:src/../h/riscv.hpp ****     __asm__ volatile ("csrw stval, %[stval]" : : [stval] "r"(stval));
 144:src/../h/riscv.hpp **** }
 145:src/../h/riscv.hpp **** 
 146:src/../h/riscv.hpp **** inline void Riscv::ms_sip(uint64 mask)
 147:src/../h/riscv.hpp **** {
 148:src/../h/riscv.hpp ****     __asm__ volatile ("csrs sip, %[mask]" : : [mask] "r"(mask));
 149:src/../h/riscv.hpp **** }
 150:src/../h/riscv.hpp **** 
 151:src/../h/riscv.hpp **** inline void Riscv::mc_sip(uint64 mask)
 152:src/../h/riscv.hpp **** {
 153:src/../h/riscv.hpp ****     __asm__ volatile ("csrc sip, %[mask]" : : [mask] "r"(mask));
 154:src/../h/riscv.hpp **** }
 155:src/../h/riscv.hpp **** 
 156:src/../h/riscv.hpp **** inline uint64 Riscv::r_sip()
 157:src/../h/riscv.hpp **** {
 158:src/../h/riscv.hpp ****     uint64 volatile sip;
 159:src/../h/riscv.hpp ****     __asm__ volatile ("csrr %[sip], sip" : [sip] "=r"(sip));
 160:src/../h/riscv.hpp ****     return sip;
 161:src/../h/riscv.hpp **** }
 162:src/../h/riscv.hpp **** 
 163:src/../h/riscv.hpp **** inline void Riscv::w_sip(uint64 sip)
 164:src/../h/riscv.hpp **** {
 165:src/../h/riscv.hpp ****     __asm__ volatile ("csrw sip, %[sip]" : : [sip] "r"(sip));
 166:src/../h/riscv.hpp **** }
 167:src/../h/riscv.hpp **** 
 168:src/../h/riscv.hpp **** inline void Riscv::ms_sstatus(uint64 mask)
 169:src/../h/riscv.hpp **** {
 170:src/../h/riscv.hpp ****     __asm__ volatile ("csrs sstatus, %[mask]" : : [mask] "r"(mask));
 171:src/../h/riscv.hpp **** }
 172:src/../h/riscv.hpp **** 
 173:src/../h/riscv.hpp **** inline void Riscv::mc_sstatus(uint64 mask)
 174:src/../h/riscv.hpp **** {
 175:src/../h/riscv.hpp ****     __asm__ volatile ("csrc sstatus, %[mask]" : : [mask] "r"(mask));
  25              		.loc 2 175 5
  26              		.loc 2 175 68 is_stmt 0
  27 000c 93070010 		li	a5,256
  28              	#APP
  29              	# 175 "src/../h/riscv.hpp" 1
 176              	}
  30              		csrc sstatus, a5
  31              	# 0 "" 2
  32              	.LVL1:
  33              	#NO_APP
  34              	.LBE76:
  35              	.LBE75:
   9:src/riscv.cpp **** }
  36              		.loc 1 9 1
  37 0014 03348100 		ld	s0,8(sp)
  38              		.cfi_restore 8
  39              		.cfi_def_cfa 2, 16
  40 0018 13010101 		addi	sp,sp,16
  41              		.cfi_def_cfa_offset 0
  42 001c 67800000 		jr	ra
  43              		.cfi_endproc
  44              	.LFE75:
GAS LISTING /tmp/ccn0TTqR.s 			page 5


  46              		.align	2
  47              		.globl	_ZN5Riscv21switch_to_priviledgedEv
  49              	_ZN5Riscv21switch_to_priviledgedEv:
  50              	.LFB76:
  10:src/riscv.cpp **** 
  11:src/riscv.cpp **** void Riscv::switch_to_priviledged() {
  51              		.loc 1 11 37 is_stmt 1
  52              		.cfi_startproc
  53 0020 130101FF 		addi	sp,sp,-16
  54              		.cfi_def_cfa_offset 16
  55 0024 23348100 		sd	s0,8(sp)
  56              		.cfi_offset 8, -8
  57 0028 13040101 		addi	s0,sp,16
  58              		.cfi_def_cfa 8, 0
  12:src/riscv.cpp ****     ms_sstatus(SSTATUS_SPP);
  59              		.loc 1 12 5
  60              	.LVL2:
  61              	.LBB77:
  62              	.LBB78:
 170:src/../h/riscv.hpp **** }
  63              		.loc 2 170 5
 170:src/../h/riscv.hpp **** }
  64              		.loc 2 170 68 is_stmt 0
  65 002c 93070010 		li	a5,256
  66              	#APP
  67              	# 170 "src/../h/riscv.hpp" 1
  68              		csrs sstatus, a5
  69              	# 0 "" 2
  70              	.LVL3:
  71              	#NO_APP
  72              	.LBE78:
  73              	.LBE77:
  13:src/riscv.cpp **** }
  74              		.loc 1 13 1
  75 0034 03348100 		ld	s0,8(sp)
  76              		.cfi_restore 8
  77              		.cfi_def_cfa 2, 16
  78 0038 13010101 		addi	sp,sp,16
  79              		.cfi_def_cfa_offset 0
  80 003c 67800000 		jr	ra
  81              		.cfi_endproc
  82              	.LFE76:
  84              		.align	2
  85              		.globl	_ZN5Riscv10popSppSpieEv
  87              	_ZN5Riscv10popSppSpieEv:
  88              	.LFB77:
  14:src/riscv.cpp **** 
  15:src/riscv.cpp **** void Riscv::popSppSpie(){
  89              		.loc 1 15 25 is_stmt 1
  90              		.cfi_startproc
  91 0040 130101FF 		addi	sp,sp,-16
  92              		.cfi_def_cfa_offset 16
  93 0044 23348100 		sd	s0,8(sp)
  94              		.cfi_offset 8, -8
  95 0048 13040101 		addi	s0,sp,16
  96              		.cfi_def_cfa 8, 0
  16:src/riscv.cpp **** 
GAS LISTING /tmp/ccn0TTqR.s 			page 6


  17:src/riscv.cpp ****     __asm__ volatile("csrw sepc, ra");
  97              		.loc 1 17 5
  98              		.loc 1 17 38 is_stmt 0
  99              	#APP
 100              	# 17 "src/riscv.cpp" 1
  18              	    __asm__ volatile("sret");
 101              		csrw sepc, ra
 102              	# 0 "" 2
 103              		.loc 1 18 5 is_stmt 1
 104              		.loc 1 18 29 is_stmt 0
 105              	# 18 "src/riscv.cpp" 1
  19              	}
 106              		sret
 107              	# 0 "" 2
 108              		.loc 1 19 1
 109              	#NO_APP
 110 0054 03348100 		ld	s0,8(sp)
 111              		.cfi_restore 8
 112              		.cfi_def_cfa 2, 16
 113 0058 13010101 		addi	sp,sp,16
 114              		.cfi_def_cfa_offset 0
 115 005c 67800000 		jr	ra
 116              		.cfi_endproc
 117              	.LFE77:
 119              		.align	2
 120              		.globl	_ZN5Riscv20handleSupervisorTrapEv
 122              	_ZN5Riscv20handleSupervisorTrapEv:
 123              	.LFB78:
  20:src/riscv.cpp **** 
  21:src/riscv.cpp **** void Riscv::handleSupervisorTrap(){
 124              		.loc 1 21 35 is_stmt 1
 125              		.cfi_startproc
 126 0060 130101F5 		addi	sp,sp,-176
 127              		.cfi_def_cfa_offset 176
 128 0064 2334110A 		sd	ra,168(sp)
 129 0068 2330810A 		sd	s0,160(sp)
 130 006c 233C9108 		sd	s1,152(sp)
 131 0070 23382109 		sd	s2,144(sp)
 132              		.cfi_offset 1, -8
 133              		.cfi_offset 8, -16
 134              		.cfi_offset 9, -24
 135              		.cfi_offset 18, -32
 136 0074 1304010B 		addi	s0,sp,176
 137              		.cfi_def_cfa 8, 0
  22:src/riscv.cpp **** 
  23:src/riscv.cpp **** //    uint64 arg0, arg1, arg2, arg3, arg4, arg5, arg6, arg7;
  24:src/riscv.cpp ****     uint64 args[8];
 138              		.loc 1 24 5
  25:src/riscv.cpp ****     __asm__ volatile("mv %[arg0], a0" : [arg0]"=r"(*args)); // za kod sistemskog poziva
 139              		.loc 1 25 5
 140              		.loc 1 25 59 is_stmt 0
 141              	#APP
 142              	# 25 "src/riscv.cpp" 1
  26              	    __asm__ volatile("mv %[arg1], a1" : [arg1]"=r"(*(args + 1))); // argumenti s leva na desno
 143              		mv a5, a0
 144              	# 0 "" 2
 145              	#NO_APP
GAS LISTING /tmp/ccn0TTqR.s 			page 7


 146 007c 2330F4FA 		sd	a5,-96(s0)
 147              		.loc 1 26 5 is_stmt 1
 148              		.loc 1 26 65 is_stmt 0
 149              	#APP
 150              	# 26 "src/riscv.cpp" 1
  27              	    __asm__ volatile("mv %[arg2], a2" : [arg2]"=r"(*(args + 2)));
 151              		mv a5, a1
 152              	# 0 "" 2
 153              	#NO_APP
 154 0084 2334F4FA 		sd	a5,-88(s0)
 155              		.loc 1 27 5 is_stmt 1
 156              		.loc 1 27 65 is_stmt 0
 157              	#APP
 158              	# 27 "src/riscv.cpp" 1
  28              	    __asm__ volatile("mv %[arg3], a3" : [arg3]"=r"(*(args + 3)));
 159              		mv a5, a2
 160              	# 0 "" 2
 161              	#NO_APP
 162 008c 2338F4FA 		sd	a5,-80(s0)
 163              		.loc 1 28 5 is_stmt 1
 164              		.loc 1 28 65 is_stmt 0
 165              	#APP
 166              	# 28 "src/riscv.cpp" 1
  29              	    __asm__ volatile("mv %[arg4], a4" : [arg4]"=r"(*(args + 4)));
 167              		mv a5, a3
 168              	# 0 "" 2
 169              	#NO_APP
 170 0094 233CF4FA 		sd	a5,-72(s0)
 171              		.loc 1 29 5 is_stmt 1
 172              		.loc 1 29 65 is_stmt 0
 173              	#APP
 174              	# 29 "src/riscv.cpp" 1
  30              	    __asm__ volatile("mv %[arg5], a5" : [arg5]"=r"(*(args + 5)));
 175              		mv a5, a4
 176              	# 0 "" 2
 177              	#NO_APP
 178 009c 2330F4FC 		sd	a5,-64(s0)
 179              		.loc 1 30 5 is_stmt 1
 180              		.loc 1 30 65 is_stmt 0
 181              	#APP
 182              	# 30 "src/riscv.cpp" 1
  31              	    __asm__ volatile("mv %[arg6], a6" : [arg6]"=r"(*(args + 6)));
 183              		mv a5, a5
 184              	# 0 "" 2
 185              	#NO_APP
 186 00a4 2334F4FC 		sd	a5,-56(s0)
 187              		.loc 1 31 5 is_stmt 1
 188              		.loc 1 31 65 is_stmt 0
 189              	#APP
 190              	# 31 "src/riscv.cpp" 1
  32              	    __asm__ volatile("mv %[arg7], a7" : [arg7]"=r"(*(args + 7)));
 191              		mv a5, a6
 192              	# 0 "" 2
 193              	#NO_APP
 194 00ac 2338F4FC 		sd	a5,-48(s0)
 195              		.loc 1 32 5 is_stmt 1
 196              		.loc 1 32 65 is_stmt 0
GAS LISTING /tmp/ccn0TTqR.s 			page 8


 197              	#APP
 198              	# 32 "src/riscv.cpp" 1
  33              	
 199              		mv a5, a7
 200              	# 0 "" 2
 201              	#NO_APP
 202 00b4 233CF4FC 		sd	a5,-40(s0)
  34:src/riscv.cpp ****     uint64 scause = r_scause();
 203              		.loc 1 34 5 is_stmt 1
 204              	.LBB148:
 205              	.LBB149:
 100:src/../h/riscv.hpp ****     __asm__ volatile ("csrr %[scause], scause" : [scause] "=r"(scause));
 206              		.loc 2 100 5
 101:src/../h/riscv.hpp ****     return scause;
 207              		.loc 2 101 5
 101:src/../h/riscv.hpp ****     return scause;
 208              		.loc 2 101 72 is_stmt 0
 209              	#APP
 210              	# 101 "src/../h/riscv.hpp" 1
 211              		csrr a5, scause
 212              	# 0 "" 2
 213              	#NO_APP
 214 00bc 233CF4F6 		sd	a5,-136(s0)
 102:src/../h/riscv.hpp **** }
 215              		.loc 2 102 5 is_stmt 1
 102:src/../h/riscv.hpp **** }
 216              		.loc 2 102 12 is_stmt 0
 217 00c0 033784F7 		ld	a4,-136(s0)
 218              	.LVL4:
 219              	.LBE149:
 220              	.LBE148:
  35:src/riscv.cpp **** 
  36:src/riscv.cpp ****     if (scause == 0x8000000000000001UL){
 221              		.loc 1 36 5 is_stmt 1
 222              	.LBB150:
 223 00c4 9307F0FF 		li	a5,-1
 224 00c8 9397F703 		slli	a5,a5,63
 225 00cc 93871700 		addi	a5,a5,1
 226 00d0 630CF702 		beq	a4,a5,.L47
 227              	.LBE150:
  37:src/riscv.cpp ****         mc_sip(SIP_SSIP);
  38:src/riscv.cpp **** 
  39:src/riscv.cpp ****         // interrupt: yes; cause code: supervisor software interrupt (CLINT; machine timer interrup
  40:src/riscv.cpp ****         TCB::time_slice_counter++;
  41:src/riscv.cpp ****         TS::decrement_and_remove();
  42:src/riscv.cpp ****         if (TCB::time_slice_counter >= TCB::running->get_time_slice()) {
  43:src/riscv.cpp ****             uint64 volatile sepc = r_sepc();
  44:src/riscv.cpp ****             uint64 volatile sstatus = r_sstatus();
  45:src/riscv.cpp ****             TCB::time_slice_counter = 0;
  46:src/riscv.cpp ****             TCB::thread_dispatch();
  47:src/riscv.cpp ****             w_sstatus(sstatus);
  48:src/riscv.cpp ****             w_sepc(sepc);
  49:src/riscv.cpp ****         }
  50:src/riscv.cpp **** 
  51:src/riscv.cpp ****     }
  52:src/riscv.cpp ****     else if(scause == 0x0000000000000009UL || scause == 0x0000000000000008UL){
 228              		.loc 1 52 10
GAS LISTING /tmp/ccn0TTqR.s 			page 9


 229              	.LBB236:
 230              	.LBB151:
 231              		.loc 1 52 44 is_stmt 0
 232 00d4 930787FF 		addi	a5,a4,-8
 233              		.loc 1 52 10
 234 00d8 93061000 		li	a3,1
 235 00dc 63F4F60A 		bleu	a5,a3,.L48
 236              	.LBE151:
 237              	.LBE236:
  53:src/riscv.cpp ****         uint64 retVal = 0;
  54:src/riscv.cpp ****         uint64 volatile sepc = r_sepc() + 4;
  55:src/riscv.cpp ****         uint64 volatile sstatus = r_sstatus();
  56:src/riscv.cpp ****             // interrupt: yes; cause code: supervisor software interrupt (CLINT; machine timer inte
  57:src/riscv.cpp ****             switch(*args){
  58:src/riscv.cpp ****                 case 0x01:
  59:src/riscv.cpp ****                     retVal = (uint64)(MemoryAllocator::getInstance().memory_alloc(*(args + 1)));
  60:src/riscv.cpp ****                     break;
  61:src/riscv.cpp ****                 case 0x02:
  62:src/riscv.cpp ****                     retVal = (uint64)(MemoryAllocator::getInstance().memory_free((void*)*(args + 1)
  63:src/riscv.cpp ****                     break;
  64:src/riscv.cpp ****                 case 0x11:
  65:src/riscv.cpp ****                     retVal = (uint64)(TCB::thread_create((TCB**)*(args + 1),
  66:src/riscv.cpp ****                                                          (void(*)(void*))*(args + 2),
  67:src/riscv.cpp ****                                                          (void*)*(args + 3),
  68:src/riscv.cpp ****                                                          (void*)*(args + 4),
  69:src/riscv.cpp ****                                                          (void*)*(args + 6)
  70:src/riscv.cpp ****                                                          ));
  71:src/riscv.cpp ****                     break;
  72:src/riscv.cpp ****                 case 0x12:
  73:src/riscv.cpp ****                     retVal = TCB::thread_exit();
  74:src/riscv.cpp ****                     break;
  75:src/riscv.cpp ****                 case 0x13:
  76:src/riscv.cpp ****                     TCB::thread_dispatch();
  77:src/riscv.cpp ****                     break;
  78:src/riscv.cpp ****                 case 0x21:
  79:src/riscv.cpp ****                     retVal = (uint64)(MySemaphore::sem_open((MySemaphore**)*(args + 1),
  80:src/riscv.cpp ****                                                           (uint64)*(args + 2)
  81:src/riscv.cpp ****                                                           ));
  82:src/riscv.cpp ****                     break;
  83:src/riscv.cpp ****                 case 0x22:
  84:src/riscv.cpp ****                     retVal = (uint64)(MySemaphore::sem_close((MySemaphore*)*(args + 1)));
  85:src/riscv.cpp ****                     break;
  86:src/riscv.cpp ****                 case 0x23:
  87:src/riscv.cpp ****                     retVal = (uint64)(MySemaphore::sem_wait((MySemaphore*)*(args + 1)));
  88:src/riscv.cpp ****                     break;
  89:src/riscv.cpp ****                 case 0x24:
  90:src/riscv.cpp ****                     retVal = (uint64)(MySemaphore::sem_signal((MySemaphore*)*(args + 1)));
  91:src/riscv.cpp ****                     break;
  92:src/riscv.cpp ****                 case 0x31:
  93:src/riscv.cpp ****                     TCB::time_sleep(*(args + 1));
  94:src/riscv.cpp ****                     break;
  95:src/riscv.cpp ****                 case 0x41:
  96:src/riscv.cpp ****                     retVal = Console::getInstance().get_from_input();
  97:src/riscv.cpp ****                     break;
  98:src/riscv.cpp ****                 case 0x42:
  99:src/riscv.cpp ****                     Console::getInstance().put_in_output((char)*(args + 1));
 100:src/riscv.cpp ****                     break;
GAS LISTING /tmp/ccn0TTqR.s 			page 10


 101:src/riscv.cpp ****                 case 0x50:
 102:src/riscv.cpp ****                     Scheduler::getInstance().put((TCB*)*(args + 1));
 103:src/riscv.cpp ****                     break;
 104:src/riscv.cpp ****                 case 0x60:
 105:src/riscv.cpp ****                     Riscv::switch_to_user();
 106:src/riscv.cpp ****                     break;
 107:src/riscv.cpp ****                 case 0x61:
 108:src/riscv.cpp ****                     Riscv::switch_to_priviledged();
 109:src/riscv.cpp ****                     break;
 110:src/riscv.cpp ****                 case 0x70:
 111:src/riscv.cpp ****                     ((TCB*)*(args + 1))->set_periodic(true);
 112:src/riscv.cpp ****                 case 0x111:
 113:src/riscv.cpp ****                     ((TCB*)*(args + 1))->set_finished(true);
 114:src/riscv.cpp ****                 default:
 115:src/riscv.cpp ****                     retVal = 0;
 116:src/riscv.cpp ****                     break;
 117:src/riscv.cpp ****             }
 118:src/riscv.cpp ****             // postavljamo novu povratnu vrednost za a0
 119:src/riscv.cpp ****             __asm__ volatile("mv a0, %[ret]" : : [ret]"r"(retVal));
 120:src/riscv.cpp ****             __asm__ volatile("sd a0, 10 * 8(s0)");
 121:src/riscv.cpp **** 
 122:src/riscv.cpp ****             // pomeramo pc za 4 bajta unapred
 123:src/riscv.cpp ****             w_sepc(sepc);
 124:src/riscv.cpp ****             if(*args != 0x60 && *args != 0x61)
 125:src/riscv.cpp ****                 w_sstatus(sstatus);
 126:src/riscv.cpp ****     }
 127:src/riscv.cpp ****     else if (scause == 0x8000000000000009UL)
 238              		.loc 1 127 10 is_stmt 1
 239              	.LBB237:
 240              	.LBB218:
 241              	.LBB152:
 242 00e0 9307F0FF 		li	a5,-1
 243 00e4 9397F703 		slli	a5,a5,63
 244 00e8 93879700 		addi	a5,a5,9
 245 00ec 6306F744 		beq	a4,a5,.L49
 246              	.LVL5:
 247              	.L7:
 248              	.LBE152:
 249              	.LBE218:
 250              	.LBE237:
 128:src/riscv.cpp ****     {
 129:src/riscv.cpp ****         int irq = plic_claim();
 130:src/riscv.cpp ****         if(irq == CONSOLE_IRQ){
 131:src/riscv.cpp ****             // interrupt: yes; cause code: supervisor external interrupt (PLIC; could be keyboard)
 132:src/riscv.cpp ****             while(*((char*)CONSOLE_STATUS) & CONSOLE_RX_STATUS_BIT){
 133:src/riscv.cpp ****                 Console::getInstance().put_in_input(*((char*)CONSOLE_RX_DATA));
 134:src/riscv.cpp ****                 if(*((char*)CONSOLE_RX_DATA) == 107){
 135:src/riscv.cpp ****                     TCB* tmp = periodicThread::getInstance().get();
 136:src/riscv.cpp ****                     tmp->set_finished(true);
 137:src/riscv.cpp ****                 }
 138:src/riscv.cpp ****             }
 139:src/riscv.cpp ****         }
 140:src/riscv.cpp ****         plic_complete(irq);
 141:src/riscv.cpp ****     }
 142:src/riscv.cpp ****     else{
 143:src/riscv.cpp ****         // unexpected trap cause
 144:src/riscv.cpp ****         // print scause
GAS LISTING /tmp/ccn0TTqR.s 			page 11


 145:src/riscv.cpp ****         // print sepc
 146:src/riscv.cpp ****         // print stval
 147:src/riscv.cpp ****     }
 148:src/riscv.cpp **** }...
 251              		.loc 1 148 1 is_stmt 0
 252 00f0 8330810A 		ld	ra,168(sp)
 253              		.cfi_remember_state
 254              		.cfi_restore 1
 255 00f4 0334010A 		ld	s0,160(sp)
 256              		.cfi_restore 8
 257              		.cfi_def_cfa 2, 176
 258 00f8 83348109 		ld	s1,152(sp)
 259              		.cfi_restore 9
 260 00fc 03390109 		ld	s2,144(sp)
 261              		.cfi_restore 18
 262 0100 1301010B 		addi	sp,sp,176
 263              		.cfi_def_cfa_offset 0
 264 0104 67800000 		jr	ra
 265              	.LVL6:
 266              	.L47:
 267              		.cfi_restore_state
 268              	.LBB238:
 269              	.LBB219:
  37:src/riscv.cpp ****         mc_sip(SIP_SSIP);
 270              		.loc 1 37 9 is_stmt 1
 271              	.LBB220:
 272              	.LBB221:
 153:src/../h/riscv.hpp **** }
 273              		.loc 2 153 5
 153:src/../h/riscv.hpp **** }
 274              		.loc 2 153 64 is_stmt 0
 275 0108 93072000 		li	a5,2
 276              	#APP
 277              	# 153 "src/../h/riscv.hpp" 1
 278              		csrc sip, a5
 279              	# 0 "" 2
 280              	.LVL7:
 281              	#NO_APP
 282              	.LBE221:
 283              	.LBE220:
  40:src/riscv.cpp ****         TCB::time_slice_counter++;
 284              		.loc 1 40 9 is_stmt 1
  40:src/riscv.cpp ****         TCB::time_slice_counter++;
 285              		.loc 1 40 32 is_stmt 0
 286 0110 97040000 		la	s1,_ZN3TCB18time_slice_counterE
 286      83B40400 
 287 0118 83B70400 		ld	a5,0(s1)
 288 011c 93871700 		addi	a5,a5,1
 289 0120 23B0F400 		sd	a5,0(s1)
  41:src/riscv.cpp ****         TS::decrement_and_remove();
 290              		.loc 1 41 9 is_stmt 1
  41:src/riscv.cpp ****         TS::decrement_and_remove();
 291              		.loc 1 41 33 is_stmt 0
 292 0124 97000000 		call	_ZN2TS20decrement_and_removeEv@plt
 292      E7800000 
 293              	.LVL8:
  42:src/riscv.cpp ****         if (TCB::time_slice_counter >= TCB::running->get_time_slice()) {
GAS LISTING /tmp/ccn0TTqR.s 			page 12


 294              		.loc 1 42 9 is_stmt 1
 295              	.LBB222:
  42:src/riscv.cpp ****         if (TCB::time_slice_counter >= TCB::running->get_time_slice()) {
 296              		.loc 1 42 68 is_stmt 0
 297 012c 97070000 		la	a5,_ZN3TCB7runningE
 297      83B70700 
 298 0134 83B70700 		ld	a5,0(a5)
 299              	.LVL9:
 300              	.LBB223:
 301              	.LBB224:
 302              		.file 3 "src/../h/TCB.hpp"
   1:src/../h/TCB.hpp **** #ifndef _thread_hpp_
   2:src/../h/TCB.hpp **** #define _thread_hpp_
   3:src/../h/TCB.hpp **** 
   4:src/../h/TCB.hpp **** #include "../lib/hw.h"
   5:src/../h/TCB.hpp **** #include "../h/scheduler.hpp"
   6:src/../h/TCB.hpp **** #include "../h/MemoryAllocator.hpp"
   7:src/../h/TCB.hpp **** #include "../h/TS.hpp"
   8:src/../h/TCB.hpp **** #include "../h/periodic_threads.hpp"
   9:src/../h/TCB.hpp **** 
  10:src/../h/TCB.hpp **** class TCB{
  11:src/../h/TCB.hpp **** public:
  12:src/../h/TCB.hpp **** 
  13:src/../h/TCB.hpp ****     ~TCB(){
  14:src/../h/TCB.hpp ****         MemoryAllocator::getInstance().memory_free((void*)stack);
  15:src/../h/TCB.hpp ****     }
  16:src/../h/TCB.hpp **** 
  17:src/../h/TCB.hpp ****     using Body = void (*)(void*);
  18:src/../h/TCB.hpp **** 
  19:src/../h/TCB.hpp ****     // trazene
  20:src/../h/TCB.hpp ****     static int thread_create(
  21:src/../h/TCB.hpp ****         TCB** handle,
  22:src/../h/TCB.hpp ****         void(*start_routine)(void*),
  23:src/../h/TCB.hpp ****         void* arg,
  24:src/../h/TCB.hpp ****         void* stack_space,
  25:src/../h/TCB.hpp ****         bool flag
  26:src/../h/TCB.hpp ****     );
  27:src/../h/TCB.hpp **** 
  28:src/../h/TCB.hpp ****     static int thread_exit();
  29:src/../h/TCB.hpp **** 
  30:src/../h/TCB.hpp ****     static void thread_dispatch();
  31:src/../h/TCB.hpp **** 
  32:src/../h/TCB.hpp ****     static int time_sleep(uint64 time);
  33:src/../h/TCB.hpp **** 
  34:src/../h/TCB.hpp ****     // getteri i setteri
  35:src/../h/TCB.hpp ****     void set_finished(bool f){ this->finished = f; }
  36:src/../h/TCB.hpp **** 
  37:src/../h/TCB.hpp ****     bool is_finished()const{return finished;}
  38:src/../h/TCB.hpp **** 
  39:src/../h/TCB.hpp ****     void set_next_scheduler(TCB* nextThread){ next_scheduler = nextThread; }
  40:src/../h/TCB.hpp **** 
  41:src/../h/TCB.hpp ****     TCB* get_next_scheduler()const{ return next_scheduler; }
  42:src/../h/TCB.hpp **** 
  43:src/../h/TCB.hpp ****     void set_next_sleep(TCB* nextThread){ next_sleep = nextThread; }
  44:src/../h/TCB.hpp **** 
  45:src/../h/TCB.hpp ****     TCB* get_next_sleep()const{ return next_sleep; }
  46:src/../h/TCB.hpp **** 
GAS LISTING /tmp/ccn0TTqR.s 			page 13


  47:src/../h/TCB.hpp ****     void set_next_blocked(TCB* nextThread){ next_blocked = nextThread; }
  48:src/../h/TCB.hpp **** 
  49:src/../h/TCB.hpp ****     TCB* get_next_blocked()const{ return next_blocked; }
  50:src/../h/TCB.hpp **** 
  51:src/../h/TCB.hpp ****     uint64 get_thread_id()const{ return id; }
  52:src/../h/TCB.hpp **** 
  53:src/../h/TCB.hpp ****     uint64 get_time_sleep()const{ return sleep; }
  54:src/../h/TCB.hpp **** 
  55:src/../h/TCB.hpp ****     void set_time_sleep(uint64 new_time){ sleep = new_time; }
  56:src/../h/TCB.hpp **** 
  57:src/../h/TCB.hpp ****     uint64 get_time_slice()const{ return time_slice; }
 303              		.loc 3 57 35 is_stmt 1
 304              		.loc 3 57 42 is_stmt 0
 305 0138 83B70705 		ld	a5,80(a5)
 306              	.LVL10:
 307              	.LBE224:
 308              	.LBE223:
  42:src/riscv.cpp ****         if (TCB::time_slice_counter >= TCB::running->get_time_slice()) {
 309              		.loc 1 42 37
 310 013c 03B70400 		ld	a4,0(s1)
  42:src/riscv.cpp ****         if (TCB::time_slice_counter >= TCB::running->get_time_slice()) {
 311              		.loc 1 42 9
 312 0140 E368F7FA 		bltu	a4,a5,.L7
 313              	.LBB225:
  43:src/riscv.cpp ****             uint64 volatile sepc = r_sepc();
 314              		.loc 1 43 13 is_stmt 1
 315              	.LBB226:
 316              	.LBB227:
 112:src/../h/riscv.hpp ****     __asm__ volatile ("csrr %[sepc], sepc" : [sepc] "=r"(sepc));
 317              		.loc 2 112 5
 113:src/../h/riscv.hpp ****     return sepc;
 318              		.loc 2 113 5
 113:src/../h/riscv.hpp ****     return sepc;
 319              		.loc 2 113 64 is_stmt 0
 320              	#APP
 321              	# 113 "src/../h/riscv.hpp" 1
 322              		csrr a5, sepc
 323              	# 0 "" 2
 324              	#NO_APP
 325 0148 2334F4F8 		sd	a5,-120(s0)
 114:src/../h/riscv.hpp **** }
 326              		.loc 2 114 5 is_stmt 1
 114:src/../h/riscv.hpp **** }
 327              		.loc 2 114 12 is_stmt 0
 328 014c 833784F8 		ld	a5,-120(s0)
 329              	.LBE227:
 330              	.LBE226:
  43:src/riscv.cpp ****             uint64 volatile sepc = r_sepc();
 331              		.loc 1 43 43
 332 0150 233CF4F4 		sd	a5,-168(s0)
  44:src/riscv.cpp ****             uint64 volatile sstatus = r_sstatus();
 333              		.loc 1 44 13 is_stmt 1
 334              	.LBB228:
 335              	.LBB229:
 177:src/../h/riscv.hpp **** 
 178:src/../h/riscv.hpp **** inline uint64 Riscv::r_sstatus()
 179:src/../h/riscv.hpp **** {
GAS LISTING /tmp/ccn0TTqR.s 			page 14


 180:src/../h/riscv.hpp ****     uint64 volatile sstatus;
 336              		.loc 2 180 5
 181:src/../h/riscv.hpp ****     __asm__ volatile ("csrr %[sstatus], sstatus" : [sstatus] "=r"(sstatus));
 337              		.loc 2 181 5
 338              		.loc 2 181 76 is_stmt 0
 339              	#APP
 340              	# 181 "src/../h/riscv.hpp" 1
 182              	    return sstatus;
 341              		csrr a5, sstatus
 342              	# 0 "" 2
 343              	#NO_APP
 344 0158 2330F4F8 		sd	a5,-128(s0)
 345              		.loc 2 182 5 is_stmt 1
 346              		.loc 2 182 12 is_stmt 0
 347 015c 833704F8 		ld	a5,-128(s0)
 348              	.LBE229:
 349              	.LBE228:
  44:src/riscv.cpp ****             uint64 volatile sstatus = r_sstatus();
 350              		.loc 1 44 49
 351 0160 2330F4F6 		sd	a5,-160(s0)
  45:src/riscv.cpp ****             TCB::time_slice_counter = 0;
 352              		.loc 1 45 13 is_stmt 1
  45:src/riscv.cpp ****             TCB::time_slice_counter = 0;
 353              		.loc 1 45 37 is_stmt 0
 354 0164 23B00400 		sd	zero,0(s1)
  46:src/riscv.cpp ****             TCB::thread_dispatch();
 355              		.loc 1 46 13 is_stmt 1
  46:src/riscv.cpp ****             TCB::thread_dispatch();
 356              		.loc 1 46 33 is_stmt 0
 357 0168 97000000 		call	_ZN3TCB15thread_dispatchEv@plt
 357      E7800000 
 358              	.LVL11:
  47:src/riscv.cpp ****             w_sstatus(sstatus);
 359              		.loc 1 47 13 is_stmt 1
  47:src/riscv.cpp ****             w_sstatus(sstatus);
 360              		.loc 1 47 22 is_stmt 0
 361 0170 833704F6 		ld	a5,-160(s0)
 362              	.LVL12:
 363              	.LBB230:
 364              	.LBB231:
 183:src/../h/riscv.hpp **** }
 184:src/../h/riscv.hpp **** 
 185:src/../h/riscv.hpp **** inline void Riscv::w_sstatus(uint64 sstatus)
 186:src/../h/riscv.hpp **** {
 187:src/../h/riscv.hpp ****     __asm__ volatile ("csrw sstatus, %[sstatus]" : : [sstatus] "r"(sstatus));
 365              		.loc 2 187 5 is_stmt 1
 366              		.loc 2 187 77 is_stmt 0
 367              	#APP
 368              	# 187 "src/../h/riscv.hpp" 1
 188              	}
 369              		csrw sstatus, a5
 370              	# 0 "" 2
 371              	.LVL13:
 372              	#NO_APP
 373              	.LBE231:
 374              	.LBE230:
  48:src/riscv.cpp ****             w_sepc(sepc);
GAS LISTING /tmp/ccn0TTqR.s 			page 15


 375              		.loc 1 48 13 is_stmt 1
  48:src/riscv.cpp ****             w_sepc(sepc);
 376              		.loc 1 48 19 is_stmt 0
 377 0178 833784F5 		ld	a5,-168(s0)
 378              	.LVL14:
 379              	.LBB232:
 380              	.LBB233:
 119:src/../h/riscv.hpp **** }
 381              		.loc 2 119 5 is_stmt 1
 119:src/../h/riscv.hpp **** }
 382              		.loc 2 119 65 is_stmt 0
 383              	#APP
 384              	# 119 "src/../h/riscv.hpp" 1
 120:src/../h/riscv.hpp **** 
 385              		csrw sepc, a5
 386              	# 0 "" 2
 387              		.loc 2 120 1
 388              	#NO_APP
 389 0180 6FF01FF7 		j	.L7
 390              	.LVL15:
 391              	.L48:
 392              	.LBE233:
 393              	.LBE232:
 394              	.LBE225:
 395              	.LBE222:
 396              	.LBE219:
 397              	.LBB234:
 398              	.LBB171:
  53:src/riscv.cpp ****         uint64 retVal = 0;
 399              		.loc 1 53 9 is_stmt 1
  54:src/riscv.cpp ****         uint64 volatile sepc = r_sepc() + 4;
 400              		.loc 1 54 9
 401              	.LBB172:
 402              	.LBB173:
 112:src/../h/riscv.hpp ****     __asm__ volatile ("csrr %[sepc], sepc" : [sepc] "=r"(sepc));
 403              		.loc 2 112 5
 113:src/../h/riscv.hpp ****     return sepc;
 404              		.loc 2 113 5
 113:src/../h/riscv.hpp ****     return sepc;
 405              		.loc 2 113 64 is_stmt 0
 406              	#APP
 407              	# 113 "src/../h/riscv.hpp" 1
 408              		csrr a5, sepc
 409              	# 0 "" 2
 410              	#NO_APP
 411 0188 233CF4F8 		sd	a5,-104(s0)
 114:src/../h/riscv.hpp **** }
 412              		.loc 2 114 5 is_stmt 1
 114:src/../h/riscv.hpp **** }
 413              		.loc 2 114 12 is_stmt 0
 414 018c 833784F9 		ld	a5,-104(s0)
 415              	.LBE173:
 416              	.LBE172:
  54:src/riscv.cpp ****         uint64 volatile sepc = r_sepc() + 4;
 417              		.loc 1 54 41
 418 0190 93874700 		addi	a5,a5,4
  54:src/riscv.cpp ****         uint64 volatile sepc = r_sepc() + 4;
GAS LISTING /tmp/ccn0TTqR.s 			page 16


 419              		.loc 1 54 43
 420 0194 2334F4F6 		sd	a5,-152(s0)
  55:src/riscv.cpp ****         uint64 volatile sstatus = r_sstatus();
 421              		.loc 1 55 9 is_stmt 1
 422              	.LBB174:
 423              	.LBB175:
 180:src/../h/riscv.hpp ****     __asm__ volatile ("csrr %[sstatus], sstatus" : [sstatus] "=r"(sstatus));
 424              		.loc 2 180 5
 181:src/../h/riscv.hpp ****     return sstatus;
 425              		.loc 2 181 5
 181:src/../h/riscv.hpp ****     return sstatus;
 426              		.loc 2 181 76 is_stmt 0
 427              	#APP
 428              	# 181 "src/../h/riscv.hpp" 1
 429              		csrr a5, sstatus
 430              	# 0 "" 2
 431              	#NO_APP
 432 019c 2338F4F8 		sd	a5,-112(s0)
 182:src/../h/riscv.hpp **** }
 433              		.loc 2 182 5 is_stmt 1
 182:src/../h/riscv.hpp **** }
 434              		.loc 2 182 12 is_stmt 0
 435 01a0 833704F9 		ld	a5,-112(s0)
 436              	.LBE175:
 437              	.LBE174:
  55:src/riscv.cpp ****         uint64 volatile sstatus = r_sstatus();
 438              		.loc 1 55 45
 439 01a4 2338F4F6 		sd	a5,-144(s0)
  57:src/riscv.cpp ****             switch(*args){
 440              		.loc 1 57 13 is_stmt 1
  57:src/riscv.cpp ****             switch(*args){
 441              		.loc 1 57 20 is_stmt 0
 442 01a8 833704FA 		ld	a5,-96(s0)
  57:src/riscv.cpp ****             switch(*args){
 443              		.loc 1 57 13
 444 01ac 13070007 		li	a4,112
 445              	.LVL16:
 446 01b0 6364F702 		bgtu	a5,a4,.L11
 447 01b4 638A0736 		beqz	a5,.L44
 448 01b8 636CF736 		bgtu	a5,a4,.L45
 449 01bc 93972700 		slli	a5,a5,2
 450 01c0 17070000 		lla	a4,.L14
 450      13070700 
 451 01c8 B387E700 		add	a5,a5,a4
 452 01cc 83A70700 		lw	a5,0(a5)
 453 01d0 B387E700 		add	a5,a5,a4
 454 01d4 67800700 		jr	a5
 455              		.section	.rodata
 456              		.align	2
 457              		.align	2
 458              	.L14:
 459 0000 00000000 		.word	.L45-.L14
 460 0004 00000000 		.word	.L29-.L14
 461 0008 00000000 		.word	.L28-.L14
 462 000c 00000000 		.word	.L45-.L14
 463 0010 00000000 		.word	.L45-.L14
 464 0014 00000000 		.word	.L45-.L14
GAS LISTING /tmp/ccn0TTqR.s 			page 17


 465 0018 00000000 		.word	.L45-.L14
 466 001c 00000000 		.word	.L45-.L14
 467 0020 00000000 		.word	.L45-.L14
 468 0024 00000000 		.word	.L45-.L14
 469 0028 00000000 		.word	.L45-.L14
 470 002c 00000000 		.word	.L45-.L14
 471 0030 00000000 		.word	.L45-.L14
 472 0034 00000000 		.word	.L45-.L14
 473 0038 00000000 		.word	.L45-.L14
 474 003c 00000000 		.word	.L45-.L14
 475 0040 00000000 		.word	.L45-.L14
 476 0044 00000000 		.word	.L27-.L14
 477 0048 00000000 		.word	.L26-.L14
 478 004c 00000000 		.word	.L25-.L14
 479 0050 00000000 		.word	.L45-.L14
 480 0054 00000000 		.word	.L45-.L14
 481 0058 00000000 		.word	.L45-.L14
 482 005c 00000000 		.word	.L45-.L14
 483 0060 00000000 		.word	.L45-.L14
 484 0064 00000000 		.word	.L45-.L14
 485 0068 00000000 		.word	.L45-.L14
 486 006c 00000000 		.word	.L45-.L14
 487 0070 00000000 		.word	.L45-.L14
 488 0074 00000000 		.word	.L45-.L14
 489 0078 00000000 		.word	.L45-.L14
 490 007c 00000000 		.word	.L45-.L14
 491 0080 00000000 		.word	.L45-.L14
 492 0084 00000000 		.word	.L24-.L14
 493 0088 00000000 		.word	.L23-.L14
 494 008c 00000000 		.word	.L22-.L14
 495 0090 00000000 		.word	.L21-.L14
 496 0094 00000000 		.word	.L45-.L14
 497 0098 00000000 		.word	.L45-.L14
 498 009c 00000000 		.word	.L45-.L14
 499 00a0 00000000 		.word	.L45-.L14
 500 00a4 00000000 		.word	.L45-.L14
 501 00a8 00000000 		.word	.L45-.L14
 502 00ac 00000000 		.word	.L45-.L14
 503 00b0 00000000 		.word	.L45-.L14
 504 00b4 00000000 		.word	.L45-.L14
 505 00b8 00000000 		.word	.L45-.L14
 506 00bc 00000000 		.word	.L45-.L14
 507 00c0 00000000 		.word	.L45-.L14
 508 00c4 00000000 		.word	.L20-.L14
 509 00c8 00000000 		.word	.L45-.L14
 510 00cc 00000000 		.word	.L45-.L14
 511 00d0 00000000 		.word	.L45-.L14
 512 00d4 00000000 		.word	.L45-.L14
 513 00d8 00000000 		.word	.L45-.L14
 514 00dc 00000000 		.word	.L45-.L14
 515 00e0 00000000 		.word	.L45-.L14
 516 00e4 00000000 		.word	.L45-.L14
 517 00e8 00000000 		.word	.L45-.L14
 518 00ec 00000000 		.word	.L45-.L14
 519 00f0 00000000 		.word	.L45-.L14
 520 00f4 00000000 		.word	.L45-.L14
 521 00f8 00000000 		.word	.L45-.L14
GAS LISTING /tmp/ccn0TTqR.s 			page 18


 522 00fc 00000000 		.word	.L45-.L14
 523 0100 00000000 		.word	.L45-.L14
 524 0104 00000000 		.word	.L19-.L14
 525 0108 00000000 		.word	.L18-.L14
 526 010c 00000000 		.word	.L45-.L14
 527 0110 00000000 		.word	.L45-.L14
 528 0114 00000000 		.word	.L45-.L14
 529 0118 00000000 		.word	.L45-.L14
 530 011c 00000000 		.word	.L45-.L14
 531 0120 00000000 		.word	.L45-.L14
 532 0124 00000000 		.word	.L45-.L14
 533 0128 00000000 		.word	.L45-.L14
 534 012c 00000000 		.word	.L45-.L14
 535 0130 00000000 		.word	.L45-.L14
 536 0134 00000000 		.word	.L45-.L14
 537 0138 00000000 		.word	.L45-.L14
 538 013c 00000000 		.word	.L45-.L14
 539 0140 00000000 		.word	.L17-.L14
 540 0144 00000000 		.word	.L45-.L14
 541 0148 00000000 		.word	.L45-.L14
 542 014c 00000000 		.word	.L45-.L14
 543 0150 00000000 		.word	.L45-.L14
 544 0154 00000000 		.word	.L45-.L14
 545 0158 00000000 		.word	.L45-.L14
 546 015c 00000000 		.word	.L45-.L14
 547 0160 00000000 		.word	.L45-.L14
 548 0164 00000000 		.word	.L45-.L14
 549 0168 00000000 		.word	.L45-.L14
 550 016c 00000000 		.word	.L45-.L14
 551 0170 00000000 		.word	.L45-.L14
 552 0174 00000000 		.word	.L45-.L14
 553 0178 00000000 		.word	.L45-.L14
 554 017c 00000000 		.word	.L45-.L14
 555 0180 00000000 		.word	.L16-.L14
 556 0184 00000000 		.word	.L15-.L14
 557 0188 00000000 		.word	.L45-.L14
 558 018c 00000000 		.word	.L45-.L14
 559 0190 00000000 		.word	.L45-.L14
 560 0194 00000000 		.word	.L45-.L14
 561 0198 00000000 		.word	.L45-.L14
 562 019c 00000000 		.word	.L45-.L14
 563 01a0 00000000 		.word	.L45-.L14
 564 01a4 00000000 		.word	.L45-.L14
 565 01a8 00000000 		.word	.L45-.L14
 566 01ac 00000000 		.word	.L45-.L14
 567 01b0 00000000 		.word	.L45-.L14
 568 01b4 00000000 		.word	.L45-.L14
 569 01b8 00000000 		.word	.L45-.L14
 570 01bc 00000000 		.word	.L45-.L14
 571 01c0 00000000 		.word	.L13-.L14
 572              		.text
 573              	.L11:
 574 01d8 13071011 		li	a4,273
 575 01dc 639CE700 		bne	a5,a4,.L50
 576              	.L30:
 112:src/riscv.cpp ****                 case 0x111:
 577              		.loc 1 112 17 is_stmt 1
GAS LISTING /tmp/ccn0TTqR.s 			page 19


 113:src/riscv.cpp ****                     ((TCB*)*(args + 1))->set_finished(true);
 578              		.loc 1 113 21
 579              	.LVL17:
 580              	.LBB176:
 581              	.LBB177:
  35:src/../h/TCB.hpp **** 
 582              		.loc 3 35 32
  35:src/../h/TCB.hpp **** 
 583              		.loc 3 35 47 is_stmt 0
 584 01e0 833784FA 		ld	a5,-88(s0)
 585 01e4 13071000 		li	a4,1
 586 01e8 2384E702 		sb	a4,40(a5)
 587              	.LBE177:
 588              	.LBE176:
 115:src/riscv.cpp ****                     retVal = 0;
 589              		.loc 1 115 28
 590 01ec 13050000 		li	a0,0
 591              	.LBB179:
 592              	.LBB178:
  35:src/../h/TCB.hpp **** 
 593              		.loc 3 35 52
 594 01f0 6F008000 		j	.L12
 595              	.LVL18:
 596              	.L50:
 597              	.LBE178:
 598              	.LBE179:
  57:src/riscv.cpp ****             switch(*args){
 599              		.loc 1 57 13
 600 01f4 13050000 		li	a0,0
 601              	.LVL19:
 602              	.L12:
 119:src/riscv.cpp ****             __asm__ volatile("mv a0, %[ret]" : : [ret]"r"(retVal));
 603              		.loc 1 119 13 is_stmt 1
 119:src/riscv.cpp ****             __asm__ volatile("mv a0, %[ret]" : : [ret]"r"(retVal));
 604              		.loc 1 119 67 is_stmt 0
 605              	#APP
 606              	# 119 "src/riscv.cpp" 1
 120:src/riscv.cpp ****             __asm__ volatile("sd a0, 10 * 8(s0)");
 607              		mv a0, a0
 608              	# 0 "" 2
 609              		.loc 1 120 13 is_stmt 1
 120:src/riscv.cpp ****             __asm__ volatile("sd a0, 10 * 8(s0)");
 610              		.loc 1 120 50 is_stmt 0
 611              	# 120 "src/riscv.cpp" 1
 123:src/riscv.cpp ****             w_sepc(sepc);
 612              		sd a0, 10 * 8(s0)
 613              	# 0 "" 2
 614              		.loc 1 123 13 is_stmt 1
 123:src/riscv.cpp ****             w_sepc(sepc);
 615              		.loc 1 123 19 is_stmt 0
 616              	#NO_APP
 617 0200 833784F6 		ld	a5,-152(s0)
 618              	.LVL20:
 619              	.LBB180:
 620              	.LBB181:
 119:src/../h/riscv.hpp **** }
 621              		.loc 2 119 5 is_stmt 1
GAS LISTING /tmp/ccn0TTqR.s 			page 20


 119:src/../h/riscv.hpp **** }
 622              		.loc 2 119 65 is_stmt 0
 623              	#APP
 624              	# 119 "src/../h/riscv.hpp" 1
 625              		csrw sepc, a5
 626              	# 0 "" 2
 627              	.LVL21:
 628              	#NO_APP
 629              	.LBE181:
 630              	.LBE180:
 124:src/riscv.cpp ****             if(*args != 0x60 && *args != 0x61)
 631              		.loc 1 124 13 is_stmt 1
 124:src/riscv.cpp ****             if(*args != 0x60 && *args != 0x61)
 632              		.loc 1 124 16 is_stmt 0
 633 0208 833704FA 		ld	a5,-96(s0)
 124:src/riscv.cpp ****             if(*args != 0x60 && *args != 0x61)
 634              		.loc 1 124 30
 635 020c 938707FA 		addi	a5,a5,-96
 124:src/riscv.cpp ****             if(*args != 0x60 && *args != 0x61)
 636              		.loc 1 124 13
 637 0210 13071000 		li	a4,1
 638 0214 E37EF7EC 		bleu	a5,a4,.L7
 125:src/riscv.cpp ****                 w_sstatus(sstatus);
 639              		.loc 1 125 17 is_stmt 1
 125:src/riscv.cpp ****                 w_sstatus(sstatus);
 640              		.loc 1 125 26 is_stmt 0
 641 0218 833704F7 		ld	a5,-144(s0)
 642              	.LVL22:
 643              	.LBB182:
 644              	.LBB183:
 187:src/../h/riscv.hpp **** }
 645              		.loc 2 187 5 is_stmt 1
 187:src/../h/riscv.hpp **** }
 646              		.loc 2 187 77 is_stmt 0
 647              	#APP
 648              	# 187 "src/../h/riscv.hpp" 1
 649              		csrw sstatus, a5
 650              	# 0 "" 2
 651              		.loc 2 188 1
 652              	#NO_APP
 653 0220 6FF01FED 		j	.L7
 654              	.LVL23:
 655              	.L29:
 656              	.LBE183:
 657              	.LBE182:
  58:src/riscv.cpp ****                 case 0x01:
 658              		.loc 1 58 17 is_stmt 1
  59:src/riscv.cpp ****                     retVal = (uint64)(MemoryAllocator::getInstance().memory_alloc(*(args + 1)));
 659              		.loc 1 59 21
 660              	.LBB184:
 661              	.LBB185:
 662              		.file 4 "src/../h/MemoryAllocator.hpp"
   1:src/../h/MemoryAllocator.hpp **** #ifndef _memory_allocator_hpp_
   2:src/../h/MemoryAllocator.hpp **** #define _memory_allocator_hpp_
   3:src/../h/MemoryAllocator.hpp **** 
   4:src/../h/MemoryAllocator.hpp **** #include "../lib/hw.h"
   5:src/../h/MemoryAllocator.hpp **** 
GAS LISTING /tmp/ccn0TTqR.s 			page 21


   6:src/../h/MemoryAllocator.hpp **** class MemoryAllocator{
   7:src/../h/MemoryAllocator.hpp **** public:
   8:src/../h/MemoryAllocator.hpp **** 
   9:src/../h/MemoryAllocator.hpp ****     // dodaj instancu
  10:src/../h/MemoryAllocator.hpp ****     static MemoryAllocator& getInstance(){
  11:src/../h/MemoryAllocator.hpp ****         static MemoryAllocator instance;
 663              		.loc 4 11 9
 664              		.loc 4 11 32 is_stmt 0
 665 0224 97070000 		lbu	a5,_ZGVZN15MemoryAllocator11getInstanceEvE8instance
 665      83C70700 
 666 022c 638E0700 		beqz	a5,.L51
 667              	.L31:
  12:src/../h/MemoryAllocator.hpp ****         return instance;
 668              		.loc 4 12 9 is_stmt 1
 669              	.LBE185:
 670              	.LBE184:
  59:src/riscv.cpp ****                     retVal = (uint64)(MemoryAllocator::getInstance().memory_alloc(*(args + 1)));
 671              		.loc 1 59 82 is_stmt 0
 672 0230 833584FA 		ld	a1,-88(s0)
 673 0234 17050000 		lla	a0,_ZZN15MemoryAllocator11getInstanceEvE8instance
 673      13050500 
 674 023c 97000000 		call	_ZN15MemoryAllocator12memory_allocEm@plt
 674      E7800000 
 675              	.LVL24:
  60:src/riscv.cpp ****                     break;
 676              		.loc 1 60 21 is_stmt 1
 677 0244 6FF05FFB 		j	.L12
 678              	.LVL25:
 679              	.L51:
 680              	.LBB191:
 681              	.LBB190:
 682              	.LBB186:
 683              	.LBB187:
 684              	.LBB188:
  13:src/../h/MemoryAllocator.hpp ****     }
  14:src/../h/MemoryAllocator.hpp **** 
  15:src/../h/MemoryAllocator.hpp ****     MemoryAllocator(const MemoryAllocator&) = delete;
  16:src/../h/MemoryAllocator.hpp ****     void operator=(MemoryAllocator const&) = delete;
  17:src/../h/MemoryAllocator.hpp **** 
  18:src/../h/MemoryAllocator.hpp ****     void* memory_alloc (size_t);
  19:src/../h/MemoryAllocator.hpp **** 
  20:src/../h/MemoryAllocator.hpp ****     int memory_free (void*);
  21:src/../h/MemoryAllocator.hpp ****     int get_mem_alloc_heap_start(){return this->heapStart;}
  22:src/../h/MemoryAllocator.hpp ****     int get_mem_alloc_heap_end(){return this->heapEnd;}
  23:src/../h/MemoryAllocator.hpp **** 
  24:src/../h/MemoryAllocator.hpp **** private:
  25:src/../h/MemoryAllocator.hpp **** 
  26:src/../h/MemoryAllocator.hpp ****     struct FreeMem{
  27:src/../h/MemoryAllocator.hpp ****         size_t size;
  28:src/../h/MemoryAllocator.hpp ****         FreeMem* next;
  29:src/../h/MemoryAllocator.hpp ****         FreeMem* prev;
  30:src/../h/MemoryAllocator.hpp ****     };
  31:src/../h/MemoryAllocator.hpp **** 
  32:src/../h/MemoryAllocator.hpp ****     FreeMem* fmem_head = nullptr;
  33:src/../h/MemoryAllocator.hpp ****     size_t heapStart;
  34:src/../h/MemoryAllocator.hpp ****     size_t heapEnd;
  35:src/../h/MemoryAllocator.hpp **** 
GAS LISTING /tmp/ccn0TTqR.s 			page 22


  36:src/../h/MemoryAllocator.hpp ****     MemoryAllocator(){
 685              		.loc 4 36 22 is_stmt 0
 686 0248 17060000 		lla	a2,_ZZN15MemoryAllocator11getInstanceEvE8instance
 686      13060600 
 687              	.LBB189:
  37:src/../h/MemoryAllocator.hpp **** 
  38:src/../h/MemoryAllocator.hpp ****         heapStart = (size_t)HEAP_START_ADDR + ((size_t)HEAP_END_ADDR - (size_t)HEAP_START_ADDR) / 8
 688              		.loc 4 38 9 is_stmt 1
 689              		.loc 4 38 70 is_stmt 0
 690 0250 97070000 		la	a5,HEAP_END_ADDR
 690      83B70700 
 691 0258 03B70700 		ld	a4,0(a5)
 692 025c 97070000 		la	a5,HEAP_START_ADDR
 692      83B70700 
 693 0264 83B70700 		ld	a5,0(a5)
 694 0268 B306F740 		sub	a3,a4,a5
 695              		.loc 4 38 97
 696 026c 93D63600 		srli	a3,a3,3
 697              		.loc 4 38 45
 698 0270 B387D700 		add	a5,a5,a3
 699              		.loc 4 38 101
 700 0274 93871700 		addi	a5,a5,1
 701              		.loc 4 38 19
 702 0278 2334F600 		sd	a5,8(a2)
  39:src/../h/MemoryAllocator.hpp ****         heapEnd = (size_t)HEAP_END_ADDR - 1;
 703              		.loc 4 39 9 is_stmt 1
 704              		.loc 4 39 41 is_stmt 0
 705 027c 1307F7FF 		addi	a4,a4,-1
 706              		.loc 4 39 17
 707 0280 2338E600 		sd	a4,16(a2)
  40:src/../h/MemoryAllocator.hpp **** 
  41:src/../h/MemoryAllocator.hpp ****         // poravnaj na prvu krstenu adresu
  42:src/../h/MemoryAllocator.hpp ****         fmem_head = (FreeMem*)(heapStart + ((heapStart % MEM_BLOCK_SIZE != 0)?(MEM_BLOCK_SIZE - hea
 708              		.loc 4 42 9 is_stmt 1
 709              		.loc 4 42 56 is_stmt 0
 710 0284 93F6F703 		andi	a3,a5,63
 711              		.loc 4 42 78
 712 0288 63860600 		beqz	a3,.L32
 713 028c 13060004 		li	a2,64
 714 0290 B306D640 		sub	a3,a2,a3
 715              	.L32:
 716              		.loc 4 42 42
 717 0294 B387D700 		add	a5,a5,a3
 718              		.loc 4 42 19
 719 0298 97060000 		sd	a5,_ZZN15MemoryAllocator11getInstanceEvE8instance,a3
 719      23B0F600 
  43:src/../h/MemoryAllocator.hpp **** 
  44:src/../h/MemoryAllocator.hpp ****         size_t sizeInBlocks = (heapEnd - (size_t)fmem_head) / MEM_BLOCK_SIZE;
 720              		.loc 4 44 9 is_stmt 1
 721              		.loc 4 44 40 is_stmt 0
 722 02a0 3307F740 		sub	a4,a4,a5
 723              		.loc 4 44 16
 724 02a4 13576700 		srli	a4,a4,6
 725              	.LVL26:
  45:src/../h/MemoryAllocator.hpp **** 
  46:src/../h/MemoryAllocator.hpp ****         // napravi node
  47:src/../h/MemoryAllocator.hpp **** 
GAS LISTING /tmp/ccn0TTqR.s 			page 23


  48:src/../h/MemoryAllocator.hpp ****         fmem_head->next = nullptr;
 726              		.loc 4 48 9 is_stmt 1
 727              		.loc 4 48 25 is_stmt 0
 728 02a8 23B40700 		sd	zero,8(a5)
  49:src/../h/MemoryAllocator.hpp ****         fmem_head->prev = nullptr;
 729              		.loc 4 49 9 is_stmt 1
 730              		.loc 4 49 25 is_stmt 0
 731 02ac 23B80700 		sd	zero,16(a5)
  50:src/../h/MemoryAllocator.hpp ****         fmem_head->size = sizeInBlocks;
 732              		.loc 4 50 9 is_stmt 1
 733              		.loc 4 50 25 is_stmt 0
 734 02b0 23B0E700 		sd	a4,0(a5)
 735              	.LVL27:
 736              	.LBE189:
 737              	.LBE188:
 738              	.LBE187:
 739              	.LBE186:
  11:src/../h/MemoryAllocator.hpp ****         return instance;
 740              		.loc 4 11 32
 741 02b4 93071000 		li	a5,1
 742 02b8 17070000 		sb	a5,_ZGVZN15MemoryAllocator11getInstanceEvE8instance,a4
 742      2300F700 
 743 02c0 6FF01FF7 		j	.L31
 744              	.L28:
 745              	.LBE190:
 746              	.LBE191:
  61:src/riscv.cpp ****                 case 0x02:
 747              		.loc 1 61 17 is_stmt 1
  62:src/riscv.cpp ****                     retVal = (uint64)(MemoryAllocator::getInstance().memory_free((void*)*(args + 1)
 748              		.loc 1 62 21
 749              	.LBB192:
 750              	.LBB193:
  11:src/../h/MemoryAllocator.hpp ****         return instance;
 751              		.loc 4 11 9
  11:src/../h/MemoryAllocator.hpp ****         return instance;
 752              		.loc 4 11 32 is_stmt 0
 753 02c4 97070000 		lbu	a5,_ZGVZN15MemoryAllocator11getInstanceEvE8instance
 753      83C70700 
 754 02cc 638E0700 		beqz	a5,.L52
 755              	.L33:
  12:src/../h/MemoryAllocator.hpp ****     }
 756              		.loc 4 12 9 is_stmt 1
 757              	.LBE193:
 758              	.LBE192:
  62:src/riscv.cpp ****                     retVal = (uint64)(MemoryAllocator::getInstance().memory_free((void*)*(args + 1)
 759              		.loc 1 62 81 is_stmt 0
 760 02d0 833584FA 		ld	a1,-88(s0)
 761 02d4 17050000 		lla	a0,_ZZN15MemoryAllocator11getInstanceEvE8instance
 761      13050500 
 762 02dc 97000000 		call	_ZN15MemoryAllocator11memory_freeEPv@plt
 762      E7800000 
 763              	.LVL28:
  63:src/riscv.cpp ****                     break;
 764              		.loc 1 63 21 is_stmt 1
 765 02e4 6FF05FF1 		j	.L12
 766              	.LVL29:
 767              	.L52:
GAS LISTING /tmp/ccn0TTqR.s 			page 24


 768              	.LBB199:
 769              	.LBB198:
 770              	.LBB194:
 771              	.LBB195:
 772              	.LBB196:
  36:src/../h/MemoryAllocator.hpp **** 
 773              		.loc 4 36 22 is_stmt 0
 774 02e8 17060000 		lla	a2,_ZZN15MemoryAllocator11getInstanceEvE8instance
 774      13060600 
 775              	.LBB197:
  38:src/../h/MemoryAllocator.hpp ****         heapEnd = (size_t)HEAP_END_ADDR - 1;
 776              		.loc 4 38 9 is_stmt 1
  38:src/../h/MemoryAllocator.hpp ****         heapEnd = (size_t)HEAP_END_ADDR - 1;
 777              		.loc 4 38 70 is_stmt 0
 778 02f0 97070000 		la	a5,HEAP_END_ADDR
 778      83B70700 
 779 02f8 03B70700 		ld	a4,0(a5)
 780 02fc 97070000 		la	a5,HEAP_START_ADDR
 780      83B70700 
 781 0304 83B70700 		ld	a5,0(a5)
 782 0308 B306F740 		sub	a3,a4,a5
  38:src/../h/MemoryAllocator.hpp ****         heapEnd = (size_t)HEAP_END_ADDR - 1;
 783              		.loc 4 38 97
 784 030c 93D63600 		srli	a3,a3,3
  38:src/../h/MemoryAllocator.hpp ****         heapEnd = (size_t)HEAP_END_ADDR - 1;
 785              		.loc 4 38 45
 786 0310 B387D700 		add	a5,a5,a3
  38:src/../h/MemoryAllocator.hpp ****         heapEnd = (size_t)HEAP_END_ADDR - 1;
 787              		.loc 4 38 101
 788 0314 93871700 		addi	a5,a5,1
  38:src/../h/MemoryAllocator.hpp ****         heapEnd = (size_t)HEAP_END_ADDR - 1;
 789              		.loc 4 38 19
 790 0318 2334F600 		sd	a5,8(a2)
  39:src/../h/MemoryAllocator.hpp **** 
 791              		.loc 4 39 9 is_stmt 1
  39:src/../h/MemoryAllocator.hpp **** 
 792              		.loc 4 39 41 is_stmt 0
 793 031c 1307F7FF 		addi	a4,a4,-1
  39:src/../h/MemoryAllocator.hpp **** 
 794              		.loc 4 39 17
 795 0320 2338E600 		sd	a4,16(a2)
  42:src/../h/MemoryAllocator.hpp **** 
 796              		.loc 4 42 9 is_stmt 1
  42:src/../h/MemoryAllocator.hpp **** 
 797              		.loc 4 42 56 is_stmt 0
 798 0324 93F6F703 		andi	a3,a5,63
  42:src/../h/MemoryAllocator.hpp **** 
 799              		.loc 4 42 78
 800 0328 63860600 		beqz	a3,.L34
 801 032c 13060004 		li	a2,64
 802 0330 B306D640 		sub	a3,a2,a3
 803              	.L34:
  42:src/../h/MemoryAllocator.hpp **** 
 804              		.loc 4 42 42
 805 0334 B387D700 		add	a5,a5,a3
  42:src/../h/MemoryAllocator.hpp **** 
 806              		.loc 4 42 19
GAS LISTING /tmp/ccn0TTqR.s 			page 25


 807 0338 97060000 		sd	a5,_ZZN15MemoryAllocator11getInstanceEvE8instance,a3
 807      23B0F600 
  44:src/../h/MemoryAllocator.hpp **** 
 808              		.loc 4 44 9 is_stmt 1
  44:src/../h/MemoryAllocator.hpp **** 
 809              		.loc 4 44 40 is_stmt 0
 810 0340 3307F740 		sub	a4,a4,a5
  44:src/../h/MemoryAllocator.hpp **** 
 811              		.loc 4 44 16
 812 0344 13576700 		srli	a4,a4,6
 813              	.LVL30:
  48:src/../h/MemoryAllocator.hpp ****         fmem_head->prev = nullptr;
 814              		.loc 4 48 9 is_stmt 1
  48:src/../h/MemoryAllocator.hpp ****         fmem_head->prev = nullptr;
 815              		.loc 4 48 25 is_stmt 0
 816 0348 23B40700 		sd	zero,8(a5)
  49:src/../h/MemoryAllocator.hpp ****         fmem_head->size = sizeInBlocks;
 817              		.loc 4 49 9 is_stmt 1
  49:src/../h/MemoryAllocator.hpp ****         fmem_head->size = sizeInBlocks;
 818              		.loc 4 49 25 is_stmt 0
 819 034c 23B80700 		sd	zero,16(a5)
 820              		.loc 4 50 9 is_stmt 1
 821              		.loc 4 50 25 is_stmt 0
 822 0350 23B0E700 		sd	a4,0(a5)
 823              	.LVL31:
 824              	.LBE197:
 825              	.LBE196:
 826              	.LBE195:
 827              	.LBE194:
  11:src/../h/MemoryAllocator.hpp ****         return instance;
 828              		.loc 4 11 32
 829 0354 93071000 		li	a5,1
 830 0358 17070000 		sb	a5,_ZGVZN15MemoryAllocator11getInstanceEvE8instance,a4
 830      2300F700 
 831 0360 6FF01FF7 		j	.L33
 832              	.L27:
 833              	.LBE198:
 834              	.LBE199:
  64:src/riscv.cpp ****                 case 0x11:
 835              		.loc 1 64 17 is_stmt 1
  65:src/riscv.cpp ****                     retVal = (uint64)(TCB::thread_create((TCB**)*(args + 1),
 836              		.loc 1 65 21
  65:src/riscv.cpp ****                     retVal = (uint64)(TCB::thread_create((TCB**)*(args + 1),
 837              		.loc 1 65 57 is_stmt 0
 838 0364 033704FD 		ld	a4,-48(s0)
 839 0368 3337E000 		snez	a4,a4
 840 036c 833604FC 		ld	a3,-64(s0)
 841 0370 033684FB 		ld	a2,-72(s0)
 842 0374 833504FB 		ld	a1,-80(s0)
 843 0378 033584FA 		ld	a0,-88(s0)
 844 037c 97000000 		call	_ZN3TCB13thread_createEPPS_PFvPvES2_S2_b@plt
 844      E7800000 
 845              	.LVL32:
  71:src/riscv.cpp ****                     break;
 846              		.loc 1 71 21 is_stmt 1
 847 0384 6FF05FE7 		j	.L12
 848              	.LVL33:
GAS LISTING /tmp/ccn0TTqR.s 			page 26


 849              	.L26:
  72:src/riscv.cpp ****                 case 0x12:
 850              		.loc 1 72 17
  73:src/riscv.cpp ****                     retVal = TCB::thread_exit();
 851              		.loc 1 73 21
  73:src/riscv.cpp ****                     retVal = TCB::thread_exit();
 852              		.loc 1 73 46 is_stmt 0
 853 0388 97000000 		call	_ZN3TCB11thread_exitEv@plt
 853      E7800000 
 854              	.LVL34:
  74:src/riscv.cpp ****                     break;
 855              		.loc 1 74 21 is_stmt 1
 856 0390 6FF09FE6 		j	.L12
 857              	.LVL35:
 858              	.L25:
  75:src/riscv.cpp ****                 case 0x13:
 859              		.loc 1 75 17
  76:src/riscv.cpp ****                     TCB::thread_dispatch();
 860              		.loc 1 76 21
  76:src/riscv.cpp ****                     TCB::thread_dispatch();
 861              		.loc 1 76 41 is_stmt 0
 862 0394 97000000 		call	_ZN3TCB15thread_dispatchEv@plt
 862      E7800000 
 863              	.LVL36:
  53:src/riscv.cpp ****         uint64 retVal = 0;
 864              		.loc 1 53 16
 865 039c 13050000 		li	a0,0
 866 03a0 6FF09FE5 		j	.L12
 867              	.L24:
  78:src/riscv.cpp ****                 case 0x21:
 868              		.loc 1 78 17 is_stmt 1
  79:src/riscv.cpp ****                     retVal = (uint64)(MySemaphore::sem_open((MySemaphore**)*(args + 1),
 869              		.loc 1 79 21
  79:src/riscv.cpp ****                     retVal = (uint64)(MySemaphore::sem_open((MySemaphore**)*(args + 1),
 870              		.loc 1 79 60 is_stmt 0
 871 03a4 833504FB 		ld	a1,-80(s0)
 872 03a8 033584FA 		ld	a0,-88(s0)
 873 03ac 97000000 		call	_ZN11MySemaphore8sem_openEPPS_m@plt
 873      E7800000 
 874              	.LVL37:
  82:src/riscv.cpp ****                     break;
 875              		.loc 1 82 21 is_stmt 1
 876 03b4 6FF05FE4 		j	.L12
 877              	.LVL38:
 878              	.L23:
  83:src/riscv.cpp ****                 case 0x22:
 879              		.loc 1 83 17
  84:src/riscv.cpp ****                     retVal = (uint64)(MySemaphore::sem_close((MySemaphore*)*(args + 1)));
 880              		.loc 1 84 21
  84:src/riscv.cpp ****                     retVal = (uint64)(MySemaphore::sem_close((MySemaphore*)*(args + 1)));
 881              		.loc 1 84 61 is_stmt 0
 882 03b8 033584FA 		ld	a0,-88(s0)
 883 03bc 97000000 		call	_ZN11MySemaphore9sem_closeEPS_@plt
 883      E7800000 
 884              	.LVL39:
  85:src/riscv.cpp ****                     break;
 885              		.loc 1 85 21 is_stmt 1
GAS LISTING /tmp/ccn0TTqR.s 			page 27


 886 03c4 6FF05FE3 		j	.L12
 887              	.LVL40:
 888              	.L22:
  86:src/riscv.cpp ****                 case 0x23:
 889              		.loc 1 86 17
  87:src/riscv.cpp ****                     retVal = (uint64)(MySemaphore::sem_wait((MySemaphore*)*(args + 1)));
 890              		.loc 1 87 21
  87:src/riscv.cpp ****                     retVal = (uint64)(MySemaphore::sem_wait((MySemaphore*)*(args + 1)));
 891              		.loc 1 87 60 is_stmt 0
 892 03c8 033584FA 		ld	a0,-88(s0)
 893 03cc 97000000 		call	_ZN11MySemaphore8sem_waitEPS_@plt
 893      E7800000 
 894              	.LVL41:
  88:src/riscv.cpp ****                     break;
 895              		.loc 1 88 21 is_stmt 1
 896 03d4 6FF05FE2 		j	.L12
 897              	.LVL42:
 898              	.L21:
  89:src/riscv.cpp ****                 case 0x24:
 899              		.loc 1 89 17
  90:src/riscv.cpp ****                     retVal = (uint64)(MySemaphore::sem_signal((MySemaphore*)*(args + 1)));
 900              		.loc 1 90 21
  90:src/riscv.cpp ****                     retVal = (uint64)(MySemaphore::sem_signal((MySemaphore*)*(args + 1)));
 901              		.loc 1 90 62 is_stmt 0
 902 03d8 033584FA 		ld	a0,-88(s0)
 903 03dc 97000000 		call	_ZN11MySemaphore10sem_signalEPS_@plt
 903      E7800000 
 904              	.LVL43:
  91:src/riscv.cpp ****                     break;
 905              		.loc 1 91 21 is_stmt 1
 906 03e4 6FF05FE1 		j	.L12
 907              	.LVL44:
 908              	.L20:
  92:src/riscv.cpp ****                 case 0x31:
 909              		.loc 1 92 17
  93:src/riscv.cpp ****                     TCB::time_sleep(*(args + 1));
 910              		.loc 1 93 21
  93:src/riscv.cpp ****                     TCB::time_sleep(*(args + 1));
 911              		.loc 1 93 36 is_stmt 0
 912 03e8 033584FA 		ld	a0,-88(s0)
 913 03ec 97000000 		call	_ZN3TCB10time_sleepEm@plt
 913      E7800000 
 914              	.LVL45:
  53:src/riscv.cpp ****         uint64 retVal = 0;
 915              		.loc 1 53 16
 916 03f4 13050000 		li	a0,0
 917 03f8 6FF01FE0 		j	.L12
 918              	.L19:
  95:src/riscv.cpp ****                 case 0x41:
 919              		.loc 1 95 17 is_stmt 1
  96:src/riscv.cpp ****                     retVal = Console::getInstance().get_from_input();
 920              		.loc 1 96 21
 921              	.LBB200:
 922              	.LBB201:
 923              		.file 5 "src/../h/console.hpp"
   1:src/../h/console.hpp **** #ifndef _console_hpp_
   2:src/../h/console.hpp **** #define _console_hpp_
GAS LISTING /tmp/ccn0TTqR.s 			page 28


   3:src/../h/console.hpp **** 
   4:src/../h/console.hpp **** #include "../h/my_buffer.hpp"
   5:src/../h/console.hpp **** 
   6:src/../h/console.hpp **** class Console{
   7:src/../h/console.hpp **** public:
   8:src/../h/console.hpp **** 
   9:src/../h/console.hpp ****     static Console& getInstance(){
  10:src/../h/console.hpp ****         static Console instance;
 924              		.loc 5 10 9
 925              		.loc 5 10 24 is_stmt 0
 926 03fc 97070000 		lbu	a5,_ZGVZN7Console11getInstanceEvE8instance
 926      83C70700 
 927 0404 638C0700 		beqz	a5,.L53
 928              	.L35:
  11:src/../h/console.hpp ****         return instance;
 929              		.loc 5 11 9 is_stmt 1
 930              	.LBE201:
 931              	.LBE200:
  96:src/riscv.cpp ****                     retVal = Console::getInstance().get_from_input();
 932              		.loc 1 96 67 is_stmt 0
 933 0408 17050000 		lla	a0,_ZZN7Console11getInstanceEvE8instance
 933      13050500 
 934 0410 97000000 		call	_ZN7Console14get_from_inputEv@plt
 934      E7800000 
 935              	.LVL46:
  97:src/riscv.cpp ****                     break;
 936              		.loc 1 97 21 is_stmt 1
 937 0418 6FF01FDE 		j	.L12
 938              	.LVL47:
 939              	.L53:
 940              	.LBB203:
 941              	.LBB202:
  10:src/../h/console.hpp ****         return instance;
 942              		.loc 5 10 24 is_stmt 0
 943 041c 17050000 		lla	a0,_ZZN7Console11getInstanceEvE8instance
 943      13050500 
 944 0424 97000000 		call	_ZN7ConsoleC1Ev@plt
 944      E7800000 
 945              	.LVL48:
 946 042c 93071000 		li	a5,1
 947 0430 17070000 		sb	a5,_ZGVZN7Console11getInstanceEvE8instance,a4
 947      2300F700 
 948 0438 6FF01FFD 		j	.L35
 949              	.L18:
 950              	.LBE202:
 951              	.LBE203:
  98:src/riscv.cpp ****                 case 0x42:
 952              		.loc 1 98 17 is_stmt 1
  99:src/riscv.cpp ****                     Console::getInstance().put_in_output((char)*(args + 1));
 953              		.loc 1 99 21
 954              	.LBB204:
 955              	.LBB205:
  10:src/../h/console.hpp ****         return instance;
 956              		.loc 5 10 9
  10:src/../h/console.hpp ****         return instance;
 957              		.loc 5 10 24 is_stmt 0
 958 043c 97070000 		lbu	a5,_ZGVZN7Console11getInstanceEvE8instance
GAS LISTING /tmp/ccn0TTqR.s 			page 29


 958      83C70700 
 959 0444 63800702 		beqz	a5,.L54
 960              	.L36:
 961              		.loc 5 11 9 is_stmt 1
 962              	.LBE205:
 963              	.LBE204:
  99:src/riscv.cpp ****                     Console::getInstance().put_in_output((char)*(args + 1));
 964              		.loc 1 99 57 is_stmt 0
 965 0448 834584FA 		lbu	a1,-88(s0)
 966 044c 17050000 		lla	a0,_ZZN7Console11getInstanceEvE8instance
 966      13050500 
 967 0454 97000000 		call	_ZN7Console13put_in_outputEc@plt
 967      E7800000 
 968              	.LVL49:
  53:src/riscv.cpp ****         uint64 retVal = 0;
 969              		.loc 1 53 16
 970 045c 13050000 		li	a0,0
 971 0460 6FF09FD9 		j	.L12
 972              	.L54:
 973              	.LBB207:
 974              	.LBB206:
  10:src/../h/console.hpp ****         return instance;
 975              		.loc 5 10 24
 976 0464 17050000 		lla	a0,_ZZN7Console11getInstanceEvE8instance
 976      13050500 
 977 046c 97000000 		call	_ZN7ConsoleC1Ev@plt
 977      E7800000 
 978              	.LVL50:
 979 0474 93071000 		li	a5,1
 980 0478 17070000 		sb	a5,_ZGVZN7Console11getInstanceEvE8instance,a4
 980      2300F700 
 981 0480 6FF09FFC 		j	.L36
 982              	.L17:
 983              	.LBE206:
 984              	.LBE207:
 101:src/riscv.cpp ****                 case 0x50:
 985              		.loc 1 101 17 is_stmt 1
 102:src/riscv.cpp ****                     Scheduler::getInstance().put((TCB*)*(args + 1));
 986              		.loc 1 102 21
 987              	.LBB208:
 988              	.LBB209:
 989              		.file 6 "src/../h/../h/scheduler.hpp"
   1:src/../h/../h/scheduler.hpp **** #ifndef _scheduler_hpp_
   2:src/../h/../h/scheduler.hpp **** #define _scheduler_hpp_
   3:src/../h/../h/scheduler.hpp **** 
   4:src/../h/../h/scheduler.hpp **** //#include "../test/printing.hpp"
   5:src/../h/../h/scheduler.hpp **** 
   6:src/../h/../h/scheduler.hpp **** class TCB;
   7:src/../h/../h/scheduler.hpp **** 
   8:src/../h/../h/scheduler.hpp **** class Scheduler{
   9:src/../h/../h/scheduler.hpp **** public:
  10:src/../h/../h/scheduler.hpp **** 
  11:src/../h/../h/scheduler.hpp ****     static Scheduler& getInstance(){
  12:src/../h/../h/scheduler.hpp ****         static Scheduler instance;
 990              		.loc 6 12 9
 991              		.loc 6 12 26 is_stmt 0
 992 0484 97070000 		lbu	a5,_ZGVZN9Scheduler11getInstanceEvE8instance
GAS LISTING /tmp/ccn0TTqR.s 			page 30


 992      83C70700 
 993 048c 63940702 		bnez	a5,.L37
 994              	.LVL51:
 995              	.LBB210:
 996              	.LBB211:
  13:src/../h/../h/scheduler.hpp ****         return instance;
  14:src/../h/../h/scheduler.hpp ****     }
  15:src/../h/../h/scheduler.hpp **** 
  16:src/../h/../h/scheduler.hpp ****     Scheduler(const Scheduler&) = delete;
  17:src/../h/../h/scheduler.hpp ****     void operator=(Scheduler const&) = delete;
  18:src/../h/../h/scheduler.hpp **** 
  19:src/../h/../h/scheduler.hpp ****     TCB* get();
  20:src/../h/../h/scheduler.hpp **** 
  21:src/../h/../h/scheduler.hpp ****     void put(TCB* tcb);
  22:src/../h/../h/scheduler.hpp **** 
  23:src/../h/../h/scheduler.hpp **** //    static void printScheduler();
  24:src/../h/../h/scheduler.hpp **** 
  25:src/../h/../h/scheduler.hpp **** private:
  26:src/../h/../h/scheduler.hpp **** 
  27:src/../h/../h/scheduler.hpp ****     Scheduler(){
  28:src/../h/../h/scheduler.hpp ****         head = nullptr;
 997              		.loc 6 28 9 is_stmt 1
 998              		.loc 6 28 14 is_stmt 0
 999 0490 97070000 		la	a5,_ZN9Scheduler4headE
 999      83B70700 
 1000 0498 23B00700 		sd	zero,0(a5)
  29:src/../h/../h/scheduler.hpp ****         tail = nullptr;
 1001              		.loc 6 29 9 is_stmt 1
 1002              		.loc 6 29 14 is_stmt 0
 1003 049c 97070000 		la	a5,_ZN9Scheduler4tailE
 1003      83B70700 
 1004 04a4 23B00700 		sd	zero,0(a5)
 1005              	.LBE211:
 1006              	.LBE210:
  12:src/../h/../h/scheduler.hpp ****         return instance;
 1007              		.loc 6 12 26
 1008 04a8 93071000 		li	a5,1
 1009 04ac 17070000 		sb	a5,_ZGVZN9Scheduler11getInstanceEvE8instance,a4
 1009      2300F700 
 1010              	.LVL52:
 1011              	.L37:
  13:src/../h/../h/scheduler.hpp ****         return instance;
 1012              		.loc 6 13 9 is_stmt 1
 1013              	.LBE209:
 1014              	.LBE208:
 102:src/riscv.cpp ****                     Scheduler::getInstance().put((TCB*)*(args + 1));
 1015              		.loc 1 102 49 is_stmt 0
 1016 04b4 833584FA 		ld	a1,-88(s0)
 1017 04b8 17050000 		lla	a0,_ZZN9Scheduler11getInstanceEvE8instance
 1017      13050500 
 1018 04c0 97000000 		call	_ZN9Scheduler3putEP3TCB@plt
 1018      E7800000 
 1019              	.LVL53:
  53:src/riscv.cpp ****         uint64 retVal = 0;
 1020              		.loc 1 53 16
 1021 04c8 13050000 		li	a0,0
 1022 04cc 6FF0DFD2 		j	.L12
GAS LISTING /tmp/ccn0TTqR.s 			page 31


 1023              	.L16:
 104:src/riscv.cpp ****                 case 0x60:
 1024              		.loc 1 104 17 is_stmt 1
 105:src/riscv.cpp ****                     Riscv::switch_to_user();
 1025              		.loc 1 105 21
 105:src/riscv.cpp ****                     Riscv::switch_to_user();
 1026              		.loc 1 105 42 is_stmt 0
 1027 04d0 97000000 		call	_ZN5Riscv14switch_to_userEv
 1027      E7800000 
 1028              	.LVL54:
 106:src/riscv.cpp ****                     break;
 1029              		.loc 1 106 21 is_stmt 1
  53:src/riscv.cpp ****         uint64 retVal = 0;
 1030              		.loc 1 53 16 is_stmt 0
 1031 04d8 13050000 		li	a0,0
 106:src/riscv.cpp ****                     break;
 1032              		.loc 1 106 21
 1033 04dc 6FF0DFD1 		j	.L12
 1034              	.L15:
 107:src/riscv.cpp ****                 case 0x61:
 1035              		.loc 1 107 17 is_stmt 1
 108:src/riscv.cpp ****                     Riscv::switch_to_priviledged();
 1036              		.loc 1 108 21
 108:src/riscv.cpp ****                     Riscv::switch_to_priviledged();
 1037              		.loc 1 108 49 is_stmt 0
 1038 04e0 97000000 		call	_ZN5Riscv21switch_to_priviledgedEv
 1038      E7800000 
 1039              	.LVL55:
 109:src/riscv.cpp ****                     break;
 1040              		.loc 1 109 21 is_stmt 1
  53:src/riscv.cpp ****         uint64 retVal = 0;
 1041              		.loc 1 53 16 is_stmt 0
 1042 04e8 13050000 		li	a0,0
 109:src/riscv.cpp ****                     break;
 1043              		.loc 1 109 21
 1044 04ec 6FF0DFD0 		j	.L12
 1045              	.L13:
 110:src/riscv.cpp ****                 case 0x70:
 1046              		.loc 1 110 17 is_stmt 1
 111:src/riscv.cpp ****                     ((TCB*)*(args + 1))->set_periodic(true);
 1047              		.loc 1 111 21
 111:src/riscv.cpp ****                     ((TCB*)*(args + 1))->set_periodic(true);
 1048              		.loc 1 111 28 is_stmt 0
 1049 04f0 833584FA 		ld	a1,-88(s0)
 1050              	.LVL56:
 1051              	.LBB212:
 1052              	.LBB213:
  58:src/../h/TCB.hpp **** 
  59:src/../h/TCB.hpp ****     void set_periodic(bool b){
  60:src/../h/TCB.hpp ****         periodic = b;
 1053              		.loc 3 60 9 is_stmt 1
 1054              		.loc 3 60 18 is_stmt 0
 1055 04f4 93071000 		li	a5,1
 1056 04f8 A380F506 		sb	a5,97(a1)
  61:src/../h/TCB.hpp ****         periodicThread::getInstance().put(this);
 1057              		.loc 3 61 9 is_stmt 1
 1058              	.LBB214:
GAS LISTING /tmp/ccn0TTqR.s 			page 32


 1059              	.LBB215:
 1060              		.file 7 "src/../h/../h/periodic_threads.hpp"
   1:src/../h/../h/periodic_threads.hpp **** #ifndef _periodic_thread_hpp_
   2:src/../h/../h/periodic_threads.hpp **** #define _periodic_thread_hpp_
   3:src/../h/../h/periodic_threads.hpp **** 
   4:src/../h/../h/periodic_threads.hpp **** class TCB;
   5:src/../h/../h/periodic_threads.hpp **** 
   6:src/../h/../h/periodic_threads.hpp **** class periodicThread{
   7:src/../h/../h/periodic_threads.hpp **** 
   8:src/../h/../h/periodic_threads.hpp **** public:
   9:src/../h/../h/periodic_threads.hpp ****     static periodicThread& getInstance(){
  10:src/../h/../h/periodic_threads.hpp ****         static periodicThread instance;
 1061              		.loc 7 10 9
 1062              		.loc 7 10 31 is_stmt 0
 1063 04fc 97070000 		lbu	a5,_ZGVZN14periodicThread11getInstanceEvE8instance
 1063      83C70700 
 1064 0504 63980700 		bnez	a5,.L38
 1065              	.LVL57:
 1066 0508 93071000 		li	a5,1
 1067 050c 17070000 		sb	a5,_ZGVZN14periodicThread11getInstanceEvE8instance,a4
 1067      2300F700 
 1068              	.LVL58:
 1069              	.L38:
  11:src/../h/../h/periodic_threads.hpp ****         return instance;
 1070              		.loc 7 11 9 is_stmt 1
 1071              	.LBE215:
 1072              	.LBE214:
 1073              		.loc 3 61 42 is_stmt 0
 1074 0514 17050000 		lla	a0,_ZZN14periodicThread11getInstanceEvE8instance
 1074      13050500 
 1075 051c 97000000 		call	_ZN14periodicThread3putEP3TCB@plt
 1075      E7800000 
 1076              	.LVL59:
  62:src/../h/TCB.hpp ****     }
 1077              		.loc 3 62 5
 1078 0524 6FF0DFCB 		j	.L30
 1079              	.LVL60:
 1080              	.L44:
 1081              	.LBE213:
 1082              	.LBE212:
  57:src/riscv.cpp ****             switch(*args){
 1083              		.loc 1 57 13
 1084 0528 13050000 		li	a0,0
 1085 052c 6FF0DFCC 		j	.L12
 1086              	.L45:
 1087 0530 13050000 		li	a0,0
 1088 0534 6FF05FCC 		j	.L12
 1089              	.LVL61:
 1090              	.L49:
 1091              	.LBE171:
 1092              	.LBB216:
 1093              	.LBB153:
 129:src/riscv.cpp ****         int irq = plic_claim();
 1094              		.loc 1 129 9 is_stmt 1
 129:src/riscv.cpp ****         int irq = plic_claim();
 1095              		.loc 1 129 29 is_stmt 0
 1096 0538 97000000 		call	plic_claim@plt
GAS LISTING /tmp/ccn0TTqR.s 			page 33


 1096      E7800000 
 1097              	.LVL62:
 1098 0540 13090500 		mv	s2,a0
 1099              	.LVL63:
 130:src/riscv.cpp ****         if(irq == CONSOLE_IRQ){
 1100              		.loc 1 130 9 is_stmt 1
 1101              	.LBB154:
 1102 0544 9307A000 		li	a5,10
 1103 0548 630EF504 		beq	a0,a5,.L41
 1104              	.LVL64:
 1105              	.L39:
 1106              	.LBE154:
 140:src/riscv.cpp ****         plic_complete(irq);
 1107              		.loc 1 140 9
 140:src/riscv.cpp ****         plic_complete(irq);
 1108              		.loc 1 140 22 is_stmt 0
 1109 054c 13050900 		mv	a0,s2
 1110 0550 97000000 		call	plic_complete@plt
 1110      E7800000 
 1111              	.LVL65:
 1112              	.LBE153:
 1113              	.LBE216:
 1114              	.LBE234:
 1115              	.LBE238:
 1116              		.loc 1 148 1
 1117 0558 6FF09FB9 		j	.L7
 1118              	.L56:
 1119              	.LBB239:
 1120              	.LBB235:
 1121              	.LBB217:
 1122              	.LBB170:
 1123              	.LBB169:
 1124              	.LBB155:
 1125              	.LBB156:
 1126              	.LBB157:
 1127              	.LBB158:
  10:src/../h/console.hpp ****         return instance;
 1128              		.loc 5 10 24
 1129 055c 17050000 		lla	a0,_ZZN7Console11getInstanceEvE8instance
 1129      13050500 
 1130 0564 97000000 		call	_ZN7ConsoleC1Ev@plt
 1130      E7800000 
 1131              	.LVL66:
 1132 056c 93071000 		li	a5,1
 1133 0570 17070000 		sb	a5,_ZGVZN7Console11getInstanceEvE8instance,a4
 1133      2300F700 
 1134              	.L40:
 1135              		.loc 5 11 9 is_stmt 1
 1136              	.LBE158:
 1137              	.LBE157:
 133:src/riscv.cpp ****                 Console::getInstance().put_in_input(*((char*)CONSOLE_RX_DATA));
 1138              		.loc 1 133 52 is_stmt 0
 1139 0578 97070000 		la	a5,CONSOLE_RX_DATA
 1139      83B70700 
 1140 0580 83B40700 		ld	s1,0(a5)
 1141 0584 83C50400 		lbu	a1,0(s1)
 1142 0588 17050000 		lla	a0,_ZZN7Console11getInstanceEvE8instance
GAS LISTING /tmp/ccn0TTqR.s 			page 34


 1142      13050500 
 1143 0590 97000000 		call	_ZN7Console12put_in_inputEc@plt
 1143      E7800000 
 1144              	.LVL67:
 134:src/riscv.cpp ****                 if(*((char*)CONSOLE_RX_DATA) == 107){
 1145              		.loc 1 134 17 is_stmt 1
 1146              	.LBB160:
 134:src/riscv.cpp ****                 if(*((char*)CONSOLE_RX_DATA) == 107){
 1147              		.loc 1 134 20 is_stmt 0
 1148 0598 03C70400 		lbu	a4,0(s1)
 134:src/riscv.cpp ****                 if(*((char*)CONSOLE_RX_DATA) == 107){
 1149              		.loc 1 134 17
 1150 059c 9307B006 		li	a5,107
 1151 05a0 6306F702 		beq	a4,a5,.L55
 1152              	.L41:
 1153              	.LBE160:
 1154              	.LBE156:
 132:src/riscv.cpp ****             while(*((char*)CONSOLE_STATUS) & CONSOLE_RX_STATUS_BIT){
 1155              		.loc 1 132 13 is_stmt 1
 132:src/riscv.cpp ****             while(*((char*)CONSOLE_STATUS) & CONSOLE_RX_STATUS_BIT){
 1156              		.loc 1 132 46
 132:src/riscv.cpp ****             while(*((char*)CONSOLE_STATUS) & CONSOLE_RX_STATUS_BIT){
 1157              		.loc 1 132 19 is_stmt 0
 1158 05a4 97070000 		la	a5,CONSOLE_STATUS
 1158      83B70700 
 1159 05ac 83B70700 		ld	a5,0(a5)
 1160 05b0 83C70700 		lbu	a5,0(a5)
 132:src/riscv.cpp ****             while(*((char*)CONSOLE_STATUS) & CONSOLE_RX_STATUS_BIT){
 1161              		.loc 1 132 46
 1162 05b4 93F71700 		andi	a5,a5,1
 1163 05b8 E38A07F8 		beqz	a5,.L39
 1164              	.LBB168:
 133:src/riscv.cpp ****                 Console::getInstance().put_in_input(*((char*)CONSOLE_RX_DATA));
 1165              		.loc 1 133 17 is_stmt 1
 1166              	.LBB166:
 1167              	.LBB159:
  10:src/../h/console.hpp ****         return instance;
 1168              		.loc 5 10 9
  10:src/../h/console.hpp ****         return instance;
 1169              		.loc 5 10 24 is_stmt 0
 1170 05bc 97070000 		lbu	a5,_ZGVZN7Console11getInstanceEvE8instance
 1170      83C70700 
 1171 05c4 E39A07FA 		bnez	a5,.L40
 1172 05c8 6FF05FF9 		j	.L56
 1173              	.L55:
 1174              	.LBE159:
 1175              	.LBE166:
 1176              	.LBB167:
 1177              	.LBB161:
 135:src/riscv.cpp ****                     TCB* tmp = periodicThread::getInstance().get();
 1178              		.loc 1 135 21 is_stmt 1
 1179              	.LBB162:
 1180              	.LBB163:
  10:src/../h/../h/periodic_threads.hpp ****         return instance;
 1181              		.loc 7 10 9
  10:src/../h/../h/periodic_threads.hpp ****         return instance;
 1182              		.loc 7 10 31 is_stmt 0
GAS LISTING /tmp/ccn0TTqR.s 			page 35


 1183 05cc 97070000 		lbu	a5,_ZGVZN14periodicThread11getInstanceEvE8instance
 1183      83C70700 
 1184 05d4 63980700 		bnez	a5,.L42
 1185              	.LVL68:
 1186 05d8 93071000 		li	a5,1
 1187 05dc 17070000 		sb	a5,_ZGVZN14periodicThread11getInstanceEvE8instance,a4
 1187      2300F700 
 1188              	.LVL69:
 1189              	.L42:
 1190              		.loc 7 11 9 is_stmt 1
 1191              	.LBE163:
 1192              	.LBE162:
 135:src/riscv.cpp ****                     TCB* tmp = periodicThread::getInstance().get();
 1193              		.loc 1 135 65 is_stmt 0
 1194 05e4 17050000 		lla	a0,_ZZN14periodicThread11getInstanceEvE8instance
 1194      13050500 
 1195 05ec 97000000 		call	_ZN14periodicThread3getEv@plt
 1195      E7800000 
 1196              	.LVL70:
 136:src/riscv.cpp ****                     tmp->set_finished(true);
 1197              		.loc 1 136 21 is_stmt 1
 1198              	.LBB164:
 1199              	.LBB165:
  35:src/../h/TCB.hpp **** 
 1200              		.loc 3 35 32
  35:src/../h/TCB.hpp **** 
 1201              		.loc 3 35 47 is_stmt 0
 1202 05f4 93071000 		li	a5,1
 1203 05f8 2304F502 		sb	a5,40(a0)
  35:src/../h/TCB.hpp **** 
 1204              		.loc 3 35 52
 1205 05fc 6FF09FFA 		j	.L41
 1206              	.LBE165:
 1207              	.LBE164:
 1208              	.LBE161:
 1209              	.LBE167:
 1210              	.LBE168:
 1211              	.LBE155:
 1212              	.LBE169:
 1213              	.LBE170:
 1214              	.LBE217:
 1215              	.LBE235:
 1216              	.LBE239:
 1217              		.cfi_endproc
 1218              	.LFE78:
 1220              		.weak	_ZGVZN7Console11getInstanceEvE8instance
 1221              		.section	.bss._ZGVZN7Console11getInstanceEvE8instance,"awG",@nobits,_ZGVZN7Console11getInstanceEvE
 1222              		.align	3
 1225              	_ZGVZN7Console11getInstanceEvE8instance:
 1226 0000 00000000 		.zero	8
 1226      00000000 
 1227              		.weak	_ZZN7Console11getInstanceEvE8instance
 1228              		.section	.bss._ZZN7Console11getInstanceEvE8instance,"awG",@nobits,_ZZN7Console11getInstanceEvE8ins
 1229              		.align	3
 1232              	_ZZN7Console11getInstanceEvE8instance:
 1233 0000 00000000 		.zero	16
 1233      00000000 
GAS LISTING /tmp/ccn0TTqR.s 			page 36


 1233      00000000 
 1233      00000000 
 1234              		.weak	_ZGVZN14periodicThread11getInstanceEvE8instance
 1235              		.section	.bss._ZGVZN14periodicThread11getInstanceEvE8instance,"awG",@nobits,_ZGVZN14periodicThread
 1236              		.align	3
 1239              	_ZGVZN14periodicThread11getInstanceEvE8instance:
 1240 0000 00000000 		.zero	8
 1240      00000000 
 1241              		.weak	_ZZN14periodicThread11getInstanceEvE8instance
 1242              		.section	.bss._ZZN14periodicThread11getInstanceEvE8instance,"awG",@nobits,_ZZN14periodicThread11ge
 1243              		.align	3
 1246              	_ZZN14periodicThread11getInstanceEvE8instance:
 1247 0000 00       		.zero	1
 1248              		.weak	_ZGVZN9Scheduler11getInstanceEvE8instance
 1249              		.section	.bss._ZGVZN9Scheduler11getInstanceEvE8instance,"awG",@nobits,_ZGVZN9Scheduler11getInstanc
 1250              		.align	3
 1253              	_ZGVZN9Scheduler11getInstanceEvE8instance:
 1254 0000 00000000 		.zero	8
 1254      00000000 
 1255              		.weak	_ZZN9Scheduler11getInstanceEvE8instance
 1256              		.section	.bss._ZZN9Scheduler11getInstanceEvE8instance,"awG",@nobits,_ZZN9Scheduler11getInstanceEvE
 1257              		.align	3
 1260              	_ZZN9Scheduler11getInstanceEvE8instance:
 1261 0000 00       		.zero	1
 1262              		.weak	_ZGVZN15MemoryAllocator11getInstanceEvE8instance
 1263              		.section	.bss._ZGVZN15MemoryAllocator11getInstanceEvE8instance,"awG",@nobits,_ZGVZN15MemoryAllocat
 1264              		.align	3
 1267              	_ZGVZN15MemoryAllocator11getInstanceEvE8instance:
 1268 0000 00000000 		.zero	8
 1268      00000000 
 1269              		.weak	_ZZN15MemoryAllocator11getInstanceEvE8instance
 1270              		.section	.bss._ZZN15MemoryAllocator11getInstanceEvE8instance,"awG",@nobits,_ZZN15MemoryAllocator11
 1271              		.align	3
 1274              	_ZZN15MemoryAllocator11getInstanceEvE8instance:
 1275 0000 00000000 		.zero	24
 1275      00000000 
 1275      00000000 
 1275      00000000 
 1275      00000000 
 1276              		.text
 1277              	.Letext0:
 1278              		.file 8 "src/../h/../lib/hw.h"
 1279              		.file 9 "src/../h/../h/TS.hpp"
 1280              		.file 10 "src/../h/semaphore.hpp"
 1281              		.file 11 "src/../h/../h/my_buffer.hpp"
GAS LISTING /tmp/ccn0TTqR.s 			page 37

