GAS LISTING /tmp/ccCNZIBa.s 			page 1


   1              		.file	"riscv.cpp"
   2              		.option pic
   3              		.option norelax
   4              		.text
   5              	.Ltext0:
   6              		.align	2
   7              		.globl	_ZN5Riscv14switch_to_userEv
   9              	_ZN5Riscv14switch_to_userEv:
  10              	.LFB60:
  11              		.file 1 "src/riscv.cpp"
   1:src/riscv.cpp **** #include "../h/riscv.hpp"
   2:src/riscv.cpp **** #include "../h/MemoryAllocator.hpp"
   3:src/riscv.cpp **** #include "../h/TCB.hpp"
   4:src/riscv.cpp **** #include "../h/semaphore.hpp"
   5:src/riscv.cpp **** #include "../h/console.hpp"
   6:src/riscv.cpp **** 
   7:src/riscv.cpp **** void Riscv::switch_to_user(){
  12              		.loc 1 7 29
  13              		.cfi_startproc
  14 0000 130101FF 		addi	sp,sp,-16
  15              		.cfi_def_cfa_offset 16
  16 0004 23348100 		sd	s0,8(sp)
  17              		.cfi_offset 8, -8
  18 0008 13040101 		addi	s0,sp,16
  19              		.cfi_def_cfa 8, 0
   8:src/riscv.cpp ****     mc_sstatus(SSTATUS_SPP);
  20              		.loc 1 8 5
  21              	.LVL0:
  22              	.LBB62:
  23              	.LBB63:
  24              		.file 2 "src/../h/riscv.hpp"
   1:src/../h/riscv.hpp **** #ifndef _riscv_hpp_
   2:src/../h/riscv.hpp **** #define _riscv_hpp_
   3:src/../h/riscv.hpp **** 
   4:src/../h/riscv.hpp **** #include "../lib/hw.h"
   5:src/../h/riscv.hpp **** 
   6:src/../h/riscv.hpp **** class Riscv
   7:src/../h/riscv.hpp **** {
   8:src/../h/riscv.hpp **** public:
   9:src/../h/riscv.hpp **** 
  10:src/../h/riscv.hpp ****     // u korisnicki
  11:src/../h/riscv.hpp ****     static void switch_to_user();
  12:src/../h/riscv.hpp **** 
  13:src/../h/riscv.hpp ****     // u privilegovani
  14:src/../h/riscv.hpp ****     static void switch_to_priviledged();
  15:src/../h/riscv.hpp **** 
  16:src/../h/riscv.hpp ****     // push x3..x31 registers onto stack
  17:src/../h/riscv.hpp ****     static void pushRegisters();
  18:src/../h/riscv.hpp **** 
  19:src/../h/riscv.hpp ****     // pop x3..x31 registers onto stack
  20:src/../h/riscv.hpp ****     static void popRegisters();
  21:src/../h/riscv.hpp **** 
  22:src/../h/riscv.hpp ****     // pop sstatus.spp and sstatus.spie bits (has to be a non inline function)
  23:src/../h/riscv.hpp ****     static void popSppSpie();
  24:src/../h/riscv.hpp **** 
  25:src/../h/riscv.hpp ****     // read register scause
  26:src/../h/riscv.hpp ****     static uint64 r_scause();
GAS LISTING /tmp/ccCNZIBa.s 			page 2


  27:src/../h/riscv.hpp **** 
  28:src/../h/riscv.hpp ****     // write register scause
  29:src/../h/riscv.hpp ****     static void w_scause(uint64 scause);
  30:src/../h/riscv.hpp **** 
  31:src/../h/riscv.hpp ****     // read register sepc
  32:src/../h/riscv.hpp ****     static uint64 r_sepc();
  33:src/../h/riscv.hpp **** 
  34:src/../h/riscv.hpp ****     // write register sepc
  35:src/../h/riscv.hpp ****     static void w_sepc(uint64 sepc);
  36:src/../h/riscv.hpp **** 
  37:src/../h/riscv.hpp ****     // read register stvec
  38:src/../h/riscv.hpp ****     static uint64 r_stvec();
  39:src/../h/riscv.hpp **** 
  40:src/../h/riscv.hpp ****     // write register stvec
  41:src/../h/riscv.hpp ****     static void w_stvec(uint64 stvec);
  42:src/../h/riscv.hpp **** 
  43:src/../h/riscv.hpp ****     // read register stval
  44:src/../h/riscv.hpp ****     static uint64 r_stval();
  45:src/../h/riscv.hpp **** 
  46:src/../h/riscv.hpp ****     // write register stval
  47:src/../h/riscv.hpp ****     static void w_stval(uint64 stval);
  48:src/../h/riscv.hpp **** 
  49:src/../h/riscv.hpp ****     enum BitMaskSip
  50:src/../h/riscv.hpp ****     {
  51:src/../h/riscv.hpp ****         SIP_SSIP = (1 << 1),
  52:src/../h/riscv.hpp ****         SIP_STIP = (1 << 5),
  53:src/../h/riscv.hpp ****         SIP_SEIP = (1 << 9),
  54:src/../h/riscv.hpp ****     };
  55:src/../h/riscv.hpp **** 
  56:src/../h/riscv.hpp ****     // mask set register sip
  57:src/../h/riscv.hpp ****     static void ms_sip(uint64 mask);
  58:src/../h/riscv.hpp **** 
  59:src/../h/riscv.hpp ****     // mask clear register sip
  60:src/../h/riscv.hpp ****     static void mc_sip(uint64 mask);
  61:src/../h/riscv.hpp **** 
  62:src/../h/riscv.hpp ****     // read register sip
  63:src/../h/riscv.hpp ****     static uint64 r_sip();
  64:src/../h/riscv.hpp **** 
  65:src/../h/riscv.hpp ****     // write register sip
  66:src/../h/riscv.hpp ****     static void w_sip(uint64 sip);
  67:src/../h/riscv.hpp **** 
  68:src/../h/riscv.hpp ****     enum BitMaskSstatus
  69:src/../h/riscv.hpp ****     {
  70:src/../h/riscv.hpp ****         SSTATUS_SIE = (1 << 1),
  71:src/../h/riscv.hpp ****         SSTATUS_SPIE = (1 << 5),
  72:src/../h/riscv.hpp ****         SSTATUS_SPP = (1 << 8),
  73:src/../h/riscv.hpp ****     };
  74:src/../h/riscv.hpp **** 
  75:src/../h/riscv.hpp ****     // mask set register sstatus
  76:src/../h/riscv.hpp ****     static void ms_sstatus(uint64 mask);
  77:src/../h/riscv.hpp **** 
  78:src/../h/riscv.hpp ****     // mask clear register sstatus
  79:src/../h/riscv.hpp ****     static void mc_sstatus(uint64 mask);
  80:src/../h/riscv.hpp **** 
  81:src/../h/riscv.hpp ****     // read register sstatus
  82:src/../h/riscv.hpp ****     static uint64 r_sstatus();
  83:src/../h/riscv.hpp **** 
GAS LISTING /tmp/ccCNZIBa.s 			page 3


  84:src/../h/riscv.hpp ****     // write register sstatus
  85:src/../h/riscv.hpp ****     static void w_sstatus(uint64 sstatus);
  86:src/../h/riscv.hpp **** 
  87:src/../h/riscv.hpp ****     // supervisor trap
  88:src/../h/riscv.hpp ****     static void supervisorTrap();
  89:src/../h/riscv.hpp **** 
  90:src/../h/riscv.hpp **** private:
  91:src/../h/riscv.hpp **** 
  92:src/../h/riscv.hpp ****     // supervisor trap handler
  93:src/../h/riscv.hpp ****     static void handleSupervisorTrap();
  94:src/../h/riscv.hpp **** 
  95:src/../h/riscv.hpp **** };
  96:src/../h/riscv.hpp **** 
  97:src/../h/riscv.hpp **** 
  98:src/../h/riscv.hpp **** inline uint64 Riscv::r_scause()
  99:src/../h/riscv.hpp **** {
 100:src/../h/riscv.hpp ****     uint64 volatile scause;
 101:src/../h/riscv.hpp ****     __asm__ volatile ("csrr %[scause], scause" : [scause] "=r"(scause));
 102:src/../h/riscv.hpp ****     return scause;
 103:src/../h/riscv.hpp **** }
 104:src/../h/riscv.hpp **** 
 105:src/../h/riscv.hpp **** inline void Riscv::w_scause(uint64 scause)
 106:src/../h/riscv.hpp **** {
 107:src/../h/riscv.hpp ****     __asm__ volatile ("csrw scause, %[scause]" : : [scause] "r"(scause));
 108:src/../h/riscv.hpp **** }
 109:src/../h/riscv.hpp **** 
 110:src/../h/riscv.hpp **** inline uint64 Riscv::r_sepc()
 111:src/../h/riscv.hpp **** {
 112:src/../h/riscv.hpp ****     uint64 volatile sepc;
 113:src/../h/riscv.hpp ****     __asm__ volatile ("csrr %[sepc], sepc" : [sepc] "=r"(sepc));
 114:src/../h/riscv.hpp ****     return sepc;
 115:src/../h/riscv.hpp **** }
 116:src/../h/riscv.hpp **** 
 117:src/../h/riscv.hpp **** inline void Riscv::w_sepc(uint64 sepc)
 118:src/../h/riscv.hpp **** {
 119:src/../h/riscv.hpp ****     __asm__ volatile ("csrw sepc, %[sepc]" : : [sepc] "r"(sepc));
 120:src/../h/riscv.hpp **** }
 121:src/../h/riscv.hpp **** 
 122:src/../h/riscv.hpp **** inline uint64 Riscv::r_stvec()
 123:src/../h/riscv.hpp **** {
 124:src/../h/riscv.hpp ****     uint64 volatile stvec;
 125:src/../h/riscv.hpp ****     __asm__ volatile ("csrr %[stvec], stvec" : [stvec] "=r"(stvec));
 126:src/../h/riscv.hpp ****     return stvec;
 127:src/../h/riscv.hpp **** }
 128:src/../h/riscv.hpp **** 
 129:src/../h/riscv.hpp **** inline void Riscv::w_stvec(uint64 stvec)
 130:src/../h/riscv.hpp **** {
 131:src/../h/riscv.hpp ****     __asm__ volatile ("csrw stvec, %[stvec]" : : [stvec] "r"(stvec));
 132:src/../h/riscv.hpp **** }
 133:src/../h/riscv.hpp **** 
 134:src/../h/riscv.hpp **** inline uint64 Riscv::r_stval()
 135:src/../h/riscv.hpp **** {
 136:src/../h/riscv.hpp ****     uint64 volatile stval;
 137:src/../h/riscv.hpp ****     __asm__ volatile ("csrr %[stval], stval" : [stval] "=r"(stval));
 138:src/../h/riscv.hpp ****     return stval;
 139:src/../h/riscv.hpp **** }
 140:src/../h/riscv.hpp **** 
GAS LISTING /tmp/ccCNZIBa.s 			page 4


 141:src/../h/riscv.hpp **** inline void Riscv::w_stval(uint64 stval)
 142:src/../h/riscv.hpp **** {
 143:src/../h/riscv.hpp ****     __asm__ volatile ("csrw stval, %[stval]" : : [stval] "r"(stval));
 144:src/../h/riscv.hpp **** }
 145:src/../h/riscv.hpp **** 
 146:src/../h/riscv.hpp **** inline void Riscv::ms_sip(uint64 mask)
 147:src/../h/riscv.hpp **** {
 148:src/../h/riscv.hpp ****     __asm__ volatile ("csrs sip, %[mask]" : : [mask] "r"(mask));
 149:src/../h/riscv.hpp **** }
 150:src/../h/riscv.hpp **** 
 151:src/../h/riscv.hpp **** inline void Riscv::mc_sip(uint64 mask)
 152:src/../h/riscv.hpp **** {
 153:src/../h/riscv.hpp ****     __asm__ volatile ("csrc sip, %[mask]" : : [mask] "r"(mask));
 154:src/../h/riscv.hpp **** }
 155:src/../h/riscv.hpp **** 
 156:src/../h/riscv.hpp **** inline uint64 Riscv::r_sip()
 157:src/../h/riscv.hpp **** {
 158:src/../h/riscv.hpp ****     uint64 volatile sip;
 159:src/../h/riscv.hpp ****     __asm__ volatile ("csrr %[sip], sip" : [sip] "=r"(sip));
 160:src/../h/riscv.hpp ****     return sip;
 161:src/../h/riscv.hpp **** }
 162:src/../h/riscv.hpp **** 
 163:src/../h/riscv.hpp **** inline void Riscv::w_sip(uint64 sip)
 164:src/../h/riscv.hpp **** {
 165:src/../h/riscv.hpp ****     __asm__ volatile ("csrw sip, %[sip]" : : [sip] "r"(sip));
 166:src/../h/riscv.hpp **** }
 167:src/../h/riscv.hpp **** 
 168:src/../h/riscv.hpp **** inline void Riscv::ms_sstatus(uint64 mask)
 169:src/../h/riscv.hpp **** {
 170:src/../h/riscv.hpp ****     __asm__ volatile ("csrs sstatus, %[mask]" : : [mask] "r"(mask));
 171:src/../h/riscv.hpp **** }
 172:src/../h/riscv.hpp **** 
 173:src/../h/riscv.hpp **** inline void Riscv::mc_sstatus(uint64 mask)
 174:src/../h/riscv.hpp **** {
 175:src/../h/riscv.hpp ****     __asm__ volatile ("csrc sstatus, %[mask]" : : [mask] "r"(mask));
  25              		.loc 2 175 5
  26              		.loc 2 175 68 is_stmt 0
  27 000c 93070010 		li	a5,256
  28              	#APP
  29              	# 175 "src/../h/riscv.hpp" 1
 176              	}
  30              		csrc sstatus, a5
  31              	# 0 "" 2
  32              	.LVL1:
  33              	#NO_APP
  34              	.LBE63:
  35              	.LBE62:
   9:src/riscv.cpp **** }
  36              		.loc 1 9 1
  37 0014 03348100 		ld	s0,8(sp)
  38              		.cfi_restore 8
  39              		.cfi_def_cfa 2, 16
  40 0018 13010101 		addi	sp,sp,16
  41              		.cfi_def_cfa_offset 0
  42 001c 67800000 		jr	ra
  43              		.cfi_endproc
  44              	.LFE60:
GAS LISTING /tmp/ccCNZIBa.s 			page 5


  46              		.align	2
  47              		.globl	_ZN5Riscv21switch_to_priviledgedEv
  49              	_ZN5Riscv21switch_to_priviledgedEv:
  50              	.LFB61:
  10:src/riscv.cpp **** 
  11:src/riscv.cpp **** void Riscv::switch_to_priviledged() {
  51              		.loc 1 11 37 is_stmt 1
  52              		.cfi_startproc
  53 0020 130101FF 		addi	sp,sp,-16
  54              		.cfi_def_cfa_offset 16
  55 0024 23348100 		sd	s0,8(sp)
  56              		.cfi_offset 8, -8
  57 0028 13040101 		addi	s0,sp,16
  58              		.cfi_def_cfa 8, 0
  12:src/riscv.cpp ****     ms_sstatus(SSTATUS_SPP);
  59              		.loc 1 12 5
  60              	.LVL2:
  61              	.LBB64:
  62              	.LBB65:
 170:src/../h/riscv.hpp **** }
  63              		.loc 2 170 5
 170:src/../h/riscv.hpp **** }
  64              		.loc 2 170 68 is_stmt 0
  65 002c 93070010 		li	a5,256
  66              	#APP
  67              	# 170 "src/../h/riscv.hpp" 1
  68              		csrs sstatus, a5
  69              	# 0 "" 2
  70              	.LVL3:
  71              	#NO_APP
  72              	.LBE65:
  73              	.LBE64:
  13:src/riscv.cpp **** }
  74              		.loc 1 13 1
  75 0034 03348100 		ld	s0,8(sp)
  76              		.cfi_restore 8
  77              		.cfi_def_cfa 2, 16
  78 0038 13010101 		addi	sp,sp,16
  79              		.cfi_def_cfa_offset 0
  80 003c 67800000 		jr	ra
  81              		.cfi_endproc
  82              	.LFE61:
  84              		.align	2
  85              		.globl	_ZN5Riscv10popSppSpieEv
  87              	_ZN5Riscv10popSppSpieEv:
  88              	.LFB62:
  14:src/riscv.cpp **** 
  15:src/riscv.cpp **** void Riscv::popSppSpie(){
  89              		.loc 1 15 25 is_stmt 1
  90              		.cfi_startproc
  91 0040 130101FF 		addi	sp,sp,-16
  92              		.cfi_def_cfa_offset 16
  93 0044 23348100 		sd	s0,8(sp)
  94              		.cfi_offset 8, -8
  95 0048 13040101 		addi	s0,sp,16
  96              		.cfi_def_cfa 8, 0
  16:src/riscv.cpp **** 
GAS LISTING /tmp/ccCNZIBa.s 			page 6


  17:src/riscv.cpp ****     __asm__ volatile("csrw sepc, ra");
  97              		.loc 1 17 5
  98              		.loc 1 17 38 is_stmt 0
  99              	#APP
 100              	# 17 "src/riscv.cpp" 1
  18              	    __asm__ volatile("sret");
 101              		csrw sepc, ra
 102              	# 0 "" 2
 103              		.loc 1 18 5 is_stmt 1
 104              		.loc 1 18 29 is_stmt 0
 105              	# 18 "src/riscv.cpp" 1
  19              	}
 106              		sret
 107              	# 0 "" 2
 108              		.loc 1 19 1
 109              	#NO_APP
 110 0054 03348100 		ld	s0,8(sp)
 111              		.cfi_restore 8
 112              		.cfi_def_cfa 2, 16
 113 0058 13010101 		addi	sp,sp,16
 114              		.cfi_def_cfa_offset 0
 115 005c 67800000 		jr	ra
 116              		.cfi_endproc
 117              	.LFE62:
 119              		.align	2
 120              		.globl	_ZN5Riscv20handleSupervisorTrapEv
 122              	_ZN5Riscv20handleSupervisorTrapEv:
 123              	.LFB63:
  20:src/riscv.cpp **** 
  21:src/riscv.cpp **** void Riscv::handleSupervisorTrap(){
 124              		.loc 1 21 35 is_stmt 1
 125              		.cfi_startproc
 126 0060 130101F5 		addi	sp,sp,-176
 127              		.cfi_def_cfa_offset 176
 128 0064 2334110A 		sd	ra,168(sp)
 129 0068 2330810A 		sd	s0,160(sp)
 130 006c 233C9108 		sd	s1,152(sp)
 131 0070 23382109 		sd	s2,144(sp)
 132              		.cfi_offset 1, -8
 133              		.cfi_offset 8, -16
 134              		.cfi_offset 9, -24
 135              		.cfi_offset 18, -32
 136 0074 1304010B 		addi	s0,sp,176
 137              		.cfi_def_cfa 8, 0
  22:src/riscv.cpp **** 
  23:src/riscv.cpp **** //    uint64 arg0, arg1, arg2, arg3, arg4, arg5, arg6, arg7;
  24:src/riscv.cpp ****     uint64 args[8];
 138              		.loc 1 24 5
  25:src/riscv.cpp ****     __asm__ volatile("mv %[arg0], a0" : [arg0]"=r"(*args)); // za kod sistemskog poziva
 139              		.loc 1 25 5
 140              		.loc 1 25 59 is_stmt 0
 141              	#APP
 142              	# 25 "src/riscv.cpp" 1
  26              	    __asm__ volatile("mv %[arg1], a1" : [arg1]"=r"(*(args + 1))); // argumenti s leva na desno
 143              		mv a5, a0
 144              	# 0 "" 2
 145              	#NO_APP
GAS LISTING /tmp/ccCNZIBa.s 			page 7


 146 007c 2330F4FA 		sd	a5,-96(s0)
 147              		.loc 1 26 5 is_stmt 1
 148              		.loc 1 26 65 is_stmt 0
 149              	#APP
 150              	# 26 "src/riscv.cpp" 1
  27              	    __asm__ volatile("mv %[arg2], a2" : [arg2]"=r"(*(args + 2)));
 151              		mv a5, a1
 152              	# 0 "" 2
 153              	#NO_APP
 154 0084 2334F4FA 		sd	a5,-88(s0)
 155              		.loc 1 27 5 is_stmt 1
 156              		.loc 1 27 65 is_stmt 0
 157              	#APP
 158              	# 27 "src/riscv.cpp" 1
  28              	    __asm__ volatile("mv %[arg3], a3" : [arg3]"=r"(*(args + 3)));
 159              		mv a5, a2
 160              	# 0 "" 2
 161              	#NO_APP
 162 008c 2338F4FA 		sd	a5,-80(s0)
 163              		.loc 1 28 5 is_stmt 1
 164              		.loc 1 28 65 is_stmt 0
 165              	#APP
 166              	# 28 "src/riscv.cpp" 1
  29              	    __asm__ volatile("mv %[arg4], a4" : [arg4]"=r"(*(args + 4)));
 167              		mv a5, a3
 168              	# 0 "" 2
 169              	#NO_APP
 170 0094 233CF4FA 		sd	a5,-72(s0)
 171              		.loc 1 29 5 is_stmt 1
 172              		.loc 1 29 65 is_stmt 0
 173              	#APP
 174              	# 29 "src/riscv.cpp" 1
  30              	    __asm__ volatile("mv %[arg5], a5" : [arg5]"=r"(*(args + 5)));
 175              		mv a5, a4
 176              	# 0 "" 2
 177              	#NO_APP
 178 009c 2330F4FC 		sd	a5,-64(s0)
 179              		.loc 1 30 5 is_stmt 1
 180              		.loc 1 30 65 is_stmt 0
 181              	#APP
 182              	# 30 "src/riscv.cpp" 1
  31              	    __asm__ volatile("mv %[arg6], a6" : [arg6]"=r"(*(args + 6)));
 183              		mv a5, a5
 184              	# 0 "" 2
 185              	#NO_APP
 186 00a4 2334F4FC 		sd	a5,-56(s0)
 187              		.loc 1 31 5 is_stmt 1
 188              		.loc 1 31 65 is_stmt 0
 189              	#APP
 190              	# 31 "src/riscv.cpp" 1
  32              	    __asm__ volatile("mv %[arg7], a7" : [arg7]"=r"(*(args + 7)));
 191              		mv a5, a6
 192              	# 0 "" 2
 193              	#NO_APP
 194 00ac 2338F4FC 		sd	a5,-48(s0)
 195              		.loc 1 32 5 is_stmt 1
 196              		.loc 1 32 65 is_stmt 0
GAS LISTING /tmp/ccCNZIBa.s 			page 8


 197              	#APP
 198              	# 32 "src/riscv.cpp" 1
  33              	
 199              		mv a5, a7
 200              	# 0 "" 2
 201              	#NO_APP
 202 00b4 233CF4FC 		sd	a5,-40(s0)
  34:src/riscv.cpp ****     uint64 scause = r_scause();
 203              		.loc 1 34 5 is_stmt 1
 204              	.LBB125:
 205              	.LBB126:
 100:src/../h/riscv.hpp ****     __asm__ volatile ("csrr %[scause], scause" : [scause] "=r"(scause));
 206              		.loc 2 100 5
 101:src/../h/riscv.hpp ****     return scause;
 207              		.loc 2 101 5
 101:src/../h/riscv.hpp ****     return scause;
 208              		.loc 2 101 72 is_stmt 0
 209              	#APP
 210              	# 101 "src/../h/riscv.hpp" 1
 211              		csrr a5, scause
 212              	# 0 "" 2
 213              	#NO_APP
 214 00bc 233CF4F6 		sd	a5,-136(s0)
 102:src/../h/riscv.hpp **** }
 215              		.loc 2 102 5 is_stmt 1
 102:src/../h/riscv.hpp **** }
 216              		.loc 2 102 12 is_stmt 0
 217 00c0 033784F7 		ld	a4,-136(s0)
 218              	.LVL4:
 219              	.LBE126:
 220              	.LBE125:
  35:src/riscv.cpp **** 
  36:src/riscv.cpp ****     if (scause == 0x8000000000000001UL){
 221              		.loc 1 36 5 is_stmt 1
 222              	.LBB127:
 223 00c4 9307F0FF 		li	a5,-1
 224 00c8 9397F703 		slli	a5,a5,63
 225 00cc 93871700 		addi	a5,a5,1
 226 00d0 630CF702 		beq	a4,a5,.L43
 227              	.LBE127:
  37:src/riscv.cpp ****         mc_sip(SIP_SSIP);
  38:src/riscv.cpp **** 
  39:src/riscv.cpp ****         // interrupt: yes; cause code: supervisor software interrupt (CLINT; machine timer interrup
  40:src/riscv.cpp ****         TCB::time_slice_counter++;
  41:src/riscv.cpp ****         TS::decrement_and_remove();
  42:src/riscv.cpp ****         if (TCB::time_slice_counter >= TCB::running->get_time_slice()) {
  43:src/riscv.cpp ****             uint64 volatile sepc = r_sepc();
  44:src/riscv.cpp ****             uint64 volatile sstatus = r_sstatus();
  45:src/riscv.cpp ****             TCB::time_slice_counter = 0;
  46:src/riscv.cpp ****             TCB::thread_dispatch();
  47:src/riscv.cpp ****             w_sstatus(sstatus);
  48:src/riscv.cpp ****             w_sepc(sepc);
  49:src/riscv.cpp ****         }
  50:src/riscv.cpp **** 
  51:src/riscv.cpp ****     }
  52:src/riscv.cpp ****     else if(scause == 0x0000000000000009UL || scause == 0x0000000000000008UL){
 228              		.loc 1 52 10
GAS LISTING /tmp/ccCNZIBa.s 			page 9


 229              	.LBB200:
 230              	.LBB128:
 231              		.loc 1 52 44 is_stmt 0
 232 00d4 930787FF 		addi	a5,a4,-8
 233              		.loc 1 52 10
 234 00d8 93061000 		li	a3,1
 235 00dc 63F4F60A 		bleu	a5,a3,.L44
 236              	.LBE128:
 237              	.LBE200:
  53:src/riscv.cpp ****         uint64 retVal = 0;
  54:src/riscv.cpp ****         uint64 volatile sepc = r_sepc() + 4;
  55:src/riscv.cpp ****         uint64 volatile sstatus = r_sstatus();
  56:src/riscv.cpp ****             // interrupt: yes; cause code: supervisor software interrupt (CLINT; machine timer inte
  57:src/riscv.cpp ****             switch(*args){
  58:src/riscv.cpp ****                 case 0x01:
  59:src/riscv.cpp ****                     retVal = (uint64)(MemoryAllocator::getInstance().memory_alloc(*(args + 1)));
  60:src/riscv.cpp ****                     break;
  61:src/riscv.cpp ****                 case 0x02:
  62:src/riscv.cpp ****                     retVal = (uint64)(MemoryAllocator::getInstance().memory_free((void*)*(args + 1)
  63:src/riscv.cpp ****                     break;
  64:src/riscv.cpp ****                 case 0x11:
  65:src/riscv.cpp ****                     retVal = (uint64)(TCB::thread_create((TCB**)*(args + 1),
  66:src/riscv.cpp ****                                                          (void(*)(void*))*(args + 2),
  67:src/riscv.cpp ****                                                          (void*)*(args + 3),
  68:src/riscv.cpp ****                                                          (void*)*(args + 4),
  69:src/riscv.cpp ****                                                          (void*)*(args + 6)
  70:src/riscv.cpp ****                                                          ));
  71:src/riscv.cpp ****                     break;
  72:src/riscv.cpp ****                 case 0x12:
  73:src/riscv.cpp ****                     retVal = TCB::thread_exit();
  74:src/riscv.cpp ****                     break;
  75:src/riscv.cpp ****                 case 0x13:
  76:src/riscv.cpp ****                     TCB::thread_dispatch();
  77:src/riscv.cpp ****                     break;
  78:src/riscv.cpp ****                 case 0x21:
  79:src/riscv.cpp ****                     retVal = (uint64)(MySemaphore::sem_open((MySemaphore**)*(args + 1),
  80:src/riscv.cpp ****                                                           (uint64)*(args + 2)
  81:src/riscv.cpp ****                                                           ));
  82:src/riscv.cpp ****                     break;
  83:src/riscv.cpp ****                 case 0x22:
  84:src/riscv.cpp ****                     retVal = (uint64)(MySemaphore::sem_close((MySemaphore*)*(args + 1)));
  85:src/riscv.cpp ****                     break;
  86:src/riscv.cpp ****                 case 0x23:
  87:src/riscv.cpp ****                     retVal = (uint64)(MySemaphore::sem_wait((MySemaphore*)*(args + 1)));
  88:src/riscv.cpp ****                     break;
  89:src/riscv.cpp ****                 case 0x24:
  90:src/riscv.cpp ****                     retVal = (uint64)(MySemaphore::sem_signal((MySemaphore*)*(args + 1)));
  91:src/riscv.cpp ****                     break;
  92:src/riscv.cpp ****                 case 0x31:
  93:src/riscv.cpp ****                     TCB::time_sleep(*(args + 1));
  94:src/riscv.cpp ****                     break;
  95:src/riscv.cpp ****                 case 0x41:
  96:src/riscv.cpp ****                     retVal = Console::getInstance().get_from_input();
  97:src/riscv.cpp ****                     break;
  98:src/riscv.cpp ****                 case 0x42:
  99:src/riscv.cpp ****                     Console::getInstance().put_in_output((char)*(args + 1));
 100:src/riscv.cpp ****                     break;
GAS LISTING /tmp/ccCNZIBa.s 			page 10


 101:src/riscv.cpp ****                 case 0x50:
 102:src/riscv.cpp ****                     Scheduler::getInstance().put((TCB*)*(args + 1));
 103:src/riscv.cpp ****                     break;
 104:src/riscv.cpp ****                 case 0x60:
 105:src/riscv.cpp ****                     Riscv::switch_to_user();
 106:src/riscv.cpp ****                     break;
 107:src/riscv.cpp ****                 case 0x61:
 108:src/riscv.cpp ****                     Riscv::switch_to_priviledged();
 109:src/riscv.cpp ****                     break;
 110:src/riscv.cpp ****                 case 0x70:
 111:src/riscv.cpp ****                     ((TCB*)*(args + 1))->set_periodic(true);
 112:src/riscv.cpp ****                 case 0x111:
 113:src/riscv.cpp ****                     ((TCB*)*(args + 1))->set_finished(true);
 114:src/riscv.cpp ****                 default:
 115:src/riscv.cpp ****                     retVal = 0;
 116:src/riscv.cpp ****                     break;
 117:src/riscv.cpp ****             }
 118:src/riscv.cpp ****             // postavljamo novu povratnu vrednost za a0
 119:src/riscv.cpp ****             __asm__ volatile("mv a0, %[ret]" : : [ret]"r"(retVal));
 120:src/riscv.cpp ****             __asm__ volatile("sd a0, 10 * 8(s0)");
 121:src/riscv.cpp **** 
 122:src/riscv.cpp ****             // pomeramo pc za 4 bajta unapred
 123:src/riscv.cpp ****             w_sepc(sepc);
 124:src/riscv.cpp ****             if(*args != 0x60 && *args != 0x61)
 125:src/riscv.cpp ****                 w_sstatus(sstatus);
 126:src/riscv.cpp ****     }
 127:src/riscv.cpp ****     else if (scause == 0x8000000000000009UL)
 238              		.loc 1 127 10 is_stmt 1
 239              	.LBB201:
 240              	.LBB182:
 241              	.LBB129:
 242 00e0 9307F0FF 		li	a5,-1
 243 00e4 9397F703 		slli	a5,a5,63
 244 00e8 93879700 		addi	a5,a5,9
 245 00ec 6302F73C 		beq	a4,a5,.L45
 246              	.LVL5:
 247              	.L7:
 248              	.LBE129:
 249              	.LBE182:
 250              	.LBE201:
 128:src/riscv.cpp ****     {
 129:src/riscv.cpp ****         int irq = plic_claim();
 130:src/riscv.cpp ****         if(irq == CONSOLE_IRQ){
 131:src/riscv.cpp ****             // interrupt: yes; cause code: supervisor external interrupt (PLIC; could be keyboard)
 132:src/riscv.cpp ****             while(*((char*)CONSOLE_STATUS) & CONSOLE_RX_STATUS_BIT){
 133:src/riscv.cpp ****                 Console::getInstance().put_in_input(*((char*)CONSOLE_RX_DATA));
 134:src/riscv.cpp ****                 if(*((char*)CONSOLE_RX_DATA) == 107){
 135:src/riscv.cpp ****                     TCB* tmp = periodicThread::getInstance().get();
 136:src/riscv.cpp ****                     tmp->set_finished(true);
 137:src/riscv.cpp ****                 }
 138:src/riscv.cpp ****             }
 139:src/riscv.cpp ****         }
 140:src/riscv.cpp ****         plic_complete(irq);
 141:src/riscv.cpp ****     }
 142:src/riscv.cpp ****     else{
 143:src/riscv.cpp ****         // unexpected trap cause
 144:src/riscv.cpp ****         // print scause
GAS LISTING /tmp/ccCNZIBa.s 			page 11


 145:src/riscv.cpp ****         // print sepc
 146:src/riscv.cpp ****         // print stval
 147:src/riscv.cpp ****     }
 148:src/riscv.cpp **** }...
 251              		.loc 1 148 1 is_stmt 0
 252 00f0 8330810A 		ld	ra,168(sp)
 253              		.cfi_remember_state
 254              		.cfi_restore 1
 255 00f4 0334010A 		ld	s0,160(sp)
 256              		.cfi_restore 8
 257              		.cfi_def_cfa 2, 176
 258 00f8 83348109 		ld	s1,152(sp)
 259              		.cfi_restore 9
 260 00fc 03390109 		ld	s2,144(sp)
 261              		.cfi_restore 18
 262 0100 1301010B 		addi	sp,sp,176
 263              		.cfi_def_cfa_offset 0
 264 0104 67800000 		jr	ra
 265              	.LVL6:
 266              	.L43:
 267              		.cfi_restore_state
 268              	.LBB202:
 269              	.LBB183:
  37:src/riscv.cpp ****         mc_sip(SIP_SSIP);
 270              		.loc 1 37 9 is_stmt 1
 271              	.LBB184:
 272              	.LBB185:
 153:src/../h/riscv.hpp **** }
 273              		.loc 2 153 5
 153:src/../h/riscv.hpp **** }
 274              		.loc 2 153 64 is_stmt 0
 275 0108 93072000 		li	a5,2
 276              	#APP
 277              	# 153 "src/../h/riscv.hpp" 1
 278              		csrc sip, a5
 279              	# 0 "" 2
 280              	.LVL7:
 281              	#NO_APP
 282              	.LBE185:
 283              	.LBE184:
  40:src/riscv.cpp ****         TCB::time_slice_counter++;
 284              		.loc 1 40 9 is_stmt 1
  40:src/riscv.cpp ****         TCB::time_slice_counter++;
 285              		.loc 1 40 32 is_stmt 0
 286 0110 97040000 		la	s1,_ZN3TCB18time_slice_counterE
 286      83B40400 
 287 0118 83B70400 		ld	a5,0(s1)
 288 011c 93871700 		addi	a5,a5,1
 289 0120 23B0F400 		sd	a5,0(s1)
  41:src/riscv.cpp ****         TS::decrement_and_remove();
 290              		.loc 1 41 9 is_stmt 1
  41:src/riscv.cpp ****         TS::decrement_and_remove();
 291              		.loc 1 41 33 is_stmt 0
 292 0124 97000000 		call	_ZN2TS20decrement_and_removeEv@plt
 292      E7800000 
 293              	.LVL8:
  42:src/riscv.cpp ****         if (TCB::time_slice_counter >= TCB::running->get_time_slice()) {
GAS LISTING /tmp/ccCNZIBa.s 			page 12


 294              		.loc 1 42 9 is_stmt 1
 295              	.LBB186:
  42:src/riscv.cpp ****         if (TCB::time_slice_counter >= TCB::running->get_time_slice()) {
 296              		.loc 1 42 68 is_stmt 0
 297 012c 97070000 		la	a5,_ZN3TCB7runningE
 297      83B70700 
 298 0134 83B70700 		ld	a5,0(a5)
 299              	.LVL9:
 300              	.LBB187:
 301              	.LBB188:
 302              		.file 3 "src/../h/TCB.hpp"
   1:src/../h/TCB.hpp **** #ifndef _thread_hpp_
   2:src/../h/TCB.hpp **** #define _thread_hpp_
   3:src/../h/TCB.hpp **** 
   4:src/../h/TCB.hpp **** #include "../lib/hw.h"
   5:src/../h/TCB.hpp **** #include "../h/scheduler.hpp"
   6:src/../h/TCB.hpp **** #include "../h/MemoryAllocator.hpp"
   7:src/../h/TCB.hpp **** #include "../h/TS.hpp"
   8:src/../h/TCB.hpp **** #include "../h/periodic_threads.hpp"
   9:src/../h/TCB.hpp **** #include "SlabI.h"
  10:src/../h/TCB.hpp **** 
  11:src/../h/TCB.hpp **** class TCB{
  12:src/../h/TCB.hpp **** public:
  13:src/../h/TCB.hpp ****     using Body = void (*)(void*);
  14:src/../h/TCB.hpp **** 
  15:src/../h/TCB.hpp ****     // trazene
  16:src/../h/TCB.hpp ****     static int thread_create(
  17:src/../h/TCB.hpp ****         TCB** handle,
  18:src/../h/TCB.hpp ****         void(*start_routine)(void*),
  19:src/../h/TCB.hpp ****         void* arg,
  20:src/../h/TCB.hpp ****         void* stack_space,
  21:src/../h/TCB.hpp ****         bool flag
  22:src/../h/TCB.hpp ****     );
  23:src/../h/TCB.hpp **** 
  24:src/../h/TCB.hpp ****     static int thread_exit();
  25:src/../h/TCB.hpp **** 
  26:src/../h/TCB.hpp ****     static void thread_dispatch();
  27:src/../h/TCB.hpp **** 
  28:src/../h/TCB.hpp ****     static int time_sleep(uint64 time);
  29:src/../h/TCB.hpp **** 
  30:src/../h/TCB.hpp ****     uint64 get_thread_id()const{ return id; }
  31:src/../h/TCB.hpp **** 
  32:src/../h/TCB.hpp ****     // getteri i setteri
  33:src/../h/TCB.hpp ****     void set_finished(bool f){ this->finished = f; }
  34:src/../h/TCB.hpp ****     bool is_finished()const{return finished;}
  35:src/../h/TCB.hpp ****     void set_next_scheduler(TCB* nextThread){ next_scheduler = nextThread; }
  36:src/../h/TCB.hpp ****     TCB* get_next_scheduler()const{ return next_scheduler; }
  37:src/../h/TCB.hpp ****     void set_next_sleep(TCB* nextThread){ next_sleep = nextThread; }
  38:src/../h/TCB.hpp ****     TCB* get_next_sleep()const{ return next_sleep; }
  39:src/../h/TCB.hpp ****     void set_next_blocked(TCB* nextThread){ next_blocked = nextThread; }
  40:src/../h/TCB.hpp ****     TCB* get_next_blocked()const{ return next_blocked; }
  41:src/../h/TCB.hpp ****     uint64 get_time_sleep()const{ return sleep; }
  42:src/../h/TCB.hpp ****     void set_time_sleep(uint64 new_time){ sleep = new_time; }
  43:src/../h/TCB.hpp ****     uint64 get_time_slice()const{ return time_slice; }
 303              		.loc 3 43 35 is_stmt 1
 304              		.loc 3 43 42 is_stmt 0
 305 0138 83B70705 		ld	a5,80(a5)
GAS LISTING /tmp/ccCNZIBa.s 			page 13


 306              	.LVL10:
 307              	.LBE188:
 308              	.LBE187:
  42:src/riscv.cpp ****         if (TCB::time_slice_counter >= TCB::running->get_time_slice()) {
 309              		.loc 1 42 37
 310 013c 03B70400 		ld	a4,0(s1)
  42:src/riscv.cpp ****         if (TCB::time_slice_counter >= TCB::running->get_time_slice()) {
 311              		.loc 1 42 9
 312 0140 E368F7FA 		bltu	a4,a5,.L7
 313              	.LBB189:
  43:src/riscv.cpp ****             uint64 volatile sepc = r_sepc();
 314              		.loc 1 43 13 is_stmt 1
 315              	.LBB190:
 316              	.LBB191:
 112:src/../h/riscv.hpp ****     __asm__ volatile ("csrr %[sepc], sepc" : [sepc] "=r"(sepc));
 317              		.loc 2 112 5
 113:src/../h/riscv.hpp ****     return sepc;
 318              		.loc 2 113 5
 113:src/../h/riscv.hpp ****     return sepc;
 319              		.loc 2 113 64 is_stmt 0
 320              	#APP
 321              	# 113 "src/../h/riscv.hpp" 1
 322              		csrr a5, sepc
 323              	# 0 "" 2
 324              	#NO_APP
 325 0148 2334F4F8 		sd	a5,-120(s0)
 114:src/../h/riscv.hpp **** }
 326              		.loc 2 114 5 is_stmt 1
 114:src/../h/riscv.hpp **** }
 327              		.loc 2 114 12 is_stmt 0
 328 014c 833784F8 		ld	a5,-120(s0)
 329              	.LBE191:
 330              	.LBE190:
  43:src/riscv.cpp ****             uint64 volatile sepc = r_sepc();
 331              		.loc 1 43 43
 332 0150 233CF4F4 		sd	a5,-168(s0)
  44:src/riscv.cpp ****             uint64 volatile sstatus = r_sstatus();
 333              		.loc 1 44 13 is_stmt 1
 334              	.LBB192:
 335              	.LBB193:
 177:src/../h/riscv.hpp **** 
 178:src/../h/riscv.hpp **** inline uint64 Riscv::r_sstatus()
 179:src/../h/riscv.hpp **** {
 180:src/../h/riscv.hpp ****     uint64 volatile sstatus;
 336              		.loc 2 180 5
 181:src/../h/riscv.hpp ****     __asm__ volatile ("csrr %[sstatus], sstatus" : [sstatus] "=r"(sstatus));
 337              		.loc 2 181 5
 338              		.loc 2 181 76 is_stmt 0
 339              	#APP
 340              	# 181 "src/../h/riscv.hpp" 1
 182              	    return sstatus;
 341              		csrr a5, sstatus
 342              	# 0 "" 2
 343              	#NO_APP
 344 0158 2330F4F8 		sd	a5,-128(s0)
 345              		.loc 2 182 5 is_stmt 1
 346              		.loc 2 182 12 is_stmt 0
GAS LISTING /tmp/ccCNZIBa.s 			page 14


 347 015c 833704F8 		ld	a5,-128(s0)
 348              	.LBE193:
 349              	.LBE192:
  44:src/riscv.cpp ****             uint64 volatile sstatus = r_sstatus();
 350              		.loc 1 44 49
 351 0160 2330F4F6 		sd	a5,-160(s0)
  45:src/riscv.cpp ****             TCB::time_slice_counter = 0;
 352              		.loc 1 45 13 is_stmt 1
  45:src/riscv.cpp ****             TCB::time_slice_counter = 0;
 353              		.loc 1 45 37 is_stmt 0
 354 0164 23B00400 		sd	zero,0(s1)
  46:src/riscv.cpp ****             TCB::thread_dispatch();
 355              		.loc 1 46 13 is_stmt 1
  46:src/riscv.cpp ****             TCB::thread_dispatch();
 356              		.loc 1 46 33 is_stmt 0
 357 0168 97000000 		call	_ZN3TCB15thread_dispatchEv@plt
 357      E7800000 
 358              	.LVL11:
  47:src/riscv.cpp ****             w_sstatus(sstatus);
 359              		.loc 1 47 13 is_stmt 1
  47:src/riscv.cpp ****             w_sstatus(sstatus);
 360              		.loc 1 47 22 is_stmt 0
 361 0170 833704F6 		ld	a5,-160(s0)
 362              	.LVL12:
 363              	.LBB194:
 364              	.LBB195:
 183:src/../h/riscv.hpp **** }
 184:src/../h/riscv.hpp **** 
 185:src/../h/riscv.hpp **** inline void Riscv::w_sstatus(uint64 sstatus)
 186:src/../h/riscv.hpp **** {
 187:src/../h/riscv.hpp ****     __asm__ volatile ("csrw sstatus, %[sstatus]" : : [sstatus] "r"(sstatus));
 365              		.loc 2 187 5 is_stmt 1
 366              		.loc 2 187 77 is_stmt 0
 367              	#APP
 368              	# 187 "src/../h/riscv.hpp" 1
 188              	}
 369              		csrw sstatus, a5
 370              	# 0 "" 2
 371              	.LVL13:
 372              	#NO_APP
 373              	.LBE195:
 374              	.LBE194:
  48:src/riscv.cpp ****             w_sepc(sepc);
 375              		.loc 1 48 13 is_stmt 1
  48:src/riscv.cpp ****             w_sepc(sepc);
 376              		.loc 1 48 19 is_stmt 0
 377 0178 833784F5 		ld	a5,-168(s0)
 378              	.LVL14:
 379              	.LBB196:
 380              	.LBB197:
 119:src/../h/riscv.hpp **** }
 381              		.loc 2 119 5 is_stmt 1
 119:src/../h/riscv.hpp **** }
 382              		.loc 2 119 65 is_stmt 0
 383              	#APP
 384              	# 119 "src/../h/riscv.hpp" 1
 120:src/../h/riscv.hpp **** 
GAS LISTING /tmp/ccCNZIBa.s 			page 15


 385              		csrw sepc, a5
 386              	# 0 "" 2
 387              		.loc 2 120 1
 388              	#NO_APP
 389 0180 6FF01FF7 		j	.L7
 390              	.LVL15:
 391              	.L44:
 392              	.LBE197:
 393              	.LBE196:
 394              	.LBE189:
 395              	.LBE186:
 396              	.LBE183:
 397              	.LBB198:
 398              	.LBB147:
  53:src/riscv.cpp ****         uint64 retVal = 0;
 399              		.loc 1 53 9 is_stmt 1
  54:src/riscv.cpp ****         uint64 volatile sepc = r_sepc() + 4;
 400              		.loc 1 54 9
 401              	.LBB148:
 402              	.LBB149:
 112:src/../h/riscv.hpp ****     __asm__ volatile ("csrr %[sepc], sepc" : [sepc] "=r"(sepc));
 403              		.loc 2 112 5
 113:src/../h/riscv.hpp ****     return sepc;
 404              		.loc 2 113 5
 113:src/../h/riscv.hpp ****     return sepc;
 405              		.loc 2 113 64 is_stmt 0
 406              	#APP
 407              	# 113 "src/../h/riscv.hpp" 1
 408              		csrr a5, sepc
 409              	# 0 "" 2
 410              	#NO_APP
 411 0188 233CF4F8 		sd	a5,-104(s0)
 114:src/../h/riscv.hpp **** }
 412              		.loc 2 114 5 is_stmt 1
 114:src/../h/riscv.hpp **** }
 413              		.loc 2 114 12 is_stmt 0
 414 018c 833784F9 		ld	a5,-104(s0)
 415              	.LBE149:
 416              	.LBE148:
  54:src/riscv.cpp ****         uint64 volatile sepc = r_sepc() + 4;
 417              		.loc 1 54 41
 418 0190 93874700 		addi	a5,a5,4
  54:src/riscv.cpp ****         uint64 volatile sepc = r_sepc() + 4;
 419              		.loc 1 54 43
 420 0194 2334F4F6 		sd	a5,-152(s0)
  55:src/riscv.cpp ****         uint64 volatile sstatus = r_sstatus();
 421              		.loc 1 55 9 is_stmt 1
 422              	.LBB150:
 423              	.LBB151:
 180:src/../h/riscv.hpp ****     __asm__ volatile ("csrr %[sstatus], sstatus" : [sstatus] "=r"(sstatus));
 424              		.loc 2 180 5
 181:src/../h/riscv.hpp ****     return sstatus;
 425              		.loc 2 181 5
 181:src/../h/riscv.hpp ****     return sstatus;
 426              		.loc 2 181 76 is_stmt 0
 427              	#APP
 428              	# 181 "src/../h/riscv.hpp" 1
GAS LISTING /tmp/ccCNZIBa.s 			page 16


 429              		csrr a5, sstatus
 430              	# 0 "" 2
 431              	#NO_APP
 432 019c 2338F4F8 		sd	a5,-112(s0)
 182:src/../h/riscv.hpp **** }
 433              		.loc 2 182 5 is_stmt 1
 182:src/../h/riscv.hpp **** }
 434              		.loc 2 182 12 is_stmt 0
 435 01a0 833704F9 		ld	a5,-112(s0)
 436              	.LBE151:
 437              	.LBE150:
  55:src/riscv.cpp ****         uint64 volatile sstatus = r_sstatus();
 438              		.loc 1 55 45
 439 01a4 2338F4F6 		sd	a5,-144(s0)
  57:src/riscv.cpp ****             switch(*args){
 440              		.loc 1 57 13 is_stmt 1
  57:src/riscv.cpp ****             switch(*args){
 441              		.loc 1 57 20 is_stmt 0
 442 01a8 833704FA 		ld	a5,-96(s0)
  57:src/riscv.cpp ****             switch(*args){
 443              		.loc 1 57 13
 444 01ac 13070007 		li	a4,112
 445              	.LVL16:
 446 01b0 6364F702 		bgtu	a5,a4,.L11
 447 01b4 6386072E 		beqz	a5,.L40
 448 01b8 6368F72E 		bgtu	a5,a4,.L41
 449 01bc 93972700 		slli	a5,a5,2
 450 01c0 17070000 		lla	a4,.L14
 450      13070700 
 451 01c8 B387E700 		add	a5,a5,a4
 452 01cc 83A70700 		lw	a5,0(a5)
 453 01d0 B387E700 		add	a5,a5,a4
 454 01d4 67800700 		jr	a5
 455              		.section	.rodata
 456              		.align	2
 457              		.align	2
 458              	.L14:
 459 0000 00000000 		.word	.L41-.L14
 460 0004 00000000 		.word	.L29-.L14
 461 0008 00000000 		.word	.L28-.L14
 462 000c 00000000 		.word	.L41-.L14
 463 0010 00000000 		.word	.L41-.L14
 464 0014 00000000 		.word	.L41-.L14
 465 0018 00000000 		.word	.L41-.L14
 466 001c 00000000 		.word	.L41-.L14
 467 0020 00000000 		.word	.L41-.L14
 468 0024 00000000 		.word	.L41-.L14
 469 0028 00000000 		.word	.L41-.L14
 470 002c 00000000 		.word	.L41-.L14
 471 0030 00000000 		.word	.L41-.L14
 472 0034 00000000 		.word	.L41-.L14
 473 0038 00000000 		.word	.L41-.L14
 474 003c 00000000 		.word	.L41-.L14
 475 0040 00000000 		.word	.L41-.L14
 476 0044 00000000 		.word	.L27-.L14
 477 0048 00000000 		.word	.L26-.L14
 478 004c 00000000 		.word	.L25-.L14
GAS LISTING /tmp/ccCNZIBa.s 			page 17


 479 0050 00000000 		.word	.L41-.L14
 480 0054 00000000 		.word	.L41-.L14
 481 0058 00000000 		.word	.L41-.L14
 482 005c 00000000 		.word	.L41-.L14
 483 0060 00000000 		.word	.L41-.L14
 484 0064 00000000 		.word	.L41-.L14
 485 0068 00000000 		.word	.L41-.L14
 486 006c 00000000 		.word	.L41-.L14
 487 0070 00000000 		.word	.L41-.L14
 488 0074 00000000 		.word	.L41-.L14
 489 0078 00000000 		.word	.L41-.L14
 490 007c 00000000 		.word	.L41-.L14
 491 0080 00000000 		.word	.L41-.L14
 492 0084 00000000 		.word	.L24-.L14
 493 0088 00000000 		.word	.L23-.L14
 494 008c 00000000 		.word	.L22-.L14
 495 0090 00000000 		.word	.L21-.L14
 496 0094 00000000 		.word	.L41-.L14
 497 0098 00000000 		.word	.L41-.L14
 498 009c 00000000 		.word	.L41-.L14
 499 00a0 00000000 		.word	.L41-.L14
 500 00a4 00000000 		.word	.L41-.L14
 501 00a8 00000000 		.word	.L41-.L14
 502 00ac 00000000 		.word	.L41-.L14
 503 00b0 00000000 		.word	.L41-.L14
 504 00b4 00000000 		.word	.L41-.L14
 505 00b8 00000000 		.word	.L41-.L14
 506 00bc 00000000 		.word	.L41-.L14
 507 00c0 00000000 		.word	.L41-.L14
 508 00c4 00000000 		.word	.L20-.L14
 509 00c8 00000000 		.word	.L41-.L14
 510 00cc 00000000 		.word	.L41-.L14
 511 00d0 00000000 		.word	.L41-.L14
 512 00d4 00000000 		.word	.L41-.L14
 513 00d8 00000000 		.word	.L41-.L14
 514 00dc 00000000 		.word	.L41-.L14
 515 00e0 00000000 		.word	.L41-.L14
 516 00e4 00000000 		.word	.L41-.L14
 517 00e8 00000000 		.word	.L41-.L14
 518 00ec 00000000 		.word	.L41-.L14
 519 00f0 00000000 		.word	.L41-.L14
 520 00f4 00000000 		.word	.L41-.L14
 521 00f8 00000000 		.word	.L41-.L14
 522 00fc 00000000 		.word	.L41-.L14
 523 0100 00000000 		.word	.L41-.L14
 524 0104 00000000 		.word	.L19-.L14
 525 0108 00000000 		.word	.L18-.L14
 526 010c 00000000 		.word	.L41-.L14
 527 0110 00000000 		.word	.L41-.L14
 528 0114 00000000 		.word	.L41-.L14
 529 0118 00000000 		.word	.L41-.L14
 530 011c 00000000 		.word	.L41-.L14
 531 0120 00000000 		.word	.L41-.L14
 532 0124 00000000 		.word	.L41-.L14
 533 0128 00000000 		.word	.L41-.L14
 534 012c 00000000 		.word	.L41-.L14
 535 0130 00000000 		.word	.L41-.L14
GAS LISTING /tmp/ccCNZIBa.s 			page 18


 536 0134 00000000 		.word	.L41-.L14
 537 0138 00000000 		.word	.L41-.L14
 538 013c 00000000 		.word	.L41-.L14
 539 0140 00000000 		.word	.L17-.L14
 540 0144 00000000 		.word	.L41-.L14
 541 0148 00000000 		.word	.L41-.L14
 542 014c 00000000 		.word	.L41-.L14
 543 0150 00000000 		.word	.L41-.L14
 544 0154 00000000 		.word	.L41-.L14
 545 0158 00000000 		.word	.L41-.L14
 546 015c 00000000 		.word	.L41-.L14
 547 0160 00000000 		.word	.L41-.L14
 548 0164 00000000 		.word	.L41-.L14
 549 0168 00000000 		.word	.L41-.L14
 550 016c 00000000 		.word	.L41-.L14
 551 0170 00000000 		.word	.L41-.L14
 552 0174 00000000 		.word	.L41-.L14
 553 0178 00000000 		.word	.L41-.L14
 554 017c 00000000 		.word	.L41-.L14
 555 0180 00000000 		.word	.L16-.L14
 556 0184 00000000 		.word	.L15-.L14
 557 0188 00000000 		.word	.L41-.L14
 558 018c 00000000 		.word	.L41-.L14
 559 0190 00000000 		.word	.L41-.L14
 560 0194 00000000 		.word	.L41-.L14
 561 0198 00000000 		.word	.L41-.L14
 562 019c 00000000 		.word	.L41-.L14
 563 01a0 00000000 		.word	.L41-.L14
 564 01a4 00000000 		.word	.L41-.L14
 565 01a8 00000000 		.word	.L41-.L14
 566 01ac 00000000 		.word	.L41-.L14
 567 01b0 00000000 		.word	.L41-.L14
 568 01b4 00000000 		.word	.L41-.L14
 569 01b8 00000000 		.word	.L41-.L14
 570 01bc 00000000 		.word	.L41-.L14
 571 01c0 00000000 		.word	.L13-.L14
 572              		.text
 573              	.L11:
 574 01d8 13071011 		li	a4,273
 575 01dc 639CE700 		bne	a5,a4,.L46
 576              	.L30:
 112:src/riscv.cpp ****                 case 0x111:
 577              		.loc 1 112 17 is_stmt 1
 113:src/riscv.cpp ****                     ((TCB*)*(args + 1))->set_finished(true);
 578              		.loc 1 113 21
 579              	.LVL17:
 580              	.LBB152:
 581              	.LBB153:
  33:src/../h/TCB.hpp ****     bool is_finished()const{return finished;}
 582              		.loc 3 33 32
  33:src/../h/TCB.hpp ****     bool is_finished()const{return finished;}
 583              		.loc 3 33 47 is_stmt 0
 584 01e0 833784FA 		ld	a5,-88(s0)
 585 01e4 13071000 		li	a4,1
 586 01e8 2384E702 		sb	a4,40(a5)
 587              	.LBE153:
 588              	.LBE152:
GAS LISTING /tmp/ccCNZIBa.s 			page 19


 115:src/riscv.cpp ****                     retVal = 0;
 589              		.loc 1 115 28
 590 01ec 13050000 		li	a0,0
 591              	.LBB155:
 592              	.LBB154:
  33:src/../h/TCB.hpp ****     bool is_finished()const{return finished;}
 593              		.loc 3 33 52
 594 01f0 6F008000 		j	.L12
 595              	.LVL18:
 596              	.L46:
 597              	.LBE154:
 598              	.LBE155:
  57:src/riscv.cpp ****             switch(*args){
 599              		.loc 1 57 13
 600 01f4 13050000 		li	a0,0
 601              	.LVL19:
 602              	.L12:
 119:src/riscv.cpp ****             __asm__ volatile("mv a0, %[ret]" : : [ret]"r"(retVal));
 603              		.loc 1 119 13 is_stmt 1
 119:src/riscv.cpp ****             __asm__ volatile("mv a0, %[ret]" : : [ret]"r"(retVal));
 604              		.loc 1 119 67 is_stmt 0
 605              	#APP
 606              	# 119 "src/riscv.cpp" 1
 120:src/riscv.cpp ****             __asm__ volatile("sd a0, 10 * 8(s0)");
 607              		mv a0, a0
 608              	# 0 "" 2
 609              		.loc 1 120 13 is_stmt 1
 120:src/riscv.cpp ****             __asm__ volatile("sd a0, 10 * 8(s0)");
 610              		.loc 1 120 50 is_stmt 0
 611              	# 120 "src/riscv.cpp" 1
 123:src/riscv.cpp ****             w_sepc(sepc);
 612              		sd a0, 10 * 8(s0)
 613              	# 0 "" 2
 614              		.loc 1 123 13 is_stmt 1
 123:src/riscv.cpp ****             w_sepc(sepc);
 615              		.loc 1 123 19 is_stmt 0
 616              	#NO_APP
 617 0200 833784F6 		ld	a5,-152(s0)
 618              	.LVL20:
 619              	.LBB156:
 620              	.LBB157:
 119:src/../h/riscv.hpp **** }
 621              		.loc 2 119 5 is_stmt 1
 119:src/../h/riscv.hpp **** }
 622              		.loc 2 119 65 is_stmt 0
 623              	#APP
 624              	# 119 "src/../h/riscv.hpp" 1
 625              		csrw sepc, a5
 626              	# 0 "" 2
 627              	.LVL21:
 628              	#NO_APP
 629              	.LBE157:
 630              	.LBE156:
 124:src/riscv.cpp ****             if(*args != 0x60 && *args != 0x61)
 631              		.loc 1 124 13 is_stmt 1
 124:src/riscv.cpp ****             if(*args != 0x60 && *args != 0x61)
 632              		.loc 1 124 16 is_stmt 0
GAS LISTING /tmp/ccCNZIBa.s 			page 20


 633 0208 833704FA 		ld	a5,-96(s0)
 124:src/riscv.cpp ****             if(*args != 0x60 && *args != 0x61)
 634              		.loc 1 124 30
 635 020c 938707FA 		addi	a5,a5,-96
 124:src/riscv.cpp ****             if(*args != 0x60 && *args != 0x61)
 636              		.loc 1 124 13
 637 0210 13071000 		li	a4,1
 638 0214 E37EF7EC 		bleu	a5,a4,.L7
 125:src/riscv.cpp ****                 w_sstatus(sstatus);
 639              		.loc 1 125 17 is_stmt 1
 125:src/riscv.cpp ****                 w_sstatus(sstatus);
 640              		.loc 1 125 26 is_stmt 0
 641 0218 833704F7 		ld	a5,-144(s0)
 642              	.LVL22:
 643              	.LBB158:
 644              	.LBB159:
 187:src/../h/riscv.hpp **** }
 645              		.loc 2 187 5 is_stmt 1
 187:src/../h/riscv.hpp **** }
 646              		.loc 2 187 77 is_stmt 0
 647              	#APP
 648              	# 187 "src/../h/riscv.hpp" 1
 649              		csrw sstatus, a5
 650              	# 0 "" 2
 651              		.loc 2 188 1
 652              	#NO_APP
 653 0220 6FF01FED 		j	.L7
 654              	.LVL23:
 655              	.L29:
 656              	.LBE159:
 657              	.LBE158:
  58:src/riscv.cpp ****                 case 0x01:
 658              		.loc 1 58 17 is_stmt 1
  59:src/riscv.cpp ****                     retVal = (uint64)(MemoryAllocator::getInstance().memory_alloc(*(args + 1)));
 659              		.loc 1 59 21
 660              	.LBB160:
 661              	.LBB161:
 662              		.file 4 "src/../h/MemoryAllocator.hpp"
   1:src/../h/MemoryAllocator.hpp **** #ifndef _memory_allocator_hpp_
   2:src/../h/MemoryAllocator.hpp **** #define _memory_allocator_hpp_
   3:src/../h/MemoryAllocator.hpp **** 
   4:src/../h/MemoryAllocator.hpp **** #include "../lib/hw.h"
   5:src/../h/MemoryAllocator.hpp **** 
   6:src/../h/MemoryAllocator.hpp **** class MemoryAllocator{
   7:src/../h/MemoryAllocator.hpp **** public:
   8:src/../h/MemoryAllocator.hpp **** 
   9:src/../h/MemoryAllocator.hpp ****     // dodaj instancu
  10:src/../h/MemoryAllocator.hpp ****     static MemoryAllocator& getInstance(){
  11:src/../h/MemoryAllocator.hpp ****         static MemoryAllocator instance;
 663              		.loc 4 11 9
 664              		.loc 4 11 32 is_stmt 0
 665 0224 97070000 		lbu	a5,_ZGVZN15MemoryAllocator11getInstanceEvE8instance
 665      83C70700 
 666 022c 638E0700 		beqz	a5,.L47
 667              	.L31:
  12:src/../h/MemoryAllocator.hpp ****         return instance;
 668              		.loc 4 12 9 is_stmt 1
GAS LISTING /tmp/ccCNZIBa.s 			page 21


 669              	.LBE161:
 670              	.LBE160:
  59:src/riscv.cpp ****                     retVal = (uint64)(MemoryAllocator::getInstance().memory_alloc(*(args + 1)));
 671              		.loc 1 59 82 is_stmt 0
 672 0230 833584FA 		ld	a1,-88(s0)
 673 0234 17050000 		lla	a0,_ZZN15MemoryAllocator11getInstanceEvE8instance
 673      13050500 
 674 023c 97000000 		call	_ZN15MemoryAllocator12memory_allocEm@plt
 674      E7800000 
 675              	.LVL24:
  60:src/riscv.cpp ****                     break;
 676              		.loc 1 60 21 is_stmt 1
 677 0244 6FF05FFB 		j	.L12
 678              	.LVL25:
 679              	.L47:
 680              	.LBB167:
 681              	.LBB166:
 682              	.LBB162:
 683              	.LBB163:
 684              	.LBB164:
  13:src/../h/MemoryAllocator.hpp ****     }
  14:src/../h/MemoryAllocator.hpp **** 
  15:src/../h/MemoryAllocator.hpp ****     MemoryAllocator(const MemoryAllocator&) = delete;
  16:src/../h/MemoryAllocator.hpp ****     void operator=(MemoryAllocator const&) = delete;
  17:src/../h/MemoryAllocator.hpp **** 
  18:src/../h/MemoryAllocator.hpp ****     void* memory_alloc (size_t);
  19:src/../h/MemoryAllocator.hpp **** 
  20:src/../h/MemoryAllocator.hpp ****     int memory_free (void*);
  21:src/../h/MemoryAllocator.hpp ****     int get_mem_alloc_heap_start(){return this->heapStart;}
  22:src/../h/MemoryAllocator.hpp ****     int get_mem_alloc_heap_end(){return this->heapEnd;}
  23:src/../h/MemoryAllocator.hpp **** 
  24:src/../h/MemoryAllocator.hpp **** private:
  25:src/../h/MemoryAllocator.hpp **** 
  26:src/../h/MemoryAllocator.hpp ****     struct FreeMem{
  27:src/../h/MemoryAllocator.hpp ****         size_t size;
  28:src/../h/MemoryAllocator.hpp ****         FreeMem* next;
  29:src/../h/MemoryAllocator.hpp ****         FreeMem* prev;
  30:src/../h/MemoryAllocator.hpp ****     };
  31:src/../h/MemoryAllocator.hpp **** 
  32:src/../h/MemoryAllocator.hpp ****     FreeMem* fmem_head = nullptr;
  33:src/../h/MemoryAllocator.hpp ****     size_t heapStart;
  34:src/../h/MemoryAllocator.hpp ****     size_t heapEnd;
  35:src/../h/MemoryAllocator.hpp **** 
  36:src/../h/MemoryAllocator.hpp ****     MemoryAllocator(){
 685              		.loc 4 36 22 is_stmt 0
 686 0248 17060000 		lla	a2,_ZZN15MemoryAllocator11getInstanceEvE8instance
 686      13060600 
 687              	.LBB165:
  37:src/../h/MemoryAllocator.hpp **** 
  38:src/../h/MemoryAllocator.hpp ****         heapStart = (size_t)HEAP_START_ADDR + ((size_t)HEAP_END_ADDR - (size_t)HEAP_START_ADDR) / 8
 688              		.loc 4 38 9 is_stmt 1
 689              		.loc 4 38 70 is_stmt 0
 690 0250 97070000 		la	a5,HEAP_END_ADDR
 690      83B70700 
 691 0258 03B70700 		ld	a4,0(a5)
 692 025c 97070000 		la	a5,HEAP_START_ADDR
 692      83B70700 
GAS LISTING /tmp/ccCNZIBa.s 			page 22


 693 0264 83B70700 		ld	a5,0(a5)
 694 0268 B306F740 		sub	a3,a4,a5
 695              		.loc 4 38 97
 696 026c 93D63600 		srli	a3,a3,3
 697              		.loc 4 38 45
 698 0270 B387D700 		add	a5,a5,a3
 699              		.loc 4 38 101
 700 0274 93871700 		addi	a5,a5,1
 701              		.loc 4 38 19
 702 0278 2334F600 		sd	a5,8(a2)
  39:src/../h/MemoryAllocator.hpp ****         heapEnd = (size_t)HEAP_END_ADDR - 1;
 703              		.loc 4 39 9 is_stmt 1
 704              		.loc 4 39 41 is_stmt 0
 705 027c 1307F7FF 		addi	a4,a4,-1
 706              		.loc 4 39 17
 707 0280 2338E600 		sd	a4,16(a2)
  40:src/../h/MemoryAllocator.hpp **** 
  41:src/../h/MemoryAllocator.hpp ****         // poravnaj na prvu krstenu adresu
  42:src/../h/MemoryAllocator.hpp ****         fmem_head = (FreeMem*)(heapStart + ((heapStart % MEM_BLOCK_SIZE != 0)?(MEM_BLOCK_SIZE - hea
 708              		.loc 4 42 9 is_stmt 1
 709              		.loc 4 42 56 is_stmt 0
 710 0284 93F6F703 		andi	a3,a5,63
 711              		.loc 4 42 78
 712 0288 63860600 		beqz	a3,.L32
 713 028c 13060004 		li	a2,64
 714 0290 B306D640 		sub	a3,a2,a3
 715              	.L32:
 716              		.loc 4 42 42
 717 0294 B387D700 		add	a5,a5,a3
 718              		.loc 4 42 19
 719 0298 97060000 		sd	a5,_ZZN15MemoryAllocator11getInstanceEvE8instance,a3
 719      23B0F600 
  43:src/../h/MemoryAllocator.hpp **** 
  44:src/../h/MemoryAllocator.hpp ****         size_t sizeInBlocks = (heapEnd - (size_t)fmem_head) / MEM_BLOCK_SIZE;
 720              		.loc 4 44 9 is_stmt 1
 721              		.loc 4 44 40 is_stmt 0
 722 02a0 3307F740 		sub	a4,a4,a5
 723              		.loc 4 44 16
 724 02a4 13576700 		srli	a4,a4,6
 725              	.LVL26:
  45:src/../h/MemoryAllocator.hpp **** 
  46:src/../h/MemoryAllocator.hpp ****         // napravi node
  47:src/../h/MemoryAllocator.hpp **** 
  48:src/../h/MemoryAllocator.hpp ****         fmem_head->next = nullptr;
 726              		.loc 4 48 9 is_stmt 1
 727              		.loc 4 48 25 is_stmt 0
 728 02a8 23B40700 		sd	zero,8(a5)
  49:src/../h/MemoryAllocator.hpp ****         fmem_head->prev = nullptr;
 729              		.loc 4 49 9 is_stmt 1
 730              		.loc 4 49 25 is_stmt 0
 731 02ac 23B80700 		sd	zero,16(a5)
  50:src/../h/MemoryAllocator.hpp ****         fmem_head->size = sizeInBlocks;
 732              		.loc 4 50 9 is_stmt 1
 733              		.loc 4 50 25 is_stmt 0
 734 02b0 23B0E700 		sd	a4,0(a5)
 735              	.LVL27:
 736              	.LBE165:
GAS LISTING /tmp/ccCNZIBa.s 			page 23


 737              	.LBE164:
 738              	.LBE163:
 739              	.LBE162:
  11:src/../h/MemoryAllocator.hpp ****         return instance;
 740              		.loc 4 11 32
 741 02b4 93071000 		li	a5,1
 742 02b8 17070000 		sb	a5,_ZGVZN15MemoryAllocator11getInstanceEvE8instance,a4
 742      2300F700 
 743 02c0 6FF01FF7 		j	.L31
 744              	.L28:
 745              	.LBE166:
 746              	.LBE167:
  61:src/riscv.cpp ****                 case 0x02:
 747              		.loc 1 61 17 is_stmt 1
  62:src/riscv.cpp ****                     retVal = (uint64)(MemoryAllocator::getInstance().memory_free((void*)*(args + 1)
 748              		.loc 1 62 21
 749              	.LBB168:
 750              	.LBB169:
  11:src/../h/MemoryAllocator.hpp ****         return instance;
 751              		.loc 4 11 9
  11:src/../h/MemoryAllocator.hpp ****         return instance;
 752              		.loc 4 11 32 is_stmt 0
 753 02c4 97070000 		lbu	a5,_ZGVZN15MemoryAllocator11getInstanceEvE8instance
 753      83C70700 
 754 02cc 638E0700 		beqz	a5,.L48
 755              	.L33:
  12:src/../h/MemoryAllocator.hpp ****     }
 756              		.loc 4 12 9 is_stmt 1
 757              	.LBE169:
 758              	.LBE168:
  62:src/riscv.cpp ****                     retVal = (uint64)(MemoryAllocator::getInstance().memory_free((void*)*(args + 1)
 759              		.loc 1 62 81 is_stmt 0
 760 02d0 833584FA 		ld	a1,-88(s0)
 761 02d4 17050000 		lla	a0,_ZZN15MemoryAllocator11getInstanceEvE8instance
 761      13050500 
 762 02dc 97000000 		call	_ZN15MemoryAllocator11memory_freeEPv@plt
 762      E7800000 
 763              	.LVL28:
  63:src/riscv.cpp ****                     break;
 764              		.loc 1 63 21 is_stmt 1
 765 02e4 6FF05FF1 		j	.L12
 766              	.LVL29:
 767              	.L48:
 768              	.LBB175:
 769              	.LBB174:
 770              	.LBB170:
 771              	.LBB171:
 772              	.LBB172:
  36:src/../h/MemoryAllocator.hpp **** 
 773              		.loc 4 36 22 is_stmt 0
 774 02e8 17060000 		lla	a2,_ZZN15MemoryAllocator11getInstanceEvE8instance
 774      13060600 
 775              	.LBB173:
  38:src/../h/MemoryAllocator.hpp ****         heapEnd = (size_t)HEAP_END_ADDR - 1;
 776              		.loc 4 38 9 is_stmt 1
  38:src/../h/MemoryAllocator.hpp ****         heapEnd = (size_t)HEAP_END_ADDR - 1;
 777              		.loc 4 38 70 is_stmt 0
GAS LISTING /tmp/ccCNZIBa.s 			page 24


 778 02f0 97070000 		la	a5,HEAP_END_ADDR
 778      83B70700 
 779 02f8 03B70700 		ld	a4,0(a5)
 780 02fc 97070000 		la	a5,HEAP_START_ADDR
 780      83B70700 
 781 0304 83B70700 		ld	a5,0(a5)
 782 0308 B306F740 		sub	a3,a4,a5
  38:src/../h/MemoryAllocator.hpp ****         heapEnd = (size_t)HEAP_END_ADDR - 1;
 783              		.loc 4 38 97
 784 030c 93D63600 		srli	a3,a3,3
  38:src/../h/MemoryAllocator.hpp ****         heapEnd = (size_t)HEAP_END_ADDR - 1;
 785              		.loc 4 38 45
 786 0310 B387D700 		add	a5,a5,a3
  38:src/../h/MemoryAllocator.hpp ****         heapEnd = (size_t)HEAP_END_ADDR - 1;
 787              		.loc 4 38 101
 788 0314 93871700 		addi	a5,a5,1
  38:src/../h/MemoryAllocator.hpp ****         heapEnd = (size_t)HEAP_END_ADDR - 1;
 789              		.loc 4 38 19
 790 0318 2334F600 		sd	a5,8(a2)
  39:src/../h/MemoryAllocator.hpp **** 
 791              		.loc 4 39 9 is_stmt 1
  39:src/../h/MemoryAllocator.hpp **** 
 792              		.loc 4 39 41 is_stmt 0
 793 031c 1307F7FF 		addi	a4,a4,-1
  39:src/../h/MemoryAllocator.hpp **** 
 794              		.loc 4 39 17
 795 0320 2338E600 		sd	a4,16(a2)
  42:src/../h/MemoryAllocator.hpp **** 
 796              		.loc 4 42 9 is_stmt 1
  42:src/../h/MemoryAllocator.hpp **** 
 797              		.loc 4 42 56 is_stmt 0
 798 0324 93F6F703 		andi	a3,a5,63
  42:src/../h/MemoryAllocator.hpp **** 
 799              		.loc 4 42 78
 800 0328 63860600 		beqz	a3,.L34
 801 032c 13060004 		li	a2,64
 802 0330 B306D640 		sub	a3,a2,a3
 803              	.L34:
  42:src/../h/MemoryAllocator.hpp **** 
 804              		.loc 4 42 42
 805 0334 B387D700 		add	a5,a5,a3
  42:src/../h/MemoryAllocator.hpp **** 
 806              		.loc 4 42 19
 807 0338 97060000 		sd	a5,_ZZN15MemoryAllocator11getInstanceEvE8instance,a3
 807      23B0F600 
  44:src/../h/MemoryAllocator.hpp **** 
 808              		.loc 4 44 9 is_stmt 1
  44:src/../h/MemoryAllocator.hpp **** 
 809              		.loc 4 44 40 is_stmt 0
 810 0340 3307F740 		sub	a4,a4,a5
  44:src/../h/MemoryAllocator.hpp **** 
 811              		.loc 4 44 16
 812 0344 13576700 		srli	a4,a4,6
 813              	.LVL30:
  48:src/../h/MemoryAllocator.hpp ****         fmem_head->prev = nullptr;
 814              		.loc 4 48 9 is_stmt 1
  48:src/../h/MemoryAllocator.hpp ****         fmem_head->prev = nullptr;
GAS LISTING /tmp/ccCNZIBa.s 			page 25


 815              		.loc 4 48 25 is_stmt 0
 816 0348 23B40700 		sd	zero,8(a5)
  49:src/../h/MemoryAllocator.hpp ****         fmem_head->size = sizeInBlocks;
 817              		.loc 4 49 9 is_stmt 1
  49:src/../h/MemoryAllocator.hpp ****         fmem_head->size = sizeInBlocks;
 818              		.loc 4 49 25 is_stmt 0
 819 034c 23B80700 		sd	zero,16(a5)
 820              		.loc 4 50 9 is_stmt 1
 821              		.loc 4 50 25 is_stmt 0
 822 0350 23B0E700 		sd	a4,0(a5)
 823              	.LVL31:
 824              	.LBE173:
 825              	.LBE172:
 826              	.LBE171:
 827              	.LBE170:
  11:src/../h/MemoryAllocator.hpp ****         return instance;
 828              		.loc 4 11 32
 829 0354 93071000 		li	a5,1
 830 0358 17070000 		sb	a5,_ZGVZN15MemoryAllocator11getInstanceEvE8instance,a4
 830      2300F700 
 831 0360 6FF01FF7 		j	.L33
 832              	.L27:
 833              	.LBE174:
 834              	.LBE175:
  64:src/riscv.cpp ****                 case 0x11:
 835              		.loc 1 64 17 is_stmt 1
  65:src/riscv.cpp ****                     retVal = (uint64)(TCB::thread_create((TCB**)*(args + 1),
 836              		.loc 1 65 21
  65:src/riscv.cpp ****                     retVal = (uint64)(TCB::thread_create((TCB**)*(args + 1),
 837              		.loc 1 65 57 is_stmt 0
 838 0364 033704FD 		ld	a4,-48(s0)
 839 0368 3337E000 		snez	a4,a4
 840 036c 833604FC 		ld	a3,-64(s0)
 841 0370 033684FB 		ld	a2,-72(s0)
 842 0374 833504FB 		ld	a1,-80(s0)
 843 0378 033584FA 		ld	a0,-88(s0)
 844 037c 97000000 		call	_ZN3TCB13thread_createEPPS_PFvPvES2_S2_b@plt
 844      E7800000 
 845              	.LVL32:
  71:src/riscv.cpp ****                     break;
 846              		.loc 1 71 21 is_stmt 1
 847 0384 6FF05FE7 		j	.L12
 848              	.LVL33:
 849              	.L26:
  72:src/riscv.cpp ****                 case 0x12:
 850              		.loc 1 72 17
  73:src/riscv.cpp ****                     retVal = TCB::thread_exit();
 851              		.loc 1 73 21
  73:src/riscv.cpp ****                     retVal = TCB::thread_exit();
 852              		.loc 1 73 46 is_stmt 0
 853 0388 97000000 		call	_ZN3TCB11thread_exitEv@plt
 853      E7800000 
 854              	.LVL34:
  74:src/riscv.cpp ****                     break;
 855              		.loc 1 74 21 is_stmt 1
 856 0390 6FF09FE6 		j	.L12
 857              	.LVL35:
GAS LISTING /tmp/ccCNZIBa.s 			page 26


 858              	.L25:
  75:src/riscv.cpp ****                 case 0x13:
 859              		.loc 1 75 17
  76:src/riscv.cpp ****                     TCB::thread_dispatch();
 860              		.loc 1 76 21
  76:src/riscv.cpp ****                     TCB::thread_dispatch();
 861              		.loc 1 76 41 is_stmt 0
 862 0394 97000000 		call	_ZN3TCB15thread_dispatchEv@plt
 862      E7800000 
 863              	.LVL36:
  53:src/riscv.cpp ****         uint64 retVal = 0;
 864              		.loc 1 53 16
 865 039c 13050000 		li	a0,0
 866 03a0 6FF09FE5 		j	.L12
 867              	.L24:
  78:src/riscv.cpp ****                 case 0x21:
 868              		.loc 1 78 17 is_stmt 1
  79:src/riscv.cpp ****                     retVal = (uint64)(MySemaphore::sem_open((MySemaphore**)*(args + 1),
 869              		.loc 1 79 21
  79:src/riscv.cpp ****                     retVal = (uint64)(MySemaphore::sem_open((MySemaphore**)*(args + 1),
 870              		.loc 1 79 60 is_stmt 0
 871 03a4 833504FB 		ld	a1,-80(s0)
 872 03a8 033584FA 		ld	a0,-88(s0)
 873 03ac 97000000 		call	_ZN11MySemaphore8sem_openEPPS_m@plt
 873      E7800000 
 874              	.LVL37:
  82:src/riscv.cpp ****                     break;
 875              		.loc 1 82 21 is_stmt 1
 876 03b4 6FF05FE4 		j	.L12
 877              	.LVL38:
 878              	.L23:
  83:src/riscv.cpp ****                 case 0x22:
 879              		.loc 1 83 17
  84:src/riscv.cpp ****                     retVal = (uint64)(MySemaphore::sem_close((MySemaphore*)*(args + 1)));
 880              		.loc 1 84 21
  84:src/riscv.cpp ****                     retVal = (uint64)(MySemaphore::sem_close((MySemaphore*)*(args + 1)));
 881              		.loc 1 84 61 is_stmt 0
 882 03b8 033584FA 		ld	a0,-88(s0)
 883 03bc 97000000 		call	_ZN11MySemaphore9sem_closeEPS_@plt
 883      E7800000 
 884              	.LVL39:
  85:src/riscv.cpp ****                     break;
 885              		.loc 1 85 21 is_stmt 1
 886 03c4 6FF05FE3 		j	.L12
 887              	.LVL40:
 888              	.L22:
  86:src/riscv.cpp ****                 case 0x23:
 889              		.loc 1 86 17
  87:src/riscv.cpp ****                     retVal = (uint64)(MySemaphore::sem_wait((MySemaphore*)*(args + 1)));
 890              		.loc 1 87 21
  87:src/riscv.cpp ****                     retVal = (uint64)(MySemaphore::sem_wait((MySemaphore*)*(args + 1)));
 891              		.loc 1 87 60 is_stmt 0
 892 03c8 033584FA 		ld	a0,-88(s0)
 893 03cc 97000000 		call	_ZN11MySemaphore8sem_waitEPS_@plt
 893      E7800000 
 894              	.LVL41:
  88:src/riscv.cpp ****                     break;
GAS LISTING /tmp/ccCNZIBa.s 			page 27


 895              		.loc 1 88 21 is_stmt 1
 896 03d4 6FF05FE2 		j	.L12
 897              	.LVL42:
 898              	.L21:
  89:src/riscv.cpp ****                 case 0x24:
 899              		.loc 1 89 17
  90:src/riscv.cpp ****                     retVal = (uint64)(MySemaphore::sem_signal((MySemaphore*)*(args + 1)));
 900              		.loc 1 90 21
  90:src/riscv.cpp ****                     retVal = (uint64)(MySemaphore::sem_signal((MySemaphore*)*(args + 1)));
 901              		.loc 1 90 62 is_stmt 0
 902 03d8 033584FA 		ld	a0,-88(s0)
 903 03dc 97000000 		call	_ZN11MySemaphore10sem_signalEPS_@plt
 903      E7800000 
 904              	.LVL43:
  91:src/riscv.cpp ****                     break;
 905              		.loc 1 91 21 is_stmt 1
 906 03e4 6FF05FE1 		j	.L12
 907              	.LVL44:
 908              	.L20:
  92:src/riscv.cpp ****                 case 0x31:
 909              		.loc 1 92 17
  93:src/riscv.cpp ****                     TCB::time_sleep(*(args + 1));
 910              		.loc 1 93 21
  93:src/riscv.cpp ****                     TCB::time_sleep(*(args + 1));
 911              		.loc 1 93 36 is_stmt 0
 912 03e8 033584FA 		ld	a0,-88(s0)
 913 03ec 97000000 		call	_ZN3TCB10time_sleepEm@plt
 913      E7800000 
 914              	.LVL45:
  53:src/riscv.cpp ****         uint64 retVal = 0;
 915              		.loc 1 53 16
 916 03f4 13050000 		li	a0,0
 917 03f8 6FF01FE0 		j	.L12
 918              	.L19:
  95:src/riscv.cpp ****                 case 0x41:
 919              		.loc 1 95 17 is_stmt 1
  96:src/riscv.cpp ****                     retVal = Console::getInstance().get_from_input();
 920              		.loc 1 96 21
  96:src/riscv.cpp ****                     retVal = Console::getInstance().get_from_input();
 921              		.loc 1 96 51 is_stmt 0
 922 03fc 97000000 		call	_ZN7Console11getInstanceEv@plt
 922      E7800000 
 923              	.LVL46:
  96:src/riscv.cpp ****                     retVal = Console::getInstance().get_from_input();
 924              		.loc 1 96 67
 925 0404 97000000 		call	_ZN7Console14get_from_inputEv@plt
 925      E7800000 
 926              	.LVL47:
  97:src/riscv.cpp ****                     break;
 927              		.loc 1 97 21 is_stmt 1
 928 040c 6FF0DFDE 		j	.L12
 929              	.LVL48:
 930              	.L18:
  98:src/riscv.cpp ****                 case 0x42:
 931              		.loc 1 98 17
  99:src/riscv.cpp ****                     Console::getInstance().put_in_output((char)*(args + 1));
 932              		.loc 1 99 21
GAS LISTING /tmp/ccCNZIBa.s 			page 28


  99:src/riscv.cpp ****                     Console::getInstance().put_in_output((char)*(args + 1));
 933              		.loc 1 99 42 is_stmt 0
 934 0410 97000000 		call	_ZN7Console11getInstanceEv@plt
 934      E7800000 
 935              	.LVL49:
  99:src/riscv.cpp ****                     Console::getInstance().put_in_output((char)*(args + 1));
 936              		.loc 1 99 57
 937 0418 834584FA 		lbu	a1,-88(s0)
 938 041c 97000000 		call	_ZN7Console13put_in_outputEc@plt
 938      E7800000 
 939              	.LVL50:
  53:src/riscv.cpp ****         uint64 retVal = 0;
 940              		.loc 1 53 16
 941 0424 13050000 		li	a0,0
 942 0428 6FF01FDD 		j	.L12
 943              	.L17:
 101:src/riscv.cpp ****                 case 0x50:
 944              		.loc 1 101 17 is_stmt 1
 102:src/riscv.cpp ****                     Scheduler::getInstance().put((TCB*)*(args + 1));
 945              		.loc 1 102 21
 102:src/riscv.cpp ****                     Scheduler::getInstance().put((TCB*)*(args + 1));
 946              		.loc 1 102 44 is_stmt 0
 947 042c 97000000 		call	_ZN9Scheduler11getInstanceEv@plt
 947      E7800000 
 948              	.LVL51:
 102:src/riscv.cpp ****                     Scheduler::getInstance().put((TCB*)*(args + 1));
 949              		.loc 1 102 49
 950 0434 833584FA 		ld	a1,-88(s0)
 951 0438 97000000 		call	_ZN9Scheduler3putEP3TCB@plt
 951      E7800000 
 952              	.LVL52:
  53:src/riscv.cpp ****         uint64 retVal = 0;
 953              		.loc 1 53 16
 954 0440 13050000 		li	a0,0
 955 0444 6FF05FDB 		j	.L12
 956              	.L16:
 104:src/riscv.cpp ****                 case 0x60:
 957              		.loc 1 104 17 is_stmt 1
 105:src/riscv.cpp ****                     Riscv::switch_to_user();
 958              		.loc 1 105 21
 105:src/riscv.cpp ****                     Riscv::switch_to_user();
 959              		.loc 1 105 42 is_stmt 0
 960 0448 97000000 		call	_ZN5Riscv14switch_to_userEv
 960      E7800000 
 961              	.LVL53:
 106:src/riscv.cpp ****                     break;
 962              		.loc 1 106 21 is_stmt 1
  53:src/riscv.cpp ****         uint64 retVal = 0;
 963              		.loc 1 53 16 is_stmt 0
 964 0450 13050000 		li	a0,0
 106:src/riscv.cpp ****                     break;
 965              		.loc 1 106 21
 966 0454 6FF05FDA 		j	.L12
 967              	.L15:
 107:src/riscv.cpp ****                 case 0x61:
 968              		.loc 1 107 17 is_stmt 1
 108:src/riscv.cpp ****                     Riscv::switch_to_priviledged();
GAS LISTING /tmp/ccCNZIBa.s 			page 29


 969              		.loc 1 108 21
 108:src/riscv.cpp ****                     Riscv::switch_to_priviledged();
 970              		.loc 1 108 49 is_stmt 0
 971 0458 97000000 		call	_ZN5Riscv21switch_to_priviledgedEv
 971      E7800000 
 972              	.LVL54:
 109:src/riscv.cpp ****                     break;
 973              		.loc 1 109 21 is_stmt 1
  53:src/riscv.cpp ****         uint64 retVal = 0;
 974              		.loc 1 53 16 is_stmt 0
 975 0460 13050000 		li	a0,0
 109:src/riscv.cpp ****                     break;
 976              		.loc 1 109 21
 977 0464 6FF05FD9 		j	.L12
 978              	.L13:
 110:src/riscv.cpp ****                 case 0x70:
 979              		.loc 1 110 17 is_stmt 1
 111:src/riscv.cpp ****                     ((TCB*)*(args + 1))->set_periodic(true);
 980              		.loc 1 111 21
 111:src/riscv.cpp ****                     ((TCB*)*(args + 1))->set_periodic(true);
 981              		.loc 1 111 28 is_stmt 0
 982 0468 833584FA 		ld	a1,-88(s0)
 983              	.LVL55:
 984              	.LBB176:
 985              	.LBB177:
  44:src/../h/TCB.hpp ****     void set_periodic(bool b){
  45:src/../h/TCB.hpp ****         periodic = b;
 986              		.loc 3 45 9 is_stmt 1
 987              		.loc 3 45 18 is_stmt 0
 988 046c 93071000 		li	a5,1
 989 0470 A380F506 		sb	a5,97(a1)
  46:src/../h/TCB.hpp ****         periodicThread::getInstance().put(this);
 990              		.loc 3 46 9 is_stmt 1
 991              	.LBB178:
 992              	.LBB179:
 993              		.file 5 "src/../h/../h/periodic_threads.hpp"
   1:src/../h/../h/periodic_threads.hpp **** #ifndef _periodic_thread_hpp_
   2:src/../h/../h/periodic_threads.hpp **** #define _periodic_thread_hpp_
   3:src/../h/../h/periodic_threads.hpp **** 
   4:src/../h/../h/periodic_threads.hpp **** class TCB;
   5:src/../h/../h/periodic_threads.hpp **** 
   6:src/../h/../h/periodic_threads.hpp **** class periodicThread{
   7:src/../h/../h/periodic_threads.hpp **** 
   8:src/../h/../h/periodic_threads.hpp **** public:
   9:src/../h/../h/periodic_threads.hpp ****     static periodicThread& getInstance(){
  10:src/../h/../h/periodic_threads.hpp ****         static periodicThread instance;
 994              		.loc 5 10 9
 995              		.loc 5 10 31 is_stmt 0
 996 0474 97070000 		lbu	a5,_ZGVZN14periodicThread11getInstanceEvE8instance
 996      83C70700 
 997 047c 63980700 		bnez	a5,.L35
 998              	.LVL56:
 999 0480 93071000 		li	a5,1
 1000 0484 17070000 		sb	a5,_ZGVZN14periodicThread11getInstanceEvE8instance,a4
 1000      2300F700 
 1001              	.LVL57:
 1002              	.L35:
GAS LISTING /tmp/ccCNZIBa.s 			page 30


  11:src/../h/../h/periodic_threads.hpp ****         return instance;
 1003              		.loc 5 11 9 is_stmt 1
 1004              	.LBE179:
 1005              	.LBE178:
 1006              		.loc 3 46 42 is_stmt 0
 1007 048c 17050000 		lla	a0,_ZZN14periodicThread11getInstanceEvE8instance
 1007      13050500 
 1008 0494 97000000 		call	_ZN14periodicThread3putEP3TCB@plt
 1008      E7800000 
 1009              	.LVL58:
  47:src/../h/TCB.hpp ****     }
 1010              		.loc 3 47 5
 1011 049c 6FF05FD4 		j	.L30
 1012              	.LVL59:
 1013              	.L40:
 1014              	.LBE177:
 1015              	.LBE176:
  57:src/riscv.cpp ****             switch(*args){
 1016              		.loc 1 57 13
 1017 04a0 13050000 		li	a0,0
 1018 04a4 6FF05FD5 		j	.L12
 1019              	.L41:
 1020 04a8 13050000 		li	a0,0
 1021 04ac 6FF0DFD4 		j	.L12
 1022              	.LVL60:
 1023              	.L45:
 1024              	.LBE147:
 1025              	.LBB180:
 1026              	.LBB130:
 129:src/riscv.cpp ****         int irq = plic_claim();
 1027              		.loc 1 129 9 is_stmt 1
 129:src/riscv.cpp ****         int irq = plic_claim();
 1028              		.loc 1 129 29 is_stmt 0
 1029 04b0 97000000 		call	plic_claim@plt
 1029      E7800000 
 1030              	.LVL61:
 1031 04b8 13090500 		mv	s2,a0
 1032              	.LVL62:
 130:src/riscv.cpp ****         if(irq == CONSOLE_IRQ){
 1033              		.loc 1 130 9 is_stmt 1
 1034              	.LBB131:
 1035 04bc 9307A000 		li	a5,10
 1036 04c0 6306F502 		beq	a0,a5,.L37
 1037              	.LVL63:
 1038              	.L36:
 1039              	.LBE131:
 140:src/riscv.cpp ****         plic_complete(irq);
 1040              		.loc 1 140 9
 140:src/riscv.cpp ****         plic_complete(irq);
 1041              		.loc 1 140 22 is_stmt 0
 1042 04c4 13050900 		mv	a0,s2
 1043 04c8 97000000 		call	plic_complete@plt
 1043      E7800000 
 1044              	.LVL64:
 1045              	.LBE130:
 1046              	.LBE180:
 1047              	.LBE198:
GAS LISTING /tmp/ccCNZIBa.s 			page 31


 1048              	.LBE202:
 1049              		.loc 1 148 1
 1050 04d0 6FF01FC2 		j	.L7
 1051              	.L38:
 1052              	.LBB203:
 1053              	.LBB199:
 1054              	.LBB181:
 1055              	.LBB146:
 1056              	.LBB145:
 1057              	.LBB132:
 1058              	.LBB133:
 1059              	.LBB134:
 1060              	.LBB135:
 1061              	.LBB136:
 1062              	.LBB137:
 1063              		.loc 5 11 9 is_stmt 1
 1064              	.LBE137:
 1065              	.LBE136:
 135:src/riscv.cpp ****                     TCB* tmp = periodicThread::getInstance().get();
 1066              		.loc 1 135 65 is_stmt 0
 1067 04d4 17050000 		lla	a0,_ZZN14periodicThread11getInstanceEvE8instance
 1067      13050500 
 1068 04dc 97000000 		call	_ZN14periodicThread3getEv@plt
 1068      E7800000 
 1069              	.LVL65:
 136:src/riscv.cpp ****                     tmp->set_finished(true);
 1070              		.loc 1 136 21 is_stmt 1
 1071              	.LBB139:
 1072              	.LBB140:
  33:src/../h/TCB.hpp ****     bool is_finished()const{return finished;}
 1073              		.loc 3 33 32
  33:src/../h/TCB.hpp ****     bool is_finished()const{return finished;}
 1074              		.loc 3 33 47 is_stmt 0
 1075 04e4 93071000 		li	a5,1
 1076 04e8 2304F502 		sb	a5,40(a0)
 1077              	.LVL66:
 1078              	.L37:
 1079              	.LBE140:
 1080              	.LBE139:
 1081              	.LBE135:
 1082              	.LBE134:
 1083              	.LBE133:
 132:src/riscv.cpp ****             while(*((char*)CONSOLE_STATUS) & CONSOLE_RX_STATUS_BIT){
 1084              		.loc 1 132 13 is_stmt 1
 132:src/riscv.cpp ****             while(*((char*)CONSOLE_STATUS) & CONSOLE_RX_STATUS_BIT){
 1085              		.loc 1 132 46
 132:src/riscv.cpp ****             while(*((char*)CONSOLE_STATUS) & CONSOLE_RX_STATUS_BIT){
 1086              		.loc 1 132 19 is_stmt 0
 1087 04ec 97070000 		la	a5,CONSOLE_STATUS
 1087      83B70700 
 1088 04f4 83B70700 		ld	a5,0(a5)
 1089 04f8 83C70700 		lbu	a5,0(a5)
 132:src/riscv.cpp ****             while(*((char*)CONSOLE_STATUS) & CONSOLE_RX_STATUS_BIT){
 1090              		.loc 1 132 46
 1091 04fc 93F71700 		andi	a5,a5,1
 1092 0500 E38207FC 		beqz	a5,.L36
 1093              	.LBB144:
GAS LISTING /tmp/ccCNZIBa.s 			page 32


 133:src/riscv.cpp ****                 Console::getInstance().put_in_input(*((char*)CONSOLE_RX_DATA));
 1094              		.loc 1 133 17 is_stmt 1
 133:src/riscv.cpp ****                 Console::getInstance().put_in_input(*((char*)CONSOLE_RX_DATA));
 1095              		.loc 1 133 38 is_stmt 0
 1096 0504 97000000 		call	_ZN7Console11getInstanceEv@plt
 1096      E7800000 
 1097              	.LVL67:
 133:src/riscv.cpp ****                 Console::getInstance().put_in_input(*((char*)CONSOLE_RX_DATA));
 1098              		.loc 1 133 52
 1099 050c 97070000 		la	a5,CONSOLE_RX_DATA
 1099      83B70700 
 1100 0514 83B40700 		ld	s1,0(a5)
 1101 0518 83C50400 		lbu	a1,0(s1)
 1102 051c 97000000 		call	_ZN7Console12put_in_inputEc@plt
 1102      E7800000 
 1103              	.LVL68:
 134:src/riscv.cpp ****                 if(*((char*)CONSOLE_RX_DATA) == 107){
 1104              		.loc 1 134 17 is_stmt 1
 1105              	.LBB143:
 134:src/riscv.cpp ****                 if(*((char*)CONSOLE_RX_DATA) == 107){
 1106              		.loc 1 134 20 is_stmt 0
 1107 0524 03C70400 		lbu	a4,0(s1)
 134:src/riscv.cpp ****                 if(*((char*)CONSOLE_RX_DATA) == 107){
 1108              		.loc 1 134 17
 1109 0528 9307B006 		li	a5,107
 1110 052c E310F7FC 		bne	a4,a5,.L37
 1111              	.LBB142:
 135:src/riscv.cpp ****                     TCB* tmp = periodicThread::getInstance().get();
 1112              		.loc 1 135 21 is_stmt 1
 1113              	.LBB141:
 1114              	.LBB138:
  10:src/../h/../h/periodic_threads.hpp ****         return instance;
 1115              		.loc 5 10 9
  10:src/../h/../h/periodic_threads.hpp ****         return instance;
 1116              		.loc 5 10 31 is_stmt 0
 1117 0530 97070000 		lbu	a5,_ZGVZN14periodicThread11getInstanceEvE8instance
 1117      83C70700 
 1118 0538 E39E07F8 		bnez	a5,.L38
 1119              	.LVL69:
 1120 053c 93071000 		li	a5,1
 1121 0540 17070000 		sb	a5,_ZGVZN14periodicThread11getInstanceEvE8instance,a4
 1121      2300F700 
 1122 0548 6FF0DFF8 		j	.L38
 1123              	.LBE138:
 1124              	.LBE141:
 1125              	.LBE142:
 1126              	.LBE143:
 1127              	.LBE144:
 1128              	.LBE132:
 1129              	.LBE145:
 1130              	.LBE146:
 1131              	.LBE181:
 1132              	.LBE199:
 1133              	.LBE203:
 1134              		.cfi_endproc
 1135              	.LFE63:
 1137              		.weak	_ZGVZN14periodicThread11getInstanceEvE8instance
GAS LISTING /tmp/ccCNZIBa.s 			page 33


 1138              		.section	.bss._ZGVZN14periodicThread11getInstanceEvE8instance,"awG",@nobits,_ZGVZN14periodicThread
 1139              		.align	3
 1142              	_ZGVZN14periodicThread11getInstanceEvE8instance:
 1143 0000 00000000 		.zero	8
 1143      00000000 
 1144              		.weak	_ZZN14periodicThread11getInstanceEvE8instance
 1145              		.section	.bss._ZZN14periodicThread11getInstanceEvE8instance,"awG",@nobits,_ZZN14periodicThread11ge
 1146              		.align	3
 1149              	_ZZN14periodicThread11getInstanceEvE8instance:
 1150 0000 00       		.zero	1
 1151              		.weak	_ZGVZN15MemoryAllocator11getInstanceEvE8instance
 1152              		.section	.bss._ZGVZN15MemoryAllocator11getInstanceEvE8instance,"awG",@nobits,_ZGVZN15MemoryAllocat
 1153              		.align	3
 1156              	_ZGVZN15MemoryAllocator11getInstanceEvE8instance:
 1157 0000 00000000 		.zero	8
 1157      00000000 
 1158              		.weak	_ZZN15MemoryAllocator11getInstanceEvE8instance
 1159              		.section	.bss._ZZN15MemoryAllocator11getInstanceEvE8instance,"awG",@nobits,_ZZN15MemoryAllocator11
 1160              		.align	3
 1163              	_ZZN15MemoryAllocator11getInstanceEvE8instance:
 1164 0000 00000000 		.zero	24
 1164      00000000 
 1164      00000000 
 1164      00000000 
 1164      00000000 
 1165              		.text
 1166              	.Letext0:
 1167              		.file 6 "src/../h/../lib/hw.h"
 1168              		.file 7 "src/../h/../h/SlabI.h"
 1169              		.file 8 "src/../h/../h/scheduler.hpp"
 1170              		.file 9 "src/../h/../h/TS.hpp"
 1171              		.file 10 "src/../h/semaphore.hpp"
 1172              		.file 11 "src/../h/../h/my_buffer.hpp"
 1173              		.file 12 "src/../h/console.hpp"
 1174              		.file 13 "src/../h/../h/../test/../h/syscall_c.h"
GAS LISTING /tmp/ccCNZIBa.s 			page 34


DEFINED SYMBOLS
                            *ABS*:0000000000000000 riscv.cpp
     /tmp/ccCNZIBa.s:9      .text:0000000000000000 _ZN5Riscv14switch_to_userEv
     /tmp/ccCNZIBa.s:13     .text:0000000000000000 .L0 
     /tmp/ccCNZIBa.s:14     .text:0000000000000000 .L0 
     /tmp/ccCNZIBa.s:15     .text:0000000000000004 .L0 
     /tmp/ccCNZIBa.s:17     .text:0000000000000008 .L0 
     /tmp/ccCNZIBa.s:19     .text:000000000000000c .L0 
     /tmp/ccCNZIBa.s:25     .text:000000000000000c .L0 
     /tmp/ccCNZIBa.s:26     .text:000000000000000c .L0 
     /tmp/ccCNZIBa.s:27     .text:000000000000000c .L0 
     /tmp/ccCNZIBa.s:37     .text:0000000000000014 .L0 
     /tmp/ccCNZIBa.s:38     .text:0000000000000018 .L0 
     /tmp/ccCNZIBa.s:39     .text:0000000000000018 .L0 
     /tmp/ccCNZIBa.s:41     .text:000000000000001c .L0 
     /tmp/ccCNZIBa.s:43     .text:0000000000000020 .L0 
     /tmp/ccCNZIBa.s:49     .text:0000000000000020 _ZN5Riscv21switch_to_priviledgedEv
     /tmp/ccCNZIBa.s:52     .text:0000000000000020 .L0 
     /tmp/ccCNZIBa.s:53     .text:0000000000000020 .L0 
     /tmp/ccCNZIBa.s:54     .text:0000000000000024 .L0 
     /tmp/ccCNZIBa.s:56     .text:0000000000000028 .L0 
     /tmp/ccCNZIBa.s:58     .text:000000000000002c .L0 
     /tmp/ccCNZIBa.s:63     .text:000000000000002c .L0 
     /tmp/ccCNZIBa.s:64     .text:000000000000002c .L0 
     /tmp/ccCNZIBa.s:65     .text:000000000000002c .L0 
     /tmp/ccCNZIBa.s:75     .text:0000000000000034 .L0 
     /tmp/ccCNZIBa.s:76     .text:0000000000000038 .L0 
     /tmp/ccCNZIBa.s:77     .text:0000000000000038 .L0 
     /tmp/ccCNZIBa.s:79     .text:000000000000003c .L0 
     /tmp/ccCNZIBa.s:81     .text:0000000000000040 .L0 
     /tmp/ccCNZIBa.s:87     .text:0000000000000040 _ZN5Riscv10popSppSpieEv
     /tmp/ccCNZIBa.s:90     .text:0000000000000040 .L0 
     /tmp/ccCNZIBa.s:91     .text:0000000000000040 .L0 
     /tmp/ccCNZIBa.s:92     .text:0000000000000044 .L0 
     /tmp/ccCNZIBa.s:94     .text:0000000000000048 .L0 
     /tmp/ccCNZIBa.s:96     .text:000000000000004c .L0 
     /tmp/ccCNZIBa.s:98     .text:000000000000004c .L0 
       src/riscv.cpp:17     .text:000000000000004c .L0 
     /tmp/ccCNZIBa.s:104    .text:0000000000000050 .L0 
       src/riscv.cpp:18     .text:0000000000000050 .L0 
     /tmp/ccCNZIBa.s:110    .text:0000000000000054 .L0 
     /tmp/ccCNZIBa.s:111    .text:0000000000000058 .L0 
     /tmp/ccCNZIBa.s:112    .text:0000000000000058 .L0 
     /tmp/ccCNZIBa.s:114    .text:000000000000005c .L0 
     /tmp/ccCNZIBa.s:116    .text:0000000000000060 .L0 
     /tmp/ccCNZIBa.s:122    .text:0000000000000060 _ZN5Riscv20handleSupervisorTrapEv
     /tmp/ccCNZIBa.s:125    .text:0000000000000060 .L0 
     /tmp/ccCNZIBa.s:126    .text:0000000000000060 .L0 
     /tmp/ccCNZIBa.s:127    .text:0000000000000064 .L0 
     /tmp/ccCNZIBa.s:132    .text:0000000000000074 .L0 
     /tmp/ccCNZIBa.s:133    .text:0000000000000074 .L0 
     /tmp/ccCNZIBa.s:134    .text:0000000000000074 .L0 
     /tmp/ccCNZIBa.s:135    .text:0000000000000074 .L0 
     /tmp/ccCNZIBa.s:137    .text:0000000000000078 .L0 
     /tmp/ccCNZIBa.s:139    .text:0000000000000078 .L0 
     /tmp/ccCNZIBa.s:140    .text:0000000000000078 .L0 
       src/riscv.cpp:25     .text:0000000000000078 .L0 
GAS LISTING /tmp/ccCNZIBa.s 			page 35


     /tmp/ccCNZIBa.s:148    .text:0000000000000080 .L0 
       src/riscv.cpp:26     .text:0000000000000080 .L0 
     /tmp/ccCNZIBa.s:156    .text:0000000000000088 .L0 
       src/riscv.cpp:27     .text:0000000000000088 .L0 
     /tmp/ccCNZIBa.s:164    .text:0000000000000090 .L0 
       src/riscv.cpp:28     .text:0000000000000090 .L0 
     /tmp/ccCNZIBa.s:172    .text:0000000000000098 .L0 
       src/riscv.cpp:29     .text:0000000000000098 .L0 
     /tmp/ccCNZIBa.s:180    .text:00000000000000a0 .L0 
       src/riscv.cpp:30     .text:00000000000000a0 .L0 
     /tmp/ccCNZIBa.s:188    .text:00000000000000a8 .L0 
       src/riscv.cpp:31     .text:00000000000000a8 .L0 
     /tmp/ccCNZIBa.s:196    .text:00000000000000b0 .L0 
       src/riscv.cpp:32     .text:00000000000000b0 .L0 
     /tmp/ccCNZIBa.s:206    .text:00000000000000b8 .L0 
     /tmp/ccCNZIBa.s:207    .text:00000000000000b8 .L0 
     /tmp/ccCNZIBa.s:208    .text:00000000000000b8 .L0 
  src/../h/riscv.hpp:101    .text:00000000000000b8 .L0 
     /tmp/ccCNZIBa.s:216    .text:00000000000000c0 .L0 
     /tmp/ccCNZIBa.s:217    .text:00000000000000c0 .L0 
     /tmp/ccCNZIBa.s:223    .text:00000000000000c4 .L0 
     /tmp/ccCNZIBa.s:231    .text:00000000000000d4 .L0 
     /tmp/ccCNZIBa.s:232    .text:00000000000000d4 .L0 
     /tmp/ccCNZIBa.s:234    .text:00000000000000d8 .L0 
     /tmp/ccCNZIBa.s:242    .text:00000000000000e0 .L0 
     /tmp/ccCNZIBa.s:252    .text:00000000000000f0 .L0 
     /tmp/ccCNZIBa.s:253    .text:00000000000000f4 .L0 
     /tmp/ccCNZIBa.s:254    .text:00000000000000f4 .L0 
     /tmp/ccCNZIBa.s:256    .text:00000000000000f8 .L0 
     /tmp/ccCNZIBa.s:257    .text:00000000000000f8 .L0 
     /tmp/ccCNZIBa.s:259    .text:00000000000000fc .L0 
     /tmp/ccCNZIBa.s:261    .text:0000000000000100 .L0 
     /tmp/ccCNZIBa.s:263    .text:0000000000000104 .L0 
     /tmp/ccCNZIBa.s:267    .text:0000000000000108 .L0 
     /tmp/ccCNZIBa.s:273    .text:0000000000000108 .L0 
     /tmp/ccCNZIBa.s:274    .text:0000000000000108 .L0 
     /tmp/ccCNZIBa.s:275    .text:0000000000000108 .L0 
     /tmp/ccCNZIBa.s:285    .text:0000000000000110 .L0 
     /tmp/ccCNZIBa.s:286    .text:0000000000000110 .L0 
     /tmp/ccCNZIBa.s:291    .text:0000000000000124 .L0 
     /tmp/ccCNZIBa.s:292    .text:0000000000000124 .L0 
     /tmp/ccCNZIBa.s:296    .text:000000000000012c .L0 
     /tmp/ccCNZIBa.s:297    .text:000000000000012c .L0 
     /tmp/ccCNZIBa.s:304    .text:0000000000000138 .L0 
     /tmp/ccCNZIBa.s:305    .text:0000000000000138 .L0 
     /tmp/ccCNZIBa.s:310    .text:000000000000013c .L0 
     /tmp/ccCNZIBa.s:312    .text:0000000000000140 .L0 
     /tmp/ccCNZIBa.s:317    .text:0000000000000144 .L0 
     /tmp/ccCNZIBa.s:318    .text:0000000000000144 .L0 
     /tmp/ccCNZIBa.s:319    .text:0000000000000144 .L0 
  src/../h/riscv.hpp:113    .text:0000000000000144 .L0 
     /tmp/ccCNZIBa.s:327    .text:000000000000014c .L0 
     /tmp/ccCNZIBa.s:328    .text:000000000000014c .L0 
     /tmp/ccCNZIBa.s:332    .text:0000000000000150 .L0 
     /tmp/ccCNZIBa.s:336    .text:0000000000000154 .L0 
     /tmp/ccCNZIBa.s:337    .text:0000000000000154 .L0 
     /tmp/ccCNZIBa.s:338    .text:0000000000000154 .L0 
GAS LISTING /tmp/ccCNZIBa.s 			page 36


  src/../h/riscv.hpp:181    .text:0000000000000154 .L0 
     /tmp/ccCNZIBa.s:346    .text:000000000000015c .L0 
     /tmp/ccCNZIBa.s:347    .text:000000000000015c .L0 
     /tmp/ccCNZIBa.s:351    .text:0000000000000160 .L0 
     /tmp/ccCNZIBa.s:353    .text:0000000000000164 .L0 
     /tmp/ccCNZIBa.s:354    .text:0000000000000164 .L0 
     /tmp/ccCNZIBa.s:356    .text:0000000000000168 .L0 
     /tmp/ccCNZIBa.s:357    .text:0000000000000168 .L0 
     /tmp/ccCNZIBa.s:360    .text:0000000000000170 .L0 
     /tmp/ccCNZIBa.s:361    .text:0000000000000170 .L0 
     /tmp/ccCNZIBa.s:366    .text:0000000000000174 .L0 
  src/../h/riscv.hpp:187    .text:0000000000000174 .L0 
     /tmp/ccCNZIBa.s:376    .text:0000000000000178 .L0 
     /tmp/ccCNZIBa.s:377    .text:0000000000000178 .L0 
     /tmp/ccCNZIBa.s:382    .text:000000000000017c .L0 
  src/../h/riscv.hpp:119    .text:000000000000017c .L0 
     /tmp/ccCNZIBa.s:389    .text:0000000000000180 .L0 
     /tmp/ccCNZIBa.s:400    .text:0000000000000184 .L0 
     /tmp/ccCNZIBa.s:403    .text:0000000000000184 .L0 
     /tmp/ccCNZIBa.s:404    .text:0000000000000184 .L0 
     /tmp/ccCNZIBa.s:405    .text:0000000000000184 .L0 
  src/../h/riscv.hpp:113    .text:0000000000000184 .L0 
     /tmp/ccCNZIBa.s:413    .text:000000000000018c .L0 
     /tmp/ccCNZIBa.s:414    .text:000000000000018c .L0 
     /tmp/ccCNZIBa.s:418    .text:0000000000000190 .L0 
     /tmp/ccCNZIBa.s:420    .text:0000000000000194 .L0 
     /tmp/ccCNZIBa.s:424    .text:0000000000000198 .L0 
     /tmp/ccCNZIBa.s:425    .text:0000000000000198 .L0 
     /tmp/ccCNZIBa.s:426    .text:0000000000000198 .L0 
  src/../h/riscv.hpp:181    .text:0000000000000198 .L0 
     /tmp/ccCNZIBa.s:434    .text:00000000000001a0 .L0 
     /tmp/ccCNZIBa.s:435    .text:00000000000001a0 .L0 
     /tmp/ccCNZIBa.s:439    .text:00000000000001a4 .L0 
     /tmp/ccCNZIBa.s:441    .text:00000000000001a8 .L0 
     /tmp/ccCNZIBa.s:442    .text:00000000000001a8 .L0 
     /tmp/ccCNZIBa.s:444    .text:00000000000001ac .L0 
     /tmp/ccCNZIBa.s:578    .text:00000000000001e0 .L0 
     /tmp/ccCNZIBa.s:582    .text:00000000000001e0 .L0 
     /tmp/ccCNZIBa.s:583    .text:00000000000001e0 .L0 
     /tmp/ccCNZIBa.s:584    .text:00000000000001e0 .L0 
     /tmp/ccCNZIBa.s:590    .text:00000000000001ec .L0 
     /tmp/ccCNZIBa.s:594    .text:00000000000001f0 .L0 
     /tmp/ccCNZIBa.s:600    .text:00000000000001f4 .L0 
     /tmp/ccCNZIBa.s:604    .text:00000000000001f8 .L0 
       src/riscv.cpp:119    .text:00000000000001f8 .L0 
     /tmp/ccCNZIBa.s:610    .text:00000000000001fc .L0 
       src/riscv.cpp:120    .text:00000000000001fc .L0 
     /tmp/ccCNZIBa.s:615    .text:0000000000000200 .L0 
     /tmp/ccCNZIBa.s:617    .text:0000000000000200 .L0 
     /tmp/ccCNZIBa.s:622    .text:0000000000000204 .L0 
  src/../h/riscv.hpp:119    .text:0000000000000204 .L0 
     /tmp/ccCNZIBa.s:632    .text:0000000000000208 .L0 
     /tmp/ccCNZIBa.s:633    .text:0000000000000208 .L0 
     /tmp/ccCNZIBa.s:635    .text:000000000000020c .L0 
     /tmp/ccCNZIBa.s:637    .text:0000000000000210 .L0 
     /tmp/ccCNZIBa.s:640    .text:0000000000000218 .L0 
     /tmp/ccCNZIBa.s:641    .text:0000000000000218 .L0 
GAS LISTING /tmp/ccCNZIBa.s 			page 37


     /tmp/ccCNZIBa.s:646    .text:000000000000021c .L0 
  src/../h/riscv.hpp:187    .text:000000000000021c .L0 
     /tmp/ccCNZIBa.s:653    .text:0000000000000220 .L0 
     /tmp/ccCNZIBa.s:659    .text:0000000000000224 .L0 
     /tmp/ccCNZIBa.s:663    .text:0000000000000224 .L0 
     /tmp/ccCNZIBa.s:664    .text:0000000000000224 .L0 
     /tmp/ccCNZIBa.s:1156   .bss._ZGVZN15MemoryAllocator11getInstanceEvE8instance:0000000000000000 _ZGVZN15MemoryAllocator11getInstanceEvE8instance
     /tmp/ccCNZIBa.s:665    .text:0000000000000224 .L0 
     /tmp/ccCNZIBa.s:671    .text:0000000000000230 .L0 
     /tmp/ccCNZIBa.s:672    .text:0000000000000230 .L0 
     /tmp/ccCNZIBa.s:1163   .bss._ZZN15MemoryAllocator11getInstanceEvE8instance:0000000000000000 _ZZN15MemoryAllocator11getInstanceEvE8instance
     /tmp/ccCNZIBa.s:677    .text:0000000000000244 .L0 
     /tmp/ccCNZIBa.s:686    .text:0000000000000248 .L0 
     /tmp/ccCNZIBa.s:689    .text:0000000000000250 .L0 
     /tmp/ccCNZIBa.s:690    .text:0000000000000250 .L0 
     /tmp/ccCNZIBa.s:696    .text:000000000000026c .L0 
     /tmp/ccCNZIBa.s:698    .text:0000000000000270 .L0 
     /tmp/ccCNZIBa.s:700    .text:0000000000000274 .L0 
     /tmp/ccCNZIBa.s:702    .text:0000000000000278 .L0 
     /tmp/ccCNZIBa.s:704    .text:000000000000027c .L0 
     /tmp/ccCNZIBa.s:705    .text:000000000000027c .L0 
     /tmp/ccCNZIBa.s:707    .text:0000000000000280 .L0 
     /tmp/ccCNZIBa.s:709    .text:0000000000000284 .L0 
     /tmp/ccCNZIBa.s:710    .text:0000000000000284 .L0 
     /tmp/ccCNZIBa.s:712    .text:0000000000000288 .L0 
     /tmp/ccCNZIBa.s:717    .text:0000000000000294 .L0 
     /tmp/ccCNZIBa.s:719    .text:0000000000000298 .L0 
     /tmp/ccCNZIBa.s:721    .text:00000000000002a0 .L0 
     /tmp/ccCNZIBa.s:722    .text:00000000000002a0 .L0 
     /tmp/ccCNZIBa.s:724    .text:00000000000002a4 .L0 
     /tmp/ccCNZIBa.s:727    .text:00000000000002a8 .L0 
     /tmp/ccCNZIBa.s:728    .text:00000000000002a8 .L0 
     /tmp/ccCNZIBa.s:730    .text:00000000000002ac .L0 
     /tmp/ccCNZIBa.s:731    .text:00000000000002ac .L0 
     /tmp/ccCNZIBa.s:733    .text:00000000000002b0 .L0 
     /tmp/ccCNZIBa.s:734    .text:00000000000002b0 .L0 
     /tmp/ccCNZIBa.s:741    .text:00000000000002b4 .L0 
     /tmp/ccCNZIBa.s:748    .text:00000000000002c4 .L0 
     /tmp/ccCNZIBa.s:751    .text:00000000000002c4 .L0 
     /tmp/ccCNZIBa.s:752    .text:00000000000002c4 .L0 
     /tmp/ccCNZIBa.s:753    .text:00000000000002c4 .L0 
     /tmp/ccCNZIBa.s:759    .text:00000000000002d0 .L0 
     /tmp/ccCNZIBa.s:760    .text:00000000000002d0 .L0 
     /tmp/ccCNZIBa.s:765    .text:00000000000002e4 .L0 
     /tmp/ccCNZIBa.s:774    .text:00000000000002e8 .L0 
     /tmp/ccCNZIBa.s:777    .text:00000000000002f0 .L0 
     /tmp/ccCNZIBa.s:778    .text:00000000000002f0 .L0 
     /tmp/ccCNZIBa.s:784    .text:000000000000030c .L0 
     /tmp/ccCNZIBa.s:786    .text:0000000000000310 .L0 
     /tmp/ccCNZIBa.s:788    .text:0000000000000314 .L0 
     /tmp/ccCNZIBa.s:790    .text:0000000000000318 .L0 
     /tmp/ccCNZIBa.s:792    .text:000000000000031c .L0 
     /tmp/ccCNZIBa.s:793    .text:000000000000031c .L0 
     /tmp/ccCNZIBa.s:795    .text:0000000000000320 .L0 
     /tmp/ccCNZIBa.s:797    .text:0000000000000324 .L0 
     /tmp/ccCNZIBa.s:798    .text:0000000000000324 .L0 
     /tmp/ccCNZIBa.s:800    .text:0000000000000328 .L0 
GAS LISTING /tmp/ccCNZIBa.s 			page 38


     /tmp/ccCNZIBa.s:805    .text:0000000000000334 .L0 
     /tmp/ccCNZIBa.s:807    .text:0000000000000338 .L0 
     /tmp/ccCNZIBa.s:809    .text:0000000000000340 .L0 
     /tmp/ccCNZIBa.s:810    .text:0000000000000340 .L0 
     /tmp/ccCNZIBa.s:812    .text:0000000000000344 .L0 
     /tmp/ccCNZIBa.s:815    .text:0000000000000348 .L0 
     /tmp/ccCNZIBa.s:816    .text:0000000000000348 .L0 
     /tmp/ccCNZIBa.s:818    .text:000000000000034c .L0 
     /tmp/ccCNZIBa.s:819    .text:000000000000034c .L0 
     /tmp/ccCNZIBa.s:821    .text:0000000000000350 .L0 
     /tmp/ccCNZIBa.s:822    .text:0000000000000350 .L0 
     /tmp/ccCNZIBa.s:829    .text:0000000000000354 .L0 
     /tmp/ccCNZIBa.s:836    .text:0000000000000364 .L0 
     /tmp/ccCNZIBa.s:837    .text:0000000000000364 .L0 
     /tmp/ccCNZIBa.s:838    .text:0000000000000364 .L0 
     /tmp/ccCNZIBa.s:847    .text:0000000000000384 .L0 
     /tmp/ccCNZIBa.s:851    .text:0000000000000388 .L0 
     /tmp/ccCNZIBa.s:852    .text:0000000000000388 .L0 
     /tmp/ccCNZIBa.s:853    .text:0000000000000388 .L0 
     /tmp/ccCNZIBa.s:856    .text:0000000000000390 .L0 
     /tmp/ccCNZIBa.s:860    .text:0000000000000394 .L0 
     /tmp/ccCNZIBa.s:861    .text:0000000000000394 .L0 
     /tmp/ccCNZIBa.s:862    .text:0000000000000394 .L0 
     /tmp/ccCNZIBa.s:865    .text:000000000000039c .L0 
     /tmp/ccCNZIBa.s:869    .text:00000000000003a4 .L0 
     /tmp/ccCNZIBa.s:870    .text:00000000000003a4 .L0 
     /tmp/ccCNZIBa.s:871    .text:00000000000003a4 .L0 
     /tmp/ccCNZIBa.s:876    .text:00000000000003b4 .L0 
     /tmp/ccCNZIBa.s:880    .text:00000000000003b8 .L0 
     /tmp/ccCNZIBa.s:881    .text:00000000000003b8 .L0 
     /tmp/ccCNZIBa.s:882    .text:00000000000003b8 .L0 
     /tmp/ccCNZIBa.s:886    .text:00000000000003c4 .L0 
     /tmp/ccCNZIBa.s:890    .text:00000000000003c8 .L0 
     /tmp/ccCNZIBa.s:891    .text:00000000000003c8 .L0 
     /tmp/ccCNZIBa.s:892    .text:00000000000003c8 .L0 
     /tmp/ccCNZIBa.s:896    .text:00000000000003d4 .L0 
     /tmp/ccCNZIBa.s:900    .text:00000000000003d8 .L0 
     /tmp/ccCNZIBa.s:901    .text:00000000000003d8 .L0 
     /tmp/ccCNZIBa.s:902    .text:00000000000003d8 .L0 
     /tmp/ccCNZIBa.s:906    .text:00000000000003e4 .L0 
     /tmp/ccCNZIBa.s:910    .text:00000000000003e8 .L0 
     /tmp/ccCNZIBa.s:911    .text:00000000000003e8 .L0 
     /tmp/ccCNZIBa.s:912    .text:00000000000003e8 .L0 
     /tmp/ccCNZIBa.s:916    .text:00000000000003f4 .L0 
     /tmp/ccCNZIBa.s:920    .text:00000000000003fc .L0 
     /tmp/ccCNZIBa.s:921    .text:00000000000003fc .L0 
     /tmp/ccCNZIBa.s:922    .text:00000000000003fc .L0 
     /tmp/ccCNZIBa.s:925    .text:0000000000000404 .L0 
     /tmp/ccCNZIBa.s:928    .text:000000000000040c .L0 
     /tmp/ccCNZIBa.s:932    .text:0000000000000410 .L0 
     /tmp/ccCNZIBa.s:933    .text:0000000000000410 .L0 
     /tmp/ccCNZIBa.s:934    .text:0000000000000410 .L0 
     /tmp/ccCNZIBa.s:937    .text:0000000000000418 .L0 
     /tmp/ccCNZIBa.s:941    .text:0000000000000424 .L0 
     /tmp/ccCNZIBa.s:945    .text:000000000000042c .L0 
     /tmp/ccCNZIBa.s:946    .text:000000000000042c .L0 
     /tmp/ccCNZIBa.s:947    .text:000000000000042c .L0 
GAS LISTING /tmp/ccCNZIBa.s 			page 39


     /tmp/ccCNZIBa.s:950    .text:0000000000000434 .L0 
     /tmp/ccCNZIBa.s:954    .text:0000000000000440 .L0 
     /tmp/ccCNZIBa.s:958    .text:0000000000000448 .L0 
     /tmp/ccCNZIBa.s:959    .text:0000000000000448 .L0 
     /tmp/ccCNZIBa.s:960    .text:0000000000000448 .L0 
     /tmp/ccCNZIBa.s:963    .text:0000000000000450 .L0 
     /tmp/ccCNZIBa.s:964    .text:0000000000000450 .L0 
     /tmp/ccCNZIBa.s:966    .text:0000000000000454 .L0 
     /tmp/ccCNZIBa.s:969    .text:0000000000000458 .L0 
     /tmp/ccCNZIBa.s:970    .text:0000000000000458 .L0 
     /tmp/ccCNZIBa.s:971    .text:0000000000000458 .L0 
     /tmp/ccCNZIBa.s:974    .text:0000000000000460 .L0 
     /tmp/ccCNZIBa.s:975    .text:0000000000000460 .L0 
     /tmp/ccCNZIBa.s:977    .text:0000000000000464 .L0 
     /tmp/ccCNZIBa.s:980    .text:0000000000000468 .L0 
     /tmp/ccCNZIBa.s:981    .text:0000000000000468 .L0 
     /tmp/ccCNZIBa.s:982    .text:0000000000000468 .L0 
     /tmp/ccCNZIBa.s:987    .text:000000000000046c .L0 
     /tmp/ccCNZIBa.s:988    .text:000000000000046c .L0 
     /tmp/ccCNZIBa.s:994    .text:0000000000000474 .L0 
     /tmp/ccCNZIBa.s:995    .text:0000000000000474 .L0 
     /tmp/ccCNZIBa.s:1142   .bss._ZGVZN14periodicThread11getInstanceEvE8instance:0000000000000000 _ZGVZN14periodicThread11getInstanceEvE8instance
     /tmp/ccCNZIBa.s:996    .text:0000000000000474 .L0 
     /tmp/ccCNZIBa.s:1006   .text:000000000000048c .L0 
     /tmp/ccCNZIBa.s:1149   .bss._ZZN14periodicThread11getInstanceEvE8instance:0000000000000000 _ZZN14periodicThread11getInstanceEvE8instance
     /tmp/ccCNZIBa.s:1007   .text:000000000000048c .L0 
     /tmp/ccCNZIBa.s:1011   .text:000000000000049c .L0 
     /tmp/ccCNZIBa.s:1017   .text:00000000000004a0 .L0 
     /tmp/ccCNZIBa.s:1028   .text:00000000000004b0 .L0 
     /tmp/ccCNZIBa.s:1029   .text:00000000000004b0 .L0 
     /tmp/ccCNZIBa.s:1035   .text:00000000000004bc .L0 
     /tmp/ccCNZIBa.s:1041   .text:00000000000004c4 .L0 
     /tmp/ccCNZIBa.s:1042   .text:00000000000004c4 .L0 
     /tmp/ccCNZIBa.s:1050   .text:00000000000004d0 .L0 
     /tmp/ccCNZIBa.s:1066   .text:00000000000004d4 .L0 
     /tmp/ccCNZIBa.s:1067   .text:00000000000004d4 .L0 
     /tmp/ccCNZIBa.s:1073   .text:00000000000004e4 .L0 
     /tmp/ccCNZIBa.s:1074   .text:00000000000004e4 .L0 
     /tmp/ccCNZIBa.s:1075   .text:00000000000004e4 .L0 
     /tmp/ccCNZIBa.s:1085   .text:00000000000004ec .L0 
     /tmp/ccCNZIBa.s:1086   .text:00000000000004ec .L0 
     /tmp/ccCNZIBa.s:1087   .text:00000000000004ec .L0 
     /tmp/ccCNZIBa.s:1091   .text:00000000000004fc .L0 
     /tmp/ccCNZIBa.s:1095   .text:0000000000000504 .L0 
     /tmp/ccCNZIBa.s:1096   .text:0000000000000504 .L0 
     /tmp/ccCNZIBa.s:1099   .text:000000000000050c .L0 
     /tmp/ccCNZIBa.s:1106   .text:0000000000000524 .L0 
     /tmp/ccCNZIBa.s:1107   .text:0000000000000524 .L0 
     /tmp/ccCNZIBa.s:1109   .text:0000000000000528 .L0 
     /tmp/ccCNZIBa.s:1115   .text:0000000000000530 .L0 
     /tmp/ccCNZIBa.s:1116   .text:0000000000000530 .L0 
     /tmp/ccCNZIBa.s:1117   .text:0000000000000530 .L0 
     /tmp/ccCNZIBa.s:1134   .text:000000000000054c .L0 
     /tmp/ccCNZIBa.s:1175   .text:000000000000054c .L0 
     /tmp/ccCNZIBa.s:286    .text:0000000000000110 .L0 
     /tmp/ccCNZIBa.s:297    .text:000000000000012c .L0 
     /tmp/ccCNZIBa.s:458    .rodata:0000000000000000 .L14
GAS LISTING /tmp/ccCNZIBa.s 			page 40


     /tmp/ccCNZIBa.s:450    .text:00000000000001c0 .L0 
     /tmp/ccCNZIBa.s:665    .text:0000000000000224 .L0 
     /tmp/ccCNZIBa.s:673    .text:0000000000000234 .L0 
     /tmp/ccCNZIBa.s:686    .text:0000000000000248 .L0 
     /tmp/ccCNZIBa.s:690    .text:0000000000000250 .L0 
     /tmp/ccCNZIBa.s:692    .text:000000000000025c .L0 
     /tmp/ccCNZIBa.s:719    .text:0000000000000298 .L0 
     /tmp/ccCNZIBa.s:742    .text:00000000000002b8 .L0 
     /tmp/ccCNZIBa.s:753    .text:00000000000002c4 .L0 
     /tmp/ccCNZIBa.s:761    .text:00000000000002d4 .L0 
     /tmp/ccCNZIBa.s:774    .text:00000000000002e8 .L0 
     /tmp/ccCNZIBa.s:778    .text:00000000000002f0 .L0 
     /tmp/ccCNZIBa.s:780    .text:00000000000002fc .L0 
     /tmp/ccCNZIBa.s:807    .text:0000000000000338 .L0 
     /tmp/ccCNZIBa.s:830    .text:0000000000000358 .L0 
     /tmp/ccCNZIBa.s:996    .text:0000000000000474 .L0 
     /tmp/ccCNZIBa.s:1000   .text:0000000000000484 .L0 
     /tmp/ccCNZIBa.s:1007   .text:000000000000048c .L0 
     /tmp/ccCNZIBa.s:1067   .text:00000000000004d4 .L0 
     /tmp/ccCNZIBa.s:1087   .text:00000000000004ec .L0 
     /tmp/ccCNZIBa.s:1099   .text:000000000000050c .L0 
     /tmp/ccCNZIBa.s:1117   .text:0000000000000530 .L0 
     /tmp/ccCNZIBa.s:1121   .text:0000000000000540 .L0 
     /tmp/ccCNZIBa.s:266    .text:0000000000000108 .L43
     /tmp/ccCNZIBa.s:391    .text:0000000000000184 .L44
     /tmp/ccCNZIBa.s:1023   .text:00000000000004b0 .L45
     /tmp/ccCNZIBa.s:247    .text:00000000000000f0 .L7
     /tmp/ccCNZIBa.s:573    .text:00000000000001d8 .L11
     /tmp/ccCNZIBa.s:1013   .text:00000000000004a0 .L40
     /tmp/ccCNZIBa.s:1019   .text:00000000000004a8 .L41
     /tmp/ccCNZIBa.s:596    .text:00000000000001f4 .L46
     /tmp/ccCNZIBa.s:602    .text:00000000000001f8 .L12
     /tmp/ccCNZIBa.s:679    .text:0000000000000248 .L47
     /tmp/ccCNZIBa.s:715    .text:0000000000000294 .L32
     /tmp/ccCNZIBa.s:667    .text:0000000000000230 .L31
     /tmp/ccCNZIBa.s:767    .text:00000000000002e8 .L48
     /tmp/ccCNZIBa.s:803    .text:0000000000000334 .L34
     /tmp/ccCNZIBa.s:755    .text:00000000000002d0 .L33
     /tmp/ccCNZIBa.s:1002   .text:000000000000048c .L35
     /tmp/ccCNZIBa.s:576    .text:00000000000001e0 .L30
     /tmp/ccCNZIBa.s:1078   .text:00000000000004ec .L37
     /tmp/ccCNZIBa.s:1038   .text:00000000000004c4 .L36
     /tmp/ccCNZIBa.s:1051   .text:00000000000004d4 .L38
     /tmp/ccCNZIBa.s:655    .text:0000000000000224 .L29
     /tmp/ccCNZIBa.s:744    .text:00000000000002c4 .L28
     /tmp/ccCNZIBa.s:832    .text:0000000000000364 .L27
     /tmp/ccCNZIBa.s:849    .text:0000000000000388 .L26
     /tmp/ccCNZIBa.s:858    .text:0000000000000394 .L25
     /tmp/ccCNZIBa.s:867    .text:00000000000003a4 .L24
     /tmp/ccCNZIBa.s:878    .text:00000000000003b8 .L23
     /tmp/ccCNZIBa.s:888    .text:00000000000003c8 .L22
     /tmp/ccCNZIBa.s:898    .text:00000000000003d8 .L21
     /tmp/ccCNZIBa.s:908    .text:00000000000003e8 .L20
     /tmp/ccCNZIBa.s:918    .text:00000000000003fc .L19
     /tmp/ccCNZIBa.s:930    .text:0000000000000410 .L18
     /tmp/ccCNZIBa.s:943    .text:000000000000042c .L17
     /tmp/ccCNZIBa.s:956    .text:0000000000000448 .L16
GAS LISTING /tmp/ccCNZIBa.s 			page 41


     /tmp/ccCNZIBa.s:967    .text:0000000000000458 .L15
     /tmp/ccCNZIBa.s:978    .text:0000000000000468 .L13
     /tmp/ccCNZIBa.s:4208   .debug_abbrev:0000000000000000 .Ldebug_abbrev0
     /tmp/ccCNZIBa.s:6293   .debug_str:000000000000111a .LASF297
     /tmp/ccCNZIBa.s:6365   .debug_str:0000000000001444 .LASF298
     /tmp/ccCNZIBa.s:5835   .debug_str:00000000000000d2 .LASF299
     /tmp/ccCNZIBa.s:5      .text:0000000000000000 .Ltext0
     /tmp/ccCNZIBa.s:1166   .text:000000000000054c .Letext0
     /tmp/ccCNZIBa.s:5805   .debug_line:0000000000000000 .Ldebug_line0
     /tmp/ccCNZIBa.s:5985   .debug_str:000000000000063a .LASF0
     /tmp/ccCNZIBa.s:6021   .debug_str:0000000000000791 .LASF1
     /tmp/ccCNZIBa.s:6197   .debug_str:0000000000000e77 .LASF2
     /tmp/ccCNZIBa.s:6211   .debug_str:0000000000000eea .LASF4
     /tmp/ccCNZIBa.s:5999   .debug_str:00000000000006a3 .LASF3
     /tmp/ccCNZIBa.s:5823   .debug_str:0000000000000086 .LASF5
     /tmp/ccCNZIBa.s:6133   .debug_str:0000000000000be9 .LASF6
     /tmp/ccCNZIBa.s:6015   .debug_str:0000000000000766 .LASF7
     /tmp/ccCNZIBa.s:6057   .debug_str:00000000000008e1 .LASF8
     /tmp/ccCNZIBa.s:5941   .debug_str:000000000000044b .LASF9
     /tmp/ccCNZIBa.s:5951   .debug_str:00000000000004cb .LASF10
     /tmp/ccCNZIBa.s:5863   .debug_str:00000000000001bc .LASF11
     /tmp/ccCNZIBa.s:6307   .debug_str:000000000000127d .LASF12
     /tmp/ccCNZIBa.s:5929   .debug_str:00000000000003f5 .LASF13
     /tmp/ccCNZIBa.s:5877   .debug_str:000000000000022a .LASF14
     /tmp/ccCNZIBa.s:5861   .debug_str:00000000000001ac .LASF15
     /tmp/ccCNZIBa.s:6255   .debug_str:000000000000101d .LASF16
     /tmp/ccCNZIBa.s:5909   .debug_str:0000000000000331 .LASF17
     /tmp/ccCNZIBa.s:6243   .debug_str:0000000000000fd5 .LASF18
     /tmp/ccCNZIBa.s:6345   .debug_str:00000000000013a2 .LASF71
     /tmp/ccCNZIBa.s:6169   .debug_str:0000000000000d8f .LASF22
     /tmp/ccCNZIBa.s:6027   .debug_str:00000000000007b4 .LASF19
     /tmp/ccCNZIBa.s:5917   .debug_str:000000000000038d .LASF20
     /tmp/ccCNZIBa.s:6369   .debug_str:000000000000145e .LASF21
     /tmp/ccCNZIBa.s:6327   .debug_str:0000000000001302 .LASF23
     /tmp/ccCNZIBa.s:5921   .debug_str:00000000000003b2 .LASF24
     /tmp/ccCNZIBa.s:6277   .debug_str:00000000000010a3 .LASF25
     /tmp/ccCNZIBa.s:5891   .debug_str:0000000000000292 .LASF26
     /tmp/ccCNZIBa.s:6321   .debug_str:00000000000012c4 .LASF27
     /tmp/ccCNZIBa.s:5983   .debug_str:000000000000061e .LASF29
     /tmp/ccCNZIBa.s:5809   .debug_str:0000000000000019 .LASF28
     /tmp/ccCNZIBa.s:6077   .debug_str:00000000000009da .LASF30
     /tmp/ccCNZIBa.s:6223   .debug_str:0000000000000f37 .LASF31
     /tmp/ccCNZIBa.s:5915   .debug_str:0000000000000372 .LASF32
     /tmp/ccCNZIBa.s:5989   .debug_str:0000000000000653 .LASF33
     /tmp/ccCNZIBa.s:6357   .debug_str:00000000000013f3 .LASF34
     /tmp/ccCNZIBa.s:5965   .debug_str:0000000000000560 .LASF35
     /tmp/ccCNZIBa.s:5979   .debug_str:00000000000005e6 .LASF36
     /tmp/ccCNZIBa.s:6315   .debug_str:00000000000012a7 .LASF37
     /tmp/ccCNZIBa.s:6301   .debug_str:0000000000001229 .LASF39
     /tmp/ccCNZIBa.s:6191   .debug_str:0000000000000e4a .LASF41
     /tmp/ccCNZIBa.s:6109   .debug_str:0000000000000af6 .LASF43
     /tmp/ccCNZIBa.s:6159   .debug_str:0000000000000d32 .LASF38
     /tmp/ccCNZIBa.s:6163   .debug_str:0000000000000d5e .LASF40
     /tmp/ccCNZIBa.s:6101   .debug_str:0000000000000abb .LASF42
     /tmp/ccCNZIBa.s:6017   .debug_str:0000000000000779 .LASF44
     /tmp/ccCNZIBa.s:6363   .debug_str:000000000000143c .LASF45
     /tmp/ccCNZIBa.s:6285   .debug_str:00000000000010e0 .LASF46
GAS LISTING /tmp/ccCNZIBa.s 			page 42


     /tmp/ccCNZIBa.s:6093   .debug_str:0000000000000a8e .LASF47
     /tmp/ccCNZIBa.s:6107   .debug_str:0000000000000ae2 .LASF48
     /tmp/ccCNZIBa.s:6039   .debug_str:000000000000082c .LASF49
     /tmp/ccCNZIBa.s:6167   .debug_str:0000000000000d7b .LASF50
     /tmp/ccCNZIBa.s:6403   .debug_str:00000000000015ac .LASF51
     /tmp/ccCNZIBa.s:5993   .debug_str:0000000000000666 .LASF52
     /tmp/ccCNZIBa.s:6251   .debug_str:0000000000001008 .LASF53
     /tmp/ccCNZIBa.s:6217   .debug_str:0000000000000f14 .LASF54
     /tmp/ccCNZIBa.s:6219   .debug_str:0000000000000f27 .LASF55
     /tmp/ccCNZIBa.s:5869   .debug_str:00000000000001e2 .LASF56
     /tmp/ccCNZIBa.s:5901   .debug_str:00000000000002f1 .LASF57
     /tmp/ccCNZIBa.s:5975   .debug_str:00000000000005b9 .LASF58
     /tmp/ccCNZIBa.s:5991   .debug_str:0000000000000660 .LASF59
     /tmp/ccCNZIBa.s:5893   .debug_str:000000000000029e .LASF60
     /tmp/ccCNZIBa.s:5825   .debug_str:000000000000008d .LASF61
     /tmp/ccCNZIBa.s:6203   .debug_str:0000000000000e9c .LASF62
     /tmp/ccCNZIBa.s:6195   .debug_str:0000000000000e6c .LASF63
     /tmp/ccCNZIBa.s:6391   .debug_str:0000000000001534 .LASF64
     /tmp/ccCNZIBa.s:6347   .debug_str:00000000000013a8 .LASF65
     /tmp/ccCNZIBa.s:6371   .debug_str:0000000000001467 .LASF66
     /tmp/ccCNZIBa.s:6337   .debug_str:0000000000001351 .LASF67
     /tmp/ccCNZIBa.s:6069   .debug_str:0000000000000974 .LASF68
     /tmp/ccCNZIBa.s:6311   .debug_str:0000000000001291 .LASF69
     /tmp/ccCNZIBa.s:5949   .debug_str:00000000000004af .LASF70
     /tmp/ccCNZIBa.s:6137   .debug_str:0000000000000c21 .LASF160
     /tmp/ccCNZIBa.s:6009   .debug_str:00000000000006f8 .LASF162
     /tmp/ccCNZIBa.s:6125   .debug_str:0000000000000b86 .LASF72
     /tmp/ccCNZIBa.s:6273   .debug_str:0000000000001093 .LASF101
     /tmp/ccCNZIBa.s:6019   .debug_str:000000000000078c .LASF73
     /tmp/ccCNZIBa.s:5865   .debug_str:00000000000001cb .LASF74
     /tmp/ccCNZIBa.s:5841   .debug_str:0000000000000125 .LASF75
     /tmp/ccCNZIBa.s:6367   .debug_str:0000000000001452 .LASF76
     /tmp/ccCNZIBa.s:6071   .debug_str:000000000000098a .LASF77
     /tmp/ccCNZIBa.s:6001   .debug_str:00000000000006b5 .LASF79
     /tmp/ccCNZIBa.s:6201   .debug_str:0000000000000e92 .LASF78
     /tmp/ccCNZIBa.s:6323   .debug_str:00000000000012d3 .LASF80
     /tmp/ccCNZIBa.s:5883   .debug_str:000000000000025b .LASF81
     /tmp/ccCNZIBa.s:6067   .debug_str:000000000000094f .LASF82
     /tmp/ccCNZIBa.s:5833   .debug_str:00000000000000c6 .LASF83
     /tmp/ccCNZIBa.s:6161   .debug_str:0000000000000d39 .LASF84
     /tmp/ccCNZIBa.s:6193   .debug_str:0000000000000e53 .LASF85
     /tmp/ccCNZIBa.s:5945   .debug_str:0000000000000472 .LASF86
     /tmp/ccCNZIBa.s:5943   .debug_str:000000000000045b .LASF87
     /tmp/ccCNZIBa.s:6011   .debug_str:000000000000071a .LASF88
     /tmp/ccCNZIBa.s:6239   .debug_str:0000000000000fb1 .LASF89
     /tmp/ccCNZIBa.s:6351   .debug_str:00000000000013c7 .LASF90
     /tmp/ccCNZIBa.s:6397   .debug_str:0000000000001567 .LASF91
     /tmp/ccCNZIBa.s:5837   .debug_str:0000000000000106 .LASF156
     /tmp/ccCNZIBa.s:5927   .debug_str:00000000000003e8 .LASF92
     /tmp/ccCNZIBa.s:5925   .debug_str:00000000000003db .LASF300
     /tmp/ccCNZIBa.s:5939   .debug_str:0000000000000441 .LASF93
     /tmp/ccCNZIBa.s:6013   .debug_str:0000000000000749 .LASF94
     /tmp/ccCNZIBa.s:5859   .debug_str:0000000000000197 .LASF95
     /tmp/ccCNZIBa.s:6209   .debug_str:0000000000000ed5 .LASF96
     /tmp/ccCNZIBa.s:6383   .debug_str:00000000000014f2 .LASF182
     /tmp/ccCNZIBa.s:5973   .debug_str:00000000000005a1 .LASF193
     /tmp/ccCNZIBa.s:6065   .debug_str:000000000000093c .LASF97
GAS LISTING /tmp/ccCNZIBa.s 			page 43


     /tmp/ccCNZIBa.s:6083   .debug_str:0000000000000a25 .LASF98
     /tmp/ccCNZIBa.s:6249   .debug_str:0000000000001003 .LASF99
     /tmp/ccCNZIBa.s:6095   .debug_str:0000000000000a96 .LASF100
     /tmp/ccCNZIBa.s:6261   .debug_str:0000000000001041 .LASF102
     /tmp/ccCNZIBa.s:6253   .debug_str:000000000000100f .LASF103
     /tmp/ccCNZIBa.s:6119   .debug_str:0000000000000b3e .LASF109
     /tmp/ccCNZIBa.s:6059   .debug_str:00000000000008f5 .LASF104
     /tmp/ccCNZIBa.s:6149   .debug_str:0000000000000cac .LASF105
     /tmp/ccCNZIBa.s:6171   .debug_str:0000000000000d9a .LASF106
     /tmp/ccCNZIBa.s:6227   .debug_str:0000000000000f55 .LASF107
     /tmp/ccCNZIBa.s:6185   .debug_str:0000000000000e13 .LASF108
     /tmp/ccCNZIBa.s:6215   .debug_str:0000000000000efe .LASF110
     /tmp/ccCNZIBa.s:6393   .debug_str:000000000000154c .LASF111
     /tmp/ccCNZIBa.s:6241   .debug_str:0000000000000fbb .LASF112
     /tmp/ccCNZIBa.s:6333   .debug_str:000000000000133c .LASF113
     /tmp/ccCNZIBa.s:5887   .debug_str:0000000000000275 .LASF114
     /tmp/ccCNZIBa.s:6173   .debug_str:0000000000000daa .LASF115
     /tmp/ccCNZIBa.s:6087   .debug_str:0000000000000a54 .LASF116
     /tmp/ccCNZIBa.s:6153   .debug_str:0000000000000ce2 .LASF117
     /tmp/ccCNZIBa.s:5981   .debug_str:00000000000005fe .LASF118
     /tmp/ccCNZIBa.s:6325   .debug_str:00000000000012ef .LASF119
     /tmp/ccCNZIBa.s:6151   .debug_str:0000000000000cc3 .LASF120
     /tmp/ccCNZIBa.s:6257   .debug_str:0000000000001029 .LASF121
     /tmp/ccCNZIBa.s:6183   .debug_str:0000000000000df7 .LASF122
     /tmp/ccCNZIBa.s:6005   .debug_str:00000000000006da .LASF123
     /tmp/ccCNZIBa.s:6113   .debug_str:0000000000000b11 .LASF124
     /tmp/ccCNZIBa.s:5913   .debug_str:0000000000000361 .LASF125
     /tmp/ccCNZIBa.s:6281   .debug_str:00000000000010bd .LASF126
     /tmp/ccCNZIBa.s:6247   .debug_str:0000000000000ff2 .LASF127
     /tmp/ccCNZIBa.s:5923   .debug_str:00000000000003be .LASF128
     /tmp/ccCNZIBa.s:6091   .debug_str:0000000000000a7f .LASF129
     /tmp/ccCNZIBa.s:6175   .debug_str:0000000000000db6 .LASF130
     /tmp/ccCNZIBa.s:6007   .debug_str:00000000000006e9 .LASF131
     /tmp/ccCNZIBa.s:5911   .debug_str:0000000000000347 .LASF132
     /tmp/ccCNZIBa.s:6287   .debug_str:00000000000010f4 .LASF133
     /tmp/ccCNZIBa.s:5995   .debug_str:000000000000067a .LASF134
     /tmp/ccCNZIBa.s:6331   .debug_str:000000000000132f .LASF135
     /tmp/ccCNZIBa.s:6303   .debug_str:000000000000123e .LASF136
     /tmp/ccCNZIBa.s:6225   .debug_str:0000000000000f45 .LASF137
     /tmp/ccCNZIBa.s:6047   .debug_str:000000000000086c .LASF138
     /tmp/ccCNZIBa.s:6097   .debug_str:0000000000000a9b .LASF139
     /tmp/ccCNZIBa.s:6143   .debug_str:0000000000000c67 .LASF140
     /tmp/ccCNZIBa.s:6025   .debug_str:00000000000007ae .LASF141
     /tmp/ccCNZIBa.s:6189   .debug_str:0000000000000e3a .LASF142
     /tmp/ccCNZIBa.s:6395   .debug_str:000000000000155a .LASF143
     /tmp/ccCNZIBa.s:5947   .debug_str:00000000000004a3 .LASF144
     /tmp/ccCNZIBa.s:5851   .debug_str:0000000000000165 .LASF145
     /tmp/ccCNZIBa.s:5935   .debug_str:0000000000000427 .LASF146
     /tmp/ccCNZIBa.s:5817   .debug_str:000000000000004f .LASF147
     /tmp/ccCNZIBa.s:6049   .debug_str:0000000000000889 .LASF148
     /tmp/ccCNZIBa.s:6089   .debug_str:0000000000000a6c .LASF149
     /tmp/ccCNZIBa.s:6199   .debug_str:0000000000000e85 .LASF150
     /tmp/ccCNZIBa.s:6275   .debug_str:000000000000109b .LASF151
     /tmp/ccCNZIBa.s:5931   .debug_str:0000000000000404 .LASF152
     /tmp/ccCNZIBa.s:6271   .debug_str:0000000000001089 .LASF153
     /tmp/ccCNZIBa.s:5897   .debug_str:00000000000002c2 .LASF154
     /tmp/ccCNZIBa.s:6117   .debug_str:0000000000000b39 .LASF301
GAS LISTING /tmp/ccCNZIBa.s 			page 44


     /tmp/ccCNZIBa.s:5987   .debug_str:0000000000000647 .LASF155
     /tmp/ccCNZIBa.s:6387   .debug_str:000000000000150c .LASF157
     /tmp/ccCNZIBa.s:6045   .debug_str:000000000000085d .LASF158
     /tmp/ccCNZIBa.s:6029   .debug_str:00000000000007bd .LASF159
     /tmp/ccCNZIBa.s:5899   .debug_str:00000000000002e2 .LASF161
     /tmp/ccCNZIBa.s:6081   .debug_str:0000000000000a0b .LASF163
     /tmp/ccCNZIBa.s:5997   .debug_str:0000000000000695 .LASF164
     /tmp/ccCNZIBa.s:6051   .debug_str:0000000000000896 .LASF165
     /tmp/ccCNZIBa.s:6043   .debug_str:000000000000084a .LASF166
     /tmp/ccCNZIBa.s:5849   .debug_str:000000000000015b .LASF167
     /tmp/ccCNZIBa.s:5815   .debug_str:000000000000004a .LASF168
     /tmp/ccCNZIBa.s:6003   .debug_str:00000000000006d1 .LASF169
     /tmp/ccCNZIBa.s:6385   .debug_str:0000000000001506 .LASF170
     /tmp/ccCNZIBa.s:6299   .debug_str:0000000000001221 .LASF171
     /tmp/ccCNZIBa.s:6259   .debug_str:0000000000001038 .LASF172
     /tmp/ccCNZIBa.s:6263   .debug_str:0000000000001049 .LASF173
     /tmp/ccCNZIBa.s:5971   .debug_str:0000000000000596 .LASF174
     /tmp/ccCNZIBa.s:5885   .debug_str:0000000000000268 .LASF175
     /tmp/ccCNZIBa.s:5839   .debug_str:000000000000011f .LASF176
     /tmp/ccCNZIBa.s:6179   .debug_str:0000000000000dd6 .LASF177
     /tmp/ccCNZIBa.s:6231   .debug_str:0000000000000f8e .LASF178
     /tmp/ccCNZIBa.s:6031   .debug_str:00000000000007e6 .LASF179
     /tmp/ccCNZIBa.s:6205   .debug_str:0000000000000eb4 .LASF180
     /tmp/ccCNZIBa.s:6297   .debug_str:000000000000120b .LASF181
     /tmp/ccCNZIBa.s:5811   .debug_str:000000000000002f .LASF183
     /tmp/ccCNZIBa.s:5831   .debug_str:00000000000000b8 .LASF184
     /tmp/ccCNZIBa.s:6379   .debug_str:00000000000014c3 .LASF302
     /tmp/ccCNZIBa.s:6207   .debug_str:0000000000000ec0 .LASF185
     /tmp/ccCNZIBa.s:6085   .debug_str:0000000000000a35 .LASF186
     /tmp/ccCNZIBa.s:5855   .debug_str:000000000000017c .LASF187
     /tmp/ccCNZIBa.s:6289   .debug_str:0000000000001103 .LASF188
     /tmp/ccCNZIBa.s:6105   .debug_str:0000000000000ad3 .LASF189
     /tmp/ccCNZIBa.s:5963   .debug_str:000000000000053d .LASF190
     /tmp/ccCNZIBa.s:6073   .debug_str:00000000000009ae .LASF191
     /tmp/ccCNZIBa.s:5977   .debug_str:00000000000005cb .LASF192
     /tmp/ccCNZIBa.s:6341   .debug_str:0000000000001369 .LASF194
     /tmp/ccCNZIBa.s:6377   .debug_str:00000000000014a9 .LASF195
     /tmp/ccCNZIBa.s:6145   .debug_str:0000000000000c83 .LASF196
     /tmp/ccCNZIBa.s:6177   .debug_str:0000000000000dd1 .LASF197
     /tmp/ccCNZIBa.s:5871   .debug_str:00000000000001f5 .LASF198
     /tmp/ccCNZIBa.s:6309   .debug_str:0000000000001288 .LASF199
     /tmp/ccCNZIBa.s:5875   .debug_str:000000000000020a .LASF200
     /tmp/ccCNZIBa.s:6165   .debug_str:0000000000000d71 .LASF201
     /tmp/ccCNZIBa.s:6053   .debug_str:00000000000008af .LASF202
     /tmp/ccCNZIBa.s:6409   .debug_str:00000000000015d0 .LASF203
     /tmp/ccCNZIBa.s:5933   .debug_str:0000000000000409 .LASF204
     /tmp/ccCNZIBa.s:5959   .debug_str:000000000000052a .LASF205
     /tmp/ccCNZIBa.s:5953   .debug_str:00000000000004d9 .LASF206
     /tmp/ccCNZIBa.s:6317   .debug_str:00000000000012b0 .LASF207
     /tmp/ccCNZIBa.s:6305   .debug_str:0000000000001256 .LASF208
     /tmp/ccCNZIBa.s:6267   .debug_str:000000000000105d .LASF209
     /tmp/ccCNZIBa.s:6399   .debug_str:000000000000156f .LASF210
     /tmp/ccCNZIBa.s:6111   .debug_str:0000000000000b0b .LASF211
     /tmp/ccCNZIBa.s:5847   .debug_str:0000000000000142 .LASF212
     /tmp/ccCNZIBa.s:5819   .debug_str:000000000000005f .LASF213
     /tmp/ccCNZIBa.s:5969   .debug_str:000000000000057b .LASF214
     /tmp/ccCNZIBa.s:6079   .debug_str:00000000000009fd .LASF215
GAS LISTING /tmp/ccCNZIBa.s 			page 45


     /tmp/ccCNZIBa.s:6141   .debug_str:0000000000000c44 .LASF216
     /tmp/ccCNZIBa.s:6339   .debug_str:000000000000135b .LASF217
     /tmp/ccCNZIBa.s:5957   .debug_str:0000000000000508 .LASF218
     /tmp/ccCNZIBa.s:5961   .debug_str:0000000000000535 .LASF219
     /tmp/ccCNZIBa.s:5919   .debug_str:0000000000000396 .LASF220
     /tmp/ccCNZIBa.s:5907   .debug_str:0000000000000329 .LASF221
     /tmp/ccCNZIBa.s:6343   .debug_str:0000000000001387 .LASF222
     /tmp/ccCNZIBa.s:6349   .debug_str:00000000000013b2 .LASF223
     /tmp/ccCNZIBa.s:6123   .debug_str:0000000000000b71 .LASF224
     /tmp/ccCNZIBa.s:6041   .debug_str:0000000000000834 .LASF225
     /tmp/ccCNZIBa.s:6181   .debug_str:0000000000000de1 .LASF226
     /tmp/ccCNZIBa.s:5937   .debug_str:0000000000000433 .LASF227
     /tmp/ccCNZIBa.s:5903   .debug_str:00000000000002f7 .LASF228
     /tmp/ccCNZIBa.s:6035   .debug_str:00000000000007fa .LASF229
     /tmp/ccCNZIBa.s:5905   .debug_str:0000000000000319 .LASF230
     /tmp/ccCNZIBa.s:6135   .debug_str:0000000000000bfc .LASF231
     /tmp/ccCNZIBa.s:6405   .debug_str:00000000000015b4 .LASF232
     /tmp/ccCNZIBa.s:6411   .debug_str:00000000000015d9 .LASF233
     /tmp/ccCNZIBa.s:6389   .debug_str:0000000000001524 .LASF234
     /tmp/ccCNZIBa.s:6407   .debug_str:00000000000015c6 .LASF235
     /tmp/ccCNZIBa.s:6221   .debug_str:0000000000000f2e .LASF236
     /tmp/ccCNZIBa.s:6237   .debug_str:0000000000000faa .LASF237
     /tmp/ccCNZIBa.s:5827   .debug_str:0000000000000098 .LASF238
     /tmp/ccCNZIBa.s:5881   .debug_str:000000000000024d .LASF239
     /tmp/ccCNZIBa.s:6023   .debug_str:00000000000007a4 .LASF240
     /tmp/ccCNZIBa.s:6121   .debug_str:0000000000000b67 .LASF241
     /tmp/ccCNZIBa.s:5813   .debug_str:000000000000003d .LASF242
     /tmp/ccCNZIBa.s:6115   .debug_str:0000000000000b2c .LASF243
     /tmp/ccCNZIBa.s:6329   .debug_str:0000000000001311 .LASF244
     /tmp/ccCNZIBa.s:6233   .debug_str:0000000000000f93 .LASF245
     /tmp/ccCNZIBa.s:6361   .debug_str:000000000000141c .LASF246
     /tmp/ccCNZIBa.s:6103   .debug_str:0000000000000ac2 .LASF247
     /tmp/ccCNZIBa.s:6295   .debug_str:00000000000011ea .LASF248
     /tmp/ccCNZIBa.s:5845   .debug_str:000000000000012f .LASF249
     /tmp/ccCNZIBa.s:6355   .debug_str:00000000000013e0 .LASF250
     /tmp/ccCNZIBa.s:6313   .debug_str:00000000000012a0 .LASF251
     /tmp/ccCNZIBa.s:6127   .debug_str:0000000000000b96 .LASF252
     /tmp/ccCNZIBa.s:5829   .debug_str:00000000000000a7 .LASF253
     /tmp/ccCNZIBa.s:6075   .debug_str:00000000000009c9 .LASF254
     /tmp/ccCNZIBa.s:5867   .debug_str:00000000000001d0 .LASF255
     /tmp/ccCNZIBa.s:5895   .debug_str:00000000000002b0 .LASF256
     /tmp/ccCNZIBa.s:6335   .debug_str:0000000000001349 .LASF257
     /tmp/ccCNZIBa.s:6269   .debug_str:000000000000106e .LASF258
     /tmp/ccCNZIBa.s:5879   .debug_str:000000000000023a .LASF259
     /tmp/ccCNZIBa.s:6055   .debug_str:00000000000008ce .LASF260
     /tmp/ccCNZIBa.s:6213   .debug_str:0000000000000ef1 .LASF261
     /tmp/ccCNZIBa.s:6187   .debug_str:0000000000000e1e .LASF262
     /tmp/ccCNZIBa.s:6353   .debug_str:00000000000013d1 .LASF263
     /tmp/ccCNZIBa.s:6229   .debug_str:0000000000000f70 .LASF264
     /tmp/ccCNZIBa.s:5955   .debug_str:00000000000004fa .LASF265
     /tmp/ccCNZIBa.s:6037   .debug_str:000000000000080f .LASF266
     /tmp/ccCNZIBa.s:6099   .debug_str:0000000000000aab .LASF267
     /tmp/ccCNZIBa.s:5821   .debug_str:0000000000000067 .LASF268
     /tmp/ccCNZIBa.s:5967   .debug_str:000000000000056b .LASF269
     /tmp/ccCNZIBa.s:6155   .debug_str:0000000000000cf5 .LASF270
     /tmp/ccCNZIBa.s:6359   .debug_str:000000000000140d .LASF271
     /tmp/ccCNZIBa.s:6157   .debug_str:0000000000000d14 .LASF272
GAS LISTING /tmp/ccCNZIBa.s 			page 46


     /tmp/ccCNZIBa.s:5857   .debug_str:0000000000000188 .LASF273
     /tmp/ccCNZIBa.s:6375   .debug_str:000000000000148b .LASF274
     /tmp/ccCNZIBa.s:6373   .debug_str:000000000000147d .LASF275
     /tmp/ccCNZIBa.s:6381   .debug_str:00000000000014d4 .LASF276
     /tmp/ccCNZIBa.s:6291   .debug_str:000000000000110c .LASF277
     /tmp/ccCNZIBa.s:6147   .debug_str:0000000000000c9b .LASF278
     /tmp/ccCNZIBa.s:6061   .debug_str:0000000000000901 .LASF279
     /tmp/ccCNZIBa.s:6131   .debug_str:0000000000000bdb .LASF280
     /tmp/ccCNZIBa.s:6265   .debug_str:0000000000001058 .LASF281
     /tmp/ccCNZIBa.s:123    .text:0000000000000060 .LFB63
     /tmp/ccCNZIBa.s:1135   .text:000000000000054c .LFE63
     /tmp/ccCNZIBa.s:6319   .debug_str:00000000000012bf .LASF282
     /tmp/ccCNZIBa.s:6245   .debug_str:0000000000000feb .LASF283
     /tmp/ccCNZIBa.s:5486   .debug_loc:0000000000000000 .LLST2
     /tmp/ccCNZIBa.s:313    .text:0000000000000144 .LBB189
     /tmp/ccCNZIBa.s:394    .text:0000000000000184 .LBE189
     /tmp/ccCNZIBa.s:6283   .debug_str:00000000000010db .LASF284
     /tmp/ccCNZIBa.s:6235   .debug_str:0000000000000fa2 .LASF285
     /tmp/ccCNZIBa.s:315    .text:0000000000000144 .LBB190
     /tmp/ccCNZIBa.s:330    .text:0000000000000150 .LBE190
     /tmp/ccCNZIBa.s:334    .text:0000000000000154 .LBB192
     /tmp/ccCNZIBa.s:349    .text:0000000000000160 .LBE192
     /tmp/ccCNZIBa.s:363    .text:0000000000000174 .LBB194
     /tmp/ccCNZIBa.s:374    .text:0000000000000178 .LBE194
     /tmp/ccCNZIBa.s:5505   .debug_loc:000000000000005c .LLST20
     /tmp/ccCNZIBa.s:379    .text:000000000000017c .LBB196
     /tmp/ccCNZIBa.s:393    .text:0000000000000184 .LBE196
     /tmp/ccCNZIBa.s:5512   .debug_loc:000000000000007f .LLST21
     /tmp/ccCNZIBa.s:358    .text:0000000000000170 .LVL11
     /tmp/ccCNZIBa.s:398    .text:0000000000000184 .LBB147
     /tmp/ccCNZIBa.s:1024   .text:00000000000004b0 .LBE147
     /tmp/ccCNZIBa.s:5853   .debug_str:0000000000000175 .LASF286
     /tmp/ccCNZIBa.s:5519   .debug_loc:00000000000000a2 .LLST7
     /tmp/ccCNZIBa.s:401    .text:0000000000000184 .LBB148
     /tmp/ccCNZIBa.s:416    .text:0000000000000190 .LBE148
     /tmp/ccCNZIBa.s:422    .text:0000000000000198 .LBB150
     /tmp/ccCNZIBa.s:437    .text:00000000000001a4 .LBE150
     /tmp/ccCNZIBa.s:580    .text:00000000000001e0 .LBB152
     /tmp/ccCNZIBa.s:5767   .debug_ranges:0000000000000000 .Ldebug_ranges0
     /tmp/ccCNZIBa.s:5617   .debug_loc:000000000000024c .LLST8
     /tmp/ccCNZIBa.s:5625   .debug_loc:0000000000000270 .LLST9
     /tmp/ccCNZIBa.s:619    .text:0000000000000204 .LBB156
     /tmp/ccCNZIBa.s:630    .text:0000000000000208 .LBE156
     /tmp/ccCNZIBa.s:5633   .debug_loc:0000000000000295 .LLST10
     /tmp/ccCNZIBa.s:643    .text:000000000000021c .LBB158
     /tmp/ccCNZIBa.s:657    .text:0000000000000224 .LBE158
     /tmp/ccCNZIBa.s:5640   .debug_loc:00000000000002b8 .LLST11
     /tmp/ccCNZIBa.s:660    .text:0000000000000224 .LBB160
     /tmp/ccCNZIBa.s:682    .text:0000000000000248 .LBB162
     /tmp/ccCNZIBa.s:739    .text:00000000000002b4 .LBE162
     /tmp/ccCNZIBa.s:5647   .debug_loc:00000000000002db .LLST12
     /tmp/ccCNZIBa.s:687    .text:0000000000000250 .LBB165
     /tmp/ccCNZIBa.s:736    .text:00000000000002b4 .LBE165
     /tmp/ccCNZIBa.s:5656   .debug_loc:0000000000000307 .LLST13
     /tmp/ccCNZIBa.s:749    .text:00000000000002c4 .LBB168
     /tmp/ccCNZIBa.s:770    .text:00000000000002e8 .LBB170
     /tmp/ccCNZIBa.s:827    .text:0000000000000354 .LBE170
GAS LISTING /tmp/ccCNZIBa.s 			page 47


     /tmp/ccCNZIBa.s:5663   .debug_loc:000000000000032a .LLST14
     /tmp/ccCNZIBa.s:775    .text:00000000000002f0 .LBB173
     /tmp/ccCNZIBa.s:824    .text:0000000000000354 .LBE173
     /tmp/ccCNZIBa.s:5672   .debug_loc:0000000000000356 .LLST15
     /tmp/ccCNZIBa.s:984    .text:000000000000046c .LBB176
     /tmp/ccCNZIBa.s:1015   .text:00000000000004a0 .LBE176
     /tmp/ccCNZIBa.s:5679   .debug_loc:0000000000000379 .LLST16
     /tmp/ccCNZIBa.s:5687   .debug_loc:000000000000039d .LLST17
     /tmp/ccCNZIBa.s:991    .text:0000000000000474 .LBB178
     /tmp/ccCNZIBa.s:1005   .text:000000000000048c .LBE178
     /tmp/ccCNZIBa.s:1009   .text:000000000000049c .LVL58
     /tmp/ccCNZIBa.s:675    .text:0000000000000244 .LVL24
     /tmp/ccCNZIBa.s:763    .text:00000000000002e4 .LVL28
     /tmp/ccCNZIBa.s:845    .text:0000000000000384 .LVL32
     /tmp/ccCNZIBa.s:854    .text:0000000000000390 .LVL34
     /tmp/ccCNZIBa.s:863    .text:000000000000039c .LVL36
     /tmp/ccCNZIBa.s:874    .text:00000000000003b4 .LVL37
     /tmp/ccCNZIBa.s:884    .text:00000000000003c4 .LVL39
     /tmp/ccCNZIBa.s:894    .text:00000000000003d4 .LVL41
     /tmp/ccCNZIBa.s:904    .text:00000000000003e4 .LVL43
     /tmp/ccCNZIBa.s:914    .text:00000000000003f4 .LVL45
     /tmp/ccCNZIBa.s:923    .text:0000000000000404 .LVL46
     /tmp/ccCNZIBa.s:926    .text:000000000000040c .LVL47
     /tmp/ccCNZIBa.s:935    .text:0000000000000418 .LVL49
     /tmp/ccCNZIBa.s:939    .text:0000000000000424 .LVL50
     /tmp/ccCNZIBa.s:948    .text:0000000000000434 .LVL51
     /tmp/ccCNZIBa.s:952    .text:0000000000000440 .LVL52
     /tmp/ccCNZIBa.s:961    .text:0000000000000450 .LVL53
     /tmp/ccCNZIBa.s:972    .text:0000000000000460 .LVL54
     /tmp/ccCNZIBa.s:5699   .debug_loc:00000000000003d5 .LLST3
     /tmp/ccCNZIBa.s:5706   .debug_loc:00000000000003f8 .LLST4
     /tmp/ccCNZIBa.s:1061   .text:00000000000004d4 .LBB136
     /tmp/ccCNZIBa.s:1071   .text:00000000000004e4 .LBB139
     /tmp/ccCNZIBa.s:1080   .text:00000000000004ec .LBE139
     /tmp/ccCNZIBa.s:5713   .debug_loc:000000000000041b .LLST5
     /tmp/ccCNZIBa.s:1069   .text:00000000000004e4 .LVL65
     /tmp/ccCNZIBa.s:1030   .text:00000000000004b8 .LVL61
     /tmp/ccCNZIBa.s:1044   .text:00000000000004d0 .LVL64
     /tmp/ccCNZIBa.s:1097   .text:000000000000050c .LVL67
     /tmp/ccCNZIBa.s:1103   .text:0000000000000524 .LVL68
     /tmp/ccCNZIBa.s:204    .text:00000000000000b8 .LBB125
     /tmp/ccCNZIBa.s:220    .text:00000000000000c4 .LBE125
     /tmp/ccCNZIBa.s:271    .text:0000000000000108 .LBB184
     /tmp/ccCNZIBa.s:283    .text:0000000000000110 .LBE184
     /tmp/ccCNZIBa.s:5721   .debug_loc:000000000000043f .LLST18
     /tmp/ccCNZIBa.s:300    .text:0000000000000138 .LBB187
     /tmp/ccCNZIBa.s:308    .text:000000000000013c .LBE187
     /tmp/ccCNZIBa.s:5729   .debug_loc:0000000000000463 .LLST19
     /tmp/ccCNZIBa.s:293    .text:000000000000012c .LVL8
     /tmp/ccCNZIBa.s:88     .text:0000000000000040 .LFB62
     /tmp/ccCNZIBa.s:117    .text:0000000000000060 .LFE62
     /tmp/ccCNZIBa.s:50     .text:0000000000000020 .LFB61
     /tmp/ccCNZIBa.s:82     .text:0000000000000040 .LFE61
     /tmp/ccCNZIBa.s:61     .text:000000000000002c .LBB64
     /tmp/ccCNZIBa.s:73     .text:0000000000000034 .LBE64
     /tmp/ccCNZIBa.s:5736   .debug_loc:0000000000000486 .LLST1
     /tmp/ccCNZIBa.s:10     .text:0000000000000000 .LFB60
GAS LISTING /tmp/ccCNZIBa.s 			page 48


     /tmp/ccCNZIBa.s:44     .text:0000000000000020 .LFE60
     /tmp/ccCNZIBa.s:22     .text:000000000000000c .LBB62
     /tmp/ccCNZIBa.s:35     .text:0000000000000014 .LBE62
     /tmp/ccCNZIBa.s:5745   .debug_loc:00000000000004ac .LLST0
     /tmp/ccCNZIBa.s:5889   .debug_str:000000000000028d .LASF287
     /tmp/ccCNZIBa.s:6401   .debug_str:0000000000001594 .LASF288
     /tmp/ccCNZIBa.s:5873   .debug_str:0000000000000201 .LASF290
     /tmp/ccCNZIBa.s:6063   .debug_str:000000000000090e .LASF291
     /tmp/ccCNZIBa.s:6279   .debug_str:00000000000010b0 .LASF293
     /tmp/ccCNZIBa.s:5807   .debug_str:0000000000000000 .LASF289
     /tmp/ccCNZIBa.s:6129   .debug_str:0000000000000bac .LASF292
     /tmp/ccCNZIBa.s:5843   .debug_str:000000000000012a .LASF294
     /tmp/ccCNZIBa.s:6033   .debug_str:00000000000007ef .LASF295
     /tmp/ccCNZIBa.s:6139   .debug_str:0000000000000c36 .LASF296
     /tmp/ccCNZIBa.s:218    .text:00000000000000c4 .LVL4
     /tmp/ccCNZIBa.s:246    .text:00000000000000f0 .LVL5
     /tmp/ccCNZIBa.s:265    .text:0000000000000108 .LVL6
     /tmp/ccCNZIBa.s:390    .text:0000000000000184 .LVL15
     /tmp/ccCNZIBa.s:445    .text:00000000000001b0 .LVL16
     /tmp/ccCNZIBa.s:1022   .text:00000000000004b0 .LVL60
     /tmp/ccCNZIBa.s:362    .text:0000000000000174 .LVL12
     /tmp/ccCNZIBa.s:371    .text:0000000000000178 .LVL13
     /tmp/ccCNZIBa.s:378    .text:000000000000017c .LVL14
     /tmp/ccCNZIBa.s:601    .text:00000000000001f8 .LVL19
     /tmp/ccCNZIBa.s:654    .text:0000000000000224 .LVL23
     /tmp/ccCNZIBa.s:678    .text:0000000000000248 .LVL25
     /tmp/ccCNZIBa.s:766    .text:00000000000002e8 .LVL29
     /tmp/ccCNZIBa.s:848    .text:0000000000000388 .LVL33
     /tmp/ccCNZIBa.s:857    .text:0000000000000394 .LVL35
     /tmp/ccCNZIBa.s:877    .text:00000000000003b8 .LVL38
     /tmp/ccCNZIBa.s:887    .text:00000000000003c8 .LVL40
     /tmp/ccCNZIBa.s:897    .text:00000000000003d8 .LVL42
     /tmp/ccCNZIBa.s:907    .text:00000000000003e8 .LVL44
     /tmp/ccCNZIBa.s:929    .text:0000000000000410 .LVL48
     /tmp/ccCNZIBa.s:579    .text:00000000000001e0 .LVL17
     /tmp/ccCNZIBa.s:595    .text:00000000000001f4 .LVL18
     /tmp/ccCNZIBa.s:618    .text:0000000000000204 .LVL20
     /tmp/ccCNZIBa.s:627    .text:0000000000000208 .LVL21
     /tmp/ccCNZIBa.s:642    .text:000000000000021c .LVL22
     /tmp/ccCNZIBa.s:735    .text:00000000000002b4 .LVL27
     /tmp/ccCNZIBa.s:725    .text:00000000000002a8 .LVL26
     /tmp/ccCNZIBa.s:823    .text:0000000000000354 .LVL31
     /tmp/ccCNZIBa.s:813    .text:0000000000000348 .LVL30
     /tmp/ccCNZIBa.s:983    .text:000000000000046c .LVL55
     /tmp/ccCNZIBa.s:1012   .text:00000000000004a0 .LVL59
     /tmp/ccCNZIBa.s:1032   .text:00000000000004bc .LVL62
     /tmp/ccCNZIBa.s:1037   .text:00000000000004c4 .LVL63
     /tmp/ccCNZIBa.s:1077   .text:00000000000004ec .LVL66
     /tmp/ccCNZIBa.s:280    .text:0000000000000110 .LVL7
     /tmp/ccCNZIBa.s:299    .text:0000000000000138 .LVL9
     /tmp/ccCNZIBa.s:306    .text:000000000000013c .LVL10
     /tmp/ccCNZIBa.s:60     .text:000000000000002c .LVL2
     /tmp/ccCNZIBa.s:70     .text:0000000000000034 .LVL3
     /tmp/ccCNZIBa.s:21     .text:000000000000000c .LVL0
     /tmp/ccCNZIBa.s:32     .text:0000000000000014 .LVL1
     /tmp/ccCNZIBa.s:1176   .debug_info:0000000000000000 .Ldebug_info0
     /tmp/ccCNZIBa.s:1026   .text:00000000000004b0 .LBB130
GAS LISTING /tmp/ccCNZIBa.s 			page 49


     /tmp/ccCNZIBa.s:1045   .text:00000000000004d0 .LBE130
     /tmp/ccCNZIBa.s:1055   .text:00000000000004d4 .LBB146
     /tmp/ccCNZIBa.s:1130   .text:000000000000054c .LBE146
     /tmp/ccCNZIBa.s:1060   .text:00000000000004d4 .LBB135
     /tmp/ccCNZIBa.s:1081   .text:00000000000004ec .LBE135
     /tmp/ccCNZIBa.s:1111   .text:0000000000000530 .LBB142
     /tmp/ccCNZIBa.s:1125   .text:000000000000054c .LBE142
     /tmp/ccCNZIBa.s:1065   .text:00000000000004d4 .LBE136
     /tmp/ccCNZIBa.s:1113   .text:0000000000000530 .LBB141
     /tmp/ccCNZIBa.s:1124   .text:000000000000054c .LBE141
     /tmp/ccCNZIBa.s:588    .text:00000000000001ec .LBE152
     /tmp/ccCNZIBa.s:591    .text:00000000000001f0 .LBB155
     /tmp/ccCNZIBa.s:598    .text:00000000000001f4 .LBE155
     /tmp/ccCNZIBa.s:670    .text:0000000000000230 .LBE160
     /tmp/ccCNZIBa.s:680    .text:0000000000000248 .LBB167
     /tmp/ccCNZIBa.s:746    .text:00000000000002c4 .LBE167
     /tmp/ccCNZIBa.s:758    .text:00000000000002d0 .LBE168
     /tmp/ccCNZIBa.s:768    .text:00000000000002e8 .LBB175
     /tmp/ccCNZIBa.s:834    .text:0000000000000364 .LBE175

UNDEFINED SYMBOLS
_ZN3TCB18time_slice_counterE
_ZN2TS20decrement_and_removeEv
_ZN3TCB7runningE
_ZN3TCB15thread_dispatchEv
_ZN15MemoryAllocator12memory_allocEm
HEAP_END_ADDR
HEAP_START_ADDR
_ZN15MemoryAllocator11memory_freeEPv
_ZN3TCB13thread_createEPPS_PFvPvES2_S2_b
_ZN3TCB11thread_exitEv
_ZN11MySemaphore8sem_openEPPS_m
_ZN11MySemaphore9sem_closeEPS_
_ZN11MySemaphore8sem_waitEPS_
_ZN11MySemaphore10sem_signalEPS_
_ZN3TCB10time_sleepEm
_ZN7Console11getInstanceEv
_ZN7Console14get_from_inputEv
_ZN7Console13put_in_outputEc
_ZN9Scheduler11getInstanceEv
_ZN9Scheduler3putEP3TCB
_ZN14periodicThread3putEP3TCB
plic_claim
plic_complete
_ZN14periodicThread3getEv
CONSOLE_STATUS
CONSOLE_RX_DATA
_ZN7Console12put_in_inputEc
