GAS LISTING /tmp/ccNJVoqc.s 			page 1


   1              		.file	"scheduler.cpp"
   2              		.option pic
   3              		.option norelax
   4              		.text
   5              	.Ltext0:
   6              		.align	2
   7              		.globl	_ZN9Scheduler3getEv
   9              	_ZN9Scheduler3getEv:
  10              	.LFB38:
  11              		.file 1 "src/scheduler.cpp"
   1:src/scheduler.cpp **** #include "../h/scheduler.hpp"
   2:src/scheduler.cpp **** #include "../h/TCB.hpp"
   3:src/scheduler.cpp **** 
   4:src/scheduler.cpp **** TCB* Scheduler::head;
   5:src/scheduler.cpp **** TCB* Scheduler::tail;
   6:src/scheduler.cpp **** 
   7:src/scheduler.cpp **** TCB* Scheduler::get(){
  12              		.loc 1 7 22
  13              		.cfi_startproc
  14              	.LVL0:
  15 0000 130101FF 		addi	sp,sp,-16
  16              		.cfi_def_cfa_offset 16
  17 0004 23348100 		sd	s0,8(sp)
  18              		.cfi_offset 8, -8
  19 0008 13040101 		addi	s0,sp,16
  20              		.cfi_def_cfa 8, 0
  21 000c 6F000002 		j	.L5
  22              	.LVL1:
  23              	.L8:
  24              	.LBB17:
   8:src/scheduler.cpp ****     while(head) {
   9:src/scheduler.cpp ****         if (!head) { return TCB::idle; }
  10:src/scheduler.cpp ****         TCB *tmp = head;
  11:src/scheduler.cpp ****         if (head == tail) head = tail = nullptr;
  25              		.loc 1 11 27 discriminator 1
  26              		.loc 1 11 39 is_stmt 0 discriminator 1
  27 0010 97070000 		lla	a5,.LANCHOR0
  27      93870700 
  28 0018 23B40700 		sd	zero,8(a5)
  29              		.loc 1 11 32 discriminator 1
  30 001c 23B00700 		sd	zero,0(a5)
  31              	.L4:
  12:src/scheduler.cpp ****         else head = head->get_next_scheduler();
  13:src/scheduler.cpp ****         tmp->set_next_scheduler(nullptr);
  32              		.loc 1 13 9 is_stmt 1
  33              	.LVL2:
  34              	.LBB18:
  35              	.LBB19:
  36              		.file 2 "src/../h/TCB.hpp"
   1:src/../h/TCB.hpp **** #ifndef _thread_hpp_
   2:src/../h/TCB.hpp **** #define _thread_hpp_
   3:src/../h/TCB.hpp **** 
   4:src/../h/TCB.hpp **** #include "../lib/hw.h"
   5:src/../h/TCB.hpp **** #include "../h/scheduler.hpp"
   6:src/../h/TCB.hpp **** #include "../h/MemoryAllocator.hpp"
   7:src/../h/TCB.hpp **** #include "../h/TS.hpp"
   8:src/../h/TCB.hpp **** #include "../h/periodic_threads.hpp"
GAS LISTING /tmp/ccNJVoqc.s 			page 2


   9:src/../h/TCB.hpp **** 
  10:src/../h/TCB.hpp **** class TCB{
  11:src/../h/TCB.hpp **** public:
  12:src/../h/TCB.hpp **** 
  13:src/../h/TCB.hpp ****     ~TCB(){
  14:src/../h/TCB.hpp ****         MemoryAllocator::getInstance().memory_free((void*)stack);
  15:src/../h/TCB.hpp ****     }
  16:src/../h/TCB.hpp **** 
  17:src/../h/TCB.hpp ****     using Body = void (*)(void*);
  18:src/../h/TCB.hpp **** 
  19:src/../h/TCB.hpp ****     // trazene
  20:src/../h/TCB.hpp ****     static int thread_create(
  21:src/../h/TCB.hpp ****         TCB** handle,
  22:src/../h/TCB.hpp ****         void(*start_routine)(void*),
  23:src/../h/TCB.hpp ****         void* arg,
  24:src/../h/TCB.hpp ****         void* stack_space,
  25:src/../h/TCB.hpp ****         bool flag
  26:src/../h/TCB.hpp ****     );
  27:src/../h/TCB.hpp **** 
  28:src/../h/TCB.hpp ****     static int thread_exit();
  29:src/../h/TCB.hpp **** 
  30:src/../h/TCB.hpp ****     static void thread_dispatch();
  31:src/../h/TCB.hpp **** 
  32:src/../h/TCB.hpp ****     static int time_sleep(uint64 time);
  33:src/../h/TCB.hpp **** 
  34:src/../h/TCB.hpp ****     // getteri i setteri
  35:src/../h/TCB.hpp ****     void set_finished(bool f){ this->finished = f; }
  36:src/../h/TCB.hpp **** 
  37:src/../h/TCB.hpp ****     bool is_finished()const{return finished;}
  38:src/../h/TCB.hpp **** 
  39:src/../h/TCB.hpp ****     void set_next_scheduler(TCB* nextThread){ next_scheduler = nextThread; }
  37              		.loc 2 39 47
  38              		.loc 2 39 62 is_stmt 0
  39 0020 23380502 		sd	zero,48(a0)
  40              	.LVL3:
  41              	.LBE19:
  42              	.LBE18:
  14:src/scheduler.cpp ****         if(!tmp->is_finished())return tmp;
  43              		.loc 1 14 9 is_stmt 1
  44              	.LBB20:
  45              	.LBB21:
  37:src/../h/TCB.hpp **** 
  46              		.loc 2 37 29
  37:src/../h/TCB.hpp **** 
  47              		.loc 2 37 36 is_stmt 0
  48 0024 83478502 		lbu	a5,40(a0)
  49              	.LVL4:
  50              	.LBE21:
  51              	.LBE20:
  52              		.loc 1 14 9
  53 0028 638C0702 		beqz	a5,.L1
  54              	.LVL5:
  55              	.L5:
  56              	.LBE17:
   8:src/scheduler.cpp ****         if (!head) { return TCB::idle; }
  57              		.loc 1 8 5 is_stmt 1
   8:src/scheduler.cpp ****         if (!head) { return TCB::idle; }
GAS LISTING /tmp/ccNJVoqc.s 			page 3


  58              		.loc 1 8 11
  59 002c 17050000 		ld	a0,.LANCHOR0
  59      03350500 
  60 0034 63000502 		beqz	a0,.L2
  61              	.LBB24:
   9:src/scheduler.cpp ****         TCB *tmp = head;
  62              		.loc 1 9 9
  10:src/scheduler.cpp ****         if (head == tail) head = tail = nullptr;
  63              		.loc 1 10 9
  64              	.LVL6:
  11:src/scheduler.cpp ****         else head = head->get_next_scheduler();
  65              		.loc 1 11 9
  11:src/scheduler.cpp ****         else head = head->get_next_scheduler();
  66              		.loc 1 11 18 is_stmt 0
  67 0038 97070000 		ld	a5,.LANCHOR0+8
  67      83B70700 
  11:src/scheduler.cpp ****         else head = head->get_next_scheduler();
  68              		.loc 1 11 9
  69 0040 E308F5FC 		beq	a0,a5,.L8
  12:src/scheduler.cpp ****         tmp->set_next_scheduler(nullptr);
  70              		.loc 1 12 14 is_stmt 1
  71              	.LVL7:
  72              	.LBB22:
  73              	.LBB23:
  40:src/../h/TCB.hpp **** 
  41:src/../h/TCB.hpp ****     TCB* get_next_scheduler()const{ return next_scheduler; }
  74              		.loc 2 41 37
  75              		.loc 2 41 44 is_stmt 0
  76 0044 83370503 		ld	a5,48(a0)
  77              	.LVL8:
  78              	.LBE23:
  79              	.LBE22:
  12:src/scheduler.cpp ****         tmp->set_next_scheduler(nullptr);
  80              		.loc 1 12 19
  81 0048 17070000 		sd	a5,.LANCHOR0,a4
  81      2330F700 
  82 0050 6FF01FFD 		j	.L4
  83              	.LVL9:
  84              	.L2:
  85              	.LBE24:
  15:src/scheduler.cpp ****     }
  16:src/scheduler.cpp ****     return TCB::idle;
  86              		.loc 1 16 5 is_stmt 1
  87              		.loc 1 16 17 is_stmt 0
  88 0054 97070000 		la	a5,_ZN3TCB4idleE
  88      83B70700 
  89 005c 03B50700 		ld	a0,0(a5)
  90              	.L1:
  17:src/scheduler.cpp **** }
  91              		.loc 1 17 1
  92 0060 03348100 		ld	s0,8(sp)
  93              		.cfi_restore 8
  94              		.cfi_def_cfa 2, 16
  95 0064 13010101 		addi	sp,sp,16
  96              		.cfi_def_cfa_offset 0
  97 0068 67800000 		jr	ra
  98              		.cfi_endproc
GAS LISTING /tmp/ccNJVoqc.s 			page 4


  99              	.LFE38:
 101              		.align	2
 102              		.globl	_ZN9Scheduler3putEP3TCB
 104              	_ZN9Scheduler3putEP3TCB:
 105              	.LFB39:
  18:src/scheduler.cpp **** 
  19:src/scheduler.cpp **** void Scheduler::put(TCB* tcb){
 106              		.loc 1 19 30 is_stmt 1
 107              		.cfi_startproc
 108              	.LVL10:
 109 006c 130101FF 		addi	sp,sp,-16
 110              		.cfi_def_cfa_offset 16
 111 0070 23348100 		sd	s0,8(sp)
 112              		.cfi_offset 8, -8
 113 0074 13040101 		addi	s0,sp,16
 114              		.cfi_def_cfa 8, 0
  20:src/scheduler.cpp ****     if(tcb == TCB::idle)return;
 115              		.loc 1 20 5
 116              		.loc 1 20 12 is_stmt 0
 117 0078 97070000 		la	a5,_ZN3TCB4idleE
 117      83B70700 
 118 0080 83B70700 		ld	a5,0(a5)
 119              		.loc 1 20 5
 120 0084 6384B702 		beq	a5,a1,.L9
  21:src/scheduler.cpp ****     if(tcb->is_finished())return;
 121              		.loc 1 21 5 is_stmt 1
 122              	.LVL11:
 123              	.LBB25:
 124              	.LBB26:
  37:src/../h/TCB.hpp **** 
 125              		.loc 2 37 29
  37:src/../h/TCB.hpp **** 
 126              		.loc 2 37 36 is_stmt 0
 127 0088 83C78502 		lbu	a5,40(a1)
 128              	.LVL12:
 129              	.LBE26:
 130              	.LBE25:
 131              		.loc 1 21 5
 132 008c 63900702 		bnez	a5,.L9
  22:src/scheduler.cpp ****     tcb->set_next_scheduler(nullptr);
 133              		.loc 1 22 5 is_stmt 1
 134              	.LVL13:
 135              	.LBB27:
 136              	.LBB28:
  39:src/../h/TCB.hpp **** 
 137              		.loc 2 39 47
  39:src/../h/TCB.hpp **** 
 138              		.loc 2 39 62 is_stmt 0
 139 0090 23B80502 		sd	zero,48(a1)
 140              	.LVL14:
 141              	.LBE28:
 142              	.LBE27:
  23:src/scheduler.cpp ****     if(tail){
 143              		.loc 1 23 5 is_stmt 1
 144              		.loc 1 23 12 is_stmt 0
 145 0094 97070000 		ld	a5,.LANCHOR0+8
 145      83B70700 
GAS LISTING /tmp/ccNJVoqc.s 			page 5


 146              		.loc 1 23 5
 147 009c 638E0700 		beqz	a5,.L11
  24:src/scheduler.cpp ****         tail->set_next_scheduler(tcb);
 148              		.loc 1 24 9 is_stmt 1
 149              	.LVL15:
 150              	.LBB29:
 151              	.LBB30:
  39:src/../h/TCB.hpp **** 
 152              		.loc 2 39 47
  39:src/../h/TCB.hpp **** 
 153              		.loc 2 39 62 is_stmt 0
 154 00a0 23B8B702 		sd	a1,48(a5)
 155              	.LVL16:
 156              	.LBE30:
 157              	.LBE29:
  25:src/scheduler.cpp ****         tail = tail->get_next_scheduler();
 158              		.loc 1 25 9 is_stmt 1
 159              		.loc 2 41 37
 160              		.loc 1 25 14 is_stmt 0
 161 00a4 97070000 		sd	a1,.LANCHOR0+8,a5
 161      23B0B700 
 162              	.L9:
  26:src/scheduler.cpp ****     }
  27:src/scheduler.cpp ****     else head = tail = tcb;
  28:src/scheduler.cpp **** }
 163              		.loc 1 28 1
 164 00ac 03348100 		ld	s0,8(sp)
 165              		.cfi_remember_state
 166              		.cfi_restore 8
 167              		.cfi_def_cfa 2, 16
 168 00b0 13010101 		addi	sp,sp,16
 169              		.cfi_def_cfa_offset 0
 170 00b4 67800000 		jr	ra
 171              	.L11:
 172              		.cfi_restore_state
  27:src/scheduler.cpp **** }
 173              		.loc 1 27 10 is_stmt 1
  27:src/scheduler.cpp **** }
 174              		.loc 1 27 22 is_stmt 0
 175 00b8 97070000 		lla	a5,.LANCHOR0
 175      93870700 
 176 00c0 23B4B700 		sd	a1,8(a5)
  27:src/scheduler.cpp **** }
 177              		.loc 1 27 15
 178 00c4 23B0B700 		sd	a1,0(a5)
 179 00c8 6FF05FFE 		j	.L9
 180              		.cfi_endproc
 181              	.LFE39:
 183              		.globl	_ZN9Scheduler4tailE
 184              		.globl	_ZN9Scheduler4headE
 185              		.bss
 186              		.align	3
 187              		.set	.LANCHOR0,. + 0
 190              	_ZN9Scheduler4headE:
 191 0000 00000000 		.zero	8
 191      00000000 
 194              	_ZN9Scheduler4tailE:
GAS LISTING /tmp/ccNJVoqc.s 			page 6


 195 0008 00000000 		.zero	8
 195      00000000 
 196              		.text
 197              	.Letext0:
 198              		.file 3 "src/../h/scheduler.hpp"
 199              		.file 4 "src/../h/../lib/hw.h"
GAS LISTING /tmp/ccNJVoqc.s 			page 7

