GAS LISTING /tmp/ccNJVoqc.s 			page 1


   1              		.file	"scheduler.cpp"
   2              		.option pic
   3              		.option norelax
   4              		.text
   5              	.Ltext0:
   6              		.align	2
   7              		.globl	_ZN9Scheduler3getEv
   9              	_ZN9Scheduler3getEv:
  10              	.LFB38:
  11              		.file 1 "src/scheduler.cpp"
   1:src/scheduler.cpp **** #include "../h/scheduler.hpp"
   2:src/scheduler.cpp **** #include "../h/TCB.hpp"
   3:src/scheduler.cpp **** 
   4:src/scheduler.cpp **** TCB* Scheduler::head;
   5:src/scheduler.cpp **** TCB* Scheduler::tail;
   6:src/scheduler.cpp **** 
   7:src/scheduler.cpp **** TCB* Scheduler::get(){
  12              		.loc 1 7 22
  13              		.cfi_startproc
  14              	.LVL0:
  15 0000 130101FF 		addi	sp,sp,-16
  16              		.cfi_def_cfa_offset 16
  17 0004 23348100 		sd	s0,8(sp)
  18              		.cfi_offset 8, -8
  19 0008 13040101 		addi	s0,sp,16
  20              		.cfi_def_cfa 8, 0
  21 000c 6F000002 		j	.L5
  22              	.LVL1:
  23              	.L8:
  24              	.LBB17:
   8:src/scheduler.cpp ****     while(head) {
   9:src/scheduler.cpp ****         if (!head) { return TCB::idle; }
  10:src/scheduler.cpp ****         TCB *tmp = head;
  11:src/scheduler.cpp ****         if (head == tail) head = tail = nullptr;
  25              		.loc 1 11 27 discriminator 1
  26              		.loc 1 11 39 is_stmt 0 discriminator 1
  27 0010 97070000 		lla	a5,.LANCHOR0
  27      93870700 
  28 0018 23B40700 		sd	zero,8(a5)
  29              		.loc 1 11 32 discriminator 1
  30 001c 23B00700 		sd	zero,0(a5)
  31              	.L4:
  12:src/scheduler.cpp ****         else head = head->get_next_scheduler();
  13:src/scheduler.cpp ****         tmp->set_next_scheduler(nullptr);
  32              		.loc 1 13 9 is_stmt 1
  33              	.LVL2:
  34              	.LBB18:
  35              	.LBB19:
  36              		.file 2 "src/../h/TCB.hpp"
   1:src/../h/TCB.hpp **** #ifndef _thread_hpp_
   2:src/../h/TCB.hpp **** #define _thread_hpp_
   3:src/../h/TCB.hpp **** 
   4:src/../h/TCB.hpp **** #include "../lib/hw.h"
   5:src/../h/TCB.hpp **** #include "../h/scheduler.hpp"
   6:src/../h/TCB.hpp **** #include "../h/MemoryAllocator.hpp"
   7:src/../h/TCB.hpp **** #include "../h/TS.hpp"
   8:src/../h/TCB.hpp **** #include "../h/periodic_threads.hpp"
GAS LISTING /tmp/ccNJVoqc.s 			page 2


   9:src/../h/TCB.hpp **** 
  10:src/../h/TCB.hpp **** class TCB{
  11:src/../h/TCB.hpp **** public:
  12:src/../h/TCB.hpp **** 
  13:src/../h/TCB.hpp ****     ~TCB(){
  14:src/../h/TCB.hpp ****         MemoryAllocator::getInstance().memory_free((void*)stack);
  15:src/../h/TCB.hpp ****     }
  16:src/../h/TCB.hpp **** 
  17:src/../h/TCB.hpp ****     using Body = void (*)(void*);
  18:src/../h/TCB.hpp **** 
  19:src/../h/TCB.hpp ****     // trazene
  20:src/../h/TCB.hpp ****     static int thread_create(
  21:src/../h/TCB.hpp ****         TCB** handle,
  22:src/../h/TCB.hpp ****         void(*start_routine)(void*),
  23:src/../h/TCB.hpp ****         void* arg,
  24:src/../h/TCB.hpp ****         void* stack_space,
  25:src/../h/TCB.hpp ****         bool flag
  26:src/../h/TCB.hpp ****     );
  27:src/../h/TCB.hpp **** 
  28:src/../h/TCB.hpp ****     static int thread_exit();
  29:src/../h/TCB.hpp **** 
  30:src/../h/TCB.hpp ****     static void thread_dispatch();
  31:src/../h/TCB.hpp **** 
  32:src/../h/TCB.hpp ****     static int time_sleep(uint64 time);
  33:src/../h/TCB.hpp **** 
  34:src/../h/TCB.hpp ****     // getteri i setteri
  35:src/../h/TCB.hpp ****     void set_finished(bool f){ this->finished = f; }
  36:src/../h/TCB.hpp **** 
  37:src/../h/TCB.hpp ****     bool is_finished()const{return finished;}
  38:src/../h/TCB.hpp **** 
  39:src/../h/TCB.hpp ****     void set_next_scheduler(TCB* nextThread){ next_scheduler = nextThread; }
  37              		.loc 2 39 47
  38              		.loc 2 39 62 is_stmt 0
  39 0020 23380502 		sd	zero,48(a0)
  40              	.LVL3:
  41              	.LBE19:
  42              	.LBE18:
  14:src/scheduler.cpp ****         if(!tmp->is_finished())return tmp;
  43              		.loc 1 14 9 is_stmt 1
  44              	.LBB20:
  45              	.LBB21:
  37:src/../h/TCB.hpp **** 
  46              		.loc 2 37 29
  37:src/../h/TCB.hpp **** 
  47              		.loc 2 37 36 is_stmt 0
  48 0024 83478502 		lbu	a5,40(a0)
  49              	.LVL4:
  50              	.LBE21:
  51              	.LBE20:
  52              		.loc 1 14 9
  53 0028 638C0702 		beqz	a5,.L1
  54              	.LVL5:
  55              	.L5:
  56              	.LBE17:
   8:src/scheduler.cpp ****         if (!head) { return TCB::idle; }
  57              		.loc 1 8 5 is_stmt 1
   8:src/scheduler.cpp ****         if (!head) { return TCB::idle; }
GAS LISTING /tmp/ccNJVoqc.s 			page 3


  58              		.loc 1 8 11
  59 002c 17050000 		ld	a0,.LANCHOR0
  59      03350500 
  60 0034 63000502 		beqz	a0,.L2
  61              	.LBB24:
   9:src/scheduler.cpp ****         TCB *tmp = head;
  62              		.loc 1 9 9
  10:src/scheduler.cpp ****         if (head == tail) head = tail = nullptr;
  63              		.loc 1 10 9
  64              	.LVL6:
  11:src/scheduler.cpp ****         else head = head->get_next_scheduler();
  65              		.loc 1 11 9
  11:src/scheduler.cpp ****         else head = head->get_next_scheduler();
  66              		.loc 1 11 18 is_stmt 0
  67 0038 97070000 		ld	a5,.LANCHOR0+8
  67      83B70700 
  11:src/scheduler.cpp ****         else head = head->get_next_scheduler();
  68              		.loc 1 11 9
  69 0040 E308F5FC 		beq	a0,a5,.L8
  12:src/scheduler.cpp ****         tmp->set_next_scheduler(nullptr);
  70              		.loc 1 12 14 is_stmt 1
  71              	.LVL7:
  72              	.LBB22:
  73              	.LBB23:
  40:src/../h/TCB.hpp **** 
  41:src/../h/TCB.hpp ****     TCB* get_next_scheduler()const{ return next_scheduler; }
  74              		.loc 2 41 37
  75              		.loc 2 41 44 is_stmt 0
  76 0044 83370503 		ld	a5,48(a0)
  77              	.LVL8:
  78              	.LBE23:
  79              	.LBE22:
  12:src/scheduler.cpp ****         tmp->set_next_scheduler(nullptr);
  80              		.loc 1 12 19
  81 0048 17070000 		sd	a5,.LANCHOR0,a4
  81      2330F700 
  82 0050 6FF01FFD 		j	.L4
  83              	.LVL9:
  84              	.L2:
  85              	.LBE24:
  15:src/scheduler.cpp ****     }
  16:src/scheduler.cpp ****     return TCB::idle;
  86              		.loc 1 16 5 is_stmt 1
  87              		.loc 1 16 17 is_stmt 0
  88 0054 97070000 		la	a5,_ZN3TCB4idleE
  88      83B70700 
  89 005c 03B50700 		ld	a0,0(a5)
  90              	.L1:
  17:src/scheduler.cpp **** }
  91              		.loc 1 17 1
  92 0060 03348100 		ld	s0,8(sp)
  93              		.cfi_restore 8
  94              		.cfi_def_cfa 2, 16
  95 0064 13010101 		addi	sp,sp,16
  96              		.cfi_def_cfa_offset 0
  97 0068 67800000 		jr	ra
  98              		.cfi_endproc
GAS LISTING /tmp/ccNJVoqc.s 			page 4


  99              	.LFE38:
 101              		.align	2
 102              		.globl	_ZN9Scheduler3putEP3TCB
 104              	_ZN9Scheduler3putEP3TCB:
 105              	.LFB39:
  18:src/scheduler.cpp **** 
  19:src/scheduler.cpp **** void Scheduler::put(TCB* tcb){
 106              		.loc 1 19 30 is_stmt 1
 107              		.cfi_startproc
 108              	.LVL10:
 109 006c 130101FF 		addi	sp,sp,-16
 110              		.cfi_def_cfa_offset 16
 111 0070 23348100 		sd	s0,8(sp)
 112              		.cfi_offset 8, -8
 113 0074 13040101 		addi	s0,sp,16
 114              		.cfi_def_cfa 8, 0
  20:src/scheduler.cpp ****     if(tcb == TCB::idle)return;
 115              		.loc 1 20 5
 116              		.loc 1 20 12 is_stmt 0
 117 0078 97070000 		la	a5,_ZN3TCB4idleE
 117      83B70700 
 118 0080 83B70700 		ld	a5,0(a5)
 119              		.loc 1 20 5
 120 0084 6384B702 		beq	a5,a1,.L9
  21:src/scheduler.cpp ****     if(tcb->is_finished())return;
 121              		.loc 1 21 5 is_stmt 1
 122              	.LVL11:
 123              	.LBB25:
 124              	.LBB26:
  37:src/../h/TCB.hpp **** 
 125              		.loc 2 37 29
  37:src/../h/TCB.hpp **** 
 126              		.loc 2 37 36 is_stmt 0
 127 0088 83C78502 		lbu	a5,40(a1)
 128              	.LVL12:
 129              	.LBE26:
 130              	.LBE25:
 131              		.loc 1 21 5
 132 008c 63900702 		bnez	a5,.L9
  22:src/scheduler.cpp ****     tcb->set_next_scheduler(nullptr);
 133              		.loc 1 22 5 is_stmt 1
 134              	.LVL13:
 135              	.LBB27:
 136              	.LBB28:
  39:src/../h/TCB.hpp **** 
 137              		.loc 2 39 47
  39:src/../h/TCB.hpp **** 
 138              		.loc 2 39 62 is_stmt 0
 139 0090 23B80502 		sd	zero,48(a1)
 140              	.LVL14:
 141              	.LBE28:
 142              	.LBE27:
  23:src/scheduler.cpp ****     if(tail){
 143              		.loc 1 23 5 is_stmt 1
 144              		.loc 1 23 12 is_stmt 0
 145 0094 97070000 		ld	a5,.LANCHOR0+8
 145      83B70700 
GAS LISTING /tmp/ccNJVoqc.s 			page 5


 146              		.loc 1 23 5
 147 009c 638E0700 		beqz	a5,.L11
  24:src/scheduler.cpp ****         tail->set_next_scheduler(tcb);
 148              		.loc 1 24 9 is_stmt 1
 149              	.LVL15:
 150              	.LBB29:
 151              	.LBB30:
  39:src/../h/TCB.hpp **** 
 152              		.loc 2 39 47
  39:src/../h/TCB.hpp **** 
 153              		.loc 2 39 62 is_stmt 0
 154 00a0 23B8B702 		sd	a1,48(a5)
 155              	.LVL16:
 156              	.LBE30:
 157              	.LBE29:
  25:src/scheduler.cpp ****         tail = tail->get_next_scheduler();
 158              		.loc 1 25 9 is_stmt 1
 159              		.loc 2 41 37
 160              		.loc 1 25 14 is_stmt 0
 161 00a4 97070000 		sd	a1,.LANCHOR0+8,a5
 161      23B0B700 
 162              	.L9:
  26:src/scheduler.cpp ****     }
  27:src/scheduler.cpp ****     else head = tail = tcb;
  28:src/scheduler.cpp **** }
 163              		.loc 1 28 1
 164 00ac 03348100 		ld	s0,8(sp)
 165              		.cfi_remember_state
 166              		.cfi_restore 8
 167              		.cfi_def_cfa 2, 16
 168 00b0 13010101 		addi	sp,sp,16
 169              		.cfi_def_cfa_offset 0
 170 00b4 67800000 		jr	ra
 171              	.L11:
 172              		.cfi_restore_state
  27:src/scheduler.cpp **** }
 173              		.loc 1 27 10 is_stmt 1
  27:src/scheduler.cpp **** }
 174              		.loc 1 27 22 is_stmt 0
 175 00b8 97070000 		lla	a5,.LANCHOR0
 175      93870700 
 176 00c0 23B4B700 		sd	a1,8(a5)
  27:src/scheduler.cpp **** }
 177              		.loc 1 27 15
 178 00c4 23B0B700 		sd	a1,0(a5)
 179 00c8 6FF05FFE 		j	.L9
 180              		.cfi_endproc
 181              	.LFE39:
 183              		.globl	_ZN9Scheduler4tailE
 184              		.globl	_ZN9Scheduler4headE
 185              		.bss
 186              		.align	3
 187              		.set	.LANCHOR0,. + 0
 190              	_ZN9Scheduler4headE:
 191 0000 00000000 		.zero	8
 191      00000000 
 194              	_ZN9Scheduler4tailE:
GAS LISTING /tmp/ccNJVoqc.s 			page 6


 195 0008 00000000 		.zero	8
 195      00000000 
 196              		.text
 197              	.Letext0:
 198              		.file 3 "src/../h/scheduler.hpp"
 199              		.file 4 "src/../h/../lib/hw.h"
GAS LISTING /tmp/ccNJVoqc.s 			page 7


DEFINED SYMBOLS
                            *ABS*:0000000000000000 scheduler.cpp
     /tmp/ccNJVoqc.s:9      .text:0000000000000000 _ZN9Scheduler3getEv
     /tmp/ccNJVoqc.s:13     .text:0000000000000000 .L0 
     /tmp/ccNJVoqc.s:15     .text:0000000000000000 .L0 
     /tmp/ccNJVoqc.s:16     .text:0000000000000004 .L0 
     /tmp/ccNJVoqc.s:18     .text:0000000000000008 .L0 
     /tmp/ccNJVoqc.s:20     .text:000000000000000c .L0 
     /tmp/ccNJVoqc.s:26     .text:0000000000000010 .L0 
     /tmp/ccNJVoqc.s:27     .text:0000000000000010 .L0 
     /tmp/ccNJVoqc.s:30     .text:000000000000001c .L0 
     /tmp/ccNJVoqc.s:37     .text:0000000000000020 .L0 
     /tmp/ccNJVoqc.s:38     .text:0000000000000020 .L0 
     /tmp/ccNJVoqc.s:39     .text:0000000000000020 .L0 
     /tmp/ccNJVoqc.s:46     .text:0000000000000024 .L0 
     /tmp/ccNJVoqc.s:47     .text:0000000000000024 .L0 
     /tmp/ccNJVoqc.s:48     .text:0000000000000024 .L0 
     /tmp/ccNJVoqc.s:53     .text:0000000000000028 .L0 
     /tmp/ccNJVoqc.s:58     .text:000000000000002c .L0 
     /tmp/ccNJVoqc.s:59     .text:000000000000002c .L0 
     /tmp/ccNJVoqc.s:63     .text:0000000000000038 .L0 
     /tmp/ccNJVoqc.s:65     .text:0000000000000038 .L0 
     /tmp/ccNJVoqc.s:66     .text:0000000000000038 .L0 
     /tmp/ccNJVoqc.s:67     .text:0000000000000038 .L0 
     /tmp/ccNJVoqc.s:69     .text:0000000000000040 .L0 
     /tmp/ccNJVoqc.s:74     .text:0000000000000044 .L0 
     /tmp/ccNJVoqc.s:75     .text:0000000000000044 .L0 
     /tmp/ccNJVoqc.s:76     .text:0000000000000044 .L0 
     /tmp/ccNJVoqc.s:81     .text:0000000000000048 .L0 
     /tmp/ccNJVoqc.s:87     .text:0000000000000054 .L0 
     /tmp/ccNJVoqc.s:88     .text:0000000000000054 .L0 
     /tmp/ccNJVoqc.s:92     .text:0000000000000060 .L0 
     /tmp/ccNJVoqc.s:93     .text:0000000000000064 .L0 
     /tmp/ccNJVoqc.s:94     .text:0000000000000064 .L0 
     /tmp/ccNJVoqc.s:96     .text:0000000000000068 .L0 
     /tmp/ccNJVoqc.s:98     .text:000000000000006c .L0 
     /tmp/ccNJVoqc.s:104    .text:000000000000006c _ZN9Scheduler3putEP3TCB
     /tmp/ccNJVoqc.s:107    .text:000000000000006c .L0 
     /tmp/ccNJVoqc.s:109    .text:000000000000006c .L0 
     /tmp/ccNJVoqc.s:110    .text:0000000000000070 .L0 
     /tmp/ccNJVoqc.s:112    .text:0000000000000074 .L0 
     /tmp/ccNJVoqc.s:114    .text:0000000000000078 .L0 
     /tmp/ccNJVoqc.s:116    .text:0000000000000078 .L0 
     /tmp/ccNJVoqc.s:117    .text:0000000000000078 .L0 
     /tmp/ccNJVoqc.s:120    .text:0000000000000084 .L0 
     /tmp/ccNJVoqc.s:125    .text:0000000000000088 .L0 
     /tmp/ccNJVoqc.s:126    .text:0000000000000088 .L0 
     /tmp/ccNJVoqc.s:127    .text:0000000000000088 .L0 
     /tmp/ccNJVoqc.s:132    .text:000000000000008c .L0 
     /tmp/ccNJVoqc.s:137    .text:0000000000000090 .L0 
     /tmp/ccNJVoqc.s:138    .text:0000000000000090 .L0 
     /tmp/ccNJVoqc.s:139    .text:0000000000000090 .L0 
     /tmp/ccNJVoqc.s:144    .text:0000000000000094 .L0 
     /tmp/ccNJVoqc.s:145    .text:0000000000000094 .L0 
     /tmp/ccNJVoqc.s:147    .text:000000000000009c .L0 
     /tmp/ccNJVoqc.s:152    .text:00000000000000a0 .L0 
     /tmp/ccNJVoqc.s:153    .text:00000000000000a0 .L0 
GAS LISTING /tmp/ccNJVoqc.s 			page 8


     /tmp/ccNJVoqc.s:154    .text:00000000000000a0 .L0 
     /tmp/ccNJVoqc.s:159    .text:00000000000000a4 .L0 
     /tmp/ccNJVoqc.s:160    .text:00000000000000a4 .L0 
     /tmp/ccNJVoqc.s:161    .text:00000000000000a4 .L0 
     /tmp/ccNJVoqc.s:164    .text:00000000000000ac .L0 
     /tmp/ccNJVoqc.s:165    .text:00000000000000b0 .L0 
     /tmp/ccNJVoqc.s:166    .text:00000000000000b0 .L0 
     /tmp/ccNJVoqc.s:167    .text:00000000000000b0 .L0 
     /tmp/ccNJVoqc.s:169    .text:00000000000000b4 .L0 
     /tmp/ccNJVoqc.s:172    .text:00000000000000b8 .L0 
     /tmp/ccNJVoqc.s:174    .text:00000000000000b8 .L0 
     /tmp/ccNJVoqc.s:175    .text:00000000000000b8 .L0 
     /tmp/ccNJVoqc.s:178    .text:00000000000000c4 .L0 
     /tmp/ccNJVoqc.s:180    .text:00000000000000cc .L0 
     /tmp/ccNJVoqc.s:194    .bss:0000000000000008 _ZN9Scheduler4tailE
     /tmp/ccNJVoqc.s:190    .bss:0000000000000000 _ZN9Scheduler4headE
     /tmp/ccNJVoqc.s:187    .bss:0000000000000000 .LANCHOR0
     /tmp/ccNJVoqc.s:200    .text:00000000000000cc .L0 
     /tmp/ccNJVoqc.s:27     .text:0000000000000010 .L0 
     /tmp/ccNJVoqc.s:59     .text:000000000000002c .L0 
     /tmp/ccNJVoqc.s:67     .text:0000000000000038 .L0 
     /tmp/ccNJVoqc.s:81     .text:0000000000000048 .L0 
     /tmp/ccNJVoqc.s:88     .text:0000000000000054 .L0 
     /tmp/ccNJVoqc.s:117    .text:0000000000000078 .L0 
     /tmp/ccNJVoqc.s:145    .text:0000000000000094 .L0 
     /tmp/ccNJVoqc.s:161    .text:00000000000000a4 .L0 
     /tmp/ccNJVoqc.s:175    .text:00000000000000b8 .L0 
     /tmp/ccNJVoqc.s:55     .text:000000000000002c .L5
     /tmp/ccNJVoqc.s:90     .text:0000000000000060 .L1
     /tmp/ccNJVoqc.s:84     .text:0000000000000054 .L2
     /tmp/ccNJVoqc.s:23     .text:0000000000000010 .L8
     /tmp/ccNJVoqc.s:31     .text:0000000000000020 .L4
     /tmp/ccNJVoqc.s:162    .text:00000000000000ac .L9
     /tmp/ccNJVoqc.s:171    .text:00000000000000b8 .L11
     /tmp/ccNJVoqc.s:1172   .debug_abbrev:0000000000000000 .Ldebug_abbrev0
     /tmp/ccNJVoqc.s:2320   .debug_str:000000000000060f .LASF97
     /tmp/ccNJVoqc.s:2344   .debug_str:0000000000000791 .LASF98
     /tmp/ccNJVoqc.s:2208   .debug_str:0000000000000277 .LASF99
     /tmp/ccNJVoqc.s:5      .text:0000000000000000 .Ltext0
     /tmp/ccNJVoqc.s:197    .text:00000000000000cc .Letext0
     /tmp/ccNJVoqc.s:2132   .debug_line:0000000000000000 .Ldebug_line0
     /tmp/ccNJVoqc.s:2274   .debug_str:00000000000004ab .LASF0
     /tmp/ccNJVoqc.s:2322   .debug_str:00000000000006d3 .LASF10
     /tmp/ccNJVoqc.s:2272   .debug_str:000000000000048e .LASF12
     /tmp/ccNJVoqc.s:2326   .debug_str:00000000000006ee .LASF2
     /tmp/ccNJVoqc.s:2248   .debug_str:00000000000003d1 .LASF1
     /tmp/ccNJVoqc.s:2336   .debug_str:0000000000000752 .LASF3
     /tmp/ccNJVoqc.s:2240   .debug_str:000000000000038e .LASF100
     /tmp/ccNJVoqc.s:2166   .debug_str:000000000000010d .LASF101
     /tmp/ccNJVoqc.s:2236   .debug_str:0000000000000361 .LASF55
     /tmp/ccNJVoqc.s:2186   .debug_str:00000000000001e0 .LASF4
     /tmp/ccNJVoqc.s:2242   .debug_str:00000000000003a2 .LASF5
     /tmp/ccNJVoqc.s:2142   .debug_str:000000000000003b .LASF102
     /tmp/ccNJVoqc.s:2192   .debug_str:000000000000021c .LASF6
     /tmp/ccNJVoqc.s:2288   .debug_str:0000000000000502 .LASF8
     /tmp/ccNJVoqc.s:2182   .debug_str:00000000000001c2 .LASF7
     /tmp/ccNJVoqc.s:2162   .debug_str:00000000000000d7 .LASF9
GAS LISTING /tmp/ccNJVoqc.s 			page 9


     /tmp/ccNJVoqc.s:2144   .debug_str:0000000000000043 .LASF11
     /tmp/ccNJVoqc.s:2178   .debug_str:000000000000018e .LASF13
     /tmp/ccNJVoqc.s:2172   .debug_str:0000000000000144 .LASF46
     /tmp/ccNJVoqc.s:2238   .debug_str:0000000000000373 .LASF48
     /tmp/ccNJVoqc.s:2300   .debug_str:0000000000000567 .LASF14
     /tmp/ccNJVoqc.s:2160   .debug_str:00000000000000c1 .LASF15
     /tmp/ccNJVoqc.s:2280   .debug_str:00000000000004de .LASF16
     /tmp/ccNJVoqc.s:2308   .debug_str:00000000000005a9 .LASF17
     /tmp/ccNJVoqc.s:2152   .debug_str:0000000000000088 .LASF18
     /tmp/ccNJVoqc.s:2340   .debug_str:000000000000076c .LASF19
     /tmp/ccNJVoqc.s:2318   .debug_str:00000000000005fc .LASF20
     /tmp/ccNJVoqc.s:2334   .debug_str:0000000000000732 .LASF21
     /tmp/ccNJVoqc.s:2226   .debug_str:0000000000000306 .LASF22
     /tmp/ccNJVoqc.s:2156   .debug_str:0000000000000099 .LASF23
     /tmp/ccNJVoqc.s:2232   .debug_str:0000000000000344 .LASF24
     /tmp/ccNJVoqc.s:2276   .debug_str:00000000000004b5 .LASF25
     /tmp/ccNJVoqc.s:2290   .debug_str:000000000000050e .LASF26
     /tmp/ccNJVoqc.s:2148   .debug_str:000000000000005e .LASF27
     /tmp/ccNJVoqc.s:2174   .debug_str:0000000000000154 .LASF28
     /tmp/ccNJVoqc.s:2296   .debug_str:0000000000000539 .LASF29
     /tmp/ccNJVoqc.s:2264   .debug_str:000000000000043c .LASF30
     /tmp/ccNJVoqc.s:2190   .debug_str:00000000000001ff .LASF31
     /tmp/ccNJVoqc.s:2348   .debug_str:00000000000007b9 .LASF32
     /tmp/ccNJVoqc.s:2188   .debug_str:00000000000001e5 .LASF33
     /tmp/ccNJVoqc.s:2324   .debug_str:00000000000006df .LASF34
     /tmp/ccNJVoqc.s:2230   .debug_str:0000000000000329 .LASF35
     /tmp/ccNJVoqc.s:2150   .debug_str:0000000000000079 .LASF36
     /tmp/ccNJVoqc.s:2246   .debug_str:00000000000003b7 .LASF37
     /tmp/ccNJVoqc.s:2314   .debug_str:00000000000005e1 .LASF38
     /tmp/ccNJVoqc.s:2266   .debug_str:000000000000044d .LASF39
     /tmp/ccNJVoqc.s:2310   .debug_str:00000000000005c1 .LASF40
     /tmp/ccNJVoqc.s:2328   .debug_str:0000000000000703 .LASF41
     /tmp/ccNJVoqc.s:2204   .debug_str:0000000000000259 .LASF42
     /tmp/ccNJVoqc.s:2180   .debug_str:00000000000001a5 .LASF43
     /tmp/ccNJVoqc.s:2198   .debug_str:0000000000000234 .LASF44
     /tmp/ccNJVoqc.s:2254   .debug_str:00000000000003f3 .LASF45
     /tmp/ccNJVoqc.s:2140   .debug_str:0000000000000035 .LASF47
     /tmp/ccNJVoqc.s:2244   .debug_str:00000000000003a7 .LASF49
     /tmp/ccNJVoqc.s:2342   .debug_str:0000000000000784 .LASF50
     /tmp/ccNJVoqc.s:2316   .debug_str:00000000000005f0 .LASF51
     /tmp/ccNJVoqc.s:2202   .debug_str:0000000000000249 .LASF52
     /tmp/ccNJVoqc.s:2210   .debug_str:00000000000002ab .LASF53
     /tmp/ccNJVoqc.s:2298   .debug_str:0000000000000557 .LASF54
     /tmp/ccNJVoqc.s:2278   .debug_str:00000000000004d1 .LASF56
     /tmp/ccNJVoqc.s:2312   .debug_str:00000000000005ce .LASF57
     /tmp/ccNJVoqc.s:2164   .debug_str:0000000000000100 .LASF58
     /tmp/ccNJVoqc.s:2196   .debug_str:000000000000022c .LASF59
     /tmp/ccNJVoqc.s:2250   .debug_str:00000000000003db .LASF60
     /tmp/ccNJVoqc.s:2262   .debug_str:0000000000000424 .LASF103
     /tmp/ccNJVoqc.s:2154   .debug_str:0000000000000094 .LASF104
     /tmp/ccNJVoqc.s:2292   .debug_str:000000000000051d .LASF105
     /tmp/ccNJVoqc.s:2176   .debug_str:0000000000000165 .LASF106
     /tmp/ccNJVoqc.s:2146   .debug_str:000000000000004f .LASF107
     /tmp/ccNJVoqc.s:2136   .debug_str:000000000000000b .LASF108
     /tmp/ccNJVoqc.s:2170   .debug_str:0000000000000131 .LASF61
     /tmp/ccNJVoqc.s:2220   .debug_str:00000000000002ea .LASF62
     /tmp/ccNJVoqc.s:2258   .debug_str:0000000000000415 .LASF63
GAS LISTING /tmp/ccNJVoqc.s 			page 10


     /tmp/ccNJVoqc.s:2256   .debug_str:000000000000040f .LASF64
     /tmp/ccNJVoqc.s:2222   .debug_str:00000000000002ef .LASF65
     /tmp/ccNJVoqc.s:2218   .debug_str:00000000000002e1 .LASF66
     /tmp/ccNJVoqc.s:2306   .debug_str:000000000000059a .LASF67
     /tmp/ccNJVoqc.s:2134   .debug_str:0000000000000000 .LASF68
     /tmp/ccNJVoqc.s:2350   .debug_str:00000000000007c7 .LASF69
     /tmp/ccNJVoqc.s:2260   .debug_str:000000000000041e .LASF70
     /tmp/ccNJVoqc.s:2286   .debug_str:00000000000004f7 .LASF71
     /tmp/ccNJVoqc.s:2338   .debug_str:0000000000000767 .LASF72
     /tmp/ccNJVoqc.s:2158   .debug_str:00000000000000b8 .LASF73
     /tmp/ccNJVoqc.s:2330   .debug_str:000000000000071b .LASF74
     /tmp/ccNJVoqc.s:2294   .debug_str:000000000000052c .LASF75
     /tmp/ccNJVoqc.s:2268   .debug_str:0000000000000468 .LASF76
     /tmp/ccNJVoqc.s:2234   .debug_str:0000000000000353 .LASF77
     /tmp/ccNJVoqc.s:2216   .debug_str:00000000000002da .LASF79
     /tmp/ccNJVoqc.s:2304   .debug_str:0000000000000588 .LASF78
     /tmp/ccNJVoqc.s:2282   .debug_str:00000000000004eb .LASF80
     /tmp/ccNJVoqc.s:2270   .debug_str:000000000000047b .LASF81
     /tmp/ccNJVoqc.s:2252   .debug_str:00000000000003e0 .LASF82
     /tmp/ccNJVoqc.s:2184   .debug_str:00000000000001d0 .LASF83
     /tmp/ccNJVoqc.s:2206   .debug_str:0000000000000269 .LASF84
     /tmp/ccNJVoqc.s:2214   .debug_str:00000000000002cb .LASF85
     /tmp/ccNJVoqc.s:2332   .debug_str:0000000000000727 .LASF86
     /tmp/ccNJVoqc.s:2224   .debug_str:00000000000002f7 .LASF87
     /tmp/ccNJVoqc.s:2228   .debug_str:0000000000000319 .LASF88
     /tmp/ccNJVoqc.s:2138   .debug_str:0000000000000025 .LASF89
     /tmp/ccNJVoqc.s:2168   .debug_str:0000000000000125 .LASF90
     /tmp/ccNJVoqc.s:2302   .debug_str:0000000000000572 .LASF91
     /tmp/ccNJVoqc.s:2346   .debug_str:00000000000007a3 .LASF92
     /tmp/ccNJVoqc.s:2200   .debug_str:0000000000000244 .LASF93
     /tmp/ccNJVoqc.s:2212   .debug_str:00000000000002b7 .LASF94
     /tmp/ccNJVoqc.s:2352   .debug_str:00000000000007d4 .LASF95
     /tmp/ccNJVoqc.s:105    .text:000000000000006c .LFB39
     /tmp/ccNJVoqc.s:181    .text:00000000000000cc .LFE39
     /tmp/ccNJVoqc.s:2284   .debug_str:00000000000004f2 .LASF96
     /tmp/ccNJVoqc.s:123    .text:0000000000000088 .LBB25
     /tmp/ccNJVoqc.s:130    .text:000000000000008c .LBE25
     /tmp/ccNJVoqc.s:2021   .debug_loc:0000000000000000 .LLST6
     /tmp/ccNJVoqc.s:135    .text:0000000000000090 .LBB27
     /tmp/ccNJVoqc.s:142    .text:0000000000000094 .LBE27
     /tmp/ccNJVoqc.s:2028   .debug_loc:0000000000000023 .LLST7
     /tmp/ccNJVoqc.s:2036   .debug_loc:0000000000000047 .LLST8
     /tmp/ccNJVoqc.s:150    .text:00000000000000a0 .LBB29
     /tmp/ccNJVoqc.s:157    .text:00000000000000a4 .LBE29
     /tmp/ccNJVoqc.s:2043   .debug_loc:000000000000006a .LLST9
     /tmp/ccNJVoqc.s:2050   .debug_loc:000000000000008d .LLST10
     /tmp/ccNJVoqc.s:10     .text:0000000000000000 .LFB38
     /tmp/ccNJVoqc.s:99     .text:000000000000006c .LFE38
     /tmp/ccNJVoqc.s:2057   .debug_loc:00000000000000b0 .LLST0
     /tmp/ccNJVoqc.s:2124   .debug_ranges:0000000000000000 .Ldebug_ranges0
     /tmp/ccNJVoqc.s:2071   .debug_loc:00000000000000e9 .LLST1
     /tmp/ccNJVoqc.s:34     .text:0000000000000020 .LBB18
     /tmp/ccNJVoqc.s:42     .text:0000000000000024 .LBE18
     /tmp/ccNJVoqc.s:2082   .debug_loc:000000000000011f .LLST2
     /tmp/ccNJVoqc.s:2090   .debug_loc:0000000000000143 .LLST3
     /tmp/ccNJVoqc.s:44     .text:0000000000000024 .LBB20
     /tmp/ccNJVoqc.s:51     .text:0000000000000028 .LBE20
GAS LISTING /tmp/ccNJVoqc.s 			page 11


     /tmp/ccNJVoqc.s:2097   .debug_loc:0000000000000166 .LLST4
     /tmp/ccNJVoqc.s:72     .text:0000000000000044 .LBB22
     /tmp/ccNJVoqc.s:79     .text:0000000000000048 .LBE22
     /tmp/ccNJVoqc.s:2104   .debug_loc:0000000000000189 .LLST5
     /tmp/ccNJVoqc.s:2194   .debug_str:0000000000000221 .LASF109
     /tmp/ccNJVoqc.s:122    .text:0000000000000088 .LVL11
     /tmp/ccNJVoqc.s:128    .text:000000000000008c .LVL12
     /tmp/ccNJVoqc.s:134    .text:0000000000000090 .LVL13
     /tmp/ccNJVoqc.s:140    .text:0000000000000094 .LVL14
     /tmp/ccNJVoqc.s:149    .text:00000000000000a0 .LVL15
     /tmp/ccNJVoqc.s:155    .text:00000000000000a4 .LVL16
     /tmp/ccNJVoqc.s:14     .text:0000000000000000 .LVL0
     /tmp/ccNJVoqc.s:22     .text:0000000000000010 .LVL1
     /tmp/ccNJVoqc.s:54     .text:000000000000002c .LVL5
     /tmp/ccNJVoqc.s:64     .text:0000000000000038 .LVL6
     /tmp/ccNJVoqc.s:83     .text:0000000000000054 .LVL9
     /tmp/ccNJVoqc.s:33     .text:0000000000000020 .LVL2
     /tmp/ccNJVoqc.s:40     .text:0000000000000024 .LVL3
     /tmp/ccNJVoqc.s:49     .text:0000000000000028 .LVL4
     /tmp/ccNJVoqc.s:71     .text:0000000000000044 .LVL7
     /tmp/ccNJVoqc.s:77     .text:0000000000000048 .LVL8
     /tmp/ccNJVoqc.s:201    .debug_info:0000000000000000 .Ldebug_info0
     /tmp/ccNJVoqc.s:24     .text:0000000000000010 .LBB17
     /tmp/ccNJVoqc.s:56     .text:000000000000002c .LBE17
     /tmp/ccNJVoqc.s:61     .text:0000000000000038 .LBB24
     /tmp/ccNJVoqc.s:85     .text:0000000000000054 .LBE24

UNDEFINED SYMBOLS
_ZN3TCB4idleE
