GAS LISTING /tmp/ccHKzUAR.s 			page 1


   1              		.file	"semaphore.cpp"
   2              		.option pic
   3              		.option norelax
   4              		.text
   5              	.Ltext0:
   6              		.align	2
   7              		.globl	_ZN11MySemaphoreC2Em
   9              	_ZN11MySemaphoreC2Em:
  10              	.LFB56:
  11              		.file 1 "src/semaphore.cpp"
   1:src/semaphore.cpp **** #include "../h/semaphore.hpp"
   2:src/semaphore.cpp **** 
   3:src/semaphore.cpp **** #include "../h/TCB.hpp"
   4:src/semaphore.cpp **** 
   5:src/semaphore.cpp **** int MySemaphore::sem_open(MySemaphore **handle, uint64 init) {
   6:src/semaphore.cpp ****     *handle = new MySemaphore(init);
   7:src/semaphore.cpp ****     return 0;
   8:src/semaphore.cpp **** }
   9:src/semaphore.cpp **** 
  10:src/semaphore.cpp **** int MySemaphore::sem_close(MySemaphore* handle){
  11:src/semaphore.cpp ****     // deblokiraj sve niti
  12:src/semaphore.cpp ****     TCB* tmp = handle->head;
  13:src/semaphore.cpp ****     while(tmp){
  14:src/semaphore.cpp ****         tmp = handle->get_from_blocked();
  15:src/semaphore.cpp ****         if(tmp)Scheduler::getInstance().put(tmp);
  16:src/semaphore.cpp ****     }
  17:src/semaphore.cpp ****     // indikator za wait na true
  18:src/semaphore.cpp ****     handle->set_indicator(true);
  19:src/semaphore.cpp ****     return 0;
  20:src/semaphore.cpp **** }
  21:src/semaphore.cpp **** 
  22:src/semaphore.cpp **** int MySemaphore::sem_wait(MySemaphore *id) {
  23:src/semaphore.cpp ****     id->set_val(id->get_val() - 1);
  24:src/semaphore.cpp ****     if( id->get_val() < 0)id->block();
  25:src/semaphore.cpp ****     if(!id->get_indicator())return 0;
  26:src/semaphore.cpp ****     else return -1;
  27:src/semaphore.cpp **** }
  28:src/semaphore.cpp **** 
  29:src/semaphore.cpp **** int MySemaphore::sem_signal(MySemaphore *id) {
  30:src/semaphore.cpp ****     id->set_val(id->get_val() + 1);
  31:src/semaphore.cpp ****     if( id->get_val() <= 0)id->unblock();
  32:src/semaphore.cpp ****     if(!id->get_indicator())return 0;
  33:src/semaphore.cpp ****     else return -1;
  34:src/semaphore.cpp **** }
  35:src/semaphore.cpp **** 
  36:src/semaphore.cpp **** MySemaphore::MySemaphore(uint64 init) {
  12              		.loc 1 36 1
  13              		.cfi_startproc
  14              	.LVL0:
  15 0000 130101FF 		addi	sp,sp,-16
  16              		.cfi_def_cfa_offset 16
  17 0004 23348100 		sd	s0,8(sp)
  18              		.cfi_offset 8, -8
  19 0008 13040101 		addi	s0,sp,16
  20              		.cfi_def_cfa 8, 0
  21              	.LBB41:
  37:src/semaphore.cpp ****     val = init;
GAS LISTING /tmp/ccHKzUAR.s 			page 2


  22              		.loc 1 37 5
  23              		.loc 1 37 9 is_stmt 0
  24 000c 2320B500 		sw	a1,0(a0)
  38:src/semaphore.cpp ****     head = tail = nullptr;
  25              		.loc 1 38 5 is_stmt 1
  26              		.loc 1 38 17 is_stmt 0
  27 0010 23380500 		sd	zero,16(a0)
  28              		.loc 1 38 10
  29 0014 23340500 		sd	zero,8(a0)
  39:src/semaphore.cpp ****     indicator = false;
  30              		.loc 1 39 5 is_stmt 1
  31              		.loc 1 39 15 is_stmt 0
  32 0018 23020500 		sb	zero,4(a0)
  33              	.LBE41:
  40:src/semaphore.cpp **** }
  34              		.loc 1 40 1
  35 001c 03348100 		ld	s0,8(sp)
  36              		.cfi_restore 8
  37              		.cfi_def_cfa 2, 16
  38 0020 13010101 		addi	sp,sp,16
  39              		.cfi_def_cfa_offset 0
  40 0024 67800000 		jr	ra
  41              		.cfi_endproc
  42              	.LFE56:
  44              		.globl	_ZN11MySemaphoreC1Em
  45              		.set	_ZN11MySemaphoreC1Em,_ZN11MySemaphoreC2Em
  46              		.align	2
  47              		.globl	_ZN11MySemaphore8sem_openEPPS_m
  49              	_ZN11MySemaphore8sem_openEPPS_m:
  50              	.LFB51:
   5:src/semaphore.cpp ****     *handle = new MySemaphore(init);
  51              		.loc 1 5 62 is_stmt 1
  52              		.cfi_startproc
  53              	.LVL1:
  54 0028 130101FD 		addi	sp,sp,-48
  55              		.cfi_def_cfa_offset 48
  56 002c 23341102 		sd	ra,40(sp)
  57 0030 23308102 		sd	s0,32(sp)
  58 0034 233C9100 		sd	s1,24(sp)
  59 0038 23382101 		sd	s2,16(sp)
  60 003c 23343101 		sd	s3,8(sp)
  61              		.cfi_offset 1, -8
  62              		.cfi_offset 8, -16
  63              		.cfi_offset 9, -24
  64              		.cfi_offset 18, -32
  65              		.cfi_offset 19, -40
  66 0040 13040103 		addi	s0,sp,48
  67              		.cfi_def_cfa 8, 0
  68 0044 13090500 		mv	s2,a0
  69 0048 93890500 		mv	s3,a1
   6:src/semaphore.cpp ****     return 0;
  70              		.loc 1 6 5
  71              	.LVL2:
  72              	.LBB50:
  73              	.LBB51:
  74              		.file 2 "src/../h/semaphore.hpp"
   1:src/../h/semaphore.hpp **** #ifndef _semaphore_hpp_
GAS LISTING /tmp/ccHKzUAR.s 			page 3


   2:src/../h/semaphore.hpp **** #define _semaphore_hpp_
   3:src/../h/semaphore.hpp **** 
   4:src/../h/semaphore.hpp **** #include "../lib/hw.h"
   5:src/../h/semaphore.hpp **** #include "../h/MemoryAllocator.hpp"
   6:src/../h/semaphore.hpp **** 
   7:src/../h/semaphore.hpp **** class TCB;
   8:src/../h/semaphore.hpp **** 
   9:src/../h/semaphore.hpp **** class MySemaphore{
  10:src/../h/semaphore.hpp **** public:
  11:src/../h/semaphore.hpp **** 
  12:src/../h/semaphore.hpp ****     ~MySemaphore(){ sem_close(this);}
  13:src/../h/semaphore.hpp **** 
  14:src/../h/semaphore.hpp ****     static int sem_open(
  15:src/../h/semaphore.hpp ****           MySemaphore** handle,
  16:src/../h/semaphore.hpp ****           uint64 init
  17:src/../h/semaphore.hpp ****           );
  18:src/../h/semaphore.hpp ****     static int sem_close(MySemaphore* handle);
  19:src/../h/semaphore.hpp ****     static int sem_wait(MySemaphore* id);
  20:src/../h/semaphore.hpp ****     static int sem_signal(MySemaphore* id);
  21:src/../h/semaphore.hpp **** 
  22:src/../h/semaphore.hpp ****     void put_in_blocked(TCB* tcb);
  23:src/../h/semaphore.hpp **** 
  24:src/../h/semaphore.hpp ****     TCB* get_from_blocked();
  25:src/../h/semaphore.hpp **** 
  26:src/../h/semaphore.hpp ****     void block();
  27:src/../h/semaphore.hpp **** 
  28:src/../h/semaphore.hpp ****     void unblock();
  29:src/../h/semaphore.hpp **** 
  30:src/../h/semaphore.hpp ****     // getteri i setteri
  31:src/../h/semaphore.hpp ****     bool get_indicator()const{ return indicator; }
  32:src/../h/semaphore.hpp ****     void set_indicator(bool v){ indicator = v; }
  33:src/../h/semaphore.hpp ****     int get_val()const{ return val; }
  34:src/../h/semaphore.hpp ****     void set_val(int v){ val = v; }
  35:src/../h/semaphore.hpp **** 
  36:src/../h/semaphore.hpp ****     // operatori
  37:src/../h/semaphore.hpp ****     void *operator new(uint64 n){
  38:src/../h/semaphore.hpp ****         uint64 ssize = (n + MEM_BLOCK_SIZE - 1) / MEM_BLOCK_SIZE;
  75              		.loc 2 38 9
  39:src/../h/semaphore.hpp ****         return MemoryAllocator::getInstance().memory_alloc(ssize);
  76              		.loc 2 39 9
  77              	.LBB52:
  78              	.LBB53:
  79              		.file 3 "src/../h/../h/MemoryAllocator.hpp"
   1:src/../h/../h/MemoryAllocator.hpp **** #ifndef _memory_allocator_hpp_
   2:src/../h/../h/MemoryAllocator.hpp **** #define _memory_allocator_hpp_
   3:src/../h/../h/MemoryAllocator.hpp **** 
   4:src/../h/../h/MemoryAllocator.hpp **** #include "../lib/hw.h"
   5:src/../h/../h/MemoryAllocator.hpp **** 
   6:src/../h/../h/MemoryAllocator.hpp **** class MemoryAllocator{
   7:src/../h/../h/MemoryAllocator.hpp **** public:
   8:src/../h/../h/MemoryAllocator.hpp **** 
   9:src/../h/../h/MemoryAllocator.hpp ****     // dodaj instancu
  10:src/../h/../h/MemoryAllocator.hpp ****     static MemoryAllocator& getInstance(){
  11:src/../h/../h/MemoryAllocator.hpp ****         static MemoryAllocator instance;
  80              		.loc 3 11 9
  81              		.loc 3 11 32 is_stmt 0
  82 004c 97070000 		lbu	a5,_ZGVZN15MemoryAllocator11getInstanceEvE8instance
GAS LISTING /tmp/ccHKzUAR.s 			page 4


  82      83C70700 
  83 0054 63880704 		beqz	a5,.L8
  84              	.L4:
  12:src/../h/../h/MemoryAllocator.hpp ****         return instance;
  85              		.loc 3 12 9 is_stmt 1
  86              	.LBE53:
  87              	.LBE52:
  88              		.loc 2 39 59 is_stmt 0
  89 0058 93051000 		li	a1,1
  90              	.LVL3:
  91 005c 17050000 		lla	a0,_ZZN15MemoryAllocator11getInstanceEvE8instance
  91      13050500 
  92              	.LVL4:
  93 0064 97000000 		call	_ZN15MemoryAllocator12memory_allocEm@plt
  93      E7800000 
  94              	.LVL5:
  95 006c 93040500 		mv	s1,a0
  96              	.LVL6:
  97              	.LBE51:
  98              	.LBE50:
   6:src/semaphore.cpp ****     return 0;
  99              		.loc 1 6 35
 100 0070 63080500 		beqz	a0,.L6
   6:src/semaphore.cpp ****     return 0;
 101              		.loc 1 6 35 discriminator 1
 102 0074 93850900 		mv	a1,s3
 103 0078 97000000 		call	_ZN11MySemaphoreC1Em
 103      E7800000 
 104              	.LVL7:
 105              	.L6:
   6:src/semaphore.cpp ****     return 0;
 106              		.loc 1 6 13 discriminator 4
 107 0080 23309900 		sd	s1,0(s2)
   7:src/semaphore.cpp **** }
 108              		.loc 1 7 5 is_stmt 1 discriminator 4
   8:src/semaphore.cpp **** 
 109              		.loc 1 8 1 is_stmt 0 discriminator 4
 110 0084 13050000 		li	a0,0
 111 0088 83308102 		ld	ra,40(sp)
 112              		.cfi_remember_state
 113              		.cfi_restore 1
 114 008c 03340102 		ld	s0,32(sp)
 115              		.cfi_restore 8
 116              		.cfi_def_cfa 2, 48
 117 0090 83348101 		ld	s1,24(sp)
 118              		.cfi_restore 9
 119 0094 03390101 		ld	s2,16(sp)
 120              		.cfi_restore 18
 121              	.LVL8:
 122 0098 83398100 		ld	s3,8(sp)
 123              		.cfi_restore 19
 124              	.LVL9:
 125 009c 13010103 		addi	sp,sp,48
 126              		.cfi_def_cfa_offset 0
 127 00a0 67800000 		jr	ra
 128              	.LVL10:
 129              	.L8:
GAS LISTING /tmp/ccHKzUAR.s 			page 5


 130              		.cfi_restore_state
 131              	.LBB61:
 132              	.LBB60:
 133              	.LBB59:
 134              	.LBB58:
 135              	.LBB54:
 136              	.LBB55:
 137              	.LBB56:
  13:src/../h/../h/MemoryAllocator.hpp ****     }
  14:src/../h/../h/MemoryAllocator.hpp **** 
  15:src/../h/../h/MemoryAllocator.hpp ****     MemoryAllocator(const MemoryAllocator&) = delete;
  16:src/../h/../h/MemoryAllocator.hpp ****     void operator=(MemoryAllocator const&) = delete;
  17:src/../h/../h/MemoryAllocator.hpp **** 
  18:src/../h/../h/MemoryAllocator.hpp ****     void* memory_alloc (size_t);
  19:src/../h/../h/MemoryAllocator.hpp **** 
  20:src/../h/../h/MemoryAllocator.hpp ****     int memory_free (void*);
  21:src/../h/../h/MemoryAllocator.hpp ****     int get_mem_alloc_heap_start(){return this->heapStart;}
  22:src/../h/../h/MemoryAllocator.hpp ****     int get_mem_alloc_heap_end(){return this->heapEnd;}
  23:src/../h/../h/MemoryAllocator.hpp **** 
  24:src/../h/../h/MemoryAllocator.hpp **** private:
  25:src/../h/../h/MemoryAllocator.hpp **** 
  26:src/../h/../h/MemoryAllocator.hpp ****     struct FreeMem{
  27:src/../h/../h/MemoryAllocator.hpp ****         size_t size;
  28:src/../h/../h/MemoryAllocator.hpp ****         FreeMem* next;
  29:src/../h/../h/MemoryAllocator.hpp ****         FreeMem* prev;
  30:src/../h/../h/MemoryAllocator.hpp ****     };
  31:src/../h/../h/MemoryAllocator.hpp **** 
  32:src/../h/../h/MemoryAllocator.hpp ****     FreeMem* fmem_head = nullptr;
  33:src/../h/../h/MemoryAllocator.hpp ****     size_t heapStart;
  34:src/../h/../h/MemoryAllocator.hpp ****     size_t heapEnd;
  35:src/../h/../h/MemoryAllocator.hpp **** 
  36:src/../h/../h/MemoryAllocator.hpp ****     MemoryAllocator(){
 138              		.loc 3 36 22
 139 00a4 17060000 		lla	a2,_ZZN15MemoryAllocator11getInstanceEvE8instance
 139      13060600 
 140              	.LBB57:
  37:src/../h/../h/MemoryAllocator.hpp **** 
  38:src/../h/../h/MemoryAllocator.hpp ****         heapStart = (size_t)HEAP_START_ADDR + ((size_t)HEAP_END_ADDR - (size_t)HEAP_START_ADDR) / 8
 141              		.loc 3 38 9 is_stmt 1
 142              		.loc 3 38 70 is_stmt 0
 143 00ac 97070000 		la	a5,HEAP_END_ADDR
 143      83B70700 
 144 00b4 03B70700 		ld	a4,0(a5)
 145 00b8 97070000 		la	a5,HEAP_START_ADDR
 145      83B70700 
 146 00c0 83B70700 		ld	a5,0(a5)
 147 00c4 B306F740 		sub	a3,a4,a5
 148              		.loc 3 38 97
 149 00c8 93D63600 		srli	a3,a3,3
 150              		.loc 3 38 45
 151 00cc B387D700 		add	a5,a5,a3
 152              		.loc 3 38 101
 153 00d0 93871700 		addi	a5,a5,1
 154              		.loc 3 38 19
 155 00d4 2334F600 		sd	a5,8(a2)
  39:src/../h/../h/MemoryAllocator.hpp ****         heapEnd = (size_t)HEAP_END_ADDR - 1;
 156              		.loc 3 39 9 is_stmt 1
GAS LISTING /tmp/ccHKzUAR.s 			page 6


 157              		.loc 3 39 41 is_stmt 0
 158 00d8 1307F7FF 		addi	a4,a4,-1
 159              		.loc 3 39 17
 160 00dc 2338E600 		sd	a4,16(a2)
  40:src/../h/../h/MemoryAllocator.hpp **** 
  41:src/../h/../h/MemoryAllocator.hpp ****         // poravnaj na prvu krstenu adresu
  42:src/../h/../h/MemoryAllocator.hpp ****         fmem_head = (FreeMem*)(heapStart + ((heapStart % MEM_BLOCK_SIZE != 0)?(MEM_BLOCK_SIZE - hea
 161              		.loc 3 42 9 is_stmt 1
 162              		.loc 3 42 56 is_stmt 0
 163 00e0 93F6F703 		andi	a3,a5,63
 164              		.loc 3 42 78
 165 00e4 63860600 		beqz	a3,.L5
 166 00e8 13060004 		li	a2,64
 167 00ec B306D640 		sub	a3,a2,a3
 168              	.L5:
 169              		.loc 3 42 42
 170 00f0 B387D700 		add	a5,a5,a3
 171              		.loc 3 42 19
 172 00f4 97060000 		sd	a5,_ZZN15MemoryAllocator11getInstanceEvE8instance,a3
 172      23B0F600 
  43:src/../h/../h/MemoryAllocator.hpp **** 
  44:src/../h/../h/MemoryAllocator.hpp ****         size_t sizeInBlocks = (heapEnd - (size_t)fmem_head) / MEM_BLOCK_SIZE;
 173              		.loc 3 44 9 is_stmt 1
 174              		.loc 3 44 40 is_stmt 0
 175 00fc 3307F740 		sub	a4,a4,a5
 176              		.loc 3 44 16
 177 0100 13576700 		srli	a4,a4,6
 178              	.LVL11:
  45:src/../h/../h/MemoryAllocator.hpp **** 
  46:src/../h/../h/MemoryAllocator.hpp ****         // napravi node
  47:src/../h/../h/MemoryAllocator.hpp **** 
  48:src/../h/../h/MemoryAllocator.hpp ****         fmem_head->next = nullptr;
 179              		.loc 3 48 9 is_stmt 1
 180              		.loc 3 48 25 is_stmt 0
 181 0104 23B40700 		sd	zero,8(a5)
  49:src/../h/../h/MemoryAllocator.hpp ****         fmem_head->prev = nullptr;
 182              		.loc 3 49 9 is_stmt 1
 183              		.loc 3 49 25 is_stmt 0
 184 0108 23B80700 		sd	zero,16(a5)
  50:src/../h/../h/MemoryAllocator.hpp ****         fmem_head->size = sizeInBlocks;
 185              		.loc 3 50 9 is_stmt 1
 186              		.loc 3 50 25 is_stmt 0
 187 010c 23B0E700 		sd	a4,0(a5)
 188              	.LVL12:
 189              	.LBE57:
 190              	.LBE56:
 191              	.LBE55:
 192              	.LBE54:
  11:src/../h/../h/MemoryAllocator.hpp ****         return instance;
 193              		.loc 3 11 32
 194 0110 93071000 		li	a5,1
 195 0114 17070000 		sb	a5,_ZGVZN15MemoryAllocator11getInstanceEvE8instance,a4
 195      2300F700 
 196 011c 6FF0DFF3 		j	.L4
 197              	.LBE58:
 198              	.LBE59:
 199              	.LBE60:
GAS LISTING /tmp/ccHKzUAR.s 			page 7


 200              	.LBE61:
 201              		.cfi_endproc
 202              	.LFE51:
 204              		.align	2
 205              		.globl	_ZN11MySemaphore16get_from_blockedEv
 207              	_ZN11MySemaphore16get_from_blockedEv:
 208              	.LFB58:
  41:src/semaphore.cpp **** 
  42:src/semaphore.cpp **** TCB* MySemaphore::get_from_blocked() {
 209              		.loc 1 42 38 is_stmt 1
 210              		.cfi_startproc
 211              	.LVL13:
 212 0120 130101FF 		addi	sp,sp,-16
 213              		.cfi_def_cfa_offset 16
 214 0124 23348100 		sd	s0,8(sp)
 215              		.cfi_offset 8, -8
 216 0128 13040101 		addi	s0,sp,16
 217              		.cfi_def_cfa 8, 0
 218 012c 93070500 		mv	a5,a0
  43:src/semaphore.cpp ****     if(head){
 219              		.loc 1 43 5
 220              	.LBB62:
 221              		.loc 1 43 8 is_stmt 0
 222 0130 03358500 		ld	a0,8(a0)
 223              	.LVL14:
 224              		.loc 1 43 5
 225 0134 630A0500 		beqz	a0,.L9
 226              	.LBB63:
  44:src/semaphore.cpp ****         TCB* tmp = head;
 227              		.loc 1 44 9 is_stmt 1
 228              	.LVL15:
  45:src/semaphore.cpp ****         head = head->get_next_blocked();
 229              		.loc 1 45 9
 230              	.LBB64:
 231              	.LBB65:
 232              		.file 4 "src/../h/TCB.hpp"
   1:src/../h/TCB.hpp **** #ifndef _thread_hpp_
   2:src/../h/TCB.hpp **** #define _thread_hpp_
   3:src/../h/TCB.hpp **** 
   4:src/../h/TCB.hpp **** #include "../lib/hw.h"
   5:src/../h/TCB.hpp **** #include "../h/scheduler.hpp"
   6:src/../h/TCB.hpp **** #include "../h/MemoryAllocator.hpp"
   7:src/../h/TCB.hpp **** #include "../h/TS.hpp"
   8:src/../h/TCB.hpp **** #include "../h/periodic_threads.hpp"
   9:src/../h/TCB.hpp **** 
  10:src/../h/TCB.hpp **** class TCB{
  11:src/../h/TCB.hpp **** public:
  12:src/../h/TCB.hpp **** 
  13:src/../h/TCB.hpp ****     ~TCB(){
  14:src/../h/TCB.hpp ****         MemoryAllocator::getInstance().memory_free((void*)stack);
  15:src/../h/TCB.hpp ****     }
  16:src/../h/TCB.hpp **** 
  17:src/../h/TCB.hpp ****     using Body = void (*)(void*);
  18:src/../h/TCB.hpp **** 
  19:src/../h/TCB.hpp ****     // trazene
  20:src/../h/TCB.hpp ****     static int thread_create(
  21:src/../h/TCB.hpp ****         TCB** handle,
GAS LISTING /tmp/ccHKzUAR.s 			page 8


  22:src/../h/TCB.hpp ****         void(*start_routine)(void*),
  23:src/../h/TCB.hpp ****         void* arg,
  24:src/../h/TCB.hpp ****         void* stack_space,
  25:src/../h/TCB.hpp ****         bool flag
  26:src/../h/TCB.hpp ****     );
  27:src/../h/TCB.hpp **** 
  28:src/../h/TCB.hpp ****     static int thread_exit();
  29:src/../h/TCB.hpp **** 
  30:src/../h/TCB.hpp ****     static void thread_dispatch();
  31:src/../h/TCB.hpp **** 
  32:src/../h/TCB.hpp ****     static int time_sleep(uint64 time);
  33:src/../h/TCB.hpp **** 
  34:src/../h/TCB.hpp ****     // getteri i setteri
  35:src/../h/TCB.hpp ****     void set_finished(bool f){ this->finished = f; }
  36:src/../h/TCB.hpp **** 
  37:src/../h/TCB.hpp ****     bool is_finished()const{return finished;}
  38:src/../h/TCB.hpp **** 
  39:src/../h/TCB.hpp ****     void set_next_scheduler(TCB* nextThread){ next_scheduler = nextThread; }
  40:src/../h/TCB.hpp **** 
  41:src/../h/TCB.hpp ****     TCB* get_next_scheduler()const{ return next_scheduler; }
  42:src/../h/TCB.hpp **** 
  43:src/../h/TCB.hpp ****     void set_next_sleep(TCB* nextThread){ next_sleep = nextThread; }
  44:src/../h/TCB.hpp **** 
  45:src/../h/TCB.hpp ****     TCB* get_next_sleep()const{ return next_sleep; }
  46:src/../h/TCB.hpp **** 
  47:src/../h/TCB.hpp ****     void set_next_blocked(TCB* nextThread){ next_blocked = nextThread; }
  48:src/../h/TCB.hpp **** 
  49:src/../h/TCB.hpp ****     TCB* get_next_blocked()const{ return next_blocked; }
 233              		.loc 4 49 35
 234              		.loc 4 49 42 is_stmt 0
 235 0138 03370504 		ld	a4,64(a0)
 236              	.LVL16:
 237              	.LBE65:
 238              	.LBE64:
 239              		.loc 1 45 14
 240 013c 23B4E700 		sd	a4,8(a5)
  46:src/semaphore.cpp ****         if(!head)tail = nullptr;
 241              		.loc 1 46 9 is_stmt 1
 242 0140 630A0700 		beqz	a4,.L13
 243              	.L11:
  47:src/semaphore.cpp ****         tmp->set_next_blocked(nullptr);
 244              		.loc 1 47 9
 245              	.LVL17:
 246              	.LBB66:
 247              	.LBB67:
  47:src/../h/TCB.hpp **** 
 248              		.loc 4 47 45
  47:src/../h/TCB.hpp **** 
 249              		.loc 4 47 58 is_stmt 0
 250 0144 23300504 		sd	zero,64(a0)
 251              	.LVL18:
 252              	.LBE67:
 253              	.LBE66:
  48:src/semaphore.cpp ****         return tmp;
 254              		.loc 1 48 9 is_stmt 1
 255              	.L9:
 256              	.LBE63:
GAS LISTING /tmp/ccHKzUAR.s 			page 9


 257              	.LBE62:
  49:src/semaphore.cpp ****     }
  50:src/semaphore.cpp ****     return nullptr;
  51:src/semaphore.cpp **** }
 258              		.loc 1 51 1 is_stmt 0
 259 0148 03348100 		ld	s0,8(sp)
 260              		.cfi_remember_state
 261              		.cfi_restore 8
 262              		.cfi_def_cfa 2, 16
 263 014c 13010101 		addi	sp,sp,16
 264              		.cfi_def_cfa_offset 0
 265 0150 67800000 		jr	ra
 266              	.LVL19:
 267              	.L13:
 268              		.cfi_restore_state
 269              	.LBB69:
 270              	.LBB68:
  46:src/semaphore.cpp ****         tmp->set_next_blocked(nullptr);
 271              		.loc 1 46 18 is_stmt 1 discriminator 1
  46:src/semaphore.cpp ****         tmp->set_next_blocked(nullptr);
 272              		.loc 1 46 23 is_stmt 0 discriminator 1
 273 0154 23B80700 		sd	zero,16(a5)
 274 0158 6FF0DFFE 		j	.L11
 275              	.LBE68:
 276              	.LBE69:
 277              		.cfi_endproc
 278              	.LFE58:
 280              		.align	2
 281              		.globl	_ZN11MySemaphore9sem_closeEPS_
 283              	_ZN11MySemaphore9sem_closeEPS_:
 284              	.LFB52:
  10:src/semaphore.cpp ****     // deblokiraj sve niti
 285              		.loc 1 10 48 is_stmt 1
 286              		.cfi_startproc
 287              	.LVL20:
 288 015c 130101FE 		addi	sp,sp,-32
 289              		.cfi_def_cfa_offset 32
 290 0160 233C1100 		sd	ra,24(sp)
 291 0164 23388100 		sd	s0,16(sp)
 292 0168 23349100 		sd	s1,8(sp)
 293 016c 23302101 		sd	s2,0(sp)
 294              		.cfi_offset 1, -8
 295              		.cfi_offset 8, -16
 296              		.cfi_offset 9, -24
 297              		.cfi_offset 18, -32
 298 0170 13040102 		addi	s0,sp,32
 299              		.cfi_def_cfa 8, 0
 300 0174 13090500 		mv	s2,a0
  12:src/semaphore.cpp ****     while(tmp){
 301              		.loc 1 12 5
  12:src/semaphore.cpp ****     while(tmp){
 302              		.loc 1 12 10 is_stmt 0
 303 0178 83348500 		ld	s1,8(a0)
 304              	.LVL21:
 305 017c 6F008001 		j	.L15
 306              	.LVL22:
 307              	.L18:
GAS LISTING /tmp/ccHKzUAR.s 			page 10


 308              	.LBB70:
 309              	.LBB71:
 310              		.file 5 "src/../h/../h/scheduler.hpp"
   1:src/../h/../h/scheduler.hpp **** #ifndef _scheduler_hpp_
   2:src/../h/../h/scheduler.hpp **** #define _scheduler_hpp_
   3:src/../h/../h/scheduler.hpp **** 
   4:src/../h/../h/scheduler.hpp **** //#include "../test/printing.hpp"
   5:src/../h/../h/scheduler.hpp **** 
   6:src/../h/../h/scheduler.hpp **** class TCB;
   7:src/../h/../h/scheduler.hpp **** 
   8:src/../h/../h/scheduler.hpp **** class Scheduler{
   9:src/../h/../h/scheduler.hpp **** public:
  10:src/../h/../h/scheduler.hpp **** 
  11:src/../h/../h/scheduler.hpp ****     static Scheduler& getInstance(){
  12:src/../h/../h/scheduler.hpp ****         static Scheduler instance;
  13:src/../h/../h/scheduler.hpp ****         return instance;
 311              		.loc 5 13 9 is_stmt 1
 312              	.LBE71:
 313              	.LBE70:
  15:src/semaphore.cpp ****     }
 314              		.loc 1 15 44 is_stmt 0
 315 0180 93850400 		mv	a1,s1
 316 0184 17050000 		lla	a0,_ZZN9Scheduler11getInstanceEvE8instance
 316      13050500 
 317 018c 97000000 		call	_ZN9Scheduler3putEP3TCB@plt
 317      E7800000 
 318              	.LVL23:
 319              	.L15:
  13:src/semaphore.cpp ****         tmp = handle->get_from_blocked();
 320              		.loc 1 13 5 is_stmt 1
  13:src/semaphore.cpp ****         tmp = handle->get_from_blocked();
 321              		.loc 1 13 11
 322 0194 63860404 		beqz	s1,.L16
  14:src/semaphore.cpp ****         if(tmp)Scheduler::getInstance().put(tmp);
 323              		.loc 1 14 9
  14:src/semaphore.cpp ****         if(tmp)Scheduler::getInstance().put(tmp);
 324              		.loc 1 14 39 is_stmt 0
 325 0198 13050900 		mv	a0,s2
 326 019c 97000000 		call	_ZN11MySemaphore16get_from_blockedEv
 326      E7800000 
 327              	.LVL24:
 328 01a4 93040500 		mv	s1,a0
 329              	.LVL25:
  15:src/semaphore.cpp ****     }
 330              		.loc 1 15 9 is_stmt 1
 331 01a8 E30605FE 		beqz	a0,.L15
  15:src/semaphore.cpp ****     }
 332              		.loc 1 15 16
 333              	.LBB75:
 334              	.LBB74:
  12:src/../h/../h/scheduler.hpp ****         return instance;
 335              		.loc 5 12 9
  12:src/../h/../h/scheduler.hpp ****         return instance;
 336              		.loc 5 12 26 is_stmt 0
 337 01ac 97070000 		lbu	a5,_ZGVZN9Scheduler11getInstanceEvE8instance
 337      83C70700 
 338 01b4 E39607FC 		bnez	a5,.L18
GAS LISTING /tmp/ccHKzUAR.s 			page 11


 339              	.LVL26:
 340              	.LBB72:
 341              	.LBB73:
  14:src/../h/../h/scheduler.hpp ****     }
  15:src/../h/../h/scheduler.hpp **** 
  16:src/../h/../h/scheduler.hpp ****     Scheduler(const Scheduler&) = delete;
  17:src/../h/../h/scheduler.hpp ****     void operator=(Scheduler const&) = delete;
  18:src/../h/../h/scheduler.hpp **** 
  19:src/../h/../h/scheduler.hpp ****     TCB* get();
  20:src/../h/../h/scheduler.hpp **** 
  21:src/../h/../h/scheduler.hpp ****     void put(TCB* tcb);
  22:src/../h/../h/scheduler.hpp **** 
  23:src/../h/../h/scheduler.hpp **** //    static void printScheduler();
  24:src/../h/../h/scheduler.hpp **** 
  25:src/../h/../h/scheduler.hpp **** private:
  26:src/../h/../h/scheduler.hpp **** 
  27:src/../h/../h/scheduler.hpp ****     Scheduler(){
  28:src/../h/../h/scheduler.hpp ****         head = nullptr;
 342              		.loc 5 28 9 is_stmt 1
 343              		.loc 5 28 14 is_stmt 0
 344 01b8 97070000 		la	a5,_ZN9Scheduler4headE
 344      83B70700 
 345 01c0 23B00700 		sd	zero,0(a5)
  29:src/../h/../h/scheduler.hpp ****         tail = nullptr;
 346              		.loc 5 29 9 is_stmt 1
 347              		.loc 5 29 14 is_stmt 0
 348 01c4 97070000 		la	a5,_ZN9Scheduler4tailE
 348      83B70700 
 349 01cc 23B00700 		sd	zero,0(a5)
 350              	.LBE73:
 351              	.LBE72:
  12:src/../h/../h/scheduler.hpp ****         return instance;
 352              		.loc 5 12 26
 353 01d0 93071000 		li	a5,1
 354 01d4 17070000 		sb	a5,_ZGVZN9Scheduler11getInstanceEvE8instance,a4
 354      2300F700 
 355 01dc 6FF05FFA 		j	.L18
 356              	.LVL27:
 357              	.L16:
 358              	.LBE74:
 359              	.LBE75:
  18:src/semaphore.cpp ****     return 0;
 360              		.loc 1 18 5 is_stmt 1
 361              	.LBB76:
 362              	.LBB77:
  32:src/../h/semaphore.hpp ****     int get_val()const{ return val; }
 363              		.loc 2 32 33
  32:src/../h/semaphore.hpp ****     int get_val()const{ return val; }
 364              		.loc 2 32 43 is_stmt 0
 365 01e0 93071000 		li	a5,1
 366 01e4 2302F900 		sb	a5,4(s2)
 367              	.LVL28:
 368              	.LBE77:
 369              	.LBE76:
  19:src/semaphore.cpp **** }
 370              		.loc 1 19 5 is_stmt 1
  20:src/semaphore.cpp **** 
GAS LISTING /tmp/ccHKzUAR.s 			page 12


 371              		.loc 1 20 1 is_stmt 0
 372 01e8 13050000 		li	a0,0
 373 01ec 83308101 		ld	ra,24(sp)
 374              		.cfi_restore 1
 375 01f0 03340101 		ld	s0,16(sp)
 376              		.cfi_restore 8
 377              		.cfi_def_cfa 2, 32
 378 01f4 83348100 		ld	s1,8(sp)
 379              		.cfi_restore 9
 380              	.LVL29:
 381 01f8 03390100 		ld	s2,0(sp)
 382              		.cfi_restore 18
 383              	.LVL30:
 384 01fc 13010102 		addi	sp,sp,32
 385              		.cfi_def_cfa_offset 0
 386 0200 67800000 		jr	ra
 387              		.cfi_endproc
 388              	.LFE52:
 390              		.align	2
 391              		.globl	_ZN11MySemaphore14put_in_blockedEP3TCB
 393              	_ZN11MySemaphore14put_in_blockedEP3TCB:
 394              	.LFB59:
  52:src/semaphore.cpp **** 
  53:src/semaphore.cpp **** void MySemaphore::put_in_blocked(TCB *tcb) {
 395              		.loc 1 53 44 is_stmt 1
 396              		.cfi_startproc
 397              	.LVL31:
 398 0204 130101FF 		addi	sp,sp,-16
 399              		.cfi_def_cfa_offset 16
 400 0208 23348100 		sd	s0,8(sp)
 401              		.cfi_offset 8, -8
 402 020c 13040101 		addi	s0,sp,16
 403              		.cfi_def_cfa 8, 0
  54:src/semaphore.cpp ****     if(!head)head = tcb;
 404              		.loc 1 54 5
 405              		.loc 1 54 9 is_stmt 0
 406 0210 83378500 		ld	a5,8(a0)
 407              		.loc 1 54 5
 408 0214 638E0700 		beqz	a5,.L24
  55:src/semaphore.cpp ****     else tail->set_next_blocked(tcb);
 409              		.loc 1 55 10 is_stmt 1
 410 0218 83370501 		ld	a5,16(a0)
 411              	.LVL32:
 412              	.LBB78:
 413              	.LBB79:
  47:src/../h/TCB.hpp **** 
 414              		.loc 4 47 45
  47:src/../h/TCB.hpp **** 
 415              		.loc 4 47 58 is_stmt 0
 416 021c 23B0B704 		sd	a1,64(a5)
 417              	.LVL33:
 418              	.L22:
 419              	.LBE79:
 420              	.LBE78:
  56:src/semaphore.cpp ****     tail = tcb;
 421              		.loc 1 56 5 is_stmt 1
 422              		.loc 1 56 10 is_stmt 0
GAS LISTING /tmp/ccHKzUAR.s 			page 13


 423 0220 2338B500 		sd	a1,16(a0)
  57:src/semaphore.cpp **** }
 424              		.loc 1 57 1
 425 0224 03348100 		ld	s0,8(sp)
 426              		.cfi_remember_state
 427              		.cfi_restore 8
 428              		.cfi_def_cfa 2, 16
 429 0228 13010101 		addi	sp,sp,16
 430              		.cfi_def_cfa_offset 0
 431 022c 67800000 		jr	ra
 432              	.L24:
 433              		.cfi_restore_state
  54:src/semaphore.cpp ****     else tail->set_next_blocked(tcb);
 434              		.loc 1 54 14 is_stmt 1 discriminator 1
  54:src/semaphore.cpp ****     else tail->set_next_blocked(tcb);
 435              		.loc 1 54 19 is_stmt 0 discriminator 1
 436 0230 2334B500 		sd	a1,8(a0)
 437 0234 6FF0DFFE 		j	.L22
 438              		.cfi_endproc
 439              	.LFE59:
 441              		.align	2
 442              		.globl	_ZN11MySemaphore5blockEv
 444              	_ZN11MySemaphore5blockEv:
 445              	.LFB60:
  58:src/semaphore.cpp **** 
  59:src/semaphore.cpp **** void MySemaphore::block() {
 446              		.loc 1 59 27 is_stmt 1
 447              		.cfi_startproc
 448              	.LVL34:
 449 0238 130101FF 		addi	sp,sp,-16
 450              		.cfi_def_cfa_offset 16
 451 023c 23341100 		sd	ra,8(sp)
 452 0240 23308100 		sd	s0,0(sp)
 453              		.cfi_offset 1, -8
 454              		.cfi_offset 8, -16
 455 0244 13040101 		addi	s0,sp,16
 456              		.cfi_def_cfa 8, 0
  60:src/semaphore.cpp ****     TCB* old = TCB::running;
 457              		.loc 1 60 5
 458              	.LVL35:
  61:src/semaphore.cpp ****     put_in_blocked(old);
 459              		.loc 1 61 5
 460              		.loc 1 61 19 is_stmt 0
 461 0248 97070000 		la	a5,_ZN3TCB7runningE
 461      83B70700 
 462 0250 83B50700 		ld	a1,0(a5)
 463 0254 97000000 		call	_ZN11MySemaphore14put_in_blockedEP3TCB
 463      E7800000 
 464              	.LVL36:
  62:src/semaphore.cpp ****     TCB::yield();
 465              		.loc 1 62 5 is_stmt 1
 466              		.loc 1 62 15 is_stmt 0
 467 025c 97000000 		call	_ZN3TCB5yieldEv@plt
 467      E7800000 
 468              	.LVL37:
  63:src/semaphore.cpp **** }
 469              		.loc 1 63 1
GAS LISTING /tmp/ccHKzUAR.s 			page 14


 470 0264 83308100 		ld	ra,8(sp)
 471              		.cfi_restore 1
 472 0268 03340100 		ld	s0,0(sp)
 473              		.cfi_restore 8
 474              		.cfi_def_cfa 2, 16
 475 026c 13010101 		addi	sp,sp,16
 476              		.cfi_def_cfa_offset 0
 477 0270 67800000 		jr	ra
 478              		.cfi_endproc
 479              	.LFE60:
 481              		.align	2
 482              		.globl	_ZN11MySemaphore8sem_waitEPS_
 484              	_ZN11MySemaphore8sem_waitEPS_:
 485              	.LFB53:
  22:src/semaphore.cpp ****     id->set_val(id->get_val() - 1);
 486              		.loc 1 22 44 is_stmt 1
 487              		.cfi_startproc
 488              	.LVL38:
 489 0274 130101FE 		addi	sp,sp,-32
 490              		.cfi_def_cfa_offset 32
 491 0278 233C1100 		sd	ra,24(sp)
 492 027c 23388100 		sd	s0,16(sp)
 493 0280 23349100 		sd	s1,8(sp)
 494              		.cfi_offset 1, -8
 495              		.cfi_offset 8, -16
 496              		.cfi_offset 9, -24
 497 0284 13040102 		addi	s0,sp,32
 498              		.cfi_def_cfa 8, 0
 499 0288 93040500 		mv	s1,a0
  23:src/semaphore.cpp ****     if( id->get_val() < 0)id->block();
 500              		.loc 1 23 5
 501              	.LVL39:
 502              	.LBB80:
 503              	.LBB81:
  33:src/../h/semaphore.hpp ****     void set_val(int v){ val = v; }
 504              		.loc 2 33 25
  33:src/../h/semaphore.hpp ****     void set_val(int v){ val = v; }
 505              		.loc 2 33 32 is_stmt 0
 506 028c 83270500 		lw	a5,0(a0)
 507              	.LVL40:
 508              	.LBE81:
 509              	.LBE80:
  23:src/semaphore.cpp ****     if( id->get_val() < 0)id->block();
 510              		.loc 1 23 16
 511 0290 9B87F7FF 		addiw	a5,a5,-1
 512              	.LVL41:
 513              	.LBB82:
 514              	.LBB83:
  34:src/../h/semaphore.hpp **** 
 515              		.loc 2 34 26 is_stmt 1
  34:src/../h/semaphore.hpp **** 
 516              		.loc 2 34 30 is_stmt 0
 517 0294 2320F500 		sw	a5,0(a0)
 518              	.LVL42:
 519              	.LBE83:
 520              	.LBE82:
  24:src/semaphore.cpp ****     if(!id->get_indicator())return 0;
GAS LISTING /tmp/ccHKzUAR.s 			page 15


 521              		.loc 1 24 5 is_stmt 1
  33:src/../h/semaphore.hpp ****     void set_val(int v){ val = v; }
 522              		.loc 2 33 25
  24:src/semaphore.cpp ****     if(!id->get_indicator())return 0;
 523              		.loc 1 24 5 is_stmt 0
 524 0298 13970702 		slli	a4,a5,32
 525 029c 63420702 		bltz	a4,.L32
 526              	.LVL43:
 527              	.L28:
  25:src/semaphore.cpp ****     else return -1;
 528              		.loc 1 25 5 is_stmt 1
 529              	.LBB84:
 530              	.LBB85:
  31:src/../h/semaphore.hpp ****     void set_indicator(bool v){ indicator = v; }
 531              		.loc 2 31 32
  31:src/../h/semaphore.hpp ****     void set_indicator(bool v){ indicator = v; }
 532              		.loc 2 31 39 is_stmt 0
 533 02a0 83C74400 		lbu	a5,4(s1)
 534              	.LVL44:
 535              	.LBE85:
 536              	.LBE84:
  25:src/semaphore.cpp ****     else return -1;
 537              		.loc 1 25 5
 538 02a4 63940702 		bnez	a5,.L30
  25:src/semaphore.cpp ****     else return -1;
 539              		.loc 1 25 36
 540 02a8 13050000 		li	a0,0
 541              	.L29:
  27:src/semaphore.cpp **** 
 542              		.loc 1 27 1
 543 02ac 83308101 		ld	ra,24(sp)
 544              		.cfi_remember_state
 545              		.cfi_restore 1
 546 02b0 03340101 		ld	s0,16(sp)
 547              		.cfi_restore 8
 548              		.cfi_def_cfa 2, 32
 549 02b4 83348100 		ld	s1,8(sp)
 550              		.cfi_restore 9
 551              	.LVL45:
 552 02b8 13010102 		addi	sp,sp,32
 553              		.cfi_def_cfa_offset 0
 554 02bc 67800000 		jr	ra
 555              	.LVL46:
 556              	.L32:
 557              		.cfi_restore_state
  24:src/semaphore.cpp ****     if(!id->get_indicator())return 0;
 558              		.loc 1 24 27 is_stmt 1 discriminator 1
  24:src/semaphore.cpp ****     if(!id->get_indicator())return 0;
 559              		.loc 1 24 36 is_stmt 0 discriminator 1
 560 02c0 97000000 		call	_ZN11MySemaphore5blockEv
 560      E7800000 
 561              	.LVL47:
 562 02c8 6FF09FFD 		j	.L28
 563              	.L30:
  26:src/semaphore.cpp **** }
 564              		.loc 1 26 18
 565 02cc 1305F0FF 		li	a0,-1
GAS LISTING /tmp/ccHKzUAR.s 			page 16


 566 02d0 6FF0DFFD 		j	.L29
 567              		.cfi_endproc
 568              	.LFE53:
 570              		.align	2
 571              		.globl	_ZN11MySemaphore7unblockEv
 573              	_ZN11MySemaphore7unblockEv:
 574              	.LFB61:
  64:src/semaphore.cpp **** 
  65:src/semaphore.cpp **** void MySemaphore::unblock() {
 575              		.loc 1 65 29 is_stmt 1
 576              		.cfi_startproc
 577              	.LVL48:
 578 02d4 130101FF 		addi	sp,sp,-16
 579              		.cfi_def_cfa_offset 16
 580 02d8 23341100 		sd	ra,8(sp)
 581 02dc 23308100 		sd	s0,0(sp)
 582              		.cfi_offset 1, -8
 583              		.cfi_offset 8, -16
 584 02e0 13040101 		addi	s0,sp,16
 585              		.cfi_def_cfa 8, 0
  66:src/semaphore.cpp ****     TCB* tmp = get_from_blocked();
 586              		.loc 1 66 5
 587              		.loc 1 66 32 is_stmt 0
 588 02e4 97000000 		call	_ZN11MySemaphore16get_from_blockedEv
 588      E7800000 
 589              	.LVL49:
  67:src/semaphore.cpp ****     if(tmp)Scheduler::getInstance().put(tmp);
 590              		.loc 1 67 5 is_stmt 1
 591 02ec 63040504 		beqz	a0,.L33
 592 02f0 93050500 		mv	a1,a0
 593              		.loc 1 67 12
 594              	.LBB86:
 595              	.LBB87:
  12:src/../h/../h/scheduler.hpp ****         return instance;
 596              		.loc 5 12 9
  12:src/../h/../h/scheduler.hpp ****         return instance;
 597              		.loc 5 12 26 is_stmt 0
 598 02f4 97070000 		lbu	a5,_ZGVZN9Scheduler11getInstanceEvE8instance
 598      83C70700 
 599 02fc 63940702 		bnez	a5,.L35
 600              	.LVL50:
 601              	.LBB88:
 602              	.LBB89:
  28:src/../h/../h/scheduler.hpp ****         tail = nullptr;
 603              		.loc 5 28 9 is_stmt 1
  28:src/../h/../h/scheduler.hpp ****         tail = nullptr;
 604              		.loc 5 28 14 is_stmt 0
 605 0300 97070000 		la	a5,_ZN9Scheduler4headE
 605      83B70700 
 606 0308 23B00700 		sd	zero,0(a5)
 607              		.loc 5 29 9 is_stmt 1
 608              		.loc 5 29 14 is_stmt 0
 609 030c 97070000 		la	a5,_ZN9Scheduler4tailE
 609      83B70700 
 610 0314 23B00700 		sd	zero,0(a5)
 611              	.LBE89:
 612              	.LBE88:
GAS LISTING /tmp/ccHKzUAR.s 			page 17


  12:src/../h/../h/scheduler.hpp ****         return instance;
 613              		.loc 5 12 26
 614 0318 93071000 		li	a5,1
 615 031c 17070000 		sb	a5,_ZGVZN9Scheduler11getInstanceEvE8instance,a4
 615      2300F700 
 616              	.LVL51:
 617              	.L35:
  13:src/../h/../h/scheduler.hpp ****     }
 618              		.loc 5 13 9 is_stmt 1
 619              	.LBE87:
 620              	.LBE86:
 621              		.loc 1 67 40 is_stmt 0
 622 0324 17050000 		lla	a0,_ZZN9Scheduler11getInstanceEvE8instance
 622      13050500 
 623              	.LVL52:
 624 032c 97000000 		call	_ZN9Scheduler3putEP3TCB@plt
 624      E7800000 
 625              	.LVL53:
 626              	.L33:
  68:src/semaphore.cpp **** }
 627              		.loc 1 68 1
 628 0334 83308100 		ld	ra,8(sp)
 629              		.cfi_restore 1
 630 0338 03340100 		ld	s0,0(sp)
 631              		.cfi_restore 8
 632              		.cfi_def_cfa 2, 16
 633 033c 13010101 		addi	sp,sp,16
 634              		.cfi_def_cfa_offset 0
 635 0340 67800000 		jr	ra
 636              		.cfi_endproc
 637              	.LFE61:
 639              		.align	2
 640              		.globl	_ZN11MySemaphore10sem_signalEPS_
 642              	_ZN11MySemaphore10sem_signalEPS_:
 643              	.LFB54:
  29:src/semaphore.cpp ****     id->set_val(id->get_val() + 1);
 644              		.loc 1 29 46 is_stmt 1
 645              		.cfi_startproc
 646              	.LVL54:
 647 0344 130101FE 		addi	sp,sp,-32
 648              		.cfi_def_cfa_offset 32
 649 0348 233C1100 		sd	ra,24(sp)
 650 034c 23388100 		sd	s0,16(sp)
 651 0350 23349100 		sd	s1,8(sp)
 652              		.cfi_offset 1, -8
 653              		.cfi_offset 8, -16
 654              		.cfi_offset 9, -24
 655 0354 13040102 		addi	s0,sp,32
 656              		.cfi_def_cfa 8, 0
 657 0358 93040500 		mv	s1,a0
  30:src/semaphore.cpp ****     if( id->get_val() <= 0)id->unblock();
 658              		.loc 1 30 5
 659              	.LVL55:
 660              	.LBB90:
 661              	.LBB91:
  33:src/../h/semaphore.hpp ****     void set_val(int v){ val = v; }
 662              		.loc 2 33 25
GAS LISTING /tmp/ccHKzUAR.s 			page 18


  33:src/../h/semaphore.hpp ****     void set_val(int v){ val = v; }
 663              		.loc 2 33 32 is_stmt 0
 664 035c 83270500 		lw	a5,0(a0)
 665              	.LVL56:
 666              	.LBE91:
 667              	.LBE90:
  30:src/semaphore.cpp ****     if( id->get_val() <= 0)id->unblock();
 668              		.loc 1 30 16
 669 0360 9B871700 		addiw	a5,a5,1
 670 0364 1B870700 		sext.w	a4,a5
 671              	.LVL57:
 672              	.LBB92:
 673              	.LBB93:
  34:src/../h/semaphore.hpp **** 
 674              		.loc 2 34 26 is_stmt 1
  34:src/../h/semaphore.hpp **** 
 675              		.loc 2 34 30 is_stmt 0
 676 0368 2320F500 		sw	a5,0(a0)
 677              	.LVL58:
 678              	.LBE93:
 679              	.LBE92:
  31:src/semaphore.cpp ****     if(!id->get_indicator())return 0;
 680              		.loc 1 31 5 is_stmt 1
  33:src/../h/semaphore.hpp ****     void set_val(int v){ val = v; }
 681              		.loc 2 33 25
  31:src/semaphore.cpp ****     if(!id->get_indicator())return 0;
 682              		.loc 1 31 5 is_stmt 0
 683 036c 6352E002 		blez	a4,.L42
 684              	.LVL59:
 685              	.L38:
  32:src/semaphore.cpp ****     else return -1;
 686              		.loc 1 32 5 is_stmt 1
 687              	.LBB94:
 688              	.LBB95:
  31:src/../h/semaphore.hpp ****     void set_indicator(bool v){ indicator = v; }
 689              		.loc 2 31 32
  31:src/../h/semaphore.hpp ****     void set_indicator(bool v){ indicator = v; }
 690              		.loc 2 31 39 is_stmt 0
 691 0370 83C74400 		lbu	a5,4(s1)
 692              	.LVL60:
 693              	.LBE95:
 694              	.LBE94:
  32:src/semaphore.cpp ****     else return -1;
 695              		.loc 1 32 5
 696 0374 63940702 		bnez	a5,.L40
  32:src/semaphore.cpp ****     else return -1;
 697              		.loc 1 32 36
 698 0378 13050000 		li	a0,0
 699              	.L39:
  34:src/semaphore.cpp **** 
 700              		.loc 1 34 1
 701 037c 83308101 		ld	ra,24(sp)
 702              		.cfi_remember_state
 703              		.cfi_restore 1
 704 0380 03340101 		ld	s0,16(sp)
 705              		.cfi_restore 8
 706              		.cfi_def_cfa 2, 32
GAS LISTING /tmp/ccHKzUAR.s 			page 19


 707 0384 83348100 		ld	s1,8(sp)
 708              		.cfi_restore 9
 709              	.LVL61:
 710 0388 13010102 		addi	sp,sp,32
 711              		.cfi_def_cfa_offset 0
 712 038c 67800000 		jr	ra
 713              	.LVL62:
 714              	.L42:
 715              		.cfi_restore_state
  31:src/semaphore.cpp ****     if(!id->get_indicator())return 0;
 716              		.loc 1 31 28 is_stmt 1 discriminator 1
  31:src/semaphore.cpp ****     if(!id->get_indicator())return 0;
 717              		.loc 1 31 39 is_stmt 0 discriminator 1
 718 0390 97000000 		call	_ZN11MySemaphore7unblockEv
 718      E7800000 
 719              	.LVL63:
 720 0398 6FF09FFD 		j	.L38
 721              	.L40:
  33:src/semaphore.cpp **** }
 722              		.loc 1 33 18
 723 039c 1305F0FF 		li	a0,-1
 724 03a0 6FF0DFFD 		j	.L39
 725              		.cfi_endproc
 726              	.LFE54:
 728              		.weak	_ZGVZN9Scheduler11getInstanceEvE8instance
 729              		.section	.bss._ZGVZN9Scheduler11getInstanceEvE8instance,"awG",@nobits,_ZGVZN9Scheduler11getInstanc
 730              		.align	3
 733              	_ZGVZN9Scheduler11getInstanceEvE8instance:
 734 0000 00000000 		.zero	8
 734      00000000 
 735              		.weak	_ZZN9Scheduler11getInstanceEvE8instance
 736              		.section	.bss._ZZN9Scheduler11getInstanceEvE8instance,"awG",@nobits,_ZZN9Scheduler11getInstanceEvE
 737              		.align	3
 740              	_ZZN9Scheduler11getInstanceEvE8instance:
 741 0000 00       		.zero	1
 742              		.weak	_ZGVZN15MemoryAllocator11getInstanceEvE8instance
 743              		.section	.bss._ZGVZN15MemoryAllocator11getInstanceEvE8instance,"awG",@nobits,_ZGVZN15MemoryAllocat
 744              		.align	3
 747              	_ZGVZN15MemoryAllocator11getInstanceEvE8instance:
 748 0000 00000000 		.zero	8
 748      00000000 
 749              		.weak	_ZZN15MemoryAllocator11getInstanceEvE8instance
 750              		.section	.bss._ZZN15MemoryAllocator11getInstanceEvE8instance,"awG",@nobits,_ZZN15MemoryAllocator11
 751              		.align	3
 754              	_ZZN15MemoryAllocator11getInstanceEvE8instance:
 755 0000 00000000 		.zero	24
 755      00000000 
 755      00000000 
 755      00000000 
 755      00000000 
 756              		.text
 757              	.Letext0:
 758              		.file 6 "src/../h/../lib/hw.h"
GAS LISTING /tmp/ccHKzUAR.s 			page 20


DEFINED SYMBOLS
                            *ABS*:0000000000000000 semaphore.cpp
     /tmp/ccHKzUAR.s:9      .text:0000000000000000 _ZN11MySemaphoreC2Em
     /tmp/ccHKzUAR.s:13     .text:0000000000000000 .L0 
     /tmp/ccHKzUAR.s:15     .text:0000000000000000 .L0 
     /tmp/ccHKzUAR.s:16     .text:0000000000000004 .L0 
     /tmp/ccHKzUAR.s:18     .text:0000000000000008 .L0 
     /tmp/ccHKzUAR.s:20     .text:000000000000000c .L0 
     /tmp/ccHKzUAR.s:23     .text:000000000000000c .L0 
     /tmp/ccHKzUAR.s:24     .text:000000000000000c .L0 
     /tmp/ccHKzUAR.s:26     .text:0000000000000010 .L0 
     /tmp/ccHKzUAR.s:27     .text:0000000000000010 .L0 
     /tmp/ccHKzUAR.s:29     .text:0000000000000014 .L0 
     /tmp/ccHKzUAR.s:31     .text:0000000000000018 .L0 
     /tmp/ccHKzUAR.s:32     .text:0000000000000018 .L0 
     /tmp/ccHKzUAR.s:35     .text:000000000000001c .L0 
     /tmp/ccHKzUAR.s:36     .text:0000000000000020 .L0 
     /tmp/ccHKzUAR.s:37     .text:0000000000000020 .L0 
     /tmp/ccHKzUAR.s:39     .text:0000000000000024 .L0 
     /tmp/ccHKzUAR.s:41     .text:0000000000000028 .L0 
     /tmp/ccHKzUAR.s:9      .text:0000000000000000 _ZN11MySemaphoreC1Em
     /tmp/ccHKzUAR.s:49     .text:0000000000000028 _ZN11MySemaphore8sem_openEPPS_m
     /tmp/ccHKzUAR.s:52     .text:0000000000000028 .L0 
     /tmp/ccHKzUAR.s:54     .text:0000000000000028 .L0 
     /tmp/ccHKzUAR.s:55     .text:000000000000002c .L0 
     /tmp/ccHKzUAR.s:61     .text:0000000000000040 .L0 
     /tmp/ccHKzUAR.s:62     .text:0000000000000040 .L0 
     /tmp/ccHKzUAR.s:63     .text:0000000000000040 .L0 
     /tmp/ccHKzUAR.s:64     .text:0000000000000040 .L0 
     /tmp/ccHKzUAR.s:65     .text:0000000000000040 .L0 
     /tmp/ccHKzUAR.s:67     .text:0000000000000044 .L0 
     /tmp/ccHKzUAR.s:75     .text:000000000000004c .L0 
     /tmp/ccHKzUAR.s:76     .text:000000000000004c .L0 
     /tmp/ccHKzUAR.s:80     .text:000000000000004c .L0 
     /tmp/ccHKzUAR.s:81     .text:000000000000004c .L0 
     /tmp/ccHKzUAR.s:747    .bss._ZGVZN15MemoryAllocator11getInstanceEvE8instance:0000000000000000 _ZGVZN15MemoryAllocator11getInstanceEvE8instance
     /tmp/ccHKzUAR.s:82     .text:000000000000004c .L0 
     /tmp/ccHKzUAR.s:88     .text:0000000000000058 .L0 
     /tmp/ccHKzUAR.s:89     .text:0000000000000058 .L0 
     /tmp/ccHKzUAR.s:754    .bss._ZZN15MemoryAllocator11getInstanceEvE8instance:0000000000000000 _ZZN15MemoryAllocator11getInstanceEvE8instance
     /tmp/ccHKzUAR.s:100    .text:0000000000000070 .L0 
     /tmp/ccHKzUAR.s:102    .text:0000000000000074 .L0 
     /tmp/ccHKzUAR.s:107    .text:0000000000000080 .L0 
     /tmp/ccHKzUAR.s:109    .text:0000000000000084 .L0 
     /tmp/ccHKzUAR.s:110    .text:0000000000000084 .L0 
     /tmp/ccHKzUAR.s:112    .text:000000000000008c .L0 
     /tmp/ccHKzUAR.s:113    .text:000000000000008c .L0 
     /tmp/ccHKzUAR.s:115    .text:0000000000000090 .L0 
     /tmp/ccHKzUAR.s:116    .text:0000000000000090 .L0 
     /tmp/ccHKzUAR.s:118    .text:0000000000000094 .L0 
     /tmp/ccHKzUAR.s:120    .text:0000000000000098 .L0 
     /tmp/ccHKzUAR.s:123    .text:000000000000009c .L0 
     /tmp/ccHKzUAR.s:126    .text:00000000000000a0 .L0 
     /tmp/ccHKzUAR.s:130    .text:00000000000000a4 .L0 
     /tmp/ccHKzUAR.s:139    .text:00000000000000a4 .L0 
     /tmp/ccHKzUAR.s:142    .text:00000000000000ac .L0 
     /tmp/ccHKzUAR.s:143    .text:00000000000000ac .L0 
GAS LISTING /tmp/ccHKzUAR.s 			page 21


     /tmp/ccHKzUAR.s:149    .text:00000000000000c8 .L0 
     /tmp/ccHKzUAR.s:151    .text:00000000000000cc .L0 
     /tmp/ccHKzUAR.s:153    .text:00000000000000d0 .L0 
     /tmp/ccHKzUAR.s:155    .text:00000000000000d4 .L0 
     /tmp/ccHKzUAR.s:157    .text:00000000000000d8 .L0 
     /tmp/ccHKzUAR.s:158    .text:00000000000000d8 .L0 
     /tmp/ccHKzUAR.s:160    .text:00000000000000dc .L0 
     /tmp/ccHKzUAR.s:162    .text:00000000000000e0 .L0 
     /tmp/ccHKzUAR.s:163    .text:00000000000000e0 .L0 
     /tmp/ccHKzUAR.s:165    .text:00000000000000e4 .L0 
     /tmp/ccHKzUAR.s:170    .text:00000000000000f0 .L0 
     /tmp/ccHKzUAR.s:172    .text:00000000000000f4 .L0 
     /tmp/ccHKzUAR.s:174    .text:00000000000000fc .L0 
     /tmp/ccHKzUAR.s:175    .text:00000000000000fc .L0 
     /tmp/ccHKzUAR.s:177    .text:0000000000000100 .L0 
     /tmp/ccHKzUAR.s:180    .text:0000000000000104 .L0 
     /tmp/ccHKzUAR.s:181    .text:0000000000000104 .L0 
     /tmp/ccHKzUAR.s:183    .text:0000000000000108 .L0 
     /tmp/ccHKzUAR.s:184    .text:0000000000000108 .L0 
     /tmp/ccHKzUAR.s:186    .text:000000000000010c .L0 
     /tmp/ccHKzUAR.s:187    .text:000000000000010c .L0 
     /tmp/ccHKzUAR.s:194    .text:0000000000000110 .L0 
     /tmp/ccHKzUAR.s:201    .text:0000000000000120 .L0 
     /tmp/ccHKzUAR.s:207    .text:0000000000000120 _ZN11MySemaphore16get_from_blockedEv
     /tmp/ccHKzUAR.s:210    .text:0000000000000120 .L0 
     /tmp/ccHKzUAR.s:212    .text:0000000000000120 .L0 
     /tmp/ccHKzUAR.s:213    .text:0000000000000124 .L0 
     /tmp/ccHKzUAR.s:215    .text:0000000000000128 .L0 
     /tmp/ccHKzUAR.s:217    .text:000000000000012c .L0 
     /tmp/ccHKzUAR.s:221    .text:0000000000000130 .L0 
     /tmp/ccHKzUAR.s:222    .text:0000000000000130 .L0 
     /tmp/ccHKzUAR.s:225    .text:0000000000000134 .L0 
     /tmp/ccHKzUAR.s:229    .text:0000000000000138 .L0 
     /tmp/ccHKzUAR.s:233    .text:0000000000000138 .L0 
     /tmp/ccHKzUAR.s:234    .text:0000000000000138 .L0 
     /tmp/ccHKzUAR.s:235    .text:0000000000000138 .L0 
     /tmp/ccHKzUAR.s:240    .text:000000000000013c .L0 
     /tmp/ccHKzUAR.s:242    .text:0000000000000140 .L0 
     /tmp/ccHKzUAR.s:248    .text:0000000000000144 .L0 
     /tmp/ccHKzUAR.s:249    .text:0000000000000144 .L0 
     /tmp/ccHKzUAR.s:250    .text:0000000000000144 .L0 
     /tmp/ccHKzUAR.s:258    .text:0000000000000148 .L0 
     /tmp/ccHKzUAR.s:259    .text:0000000000000148 .L0 
     /tmp/ccHKzUAR.s:260    .text:000000000000014c .L0 
     /tmp/ccHKzUAR.s:261    .text:000000000000014c .L0 
     /tmp/ccHKzUAR.s:262    .text:000000000000014c .L0 
     /tmp/ccHKzUAR.s:264    .text:0000000000000150 .L0 
     /tmp/ccHKzUAR.s:268    .text:0000000000000154 .L0 
     /tmp/ccHKzUAR.s:272    .text:0000000000000154 .L0 
     /tmp/ccHKzUAR.s:273    .text:0000000000000154 .L0 
     /tmp/ccHKzUAR.s:277    .text:000000000000015c .L0 
     /tmp/ccHKzUAR.s:283    .text:000000000000015c _ZN11MySemaphore9sem_closeEPS_
     /tmp/ccHKzUAR.s:286    .text:000000000000015c .L0 
     /tmp/ccHKzUAR.s:288    .text:000000000000015c .L0 
     /tmp/ccHKzUAR.s:289    .text:0000000000000160 .L0 
     /tmp/ccHKzUAR.s:294    .text:0000000000000170 .L0 
     /tmp/ccHKzUAR.s:295    .text:0000000000000170 .L0 
GAS LISTING /tmp/ccHKzUAR.s 			page 22


     /tmp/ccHKzUAR.s:296    .text:0000000000000170 .L0 
     /tmp/ccHKzUAR.s:297    .text:0000000000000170 .L0 
     /tmp/ccHKzUAR.s:299    .text:0000000000000174 .L0 
     /tmp/ccHKzUAR.s:302    .text:0000000000000178 .L0 
     /tmp/ccHKzUAR.s:303    .text:0000000000000178 .L0 
     /tmp/ccHKzUAR.s:314    .text:0000000000000180 .L0 
     /tmp/ccHKzUAR.s:315    .text:0000000000000180 .L0 
     /tmp/ccHKzUAR.s:740    .bss._ZZN9Scheduler11getInstanceEvE8instance:0000000000000000 _ZZN9Scheduler11getInstanceEvE8instance
     /tmp/ccHKzUAR.s:321    .text:0000000000000194 .L0 
     /tmp/ccHKzUAR.s:322    .text:0000000000000194 .L0 
     /tmp/ccHKzUAR.s:324    .text:0000000000000198 .L0 
     /tmp/ccHKzUAR.s:325    .text:0000000000000198 .L0 
     /tmp/ccHKzUAR.s:331    .text:00000000000001a8 .L0 
     /tmp/ccHKzUAR.s:335    .text:00000000000001ac .L0 
     /tmp/ccHKzUAR.s:336    .text:00000000000001ac .L0 
     /tmp/ccHKzUAR.s:733    .bss._ZGVZN9Scheduler11getInstanceEvE8instance:0000000000000000 _ZGVZN9Scheduler11getInstanceEvE8instance
     /tmp/ccHKzUAR.s:337    .text:00000000000001ac .L0 
     /tmp/ccHKzUAR.s:343    .text:00000000000001b8 .L0 
     /tmp/ccHKzUAR.s:344    .text:00000000000001b8 .L0 
     /tmp/ccHKzUAR.s:347    .text:00000000000001c4 .L0 
     /tmp/ccHKzUAR.s:348    .text:00000000000001c4 .L0 
     /tmp/ccHKzUAR.s:353    .text:00000000000001d0 .L0 
     /tmp/ccHKzUAR.s:363    .text:00000000000001e0 .L0 
     /tmp/ccHKzUAR.s:364    .text:00000000000001e0 .L0 
     /tmp/ccHKzUAR.s:365    .text:00000000000001e0 .L0 
     /tmp/ccHKzUAR.s:371    .text:00000000000001e8 .L0 
     /tmp/ccHKzUAR.s:372    .text:00000000000001e8 .L0 
     /tmp/ccHKzUAR.s:374    .text:00000000000001f0 .L0 
     /tmp/ccHKzUAR.s:376    .text:00000000000001f4 .L0 
     /tmp/ccHKzUAR.s:377    .text:00000000000001f4 .L0 
     /tmp/ccHKzUAR.s:379    .text:00000000000001f8 .L0 
     /tmp/ccHKzUAR.s:382    .text:00000000000001fc .L0 
     /tmp/ccHKzUAR.s:385    .text:0000000000000200 .L0 
     /tmp/ccHKzUAR.s:387    .text:0000000000000204 .L0 
     /tmp/ccHKzUAR.s:393    .text:0000000000000204 _ZN11MySemaphore14put_in_blockedEP3TCB
     /tmp/ccHKzUAR.s:396    .text:0000000000000204 .L0 
     /tmp/ccHKzUAR.s:398    .text:0000000000000204 .L0 
     /tmp/ccHKzUAR.s:399    .text:0000000000000208 .L0 
     /tmp/ccHKzUAR.s:401    .text:000000000000020c .L0 
     /tmp/ccHKzUAR.s:403    .text:0000000000000210 .L0 
     /tmp/ccHKzUAR.s:405    .text:0000000000000210 .L0 
     /tmp/ccHKzUAR.s:406    .text:0000000000000210 .L0 
     /tmp/ccHKzUAR.s:408    .text:0000000000000214 .L0 
     /tmp/ccHKzUAR.s:410    .text:0000000000000218 .L0 
     /tmp/ccHKzUAR.s:415    .text:000000000000021c .L0 
     /tmp/ccHKzUAR.s:416    .text:000000000000021c .L0 
     /tmp/ccHKzUAR.s:422    .text:0000000000000220 .L0 
     /tmp/ccHKzUAR.s:423    .text:0000000000000220 .L0 
     /tmp/ccHKzUAR.s:425    .text:0000000000000224 .L0 
     /tmp/ccHKzUAR.s:426    .text:0000000000000228 .L0 
     /tmp/ccHKzUAR.s:427    .text:0000000000000228 .L0 
     /tmp/ccHKzUAR.s:428    .text:0000000000000228 .L0 
     /tmp/ccHKzUAR.s:430    .text:000000000000022c .L0 
     /tmp/ccHKzUAR.s:433    .text:0000000000000230 .L0 
     /tmp/ccHKzUAR.s:435    .text:0000000000000230 .L0 
     /tmp/ccHKzUAR.s:436    .text:0000000000000230 .L0 
     /tmp/ccHKzUAR.s:438    .text:0000000000000238 .L0 
GAS LISTING /tmp/ccHKzUAR.s 			page 23


     /tmp/ccHKzUAR.s:444    .text:0000000000000238 _ZN11MySemaphore5blockEv
     /tmp/ccHKzUAR.s:447    .text:0000000000000238 .L0 
     /tmp/ccHKzUAR.s:449    .text:0000000000000238 .L0 
     /tmp/ccHKzUAR.s:450    .text:000000000000023c .L0 
     /tmp/ccHKzUAR.s:453    .text:0000000000000244 .L0 
     /tmp/ccHKzUAR.s:454    .text:0000000000000244 .L0 
     /tmp/ccHKzUAR.s:456    .text:0000000000000248 .L0 
     /tmp/ccHKzUAR.s:459    .text:0000000000000248 .L0 
     /tmp/ccHKzUAR.s:460    .text:0000000000000248 .L0 
     /tmp/ccHKzUAR.s:461    .text:0000000000000248 .L0 
     /tmp/ccHKzUAR.s:466    .text:000000000000025c .L0 
     /tmp/ccHKzUAR.s:467    .text:000000000000025c .L0 
     /tmp/ccHKzUAR.s:470    .text:0000000000000264 .L0 
     /tmp/ccHKzUAR.s:471    .text:0000000000000268 .L0 
     /tmp/ccHKzUAR.s:473    .text:000000000000026c .L0 
     /tmp/ccHKzUAR.s:474    .text:000000000000026c .L0 
     /tmp/ccHKzUAR.s:476    .text:0000000000000270 .L0 
     /tmp/ccHKzUAR.s:478    .text:0000000000000274 .L0 
     /tmp/ccHKzUAR.s:484    .text:0000000000000274 _ZN11MySemaphore8sem_waitEPS_
     /tmp/ccHKzUAR.s:487    .text:0000000000000274 .L0 
     /tmp/ccHKzUAR.s:489    .text:0000000000000274 .L0 
     /tmp/ccHKzUAR.s:490    .text:0000000000000278 .L0 
     /tmp/ccHKzUAR.s:494    .text:0000000000000284 .L0 
     /tmp/ccHKzUAR.s:495    .text:0000000000000284 .L0 
     /tmp/ccHKzUAR.s:496    .text:0000000000000284 .L0 
     /tmp/ccHKzUAR.s:498    .text:0000000000000288 .L0 
     /tmp/ccHKzUAR.s:504    .text:000000000000028c .L0 
     /tmp/ccHKzUAR.s:505    .text:000000000000028c .L0 
     /tmp/ccHKzUAR.s:506    .text:000000000000028c .L0 
     /tmp/ccHKzUAR.s:511    .text:0000000000000290 .L0 
     /tmp/ccHKzUAR.s:516    .text:0000000000000294 .L0 
     /tmp/ccHKzUAR.s:517    .text:0000000000000294 .L0 
     /tmp/ccHKzUAR.s:522    .text:0000000000000298 .L0 
     /tmp/ccHKzUAR.s:523    .text:0000000000000298 .L0 
     /tmp/ccHKzUAR.s:524    .text:0000000000000298 .L0 
     /tmp/ccHKzUAR.s:531    .text:00000000000002a0 .L0 
     /tmp/ccHKzUAR.s:532    .text:00000000000002a0 .L0 
     /tmp/ccHKzUAR.s:533    .text:00000000000002a0 .L0 
     /tmp/ccHKzUAR.s:538    .text:00000000000002a4 .L0 
     /tmp/ccHKzUAR.s:540    .text:00000000000002a8 .L0 
     /tmp/ccHKzUAR.s:543    .text:00000000000002ac .L0 
     /tmp/ccHKzUAR.s:544    .text:00000000000002b0 .L0 
     /tmp/ccHKzUAR.s:545    .text:00000000000002b0 .L0 
     /tmp/ccHKzUAR.s:547    .text:00000000000002b4 .L0 
     /tmp/ccHKzUAR.s:548    .text:00000000000002b4 .L0 
     /tmp/ccHKzUAR.s:550    .text:00000000000002b8 .L0 
     /tmp/ccHKzUAR.s:553    .text:00000000000002bc .L0 
     /tmp/ccHKzUAR.s:557    .text:00000000000002c0 .L0 
     /tmp/ccHKzUAR.s:559    .text:00000000000002c0 .L0 
     /tmp/ccHKzUAR.s:560    .text:00000000000002c0 .L0 
     /tmp/ccHKzUAR.s:565    .text:00000000000002cc .L0 
     /tmp/ccHKzUAR.s:567    .text:00000000000002d4 .L0 
     /tmp/ccHKzUAR.s:573    .text:00000000000002d4 _ZN11MySemaphore7unblockEv
     /tmp/ccHKzUAR.s:576    .text:00000000000002d4 .L0 
     /tmp/ccHKzUAR.s:578    .text:00000000000002d4 .L0 
     /tmp/ccHKzUAR.s:579    .text:00000000000002d8 .L0 
     /tmp/ccHKzUAR.s:582    .text:00000000000002e0 .L0 
GAS LISTING /tmp/ccHKzUAR.s 			page 24


     /tmp/ccHKzUAR.s:583    .text:00000000000002e0 .L0 
     /tmp/ccHKzUAR.s:585    .text:00000000000002e4 .L0 
     /tmp/ccHKzUAR.s:587    .text:00000000000002e4 .L0 
     /tmp/ccHKzUAR.s:588    .text:00000000000002e4 .L0 
     /tmp/ccHKzUAR.s:591    .text:00000000000002ec .L0 
     /tmp/ccHKzUAR.s:596    .text:00000000000002f4 .L0 
     /tmp/ccHKzUAR.s:597    .text:00000000000002f4 .L0 
     /tmp/ccHKzUAR.s:598    .text:00000000000002f4 .L0 
     /tmp/ccHKzUAR.s:604    .text:0000000000000300 .L0 
     /tmp/ccHKzUAR.s:605    .text:0000000000000300 .L0 
     /tmp/ccHKzUAR.s:608    .text:000000000000030c .L0 
     /tmp/ccHKzUAR.s:609    .text:000000000000030c .L0 
     /tmp/ccHKzUAR.s:614    .text:0000000000000318 .L0 
     /tmp/ccHKzUAR.s:621    .text:0000000000000324 .L0 
     /tmp/ccHKzUAR.s:622    .text:0000000000000324 .L0 
     /tmp/ccHKzUAR.s:628    .text:0000000000000334 .L0 
     /tmp/ccHKzUAR.s:629    .text:0000000000000338 .L0 
     /tmp/ccHKzUAR.s:631    .text:000000000000033c .L0 
     /tmp/ccHKzUAR.s:632    .text:000000000000033c .L0 
     /tmp/ccHKzUAR.s:634    .text:0000000000000340 .L0 
     /tmp/ccHKzUAR.s:636    .text:0000000000000344 .L0 
     /tmp/ccHKzUAR.s:642    .text:0000000000000344 _ZN11MySemaphore10sem_signalEPS_
     /tmp/ccHKzUAR.s:645    .text:0000000000000344 .L0 
     /tmp/ccHKzUAR.s:647    .text:0000000000000344 .L0 
     /tmp/ccHKzUAR.s:648    .text:0000000000000348 .L0 
     /tmp/ccHKzUAR.s:652    .text:0000000000000354 .L0 
     /tmp/ccHKzUAR.s:653    .text:0000000000000354 .L0 
     /tmp/ccHKzUAR.s:654    .text:0000000000000354 .L0 
     /tmp/ccHKzUAR.s:656    .text:0000000000000358 .L0 
     /tmp/ccHKzUAR.s:662    .text:000000000000035c .L0 
     /tmp/ccHKzUAR.s:663    .text:000000000000035c .L0 
     /tmp/ccHKzUAR.s:664    .text:000000000000035c .L0 
     /tmp/ccHKzUAR.s:669    .text:0000000000000360 .L0 
     /tmp/ccHKzUAR.s:675    .text:0000000000000368 .L0 
     /tmp/ccHKzUAR.s:676    .text:0000000000000368 .L0 
     /tmp/ccHKzUAR.s:681    .text:000000000000036c .L0 
     /tmp/ccHKzUAR.s:682    .text:000000000000036c .L0 
     /tmp/ccHKzUAR.s:683    .text:000000000000036c .L0 
     /tmp/ccHKzUAR.s:689    .text:0000000000000370 .L0 
     /tmp/ccHKzUAR.s:690    .text:0000000000000370 .L0 
     /tmp/ccHKzUAR.s:691    .text:0000000000000370 .L0 
     /tmp/ccHKzUAR.s:696    .text:0000000000000374 .L0 
     /tmp/ccHKzUAR.s:698    .text:0000000000000378 .L0 
     /tmp/ccHKzUAR.s:701    .text:000000000000037c .L0 
     /tmp/ccHKzUAR.s:702    .text:0000000000000380 .L0 
     /tmp/ccHKzUAR.s:703    .text:0000000000000380 .L0 
     /tmp/ccHKzUAR.s:705    .text:0000000000000384 .L0 
     /tmp/ccHKzUAR.s:706    .text:0000000000000384 .L0 
     /tmp/ccHKzUAR.s:708    .text:0000000000000388 .L0 
     /tmp/ccHKzUAR.s:711    .text:000000000000038c .L0 
     /tmp/ccHKzUAR.s:715    .text:0000000000000390 .L0 
     /tmp/ccHKzUAR.s:717    .text:0000000000000390 .L0 
     /tmp/ccHKzUAR.s:718    .text:0000000000000390 .L0 
     /tmp/ccHKzUAR.s:723    .text:000000000000039c .L0 
     /tmp/ccHKzUAR.s:725    .text:00000000000003a4 .L0 
     /tmp/ccHKzUAR.s:759    .text:00000000000003a4 .L0 
     /tmp/ccHKzUAR.s:82     .text:000000000000004c .L0 
GAS LISTING /tmp/ccHKzUAR.s 			page 25


     /tmp/ccHKzUAR.s:91     .text:000000000000005c .L0 
     /tmp/ccHKzUAR.s:139    .text:00000000000000a4 .L0 
     /tmp/ccHKzUAR.s:143    .text:00000000000000ac .L0 
     /tmp/ccHKzUAR.s:145    .text:00000000000000b8 .L0 
     /tmp/ccHKzUAR.s:172    .text:00000000000000f4 .L0 
     /tmp/ccHKzUAR.s:195    .text:0000000000000114 .L0 
     /tmp/ccHKzUAR.s:316    .text:0000000000000184 .L0 
     /tmp/ccHKzUAR.s:337    .text:00000000000001ac .L0 
     /tmp/ccHKzUAR.s:344    .text:00000000000001b8 .L0 
     /tmp/ccHKzUAR.s:348    .text:00000000000001c4 .L0 
     /tmp/ccHKzUAR.s:354    .text:00000000000001d4 .L0 
     /tmp/ccHKzUAR.s:461    .text:0000000000000248 .L0 
     /tmp/ccHKzUAR.s:598    .text:00000000000002f4 .L0 
     /tmp/ccHKzUAR.s:605    .text:0000000000000300 .L0 
     /tmp/ccHKzUAR.s:609    .text:000000000000030c .L0 
     /tmp/ccHKzUAR.s:615    .text:000000000000031c .L0 
     /tmp/ccHKzUAR.s:622    .text:0000000000000324 .L0 
     /tmp/ccHKzUAR.s:129    .text:00000000000000a4 .L8
     /tmp/ccHKzUAR.s:105    .text:0000000000000080 .L6
     /tmp/ccHKzUAR.s:168    .text:00000000000000f0 .L5
     /tmp/ccHKzUAR.s:84     .text:0000000000000058 .L4
     /tmp/ccHKzUAR.s:255    .text:0000000000000148 .L9
     /tmp/ccHKzUAR.s:267    .text:0000000000000154 .L13
     /tmp/ccHKzUAR.s:243    .text:0000000000000144 .L11
     /tmp/ccHKzUAR.s:319    .text:0000000000000194 .L15
     /tmp/ccHKzUAR.s:357    .text:00000000000001e0 .L16
     /tmp/ccHKzUAR.s:307    .text:0000000000000180 .L18
     /tmp/ccHKzUAR.s:432    .text:0000000000000230 .L24
     /tmp/ccHKzUAR.s:418    .text:0000000000000220 .L22
     /tmp/ccHKzUAR.s:556    .text:00000000000002c0 .L32
     /tmp/ccHKzUAR.s:563    .text:00000000000002cc .L30
     /tmp/ccHKzUAR.s:527    .text:00000000000002a0 .L28
     /tmp/ccHKzUAR.s:541    .text:00000000000002ac .L29
     /tmp/ccHKzUAR.s:626    .text:0000000000000334 .L33
     /tmp/ccHKzUAR.s:617    .text:0000000000000324 .L35
     /tmp/ccHKzUAR.s:714    .text:0000000000000390 .L42
     /tmp/ccHKzUAR.s:721    .text:000000000000039c .L40
     /tmp/ccHKzUAR.s:685    .text:0000000000000370 .L38
     /tmp/ccHKzUAR.s:699    .text:000000000000037c .L39
     /tmp/ccHKzUAR.s:2734   .debug_abbrev:0000000000000000 .Ldebug_abbrev0
     /tmp/ccHKzUAR.s:4584   .debug_str:0000000000000adb .LASF163
     /tmp/ccHKzUAR.s:4452   .debug_str:0000000000000600 .LASF164
     /tmp/ccHKzUAR.s:4302   .debug_str:000000000000005b .LASF165
     /tmp/ccHKzUAR.s:5      .text:0000000000000000 .Ltext0
     /tmp/ccHKzUAR.s:757    .text:00000000000003a4 .Letext0
     /tmp/ccHKzUAR.s:4284   .debug_line:0000000000000000 .Ldebug_line0
     /tmp/ccHKzUAR.s:4408   .debug_str:000000000000042d .LASF0
     /tmp/ccHKzUAR.s:4436   .debug_str:0000000000000560 .LASF1
     /tmp/ccHKzUAR.s:4526   .debug_str:0000000000000942 .LASF2
     /tmp/ccHKzUAR.s:4534   .debug_str:000000000000097c .LASF4
     /tmp/ccHKzUAR.s:4414   .debug_str:0000000000000475 .LASF3
     /tmp/ccHKzUAR.s:4298   .debug_str:0000000000000048 .LASF5
     /tmp/ccHKzUAR.s:4492   .debug_str:00000000000007df .LASF6
     /tmp/ccHKzUAR.s:4430   .debug_str:0000000000000520 .LASF7
     /tmp/ccHKzUAR.s:4384   .debug_str:000000000000034b .LASF8
     /tmp/ccHKzUAR.s:4392   .debug_str:00000000000003a3 .LASF9
     /tmp/ccHKzUAR.s:4324   .debug_str:000000000000012e .LASF10
GAS LISTING /tmp/ccHKzUAR.s 			page 26


     /tmp/ccHKzUAR.s:4592   .debug_str:0000000000000bf2 .LASF11
     /tmp/ccHKzUAR.s:4374   .debug_str:0000000000000301 .LASF12
     /tmp/ccHKzUAR.s:4336   .debug_str:0000000000000194 .LASF13
     /tmp/ccHKzUAR.s:4322   .debug_str:000000000000011e .LASF14
     /tmp/ccHKzUAR.s:4558   .debug_str:0000000000000a20 .LASF15
     /tmp/ccHKzUAR.s:4356   .debug_str:0000000000000234 .LASF16
     /tmp/ccHKzUAR.s:4550   .debug_str:00000000000009e3 .LASF17
     /tmp/ccHKzUAR.s:4490   .debug_str:00000000000007cf .LASF21
     /tmp/ccHKzUAR.s:4572   .debug_str:0000000000000a81 .LASF75
     /tmp/ccHKzUAR.s:4434   .debug_str:000000000000055b .LASF18
     /tmp/ccHKzUAR.s:4326   .debug_str:000000000000013d .LASF19
     /tmp/ccHKzUAR.s:4308   .debug_str:00000000000000ae .LASF20
     /tmp/ccHKzUAR.s:4610   .debug_str:0000000000000c7e .LASF81
     /tmp/ccHKzUAR.s:4460   .debug_str:0000000000000662 .LASF83
     /tmp/ccHKzUAR.s:4416   .debug_str:0000000000000487 .LASF23
     /tmp/ccHKzUAR.s:4530   .debug_str:000000000000095d .LASF22
     /tmp/ccHKzUAR.s:4596   .debug_str:0000000000000c0c .LASF24
     /tmp/ccHKzUAR.s:4338   .debug_str:00000000000001a4 .LASF25
     /tmp/ccHKzUAR.s:4458   .debug_str:000000000000063d .LASF26
     /tmp/ccHKzUAR.s:4300   .debug_str:000000000000004f .LASF27
     /tmp/ccHKzUAR.s:4504   .debug_str:0000000000000878 .LASF28
     /tmp/ccHKzUAR.s:4524   .debug_str:0000000000000929 .LASF29
     /tmp/ccHKzUAR.s:4386   .debug_str:000000000000035b .LASF30
     /tmp/ccHKzUAR.s:4346   .debug_str:00000000000001db .LASF31
     /tmp/ccHKzUAR.s:4426   .debug_str:00000000000004d4 .LASF32
     /tmp/ccHKzUAR.s:4546   .debug_str:00000000000009c6 .LASF33
     /tmp/ccHKzUAR.s:4608   .debug_str:0000000000000c74 .LASF34
     /tmp/ccHKzUAR.s:4626   .debug_str:0000000000000ce3 .LASF35
     /tmp/ccHKzUAR.s:4304   .debug_str:000000000000008f .LASF130
     /tmp/ccHKzUAR.s:4330   .debug_str:000000000000015f .LASF36
     /tmp/ccHKzUAR.s:4624   .debug_str:0000000000000cd6 .LASF37
     /tmp/ccHKzUAR.s:4404   .debug_str:0000000000000412 .LASF39
     /tmp/ccHKzUAR.s:4516   .debug_str:00000000000008e3 .LASF38
     /tmp/ccHKzUAR.s:4334   .debug_str:0000000000000174 .LASF40
     /tmp/ccHKzUAR.s:4506   .debug_str:000000000000089d .LASF41
     /tmp/ccHKzUAR.s:4454   .debug_str:0000000000000612 .LASF42
     /tmp/ccHKzUAR.s:4630   .debug_str:0000000000000cf5 .LASF43
     /tmp/ccHKzUAR.s:4378   .debug_str:0000000000000315 .LASF44
     /tmp/ccHKzUAR.s:4396   .debug_str:00000000000003d2 .LASF45
     /tmp/ccHKzUAR.s:4394   .debug_str:00000000000003b1 .LASF46
     /tmp/ccHKzUAR.s:4594   .debug_str:0000000000000bfd .LASF47
     /tmp/ccHKzUAR.s:4590   .debug_str:0000000000000bcb .LASF48
     /tmp/ccHKzUAR.s:4568   .debug_str:0000000000000a5b .LASF49
     /tmp/ccHKzUAR.s:4472   .debug_str:00000000000006ee .LASF50
     /tmp/ccHKzUAR.s:4406   .debug_str:0000000000000427 .LASF51
     /tmp/ccHKzUAR.s:4314   .debug_str:00000000000000d2 .LASF52
     /tmp/ccHKzUAR.s:4292   .debug_str:000000000000002e .LASF53
     /tmp/ccHKzUAR.s:4350   .debug_str:0000000000000202 .LASF54
     /tmp/ccHKzUAR.s:4316   .debug_str:00000000000000eb .LASF55
     /tmp/ccHKzUAR.s:4496   .debug_str:0000000000000807 .LASF56
     /tmp/ccHKzUAR.s:4604   .debug_str:0000000000000c55 .LASF57
     /tmp/ccHKzUAR.s:4464   .debug_str:00000000000006a0 .LASF58
     /tmp/ccHKzUAR.s:4554   .debug_str:0000000000000a0a .LASF59
     /tmp/ccHKzUAR.s:4366   .debug_str:00000000000002ac .LASF60
     /tmp/ccHKzUAR.s:4354   .debug_str:000000000000022c .LASF61
     /tmp/ccHKzUAR.s:4362   .debug_str:0000000000000271 .LASF62
     /tmp/ccHKzUAR.s:4358   .debug_str:000000000000024a .LASF63
GAS LISTING /tmp/ccHKzUAR.s 			page 27


     /tmp/ccHKzUAR.s:4494   .debug_str:00000000000007f2 .LASF64
     /tmp/ccHKzUAR.s:4318   .debug_str:00000000000000f9 .LASF65
     /tmp/ccHKzUAR.s:4488   .debug_str:00000000000007ba .LASF66
     /tmp/ccHKzUAR.s:4290   .debug_str:000000000000001e .LASF67
     /tmp/ccHKzUAR.s:4448   .debug_str:00000000000005db .LASF69
     /tmp/ccHKzUAR.s:4548   .debug_str:00000000000009d0 .LASF68
     /tmp/ccHKzUAR.s:4518   .debug_str:00000000000008ec .LASF70
     /tmp/ccHKzUAR.s:4444   .debug_str:00000000000005ab .LASF71
     /tmp/ccHKzUAR.s:4628   .debug_str:0000000000000ceb .LASF72
     /tmp/ccHKzUAR.s:4372   .debug_str:00000000000002fc .LASF73
     /tmp/ccHKzUAR.s:4470   .debug_str:00000000000006e9 .LASF74
     /tmp/ccHKzUAR.s:4564   .debug_str:0000000000000a44 .LASF76
     /tmp/ccHKzUAR.s:4536   .debug_str:0000000000000983 .LASF77
     /tmp/ccHKzUAR.s:4296   .debug_str:000000000000003c .LASF78
     /tmp/ccHKzUAR.s:4556   .debug_str:0000000000000a12 .LASF79
     /tmp/ccHKzUAR.s:4486   .debug_str:0000000000000791 .LASF80
     /tmp/ccHKzUAR.s:4456   .debug_str:0000000000000631 .LASF82
     /tmp/ccHKzUAR.s:4370   .debug_str:00000000000002e5 .LASF84
     /tmp/ccHKzUAR.s:4508   .debug_str:00000000000008a7 .LASF117
     /tmp/ccHKzUAR.s:4446   .debug_str:00000000000005c0 .LASF119
     /tmp/ccHKzUAR.s:4522   .debug_str:000000000000091e .LASF85
     /tmp/ccHKzUAR.s:4538   .debug_str:0000000000000988 .LASF86
     /tmp/ccHKzUAR.s:4602   .debug_str:0000000000000c48 .LASF87
     /tmp/ccHKzUAR.s:4342   .debug_str:00000000000001be .LASF88
     /tmp/ccHKzUAR.s:4510   .debug_str:00000000000008b7 .LASF89
     /tmp/ccHKzUAR.s:4466   .debug_str:00000000000006c2 .LASF90
     /tmp/ccHKzUAR.s:4502   .debug_str:0000000000000865 .LASF91
     /tmp/ccHKzUAR.s:4364   .debug_str:000000000000028c .LASF92
     /tmp/ccHKzUAR.s:4598   .debug_str:0000000000000c28 .LASF93
     /tmp/ccHKzUAR.s:4500   .debug_str:0000000000000846 .LASF94
     /tmp/ccHKzUAR.s:4560   .debug_str:0000000000000a2c .LASF95
     /tmp/ccHKzUAR.s:4520   .debug_str:0000000000000902 .LASF96
     /tmp/ccHKzUAR.s:4420   .debug_str:00000000000004ac .LASF97
     /tmp/ccHKzUAR.s:4482   .debug_str:0000000000000771 .LASF98
     /tmp/ccHKzUAR.s:4606   .debug_str:0000000000000c63 .LASF99
     /tmp/ccHKzUAR.s:4578   .debug_str:0000000000000a9e .LASF100
     /tmp/ccHKzUAR.s:4552   .debug_str:00000000000009f9 .LASF101
     /tmp/ccHKzUAR.s:4368   .debug_str:00000000000002c8 .LASF102
     /tmp/ccHKzUAR.s:4622   .debug_str:0000000000000cc8 .LASF103
     /tmp/ccHKzUAR.s:4310   .debug_str:00000000000000b3 .LASF104
     /tmp/ccHKzUAR.s:4468   .debug_str:00000000000006da .LASF105
     /tmp/ccHKzUAR.s:4512   .debug_str:00000000000008c3 .LASF106
     /tmp/ccHKzUAR.s:4422   .debug_str:00000000000004bb .LASF107
     /tmp/ccHKzUAR.s:4360   .debug_str:0000000000000257 .LASF108
     /tmp/ccHKzUAR.s:4582   .debug_str:0000000000000acc .LASF109
     /tmp/ccHKzUAR.s:4412   .debug_str:000000000000045a .LASF110
     /tmp/ccHKzUAR.s:4600   .debug_str:0000000000000c3b .LASF111
     /tmp/ccHKzUAR.s:4588   .debug_str:0000000000000bb3 .LASF112
     /tmp/ccHKzUAR.s:4540   .debug_str:000000000000099e .LASF113
     /tmp/ccHKzUAR.s:4328   .debug_str:0000000000000142 .LASF114
     /tmp/ccHKzUAR.s:4348   .debug_str:00000000000001f2 .LASF115
     /tmp/ccHKzUAR.s:4498   .debug_str:000000000000082a .LASF116
     /tmp/ccHKzUAR.s:4438   .debug_str:0000000000000573 .LASF118
     /tmp/ccHKzUAR.s:4580   .debug_str:0000000000000abc .LASF120
     /tmp/ccHKzUAR.s:4388   .debug_str:000000000000038c .LASF121
     /tmp/ccHKzUAR.s:4380   .debug_str:0000000000000333 .LASF122
     /tmp/ccHKzUAR.s:4478   .debug_str:000000000000075a .LASF123
GAS LISTING /tmp/ccHKzUAR.s 			page 28


     /tmp/ccHKzUAR.s:4528   .debug_str:0000000000000950 .LASF124
     /tmp/ccHKzUAR.s:4574   .debug_str:0000000000000a89 .LASF125
     /tmp/ccHKzUAR.s:4376   .debug_str:0000000000000310 .LASF126
     /tmp/ccHKzUAR.s:4474   .debug_str:0000000000000713 .LASF166
     /tmp/ccHKzUAR.s:4484   .debug_str:000000000000078c .LASF167
     /tmp/ccHKzUAR.s:4480   .debug_str:0000000000000767 .LASF127
     /tmp/ccHKzUAR.s:4410   .debug_str:000000000000043a .LASF128
     /tmp/ccHKzUAR.s:4450   .debug_str:00000000000005f1 .LASF129
     /tmp/ccHKzUAR.s:4440   .debug_str:0000000000000579 .LASF131
     /tmp/ccHKzUAR.s:4352   .debug_str:000000000000021d .LASF168
     /tmp/ccHKzUAR.s:4462   .debug_str:0000000000000686 .LASF169
     /tmp/ccHKzUAR.s:4544   .debug_str:00000000000009b3 .LASF151
     /tmp/ccHKzUAR.s:4288   .debug_str:0000000000000019 .LASF132
     /tmp/ccHKzUAR.s:4418   .debug_str:00000000000004a3 .LASF133
     /tmp/ccHKzUAR.s:4620   .debug_str:0000000000000cc2 .LASF134
     /tmp/ccHKzUAR.s:4586   .debug_str:0000000000000bab .LASF135
     /tmp/ccHKzUAR.s:4562   .debug_str:0000000000000a3b .LASF136
     /tmp/ccHKzUAR.s:4566   .debug_str:0000000000000a4c .LASF137
     /tmp/ccHKzUAR.s:4400   .debug_str:00000000000003ef .LASF138
     /tmp/ccHKzUAR.s:4340   .debug_str:00000000000001b1 .LASF139
     /tmp/ccHKzUAR.s:4306   .debug_str:00000000000000a8 .LASF140
     /tmp/ccHKzUAR.s:4390   .debug_str:0000000000000398 .LASF141
     /tmp/ccHKzUAR.s:4542   .debug_str:00000000000009ae .LASF142
     /tmp/ccHKzUAR.s:4442   .debug_str:00000000000005a2 .LASF143
     /tmp/ccHKzUAR.s:4382   .debug_str:000000000000033f .LASF144
     /tmp/ccHKzUAR.s:4514   .debug_str:00000000000008de .LASF145
     /tmp/ccHKzUAR.s:4424   .debug_str:00000000000004ca .LASF146
     /tmp/ccHKzUAR.s:4428   .debug_str:0000000000000503 .LASF147
     /tmp/ccHKzUAR.s:4320   .debug_str:0000000000000109 .LASF148
     /tmp/ccHKzUAR.s:4532   .debug_str:0000000000000967 .LASF149
     /tmp/ccHKzUAR.s:4618   .debug_str:0000000000000cae .LASF170
     /tmp/ccHKzUAR.s:4402   .debug_str:00000000000003fa .LASF171
     /tmp/ccHKzUAR.s:4616   .debug_str:0000000000000c9c .LASF150
     /tmp/ccHKzUAR.s:574    .text:00000000000002d4 .LFB61
     /tmp/ccHKzUAR.s:637    .text:0000000000000344 .LFE61
     /tmp/ccHKzUAR.s:4344   .debug_str:00000000000001d6 .LASF152
     /tmp/ccHKzUAR.s:3904   .debug_loc:0000000000000000 .LLST24
     /tmp/ccHKzUAR.s:3918   .debug_loc:0000000000000039 .LLST25
     /tmp/ccHKzUAR.s:594    .text:00000000000002f4 .LBB86
     /tmp/ccHKzUAR.s:620    .text:0000000000000324 .LBE86
     /tmp/ccHKzUAR.s:601    .text:0000000000000300 .LBB88
     /tmp/ccHKzUAR.s:612    .text:0000000000000318 .LBE88
     /tmp/ccHKzUAR.s:3929   .debug_loc:000000000000006f .LLST26
     /tmp/ccHKzUAR.s:589    .text:00000000000002ec .LVL49
     /tmp/ccHKzUAR.s:625    .text:0000000000000334 .LVL53
     /tmp/ccHKzUAR.s:445    .text:0000000000000238 .LFB60
     /tmp/ccHKzUAR.s:479    .text:0000000000000274 .LFE60
     /tmp/ccHKzUAR.s:3938   .debug_loc:000000000000009b .LLST18
     /tmp/ccHKzUAR.s:464    .text:000000000000025c .LVL36
     /tmp/ccHKzUAR.s:468    .text:0000000000000264 .LVL37
     /tmp/ccHKzUAR.s:394    .text:0000000000000204 .LFB59
     /tmp/ccHKzUAR.s:439    .text:0000000000000238 .LFE59
     /tmp/ccHKzUAR.s:412    .text:000000000000021c .LBB78
     /tmp/ccHKzUAR.s:420    .text:0000000000000220 .LBE78
     /tmp/ccHKzUAR.s:3952   .debug_loc:00000000000000d4 .LLST16
     /tmp/ccHKzUAR.s:3959   .debug_loc:00000000000000f7 .LLST17
     /tmp/ccHKzUAR.s:208    .text:0000000000000120 .LFB58
GAS LISTING /tmp/ccHKzUAR.s 			page 29


     /tmp/ccHKzUAR.s:278    .text:000000000000015c .LFE58
     /tmp/ccHKzUAR.s:3966   .debug_loc:000000000000011a .LLST6
     /tmp/ccHKzUAR.s:4258   .debug_ranges:0000000000000000 .Ldebug_ranges0
     /tmp/ccHKzUAR.s:3977   .debug_loc:0000000000000150 .LLST7
     /tmp/ccHKzUAR.s:230    .text:0000000000000138 .LBB64
     /tmp/ccHKzUAR.s:238    .text:000000000000013c .LBE64
     /tmp/ccHKzUAR.s:3988   .debug_loc:0000000000000186 .LLST8
     /tmp/ccHKzUAR.s:246    .text:0000000000000144 .LBB66
     /tmp/ccHKzUAR.s:253    .text:0000000000000148 .LBE66
     /tmp/ccHKzUAR.s:3995   .debug_loc:00000000000001a9 .LLST9
     /tmp/ccHKzUAR.s:4003   .debug_loc:00000000000001cd .LLST10
     /tmp/ccHKzUAR.s:4312   .debug_str:00000000000000cd .LASF154
     /tmp/ccHKzUAR.s:4570   .debug_str:0000000000000a6c .LASF172
     /tmp/ccHKzUAR.s:10     .text:0000000000000000 .LFB56
     /tmp/ccHKzUAR.s:42     .text:0000000000000028 .LFE56
     /tmp/ccHKzUAR.s:643    .text:0000000000000344 .LFB54
     /tmp/ccHKzUAR.s:726    .text:00000000000003a4 .LFE54
     /tmp/ccHKzUAR.s:4010   .debug_loc:00000000000001f0 .LLST27
     /tmp/ccHKzUAR.s:660    .text:000000000000035c .LBB90
     /tmp/ccHKzUAR.s:667    .text:0000000000000360 .LBE90
     /tmp/ccHKzUAR.s:4032   .debug_loc:000000000000024f .LLST28
     /tmp/ccHKzUAR.s:672    .text:0000000000000368 .LBB92
     /tmp/ccHKzUAR.s:679    .text:000000000000036c .LBE92
     /tmp/ccHKzUAR.s:4039   .debug_loc:0000000000000272 .LLST29
     /tmp/ccHKzUAR.s:4046   .debug_loc:0000000000000295 .LLST30
     /tmp/ccHKzUAR.s:687    .text:0000000000000370 .LBB94
     /tmp/ccHKzUAR.s:694    .text:0000000000000374 .LBE94
     /tmp/ccHKzUAR.s:4053   .debug_loc:00000000000002b8 .LLST31
     /tmp/ccHKzUAR.s:719    .text:0000000000000398 .LVL63
     /tmp/ccHKzUAR.s:485    .text:0000000000000274 .LFB53
     /tmp/ccHKzUAR.s:568    .text:00000000000002d4 .LFE53
     /tmp/ccHKzUAR.s:4060   .debug_loc:00000000000002db .LLST19
     /tmp/ccHKzUAR.s:502    .text:000000000000028c .LBB80
     /tmp/ccHKzUAR.s:509    .text:0000000000000290 .LBE80
     /tmp/ccHKzUAR.s:4082   .debug_loc:000000000000033a .LLST20
     /tmp/ccHKzUAR.s:513    .text:0000000000000294 .LBB82
     /tmp/ccHKzUAR.s:520    .text:0000000000000298 .LBE82
     /tmp/ccHKzUAR.s:4089   .debug_loc:000000000000035d .LLST21
     /tmp/ccHKzUAR.s:4096   .debug_loc:0000000000000380 .LLST22
     /tmp/ccHKzUAR.s:529    .text:00000000000002a0 .LBB84
     /tmp/ccHKzUAR.s:536    .text:00000000000002a4 .LBE84
     /tmp/ccHKzUAR.s:4103   .debug_loc:00000000000003a3 .LLST23
     /tmp/ccHKzUAR.s:561    .text:00000000000002c8 .LVL47
     /tmp/ccHKzUAR.s:284    .text:000000000000015c .LFB52
     /tmp/ccHKzUAR.s:388    .text:0000000000000204 .LFE52
     /tmp/ccHKzUAR.s:4612   .debug_str:0000000000000c8a .LASF153
     /tmp/ccHKzUAR.s:4110   .debug_loc:00000000000003c6 .LLST11
     /tmp/ccHKzUAR.s:4128   .debug_loc:0000000000000412 .LLST12
     /tmp/ccHKzUAR.s:308    .text:0000000000000180 .LBB70
     /tmp/ccHKzUAR.s:340    .text:00000000000001b8 .LBB72
     /tmp/ccHKzUAR.s:351    .text:00000000000001d0 .LBE72
     /tmp/ccHKzUAR.s:4135   .debug_loc:0000000000000435 .LLST13
     /tmp/ccHKzUAR.s:361    .text:00000000000001e0 .LBB76
     /tmp/ccHKzUAR.s:369    .text:00000000000001e8 .LBE76
     /tmp/ccHKzUAR.s:4144   .debug_loc:0000000000000461 .LLST14
     /tmp/ccHKzUAR.s:4152   .debug_loc:0000000000000485 .LLST15
     /tmp/ccHKzUAR.s:318    .text:0000000000000194 .LVL23
GAS LISTING /tmp/ccHKzUAR.s 			page 30


     /tmp/ccHKzUAR.s:327    .text:00000000000001a4 .LVL24
     /tmp/ccHKzUAR.s:50     .text:0000000000000028 .LFB51
     /tmp/ccHKzUAR.s:202    .text:0000000000000120 .LFE51
     /tmp/ccHKzUAR.s:4159   .debug_loc:00000000000004a8 .LLST0
     /tmp/ccHKzUAR.s:4181   .debug_loc:0000000000000507 .LLST1
     /tmp/ccHKzUAR.s:72     .text:000000000000004c .LBB50
     /tmp/ccHKzUAR.s:4203   .debug_loc:0000000000000566 .LLST2
     /tmp/ccHKzUAR.s:4216   .debug_loc:000000000000059e .LLST3
     /tmp/ccHKzUAR.s:77     .text:000000000000004c .LBB52
     /tmp/ccHKzUAR.s:135    .text:00000000000000a4 .LBB54
     /tmp/ccHKzUAR.s:192    .text:0000000000000110 .LBE54
     /tmp/ccHKzUAR.s:4229   .debug_loc:00000000000005d6 .LLST4
     /tmp/ccHKzUAR.s:140    .text:00000000000000ac .LBB57
     /tmp/ccHKzUAR.s:189    .text:0000000000000110 .LBE57
     /tmp/ccHKzUAR.s:4238   .debug_loc:0000000000000602 .LLST5
     /tmp/ccHKzUAR.s:94     .text:000000000000006c .LVL5
     /tmp/ccHKzUAR.s:104    .text:0000000000000080 .LVL7
     /tmp/ccHKzUAR.s:4614   .debug_str:0000000000000c91 .LASF155
     /tmp/ccHKzUAR.s:4398   .debug_str:00000000000003dd .LASF158
     /tmp/ccHKzUAR.s:4332   .debug_str:000000000000016b .LASF160
     /tmp/ccHKzUAR.s:4432   .debug_str:0000000000000533 .LASF161
     /tmp/ccHKzUAR.s:4294   .debug_str:0000000000000036 .LASF156
     /tmp/ccHKzUAR.s:4576   .debug_str:0000000000000a91 .LASF157
     /tmp/ccHKzUAR.s:4286   .debug_str:0000000000000000 .LASF159
     /tmp/ccHKzUAR.s:4476   .debug_str:000000000000072b .LASF162
     /tmp/ccHKzUAR.s:577    .text:00000000000002d4 .LVL48
     /tmp/ccHKzUAR.s:623    .text:000000000000032c .LVL52
     /tmp/ccHKzUAR.s:600    .text:0000000000000300 .LVL50
     /tmp/ccHKzUAR.s:616    .text:0000000000000324 .LVL51
     /tmp/ccHKzUAR.s:448    .text:0000000000000238 .LVL34
     /tmp/ccHKzUAR.s:411    .text:000000000000021c .LVL32
     /tmp/ccHKzUAR.s:417    .text:0000000000000220 .LVL33
     /tmp/ccHKzUAR.s:211    .text:0000000000000120 .LVL13
     /tmp/ccHKzUAR.s:223    .text:0000000000000134 .LVL14
     /tmp/ccHKzUAR.s:228    .text:0000000000000138 .LVL15
     /tmp/ccHKzUAR.s:251    .text:0000000000000148 .LVL18
     /tmp/ccHKzUAR.s:266    .text:0000000000000154 .LVL19
     /tmp/ccHKzUAR.s:236    .text:000000000000013c .LVL16
     /tmp/ccHKzUAR.s:245    .text:0000000000000144 .LVL17
     /tmp/ccHKzUAR.s:646    .text:0000000000000344 .LVL54
     /tmp/ccHKzUAR.s:684    .text:0000000000000370 .LVL59
     /tmp/ccHKzUAR.s:709    .text:0000000000000388 .LVL61
     /tmp/ccHKzUAR.s:713    .text:0000000000000390 .LVL62
     /tmp/ccHKzUAR.s:659    .text:000000000000035c .LVL55
     /tmp/ccHKzUAR.s:665    .text:0000000000000360 .LVL56
     /tmp/ccHKzUAR.s:671    .text:0000000000000368 .LVL57
     /tmp/ccHKzUAR.s:677    .text:000000000000036c .LVL58
     /tmp/ccHKzUAR.s:692    .text:0000000000000374 .LVL60
     /tmp/ccHKzUAR.s:488    .text:0000000000000274 .LVL38
     /tmp/ccHKzUAR.s:526    .text:00000000000002a0 .LVL43
     /tmp/ccHKzUAR.s:551    .text:00000000000002b8 .LVL45
     /tmp/ccHKzUAR.s:555    .text:00000000000002c0 .LVL46
     /tmp/ccHKzUAR.s:501    .text:000000000000028c .LVL39
     /tmp/ccHKzUAR.s:507    .text:0000000000000290 .LVL40
     /tmp/ccHKzUAR.s:512    .text:0000000000000294 .LVL41
     /tmp/ccHKzUAR.s:518    .text:0000000000000298 .LVL42
     /tmp/ccHKzUAR.s:534    .text:00000000000002a4 .LVL44
GAS LISTING /tmp/ccHKzUAR.s 			page 31


     /tmp/ccHKzUAR.s:287    .text:000000000000015c .LVL20
     /tmp/ccHKzUAR.s:306    .text:0000000000000180 .LVL22
     /tmp/ccHKzUAR.s:383    .text:00000000000001fc .LVL30
     /tmp/ccHKzUAR.s:304    .text:000000000000017c .LVL21
     /tmp/ccHKzUAR.s:380    .text:00000000000001f8 .LVL29
     /tmp/ccHKzUAR.s:339    .text:00000000000001b8 .LVL26
     /tmp/ccHKzUAR.s:356    .text:00000000000001e0 .LVL27
     /tmp/ccHKzUAR.s:367    .text:00000000000001e8 .LVL28
     /tmp/ccHKzUAR.s:53     .text:0000000000000028 .LVL1
     /tmp/ccHKzUAR.s:92     .text:0000000000000064 .LVL4
     /tmp/ccHKzUAR.s:121    .text:0000000000000098 .LVL8
     /tmp/ccHKzUAR.s:128    .text:00000000000000a4 .LVL10
     /tmp/ccHKzUAR.s:90     .text:000000000000005c .LVL3
     /tmp/ccHKzUAR.s:124    .text:000000000000009c .LVL9
     /tmp/ccHKzUAR.s:71     .text:000000000000004c .LVL2
     /tmp/ccHKzUAR.s:96     .text:0000000000000070 .LVL6
     /tmp/ccHKzUAR.s:188    .text:0000000000000110 .LVL12
     /tmp/ccHKzUAR.s:178    .text:0000000000000104 .LVL11
     /tmp/ccHKzUAR.s:760    .debug_info:0000000000000000 .Ldebug_info0
     /tmp/ccHKzUAR.s:98     .text:0000000000000070 .LBE50
     /tmp/ccHKzUAR.s:131    .text:00000000000000a4 .LBB61
     /tmp/ccHKzUAR.s:200    .text:0000000000000120 .LBE61
     /tmp/ccHKzUAR.s:87     .text:0000000000000058 .LBE52
     /tmp/ccHKzUAR.s:133    .text:00000000000000a4 .LBB59
     /tmp/ccHKzUAR.s:198    .text:0000000000000120 .LBE59
     /tmp/ccHKzUAR.s:226    .text:0000000000000138 .LBB63
     /tmp/ccHKzUAR.s:256    .text:0000000000000148 .LBE63
     /tmp/ccHKzUAR.s:270    .text:0000000000000154 .LBB68
     /tmp/ccHKzUAR.s:275    .text:000000000000015c .LBE68
     /tmp/ccHKzUAR.s:313    .text:0000000000000180 .LBE70
     /tmp/ccHKzUAR.s:333    .text:00000000000001ac .LBB75
     /tmp/ccHKzUAR.s:359    .text:00000000000001e0 .LBE75

UNDEFINED SYMBOLS
_ZN15MemoryAllocator12memory_allocEm
HEAP_END_ADDR
HEAP_START_ADDR
_ZN9Scheduler3putEP3TCB
_ZN9Scheduler4headE
_ZN9Scheduler4tailE
_ZN3TCB7runningE
_ZN3TCB5yieldEv
