GAS LISTING /tmp/ccUY8n86.s 			page 1


   1              		.file	"semaphore.cpp"
   2              		.option pic
   3              		.option norelax
   4              		.text
   5              	.Ltext0:
   6              		.align	2
   7              		.globl	_ZN11MySemaphore15semaphore_setupEPv
   9              	_ZN11MySemaphore15semaphore_setupEPv:
  10              	.LFB49:
  11              		.file 1 "src/semaphore.cpp"
   1:src/semaphore.cpp **** #include "../h/semaphore.hpp"
   2:src/semaphore.cpp **** 
   3:src/semaphore.cpp **** #include "../h/TCB.hpp"
   4:src/semaphore.cpp **** 
   5:src/semaphore.cpp **** kmem_cache_t* MySemaphore::semaphore_cache = nullptr;
   6:src/semaphore.cpp **** 
   7:src/semaphore.cpp **** int MySemaphore::sem_open(MySemaphore **handle, uint64 init) {
   8:src/semaphore.cpp ****     auto* sem = (MySemaphore*)kmem_cache_alloc(get_sem_cache());
   9:src/semaphore.cpp ****     sem->val = (int)init;
  10:src/semaphore.cpp ****     *handle = sem;
  11:src/semaphore.cpp ****     return 0;
  12:src/semaphore.cpp **** }
  13:src/semaphore.cpp **** 
  14:src/semaphore.cpp **** int MySemaphore::sem_close(MySemaphore* handle){
  15:src/semaphore.cpp ****     // deblokiraj sve niti
  16:src/semaphore.cpp ****     TCB* tmp = handle->head;
  17:src/semaphore.cpp ****     while(tmp){
  18:src/semaphore.cpp ****         tmp = handle->get_from_blocked();
  19:src/semaphore.cpp ****         if(tmp)Scheduler::getInstance().put(tmp);
  20:src/semaphore.cpp ****     }
  21:src/semaphore.cpp ****     // indikator za wait na true
  22:src/semaphore.cpp ****     handle->set_indicator(true);
  23:src/semaphore.cpp **** //    kmem_cache_free(get_sem_cache(), handle);
  24:src/semaphore.cpp ****     return 0;
  25:src/semaphore.cpp **** }
  26:src/semaphore.cpp **** 
  27:src/semaphore.cpp **** int MySemaphore::sem_wait(MySemaphore *id) {
  28:src/semaphore.cpp ****     id->set_val(id->get_val() - 1);
  29:src/semaphore.cpp ****     if( id->get_val() < 0)id->block();
  30:src/semaphore.cpp ****     if(!id->get_indicator())return 0;
  31:src/semaphore.cpp ****     else return -1;
  32:src/semaphore.cpp **** }
  33:src/semaphore.cpp **** 
  34:src/semaphore.cpp **** int MySemaphore::sem_signal(MySemaphore *id) {
  35:src/semaphore.cpp ****     id->set_val(id->get_val() + 1);
  36:src/semaphore.cpp ****     if( id->get_val() <= 0)id->unblock();
  37:src/semaphore.cpp ****     if(!id->get_indicator())return 0;
  38:src/semaphore.cpp ****     else return -1;
  39:src/semaphore.cpp **** }
  40:src/semaphore.cpp **** 
  41:src/semaphore.cpp **** MySemaphore::MySemaphore(uint64 init) {
  42:src/semaphore.cpp ****     val = init;
  43:src/semaphore.cpp ****     head = tail = nullptr;
  44:src/semaphore.cpp ****     indicator = false;
  45:src/semaphore.cpp **** }
  46:src/semaphore.cpp **** 
  47:src/semaphore.cpp **** TCB* MySemaphore::get_from_blocked() {
GAS LISTING /tmp/ccUY8n86.s 			page 2


  48:src/semaphore.cpp ****     if(head){
  49:src/semaphore.cpp ****         TCB* tmp = head;
  50:src/semaphore.cpp ****         head = head->get_next_blocked();
  51:src/semaphore.cpp ****         if(!head)tail = nullptr;
  52:src/semaphore.cpp ****         tmp->set_next_blocked(nullptr);
  53:src/semaphore.cpp ****         return tmp;
  54:src/semaphore.cpp ****     }
  55:src/semaphore.cpp ****     return nullptr;
  56:src/semaphore.cpp **** }
  57:src/semaphore.cpp **** 
  58:src/semaphore.cpp **** void MySemaphore::put_in_blocked(TCB *tcb) {
  59:src/semaphore.cpp ****     if(!head)head = tcb;
  60:src/semaphore.cpp ****     else tail->set_next_blocked(tcb);
  61:src/semaphore.cpp ****     tail = tcb;
  62:src/semaphore.cpp **** }
  63:src/semaphore.cpp **** 
  64:src/semaphore.cpp **** void MySemaphore::block() {
  65:src/semaphore.cpp ****     TCB* old = TCB::running;
  66:src/semaphore.cpp ****     put_in_blocked(old);
  67:src/semaphore.cpp ****     TCB::yield();
  68:src/semaphore.cpp **** }
  69:src/semaphore.cpp **** 
  70:src/semaphore.cpp **** void MySemaphore::unblock() {
  71:src/semaphore.cpp ****     TCB* tmp = get_from_blocked();
  72:src/semaphore.cpp ****     if(tmp)Scheduler::getInstance().put(tmp);
  73:src/semaphore.cpp **** }
  74:src/semaphore.cpp **** 
  75:src/semaphore.cpp **** kmem_cache_t * &MySemaphore::get_sem_cache() {
  76:src/semaphore.cpp ****     if(!semaphore_cache){
  77:src/semaphore.cpp ****         semaphore_cache = kmem_cache_create("semaphore_cache", sizeof(MySemaphore), &semaphore_setu
  78:src/semaphore.cpp ****     }
  79:src/semaphore.cpp ****     return semaphore_cache;
  80:src/semaphore.cpp **** }
  81:src/semaphore.cpp **** 
  82:src/semaphore.cpp **** void MySemaphore::semaphore_setup(void *mySemaphore) {
  12              		.loc 1 82 54
  13              		.cfi_startproc
  14              	.LVL0:
  15 0000 130101FF 		addi	sp,sp,-16
  16              		.cfi_def_cfa_offset 16
  17 0004 23348100 		sd	s0,8(sp)
  18              		.cfi_offset 8, -8
  19 0008 13040101 		addi	s0,sp,16
  20              		.cfi_def_cfa 8, 0
  83:src/semaphore.cpp ****     MySemaphore* sem = (MySemaphore*)mySemaphore;
  21              		.loc 1 83 5
  22              	.LVL1:
  84:src/semaphore.cpp ****     sem->head = sem->tail = nullptr;
  23              		.loc 1 84 5
  24              		.loc 1 84 27 is_stmt 0
  25 000c 23380500 		sd	zero,16(a0)
  26              		.loc 1 84 15
  27 0010 23340500 		sd	zero,8(a0)
  85:src/semaphore.cpp ****     sem->indicator = false;
  28              		.loc 1 85 5 is_stmt 1
  29              		.loc 1 85 20 is_stmt 0
  30 0014 23020500 		sb	zero,4(a0)
GAS LISTING /tmp/ccUY8n86.s 			page 3


  86:src/semaphore.cpp **** 
  87:src/semaphore.cpp **** }
  31              		.loc 1 87 1
  32 0018 03348100 		ld	s0,8(sp)
  33              		.cfi_restore 8
  34              		.cfi_def_cfa 2, 16
  35 001c 13010101 		addi	sp,sp,16
  36              		.cfi_def_cfa_offset 0
  37 0020 67800000 		jr	ra
  38              		.cfi_endproc
  39              	.LFE49:
  41              		.align	2
  42              		.globl	_ZN11MySemaphoreC2Em
  44              	_ZN11MySemaphoreC2Em:
  45              	.LFB42:
  41:src/semaphore.cpp ****     val = init;
  46              		.loc 1 41 1 is_stmt 1
  47              		.cfi_startproc
  48              	.LVL2:
  49 0024 130101FF 		addi	sp,sp,-16
  50              		.cfi_def_cfa_offset 16
  51 0028 23348100 		sd	s0,8(sp)
  52              		.cfi_offset 8, -8
  53 002c 13040101 		addi	s0,sp,16
  54              		.cfi_def_cfa 8, 0
  55              	.LBB28:
  42:src/semaphore.cpp ****     head = tail = nullptr;
  56              		.loc 1 42 5
  42:src/semaphore.cpp ****     head = tail = nullptr;
  57              		.loc 1 42 9 is_stmt 0
  58 0030 2320B500 		sw	a1,0(a0)
  43:src/semaphore.cpp ****     indicator = false;
  59              		.loc 1 43 5 is_stmt 1
  43:src/semaphore.cpp ****     indicator = false;
  60              		.loc 1 43 17 is_stmt 0
  61 0034 23380500 		sd	zero,16(a0)
  43:src/semaphore.cpp ****     indicator = false;
  62              		.loc 1 43 10
  63 0038 23340500 		sd	zero,8(a0)
  44:src/semaphore.cpp **** }
  64              		.loc 1 44 5 is_stmt 1
  44:src/semaphore.cpp **** }
  65              		.loc 1 44 15 is_stmt 0
  66 003c 23020500 		sb	zero,4(a0)
  67              	.LBE28:
  45:src/semaphore.cpp **** 
  68              		.loc 1 45 1
  69 0040 03348100 		ld	s0,8(sp)
  70              		.cfi_restore 8
  71              		.cfi_def_cfa 2, 16
  72 0044 13010101 		addi	sp,sp,16
  73              		.cfi_def_cfa_offset 0
  74 0048 67800000 		jr	ra
  75              		.cfi_endproc
  76              	.LFE42:
  78              		.globl	_ZN11MySemaphoreC1Em
  79              		.set	_ZN11MySemaphoreC1Em,_ZN11MySemaphoreC2Em
GAS LISTING /tmp/ccUY8n86.s 			page 4


  80              		.align	2
  81              		.globl	_ZN11MySemaphore16get_from_blockedEv
  83              	_ZN11MySemaphore16get_from_blockedEv:
  84              	.LFB44:
  47:src/semaphore.cpp ****     if(head){
  85              		.loc 1 47 38 is_stmt 1
  86              		.cfi_startproc
  87              	.LVL3:
  88 004c 130101FF 		addi	sp,sp,-16
  89              		.cfi_def_cfa_offset 16
  90 0050 23348100 		sd	s0,8(sp)
  91              		.cfi_offset 8, -8
  92 0054 13040101 		addi	s0,sp,16
  93              		.cfi_def_cfa 8, 0
  94 0058 93070500 		mv	a5,a0
  48:src/semaphore.cpp ****         TCB* tmp = head;
  95              		.loc 1 48 5
  96              	.LBB29:
  48:src/semaphore.cpp ****         TCB* tmp = head;
  97              		.loc 1 48 8 is_stmt 0
  98 005c 03358500 		ld	a0,8(a0)
  99              	.LVL4:
  48:src/semaphore.cpp ****         TCB* tmp = head;
 100              		.loc 1 48 5
 101 0060 630A0500 		beqz	a0,.L5
 102              	.LBB30:
  49:src/semaphore.cpp ****         head = head->get_next_blocked();
 103              		.loc 1 49 9 is_stmt 1
 104              	.LVL5:
  50:src/semaphore.cpp ****         if(!head)tail = nullptr;
 105              		.loc 1 50 9
 106              	.LBB31:
 107              	.LBB32:
 108              		.file 2 "src/../h/TCB.hpp"
   1:src/../h/TCB.hpp **** #ifndef _thread_hpp_
   2:src/../h/TCB.hpp **** #define _thread_hpp_
   3:src/../h/TCB.hpp **** 
   4:src/../h/TCB.hpp **** #include "../lib/hw.h"
   5:src/../h/TCB.hpp **** #include "../h/scheduler.hpp"
   6:src/../h/TCB.hpp **** #include "../h/MemoryAllocator.hpp"
   7:src/../h/TCB.hpp **** #include "../h/TS.hpp"
   8:src/../h/TCB.hpp **** #include "../h/periodic_threads.hpp"
   9:src/../h/TCB.hpp **** #include "SlabI.h"
  10:src/../h/TCB.hpp **** 
  11:src/../h/TCB.hpp **** class TCB{
  12:src/../h/TCB.hpp **** public:
  13:src/../h/TCB.hpp ****     using Body = void (*)(void*);
  14:src/../h/TCB.hpp **** 
  15:src/../h/TCB.hpp ****     // trazene
  16:src/../h/TCB.hpp ****     static int thread_create(
  17:src/../h/TCB.hpp ****         TCB** handle,
  18:src/../h/TCB.hpp ****         void(*start_routine)(void*),
  19:src/../h/TCB.hpp ****         void* arg,
  20:src/../h/TCB.hpp ****         void* stack_space,
  21:src/../h/TCB.hpp ****         bool flag
  22:src/../h/TCB.hpp ****     );
  23:src/../h/TCB.hpp **** 
GAS LISTING /tmp/ccUY8n86.s 			page 5


  24:src/../h/TCB.hpp ****     static int thread_exit();
  25:src/../h/TCB.hpp **** 
  26:src/../h/TCB.hpp ****     static void thread_dispatch();
  27:src/../h/TCB.hpp **** 
  28:src/../h/TCB.hpp ****     static int time_sleep(uint64 time);
  29:src/../h/TCB.hpp **** 
  30:src/../h/TCB.hpp ****     uint64 get_thread_id()const{ return id; }
  31:src/../h/TCB.hpp **** 
  32:src/../h/TCB.hpp ****     // getteri i setteri
  33:src/../h/TCB.hpp ****     void set_finished(bool f){ this->finished = f; }
  34:src/../h/TCB.hpp ****     bool is_finished()const{return finished;}
  35:src/../h/TCB.hpp ****     void set_next_scheduler(TCB* nextThread){ next_scheduler = nextThread; }
  36:src/../h/TCB.hpp ****     TCB* get_next_scheduler()const{ return next_scheduler; }
  37:src/../h/TCB.hpp ****     void set_next_sleep(TCB* nextThread){ next_sleep = nextThread; }
  38:src/../h/TCB.hpp ****     TCB* get_next_sleep()const{ return next_sleep; }
  39:src/../h/TCB.hpp ****     void set_next_blocked(TCB* nextThread){ next_blocked = nextThread; }
  40:src/../h/TCB.hpp ****     TCB* get_next_blocked()const{ return next_blocked; }
 109              		.loc 2 40 35
 110              		.loc 2 40 42 is_stmt 0
 111 0064 03370504 		ld	a4,64(a0)
 112              	.LVL6:
 113              	.LBE32:
 114              	.LBE31:
  50:src/semaphore.cpp ****         if(!head)tail = nullptr;
 115              		.loc 1 50 14
 116 0068 23B4E700 		sd	a4,8(a5)
  51:src/semaphore.cpp ****         tmp->set_next_blocked(nullptr);
 117              		.loc 1 51 9 is_stmt 1
 118 006c 630A0700 		beqz	a4,.L9
 119              	.L7:
  52:src/semaphore.cpp ****         return tmp;
 120              		.loc 1 52 9
 121              	.LVL7:
 122              	.LBB33:
 123              	.LBB34:
  39:src/../h/TCB.hpp ****     TCB* get_next_blocked()const{ return next_blocked; }
 124              		.loc 2 39 45
  39:src/../h/TCB.hpp ****     TCB* get_next_blocked()const{ return next_blocked; }
 125              		.loc 2 39 58 is_stmt 0
 126 0070 23300504 		sd	zero,64(a0)
 127              	.LVL8:
 128              	.LBE34:
 129              	.LBE33:
  53:src/semaphore.cpp ****     }
 130              		.loc 1 53 9 is_stmt 1
 131              	.L5:
 132              	.LBE30:
 133              	.LBE29:
  56:src/semaphore.cpp **** 
 134              		.loc 1 56 1 is_stmt 0
 135 0074 03348100 		ld	s0,8(sp)
 136              		.cfi_remember_state
 137              		.cfi_restore 8
 138              		.cfi_def_cfa 2, 16
 139 0078 13010101 		addi	sp,sp,16
 140              		.cfi_def_cfa_offset 0
 141 007c 67800000 		jr	ra
GAS LISTING /tmp/ccUY8n86.s 			page 6


 142              	.LVL9:
 143              	.L9:
 144              		.cfi_restore_state
 145              	.LBB36:
 146              	.LBB35:
  51:src/semaphore.cpp ****         tmp->set_next_blocked(nullptr);
 147              		.loc 1 51 18 is_stmt 1 discriminator 1
  51:src/semaphore.cpp ****         tmp->set_next_blocked(nullptr);
 148              		.loc 1 51 23 is_stmt 0 discriminator 1
 149 0080 23B80700 		sd	zero,16(a5)
 150 0084 6FF0DFFE 		j	.L7
 151              	.LBE35:
 152              	.LBE36:
 153              		.cfi_endproc
 154              	.LFE44:
 156              		.align	2
 157              		.globl	_ZN11MySemaphore9sem_closeEPS_
 159              	_ZN11MySemaphore9sem_closeEPS_:
 160              	.LFB38:
  14:src/semaphore.cpp ****     // deblokiraj sve niti
 161              		.loc 1 14 48 is_stmt 1
 162              		.cfi_startproc
 163              	.LVL10:
 164 0088 130101FE 		addi	sp,sp,-32
 165              		.cfi_def_cfa_offset 32
 166 008c 233C1100 		sd	ra,24(sp)
 167 0090 23388100 		sd	s0,16(sp)
 168 0094 23349100 		sd	s1,8(sp)
 169 0098 23302101 		sd	s2,0(sp)
 170              		.cfi_offset 1, -8
 171              		.cfi_offset 8, -16
 172              		.cfi_offset 9, -24
 173              		.cfi_offset 18, -32
 174 009c 13040102 		addi	s0,sp,32
 175              		.cfi_def_cfa 8, 0
 176 00a0 13090500 		mv	s2,a0
  16:src/semaphore.cpp ****     while(tmp){
 177              		.loc 1 16 5
  16:src/semaphore.cpp ****     while(tmp){
 178              		.loc 1 16 10 is_stmt 0
 179 00a4 83348500 		ld	s1,8(a0)
 180              	.LVL11:
 181 00a8 6F008001 		j	.L11
 182              	.LVL12:
 183              	.L15:
  19:src/semaphore.cpp ****     }
 184              		.loc 1 19 16 is_stmt 1 discriminator 1
  19:src/semaphore.cpp ****     }
 185              		.loc 1 19 39 is_stmt 0 discriminator 1
 186 00ac 97000000 		call	_ZN9Scheduler11getInstanceEv@plt
 186      E7800000 
 187              	.LVL13:
  19:src/semaphore.cpp ****     }
 188              		.loc 1 19 44 discriminator 1
 189 00b4 93850400 		mv	a1,s1
 190 00b8 97000000 		call	_ZN9Scheduler3putEP3TCB@plt
 190      E7800000 
GAS LISTING /tmp/ccUY8n86.s 			page 7


 191              	.LVL14:
 192              	.L11:
  17:src/semaphore.cpp ****         tmp = handle->get_from_blocked();
 193              		.loc 1 17 5 is_stmt 1
  17:src/semaphore.cpp ****         tmp = handle->get_from_blocked();
 194              		.loc 1 17 11
 195 00c0 638E0400 		beqz	s1,.L12
  18:src/semaphore.cpp ****         if(tmp)Scheduler::getInstance().put(tmp);
 196              		.loc 1 18 9
  18:src/semaphore.cpp ****         if(tmp)Scheduler::getInstance().put(tmp);
 197              		.loc 1 18 39 is_stmt 0
 198 00c4 13050900 		mv	a0,s2
 199 00c8 97000000 		call	_ZN11MySemaphore16get_from_blockedEv
 199      E7800000 
 200              	.LVL15:
 201 00d0 93040500 		mv	s1,a0
 202              	.LVL16:
  19:src/semaphore.cpp ****     }
 203              		.loc 1 19 9 is_stmt 1
 204 00d4 E31C05FC 		bnez	a0,.L15
 205 00d8 6FF09FFE 		j	.L11
 206              	.L12:
  22:src/semaphore.cpp **** //    kmem_cache_free(get_sem_cache(), handle);
 207              		.loc 1 22 5
 208              	.LVL17:
 209              	.LBB37:
 210              	.LBB38:
 211              		.file 3 "src/../h/semaphore.hpp"
   1:src/../h/semaphore.hpp **** #ifndef _semaphore_hpp_
   2:src/../h/semaphore.hpp **** #define _semaphore_hpp_
   3:src/../h/semaphore.hpp **** 
   4:src/../h/semaphore.hpp **** #include "../lib/hw.h"
   5:src/../h/semaphore.hpp **** #include "../h/MemoryAllocator.hpp"
   6:src/../h/semaphore.hpp **** #include "SlabI.h"
   7:src/../h/semaphore.hpp **** 
   8:src/../h/semaphore.hpp **** class TCB;
   9:src/../h/semaphore.hpp **** 
  10:src/../h/semaphore.hpp **** class MySemaphore{
  11:src/../h/semaphore.hpp **** public:
  12:src/../h/semaphore.hpp **** 
  13:src/../h/semaphore.hpp ****     static int sem_open(
  14:src/../h/semaphore.hpp ****           MySemaphore** handle,
  15:src/../h/semaphore.hpp ****           uint64 init
  16:src/../h/semaphore.hpp ****           );
  17:src/../h/semaphore.hpp ****     static int sem_close(MySemaphore* handle);
  18:src/../h/semaphore.hpp ****     static int sem_wait(MySemaphore* id);
  19:src/../h/semaphore.hpp ****     static int sem_signal(MySemaphore* id);
  20:src/../h/semaphore.hpp **** 
  21:src/../h/semaphore.hpp ****     void put_in_blocked(TCB* tcb);
  22:src/../h/semaphore.hpp **** 
  23:src/../h/semaphore.hpp ****     TCB* get_from_blocked();
  24:src/../h/semaphore.hpp **** 
  25:src/../h/semaphore.hpp ****     void block();
  26:src/../h/semaphore.hpp **** 
  27:src/../h/semaphore.hpp ****     void unblock();
  28:src/../h/semaphore.hpp **** 
  29:src/../h/semaphore.hpp ****     // getteri i setteri
GAS LISTING /tmp/ccUY8n86.s 			page 8


  30:src/../h/semaphore.hpp ****     bool get_indicator()const{ return indicator; }
  31:src/../h/semaphore.hpp ****     void set_indicator(bool v){ indicator = v; }
 212              		.loc 3 31 33
 213              		.loc 3 31 43 is_stmt 0
 214 00dc 93071000 		li	a5,1
 215 00e0 2302F900 		sb	a5,4(s2)
 216              	.LVL18:
 217              	.LBE38:
 218              	.LBE37:
  24:src/semaphore.cpp **** }
 219              		.loc 1 24 5 is_stmt 1
  25:src/semaphore.cpp **** 
 220              		.loc 1 25 1 is_stmt 0
 221 00e4 13050000 		li	a0,0
 222 00e8 83308101 		ld	ra,24(sp)
 223              		.cfi_restore 1
 224 00ec 03340101 		ld	s0,16(sp)
 225              		.cfi_restore 8
 226              		.cfi_def_cfa 2, 32
 227 00f0 83348100 		ld	s1,8(sp)
 228              		.cfi_restore 9
 229              	.LVL19:
 230 00f4 03390100 		ld	s2,0(sp)
 231              		.cfi_restore 18
 232              	.LVL20:
 233 00f8 13010102 		addi	sp,sp,32
 234              		.cfi_def_cfa_offset 0
 235 00fc 67800000 		jr	ra
 236              		.cfi_endproc
 237              	.LFE38:
 239              		.align	2
 240              		.globl	_ZN11MySemaphore17semaphore_destroyEPv
 242              	_ZN11MySemaphore17semaphore_destroyEPv:
 243              	.LFB50:
  88:src/semaphore.cpp **** 
  89:src/semaphore.cpp **** void MySemaphore::semaphore_destroy(void *mySemaphore) {
 244              		.loc 1 89 56 is_stmt 1
 245              		.cfi_startproc
 246              	.LVL21:
 247 0100 130101FF 		addi	sp,sp,-16
 248              		.cfi_def_cfa_offset 16
 249 0104 23341100 		sd	ra,8(sp)
 250 0108 23308100 		sd	s0,0(sp)
 251              		.cfi_offset 1, -8
 252              		.cfi_offset 8, -16
 253 010c 13040101 		addi	s0,sp,16
 254              		.cfi_def_cfa 8, 0
  90:src/semaphore.cpp ****     MySemaphore* sem = (MySemaphore*)mySemaphore;
 255              		.loc 1 90 5
 256              	.LVL22:
  91:src/semaphore.cpp ****     sem_close(sem);
 257              		.loc 1 91 5
 258              		.loc 1 91 14 is_stmt 0
 259 0110 97000000 		call	_ZN11MySemaphore9sem_closeEPS_
 259      E7800000 
 260              	.LVL23:
  92:src/semaphore.cpp **** }
GAS LISTING /tmp/ccUY8n86.s 			page 9


 261              		.loc 1 92 1
 262 0118 83308100 		ld	ra,8(sp)
 263              		.cfi_restore 1
 264 011c 03340100 		ld	s0,0(sp)
 265              		.cfi_restore 8
 266              		.cfi_def_cfa 2, 16
 267 0120 13010101 		addi	sp,sp,16
 268              		.cfi_def_cfa_offset 0
 269 0124 67800000 		jr	ra
 270              		.cfi_endproc
 271              	.LFE50:
 273              		.align	2
 274              		.globl	_ZN11MySemaphore14put_in_blockedEP3TCB
 276              	_ZN11MySemaphore14put_in_blockedEP3TCB:
 277              	.LFB45:
  58:src/semaphore.cpp ****     if(!head)head = tcb;
 278              		.loc 1 58 44 is_stmt 1
 279              		.cfi_startproc
 280              	.LVL24:
 281 0128 130101FF 		addi	sp,sp,-16
 282              		.cfi_def_cfa_offset 16
 283 012c 23348100 		sd	s0,8(sp)
 284              		.cfi_offset 8, -8
 285 0130 13040101 		addi	s0,sp,16
 286              		.cfi_def_cfa 8, 0
  59:src/semaphore.cpp ****     else tail->set_next_blocked(tcb);
 287              		.loc 1 59 5
  59:src/semaphore.cpp ****     else tail->set_next_blocked(tcb);
 288              		.loc 1 59 9 is_stmt 0
 289 0134 83378500 		ld	a5,8(a0)
  59:src/semaphore.cpp ****     else tail->set_next_blocked(tcb);
 290              		.loc 1 59 5
 291 0138 638E0700 		beqz	a5,.L22
  60:src/semaphore.cpp ****     tail = tcb;
 292              		.loc 1 60 10 is_stmt 1
 293 013c 83370501 		ld	a5,16(a0)
 294              	.LVL25:
 295              	.LBB39:
 296              	.LBB40:
  39:src/../h/TCB.hpp ****     TCB* get_next_blocked()const{ return next_blocked; }
 297              		.loc 2 39 45
  39:src/../h/TCB.hpp ****     TCB* get_next_blocked()const{ return next_blocked; }
 298              		.loc 2 39 58 is_stmt 0
 299 0140 23B0B704 		sd	a1,64(a5)
 300              	.LVL26:
 301              	.L20:
 302              	.LBE40:
 303              	.LBE39:
  61:src/semaphore.cpp **** }
 304              		.loc 1 61 5 is_stmt 1
  61:src/semaphore.cpp **** }
 305              		.loc 1 61 10 is_stmt 0
 306 0144 2338B500 		sd	a1,16(a0)
  62:src/semaphore.cpp **** 
 307              		.loc 1 62 1
 308 0148 03348100 		ld	s0,8(sp)
 309              		.cfi_remember_state
GAS LISTING /tmp/ccUY8n86.s 			page 10


 310              		.cfi_restore 8
 311              		.cfi_def_cfa 2, 16
 312 014c 13010101 		addi	sp,sp,16
 313              		.cfi_def_cfa_offset 0
 314 0150 67800000 		jr	ra
 315              	.L22:
 316              		.cfi_restore_state
  59:src/semaphore.cpp ****     else tail->set_next_blocked(tcb);
 317              		.loc 1 59 14 is_stmt 1 discriminator 1
  59:src/semaphore.cpp ****     else tail->set_next_blocked(tcb);
 318              		.loc 1 59 19 is_stmt 0 discriminator 1
 319 0154 2334B500 		sd	a1,8(a0)
 320 0158 6FF0DFFE 		j	.L20
 321              		.cfi_endproc
 322              	.LFE45:
 324              		.align	2
 325              		.globl	_ZN11MySemaphore5blockEv
 327              	_ZN11MySemaphore5blockEv:
 328              	.LFB46:
  64:src/semaphore.cpp ****     TCB* old = TCB::running;
 329              		.loc 1 64 27 is_stmt 1
 330              		.cfi_startproc
 331              	.LVL27:
 332 015c 130101FF 		addi	sp,sp,-16
 333              		.cfi_def_cfa_offset 16
 334 0160 23341100 		sd	ra,8(sp)
 335 0164 23308100 		sd	s0,0(sp)
 336              		.cfi_offset 1, -8
 337              		.cfi_offset 8, -16
 338 0168 13040101 		addi	s0,sp,16
 339              		.cfi_def_cfa 8, 0
  65:src/semaphore.cpp ****     put_in_blocked(old);
 340              		.loc 1 65 5
 341              	.LVL28:
  66:src/semaphore.cpp ****     TCB::yield();
 342              		.loc 1 66 5
  66:src/semaphore.cpp ****     TCB::yield();
 343              		.loc 1 66 19 is_stmt 0
 344 016c 97070000 		la	a5,_ZN3TCB7runningE
 344      83B70700 
 345 0174 83B50700 		ld	a1,0(a5)
 346 0178 97000000 		call	_ZN11MySemaphore14put_in_blockedEP3TCB
 346      E7800000 
 347              	.LVL29:
  67:src/semaphore.cpp **** }
 348              		.loc 1 67 5 is_stmt 1
  67:src/semaphore.cpp **** }
 349              		.loc 1 67 15 is_stmt 0
 350 0180 97000000 		call	_ZN3TCB5yieldEv@plt
 350      E7800000 
 351              	.LVL30:
  68:src/semaphore.cpp **** 
 352              		.loc 1 68 1
 353 0188 83308100 		ld	ra,8(sp)
 354              		.cfi_restore 1
 355 018c 03340100 		ld	s0,0(sp)
 356              		.cfi_restore 8
GAS LISTING /tmp/ccUY8n86.s 			page 11


 357              		.cfi_def_cfa 2, 16
 358 0190 13010101 		addi	sp,sp,16
 359              		.cfi_def_cfa_offset 0
 360 0194 67800000 		jr	ra
 361              		.cfi_endproc
 362              	.LFE46:
 364              		.align	2
 365              		.globl	_ZN11MySemaphore8sem_waitEPS_
 367              	_ZN11MySemaphore8sem_waitEPS_:
 368              	.LFB39:
  27:src/semaphore.cpp ****     id->set_val(id->get_val() - 1);
 369              		.loc 1 27 44 is_stmt 1
 370              		.cfi_startproc
 371              	.LVL31:
 372 0198 130101FE 		addi	sp,sp,-32
 373              		.cfi_def_cfa_offset 32
 374 019c 233C1100 		sd	ra,24(sp)
 375 01a0 23388100 		sd	s0,16(sp)
 376 01a4 23349100 		sd	s1,8(sp)
 377              		.cfi_offset 1, -8
 378              		.cfi_offset 8, -16
 379              		.cfi_offset 9, -24
 380 01a8 13040102 		addi	s0,sp,32
 381              		.cfi_def_cfa 8, 0
 382 01ac 93040500 		mv	s1,a0
  28:src/semaphore.cpp ****     if( id->get_val() < 0)id->block();
 383              		.loc 1 28 5
 384              	.LVL32:
 385              	.LBB41:
 386              	.LBB42:
  32:src/../h/semaphore.hpp ****     int get_val()const{ return val; }
 387              		.loc 3 32 25
 388              		.loc 3 32 32 is_stmt 0
 389 01b0 83270500 		lw	a5,0(a0)
 390              	.LVL33:
 391              	.LBE42:
 392              	.LBE41:
  28:src/semaphore.cpp ****     if( id->get_val() < 0)id->block();
 393              		.loc 1 28 16
 394 01b4 9B87F7FF 		addiw	a5,a5,-1
 395              	.LVL34:
 396              	.LBB43:
 397              	.LBB44:
  33:src/../h/semaphore.hpp ****     void set_val(int v){ val = v; }
 398              		.loc 3 33 26 is_stmt 1
 399              		.loc 3 33 30 is_stmt 0
 400 01b8 2320F500 		sw	a5,0(a0)
 401              	.LVL35:
 402              	.LBE44:
 403              	.LBE43:
  29:src/semaphore.cpp ****     if(!id->get_indicator())return 0;
 404              		.loc 1 29 5 is_stmt 1
  32:src/../h/semaphore.hpp ****     int get_val()const{ return val; }
 405              		.loc 3 32 25
  29:src/semaphore.cpp ****     if(!id->get_indicator())return 0;
 406              		.loc 1 29 5 is_stmt 0
 407 01bc 13970702 		slli	a4,a5,32
GAS LISTING /tmp/ccUY8n86.s 			page 12


 408 01c0 63420702 		bltz	a4,.L30
 409              	.LVL36:
 410              	.L26:
  30:src/semaphore.cpp ****     else return -1;
 411              		.loc 1 30 5 is_stmt 1
 412              	.LBB45:
 413              	.LBB46:
  30:src/../h/semaphore.hpp ****     void set_indicator(bool v){ indicator = v; }
 414              		.loc 3 30 32
  30:src/../h/semaphore.hpp ****     void set_indicator(bool v){ indicator = v; }
 415              		.loc 3 30 39 is_stmt 0
 416 01c4 83C74400 		lbu	a5,4(s1)
 417              	.LVL37:
 418              	.LBE46:
 419              	.LBE45:
  30:src/semaphore.cpp ****     else return -1;
 420              		.loc 1 30 5
 421 01c8 63940702 		bnez	a5,.L28
  30:src/semaphore.cpp ****     else return -1;
 422              		.loc 1 30 36
 423 01cc 13050000 		li	a0,0
 424              	.L27:
  32:src/semaphore.cpp **** 
 425              		.loc 1 32 1
 426 01d0 83308101 		ld	ra,24(sp)
 427              		.cfi_remember_state
 428              		.cfi_restore 1
 429 01d4 03340101 		ld	s0,16(sp)
 430              		.cfi_restore 8
 431              		.cfi_def_cfa 2, 32
 432 01d8 83348100 		ld	s1,8(sp)
 433              		.cfi_restore 9
 434              	.LVL38:
 435 01dc 13010102 		addi	sp,sp,32
 436              		.cfi_def_cfa_offset 0
 437 01e0 67800000 		jr	ra
 438              	.LVL39:
 439              	.L30:
 440              		.cfi_restore_state
  29:src/semaphore.cpp ****     if(!id->get_indicator())return 0;
 441              		.loc 1 29 27 is_stmt 1 discriminator 1
  29:src/semaphore.cpp ****     if(!id->get_indicator())return 0;
 442              		.loc 1 29 36 is_stmt 0 discriminator 1
 443 01e4 97000000 		call	_ZN11MySemaphore5blockEv
 443      E7800000 
 444              	.LVL40:
 445 01ec 6FF09FFD 		j	.L26
 446              	.L28:
  31:src/semaphore.cpp **** }
 447              		.loc 1 31 18
 448 01f0 1305F0FF 		li	a0,-1
 449 01f4 6FF0DFFD 		j	.L27
 450              		.cfi_endproc
 451              	.LFE39:
 453              		.align	2
 454              		.globl	_ZN11MySemaphore7unblockEv
 456              	_ZN11MySemaphore7unblockEv:
GAS LISTING /tmp/ccUY8n86.s 			page 13


 457              	.LFB47:
  70:src/semaphore.cpp ****     TCB* tmp = get_from_blocked();
 458              		.loc 1 70 29 is_stmt 1
 459              		.cfi_startproc
 460              	.LVL41:
 461 01f8 130101FE 		addi	sp,sp,-32
 462              		.cfi_def_cfa_offset 32
 463 01fc 233C1100 		sd	ra,24(sp)
 464 0200 23388100 		sd	s0,16(sp)
 465 0204 23349100 		sd	s1,8(sp)
 466              		.cfi_offset 1, -8
 467              		.cfi_offset 8, -16
 468              		.cfi_offset 9, -24
 469 0208 13040102 		addi	s0,sp,32
 470              		.cfi_def_cfa 8, 0
  71:src/semaphore.cpp ****     if(tmp)Scheduler::getInstance().put(tmp);
 471              		.loc 1 71 5
  71:src/semaphore.cpp ****     if(tmp)Scheduler::getInstance().put(tmp);
 472              		.loc 1 71 32 is_stmt 0
 473 020c 97000000 		call	_ZN11MySemaphore16get_from_blockedEv
 473      E7800000 
 474              	.LVL42:
  72:src/semaphore.cpp **** }
 475              		.loc 1 72 5 is_stmt 1
 476 0214 630E0500 		beqz	a0,.L31
 477 0218 93040500 		mv	s1,a0
  72:src/semaphore.cpp **** }
 478              		.loc 1 72 12 discriminator 1
  72:src/semaphore.cpp **** }
 479              		.loc 1 72 35 is_stmt 0 discriminator 1
 480 021c 97000000 		call	_ZN9Scheduler11getInstanceEv@plt
 480      E7800000 
 481              	.LVL43:
  72:src/semaphore.cpp **** }
 482              		.loc 1 72 40 discriminator 1
 483 0224 93850400 		mv	a1,s1
 484 0228 97000000 		call	_ZN9Scheduler3putEP3TCB@plt
 484      E7800000 
 485              	.LVL44:
 486              	.L31:
  73:src/semaphore.cpp **** 
 487              		.loc 1 73 1
 488 0230 83308101 		ld	ra,24(sp)
 489              		.cfi_restore 1
 490 0234 03340101 		ld	s0,16(sp)
 491              		.cfi_restore 8
 492              		.cfi_def_cfa 2, 32
 493 0238 83348100 		ld	s1,8(sp)
 494              		.cfi_restore 9
 495 023c 13010102 		addi	sp,sp,32
 496              		.cfi_def_cfa_offset 0
 497 0240 67800000 		jr	ra
 498              		.cfi_endproc
 499              	.LFE47:
 501              		.align	2
 502              		.globl	_ZN11MySemaphore10sem_signalEPS_
 504              	_ZN11MySemaphore10sem_signalEPS_:
GAS LISTING /tmp/ccUY8n86.s 			page 14


 505              	.LFB40:
  34:src/semaphore.cpp ****     id->set_val(id->get_val() + 1);
 506              		.loc 1 34 46 is_stmt 1
 507              		.cfi_startproc
 508              	.LVL45:
 509 0244 130101FE 		addi	sp,sp,-32
 510              		.cfi_def_cfa_offset 32
 511 0248 233C1100 		sd	ra,24(sp)
 512 024c 23388100 		sd	s0,16(sp)
 513 0250 23349100 		sd	s1,8(sp)
 514              		.cfi_offset 1, -8
 515              		.cfi_offset 8, -16
 516              		.cfi_offset 9, -24
 517 0254 13040102 		addi	s0,sp,32
 518              		.cfi_def_cfa 8, 0
 519 0258 93040500 		mv	s1,a0
  35:src/semaphore.cpp ****     if( id->get_val() <= 0)id->unblock();
 520              		.loc 1 35 5
 521              	.LVL46:
 522              	.LBB47:
 523              	.LBB48:
  32:src/../h/semaphore.hpp ****     void set_val(int v){ val = v; }
 524              		.loc 3 32 25
  32:src/../h/semaphore.hpp ****     void set_val(int v){ val = v; }
 525              		.loc 3 32 32 is_stmt 0
 526 025c 83270500 		lw	a5,0(a0)
 527              	.LVL47:
 528              	.LBE48:
 529              	.LBE47:
  35:src/semaphore.cpp ****     if( id->get_val() <= 0)id->unblock();
 530              		.loc 1 35 16
 531 0260 9B871700 		addiw	a5,a5,1
 532 0264 1B870700 		sext.w	a4,a5
 533              	.LVL48:
 534              	.LBB49:
 535              	.LBB50:
 536              		.loc 3 33 26 is_stmt 1
 537              		.loc 3 33 30 is_stmt 0
 538 0268 2320F500 		sw	a5,0(a0)
 539              	.LVL49:
 540              	.LBE50:
 541              	.LBE49:
  36:src/semaphore.cpp ****     if(!id->get_indicator())return 0;
 542              		.loc 1 36 5 is_stmt 1
  32:src/../h/semaphore.hpp ****     void set_val(int v){ val = v; }
 543              		.loc 3 32 25
  36:src/semaphore.cpp ****     if(!id->get_indicator())return 0;
 544              		.loc 1 36 5 is_stmt 0
 545 026c 6352E002 		blez	a4,.L39
 546              	.LVL50:
 547              	.L35:
  37:src/semaphore.cpp ****     else return -1;
 548              		.loc 1 37 5 is_stmt 1
 549              	.LBB51:
 550              	.LBB52:
  30:src/../h/semaphore.hpp ****     void set_indicator(bool v){ indicator = v; }
 551              		.loc 3 30 32
GAS LISTING /tmp/ccUY8n86.s 			page 15


  30:src/../h/semaphore.hpp ****     void set_indicator(bool v){ indicator = v; }
 552              		.loc 3 30 39 is_stmt 0
 553 0270 83C74400 		lbu	a5,4(s1)
 554              	.LVL51:
 555              	.LBE52:
 556              	.LBE51:
  37:src/semaphore.cpp ****     else return -1;
 557              		.loc 1 37 5
 558 0274 63940702 		bnez	a5,.L37
  37:src/semaphore.cpp ****     else return -1;
 559              		.loc 1 37 36
 560 0278 13050000 		li	a0,0
 561              	.L36:
  39:src/semaphore.cpp **** 
 562              		.loc 1 39 1
 563 027c 83308101 		ld	ra,24(sp)
 564              		.cfi_remember_state
 565              		.cfi_restore 1
 566 0280 03340101 		ld	s0,16(sp)
 567              		.cfi_restore 8
 568              		.cfi_def_cfa 2, 32
 569 0284 83348100 		ld	s1,8(sp)
 570              		.cfi_restore 9
 571              	.LVL52:
 572 0288 13010102 		addi	sp,sp,32
 573              		.cfi_def_cfa_offset 0
 574 028c 67800000 		jr	ra
 575              	.LVL53:
 576              	.L39:
 577              		.cfi_restore_state
  36:src/semaphore.cpp ****     if(!id->get_indicator())return 0;
 578              		.loc 1 36 28 is_stmt 1 discriminator 1
  36:src/semaphore.cpp ****     if(!id->get_indicator())return 0;
 579              		.loc 1 36 39 is_stmt 0 discriminator 1
 580 0290 97000000 		call	_ZN11MySemaphore7unblockEv
 580      E7800000 
 581              	.LVL54:
 582 0298 6FF09FFD 		j	.L35
 583              	.L37:
  38:src/semaphore.cpp **** }
 584              		.loc 1 38 18
 585 029c 1305F0FF 		li	a0,-1
 586 02a0 6FF0DFFD 		j	.L36
 587              		.cfi_endproc
 588              	.LFE40:
 590              		.section	.rodata.str1.8,"aMS",@progbits,1
 591              		.align	3
 592              	.LC0:
 593 0000 73656D61 		.string	"semaphore_cache"
 593      70686F72 
 593      655F6361 
 593      63686500 
 594              		.text
 595              		.align	2
 596              		.globl	_ZN11MySemaphore13get_sem_cacheEv
 598              	_ZN11MySemaphore13get_sem_cacheEv:
 599              	.LFB48:
GAS LISTING /tmp/ccUY8n86.s 			page 16


  75:src/semaphore.cpp ****     if(!semaphore_cache){
 600              		.loc 1 75 46 is_stmt 1
 601              		.cfi_startproc
  76:src/semaphore.cpp ****         semaphore_cache = kmem_cache_create("semaphore_cache", sizeof(MySemaphore), &semaphore_setu
 602              		.loc 1 76 5
  76:src/semaphore.cpp ****         semaphore_cache = kmem_cache_create("semaphore_cache", sizeof(MySemaphore), &semaphore_setu
 603              		.loc 1 76 8 is_stmt 0
 604 02a4 97070000 		ld	a5,.LANCHOR0
 604      83B70700 
  76:src/semaphore.cpp ****         semaphore_cache = kmem_cache_create("semaphore_cache", sizeof(MySemaphore), &semaphore_setu
 605              		.loc 1 76 5
 606 02ac 63880700 		beqz	a5,.L46
  79:src/semaphore.cpp **** }
 607              		.loc 1 79 5 is_stmt 1
  80:src/semaphore.cpp **** 
 608              		.loc 1 80 1 is_stmt 0
 609 02b0 17050000 		lla	a0,.LANCHOR0
 609      13050500 
 610 02b8 67800000 		ret
 611              	.L46:
  75:src/semaphore.cpp ****     if(!semaphore_cache){
 612              		.loc 1 75 46
 613 02bc 130101FF 		addi	sp,sp,-16
 614              		.cfi_def_cfa_offset 16
 615 02c0 23341100 		sd	ra,8(sp)
 616 02c4 23308100 		sd	s0,0(sp)
 617              		.cfi_offset 1, -8
 618              		.cfi_offset 8, -16
 619 02c8 13040101 		addi	s0,sp,16
 620              		.cfi_def_cfa 8, 0
  77:src/semaphore.cpp ****     }
 621              		.loc 1 77 9 is_stmt 1
  77:src/semaphore.cpp ****     }
 622              		.loc 1 77 44 is_stmt 0
 623 02cc 97060000 		lla	a3,_ZN11MySemaphore17semaphore_destroyEPv
 623      93860600 
 624 02d4 17060000 		lla	a2,_ZN11MySemaphore15semaphore_setupEPv
 624      13060600 
 625 02dc 93058001 		li	a1,24
 626 02e0 17050000 		lla	a0,.LC0
 626      13050500 
 627 02e8 97000000 		call	_Z17kmem_cache_createPKcmPFvPvES3_@plt
 627      E7800000 
 628              	.LVL55:
  77:src/semaphore.cpp ****     }
 629              		.loc 1 77 25
 630 02f0 97070000 		sd	a0,.LANCHOR0,a5
 630      23B0A700 
  79:src/semaphore.cpp **** }
 631              		.loc 1 79 5 is_stmt 1
  80:src/semaphore.cpp **** 
 632              		.loc 1 80 1 is_stmt 0
 633 02f8 17050000 		lla	a0,.LANCHOR0
 633      13050500 
 634 0300 83308100 		ld	ra,8(sp)
 635              		.cfi_restore 1
 636 0304 03340100 		ld	s0,0(sp)
GAS LISTING /tmp/ccUY8n86.s 			page 17


 637              		.cfi_restore 8
 638              		.cfi_def_cfa 2, 16
 639 0308 13010101 		addi	sp,sp,16
 640              		.cfi_def_cfa_offset 0
 641 030c 67800000 		jr	ra
 642              		.cfi_endproc
 643              	.LFE48:
 645              		.align	2
 646              		.globl	_ZN11MySemaphore8sem_openEPPS_m
 648              	_ZN11MySemaphore8sem_openEPPS_m:
 649              	.LFB37:
   7:src/semaphore.cpp ****     auto* sem = (MySemaphore*)kmem_cache_alloc(get_sem_cache());
 650              		.loc 1 7 62 is_stmt 1
 651              		.cfi_startproc
 652              	.LVL56:
 653 0310 130101FE 		addi	sp,sp,-32
 654              		.cfi_def_cfa_offset 32
 655 0314 233C1100 		sd	ra,24(sp)
 656 0318 23388100 		sd	s0,16(sp)
 657 031c 23349100 		sd	s1,8(sp)
 658 0320 23302101 		sd	s2,0(sp)
 659              		.cfi_offset 1, -8
 660              		.cfi_offset 8, -16
 661              		.cfi_offset 9, -24
 662              		.cfi_offset 18, -32
 663 0324 13040102 		addi	s0,sp,32
 664              		.cfi_def_cfa 8, 0
 665 0328 93040500 		mv	s1,a0
 666 032c 13890500 		mv	s2,a1
   8:src/semaphore.cpp ****     sem->val = (int)init;
 667              		.loc 1 8 5
   8:src/semaphore.cpp ****     sem->val = (int)init;
 668              		.loc 1 8 62 is_stmt 0
 669 0330 97000000 		call	_ZN11MySemaphore13get_sem_cacheEv
 669      E7800000 
 670              	.LVL57:
   8:src/semaphore.cpp ****     sem->val = (int)init;
 671              		.loc 1 8 47
 672 0338 03350500 		ld	a0,0(a0)
 673 033c 97000000 		call	_Z16kmem_cache_allocP12kmem_cache_s@plt
 673      E7800000 
 674              	.LVL58:
   9:src/semaphore.cpp ****     *handle = sem;
 675              		.loc 1 9 5 is_stmt 1
   9:src/semaphore.cpp ****     *handle = sem;
 676              		.loc 1 9 14 is_stmt 0
 677 0344 23202501 		sw	s2,0(a0)
  10:src/semaphore.cpp ****     return 0;
 678              		.loc 1 10 5 is_stmt 1
  10:src/semaphore.cpp ****     return 0;
 679              		.loc 1 10 13 is_stmt 0
 680 0348 23B0A400 		sd	a0,0(s1)
  11:src/semaphore.cpp **** }
 681              		.loc 1 11 5 is_stmt 1
  12:src/semaphore.cpp **** 
 682              		.loc 1 12 1 is_stmt 0
 683 034c 13050000 		li	a0,0
GAS LISTING /tmp/ccUY8n86.s 			page 18


 684              	.LVL59:
 685 0350 83308101 		ld	ra,24(sp)
 686              		.cfi_restore 1
 687 0354 03340101 		ld	s0,16(sp)
 688              		.cfi_restore 8
 689              		.cfi_def_cfa 2, 32
 690 0358 83348100 		ld	s1,8(sp)
 691              		.cfi_restore 9
 692              	.LVL60:
 693 035c 03390100 		ld	s2,0(sp)
 694              		.cfi_restore 18
 695              	.LVL61:
 696 0360 13010102 		addi	sp,sp,32
 697              		.cfi_def_cfa_offset 0
 698 0364 67800000 		jr	ra
 699              		.cfi_endproc
 700              	.LFE37:
 702              		.globl	_ZN11MySemaphore15semaphore_cacheE
 703              		.bss
 704              		.align	3
 705              		.set	.LANCHOR0,. + 0
 708              	_ZN11MySemaphore15semaphore_cacheE:
 709 0000 00000000 		.zero	8
 709      00000000 
 710              		.text
 711              	.Letext0:
 712              		.file 4 "src/../h/../lib/hw.h"
 713              		.file 5 "src/../h/SlabI.h"
 714              		.file 6 "src/../h/../h/scheduler.hpp"
 715              		.file 7 "src/../h/../h/../test/../h/syscall_c.h"
GAS LISTING /tmp/ccUY8n86.s 			page 19


DEFINED SYMBOLS
                            *ABS*:0000000000000000 semaphore.cpp
     /tmp/ccUY8n86.s:9      .text:0000000000000000 _ZN11MySemaphore15semaphore_setupEPv
     /tmp/ccUY8n86.s:13     .text:0000000000000000 .L0 
     /tmp/ccUY8n86.s:15     .text:0000000000000000 .L0 
     /tmp/ccUY8n86.s:16     .text:0000000000000004 .L0 
     /tmp/ccUY8n86.s:18     .text:0000000000000008 .L0 
     /tmp/ccUY8n86.s:20     .text:000000000000000c .L0 
     /tmp/ccUY8n86.s:23     .text:000000000000000c .L0 
     /tmp/ccUY8n86.s:24     .text:000000000000000c .L0 
     /tmp/ccUY8n86.s:25     .text:000000000000000c .L0 
     /tmp/ccUY8n86.s:27     .text:0000000000000010 .L0 
     /tmp/ccUY8n86.s:29     .text:0000000000000014 .L0 
     /tmp/ccUY8n86.s:30     .text:0000000000000014 .L0 
     /tmp/ccUY8n86.s:32     .text:0000000000000018 .L0 
     /tmp/ccUY8n86.s:33     .text:000000000000001c .L0 
     /tmp/ccUY8n86.s:34     .text:000000000000001c .L0 
     /tmp/ccUY8n86.s:36     .text:0000000000000020 .L0 
     /tmp/ccUY8n86.s:38     .text:0000000000000024 .L0 
     /tmp/ccUY8n86.s:44     .text:0000000000000024 _ZN11MySemaphoreC2Em
     /tmp/ccUY8n86.s:47     .text:0000000000000024 .L0 
     /tmp/ccUY8n86.s:49     .text:0000000000000024 .L0 
     /tmp/ccUY8n86.s:50     .text:0000000000000028 .L0 
     /tmp/ccUY8n86.s:52     .text:000000000000002c .L0 
     /tmp/ccUY8n86.s:54     .text:0000000000000030 .L0 
     /tmp/ccUY8n86.s:57     .text:0000000000000030 .L0 
     /tmp/ccUY8n86.s:58     .text:0000000000000030 .L0 
     /tmp/ccUY8n86.s:60     .text:0000000000000034 .L0 
     /tmp/ccUY8n86.s:61     .text:0000000000000034 .L0 
     /tmp/ccUY8n86.s:63     .text:0000000000000038 .L0 
     /tmp/ccUY8n86.s:65     .text:000000000000003c .L0 
     /tmp/ccUY8n86.s:66     .text:000000000000003c .L0 
     /tmp/ccUY8n86.s:69     .text:0000000000000040 .L0 
     /tmp/ccUY8n86.s:70     .text:0000000000000044 .L0 
     /tmp/ccUY8n86.s:71     .text:0000000000000044 .L0 
     /tmp/ccUY8n86.s:73     .text:0000000000000048 .L0 
     /tmp/ccUY8n86.s:75     .text:000000000000004c .L0 
     /tmp/ccUY8n86.s:44     .text:0000000000000024 _ZN11MySemaphoreC1Em
     /tmp/ccUY8n86.s:83     .text:000000000000004c _ZN11MySemaphore16get_from_blockedEv
     /tmp/ccUY8n86.s:86     .text:000000000000004c .L0 
     /tmp/ccUY8n86.s:88     .text:000000000000004c .L0 
     /tmp/ccUY8n86.s:89     .text:0000000000000050 .L0 
     /tmp/ccUY8n86.s:91     .text:0000000000000054 .L0 
     /tmp/ccUY8n86.s:93     .text:0000000000000058 .L0 
     /tmp/ccUY8n86.s:97     .text:000000000000005c .L0 
     /tmp/ccUY8n86.s:98     .text:000000000000005c .L0 
     /tmp/ccUY8n86.s:101    .text:0000000000000060 .L0 
     /tmp/ccUY8n86.s:105    .text:0000000000000064 .L0 
     /tmp/ccUY8n86.s:109    .text:0000000000000064 .L0 
     /tmp/ccUY8n86.s:110    .text:0000000000000064 .L0 
     /tmp/ccUY8n86.s:111    .text:0000000000000064 .L0 
     /tmp/ccUY8n86.s:116    .text:0000000000000068 .L0 
     /tmp/ccUY8n86.s:118    .text:000000000000006c .L0 
     /tmp/ccUY8n86.s:124    .text:0000000000000070 .L0 
     /tmp/ccUY8n86.s:125    .text:0000000000000070 .L0 
     /tmp/ccUY8n86.s:126    .text:0000000000000070 .L0 
     /tmp/ccUY8n86.s:134    .text:0000000000000074 .L0 
GAS LISTING /tmp/ccUY8n86.s 			page 20


     /tmp/ccUY8n86.s:135    .text:0000000000000074 .L0 
     /tmp/ccUY8n86.s:136    .text:0000000000000078 .L0 
     /tmp/ccUY8n86.s:137    .text:0000000000000078 .L0 
     /tmp/ccUY8n86.s:138    .text:0000000000000078 .L0 
     /tmp/ccUY8n86.s:140    .text:000000000000007c .L0 
     /tmp/ccUY8n86.s:144    .text:0000000000000080 .L0 
     /tmp/ccUY8n86.s:148    .text:0000000000000080 .L0 
     /tmp/ccUY8n86.s:149    .text:0000000000000080 .L0 
     /tmp/ccUY8n86.s:153    .text:0000000000000088 .L0 
     /tmp/ccUY8n86.s:159    .text:0000000000000088 _ZN11MySemaphore9sem_closeEPS_
     /tmp/ccUY8n86.s:162    .text:0000000000000088 .L0 
     /tmp/ccUY8n86.s:164    .text:0000000000000088 .L0 
     /tmp/ccUY8n86.s:165    .text:000000000000008c .L0 
     /tmp/ccUY8n86.s:170    .text:000000000000009c .L0 
     /tmp/ccUY8n86.s:171    .text:000000000000009c .L0 
     /tmp/ccUY8n86.s:172    .text:000000000000009c .L0 
     /tmp/ccUY8n86.s:173    .text:000000000000009c .L0 
     /tmp/ccUY8n86.s:175    .text:00000000000000a0 .L0 
     /tmp/ccUY8n86.s:178    .text:00000000000000a4 .L0 
     /tmp/ccUY8n86.s:179    .text:00000000000000a4 .L0 
     /tmp/ccUY8n86.s:185    .text:00000000000000ac .L0 
     /tmp/ccUY8n86.s:186    .text:00000000000000ac .L0 
     /tmp/ccUY8n86.s:189    .text:00000000000000b4 .L0 
     /tmp/ccUY8n86.s:194    .text:00000000000000c0 .L0 
     /tmp/ccUY8n86.s:195    .text:00000000000000c0 .L0 
     /tmp/ccUY8n86.s:197    .text:00000000000000c4 .L0 
     /tmp/ccUY8n86.s:198    .text:00000000000000c4 .L0 
     /tmp/ccUY8n86.s:204    .text:00000000000000d4 .L0 
     /tmp/ccUY8n86.s:212    .text:00000000000000dc .L0 
     /tmp/ccUY8n86.s:213    .text:00000000000000dc .L0 
     /tmp/ccUY8n86.s:214    .text:00000000000000dc .L0 
     /tmp/ccUY8n86.s:220    .text:00000000000000e4 .L0 
     /tmp/ccUY8n86.s:221    .text:00000000000000e4 .L0 
     /tmp/ccUY8n86.s:223    .text:00000000000000ec .L0 
     /tmp/ccUY8n86.s:225    .text:00000000000000f0 .L0 
     /tmp/ccUY8n86.s:226    .text:00000000000000f0 .L0 
     /tmp/ccUY8n86.s:228    .text:00000000000000f4 .L0 
     /tmp/ccUY8n86.s:231    .text:00000000000000f8 .L0 
     /tmp/ccUY8n86.s:234    .text:00000000000000fc .L0 
     /tmp/ccUY8n86.s:236    .text:0000000000000100 .L0 
     /tmp/ccUY8n86.s:242    .text:0000000000000100 _ZN11MySemaphore17semaphore_destroyEPv
     /tmp/ccUY8n86.s:245    .text:0000000000000100 .L0 
     /tmp/ccUY8n86.s:247    .text:0000000000000100 .L0 
     /tmp/ccUY8n86.s:248    .text:0000000000000104 .L0 
     /tmp/ccUY8n86.s:251    .text:000000000000010c .L0 
     /tmp/ccUY8n86.s:252    .text:000000000000010c .L0 
     /tmp/ccUY8n86.s:254    .text:0000000000000110 .L0 
     /tmp/ccUY8n86.s:257    .text:0000000000000110 .L0 
     /tmp/ccUY8n86.s:258    .text:0000000000000110 .L0 
     /tmp/ccUY8n86.s:259    .text:0000000000000110 .L0 
     /tmp/ccUY8n86.s:262    .text:0000000000000118 .L0 
     /tmp/ccUY8n86.s:263    .text:000000000000011c .L0 
     /tmp/ccUY8n86.s:265    .text:0000000000000120 .L0 
     /tmp/ccUY8n86.s:266    .text:0000000000000120 .L0 
     /tmp/ccUY8n86.s:268    .text:0000000000000124 .L0 
     /tmp/ccUY8n86.s:270    .text:0000000000000128 .L0 
     /tmp/ccUY8n86.s:276    .text:0000000000000128 _ZN11MySemaphore14put_in_blockedEP3TCB
GAS LISTING /tmp/ccUY8n86.s 			page 21


     /tmp/ccUY8n86.s:279    .text:0000000000000128 .L0 
     /tmp/ccUY8n86.s:281    .text:0000000000000128 .L0 
     /tmp/ccUY8n86.s:282    .text:000000000000012c .L0 
     /tmp/ccUY8n86.s:284    .text:0000000000000130 .L0 
     /tmp/ccUY8n86.s:286    .text:0000000000000134 .L0 
     /tmp/ccUY8n86.s:288    .text:0000000000000134 .L0 
     /tmp/ccUY8n86.s:289    .text:0000000000000134 .L0 
     /tmp/ccUY8n86.s:291    .text:0000000000000138 .L0 
     /tmp/ccUY8n86.s:293    .text:000000000000013c .L0 
     /tmp/ccUY8n86.s:298    .text:0000000000000140 .L0 
     /tmp/ccUY8n86.s:299    .text:0000000000000140 .L0 
     /tmp/ccUY8n86.s:305    .text:0000000000000144 .L0 
     /tmp/ccUY8n86.s:306    .text:0000000000000144 .L0 
     /tmp/ccUY8n86.s:308    .text:0000000000000148 .L0 
     /tmp/ccUY8n86.s:309    .text:000000000000014c .L0 
     /tmp/ccUY8n86.s:310    .text:000000000000014c .L0 
     /tmp/ccUY8n86.s:311    .text:000000000000014c .L0 
     /tmp/ccUY8n86.s:313    .text:0000000000000150 .L0 
     /tmp/ccUY8n86.s:316    .text:0000000000000154 .L0 
     /tmp/ccUY8n86.s:318    .text:0000000000000154 .L0 
     /tmp/ccUY8n86.s:319    .text:0000000000000154 .L0 
     /tmp/ccUY8n86.s:321    .text:000000000000015c .L0 
     /tmp/ccUY8n86.s:327    .text:000000000000015c _ZN11MySemaphore5blockEv
     /tmp/ccUY8n86.s:330    .text:000000000000015c .L0 
     /tmp/ccUY8n86.s:332    .text:000000000000015c .L0 
     /tmp/ccUY8n86.s:333    .text:0000000000000160 .L0 
     /tmp/ccUY8n86.s:336    .text:0000000000000168 .L0 
     /tmp/ccUY8n86.s:337    .text:0000000000000168 .L0 
     /tmp/ccUY8n86.s:339    .text:000000000000016c .L0 
     /tmp/ccUY8n86.s:342    .text:000000000000016c .L0 
     /tmp/ccUY8n86.s:343    .text:000000000000016c .L0 
     /tmp/ccUY8n86.s:344    .text:000000000000016c .L0 
     /tmp/ccUY8n86.s:349    .text:0000000000000180 .L0 
     /tmp/ccUY8n86.s:350    .text:0000000000000180 .L0 
     /tmp/ccUY8n86.s:353    .text:0000000000000188 .L0 
     /tmp/ccUY8n86.s:354    .text:000000000000018c .L0 
     /tmp/ccUY8n86.s:356    .text:0000000000000190 .L0 
     /tmp/ccUY8n86.s:357    .text:0000000000000190 .L0 
     /tmp/ccUY8n86.s:359    .text:0000000000000194 .L0 
     /tmp/ccUY8n86.s:361    .text:0000000000000198 .L0 
     /tmp/ccUY8n86.s:367    .text:0000000000000198 _ZN11MySemaphore8sem_waitEPS_
     /tmp/ccUY8n86.s:370    .text:0000000000000198 .L0 
     /tmp/ccUY8n86.s:372    .text:0000000000000198 .L0 
     /tmp/ccUY8n86.s:373    .text:000000000000019c .L0 
     /tmp/ccUY8n86.s:377    .text:00000000000001a8 .L0 
     /tmp/ccUY8n86.s:378    .text:00000000000001a8 .L0 
     /tmp/ccUY8n86.s:379    .text:00000000000001a8 .L0 
     /tmp/ccUY8n86.s:381    .text:00000000000001ac .L0 
     /tmp/ccUY8n86.s:387    .text:00000000000001b0 .L0 
     /tmp/ccUY8n86.s:388    .text:00000000000001b0 .L0 
     /tmp/ccUY8n86.s:389    .text:00000000000001b0 .L0 
     /tmp/ccUY8n86.s:394    .text:00000000000001b4 .L0 
     /tmp/ccUY8n86.s:399    .text:00000000000001b8 .L0 
     /tmp/ccUY8n86.s:400    .text:00000000000001b8 .L0 
     /tmp/ccUY8n86.s:405    .text:00000000000001bc .L0 
     /tmp/ccUY8n86.s:406    .text:00000000000001bc .L0 
     /tmp/ccUY8n86.s:407    .text:00000000000001bc .L0 
GAS LISTING /tmp/ccUY8n86.s 			page 22


     /tmp/ccUY8n86.s:414    .text:00000000000001c4 .L0 
     /tmp/ccUY8n86.s:415    .text:00000000000001c4 .L0 
     /tmp/ccUY8n86.s:416    .text:00000000000001c4 .L0 
     /tmp/ccUY8n86.s:421    .text:00000000000001c8 .L0 
     /tmp/ccUY8n86.s:423    .text:00000000000001cc .L0 
     /tmp/ccUY8n86.s:426    .text:00000000000001d0 .L0 
     /tmp/ccUY8n86.s:427    .text:00000000000001d4 .L0 
     /tmp/ccUY8n86.s:428    .text:00000000000001d4 .L0 
     /tmp/ccUY8n86.s:430    .text:00000000000001d8 .L0 
     /tmp/ccUY8n86.s:431    .text:00000000000001d8 .L0 
     /tmp/ccUY8n86.s:433    .text:00000000000001dc .L0 
     /tmp/ccUY8n86.s:436    .text:00000000000001e0 .L0 
     /tmp/ccUY8n86.s:440    .text:00000000000001e4 .L0 
     /tmp/ccUY8n86.s:442    .text:00000000000001e4 .L0 
     /tmp/ccUY8n86.s:443    .text:00000000000001e4 .L0 
     /tmp/ccUY8n86.s:448    .text:00000000000001f0 .L0 
     /tmp/ccUY8n86.s:450    .text:00000000000001f8 .L0 
     /tmp/ccUY8n86.s:456    .text:00000000000001f8 _ZN11MySemaphore7unblockEv
     /tmp/ccUY8n86.s:459    .text:00000000000001f8 .L0 
     /tmp/ccUY8n86.s:461    .text:00000000000001f8 .L0 
     /tmp/ccUY8n86.s:462    .text:00000000000001fc .L0 
     /tmp/ccUY8n86.s:466    .text:0000000000000208 .L0 
     /tmp/ccUY8n86.s:467    .text:0000000000000208 .L0 
     /tmp/ccUY8n86.s:468    .text:0000000000000208 .L0 
     /tmp/ccUY8n86.s:470    .text:000000000000020c .L0 
     /tmp/ccUY8n86.s:472    .text:000000000000020c .L0 
     /tmp/ccUY8n86.s:473    .text:000000000000020c .L0 
     /tmp/ccUY8n86.s:476    .text:0000000000000214 .L0 
     /tmp/ccUY8n86.s:479    .text:000000000000021c .L0 
     /tmp/ccUY8n86.s:480    .text:000000000000021c .L0 
     /tmp/ccUY8n86.s:483    .text:0000000000000224 .L0 
     /tmp/ccUY8n86.s:488    .text:0000000000000230 .L0 
     /tmp/ccUY8n86.s:489    .text:0000000000000234 .L0 
     /tmp/ccUY8n86.s:491    .text:0000000000000238 .L0 
     /tmp/ccUY8n86.s:492    .text:0000000000000238 .L0 
     /tmp/ccUY8n86.s:494    .text:000000000000023c .L0 
     /tmp/ccUY8n86.s:496    .text:0000000000000240 .L0 
     /tmp/ccUY8n86.s:498    .text:0000000000000244 .L0 
     /tmp/ccUY8n86.s:504    .text:0000000000000244 _ZN11MySemaphore10sem_signalEPS_
     /tmp/ccUY8n86.s:507    .text:0000000000000244 .L0 
     /tmp/ccUY8n86.s:509    .text:0000000000000244 .L0 
     /tmp/ccUY8n86.s:510    .text:0000000000000248 .L0 
     /tmp/ccUY8n86.s:514    .text:0000000000000254 .L0 
     /tmp/ccUY8n86.s:515    .text:0000000000000254 .L0 
     /tmp/ccUY8n86.s:516    .text:0000000000000254 .L0 
     /tmp/ccUY8n86.s:518    .text:0000000000000258 .L0 
     /tmp/ccUY8n86.s:524    .text:000000000000025c .L0 
     /tmp/ccUY8n86.s:525    .text:000000000000025c .L0 
     /tmp/ccUY8n86.s:526    .text:000000000000025c .L0 
     /tmp/ccUY8n86.s:531    .text:0000000000000260 .L0 
     /tmp/ccUY8n86.s:537    .text:0000000000000268 .L0 
     /tmp/ccUY8n86.s:538    .text:0000000000000268 .L0 
     /tmp/ccUY8n86.s:543    .text:000000000000026c .L0 
     /tmp/ccUY8n86.s:544    .text:000000000000026c .L0 
     /tmp/ccUY8n86.s:545    .text:000000000000026c .L0 
     /tmp/ccUY8n86.s:551    .text:0000000000000270 .L0 
     /tmp/ccUY8n86.s:552    .text:0000000000000270 .L0 
GAS LISTING /tmp/ccUY8n86.s 			page 23


     /tmp/ccUY8n86.s:553    .text:0000000000000270 .L0 
     /tmp/ccUY8n86.s:558    .text:0000000000000274 .L0 
     /tmp/ccUY8n86.s:560    .text:0000000000000278 .L0 
     /tmp/ccUY8n86.s:563    .text:000000000000027c .L0 
     /tmp/ccUY8n86.s:564    .text:0000000000000280 .L0 
     /tmp/ccUY8n86.s:565    .text:0000000000000280 .L0 
     /tmp/ccUY8n86.s:567    .text:0000000000000284 .L0 
     /tmp/ccUY8n86.s:568    .text:0000000000000284 .L0 
     /tmp/ccUY8n86.s:570    .text:0000000000000288 .L0 
     /tmp/ccUY8n86.s:573    .text:000000000000028c .L0 
     /tmp/ccUY8n86.s:577    .text:0000000000000290 .L0 
     /tmp/ccUY8n86.s:579    .text:0000000000000290 .L0 
     /tmp/ccUY8n86.s:580    .text:0000000000000290 .L0 
     /tmp/ccUY8n86.s:585    .text:000000000000029c .L0 
     /tmp/ccUY8n86.s:587    .text:00000000000002a4 .L0 
     /tmp/ccUY8n86.s:598    .text:00000000000002a4 _ZN11MySemaphore13get_sem_cacheEv
     /tmp/ccUY8n86.s:601    .text:00000000000002a4 .L0 
     /tmp/ccUY8n86.s:602    .text:00000000000002a4 .L0 
     /tmp/ccUY8n86.s:603    .text:00000000000002a4 .L0 
     /tmp/ccUY8n86.s:604    .text:00000000000002a4 .L0 
     /tmp/ccUY8n86.s:606    .text:00000000000002ac .L0 
     /tmp/ccUY8n86.s:608    .text:00000000000002b0 .L0 
     /tmp/ccUY8n86.s:609    .text:00000000000002b0 .L0 
     /tmp/ccUY8n86.s:613    .text:00000000000002bc .L0 
     /tmp/ccUY8n86.s:614    .text:00000000000002c0 .L0 
     /tmp/ccUY8n86.s:617    .text:00000000000002c8 .L0 
     /tmp/ccUY8n86.s:618    .text:00000000000002c8 .L0 
     /tmp/ccUY8n86.s:620    .text:00000000000002cc .L0 
     /tmp/ccUY8n86.s:622    .text:00000000000002cc .L0 
     /tmp/ccUY8n86.s:623    .text:00000000000002cc .L0 
     /tmp/ccUY8n86.s:630    .text:00000000000002f0 .L0 
     /tmp/ccUY8n86.s:632    .text:00000000000002f8 .L0 
     /tmp/ccUY8n86.s:633    .text:00000000000002f8 .L0 
     /tmp/ccUY8n86.s:635    .text:0000000000000304 .L0 
     /tmp/ccUY8n86.s:637    .text:0000000000000308 .L0 
     /tmp/ccUY8n86.s:638    .text:0000000000000308 .L0 
     /tmp/ccUY8n86.s:640    .text:000000000000030c .L0 
     /tmp/ccUY8n86.s:642    .text:0000000000000310 .L0 
     /tmp/ccUY8n86.s:648    .text:0000000000000310 _ZN11MySemaphore8sem_openEPPS_m
     /tmp/ccUY8n86.s:651    .text:0000000000000310 .L0 
     /tmp/ccUY8n86.s:653    .text:0000000000000310 .L0 
     /tmp/ccUY8n86.s:654    .text:0000000000000314 .L0 
     /tmp/ccUY8n86.s:659    .text:0000000000000324 .L0 
     /tmp/ccUY8n86.s:660    .text:0000000000000324 .L0 
     /tmp/ccUY8n86.s:661    .text:0000000000000324 .L0 
     /tmp/ccUY8n86.s:662    .text:0000000000000324 .L0 
     /tmp/ccUY8n86.s:664    .text:0000000000000328 .L0 
     /tmp/ccUY8n86.s:668    .text:0000000000000330 .L0 
     /tmp/ccUY8n86.s:669    .text:0000000000000330 .L0 
     /tmp/ccUY8n86.s:672    .text:0000000000000338 .L0 
     /tmp/ccUY8n86.s:676    .text:0000000000000344 .L0 
     /tmp/ccUY8n86.s:677    .text:0000000000000344 .L0 
     /tmp/ccUY8n86.s:679    .text:0000000000000348 .L0 
     /tmp/ccUY8n86.s:680    .text:0000000000000348 .L0 
     /tmp/ccUY8n86.s:682    .text:000000000000034c .L0 
     /tmp/ccUY8n86.s:683    .text:000000000000034c .L0 
     /tmp/ccUY8n86.s:686    .text:0000000000000354 .L0 
GAS LISTING /tmp/ccUY8n86.s 			page 24


     /tmp/ccUY8n86.s:688    .text:0000000000000358 .L0 
     /tmp/ccUY8n86.s:689    .text:0000000000000358 .L0 
     /tmp/ccUY8n86.s:691    .text:000000000000035c .L0 
     /tmp/ccUY8n86.s:694    .text:0000000000000360 .L0 
     /tmp/ccUY8n86.s:697    .text:0000000000000364 .L0 
     /tmp/ccUY8n86.s:699    .text:0000000000000368 .L0 
     /tmp/ccUY8n86.s:708    .bss:0000000000000000 _ZN11MySemaphore15semaphore_cacheE
     /tmp/ccUY8n86.s:705    .bss:0000000000000000 .LANCHOR0
     /tmp/ccUY8n86.s:716    .text:0000000000000368 .L0 
     /tmp/ccUY8n86.s:344    .text:000000000000016c .L0 
     /tmp/ccUY8n86.s:604    .text:00000000000002a4 .L0 
     /tmp/ccUY8n86.s:609    .text:00000000000002b0 .L0 
     /tmp/ccUY8n86.s:623    .text:00000000000002cc .L0 
     /tmp/ccUY8n86.s:624    .text:00000000000002d4 .L0 
     /tmp/ccUY8n86.s:592    .rodata.str1.8:0000000000000000 .LC0
     /tmp/ccUY8n86.s:626    .text:00000000000002e0 .L0 
     /tmp/ccUY8n86.s:630    .text:00000000000002f0 .L0 
     /tmp/ccUY8n86.s:633    .text:00000000000002f8 .L0 
     /tmp/ccUY8n86.s:131    .text:0000000000000074 .L5
     /tmp/ccUY8n86.s:143    .text:0000000000000080 .L9
     /tmp/ccUY8n86.s:119    .text:0000000000000070 .L7
     /tmp/ccUY8n86.s:192    .text:00000000000000c0 .L11
     /tmp/ccUY8n86.s:206    .text:00000000000000dc .L12
     /tmp/ccUY8n86.s:183    .text:00000000000000ac .L15
     /tmp/ccUY8n86.s:315    .text:0000000000000154 .L22
     /tmp/ccUY8n86.s:301    .text:0000000000000144 .L20
     /tmp/ccUY8n86.s:439    .text:00000000000001e4 .L30
     /tmp/ccUY8n86.s:446    .text:00000000000001f0 .L28
     /tmp/ccUY8n86.s:410    .text:00000000000001c4 .L26
     /tmp/ccUY8n86.s:424    .text:00000000000001d0 .L27
     /tmp/ccUY8n86.s:486    .text:0000000000000230 .L31
     /tmp/ccUY8n86.s:576    .text:0000000000000290 .L39
     /tmp/ccUY8n86.s:583    .text:000000000000029c .L37
     /tmp/ccUY8n86.s:547    .text:0000000000000270 .L35
     /tmp/ccUY8n86.s:561    .text:000000000000027c .L36
     /tmp/ccUY8n86.s:611    .text:00000000000002bc .L46
     /tmp/ccUY8n86.s:2472   .debug_abbrev:0000000000000000 .Ldebug_abbrev0
     /tmp/ccUY8n86.s:4181   .debug_str:00000000000009eb .LASF151
     /tmp/ccUY8n86.s:4057   .debug_str:00000000000005a2 .LASF152
     /tmp/ccUY8n86.s:3911   .debug_str:0000000000000024 .LASF153
     /tmp/ccUY8n86.s:5      .text:0000000000000000 .Ltext0
     /tmp/ccUY8n86.s:711    .text:0000000000000368 .Letext0
     /tmp/ccUY8n86.s:3901   .debug_line:0000000000000000 .Ldebug_line0
     /tmp/ccUY8n86.s:4011   .debug_str:00000000000003ea .LASF0
     /tmp/ccUY8n86.s:4039   .debug_str:00000000000004f3 .LASF1
     /tmp/ccUY8n86.s:4129   .debug_str:0000000000000860 .LASF2
     /tmp/ccUY8n86.s:4137   .debug_str:000000000000089a .LASF4
     /tmp/ccUY8n86.s:4023   .debug_str:000000000000046f .LASF3
     /tmp/ccUY8n86.s:3909   .debug_str:000000000000001d .LASF5
     /tmp/ccUY8n86.s:4099   .debug_str:000000000000072c .LASF6
     /tmp/ccUY8n86.s:4037   .debug_str:00000000000004e0 .LASF7
     /tmp/ccUY8n86.s:4063   .debug_str:00000000000005ec .LASF8
     /tmp/ccUY8n86.s:3991   .debug_str:0000000000000337 .LASF9
     /tmp/ccUY8n86.s:3997   .debug_str:000000000000035e .LASF10
     /tmp/ccUY8n86.s:3933   .debug_str:000000000000011e .LASF11
     /tmp/ccUY8n86.s:4189   .debug_str:0000000000000b11 .LASF12
     /tmp/ccUY8n86.s:3979   .debug_str:00000000000002df .LASF13
GAS LISTING /tmp/ccUY8n86.s 			page 25


     /tmp/ccUY8n86.s:3941   .debug_str:0000000000000176 .LASF14
     /tmp/ccUY8n86.s:3931   .debug_str:000000000000010e .LASF15
     /tmp/ccUY8n86.s:4159   .debug_str:000000000000093d .LASF16
     /tmp/ccUY8n86.s:3959   .debug_str:000000000000020a .LASF17
     /tmp/ccUY8n86.s:4151   .debug_str:0000000000000900 .LASF18
     /tmp/ccUY8n86.s:3975   .debug_str:00000000000002cd .LASF19
     /tmp/ccUY8n86.s:3973   .debug_str:00000000000002c0 .LASF154
     /tmp/ccUY8n86.s:3937   .debug_str:000000000000014a .LASF52
     /tmp/ccUY8n86.s:4121   .debug_str:000000000000081a .LASF20
     /tmp/ccUY8n86.s:3939   .debug_str:0000000000000156 .LASF22
     /tmp/ccUY8n86.s:4111   .debug_str:00000000000007c5 .LASF21
     /tmp/ccUY8n86.s:4061   .debug_str:00000000000005cd .LASF23
     /tmp/ccUY8n86.s:4227   .debug_str:0000000000000c3c .LASF24
     /tmp/ccUY8n86.s:3983   .debug_str:00000000000002f3 .LASF25
     /tmp/ccUY8n86.s:4001   .debug_str:000000000000038d .LASF26
     /tmp/ccUY8n86.s:3999   .debug_str:000000000000036c .LASF27
     /tmp/ccUY8n86.s:4191   .debug_str:0000000000000b1c .LASF28
     /tmp/ccUY8n86.s:4187   .debug_str:0000000000000aea .LASF29
     /tmp/ccUY8n86.s:4025   .debug_str:0000000000000481 .LASF34
     /tmp/ccUY8n86.s:4085   .debug_str:00000000000006ba .LASF36
     /tmp/ccUY8n86.s:4009   .debug_str:00000000000003e4 .LASF30
     /tmp/ccUY8n86.s:3919   .debug_str:000000000000007d .LASF31
     /tmp/ccUY8n86.s:3907   .debug_str:0000000000000015 .LASF32
     /tmp/ccUY8n86.s:4205   .debug_str:0000000000000b9a .LASF33
     /tmp/ccUY8n86.s:4147   .debug_str:00000000000008df .LASF35
     /tmp/ccUY8n86.s:4103   .debug_str:0000000000000754 .LASF37
     /tmp/ccUY8n86.s:4201   .debug_str:0000000000000b7b .LASF38
     /tmp/ccUY8n86.s:4075   .debug_str:0000000000000660 .LASF39
     /tmp/ccUY8n86.s:4155   .debug_str:0000000000000927 .LASF40
     /tmp/ccUY8n86.s:3967   .debug_str:0000000000000275 .LASF41
     /tmp/ccUY8n86.s:3957   .debug_str:0000000000000202 .LASF42
     /tmp/ccUY8n86.s:3963   .debug_str:000000000000023a .LASF43
     /tmp/ccUY8n86.s:4221   .debug_str:0000000000000c13 .LASF44
     /tmp/ccUY8n86.s:4101   .debug_str:000000000000073f .LASF45
     /tmp/ccUY8n86.s:3923   .debug_str:00000000000000a0 .LASF46
     /tmp/ccUY8n86.s:4097   .debug_str:0000000000000717 .LASF47
     /tmp/ccUY8n86.s:3905   .debug_str:0000000000000005 .LASF48
     /tmp/ccUY8n86.s:4051   .debug_str:000000000000056e .LASF50
     /tmp/ccUY8n86.s:4149   .debug_str:00000000000008ed .LASF49
     /tmp/ccUY8n86.s:4123   .debug_str:0000000000000823 .LASF51
     /tmp/ccUY8n86.s:3987   .debug_str:000000000000031d .LASF63
     /tmp/ccUY8n86.s:3955   .debug_str:00000000000001e0 .LASF65
     /tmp/ccUY8n86.s:4047   .debug_str:000000000000053e .LASF53
     /tmp/ccUY8n86.s:4177   .debug_str:00000000000009c3 .LASF54
     /tmp/ccUY8n86.s:3927   .debug_str:00000000000000d4 .LASF56
     /tmp/ccUY8n86.s:4223   .debug_str:0000000000000c20 .LASF55
     /tmp/ccUY8n86.s:4185   .debug_str:0000000000000ac3 .LASF57
     /tmp/ccUY8n86.s:4087   .debug_str:00000000000006df .LASF115
     /tmp/ccUY8n86.s:4225   .debug_str:0000000000000c32 .LASF58
     /tmp/ccUY8n86.s:3977   .debug_str:00000000000002da .LASF59
     /tmp/ccUY8n86.s:4083   .debug_str:00000000000006b5 .LASF60
     /tmp/ccUY8n86.s:4165   .debug_str:0000000000000961 .LASF155
     /tmp/ccUY8n86.s:4157   .debug_str:000000000000092f .LASF61
     /tmp/ccUY8n86.s:4007   .debug_str:00000000000003bb .LASF62
     /tmp/ccUY8n86.s:4065   .debug_str:0000000000000600 .LASF133
     /tmp/ccUY8n86.s:4069   .debug_str:000000000000061f .LASF135
     /tmp/ccUY8n86.s:4113   .debug_str:00000000000007cf .LASF64
GAS LISTING /tmp/ccUY8n86.s 			page 26


     /tmp/ccUY8n86.s:4049   .debug_str:0000000000000553 .LASF66
     /tmp/ccUY8n86.s:4127   .debug_str:0000000000000855 .LASF67
     /tmp/ccUY8n86.s:4139   .debug_str:00000000000008a1 .LASF68
     /tmp/ccUY8n86.s:4219   .debug_str:0000000000000c05 .LASF69
     /tmp/ccUY8n86.s:3915   .debug_str:000000000000005e .LASF70
     /tmp/ccUY8n86.s:4199   .debug_str:0000000000000b6e .LASF71
     /tmp/ccUY8n86.s:3945   .debug_str:0000000000000193 .LASF72
     /tmp/ccUY8n86.s:4095   .debug_str:000000000000070b .LASF73
     /tmp/ccUY8n86.s:4077   .debug_str:0000000000000682 .LASF74
     /tmp/ccUY8n86.s:4109   .debug_str:00000000000007b2 .LASF75
     /tmp/ccUY8n86.s:3965   .debug_str:0000000000000255 .LASF76
     /tmp/ccUY8n86.s:4193   .debug_str:0000000000000b2b .LASF77
     /tmp/ccUY8n86.s:4107   .debug_str:0000000000000793 .LASF78
     /tmp/ccUY8n86.s:4161   .debug_str:0000000000000949 .LASF79
     /tmp/ccUY8n86.s:4125   .debug_str:0000000000000839 .LASF80
     /tmp/ccUY8n86.s:4029   .debug_str:000000000000049b .LASF81
     /tmp/ccUY8n86.s:4115   .debug_str:00000000000007df .LASF82
     /tmp/ccUY8n86.s:4203   .debug_str:0000000000000b89 .LASF83
     /tmp/ccUY8n86.s:4173   .debug_str:0000000000000995 .LASF84
     /tmp/ccUY8n86.s:4153   .debug_str:0000000000000916 .LASF85
     /tmp/ccUY8n86.s:3971   .debug_str:00000000000002a3 .LASF86
     /tmp/ccUY8n86.s:4081   .debug_str:00000000000006a6 .LASF87
     /tmp/ccUY8n86.s:4117   .debug_str:00000000000007fa .LASF88
     /tmp/ccUY8n86.s:4031   .debug_str:00000000000004aa .LASF89
     /tmp/ccUY8n86.s:3961   .debug_str:0000000000000220 .LASF90
     /tmp/ccUY8n86.s:4055   .debug_str:0000000000000593 .LASF91
     /tmp/ccUY8n86.s:4017   .debug_str:0000000000000423 .LASF92
     /tmp/ccUY8n86.s:4197   .debug_str:0000000000000b61 .LASF93
     /tmp/ccUY8n86.s:4179   .debug_str:00000000000009d3 .LASF94
     /tmp/ccUY8n86.s:4141   .debug_str:00000000000008b7 .LASF95
     /tmp/ccUY8n86.s:3935   .debug_str:000000000000012d .LASF96
     /tmp/ccUY8n86.s:3949   .debug_str:00000000000001b0 .LASF97
     /tmp/ccUY8n86.s:4105   .debug_str:0000000000000777 .LASF98
     /tmp/ccUY8n86.s:4041   .debug_str:0000000000000506 .LASF99
     /tmp/ccUY8n86.s:4175   .debug_str:00000000000009b3 .LASF100
     /tmp/ccUY8n86.s:3993   .debug_str:0000000000000347 .LASF101
     /tmp/ccUY8n86.s:3985   .debug_str:0000000000000311 .LASF102
     /tmp/ccUY8n86.s:4089   .debug_str:00000000000006ef .LASF103
     /tmp/ccUY8n86.s:4131   .debug_str:000000000000086e .LASF104
     /tmp/ccUY8n86.s:4171   .debug_str:000000000000098d .LASF105
     /tmp/ccUY8n86.s:3981   .debug_str:00000000000002ee .LASF106
     /tmp/ccUY8n86.s:4091   .debug_str:00000000000006fc .LASF107
     /tmp/ccUY8n86.s:4015   .debug_str:0000000000000403 .LASF108
     /tmp/ccUY8n86.s:4093   .debug_str:0000000000000706 .LASF156
     /tmp/ccUY8n86.s:4013   .debug_str:00000000000003f7 .LASF109
     /tmp/ccUY8n86.s:4217   .debug_str:0000000000000bed .LASF110
     /tmp/ccUY8n86.s:4053   .debug_str:0000000000000584 .LASF111
     /tmp/ccUY8n86.s:4043   .debug_str:000000000000050c .LASF112
     /tmp/ccUY8n86.s:3953   .debug_str:00000000000001d1 .LASF157
     /tmp/ccUY8n86.s:4071   .debug_str:0000000000000636 .LASF158
     /tmp/ccUY8n86.s:4019   .debug_str:000000000000043e .LASF113
     /tmp/ccUY8n86.s:4059   .debug_str:00000000000005b4 .LASF114
     /tmp/ccUY8n86.s:4145   .debug_str:00000000000008cc .LASF116
     /tmp/ccUY8n86.s:3921   .debug_str:0000000000000096 .LASF117
     /tmp/ccUY8n86.s:3903   .debug_str:0000000000000000 .LASF118
     /tmp/ccUY8n86.s:4027   .debug_str:0000000000000492 .LASF119
     /tmp/ccUY8n86.s:4215   .debug_str:0000000000000be7 .LASF120
GAS LISTING /tmp/ccUY8n86.s 			page 27


     /tmp/ccUY8n86.s:4183   .debug_str:0000000000000abb .LASF121
     /tmp/ccUY8n86.s:4163   .debug_str:0000000000000958 .LASF122
     /tmp/ccUY8n86.s:4167   .debug_str:0000000000000969 .LASF123
     /tmp/ccUY8n86.s:4003   .debug_str:0000000000000398 .LASF124
     /tmp/ccUY8n86.s:3943   .debug_str:0000000000000186 .LASF125
     /tmp/ccUY8n86.s:3913   .debug_str:0000000000000058 .LASF126
     /tmp/ccUY8n86.s:3995   .debug_str:0000000000000353 .LASF127
     /tmp/ccUY8n86.s:4143   .debug_str:00000000000008c7 .LASF128
     /tmp/ccUY8n86.s:4045   .debug_str:0000000000000535 .LASF129
     /tmp/ccUY8n86.s:3989   .debug_str:000000000000032b .LASF130
     /tmp/ccUY8n86.s:4119   .debug_str:0000000000000815 .LASF131
     /tmp/ccUY8n86.s:4033   .debug_str:00000000000004b9 .LASF132
     /tmp/ccUY8n86.s:4207   .debug_str:0000000000000bb5 .LASF134
     /tmp/ccUY8n86.s:4035   .debug_str:00000000000004c3 .LASF136
     /tmp/ccUY8n86.s:3929   .debug_str:00000000000000f9 .LASF137
     /tmp/ccUY8n86.s:4133   .debug_str:000000000000087b .LASF138
     /tmp/ccUY8n86.s:4135   .debug_str:0000000000000885 .LASF139
     /tmp/ccUY8n86.s:4213   .debug_str:0000000000000bd3 .LASF159
     /tmp/ccUY8n86.s:4005   .debug_str:00000000000003a3 .LASF160
     /tmp/ccUY8n86.s:4067   .debug_str:000000000000060c .LASF140
     /tmp/ccUY8n86.s:4073   .debug_str:0000000000000650 .LASF141
     /tmp/ccUY8n86.s:4021   .debug_str:000000000000044c .LASF161
     /tmp/ccUY8n86.s:243    .text:0000000000000100 .LFB50
     /tmp/ccUY8n86.s:271    .text:0000000000000128 .LFE50
     /tmp/ccUY8n86.s:4079   .debug_str:000000000000069a .LASF142
     /tmp/ccUY8n86.s:3561   .debug_loc:0000000000000000 .LLST9
     /tmp/ccUY8n86.s:3575   .debug_loc:0000000000000039 .LLST10
     /tmp/ccUY8n86.s:260    .text:0000000000000118 .LVL23
     /tmp/ccUY8n86.s:10     .text:0000000000000000 .LFB49
     /tmp/ccUY8n86.s:39     .text:0000000000000024 .LFE49
     /tmp/ccUY8n86.s:599    .text:00000000000002a4 .LFB48
     /tmp/ccUY8n86.s:643    .text:0000000000000310 .LFE48
     /tmp/ccUY8n86.s:628    .text:00000000000002f0 .LVL55
     /tmp/ccUY8n86.s:457    .text:00000000000001f8 .LFB47
     /tmp/ccUY8n86.s:499    .text:0000000000000244 .LFE47
     /tmp/ccUY8n86.s:3947   .debug_str:00000000000001ab .LASF143
     /tmp/ccUY8n86.s:3589   .debug_loc:0000000000000072 .LLST19
     /tmp/ccUY8n86.s:3603   .debug_loc:00000000000000ab .LLST20
     /tmp/ccUY8n86.s:474    .text:0000000000000214 .LVL42
     /tmp/ccUY8n86.s:481    .text:0000000000000224 .LVL43
     /tmp/ccUY8n86.s:485    .text:0000000000000230 .LVL44
     /tmp/ccUY8n86.s:328    .text:000000000000015c .LFB46
     /tmp/ccUY8n86.s:362    .text:0000000000000198 .LFE46
     /tmp/ccUY8n86.s:3614   .debug_loc:00000000000000e1 .LLST13
     /tmp/ccUY8n86.s:347    .text:0000000000000180 .LVL29
     /tmp/ccUY8n86.s:351    .text:0000000000000188 .LVL30
     /tmp/ccUY8n86.s:277    .text:0000000000000128 .LFB45
     /tmp/ccUY8n86.s:322    .text:000000000000015c .LFE45
     /tmp/ccUY8n86.s:295    .text:0000000000000140 .LBB39
     /tmp/ccUY8n86.s:303    .text:0000000000000144 .LBE39
     /tmp/ccUY8n86.s:3628   .debug_loc:000000000000011a .LLST11
     /tmp/ccUY8n86.s:3635   .debug_loc:000000000000013d .LLST12
     /tmp/ccUY8n86.s:84     .text:000000000000004c .LFB44
     /tmp/ccUY8n86.s:154    .text:0000000000000088 .LFE44
     /tmp/ccUY8n86.s:3642   .debug_loc:0000000000000160 .LLST0
     /tmp/ccUY8n86.s:3893   .debug_ranges:0000000000000000 .Ldebug_ranges0
     /tmp/ccUY8n86.s:3653   .debug_loc:0000000000000196 .LLST1
GAS LISTING /tmp/ccUY8n86.s 			page 28


     /tmp/ccUY8n86.s:106    .text:0000000000000064 .LBB31
     /tmp/ccUY8n86.s:114    .text:0000000000000068 .LBE31
     /tmp/ccUY8n86.s:3664   .debug_loc:00000000000001cc .LLST2
     /tmp/ccUY8n86.s:122    .text:0000000000000070 .LBB33
     /tmp/ccUY8n86.s:129    .text:0000000000000074 .LBE33
     /tmp/ccUY8n86.s:3671   .debug_loc:00000000000001ef .LLST3
     /tmp/ccUY8n86.s:3679   .debug_loc:0000000000000213 .LLST4
     /tmp/ccUY8n86.s:3917   .debug_str:0000000000000078 .LASF145
     /tmp/ccUY8n86.s:4169   .debug_str:0000000000000978 .LASF162
     /tmp/ccUY8n86.s:45     .text:0000000000000024 .LFB42
     /tmp/ccUY8n86.s:76     .text:000000000000004c .LFE42
     /tmp/ccUY8n86.s:505    .text:0000000000000244 .LFB40
     /tmp/ccUY8n86.s:588    .text:00000000000002a4 .LFE40
     /tmp/ccUY8n86.s:3686   .debug_loc:0000000000000236 .LLST21
     /tmp/ccUY8n86.s:522    .text:000000000000025c .LBB47
     /tmp/ccUY8n86.s:529    .text:0000000000000260 .LBE47
     /tmp/ccUY8n86.s:3708   .debug_loc:0000000000000295 .LLST22
     /tmp/ccUY8n86.s:534    .text:0000000000000268 .LBB49
     /tmp/ccUY8n86.s:541    .text:000000000000026c .LBE49
     /tmp/ccUY8n86.s:3715   .debug_loc:00000000000002b8 .LLST23
     /tmp/ccUY8n86.s:3722   .debug_loc:00000000000002db .LLST24
     /tmp/ccUY8n86.s:549    .text:0000000000000270 .LBB51
     /tmp/ccUY8n86.s:556    .text:0000000000000274 .LBE51
     /tmp/ccUY8n86.s:3729   .debug_loc:00000000000002fe .LLST25
     /tmp/ccUY8n86.s:581    .text:0000000000000298 .LVL54
     /tmp/ccUY8n86.s:368    .text:0000000000000198 .LFB39
     /tmp/ccUY8n86.s:451    .text:00000000000001f8 .LFE39
     /tmp/ccUY8n86.s:3736   .debug_loc:0000000000000321 .LLST14
     /tmp/ccUY8n86.s:385    .text:00000000000001b0 .LBB41
     /tmp/ccUY8n86.s:392    .text:00000000000001b4 .LBE41
     /tmp/ccUY8n86.s:3758   .debug_loc:0000000000000380 .LLST15
     /tmp/ccUY8n86.s:396    .text:00000000000001b8 .LBB43
     /tmp/ccUY8n86.s:403    .text:00000000000001bc .LBE43
     /tmp/ccUY8n86.s:3765   .debug_loc:00000000000003a3 .LLST16
     /tmp/ccUY8n86.s:3772   .debug_loc:00000000000003c6 .LLST17
     /tmp/ccUY8n86.s:412    .text:00000000000001c4 .LBB45
     /tmp/ccUY8n86.s:419    .text:00000000000001c8 .LBE45
     /tmp/ccUY8n86.s:3779   .debug_loc:00000000000003e9 .LLST18
     /tmp/ccUY8n86.s:444    .text:00000000000001ec .LVL40
     /tmp/ccUY8n86.s:160    .text:0000000000000088 .LFB38
     /tmp/ccUY8n86.s:237    .text:0000000000000100 .LFE38
     /tmp/ccUY8n86.s:4209   .debug_str:0000000000000bc1 .LASF144
     /tmp/ccUY8n86.s:3786   .debug_loc:000000000000040c .LLST5
     /tmp/ccUY8n86.s:3804   .debug_loc:0000000000000458 .LLST6
     /tmp/ccUY8n86.s:209    .text:00000000000000dc .LBB37
     /tmp/ccUY8n86.s:218    .text:00000000000000e4 .LBE37
     /tmp/ccUY8n86.s:3811   .debug_loc:000000000000047b .LLST7
     /tmp/ccUY8n86.s:3819   .debug_loc:000000000000049f .LLST8
     /tmp/ccUY8n86.s:187    .text:00000000000000b4 .LVL13
     /tmp/ccUY8n86.s:191    .text:00000000000000c0 .LVL14
     /tmp/ccUY8n86.s:200    .text:00000000000000d0 .LVL15
     /tmp/ccUY8n86.s:649    .text:0000000000000310 .LFB37
     /tmp/ccUY8n86.s:700    .text:0000000000000368 .LFE37
     /tmp/ccUY8n86.s:3826   .debug_loc:00000000000004c2 .LLST26
     /tmp/ccUY8n86.s:3844   .debug_loc:000000000000050e .LLST27
     /tmp/ccUY8n86.s:3862   .debug_loc:000000000000055a .LLST28
     /tmp/ccUY8n86.s:670    .text:0000000000000338 .LVL57
GAS LISTING /tmp/ccUY8n86.s 			page 29


     /tmp/ccUY8n86.s:674    .text:0000000000000344 .LVL58
     /tmp/ccUY8n86.s:4211   .debug_str:0000000000000bc8 .LASF146
     /tmp/ccUY8n86.s:4195   .debug_str:0000000000000b3e .LASF147
     /tmp/ccUY8n86.s:3969   .debug_str:0000000000000291 .LASF149
     /tmp/ccUY8n86.s:3925   .debug_str:00000000000000b0 .LASF148
     /tmp/ccUY8n86.s:3951   .debug_str:00000000000001c0 .LASF150
     /tmp/ccUY8n86.s:246    .text:0000000000000100 .LVL21
     /tmp/ccUY8n86.s:256    .text:0000000000000110 .LVL22
     /tmp/ccUY8n86.s:460    .text:00000000000001f8 .LVL41
     /tmp/ccUY8n86.s:331    .text:000000000000015c .LVL27
     /tmp/ccUY8n86.s:294    .text:0000000000000140 .LVL25
     /tmp/ccUY8n86.s:300    .text:0000000000000144 .LVL26
     /tmp/ccUY8n86.s:87     .text:000000000000004c .LVL3
     /tmp/ccUY8n86.s:99     .text:0000000000000060 .LVL4
     /tmp/ccUY8n86.s:104    .text:0000000000000064 .LVL5
     /tmp/ccUY8n86.s:127    .text:0000000000000074 .LVL8
     /tmp/ccUY8n86.s:142    .text:0000000000000080 .LVL9
     /tmp/ccUY8n86.s:112    .text:0000000000000068 .LVL6
     /tmp/ccUY8n86.s:121    .text:0000000000000070 .LVL7
     /tmp/ccUY8n86.s:508    .text:0000000000000244 .LVL45
     /tmp/ccUY8n86.s:546    .text:0000000000000270 .LVL50
     /tmp/ccUY8n86.s:571    .text:0000000000000288 .LVL52
     /tmp/ccUY8n86.s:575    .text:0000000000000290 .LVL53
     /tmp/ccUY8n86.s:521    .text:000000000000025c .LVL46
     /tmp/ccUY8n86.s:527    .text:0000000000000260 .LVL47
     /tmp/ccUY8n86.s:533    .text:0000000000000268 .LVL48
     /tmp/ccUY8n86.s:539    .text:000000000000026c .LVL49
     /tmp/ccUY8n86.s:554    .text:0000000000000274 .LVL51
     /tmp/ccUY8n86.s:371    .text:0000000000000198 .LVL31
     /tmp/ccUY8n86.s:409    .text:00000000000001c4 .LVL36
     /tmp/ccUY8n86.s:434    .text:00000000000001dc .LVL38
     /tmp/ccUY8n86.s:438    .text:00000000000001e4 .LVL39
     /tmp/ccUY8n86.s:384    .text:00000000000001b0 .LVL32
     /tmp/ccUY8n86.s:390    .text:00000000000001b4 .LVL33
     /tmp/ccUY8n86.s:395    .text:00000000000001b8 .LVL34
     /tmp/ccUY8n86.s:401    .text:00000000000001bc .LVL35
     /tmp/ccUY8n86.s:417    .text:00000000000001c8 .LVL37
     /tmp/ccUY8n86.s:163    .text:0000000000000088 .LVL10
     /tmp/ccUY8n86.s:182    .text:00000000000000ac .LVL12
     /tmp/ccUY8n86.s:232    .text:00000000000000f8 .LVL20
     /tmp/ccUY8n86.s:180    .text:00000000000000a8 .LVL11
     /tmp/ccUY8n86.s:229    .text:00000000000000f4 .LVL19
     /tmp/ccUY8n86.s:208    .text:00000000000000dc .LVL17
     /tmp/ccUY8n86.s:216    .text:00000000000000e4 .LVL18
     /tmp/ccUY8n86.s:652    .text:0000000000000310 .LVL56
     /tmp/ccUY8n86.s:692    .text:000000000000035c .LVL60
     /tmp/ccUY8n86.s:695    .text:0000000000000360 .LVL61
     /tmp/ccUY8n86.s:684    .text:0000000000000350 .LVL59
     /tmp/ccUY8n86.s:717    .debug_info:0000000000000000 .Ldebug_info0
     /tmp/ccUY8n86.s:102    .text:0000000000000064 .LBB30
     /tmp/ccUY8n86.s:132    .text:0000000000000074 .LBE30
     /tmp/ccUY8n86.s:146    .text:0000000000000080 .LBB35
     /tmp/ccUY8n86.s:151    .text:0000000000000088 .LBE35

UNDEFINED SYMBOLS
_ZN9Scheduler11getInstanceEv
_ZN9Scheduler3putEP3TCB
GAS LISTING /tmp/ccUY8n86.s 			page 30


_ZN3TCB7runningE
_ZN3TCB5yieldEv
_Z17kmem_cache_createPKcmPFvPvES3_
_Z16kmem_cache_allocP12kmem_cache_s
