GAS LISTING /tmp/ccU3X7KV.s 			page 1


   1              		.file	"semaphore.cpp"
   2              		.option pic
   3              		.option norelax
   4              		.text
   5              	.Ltext0:
   6              		.align	2
   7              		.globl	_ZN11MySemaphoreC2Em
   9              	_ZN11MySemaphoreC2Em:
  10              	.LFB56:
  11              		.file 1 "src/semaphore.cpp"
   1:src/semaphore.cpp **** #include "../h/semaphore.hpp"
   2:src/semaphore.cpp **** 
   3:src/semaphore.cpp **** #include "../h/TCB.hpp"
   4:src/semaphore.cpp **** 
   5:src/semaphore.cpp **** int MySemaphore::sem_open(MySemaphore **handle, uint64 init) {
   6:src/semaphore.cpp ****     *handle = new MySemaphore(init);
   7:src/semaphore.cpp ****     return 0;
   8:src/semaphore.cpp **** }
   9:src/semaphore.cpp **** 
  10:src/semaphore.cpp **** int MySemaphore::sem_close(MySemaphore* handle){
  11:src/semaphore.cpp ****     // deblokiraj sve niti
  12:src/semaphore.cpp ****     TCB* tmp = handle->head;
  13:src/semaphore.cpp ****     while(tmp){
  14:src/semaphore.cpp ****         tmp = handle->get_from_blocked();
  15:src/semaphore.cpp ****         if(tmp)Scheduler::getInstance().put(tmp);
  16:src/semaphore.cpp ****     }
  17:src/semaphore.cpp ****     // indikator za wait na true
  18:src/semaphore.cpp ****     handle->set_indicator(true);
  19:src/semaphore.cpp ****     return 0;
  20:src/semaphore.cpp **** }
  21:src/semaphore.cpp **** 
  22:src/semaphore.cpp **** int MySemaphore::sem_wait(MySemaphore *id) {
  23:src/semaphore.cpp ****     id->set_val(id->get_val() - 1);
  24:src/semaphore.cpp ****     if( id->get_val() < 0)id->block();
  25:src/semaphore.cpp ****     if(!id->get_indicator())return 0;
  26:src/semaphore.cpp ****     else return -1;
  27:src/semaphore.cpp **** }
  28:src/semaphore.cpp **** 
  29:src/semaphore.cpp **** int MySemaphore::sem_signal(MySemaphore *id) {
  30:src/semaphore.cpp ****     id->set_val(id->get_val() + 1);
  31:src/semaphore.cpp ****     if( id->get_val() <= 0)id->unblock();
  32:src/semaphore.cpp ****     if(!id->get_indicator())return 0;
  33:src/semaphore.cpp ****     else return -1;
  34:src/semaphore.cpp **** }
  35:src/semaphore.cpp **** 
  36:src/semaphore.cpp **** MySemaphore::MySemaphore(uint64 init) {
  12              		.loc 1 36 1
  13              		.cfi_startproc
  14              	.LVL0:
  15 0000 130101FF 		addi	sp,sp,-16
  16              		.cfi_def_cfa_offset 16
  17 0004 23348100 		sd	s0,8(sp)
  18              		.cfi_offset 8, -8
  19 0008 13040101 		addi	s0,sp,16
  20              		.cfi_def_cfa 8, 0
  21              	.LBB41:
  37:src/semaphore.cpp ****     val = init;
GAS LISTING /tmp/ccU3X7KV.s 			page 2


  22              		.loc 1 37 5
  23              		.loc 1 37 9 is_stmt 0
  24 000c 2320B500 		sw	a1,0(a0)
  38:src/semaphore.cpp ****     head = tail = nullptr;
  25              		.loc 1 38 5 is_stmt 1
  26              		.loc 1 38 17 is_stmt 0
  27 0010 23380500 		sd	zero,16(a0)
  28              		.loc 1 38 10
  29 0014 23340500 		sd	zero,8(a0)
  39:src/semaphore.cpp ****     indicator = false;
  30              		.loc 1 39 5 is_stmt 1
  31              		.loc 1 39 15 is_stmt 0
  32 0018 23020500 		sb	zero,4(a0)
  33              	.LBE41:
  40:src/semaphore.cpp **** }
  34              		.loc 1 40 1
  35 001c 03348100 		ld	s0,8(sp)
  36              		.cfi_restore 8
  37              		.cfi_def_cfa 2, 16
  38 0020 13010101 		addi	sp,sp,16
  39              		.cfi_def_cfa_offset 0
  40 0024 67800000 		jr	ra
  41              		.cfi_endproc
  42              	.LFE56:
  44              		.globl	_ZN11MySemaphoreC1Em
  45              		.set	_ZN11MySemaphoreC1Em,_ZN11MySemaphoreC2Em
  46              		.align	2
  47              		.globl	_ZN11MySemaphore8sem_openEPPS_m
  49              	_ZN11MySemaphore8sem_openEPPS_m:
  50              	.LFB51:
   5:src/semaphore.cpp ****     *handle = new MySemaphore(init);
  51              		.loc 1 5 62 is_stmt 1
  52              		.cfi_startproc
  53              	.LVL1:
  54 0028 130101FD 		addi	sp,sp,-48
  55              		.cfi_def_cfa_offset 48
  56 002c 23341102 		sd	ra,40(sp)
  57 0030 23308102 		sd	s0,32(sp)
  58 0034 233C9100 		sd	s1,24(sp)
  59 0038 23382101 		sd	s2,16(sp)
  60 003c 23343101 		sd	s3,8(sp)
  61              		.cfi_offset 1, -8
  62              		.cfi_offset 8, -16
  63              		.cfi_offset 9, -24
  64              		.cfi_offset 18, -32
  65              		.cfi_offset 19, -40
  66 0040 13040103 		addi	s0,sp,48
  67              		.cfi_def_cfa 8, 0
  68 0044 93040500 		mv	s1,a0
  69 0048 93890500 		mv	s3,a1
   6:src/semaphore.cpp ****     return 0;
  70              		.loc 1 6 5
  71              	.LVL2:
  72              	.LBB50:
  73              	.LBB51:
  74              		.file 2 "src/../h/semaphore.hpp"
   1:src/../h/semaphore.hpp **** #ifndef _semaphore_hpp_
GAS LISTING /tmp/ccU3X7KV.s 			page 3


   2:src/../h/semaphore.hpp **** #define _semaphore_hpp_
   3:src/../h/semaphore.hpp **** 
   4:src/../h/semaphore.hpp **** #include "../lib/hw.h"
   5:src/../h/semaphore.hpp **** #include "../h/MemoryAllocator.hpp"
   6:src/../h/semaphore.hpp **** 
   7:src/../h/semaphore.hpp **** class TCB;
   8:src/../h/semaphore.hpp **** 
   9:src/../h/semaphore.hpp **** class MySemaphore{
  10:src/../h/semaphore.hpp **** public:
  11:src/../h/semaphore.hpp **** 
  12:src/../h/semaphore.hpp ****     ~MySemaphore(){ sem_close(this);}
  13:src/../h/semaphore.hpp **** 
  14:src/../h/semaphore.hpp ****     static int sem_open(
  15:src/../h/semaphore.hpp ****           MySemaphore** handle,
  16:src/../h/semaphore.hpp ****           uint64 init
  17:src/../h/semaphore.hpp ****           );
  18:src/../h/semaphore.hpp ****     static int sem_close(MySemaphore* handle);
  19:src/../h/semaphore.hpp ****     static int sem_wait(MySemaphore* id);
  20:src/../h/semaphore.hpp ****     static int sem_signal(MySemaphore* id);
  21:src/../h/semaphore.hpp **** 
  22:src/../h/semaphore.hpp ****     void put_in_blocked(TCB* tcb);
  23:src/../h/semaphore.hpp **** 
  24:src/../h/semaphore.hpp ****     TCB* get_from_blocked();
  25:src/../h/semaphore.hpp **** 
  26:src/../h/semaphore.hpp ****     void block();
  27:src/../h/semaphore.hpp **** 
  28:src/../h/semaphore.hpp ****     void unblock();
  29:src/../h/semaphore.hpp **** 
  30:src/../h/semaphore.hpp ****     // getteri i setteri
  31:src/../h/semaphore.hpp ****     bool get_indicator()const{ return indicator; }
  32:src/../h/semaphore.hpp ****     void set_indicator(bool v){ indicator = v; }
  33:src/../h/semaphore.hpp ****     int get_val()const{ return val; }
  34:src/../h/semaphore.hpp ****     void set_val(int v){ val = v; }
  35:src/../h/semaphore.hpp **** 
  36:src/../h/semaphore.hpp ****     // operatori
  37:src/../h/semaphore.hpp ****     void *operator new(uint64 n){
  38:src/../h/semaphore.hpp ****         uint64 ssize = (n + MEM_BLOCK_SIZE - 1) / MEM_BLOCK_SIZE;
  75              		.loc 2 38 9
  39:src/../h/semaphore.hpp ****         return MemoryAllocator::getInstance().memory_alloc(ssize);
  76              		.loc 2 39 9
  77              	.LBB52:
  78              	.LBB53:
  79              		.file 3 "src/../h/../h/MemoryAllocator.hpp"
   1:src/../h/../h/MemoryAllocator.hpp **** #ifndef _memory_allocator_hpp_
   2:src/../h/../h/MemoryAllocator.hpp **** #define _memory_allocator_hpp_
   3:src/../h/../h/MemoryAllocator.hpp **** 
   4:src/../h/../h/MemoryAllocator.hpp **** #include "../lib/hw.h"
   5:src/../h/../h/MemoryAllocator.hpp **** 
   6:src/../h/../h/MemoryAllocator.hpp **** class MemoryAllocator{
   7:src/../h/../h/MemoryAllocator.hpp **** public:
   8:src/../h/../h/MemoryAllocator.hpp **** 
   9:src/../h/../h/MemoryAllocator.hpp ****     // dodaj instancu
  10:src/../h/../h/MemoryAllocator.hpp ****     static MemoryAllocator& getInstance(){
  11:src/../h/../h/MemoryAllocator.hpp ****         static MemoryAllocator instance;
  80              		.loc 3 11 9
  81              		.loc 3 11 32 is_stmt 0
  82 004c 97070000 		lbu	a5,_ZGVZN15MemoryAllocator11getInstanceEvE8instance
GAS LISTING /tmp/ccU3X7KV.s 			page 4


  82      83C70700 
  83 0054 63860704 		beqz	a5,.L7
  84              	.L4:
  12:src/../h/../h/MemoryAllocator.hpp ****         return instance;
  85              		.loc 3 12 9 is_stmt 1
  86              	.LBE53:
  87              	.LBE52:
  88              		.loc 2 39 59 is_stmt 0
  89 0058 93051000 		li	a1,1
  90              	.LVL3:
  91 005c 17050000 		lla	a0,_ZZN15MemoryAllocator11getInstanceEvE8instance
  91      13050500 
  92              	.LVL4:
  93 0064 97000000 		call	_ZN15MemoryAllocator12memory_allocEm@plt
  93      E7800000 
  94              	.LVL5:
  95 006c 13090500 		mv	s2,a0
  96              	.LVL6:
  97              	.LBE51:
  98              	.LBE50:
   6:src/semaphore.cpp ****     return 0;
  99              		.loc 1 6 35
 100 0070 93850900 		mv	a1,s3
 101 0074 97000000 		call	_ZN11MySemaphoreC1Em
 101      E7800000 
 102              	.LVL7:
   6:src/semaphore.cpp ****     return 0;
 103              		.loc 1 6 13
 104 007c 23B02401 		sd	s2,0(s1)
   7:src/semaphore.cpp **** }
 105              		.loc 1 7 5 is_stmt 1
   8:src/semaphore.cpp **** 
 106              		.loc 1 8 1 is_stmt 0
 107 0080 13050000 		li	a0,0
 108 0084 83308102 		ld	ra,40(sp)
 109              		.cfi_remember_state
 110              		.cfi_restore 1
 111 0088 03340102 		ld	s0,32(sp)
 112              		.cfi_restore 8
 113              		.cfi_def_cfa 2, 48
 114 008c 83348101 		ld	s1,24(sp)
 115              		.cfi_restore 9
 116              	.LVL8:
 117 0090 03390101 		ld	s2,16(sp)
 118              		.cfi_restore 18
 119 0094 83398100 		ld	s3,8(sp)
 120              		.cfi_restore 19
 121              	.LVL9:
 122 0098 13010103 		addi	sp,sp,48
 123              		.cfi_def_cfa_offset 0
 124 009c 67800000 		jr	ra
 125              	.LVL10:
 126              	.L7:
 127              		.cfi_restore_state
 128              	.LBB61:
 129              	.LBB60:
 130              	.LBB59:
GAS LISTING /tmp/ccU3X7KV.s 			page 5


 131              	.LBB58:
 132              	.LBB54:
 133              	.LBB55:
 134              	.LBB56:
  13:src/../h/../h/MemoryAllocator.hpp ****     }
  14:src/../h/../h/MemoryAllocator.hpp **** 
  15:src/../h/../h/MemoryAllocator.hpp ****     MemoryAllocator(const MemoryAllocator&) = delete;
  16:src/../h/../h/MemoryAllocator.hpp ****     void operator=(MemoryAllocator const&) = delete;
  17:src/../h/../h/MemoryAllocator.hpp **** 
  18:src/../h/../h/MemoryAllocator.hpp ****     void* memory_alloc (size_t);
  19:src/../h/../h/MemoryAllocator.hpp **** 
  20:src/../h/../h/MemoryAllocator.hpp ****     int memory_free (void*);
  21:src/../h/../h/MemoryAllocator.hpp ****     int get_mem_alloc_heap_start(){return this->heapStart;}
  22:src/../h/../h/MemoryAllocator.hpp ****     int get_mem_alloc_heap_end(){return this->heapEnd;}
  23:src/../h/../h/MemoryAllocator.hpp **** 
  24:src/../h/../h/MemoryAllocator.hpp **** private:
  25:src/../h/../h/MemoryAllocator.hpp **** 
  26:src/../h/../h/MemoryAllocator.hpp ****     struct FreeMem{
  27:src/../h/../h/MemoryAllocator.hpp ****         size_t size;
  28:src/../h/../h/MemoryAllocator.hpp ****         FreeMem* next;
  29:src/../h/../h/MemoryAllocator.hpp ****         FreeMem* prev;
  30:src/../h/../h/MemoryAllocator.hpp ****     };
  31:src/../h/../h/MemoryAllocator.hpp **** 
  32:src/../h/../h/MemoryAllocator.hpp ****     FreeMem* fmem_head = nullptr;
  33:src/../h/../h/MemoryAllocator.hpp ****     size_t heapStart;
  34:src/../h/../h/MemoryAllocator.hpp ****     size_t heapEnd;
  35:src/../h/../h/MemoryAllocator.hpp **** 
  36:src/../h/../h/MemoryAllocator.hpp ****     MemoryAllocator(){
 135              		.loc 3 36 22
 136 00a0 17060000 		lla	a2,_ZZN15MemoryAllocator11getInstanceEvE8instance
 136      13060600 
 137              	.LBB57:
  37:src/../h/../h/MemoryAllocator.hpp **** 
  38:src/../h/../h/MemoryAllocator.hpp ****         heapStart = (size_t)HEAP_START_ADDR + ((size_t)HEAP_END_ADDR - (size_t)HEAP_START_ADDR) / 8
 138              		.loc 3 38 9 is_stmt 1
 139              		.loc 3 38 70 is_stmt 0
 140 00a8 97070000 		la	a5,HEAP_END_ADDR
 140      83B70700 
 141 00b0 03B70700 		ld	a4,0(a5)
 142 00b4 97070000 		la	a5,HEAP_START_ADDR
 142      83B70700 
 143 00bc 83B70700 		ld	a5,0(a5)
 144 00c0 B306F740 		sub	a3,a4,a5
 145              		.loc 3 38 97
 146 00c4 93D63600 		srli	a3,a3,3
 147              		.loc 3 38 45
 148 00c8 B387D700 		add	a5,a5,a3
 149              		.loc 3 38 101
 150 00cc 93871700 		addi	a5,a5,1
 151              		.loc 3 38 19
 152 00d0 2334F600 		sd	a5,8(a2)
  39:src/../h/../h/MemoryAllocator.hpp ****         heapEnd = (size_t)HEAP_END_ADDR - 1;
 153              		.loc 3 39 9 is_stmt 1
 154              		.loc 3 39 41 is_stmt 0
 155 00d4 1307F7FF 		addi	a4,a4,-1
 156              		.loc 3 39 17
 157 00d8 2338E600 		sd	a4,16(a2)
GAS LISTING /tmp/ccU3X7KV.s 			page 6


  40:src/../h/../h/MemoryAllocator.hpp **** 
  41:src/../h/../h/MemoryAllocator.hpp ****         size_t sizeInBlocks = (heapEnd - heapStart) / MEM_BLOCK_SIZE;
 158              		.loc 3 41 9 is_stmt 1
 159              		.loc 3 41 40 is_stmt 0
 160 00dc 3307F740 		sub	a4,a4,a5
 161              		.loc 3 41 16
 162 00e0 13576700 		srli	a4,a4,6
 163              	.LVL11:
  42:src/../h/../h/MemoryAllocator.hpp **** 
  43:src/../h/../h/MemoryAllocator.hpp ****         // poravnaj na prvu krstenu adresu
  44:src/../h/../h/MemoryAllocator.hpp ****         fmem_head = (FreeMem*)(heapStart + ((heapStart % MEM_BLOCK_SIZE != 0)?(MEM_BLOCK_SIZE - hea
 164              		.loc 3 44 9 is_stmt 1
 165              		.loc 3 44 56 is_stmt 0
 166 00e4 93F6F703 		andi	a3,a5,63
 167              		.loc 3 44 78
 168 00e8 63860600 		beqz	a3,.L5
 169 00ec 13060004 		li	a2,64
 170 00f0 B306D640 		sub	a3,a2,a3
 171              	.L5:
 172              		.loc 3 44 42
 173 00f4 B387D700 		add	a5,a5,a3
 174              		.loc 3 44 19
 175 00f8 97060000 		sd	a5,_ZZN15MemoryAllocator11getInstanceEvE8instance,a3
 175      23B0F600 
  45:src/../h/../h/MemoryAllocator.hpp **** 
  46:src/../h/../h/MemoryAllocator.hpp ****         // napravi node
  47:src/../h/../h/MemoryAllocator.hpp **** 
  48:src/../h/../h/MemoryAllocator.hpp ****         fmem_head->next = nullptr;
 176              		.loc 3 48 9 is_stmt 1
 177              		.loc 3 48 25 is_stmt 0
 178 0100 23B40700 		sd	zero,8(a5)
  49:src/../h/../h/MemoryAllocator.hpp ****         fmem_head->prev = nullptr;
 179              		.loc 3 49 9 is_stmt 1
 180              		.loc 3 49 25 is_stmt 0
 181 0104 23B80700 		sd	zero,16(a5)
  50:src/../h/../h/MemoryAllocator.hpp ****         fmem_head->size = sizeInBlocks;
 182              		.loc 3 50 9 is_stmt 1
 183              		.loc 3 50 25 is_stmt 0
 184 0108 23B0E700 		sd	a4,0(a5)
 185              	.LVL12:
 186              	.LBE57:
 187              	.LBE56:
 188              	.LBE55:
 189              	.LBE54:
  11:src/../h/../h/MemoryAllocator.hpp ****         return instance;
 190              		.loc 3 11 32
 191 010c 93071000 		li	a5,1
 192 0110 17070000 		sb	a5,_ZGVZN15MemoryAllocator11getInstanceEvE8instance,a4
 192      2300F700 
 193 0118 6FF01FF4 		j	.L4
 194              	.LBE58:
 195              	.LBE59:
 196              	.LBE60:
 197              	.LBE61:
 198              		.cfi_endproc
 199              	.LFE51:
 201              		.align	2
GAS LISTING /tmp/ccU3X7KV.s 			page 7


 202              		.globl	_ZN11MySemaphore16get_from_blockedEv
 204              	_ZN11MySemaphore16get_from_blockedEv:
 205              	.LFB58:
  41:src/semaphore.cpp **** 
  42:src/semaphore.cpp **** TCB* MySemaphore::get_from_blocked() {
 206              		.loc 1 42 38 is_stmt 1
 207              		.cfi_startproc
 208              	.LVL13:
 209 011c 130101FF 		addi	sp,sp,-16
 210              		.cfi_def_cfa_offset 16
 211 0120 23348100 		sd	s0,8(sp)
 212              		.cfi_offset 8, -8
 213 0124 13040101 		addi	s0,sp,16
 214              		.cfi_def_cfa 8, 0
 215 0128 93070500 		mv	a5,a0
  43:src/semaphore.cpp ****     if(head){
 216              		.loc 1 43 5
 217              	.LBB62:
 218              		.loc 1 43 8 is_stmt 0
 219 012c 03358500 		ld	a0,8(a0)
 220              	.LVL14:
 221              		.loc 1 43 5
 222 0130 630A0500 		beqz	a0,.L8
 223              	.LBB63:
  44:src/semaphore.cpp ****         TCB* tmp = head;
 224              		.loc 1 44 9 is_stmt 1
 225              	.LVL15:
  45:src/semaphore.cpp ****         head = head->get_next_blocked();
 226              		.loc 1 45 9
 227              	.LBB64:
 228              	.LBB65:
 229              		.file 4 "src/../h/TCB.hpp"
   1:src/../h/TCB.hpp **** #ifndef _thread_hpp_
   2:src/../h/TCB.hpp **** #define _thread_hpp_
   3:src/../h/TCB.hpp **** 
   4:src/../h/TCB.hpp **** #include "../lib/hw.h"
   5:src/../h/TCB.hpp **** #include "../h/scheduler.hpp"
   6:src/../h/TCB.hpp **** #include "../h/MemoryAllocator.hpp"
   7:src/../h/TCB.hpp **** #include "../h/TS.hpp"
   8:src/../h/TCB.hpp **** #include "../h/periodic_threads.hpp"
   9:src/../h/TCB.hpp **** 
  10:src/../h/TCB.hpp **** class TCB{
  11:src/../h/TCB.hpp **** public:
  12:src/../h/TCB.hpp **** 
  13:src/../h/TCB.hpp ****     ~TCB(){
  14:src/../h/TCB.hpp ****         MemoryAllocator::getInstance().memory_free((void*)stack);
  15:src/../h/TCB.hpp ****     }
  16:src/../h/TCB.hpp **** 
  17:src/../h/TCB.hpp ****     using Body = void (*)(void*);
  18:src/../h/TCB.hpp **** 
  19:src/../h/TCB.hpp ****     // trazene
  20:src/../h/TCB.hpp ****     static int thread_create(
  21:src/../h/TCB.hpp ****         TCB** handle,
  22:src/../h/TCB.hpp ****         void(*start_routine)(void*),
  23:src/../h/TCB.hpp ****         void* arg,
  24:src/../h/TCB.hpp ****         void* stack_space,
  25:src/../h/TCB.hpp ****         bool flag
GAS LISTING /tmp/ccU3X7KV.s 			page 8


  26:src/../h/TCB.hpp ****     );
  27:src/../h/TCB.hpp **** 
  28:src/../h/TCB.hpp ****     static int thread_exit();
  29:src/../h/TCB.hpp **** 
  30:src/../h/TCB.hpp ****     static void thread_dispatch();
  31:src/../h/TCB.hpp **** 
  32:src/../h/TCB.hpp ****     static int time_sleep(uint64 time);
  33:src/../h/TCB.hpp **** 
  34:src/../h/TCB.hpp ****     // getteri i setteri
  35:src/../h/TCB.hpp ****     void set_finished(bool f){ this->finished = f; }
  36:src/../h/TCB.hpp **** 
  37:src/../h/TCB.hpp ****     bool is_finished()const{return finished;}
  38:src/../h/TCB.hpp **** 
  39:src/../h/TCB.hpp ****     void set_next_scheduler(TCB* nextThread){ next_scheduler = nextThread; }
  40:src/../h/TCB.hpp **** 
  41:src/../h/TCB.hpp ****     TCB* get_next_scheduler()const{ return next_scheduler; }
  42:src/../h/TCB.hpp **** 
  43:src/../h/TCB.hpp ****     void set_next_sleep(TCB* nextThread){ next_sleep = nextThread; }
  44:src/../h/TCB.hpp **** 
  45:src/../h/TCB.hpp ****     TCB* get_next_sleep()const{ return next_sleep; }
  46:src/../h/TCB.hpp **** 
  47:src/../h/TCB.hpp ****     void set_next_blocked(TCB* nextThread){ next_blocked = nextThread; }
  48:src/../h/TCB.hpp **** 
  49:src/../h/TCB.hpp ****     TCB* get_next_blocked()const{ return next_blocked; }
 230              		.loc 4 49 35
 231              		.loc 4 49 42 is_stmt 0
 232 0134 03370504 		ld	a4,64(a0)
 233              	.LVL16:
 234              	.LBE65:
 235              	.LBE64:
 236              		.loc 1 45 14
 237 0138 23B4E700 		sd	a4,8(a5)
  46:src/semaphore.cpp ****         if(!head)tail = nullptr;
 238              		.loc 1 46 9 is_stmt 1
 239 013c 630A0700 		beqz	a4,.L12
 240              	.L10:
  47:src/semaphore.cpp ****         tmp->set_next_blocked(nullptr);
 241              		.loc 1 47 9
 242              	.LVL17:
 243              	.LBB66:
 244              	.LBB67:
  47:src/../h/TCB.hpp **** 
 245              		.loc 4 47 45
  47:src/../h/TCB.hpp **** 
 246              		.loc 4 47 58 is_stmt 0
 247 0140 23300504 		sd	zero,64(a0)
 248              	.LVL18:
 249              	.LBE67:
 250              	.LBE66:
  48:src/semaphore.cpp ****         return tmp;
 251              		.loc 1 48 9 is_stmt 1
 252              	.L8:
 253              	.LBE63:
 254              	.LBE62:
  49:src/semaphore.cpp ****     }
  50:src/semaphore.cpp ****     return nullptr;
  51:src/semaphore.cpp **** }
GAS LISTING /tmp/ccU3X7KV.s 			page 9


 255              		.loc 1 51 1 is_stmt 0
 256 0144 03348100 		ld	s0,8(sp)
 257              		.cfi_remember_state
 258              		.cfi_restore 8
 259              		.cfi_def_cfa 2, 16
 260 0148 13010101 		addi	sp,sp,16
 261              		.cfi_def_cfa_offset 0
 262 014c 67800000 		jr	ra
 263              	.LVL19:
 264              	.L12:
 265              		.cfi_restore_state
 266              	.LBB69:
 267              	.LBB68:
  46:src/semaphore.cpp ****         tmp->set_next_blocked(nullptr);
 268              		.loc 1 46 18 is_stmt 1 discriminator 1
  46:src/semaphore.cpp ****         tmp->set_next_blocked(nullptr);
 269              		.loc 1 46 23 is_stmt 0 discriminator 1
 270 0150 23B80700 		sd	zero,16(a5)
 271 0154 6FF0DFFE 		j	.L10
 272              	.LBE68:
 273              	.LBE69:
 274              		.cfi_endproc
 275              	.LFE58:
 277              		.align	2
 278              		.globl	_ZN11MySemaphore9sem_closeEPS_
 280              	_ZN11MySemaphore9sem_closeEPS_:
 281              	.LFB52:
  10:src/semaphore.cpp ****     // deblokiraj sve niti
 282              		.loc 1 10 48 is_stmt 1
 283              		.cfi_startproc
 284              	.LVL20:
 285 0158 130101FE 		addi	sp,sp,-32
 286              		.cfi_def_cfa_offset 32
 287 015c 233C1100 		sd	ra,24(sp)
 288 0160 23388100 		sd	s0,16(sp)
 289 0164 23349100 		sd	s1,8(sp)
 290 0168 23302101 		sd	s2,0(sp)
 291              		.cfi_offset 1, -8
 292              		.cfi_offset 8, -16
 293              		.cfi_offset 9, -24
 294              		.cfi_offset 18, -32
 295 016c 13040102 		addi	s0,sp,32
 296              		.cfi_def_cfa 8, 0
 297 0170 13090500 		mv	s2,a0
  12:src/semaphore.cpp ****     while(tmp){
 298              		.loc 1 12 5
  12:src/semaphore.cpp ****     while(tmp){
 299              		.loc 1 12 10 is_stmt 0
 300 0174 83348500 		ld	s1,8(a0)
 301              	.LVL21:
 302 0178 6F008001 		j	.L14
 303              	.LVL22:
 304              	.L17:
 305              	.LBB70:
 306              	.LBB71:
 307              		.file 5 "src/../h/../h/scheduler.hpp"
   1:src/../h/../h/scheduler.hpp **** #ifndef _scheduler_hpp_
GAS LISTING /tmp/ccU3X7KV.s 			page 10


   2:src/../h/../h/scheduler.hpp **** #define _scheduler_hpp_
   3:src/../h/../h/scheduler.hpp **** 
   4:src/../h/../h/scheduler.hpp **** //#include "../test/printing.hpp"
   5:src/../h/../h/scheduler.hpp **** 
   6:src/../h/../h/scheduler.hpp **** class TCB;
   7:src/../h/../h/scheduler.hpp **** 
   8:src/../h/../h/scheduler.hpp **** class Scheduler{
   9:src/../h/../h/scheduler.hpp **** public:
  10:src/../h/../h/scheduler.hpp **** 
  11:src/../h/../h/scheduler.hpp ****     static Scheduler& getInstance(){
  12:src/../h/../h/scheduler.hpp ****         static Scheduler instance;
  13:src/../h/../h/scheduler.hpp ****         return instance;
 308              		.loc 5 13 9 is_stmt 1
 309              	.LBE71:
 310              	.LBE70:
  15:src/semaphore.cpp ****     }
 311              		.loc 1 15 44 is_stmt 0
 312 017c 93850400 		mv	a1,s1
 313 0180 17050000 		lla	a0,_ZZN9Scheduler11getInstanceEvE8instance
 313      13050500 
 314 0188 97000000 		call	_ZN9Scheduler3putEP3TCB@plt
 314      E7800000 
 315              	.LVL23:
 316              	.L14:
  13:src/semaphore.cpp ****         tmp = handle->get_from_blocked();
 317              		.loc 1 13 5 is_stmt 1
  13:src/semaphore.cpp ****         tmp = handle->get_from_blocked();
 318              		.loc 1 13 11
 319 0190 63860404 		beqz	s1,.L15
  14:src/semaphore.cpp ****         if(tmp)Scheduler::getInstance().put(tmp);
 320              		.loc 1 14 9
  14:src/semaphore.cpp ****         if(tmp)Scheduler::getInstance().put(tmp);
 321              		.loc 1 14 39 is_stmt 0
 322 0194 13050900 		mv	a0,s2
 323 0198 97000000 		call	_ZN11MySemaphore16get_from_blockedEv
 323      E7800000 
 324              	.LVL24:
 325 01a0 93040500 		mv	s1,a0
 326              	.LVL25:
  15:src/semaphore.cpp ****     }
 327              		.loc 1 15 9 is_stmt 1
 328 01a4 E30605FE 		beqz	a0,.L14
  15:src/semaphore.cpp ****     }
 329              		.loc 1 15 16
 330              	.LBB75:
 331              	.LBB74:
  12:src/../h/../h/scheduler.hpp ****         return instance;
 332              		.loc 5 12 9
  12:src/../h/../h/scheduler.hpp ****         return instance;
 333              		.loc 5 12 26 is_stmt 0
 334 01a8 97070000 		lbu	a5,_ZGVZN9Scheduler11getInstanceEvE8instance
 334      83C70700 
 335 01b0 E39607FC 		bnez	a5,.L17
 336              	.LVL26:
 337              	.LBB72:
 338              	.LBB73:
  14:src/../h/../h/scheduler.hpp ****     }
GAS LISTING /tmp/ccU3X7KV.s 			page 11


  15:src/../h/../h/scheduler.hpp **** 
  16:src/../h/../h/scheduler.hpp ****     Scheduler(const Scheduler&) = delete;
  17:src/../h/../h/scheduler.hpp ****     void operator=(Scheduler const&) = delete;
  18:src/../h/../h/scheduler.hpp **** 
  19:src/../h/../h/scheduler.hpp ****     TCB* get();
  20:src/../h/../h/scheduler.hpp **** 
  21:src/../h/../h/scheduler.hpp ****     void put(TCB* tcb);
  22:src/../h/../h/scheduler.hpp **** 
  23:src/../h/../h/scheduler.hpp **** //    static void printScheduler();
  24:src/../h/../h/scheduler.hpp **** 
  25:src/../h/../h/scheduler.hpp **** private:
  26:src/../h/../h/scheduler.hpp **** 
  27:src/../h/../h/scheduler.hpp ****     Scheduler(){
  28:src/../h/../h/scheduler.hpp ****         head = nullptr;
 339              		.loc 5 28 9 is_stmt 1
 340              		.loc 5 28 14 is_stmt 0
 341 01b4 97070000 		la	a5,_ZN9Scheduler4headE
 341      83B70700 
 342 01bc 23B00700 		sd	zero,0(a5)
  29:src/../h/../h/scheduler.hpp ****         tail = nullptr;
 343              		.loc 5 29 9 is_stmt 1
 344              		.loc 5 29 14 is_stmt 0
 345 01c0 97070000 		la	a5,_ZN9Scheduler4tailE
 345      83B70700 
 346 01c8 23B00700 		sd	zero,0(a5)
 347              	.LBE73:
 348              	.LBE72:
  12:src/../h/../h/scheduler.hpp ****         return instance;
 349              		.loc 5 12 26
 350 01cc 93071000 		li	a5,1
 351 01d0 17070000 		sb	a5,_ZGVZN9Scheduler11getInstanceEvE8instance,a4
 351      2300F700 
 352 01d8 6FF05FFA 		j	.L17
 353              	.LVL27:
 354              	.L15:
 355              	.LBE74:
 356              	.LBE75:
  18:src/semaphore.cpp ****     return 0;
 357              		.loc 1 18 5 is_stmt 1
 358              	.LBB76:
 359              	.LBB77:
  32:src/../h/semaphore.hpp ****     int get_val()const{ return val; }
 360              		.loc 2 32 33
  32:src/../h/semaphore.hpp ****     int get_val()const{ return val; }
 361              		.loc 2 32 43 is_stmt 0
 362 01dc 93071000 		li	a5,1
 363 01e0 2302F900 		sb	a5,4(s2)
 364              	.LVL28:
 365              	.LBE77:
 366              	.LBE76:
  19:src/semaphore.cpp **** }
 367              		.loc 1 19 5 is_stmt 1
  20:src/semaphore.cpp **** 
 368              		.loc 1 20 1 is_stmt 0
 369 01e4 13050000 		li	a0,0
 370 01e8 83308101 		ld	ra,24(sp)
 371              		.cfi_restore 1
GAS LISTING /tmp/ccU3X7KV.s 			page 12


 372 01ec 03340101 		ld	s0,16(sp)
 373              		.cfi_restore 8
 374              		.cfi_def_cfa 2, 32
 375 01f0 83348100 		ld	s1,8(sp)
 376              		.cfi_restore 9
 377              	.LVL29:
 378 01f4 03390100 		ld	s2,0(sp)
 379              		.cfi_restore 18
 380              	.LVL30:
 381 01f8 13010102 		addi	sp,sp,32
 382              		.cfi_def_cfa_offset 0
 383 01fc 67800000 		jr	ra
 384              		.cfi_endproc
 385              	.LFE52:
 387              		.align	2
 388              		.globl	_ZN11MySemaphore14put_in_blockedEP3TCB
 390              	_ZN11MySemaphore14put_in_blockedEP3TCB:
 391              	.LFB59:
  52:src/semaphore.cpp **** 
  53:src/semaphore.cpp **** void MySemaphore::put_in_blocked(TCB *tcb) {
 392              		.loc 1 53 44 is_stmt 1
 393              		.cfi_startproc
 394              	.LVL31:
 395 0200 130101FF 		addi	sp,sp,-16
 396              		.cfi_def_cfa_offset 16
 397 0204 23348100 		sd	s0,8(sp)
 398              		.cfi_offset 8, -8
 399 0208 13040101 		addi	s0,sp,16
 400              		.cfi_def_cfa 8, 0
  54:src/semaphore.cpp ****     if(!head)head = tcb;
 401              		.loc 1 54 5
 402              		.loc 1 54 9 is_stmt 0
 403 020c 83378500 		ld	a5,8(a0)
 404              		.loc 1 54 5
 405 0210 638E0700 		beqz	a5,.L23
  55:src/semaphore.cpp ****     else tail->set_next_blocked(tcb);
 406              		.loc 1 55 10 is_stmt 1
 407 0214 83370501 		ld	a5,16(a0)
 408              	.LVL32:
 409              	.LBB78:
 410              	.LBB79:
  47:src/../h/TCB.hpp **** 
 411              		.loc 4 47 45
  47:src/../h/TCB.hpp **** 
 412              		.loc 4 47 58 is_stmt 0
 413 0218 23B0B704 		sd	a1,64(a5)
 414              	.LVL33:
 415              	.L21:
 416              	.LBE79:
 417              	.LBE78:
  56:src/semaphore.cpp ****     tail = tcb;
 418              		.loc 1 56 5 is_stmt 1
 419              		.loc 1 56 10 is_stmt 0
 420 021c 2338B500 		sd	a1,16(a0)
  57:src/semaphore.cpp **** }
 421              		.loc 1 57 1
 422 0220 03348100 		ld	s0,8(sp)
GAS LISTING /tmp/ccU3X7KV.s 			page 13


 423              		.cfi_remember_state
 424              		.cfi_restore 8
 425              		.cfi_def_cfa 2, 16
 426 0224 13010101 		addi	sp,sp,16
 427              		.cfi_def_cfa_offset 0
 428 0228 67800000 		jr	ra
 429              	.L23:
 430              		.cfi_restore_state
  54:src/semaphore.cpp ****     else tail->set_next_blocked(tcb);
 431              		.loc 1 54 14 is_stmt 1 discriminator 1
  54:src/semaphore.cpp ****     else tail->set_next_blocked(tcb);
 432              		.loc 1 54 19 is_stmt 0 discriminator 1
 433 022c 2334B500 		sd	a1,8(a0)
 434 0230 6FF0DFFE 		j	.L21
 435              		.cfi_endproc
 436              	.LFE59:
 438              		.align	2
 439              		.globl	_ZN11MySemaphore5blockEv
 441              	_ZN11MySemaphore5blockEv:
 442              	.LFB60:
  58:src/semaphore.cpp **** 
  59:src/semaphore.cpp **** void MySemaphore::block() {
 443              		.loc 1 59 27 is_stmt 1
 444              		.cfi_startproc
 445              	.LVL34:
 446 0234 130101FF 		addi	sp,sp,-16
 447              		.cfi_def_cfa_offset 16
 448 0238 23341100 		sd	ra,8(sp)
 449 023c 23308100 		sd	s0,0(sp)
 450              		.cfi_offset 1, -8
 451              		.cfi_offset 8, -16
 452 0240 13040101 		addi	s0,sp,16
 453              		.cfi_def_cfa 8, 0
  60:src/semaphore.cpp ****     TCB* old = TCB::running;
 454              		.loc 1 60 5
 455              	.LVL35:
  61:src/semaphore.cpp ****     put_in_blocked(old);
 456              		.loc 1 61 5
 457              		.loc 1 61 19 is_stmt 0
 458 0244 97070000 		la	a5,_ZN3TCB7runningE
 458      83B70700 
 459 024c 83B50700 		ld	a1,0(a5)
 460 0250 97000000 		call	_ZN11MySemaphore14put_in_blockedEP3TCB
 460      E7800000 
 461              	.LVL36:
  62:src/semaphore.cpp ****     TCB::yield();
 462              		.loc 1 62 5 is_stmt 1
 463              		.loc 1 62 15 is_stmt 0
 464 0258 97000000 		call	_ZN3TCB5yieldEv@plt
 464      E7800000 
 465              	.LVL37:
  63:src/semaphore.cpp **** }
 466              		.loc 1 63 1
 467 0260 83308100 		ld	ra,8(sp)
 468              		.cfi_restore 1
 469 0264 03340100 		ld	s0,0(sp)
 470              		.cfi_restore 8
GAS LISTING /tmp/ccU3X7KV.s 			page 14


 471              		.cfi_def_cfa 2, 16
 472 0268 13010101 		addi	sp,sp,16
 473              		.cfi_def_cfa_offset 0
 474 026c 67800000 		jr	ra
 475              		.cfi_endproc
 476              	.LFE60:
 478              		.align	2
 479              		.globl	_ZN11MySemaphore8sem_waitEPS_
 481              	_ZN11MySemaphore8sem_waitEPS_:
 482              	.LFB53:
  22:src/semaphore.cpp ****     id->set_val(id->get_val() - 1);
 483              		.loc 1 22 44 is_stmt 1
 484              		.cfi_startproc
 485              	.LVL38:
 486 0270 130101FE 		addi	sp,sp,-32
 487              		.cfi_def_cfa_offset 32
 488 0274 233C1100 		sd	ra,24(sp)
 489 0278 23388100 		sd	s0,16(sp)
 490 027c 23349100 		sd	s1,8(sp)
 491              		.cfi_offset 1, -8
 492              		.cfi_offset 8, -16
 493              		.cfi_offset 9, -24
 494 0280 13040102 		addi	s0,sp,32
 495              		.cfi_def_cfa 8, 0
 496 0284 93040500 		mv	s1,a0
  23:src/semaphore.cpp ****     if( id->get_val() < 0)id->block();
 497              		.loc 1 23 5
 498              	.LVL39:
 499              	.LBB80:
 500              	.LBB81:
  33:src/../h/semaphore.hpp ****     void set_val(int v){ val = v; }
 501              		.loc 2 33 25
  33:src/../h/semaphore.hpp ****     void set_val(int v){ val = v; }
 502              		.loc 2 33 32 is_stmt 0
 503 0288 83270500 		lw	a5,0(a0)
 504              	.LVL40:
 505              	.LBE81:
 506              	.LBE80:
  23:src/semaphore.cpp ****     if( id->get_val() < 0)id->block();
 507              		.loc 1 23 16
 508 028c 9B87F7FF 		addiw	a5,a5,-1
 509              	.LVL41:
 510              	.LBB82:
 511              	.LBB83:
  34:src/../h/semaphore.hpp **** 
 512              		.loc 2 34 26 is_stmt 1
  34:src/../h/semaphore.hpp **** 
 513              		.loc 2 34 30 is_stmt 0
 514 0290 2320F500 		sw	a5,0(a0)
 515              	.LVL42:
 516              	.LBE83:
 517              	.LBE82:
  24:src/semaphore.cpp ****     if(!id->get_indicator())return 0;
 518              		.loc 1 24 5 is_stmt 1
  33:src/../h/semaphore.hpp ****     void set_val(int v){ val = v; }
 519              		.loc 2 33 25
  24:src/semaphore.cpp ****     if(!id->get_indicator())return 0;
GAS LISTING /tmp/ccU3X7KV.s 			page 15


 520              		.loc 1 24 5 is_stmt 0
 521 0294 13970702 		slli	a4,a5,32
 522 0298 63420702 		bltz	a4,.L31
 523              	.LVL43:
 524              	.L27:
  25:src/semaphore.cpp ****     else return -1;
 525              		.loc 1 25 5 is_stmt 1
 526              	.LBB84:
 527              	.LBB85:
  31:src/../h/semaphore.hpp ****     void set_indicator(bool v){ indicator = v; }
 528              		.loc 2 31 32
  31:src/../h/semaphore.hpp ****     void set_indicator(bool v){ indicator = v; }
 529              		.loc 2 31 39 is_stmt 0
 530 029c 83C74400 		lbu	a5,4(s1)
 531              	.LVL44:
 532              	.LBE85:
 533              	.LBE84:
  25:src/semaphore.cpp ****     else return -1;
 534              		.loc 1 25 5
 535 02a0 63940702 		bnez	a5,.L29
  25:src/semaphore.cpp ****     else return -1;
 536              		.loc 1 25 36
 537 02a4 13050000 		li	a0,0
 538              	.L28:
  27:src/semaphore.cpp **** 
 539              		.loc 1 27 1
 540 02a8 83308101 		ld	ra,24(sp)
 541              		.cfi_remember_state
 542              		.cfi_restore 1
 543 02ac 03340101 		ld	s0,16(sp)
 544              		.cfi_restore 8
 545              		.cfi_def_cfa 2, 32
 546 02b0 83348100 		ld	s1,8(sp)
 547              		.cfi_restore 9
 548              	.LVL45:
 549 02b4 13010102 		addi	sp,sp,32
 550              		.cfi_def_cfa_offset 0
 551 02b8 67800000 		jr	ra
 552              	.LVL46:
 553              	.L31:
 554              		.cfi_restore_state
  24:src/semaphore.cpp ****     if(!id->get_indicator())return 0;
 555              		.loc 1 24 27 is_stmt 1 discriminator 1
  24:src/semaphore.cpp ****     if(!id->get_indicator())return 0;
 556              		.loc 1 24 36 is_stmt 0 discriminator 1
 557 02bc 97000000 		call	_ZN11MySemaphore5blockEv
 557      E7800000 
 558              	.LVL47:
 559 02c4 6FF09FFD 		j	.L27
 560              	.L29:
  26:src/semaphore.cpp **** }
 561              		.loc 1 26 18
 562 02c8 1305F0FF 		li	a0,-1
 563 02cc 6FF0DFFD 		j	.L28
 564              		.cfi_endproc
 565              	.LFE53:
 567              		.align	2
GAS LISTING /tmp/ccU3X7KV.s 			page 16


 568              		.globl	_ZN11MySemaphore7unblockEv
 570              	_ZN11MySemaphore7unblockEv:
 571              	.LFB61:
  64:src/semaphore.cpp **** 
  65:src/semaphore.cpp **** void MySemaphore::unblock() {
 572              		.loc 1 65 29 is_stmt 1
 573              		.cfi_startproc
 574              	.LVL48:
 575 02d0 130101FF 		addi	sp,sp,-16
 576              		.cfi_def_cfa_offset 16
 577 02d4 23341100 		sd	ra,8(sp)
 578 02d8 23308100 		sd	s0,0(sp)
 579              		.cfi_offset 1, -8
 580              		.cfi_offset 8, -16
 581 02dc 13040101 		addi	s0,sp,16
 582              		.cfi_def_cfa 8, 0
  66:src/semaphore.cpp ****     TCB* tmp = get_from_blocked();
 583              		.loc 1 66 5
 584              		.loc 1 66 32 is_stmt 0
 585 02e0 97000000 		call	_ZN11MySemaphore16get_from_blockedEv
 585      E7800000 
 586              	.LVL49:
  67:src/semaphore.cpp ****     if(tmp)Scheduler::getInstance().put(tmp);
 587              		.loc 1 67 5 is_stmt 1
 588 02e8 63040504 		beqz	a0,.L32
 589 02ec 93050500 		mv	a1,a0
 590              		.loc 1 67 12
 591              	.LBB86:
 592              	.LBB87:
  12:src/../h/../h/scheduler.hpp ****         return instance;
 593              		.loc 5 12 9
  12:src/../h/../h/scheduler.hpp ****         return instance;
 594              		.loc 5 12 26 is_stmt 0
 595 02f0 97070000 		lbu	a5,_ZGVZN9Scheduler11getInstanceEvE8instance
 595      83C70700 
 596 02f8 63940702 		bnez	a5,.L34
 597              	.LVL50:
 598              	.LBB88:
 599              	.LBB89:
  28:src/../h/../h/scheduler.hpp ****         tail = nullptr;
 600              		.loc 5 28 9 is_stmt 1
  28:src/../h/../h/scheduler.hpp ****         tail = nullptr;
 601              		.loc 5 28 14 is_stmt 0
 602 02fc 97070000 		la	a5,_ZN9Scheduler4headE
 602      83B70700 
 603 0304 23B00700 		sd	zero,0(a5)
 604              		.loc 5 29 9 is_stmt 1
 605              		.loc 5 29 14 is_stmt 0
 606 0308 97070000 		la	a5,_ZN9Scheduler4tailE
 606      83B70700 
 607 0310 23B00700 		sd	zero,0(a5)
 608              	.LBE89:
 609              	.LBE88:
  12:src/../h/../h/scheduler.hpp ****         return instance;
 610              		.loc 5 12 26
 611 0314 93071000 		li	a5,1
 612 0318 17070000 		sb	a5,_ZGVZN9Scheduler11getInstanceEvE8instance,a4
GAS LISTING /tmp/ccU3X7KV.s 			page 17


 612      2300F700 
 613              	.LVL51:
 614              	.L34:
  13:src/../h/../h/scheduler.hpp ****     }
 615              		.loc 5 13 9 is_stmt 1
 616              	.LBE87:
 617              	.LBE86:
 618              		.loc 1 67 40 is_stmt 0
 619 0320 17050000 		lla	a0,_ZZN9Scheduler11getInstanceEvE8instance
 619      13050500 
 620              	.LVL52:
 621 0328 97000000 		call	_ZN9Scheduler3putEP3TCB@plt
 621      E7800000 
 622              	.LVL53:
 623              	.L32:
  68:src/semaphore.cpp **** }
 624              		.loc 1 68 1
 625 0330 83308100 		ld	ra,8(sp)
 626              		.cfi_restore 1
 627 0334 03340100 		ld	s0,0(sp)
 628              		.cfi_restore 8
 629              		.cfi_def_cfa 2, 16
 630 0338 13010101 		addi	sp,sp,16
 631              		.cfi_def_cfa_offset 0
 632 033c 67800000 		jr	ra
 633              		.cfi_endproc
 634              	.LFE61:
 636              		.align	2
 637              		.globl	_ZN11MySemaphore10sem_signalEPS_
 639              	_ZN11MySemaphore10sem_signalEPS_:
 640              	.LFB54:
  29:src/semaphore.cpp ****     id->set_val(id->get_val() + 1);
 641              		.loc 1 29 46 is_stmt 1
 642              		.cfi_startproc
 643              	.LVL54:
 644 0340 130101FE 		addi	sp,sp,-32
 645              		.cfi_def_cfa_offset 32
 646 0344 233C1100 		sd	ra,24(sp)
 647 0348 23388100 		sd	s0,16(sp)
 648 034c 23349100 		sd	s1,8(sp)
 649              		.cfi_offset 1, -8
 650              		.cfi_offset 8, -16
 651              		.cfi_offset 9, -24
 652 0350 13040102 		addi	s0,sp,32
 653              		.cfi_def_cfa 8, 0
 654 0354 93040500 		mv	s1,a0
  30:src/semaphore.cpp ****     if( id->get_val() <= 0)id->unblock();
 655              		.loc 1 30 5
 656              	.LVL55:
 657              	.LBB90:
 658              	.LBB91:
  33:src/../h/semaphore.hpp ****     void set_val(int v){ val = v; }
 659              		.loc 2 33 25
  33:src/../h/semaphore.hpp ****     void set_val(int v){ val = v; }
 660              		.loc 2 33 32 is_stmt 0
 661 0358 83270500 		lw	a5,0(a0)
 662              	.LVL56:
GAS LISTING /tmp/ccU3X7KV.s 			page 18


 663              	.LBE91:
 664              	.LBE90:
  30:src/semaphore.cpp ****     if( id->get_val() <= 0)id->unblock();
 665              		.loc 1 30 16
 666 035c 9B871700 		addiw	a5,a5,1
 667 0360 1B870700 		sext.w	a4,a5
 668              	.LVL57:
 669              	.LBB92:
 670              	.LBB93:
  34:src/../h/semaphore.hpp **** 
 671              		.loc 2 34 26 is_stmt 1
  34:src/../h/semaphore.hpp **** 
 672              		.loc 2 34 30 is_stmt 0
 673 0364 2320F500 		sw	a5,0(a0)
 674              	.LVL58:
 675              	.LBE93:
 676              	.LBE92:
  31:src/semaphore.cpp ****     if(!id->get_indicator())return 0;
 677              		.loc 1 31 5 is_stmt 1
  33:src/../h/semaphore.hpp ****     void set_val(int v){ val = v; }
 678              		.loc 2 33 25
  31:src/semaphore.cpp ****     if(!id->get_indicator())return 0;
 679              		.loc 1 31 5 is_stmt 0
 680 0368 6352E002 		blez	a4,.L41
 681              	.LVL59:
 682              	.L37:
  32:src/semaphore.cpp ****     else return -1;
 683              		.loc 1 32 5 is_stmt 1
 684              	.LBB94:
 685              	.LBB95:
  31:src/../h/semaphore.hpp ****     void set_indicator(bool v){ indicator = v; }
 686              		.loc 2 31 32
  31:src/../h/semaphore.hpp ****     void set_indicator(bool v){ indicator = v; }
 687              		.loc 2 31 39 is_stmt 0
 688 036c 83C74400 		lbu	a5,4(s1)
 689              	.LVL60:
 690              	.LBE95:
 691              	.LBE94:
  32:src/semaphore.cpp ****     else return -1;
 692              		.loc 1 32 5
 693 0370 63940702 		bnez	a5,.L39
  32:src/semaphore.cpp ****     else return -1;
 694              		.loc 1 32 36
 695 0374 13050000 		li	a0,0
 696              	.L38:
  34:src/semaphore.cpp **** 
 697              		.loc 1 34 1
 698 0378 83308101 		ld	ra,24(sp)
 699              		.cfi_remember_state
 700              		.cfi_restore 1
 701 037c 03340101 		ld	s0,16(sp)
 702              		.cfi_restore 8
 703              		.cfi_def_cfa 2, 32
 704 0380 83348100 		ld	s1,8(sp)
 705              		.cfi_restore 9
 706              	.LVL61:
 707 0384 13010102 		addi	sp,sp,32
GAS LISTING /tmp/ccU3X7KV.s 			page 19


 708              		.cfi_def_cfa_offset 0
 709 0388 67800000 		jr	ra
 710              	.LVL62:
 711              	.L41:
 712              		.cfi_restore_state
  31:src/semaphore.cpp ****     if(!id->get_indicator())return 0;
 713              		.loc 1 31 28 is_stmt 1 discriminator 1
  31:src/semaphore.cpp ****     if(!id->get_indicator())return 0;
 714              		.loc 1 31 39 is_stmt 0 discriminator 1
 715 038c 97000000 		call	_ZN11MySemaphore7unblockEv
 715      E7800000 
 716              	.LVL63:
 717 0394 6FF09FFD 		j	.L37
 718              	.L39:
  33:src/semaphore.cpp **** }
 719              		.loc 1 33 18
 720 0398 1305F0FF 		li	a0,-1
 721 039c 6FF0DFFD 		j	.L38
 722              		.cfi_endproc
 723              	.LFE54:
 725              		.weak	_ZGVZN9Scheduler11getInstanceEvE8instance
 726              		.section	.bss._ZGVZN9Scheduler11getInstanceEvE8instance,"awG",@nobits,_ZGVZN9Scheduler11getInstanc
 727              		.align	3
 730              	_ZGVZN9Scheduler11getInstanceEvE8instance:
 731 0000 00000000 		.zero	8
 731      00000000 
 732              		.weak	_ZZN9Scheduler11getInstanceEvE8instance
 733              		.section	.bss._ZZN9Scheduler11getInstanceEvE8instance,"awG",@nobits,_ZZN9Scheduler11getInstanceEvE
 734              		.align	3
 737              	_ZZN9Scheduler11getInstanceEvE8instance:
 738 0000 00       		.zero	1
 739              		.weak	_ZGVZN15MemoryAllocator11getInstanceEvE8instance
 740              		.section	.bss._ZGVZN15MemoryAllocator11getInstanceEvE8instance,"awG",@nobits,_ZGVZN15MemoryAllocat
 741              		.align	3
 744              	_ZGVZN15MemoryAllocator11getInstanceEvE8instance:
 745 0000 00000000 		.zero	8
 745      00000000 
 746              		.weak	_ZZN15MemoryAllocator11getInstanceEvE8instance
 747              		.section	.bss._ZZN15MemoryAllocator11getInstanceEvE8instance,"awG",@nobits,_ZZN15MemoryAllocator11
 748              		.align	3
 751              	_ZZN15MemoryAllocator11getInstanceEvE8instance:
 752 0000 00000000 		.zero	24
 752      00000000 
 752      00000000 
 752      00000000 
 752      00000000 
 753              		.text
 754              	.Letext0:
 755              		.file 6 "src/../h/../lib/hw.h"
GAS LISTING /tmp/ccU3X7KV.s 			page 20


DEFINED SYMBOLS
                            *ABS*:0000000000000000 semaphore.cpp
     /tmp/ccU3X7KV.s:9      .text:0000000000000000 _ZN11MySemaphoreC2Em
     /tmp/ccU3X7KV.s:13     .text:0000000000000000 .L0 
     /tmp/ccU3X7KV.s:15     .text:0000000000000000 .L0 
     /tmp/ccU3X7KV.s:16     .text:0000000000000004 .L0 
     /tmp/ccU3X7KV.s:18     .text:0000000000000008 .L0 
     /tmp/ccU3X7KV.s:20     .text:000000000000000c .L0 
     /tmp/ccU3X7KV.s:23     .text:000000000000000c .L0 
     /tmp/ccU3X7KV.s:24     .text:000000000000000c .L0 
     /tmp/ccU3X7KV.s:26     .text:0000000000000010 .L0 
     /tmp/ccU3X7KV.s:27     .text:0000000000000010 .L0 
     /tmp/ccU3X7KV.s:29     .text:0000000000000014 .L0 
     /tmp/ccU3X7KV.s:31     .text:0000000000000018 .L0 
     /tmp/ccU3X7KV.s:32     .text:0000000000000018 .L0 
     /tmp/ccU3X7KV.s:35     .text:000000000000001c .L0 
     /tmp/ccU3X7KV.s:36     .text:0000000000000020 .L0 
     /tmp/ccU3X7KV.s:37     .text:0000000000000020 .L0 
     /tmp/ccU3X7KV.s:39     .text:0000000000000024 .L0 
     /tmp/ccU3X7KV.s:41     .text:0000000000000028 .L0 
     /tmp/ccU3X7KV.s:9      .text:0000000000000000 _ZN11MySemaphoreC1Em
     /tmp/ccU3X7KV.s:49     .text:0000000000000028 _ZN11MySemaphore8sem_openEPPS_m
     /tmp/ccU3X7KV.s:52     .text:0000000000000028 .L0 
     /tmp/ccU3X7KV.s:54     .text:0000000000000028 .L0 
     /tmp/ccU3X7KV.s:55     .text:000000000000002c .L0 
     /tmp/ccU3X7KV.s:61     .text:0000000000000040 .L0 
     /tmp/ccU3X7KV.s:62     .text:0000000000000040 .L0 
     /tmp/ccU3X7KV.s:63     .text:0000000000000040 .L0 
     /tmp/ccU3X7KV.s:64     .text:0000000000000040 .L0 
     /tmp/ccU3X7KV.s:65     .text:0000000000000040 .L0 
     /tmp/ccU3X7KV.s:67     .text:0000000000000044 .L0 
     /tmp/ccU3X7KV.s:75     .text:000000000000004c .L0 
     /tmp/ccU3X7KV.s:76     .text:000000000000004c .L0 
     /tmp/ccU3X7KV.s:80     .text:000000000000004c .L0 
     /tmp/ccU3X7KV.s:81     .text:000000000000004c .L0 
     /tmp/ccU3X7KV.s:744    .bss._ZGVZN15MemoryAllocator11getInstanceEvE8instance:0000000000000000 _ZGVZN15MemoryAllocator11getInstanceEvE8instance
     /tmp/ccU3X7KV.s:82     .text:000000000000004c .L0 
     /tmp/ccU3X7KV.s:88     .text:0000000000000058 .L0 
     /tmp/ccU3X7KV.s:89     .text:0000000000000058 .L0 
     /tmp/ccU3X7KV.s:751    .bss._ZZN15MemoryAllocator11getInstanceEvE8instance:0000000000000000 _ZZN15MemoryAllocator11getInstanceEvE8instance
     /tmp/ccU3X7KV.s:100    .text:0000000000000070 .L0 
     /tmp/ccU3X7KV.s:104    .text:000000000000007c .L0 
     /tmp/ccU3X7KV.s:106    .text:0000000000000080 .L0 
     /tmp/ccU3X7KV.s:107    .text:0000000000000080 .L0 
     /tmp/ccU3X7KV.s:109    .text:0000000000000088 .L0 
     /tmp/ccU3X7KV.s:110    .text:0000000000000088 .L0 
     /tmp/ccU3X7KV.s:112    .text:000000000000008c .L0 
     /tmp/ccU3X7KV.s:113    .text:000000000000008c .L0 
     /tmp/ccU3X7KV.s:115    .text:0000000000000090 .L0 
     /tmp/ccU3X7KV.s:118    .text:0000000000000094 .L0 
     /tmp/ccU3X7KV.s:120    .text:0000000000000098 .L0 
     /tmp/ccU3X7KV.s:123    .text:000000000000009c .L0 
     /tmp/ccU3X7KV.s:127    .text:00000000000000a0 .L0 
     /tmp/ccU3X7KV.s:136    .text:00000000000000a0 .L0 
     /tmp/ccU3X7KV.s:139    .text:00000000000000a8 .L0 
     /tmp/ccU3X7KV.s:140    .text:00000000000000a8 .L0 
     /tmp/ccU3X7KV.s:146    .text:00000000000000c4 .L0 
GAS LISTING /tmp/ccU3X7KV.s 			page 21


     /tmp/ccU3X7KV.s:148    .text:00000000000000c8 .L0 
     /tmp/ccU3X7KV.s:150    .text:00000000000000cc .L0 
     /tmp/ccU3X7KV.s:152    .text:00000000000000d0 .L0 
     /tmp/ccU3X7KV.s:154    .text:00000000000000d4 .L0 
     /tmp/ccU3X7KV.s:155    .text:00000000000000d4 .L0 
     /tmp/ccU3X7KV.s:157    .text:00000000000000d8 .L0 
     /tmp/ccU3X7KV.s:159    .text:00000000000000dc .L0 
     /tmp/ccU3X7KV.s:160    .text:00000000000000dc .L0 
     /tmp/ccU3X7KV.s:162    .text:00000000000000e0 .L0 
     /tmp/ccU3X7KV.s:165    .text:00000000000000e4 .L0 
     /tmp/ccU3X7KV.s:166    .text:00000000000000e4 .L0 
     /tmp/ccU3X7KV.s:168    .text:00000000000000e8 .L0 
     /tmp/ccU3X7KV.s:173    .text:00000000000000f4 .L0 
     /tmp/ccU3X7KV.s:175    .text:00000000000000f8 .L0 
     /tmp/ccU3X7KV.s:177    .text:0000000000000100 .L0 
     /tmp/ccU3X7KV.s:178    .text:0000000000000100 .L0 
     /tmp/ccU3X7KV.s:180    .text:0000000000000104 .L0 
     /tmp/ccU3X7KV.s:181    .text:0000000000000104 .L0 
     /tmp/ccU3X7KV.s:183    .text:0000000000000108 .L0 
     /tmp/ccU3X7KV.s:184    .text:0000000000000108 .L0 
     /tmp/ccU3X7KV.s:191    .text:000000000000010c .L0 
     /tmp/ccU3X7KV.s:198    .text:000000000000011c .L0 
     /tmp/ccU3X7KV.s:204    .text:000000000000011c _ZN11MySemaphore16get_from_blockedEv
     /tmp/ccU3X7KV.s:207    .text:000000000000011c .L0 
     /tmp/ccU3X7KV.s:209    .text:000000000000011c .L0 
     /tmp/ccU3X7KV.s:210    .text:0000000000000120 .L0 
     /tmp/ccU3X7KV.s:212    .text:0000000000000124 .L0 
     /tmp/ccU3X7KV.s:214    .text:0000000000000128 .L0 
     /tmp/ccU3X7KV.s:218    .text:000000000000012c .L0 
     /tmp/ccU3X7KV.s:219    .text:000000000000012c .L0 
     /tmp/ccU3X7KV.s:222    .text:0000000000000130 .L0 
     /tmp/ccU3X7KV.s:226    .text:0000000000000134 .L0 
     /tmp/ccU3X7KV.s:230    .text:0000000000000134 .L0 
     /tmp/ccU3X7KV.s:231    .text:0000000000000134 .L0 
     /tmp/ccU3X7KV.s:232    .text:0000000000000134 .L0 
     /tmp/ccU3X7KV.s:237    .text:0000000000000138 .L0 
     /tmp/ccU3X7KV.s:239    .text:000000000000013c .L0 
     /tmp/ccU3X7KV.s:245    .text:0000000000000140 .L0 
     /tmp/ccU3X7KV.s:246    .text:0000000000000140 .L0 
     /tmp/ccU3X7KV.s:247    .text:0000000000000140 .L0 
     /tmp/ccU3X7KV.s:255    .text:0000000000000144 .L0 
     /tmp/ccU3X7KV.s:256    .text:0000000000000144 .L0 
     /tmp/ccU3X7KV.s:257    .text:0000000000000148 .L0 
     /tmp/ccU3X7KV.s:258    .text:0000000000000148 .L0 
     /tmp/ccU3X7KV.s:259    .text:0000000000000148 .L0 
     /tmp/ccU3X7KV.s:261    .text:000000000000014c .L0 
     /tmp/ccU3X7KV.s:265    .text:0000000000000150 .L0 
     /tmp/ccU3X7KV.s:269    .text:0000000000000150 .L0 
     /tmp/ccU3X7KV.s:270    .text:0000000000000150 .L0 
     /tmp/ccU3X7KV.s:274    .text:0000000000000158 .L0 
     /tmp/ccU3X7KV.s:280    .text:0000000000000158 _ZN11MySemaphore9sem_closeEPS_
     /tmp/ccU3X7KV.s:283    .text:0000000000000158 .L0 
     /tmp/ccU3X7KV.s:285    .text:0000000000000158 .L0 
     /tmp/ccU3X7KV.s:286    .text:000000000000015c .L0 
     /tmp/ccU3X7KV.s:291    .text:000000000000016c .L0 
     /tmp/ccU3X7KV.s:292    .text:000000000000016c .L0 
     /tmp/ccU3X7KV.s:293    .text:000000000000016c .L0 
GAS LISTING /tmp/ccU3X7KV.s 			page 22


     /tmp/ccU3X7KV.s:294    .text:000000000000016c .L0 
     /tmp/ccU3X7KV.s:296    .text:0000000000000170 .L0 
     /tmp/ccU3X7KV.s:299    .text:0000000000000174 .L0 
     /tmp/ccU3X7KV.s:300    .text:0000000000000174 .L0 
     /tmp/ccU3X7KV.s:311    .text:000000000000017c .L0 
     /tmp/ccU3X7KV.s:312    .text:000000000000017c .L0 
     /tmp/ccU3X7KV.s:737    .bss._ZZN9Scheduler11getInstanceEvE8instance:0000000000000000 _ZZN9Scheduler11getInstanceEvE8instance
     /tmp/ccU3X7KV.s:318    .text:0000000000000190 .L0 
     /tmp/ccU3X7KV.s:319    .text:0000000000000190 .L0 
     /tmp/ccU3X7KV.s:321    .text:0000000000000194 .L0 
     /tmp/ccU3X7KV.s:322    .text:0000000000000194 .L0 
     /tmp/ccU3X7KV.s:328    .text:00000000000001a4 .L0 
     /tmp/ccU3X7KV.s:332    .text:00000000000001a8 .L0 
     /tmp/ccU3X7KV.s:333    .text:00000000000001a8 .L0 
     /tmp/ccU3X7KV.s:730    .bss._ZGVZN9Scheduler11getInstanceEvE8instance:0000000000000000 _ZGVZN9Scheduler11getInstanceEvE8instance
     /tmp/ccU3X7KV.s:334    .text:00000000000001a8 .L0 
     /tmp/ccU3X7KV.s:340    .text:00000000000001b4 .L0 
     /tmp/ccU3X7KV.s:341    .text:00000000000001b4 .L0 
     /tmp/ccU3X7KV.s:344    .text:00000000000001c0 .L0 
     /tmp/ccU3X7KV.s:345    .text:00000000000001c0 .L0 
     /tmp/ccU3X7KV.s:350    .text:00000000000001cc .L0 
     /tmp/ccU3X7KV.s:360    .text:00000000000001dc .L0 
     /tmp/ccU3X7KV.s:361    .text:00000000000001dc .L0 
     /tmp/ccU3X7KV.s:362    .text:00000000000001dc .L0 
     /tmp/ccU3X7KV.s:368    .text:00000000000001e4 .L0 
     /tmp/ccU3X7KV.s:369    .text:00000000000001e4 .L0 
     /tmp/ccU3X7KV.s:371    .text:00000000000001ec .L0 
     /tmp/ccU3X7KV.s:373    .text:00000000000001f0 .L0 
     /tmp/ccU3X7KV.s:374    .text:00000000000001f0 .L0 
     /tmp/ccU3X7KV.s:376    .text:00000000000001f4 .L0 
     /tmp/ccU3X7KV.s:379    .text:00000000000001f8 .L0 
     /tmp/ccU3X7KV.s:382    .text:00000000000001fc .L0 
     /tmp/ccU3X7KV.s:384    .text:0000000000000200 .L0 
     /tmp/ccU3X7KV.s:390    .text:0000000000000200 _ZN11MySemaphore14put_in_blockedEP3TCB
     /tmp/ccU3X7KV.s:393    .text:0000000000000200 .L0 
     /tmp/ccU3X7KV.s:395    .text:0000000000000200 .L0 
     /tmp/ccU3X7KV.s:396    .text:0000000000000204 .L0 
     /tmp/ccU3X7KV.s:398    .text:0000000000000208 .L0 
     /tmp/ccU3X7KV.s:400    .text:000000000000020c .L0 
     /tmp/ccU3X7KV.s:402    .text:000000000000020c .L0 
     /tmp/ccU3X7KV.s:403    .text:000000000000020c .L0 
     /tmp/ccU3X7KV.s:405    .text:0000000000000210 .L0 
     /tmp/ccU3X7KV.s:407    .text:0000000000000214 .L0 
     /tmp/ccU3X7KV.s:412    .text:0000000000000218 .L0 
     /tmp/ccU3X7KV.s:413    .text:0000000000000218 .L0 
     /tmp/ccU3X7KV.s:419    .text:000000000000021c .L0 
     /tmp/ccU3X7KV.s:420    .text:000000000000021c .L0 
     /tmp/ccU3X7KV.s:422    .text:0000000000000220 .L0 
     /tmp/ccU3X7KV.s:423    .text:0000000000000224 .L0 
     /tmp/ccU3X7KV.s:424    .text:0000000000000224 .L0 
     /tmp/ccU3X7KV.s:425    .text:0000000000000224 .L0 
     /tmp/ccU3X7KV.s:427    .text:0000000000000228 .L0 
     /tmp/ccU3X7KV.s:430    .text:000000000000022c .L0 
     /tmp/ccU3X7KV.s:432    .text:000000000000022c .L0 
     /tmp/ccU3X7KV.s:433    .text:000000000000022c .L0 
     /tmp/ccU3X7KV.s:435    .text:0000000000000234 .L0 
     /tmp/ccU3X7KV.s:441    .text:0000000000000234 _ZN11MySemaphore5blockEv
GAS LISTING /tmp/ccU3X7KV.s 			page 23


     /tmp/ccU3X7KV.s:444    .text:0000000000000234 .L0 
     /tmp/ccU3X7KV.s:446    .text:0000000000000234 .L0 
     /tmp/ccU3X7KV.s:447    .text:0000000000000238 .L0 
     /tmp/ccU3X7KV.s:450    .text:0000000000000240 .L0 
     /tmp/ccU3X7KV.s:451    .text:0000000000000240 .L0 
     /tmp/ccU3X7KV.s:453    .text:0000000000000244 .L0 
     /tmp/ccU3X7KV.s:456    .text:0000000000000244 .L0 
     /tmp/ccU3X7KV.s:457    .text:0000000000000244 .L0 
     /tmp/ccU3X7KV.s:458    .text:0000000000000244 .L0 
     /tmp/ccU3X7KV.s:463    .text:0000000000000258 .L0 
     /tmp/ccU3X7KV.s:464    .text:0000000000000258 .L0 
     /tmp/ccU3X7KV.s:467    .text:0000000000000260 .L0 
     /tmp/ccU3X7KV.s:468    .text:0000000000000264 .L0 
     /tmp/ccU3X7KV.s:470    .text:0000000000000268 .L0 
     /tmp/ccU3X7KV.s:471    .text:0000000000000268 .L0 
     /tmp/ccU3X7KV.s:473    .text:000000000000026c .L0 
     /tmp/ccU3X7KV.s:475    .text:0000000000000270 .L0 
     /tmp/ccU3X7KV.s:481    .text:0000000000000270 _ZN11MySemaphore8sem_waitEPS_
     /tmp/ccU3X7KV.s:484    .text:0000000000000270 .L0 
     /tmp/ccU3X7KV.s:486    .text:0000000000000270 .L0 
     /tmp/ccU3X7KV.s:487    .text:0000000000000274 .L0 
     /tmp/ccU3X7KV.s:491    .text:0000000000000280 .L0 
     /tmp/ccU3X7KV.s:492    .text:0000000000000280 .L0 
     /tmp/ccU3X7KV.s:493    .text:0000000000000280 .L0 
     /tmp/ccU3X7KV.s:495    .text:0000000000000284 .L0 
     /tmp/ccU3X7KV.s:501    .text:0000000000000288 .L0 
     /tmp/ccU3X7KV.s:502    .text:0000000000000288 .L0 
     /tmp/ccU3X7KV.s:503    .text:0000000000000288 .L0 
     /tmp/ccU3X7KV.s:508    .text:000000000000028c .L0 
     /tmp/ccU3X7KV.s:513    .text:0000000000000290 .L0 
     /tmp/ccU3X7KV.s:514    .text:0000000000000290 .L0 
     /tmp/ccU3X7KV.s:519    .text:0000000000000294 .L0 
     /tmp/ccU3X7KV.s:520    .text:0000000000000294 .L0 
     /tmp/ccU3X7KV.s:521    .text:0000000000000294 .L0 
     /tmp/ccU3X7KV.s:528    .text:000000000000029c .L0 
     /tmp/ccU3X7KV.s:529    .text:000000000000029c .L0 
     /tmp/ccU3X7KV.s:530    .text:000000000000029c .L0 
     /tmp/ccU3X7KV.s:535    .text:00000000000002a0 .L0 
     /tmp/ccU3X7KV.s:537    .text:00000000000002a4 .L0 
     /tmp/ccU3X7KV.s:540    .text:00000000000002a8 .L0 
     /tmp/ccU3X7KV.s:541    .text:00000000000002ac .L0 
     /tmp/ccU3X7KV.s:542    .text:00000000000002ac .L0 
     /tmp/ccU3X7KV.s:544    .text:00000000000002b0 .L0 
     /tmp/ccU3X7KV.s:545    .text:00000000000002b0 .L0 
     /tmp/ccU3X7KV.s:547    .text:00000000000002b4 .L0 
     /tmp/ccU3X7KV.s:550    .text:00000000000002b8 .L0 
     /tmp/ccU3X7KV.s:554    .text:00000000000002bc .L0 
     /tmp/ccU3X7KV.s:556    .text:00000000000002bc .L0 
     /tmp/ccU3X7KV.s:557    .text:00000000000002bc .L0 
     /tmp/ccU3X7KV.s:562    .text:00000000000002c8 .L0 
     /tmp/ccU3X7KV.s:564    .text:00000000000002d0 .L0 
     /tmp/ccU3X7KV.s:570    .text:00000000000002d0 _ZN11MySemaphore7unblockEv
     /tmp/ccU3X7KV.s:573    .text:00000000000002d0 .L0 
     /tmp/ccU3X7KV.s:575    .text:00000000000002d0 .L0 
     /tmp/ccU3X7KV.s:576    .text:00000000000002d4 .L0 
     /tmp/ccU3X7KV.s:579    .text:00000000000002dc .L0 
     /tmp/ccU3X7KV.s:580    .text:00000000000002dc .L0 
GAS LISTING /tmp/ccU3X7KV.s 			page 24


     /tmp/ccU3X7KV.s:582    .text:00000000000002e0 .L0 
     /tmp/ccU3X7KV.s:584    .text:00000000000002e0 .L0 
     /tmp/ccU3X7KV.s:585    .text:00000000000002e0 .L0 
     /tmp/ccU3X7KV.s:588    .text:00000000000002e8 .L0 
     /tmp/ccU3X7KV.s:593    .text:00000000000002f0 .L0 
     /tmp/ccU3X7KV.s:594    .text:00000000000002f0 .L0 
     /tmp/ccU3X7KV.s:595    .text:00000000000002f0 .L0 
     /tmp/ccU3X7KV.s:601    .text:00000000000002fc .L0 
     /tmp/ccU3X7KV.s:602    .text:00000000000002fc .L0 
     /tmp/ccU3X7KV.s:605    .text:0000000000000308 .L0 
     /tmp/ccU3X7KV.s:606    .text:0000000000000308 .L0 
     /tmp/ccU3X7KV.s:611    .text:0000000000000314 .L0 
     /tmp/ccU3X7KV.s:618    .text:0000000000000320 .L0 
     /tmp/ccU3X7KV.s:619    .text:0000000000000320 .L0 
     /tmp/ccU3X7KV.s:625    .text:0000000000000330 .L0 
     /tmp/ccU3X7KV.s:626    .text:0000000000000334 .L0 
     /tmp/ccU3X7KV.s:628    .text:0000000000000338 .L0 
     /tmp/ccU3X7KV.s:629    .text:0000000000000338 .L0 
     /tmp/ccU3X7KV.s:631    .text:000000000000033c .L0 
     /tmp/ccU3X7KV.s:633    .text:0000000000000340 .L0 
     /tmp/ccU3X7KV.s:639    .text:0000000000000340 _ZN11MySemaphore10sem_signalEPS_
     /tmp/ccU3X7KV.s:642    .text:0000000000000340 .L0 
     /tmp/ccU3X7KV.s:644    .text:0000000000000340 .L0 
     /tmp/ccU3X7KV.s:645    .text:0000000000000344 .L0 
     /tmp/ccU3X7KV.s:649    .text:0000000000000350 .L0 
     /tmp/ccU3X7KV.s:650    .text:0000000000000350 .L0 
     /tmp/ccU3X7KV.s:651    .text:0000000000000350 .L0 
     /tmp/ccU3X7KV.s:653    .text:0000000000000354 .L0 
     /tmp/ccU3X7KV.s:659    .text:0000000000000358 .L0 
     /tmp/ccU3X7KV.s:660    .text:0000000000000358 .L0 
     /tmp/ccU3X7KV.s:661    .text:0000000000000358 .L0 
     /tmp/ccU3X7KV.s:666    .text:000000000000035c .L0 
     /tmp/ccU3X7KV.s:672    .text:0000000000000364 .L0 
     /tmp/ccU3X7KV.s:673    .text:0000000000000364 .L0 
     /tmp/ccU3X7KV.s:678    .text:0000000000000368 .L0 
     /tmp/ccU3X7KV.s:679    .text:0000000000000368 .L0 
     /tmp/ccU3X7KV.s:680    .text:0000000000000368 .L0 
     /tmp/ccU3X7KV.s:686    .text:000000000000036c .L0 
     /tmp/ccU3X7KV.s:687    .text:000000000000036c .L0 
     /tmp/ccU3X7KV.s:688    .text:000000000000036c .L0 
     /tmp/ccU3X7KV.s:693    .text:0000000000000370 .L0 
     /tmp/ccU3X7KV.s:695    .text:0000000000000374 .L0 
     /tmp/ccU3X7KV.s:698    .text:0000000000000378 .L0 
     /tmp/ccU3X7KV.s:699    .text:000000000000037c .L0 
     /tmp/ccU3X7KV.s:700    .text:000000000000037c .L0 
     /tmp/ccU3X7KV.s:702    .text:0000000000000380 .L0 
     /tmp/ccU3X7KV.s:703    .text:0000000000000380 .L0 
     /tmp/ccU3X7KV.s:705    .text:0000000000000384 .L0 
     /tmp/ccU3X7KV.s:708    .text:0000000000000388 .L0 
     /tmp/ccU3X7KV.s:712    .text:000000000000038c .L0 
     /tmp/ccU3X7KV.s:714    .text:000000000000038c .L0 
     /tmp/ccU3X7KV.s:715    .text:000000000000038c .L0 
     /tmp/ccU3X7KV.s:720    .text:0000000000000398 .L0 
     /tmp/ccU3X7KV.s:722    .text:00000000000003a0 .L0 
     /tmp/ccU3X7KV.s:756    .text:00000000000003a0 .L0 
     /tmp/ccU3X7KV.s:82     .text:000000000000004c .L0 
     /tmp/ccU3X7KV.s:91     .text:000000000000005c .L0 
GAS LISTING /tmp/ccU3X7KV.s 			page 25


     /tmp/ccU3X7KV.s:136    .text:00000000000000a0 .L0 
     /tmp/ccU3X7KV.s:140    .text:00000000000000a8 .L0 
     /tmp/ccU3X7KV.s:142    .text:00000000000000b4 .L0 
     /tmp/ccU3X7KV.s:175    .text:00000000000000f8 .L0 
     /tmp/ccU3X7KV.s:192    .text:0000000000000110 .L0 
     /tmp/ccU3X7KV.s:313    .text:0000000000000180 .L0 
     /tmp/ccU3X7KV.s:334    .text:00000000000001a8 .L0 
     /tmp/ccU3X7KV.s:341    .text:00000000000001b4 .L0 
     /tmp/ccU3X7KV.s:345    .text:00000000000001c0 .L0 
     /tmp/ccU3X7KV.s:351    .text:00000000000001d0 .L0 
     /tmp/ccU3X7KV.s:458    .text:0000000000000244 .L0 
     /tmp/ccU3X7KV.s:595    .text:00000000000002f0 .L0 
     /tmp/ccU3X7KV.s:602    .text:00000000000002fc .L0 
     /tmp/ccU3X7KV.s:606    .text:0000000000000308 .L0 
     /tmp/ccU3X7KV.s:612    .text:0000000000000318 .L0 
     /tmp/ccU3X7KV.s:619    .text:0000000000000320 .L0 
     /tmp/ccU3X7KV.s:126    .text:00000000000000a0 .L7
     /tmp/ccU3X7KV.s:171    .text:00000000000000f4 .L5
     /tmp/ccU3X7KV.s:84     .text:0000000000000058 .L4
     /tmp/ccU3X7KV.s:252    .text:0000000000000144 .L8
     /tmp/ccU3X7KV.s:264    .text:0000000000000150 .L12
     /tmp/ccU3X7KV.s:240    .text:0000000000000140 .L10
     /tmp/ccU3X7KV.s:316    .text:0000000000000190 .L14
     /tmp/ccU3X7KV.s:354    .text:00000000000001dc .L15
     /tmp/ccU3X7KV.s:304    .text:000000000000017c .L17
     /tmp/ccU3X7KV.s:429    .text:000000000000022c .L23
     /tmp/ccU3X7KV.s:415    .text:000000000000021c .L21
     /tmp/ccU3X7KV.s:553    .text:00000000000002bc .L31
     /tmp/ccU3X7KV.s:560    .text:00000000000002c8 .L29
     /tmp/ccU3X7KV.s:524    .text:000000000000029c .L27
     /tmp/ccU3X7KV.s:538    .text:00000000000002a8 .L28
     /tmp/ccU3X7KV.s:623    .text:0000000000000330 .L32
     /tmp/ccU3X7KV.s:614    .text:0000000000000320 .L34
     /tmp/ccU3X7KV.s:711    .text:000000000000038c .L41
     /tmp/ccU3X7KV.s:718    .text:0000000000000398 .L39
     /tmp/ccU3X7KV.s:682    .text:000000000000036c .L37
     /tmp/ccU3X7KV.s:696    .text:0000000000000378 .L38
     /tmp/ccU3X7KV.s:2712   .debug_abbrev:0000000000000000 .Ldebug_abbrev0
     /tmp/ccU3X7KV.s:4550   .debug_str:0000000000000a65 .LASF161
     /tmp/ccU3X7KV.s:4428   .debug_str:00000000000005e0 .LASF162
     /tmp/ccU3X7KV.s:4280   .debug_str:000000000000005b .LASF163
     /tmp/ccU3X7KV.s:5      .text:0000000000000000 .Ltext0
     /tmp/ccU3X7KV.s:754    .text:00000000000003a0 .Letext0
     /tmp/ccU3X7KV.s:4262   .debug_line:0000000000000000 .Ldebug_line0
     /tmp/ccU3X7KV.s:4386   .debug_str:000000000000042d .LASF0
     /tmp/ccU3X7KV.s:4412   .debug_str:0000000000000540 .LASF1
     /tmp/ccU3X7KV.s:4500   .debug_str:0000000000000916 .LASF2
     /tmp/ccU3X7KV.s:4508   .debug_str:0000000000000950 .LASF4
     /tmp/ccU3X7KV.s:4390   .debug_str:0000000000000455 .LASF3
     /tmp/ccU3X7KV.s:4276   .debug_str:0000000000000048 .LASF5
     /tmp/ccU3X7KV.s:4466   .debug_str:00000000000007b3 .LASF6
     /tmp/ccU3X7KV.s:4406   .debug_str:0000000000000500 .LASF7
     /tmp/ccU3X7KV.s:4362   .debug_str:000000000000034b .LASF8
     /tmp/ccU3X7KV.s:4370   .debug_str:00000000000003a3 .LASF9
     /tmp/ccU3X7KV.s:4302   .debug_str:000000000000012e .LASF10
     /tmp/ccU3X7KV.s:4566   .debug_str:0000000000000bbc .LASF11
     /tmp/ccU3X7KV.s:4352   .debug_str:0000000000000301 .LASF12
GAS LISTING /tmp/ccU3X7KV.s 			page 26


     /tmp/ccU3X7KV.s:4314   .debug_str:0000000000000194 .LASF13
     /tmp/ccU3X7KV.s:4300   .debug_str:000000000000011e .LASF14
     /tmp/ccU3X7KV.s:4532   .debug_str:00000000000009f4 .LASF15
     /tmp/ccU3X7KV.s:4334   .debug_str:0000000000000234 .LASF16
     /tmp/ccU3X7KV.s:4524   .debug_str:00000000000009b7 .LASF17
     /tmp/ccU3X7KV.s:4462   .debug_str:0000000000000796 .LASF21
     /tmp/ccU3X7KV.s:4546   .debug_str:0000000000000a55 .LASF75
     /tmp/ccU3X7KV.s:4410   .debug_str:000000000000053b .LASF18
     /tmp/ccU3X7KV.s:4304   .debug_str:000000000000013d .LASF19
     /tmp/ccU3X7KV.s:4286   .debug_str:00000000000000ae .LASF20
     /tmp/ccU3X7KV.s:4584   .debug_str:0000000000000c48 .LASF81
     /tmp/ccU3X7KV.s:4436   .debug_str:0000000000000642 .LASF83
     /tmp/ccU3X7KV.s:4392   .debug_str:0000000000000467 .LASF23
     /tmp/ccU3X7KV.s:4504   .debug_str:0000000000000931 .LASF22
     /tmp/ccU3X7KV.s:4570   .debug_str:0000000000000bd6 .LASF24
     /tmp/ccU3X7KV.s:4316   .debug_str:00000000000001a4 .LASF25
     /tmp/ccU3X7KV.s:4434   .debug_str:000000000000061d .LASF26
     /tmp/ccU3X7KV.s:4278   .debug_str:000000000000004f .LASF27
     /tmp/ccU3X7KV.s:4478   .debug_str:000000000000084c .LASF28
     /tmp/ccU3X7KV.s:4498   .debug_str:00000000000008fd .LASF29
     /tmp/ccU3X7KV.s:4364   .debug_str:000000000000035b .LASF30
     /tmp/ccU3X7KV.s:4324   .debug_str:00000000000001db .LASF31
     /tmp/ccU3X7KV.s:4402   .debug_str:00000000000004b4 .LASF32
     /tmp/ccU3X7KV.s:4520   .debug_str:000000000000099a .LASF33
     /tmp/ccU3X7KV.s:4582   .debug_str:0000000000000c3e .LASF34
     /tmp/ccU3X7KV.s:4600   .debug_str:0000000000000cad .LASF35
     /tmp/ccU3X7KV.s:4282   .debug_str:000000000000008f .LASF128
     /tmp/ccU3X7KV.s:4308   .debug_str:000000000000015f .LASF36
     /tmp/ccU3X7KV.s:4598   .debug_str:0000000000000ca0 .LASF37
     /tmp/ccU3X7KV.s:4382   .debug_str:0000000000000412 .LASF39
     /tmp/ccU3X7KV.s:4490   .debug_str:00000000000008b7 .LASF38
     /tmp/ccU3X7KV.s:4312   .debug_str:0000000000000174 .LASF40
     /tmp/ccU3X7KV.s:4480   .debug_str:0000000000000871 .LASF41
     /tmp/ccU3X7KV.s:4430   .debug_str:00000000000005f2 .LASF42
     /tmp/ccU3X7KV.s:4604   .debug_str:0000000000000cbf .LASF43
     /tmp/ccU3X7KV.s:4356   .debug_str:0000000000000315 .LASF44
     /tmp/ccU3X7KV.s:4374   .debug_str:00000000000003d2 .LASF45
     /tmp/ccU3X7KV.s:4372   .debug_str:00000000000003b1 .LASF46
     /tmp/ccU3X7KV.s:4568   .debug_str:0000000000000bc7 .LASF47
     /tmp/ccU3X7KV.s:4564   .debug_str:0000000000000b95 .LASF48
     /tmp/ccU3X7KV.s:4542   .debug_str:0000000000000a2f .LASF49
     /tmp/ccU3X7KV.s:4446   .debug_str:00000000000006bf .LASF50
     /tmp/ccU3X7KV.s:4384   .debug_str:0000000000000427 .LASF51
     /tmp/ccU3X7KV.s:4292   .debug_str:00000000000000d2 .LASF52
     /tmp/ccU3X7KV.s:4270   .debug_str:000000000000002e .LASF53
     /tmp/ccU3X7KV.s:4328   .debug_str:0000000000000202 .LASF54
     /tmp/ccU3X7KV.s:4294   .debug_str:00000000000000eb .LASF55
     /tmp/ccU3X7KV.s:4470   .debug_str:00000000000007db .LASF56
     /tmp/ccU3X7KV.s:4578   .debug_str:0000000000000c1f .LASF57
     /tmp/ccU3X7KV.s:4440   .debug_str:0000000000000680 .LASF58
     /tmp/ccU3X7KV.s:4528   .debug_str:00000000000009de .LASF59
     /tmp/ccU3X7KV.s:4344   .debug_str:00000000000002ac .LASF60
     /tmp/ccU3X7KV.s:4332   .debug_str:000000000000022c .LASF61
     /tmp/ccU3X7KV.s:4340   .debug_str:0000000000000271 .LASF62
     /tmp/ccU3X7KV.s:4336   .debug_str:000000000000024a .LASF63
     /tmp/ccU3X7KV.s:4468   .debug_str:00000000000007c6 .LASF64
     /tmp/ccU3X7KV.s:4296   .debug_str:00000000000000f9 .LASF65
GAS LISTING /tmp/ccU3X7KV.s 			page 27


     /tmp/ccU3X7KV.s:4460   .debug_str:0000000000000781 .LASF66
     /tmp/ccU3X7KV.s:4268   .debug_str:000000000000001e .LASF67
     /tmp/ccU3X7KV.s:4424   .debug_str:00000000000005bb .LASF69
     /tmp/ccU3X7KV.s:4522   .debug_str:00000000000009a4 .LASF68
     /tmp/ccU3X7KV.s:4492   .debug_str:00000000000008c0 .LASF70
     /tmp/ccU3X7KV.s:4420   .debug_str:000000000000058b .LASF71
     /tmp/ccU3X7KV.s:4602   .debug_str:0000000000000cb5 .LASF72
     /tmp/ccU3X7KV.s:4350   .debug_str:00000000000002fc .LASF73
     /tmp/ccU3X7KV.s:4444   .debug_str:00000000000006ba .LASF74
     /tmp/ccU3X7KV.s:4538   .debug_str:0000000000000a18 .LASF76
     /tmp/ccU3X7KV.s:4510   .debug_str:0000000000000957 .LASF77
     /tmp/ccU3X7KV.s:4274   .debug_str:000000000000003c .LASF78
     /tmp/ccU3X7KV.s:4530   .debug_str:00000000000009e6 .LASF79
     /tmp/ccU3X7KV.s:4458   .debug_str:0000000000000758 .LASF80
     /tmp/ccU3X7KV.s:4432   .debug_str:0000000000000611 .LASF82
     /tmp/ccU3X7KV.s:4348   .debug_str:00000000000002e5 .LASF84
     /tmp/ccU3X7KV.s:4482   .debug_str:000000000000087b .LASF117
     /tmp/ccU3X7KV.s:4422   .debug_str:00000000000005a0 .LASF119
     /tmp/ccU3X7KV.s:4496   .debug_str:00000000000008f2 .LASF85
     /tmp/ccU3X7KV.s:4512   .debug_str:000000000000095c .LASF86
     /tmp/ccU3X7KV.s:4576   .debug_str:0000000000000c12 .LASF87
     /tmp/ccU3X7KV.s:4320   .debug_str:00000000000001be .LASF88
     /tmp/ccU3X7KV.s:4484   .debug_str:000000000000088b .LASF89
     /tmp/ccU3X7KV.s:4442   .debug_str:00000000000006a2 .LASF90
     /tmp/ccU3X7KV.s:4476   .debug_str:0000000000000839 .LASF91
     /tmp/ccU3X7KV.s:4342   .debug_str:000000000000028c .LASF92
     /tmp/ccU3X7KV.s:4572   .debug_str:0000000000000bf2 .LASF93
     /tmp/ccU3X7KV.s:4474   .debug_str:000000000000081a .LASF94
     /tmp/ccU3X7KV.s:4534   .debug_str:0000000000000a00 .LASF95
     /tmp/ccU3X7KV.s:4494   .debug_str:00000000000008d6 .LASF96
     /tmp/ccU3X7KV.s:4396   .debug_str:000000000000048c .LASF97
     /tmp/ccU3X7KV.s:4454   .debug_str:0000000000000738 .LASF98
     /tmp/ccU3X7KV.s:4580   .debug_str:0000000000000c2d .LASF99
     /tmp/ccU3X7KV.s:4552   .debug_str:0000000000000b29 .LASF100
     /tmp/ccU3X7KV.s:4526   .debug_str:00000000000009cd .LASF101
     /tmp/ccU3X7KV.s:4346   .debug_str:00000000000002c8 .LASF102
     /tmp/ccU3X7KV.s:4596   .debug_str:0000000000000c92 .LASF103
     /tmp/ccU3X7KV.s:4288   .debug_str:00000000000000b3 .LASF104
     /tmp/ccU3X7KV.s:4558   .debug_str:0000000000000b66 .LASF105
     /tmp/ccU3X7KV.s:4486   .debug_str:0000000000000897 .LASF106
     /tmp/ccU3X7KV.s:4398   .debug_str:000000000000049b .LASF107
     /tmp/ccU3X7KV.s:4338   .debug_str:0000000000000257 .LASF108
     /tmp/ccU3X7KV.s:4556   .debug_str:0000000000000b57 .LASF109
     /tmp/ccU3X7KV.s:4388   .debug_str:000000000000043a .LASF110
     /tmp/ccU3X7KV.s:4574   .debug_str:0000000000000c05 .LASF111
     /tmp/ccU3X7KV.s:4562   .debug_str:0000000000000b7d .LASF112
     /tmp/ccU3X7KV.s:4514   .debug_str:0000000000000972 .LASF113
     /tmp/ccU3X7KV.s:4306   .debug_str:0000000000000142 .LASF114
     /tmp/ccU3X7KV.s:4326   .debug_str:00000000000001f2 .LASF115
     /tmp/ccU3X7KV.s:4472   .debug_str:00000000000007fe .LASF116
     /tmp/ccU3X7KV.s:4414   .debug_str:0000000000000553 .LASF118
     /tmp/ccU3X7KV.s:4554   .debug_str:0000000000000b47 .LASF120
     /tmp/ccU3X7KV.s:4366   .debug_str:000000000000038c .LASF121
     /tmp/ccU3X7KV.s:4358   .debug_str:0000000000000333 .LASF122
     /tmp/ccU3X7KV.s:4452   .debug_str:000000000000072b .LASF123
     /tmp/ccU3X7KV.s:4502   .debug_str:0000000000000924 .LASF124
     /tmp/ccU3X7KV.s:4548   .debug_str:0000000000000a5d .LASF125
GAS LISTING /tmp/ccU3X7KV.s 			page 28


     /tmp/ccU3X7KV.s:4354   .debug_str:0000000000000310 .LASF126
     /tmp/ccU3X7KV.s:4448   .debug_str:00000000000006e4 .LASF164
     /tmp/ccU3X7KV.s:4456   .debug_str:0000000000000753 .LASF165
     /tmp/ccU3X7KV.s:4426   .debug_str:00000000000005d1 .LASF127
     /tmp/ccU3X7KV.s:4416   .debug_str:0000000000000559 .LASF129
     /tmp/ccU3X7KV.s:4330   .debug_str:000000000000021d .LASF166
     /tmp/ccU3X7KV.s:4438   .debug_str:0000000000000666 .LASF167
     /tmp/ccU3X7KV.s:4518   .debug_str:0000000000000987 .LASF149
     /tmp/ccU3X7KV.s:4266   .debug_str:0000000000000019 .LASF130
     /tmp/ccU3X7KV.s:4394   .debug_str:0000000000000483 .LASF131
     /tmp/ccU3X7KV.s:4594   .debug_str:0000000000000c8c .LASF132
     /tmp/ccU3X7KV.s:4560   .debug_str:0000000000000b75 .LASF133
     /tmp/ccU3X7KV.s:4536   .debug_str:0000000000000a0f .LASF134
     /tmp/ccU3X7KV.s:4540   .debug_str:0000000000000a20 .LASF135
     /tmp/ccU3X7KV.s:4378   .debug_str:00000000000003ef .LASF136
     /tmp/ccU3X7KV.s:4318   .debug_str:00000000000001b1 .LASF137
     /tmp/ccU3X7KV.s:4284   .debug_str:00000000000000a8 .LASF138
     /tmp/ccU3X7KV.s:4368   .debug_str:0000000000000398 .LASF139
     /tmp/ccU3X7KV.s:4516   .debug_str:0000000000000982 .LASF140
     /tmp/ccU3X7KV.s:4418   .debug_str:0000000000000582 .LASF141
     /tmp/ccU3X7KV.s:4360   .debug_str:000000000000033f .LASF142
     /tmp/ccU3X7KV.s:4488   .debug_str:00000000000008b2 .LASF143
     /tmp/ccU3X7KV.s:4400   .debug_str:00000000000004aa .LASF144
     /tmp/ccU3X7KV.s:4404   .debug_str:00000000000004e3 .LASF145
     /tmp/ccU3X7KV.s:4298   .debug_str:0000000000000109 .LASF146
     /tmp/ccU3X7KV.s:4506   .debug_str:000000000000093b .LASF147
     /tmp/ccU3X7KV.s:4592   .debug_str:0000000000000c78 .LASF168
     /tmp/ccU3X7KV.s:4380   .debug_str:00000000000003fa .LASF169
     /tmp/ccU3X7KV.s:4590   .debug_str:0000000000000c66 .LASF148
     /tmp/ccU3X7KV.s:571    .text:00000000000002d0 .LFB61
     /tmp/ccU3X7KV.s:634    .text:0000000000000340 .LFE61
     /tmp/ccU3X7KV.s:4322   .debug_str:00000000000001d6 .LASF150
     /tmp/ccU3X7KV.s:3882   .debug_loc:0000000000000000 .LLST24
     /tmp/ccU3X7KV.s:3896   .debug_loc:0000000000000039 .LLST25
     /tmp/ccU3X7KV.s:591    .text:00000000000002f0 .LBB86
     /tmp/ccU3X7KV.s:617    .text:0000000000000320 .LBE86
     /tmp/ccU3X7KV.s:598    .text:00000000000002fc .LBB88
     /tmp/ccU3X7KV.s:609    .text:0000000000000314 .LBE88
     /tmp/ccU3X7KV.s:3907   .debug_loc:000000000000006f .LLST26
     /tmp/ccU3X7KV.s:586    .text:00000000000002e8 .LVL49
     /tmp/ccU3X7KV.s:622    .text:0000000000000330 .LVL53
     /tmp/ccU3X7KV.s:442    .text:0000000000000234 .LFB60
     /tmp/ccU3X7KV.s:476    .text:0000000000000270 .LFE60
     /tmp/ccU3X7KV.s:3916   .debug_loc:000000000000009b .LLST18
     /tmp/ccU3X7KV.s:461    .text:0000000000000258 .LVL36
     /tmp/ccU3X7KV.s:465    .text:0000000000000260 .LVL37
     /tmp/ccU3X7KV.s:391    .text:0000000000000200 .LFB59
     /tmp/ccU3X7KV.s:436    .text:0000000000000234 .LFE59
     /tmp/ccU3X7KV.s:409    .text:0000000000000218 .LBB78
     /tmp/ccU3X7KV.s:417    .text:000000000000021c .LBE78
     /tmp/ccU3X7KV.s:3930   .debug_loc:00000000000000d4 .LLST16
     /tmp/ccU3X7KV.s:3937   .debug_loc:00000000000000f7 .LLST17
     /tmp/ccU3X7KV.s:205    .text:000000000000011c .LFB58
     /tmp/ccU3X7KV.s:275    .text:0000000000000158 .LFE58
     /tmp/ccU3X7KV.s:3944   .debug_loc:000000000000011a .LLST6
     /tmp/ccU3X7KV.s:4236   .debug_ranges:0000000000000000 .Ldebug_ranges0
     /tmp/ccU3X7KV.s:3955   .debug_loc:0000000000000150 .LLST7
GAS LISTING /tmp/ccU3X7KV.s 			page 29


     /tmp/ccU3X7KV.s:227    .text:0000000000000134 .LBB64
     /tmp/ccU3X7KV.s:235    .text:0000000000000138 .LBE64
     /tmp/ccU3X7KV.s:3966   .debug_loc:0000000000000186 .LLST8
     /tmp/ccU3X7KV.s:243    .text:0000000000000140 .LBB66
     /tmp/ccU3X7KV.s:250    .text:0000000000000144 .LBE66
     /tmp/ccU3X7KV.s:3973   .debug_loc:00000000000001a9 .LLST9
     /tmp/ccU3X7KV.s:3981   .debug_loc:00000000000001cd .LLST10
     /tmp/ccU3X7KV.s:4290   .debug_str:00000000000000cd .LASF152
     /tmp/ccU3X7KV.s:4544   .debug_str:0000000000000a40 .LASF170
     /tmp/ccU3X7KV.s:10     .text:0000000000000000 .LFB56
     /tmp/ccU3X7KV.s:42     .text:0000000000000028 .LFE56
     /tmp/ccU3X7KV.s:640    .text:0000000000000340 .LFB54
     /tmp/ccU3X7KV.s:723    .text:00000000000003a0 .LFE54
     /tmp/ccU3X7KV.s:3988   .debug_loc:00000000000001f0 .LLST27
     /tmp/ccU3X7KV.s:657    .text:0000000000000358 .LBB90
     /tmp/ccU3X7KV.s:664    .text:000000000000035c .LBE90
     /tmp/ccU3X7KV.s:4010   .debug_loc:000000000000024f .LLST28
     /tmp/ccU3X7KV.s:669    .text:0000000000000364 .LBB92
     /tmp/ccU3X7KV.s:676    .text:0000000000000368 .LBE92
     /tmp/ccU3X7KV.s:4017   .debug_loc:0000000000000272 .LLST29
     /tmp/ccU3X7KV.s:4024   .debug_loc:0000000000000295 .LLST30
     /tmp/ccU3X7KV.s:684    .text:000000000000036c .LBB94
     /tmp/ccU3X7KV.s:691    .text:0000000000000370 .LBE94
     /tmp/ccU3X7KV.s:4031   .debug_loc:00000000000002b8 .LLST31
     /tmp/ccU3X7KV.s:716    .text:0000000000000394 .LVL63
     /tmp/ccU3X7KV.s:482    .text:0000000000000270 .LFB53
     /tmp/ccU3X7KV.s:565    .text:00000000000002d0 .LFE53
     /tmp/ccU3X7KV.s:4038   .debug_loc:00000000000002db .LLST19
     /tmp/ccU3X7KV.s:499    .text:0000000000000288 .LBB80
     /tmp/ccU3X7KV.s:506    .text:000000000000028c .LBE80
     /tmp/ccU3X7KV.s:4060   .debug_loc:000000000000033a .LLST20
     /tmp/ccU3X7KV.s:510    .text:0000000000000290 .LBB82
     /tmp/ccU3X7KV.s:517    .text:0000000000000294 .LBE82
     /tmp/ccU3X7KV.s:4067   .debug_loc:000000000000035d .LLST21
     /tmp/ccU3X7KV.s:4074   .debug_loc:0000000000000380 .LLST22
     /tmp/ccU3X7KV.s:526    .text:000000000000029c .LBB84
     /tmp/ccU3X7KV.s:533    .text:00000000000002a0 .LBE84
     /tmp/ccU3X7KV.s:4081   .debug_loc:00000000000003a3 .LLST23
     /tmp/ccU3X7KV.s:558    .text:00000000000002c4 .LVL47
     /tmp/ccU3X7KV.s:281    .text:0000000000000158 .LFB52
     /tmp/ccU3X7KV.s:385    .text:0000000000000200 .LFE52
     /tmp/ccU3X7KV.s:4586   .debug_str:0000000000000c54 .LASF151
     /tmp/ccU3X7KV.s:4088   .debug_loc:00000000000003c6 .LLST11
     /tmp/ccU3X7KV.s:4106   .debug_loc:0000000000000412 .LLST12
     /tmp/ccU3X7KV.s:305    .text:000000000000017c .LBB70
     /tmp/ccU3X7KV.s:337    .text:00000000000001b4 .LBB72
     /tmp/ccU3X7KV.s:348    .text:00000000000001cc .LBE72
     /tmp/ccU3X7KV.s:4113   .debug_loc:0000000000000435 .LLST13
     /tmp/ccU3X7KV.s:358    .text:00000000000001dc .LBB76
     /tmp/ccU3X7KV.s:366    .text:00000000000001e4 .LBE76
     /tmp/ccU3X7KV.s:4122   .debug_loc:0000000000000461 .LLST14
     /tmp/ccU3X7KV.s:4130   .debug_loc:0000000000000485 .LLST15
     /tmp/ccU3X7KV.s:315    .text:0000000000000190 .LVL23
     /tmp/ccU3X7KV.s:324    .text:00000000000001a0 .LVL24
     /tmp/ccU3X7KV.s:50     .text:0000000000000028 .LFB51
     /tmp/ccU3X7KV.s:199    .text:000000000000011c .LFE51
     /tmp/ccU3X7KV.s:4137   .debug_loc:00000000000004a8 .LLST0
GAS LISTING /tmp/ccU3X7KV.s 			page 30


     /tmp/ccU3X7KV.s:4159   .debug_loc:0000000000000507 .LLST1
     /tmp/ccU3X7KV.s:72     .text:000000000000004c .LBB50
     /tmp/ccU3X7KV.s:4181   .debug_loc:0000000000000566 .LLST2
     /tmp/ccU3X7KV.s:4194   .debug_loc:000000000000059e .LLST3
     /tmp/ccU3X7KV.s:77     .text:000000000000004c .LBB52
     /tmp/ccU3X7KV.s:132    .text:00000000000000a0 .LBB54
     /tmp/ccU3X7KV.s:189    .text:000000000000010c .LBE54
     /tmp/ccU3X7KV.s:4207   .debug_loc:00000000000005d6 .LLST4
     /tmp/ccU3X7KV.s:137    .text:00000000000000a8 .LBB57
     /tmp/ccU3X7KV.s:186    .text:000000000000010c .LBE57
     /tmp/ccU3X7KV.s:4216   .debug_loc:0000000000000602 .LLST5
     /tmp/ccU3X7KV.s:94     .text:000000000000006c .LVL5
     /tmp/ccU3X7KV.s:102    .text:000000000000007c .LVL7
     /tmp/ccU3X7KV.s:4588   .debug_str:0000000000000c5b .LASF153
     /tmp/ccU3X7KV.s:4376   .debug_str:00000000000003dd .LASF156
     /tmp/ccU3X7KV.s:4310   .debug_str:000000000000016b .LASF158
     /tmp/ccU3X7KV.s:4408   .debug_str:0000000000000513 .LASF159
     /tmp/ccU3X7KV.s:4272   .debug_str:0000000000000036 .LASF154
     /tmp/ccU3X7KV.s:4464   .debug_str:00000000000007a6 .LASF155
     /tmp/ccU3X7KV.s:4264   .debug_str:0000000000000000 .LASF157
     /tmp/ccU3X7KV.s:4450   .debug_str:00000000000006fc .LASF160
     /tmp/ccU3X7KV.s:574    .text:00000000000002d0 .LVL48
     /tmp/ccU3X7KV.s:620    .text:0000000000000328 .LVL52
     /tmp/ccU3X7KV.s:597    .text:00000000000002fc .LVL50
     /tmp/ccU3X7KV.s:613    .text:0000000000000320 .LVL51
     /tmp/ccU3X7KV.s:445    .text:0000000000000234 .LVL34
     /tmp/ccU3X7KV.s:408    .text:0000000000000218 .LVL32
     /tmp/ccU3X7KV.s:414    .text:000000000000021c .LVL33
     /tmp/ccU3X7KV.s:208    .text:000000000000011c .LVL13
     /tmp/ccU3X7KV.s:220    .text:0000000000000130 .LVL14
     /tmp/ccU3X7KV.s:225    .text:0000000000000134 .LVL15
     /tmp/ccU3X7KV.s:248    .text:0000000000000144 .LVL18
     /tmp/ccU3X7KV.s:263    .text:0000000000000150 .LVL19
     /tmp/ccU3X7KV.s:233    .text:0000000000000138 .LVL16
     /tmp/ccU3X7KV.s:242    .text:0000000000000140 .LVL17
     /tmp/ccU3X7KV.s:643    .text:0000000000000340 .LVL54
     /tmp/ccU3X7KV.s:681    .text:000000000000036c .LVL59
     /tmp/ccU3X7KV.s:706    .text:0000000000000384 .LVL61
     /tmp/ccU3X7KV.s:710    .text:000000000000038c .LVL62
     /tmp/ccU3X7KV.s:656    .text:0000000000000358 .LVL55
     /tmp/ccU3X7KV.s:662    .text:000000000000035c .LVL56
     /tmp/ccU3X7KV.s:668    .text:0000000000000364 .LVL57
     /tmp/ccU3X7KV.s:674    .text:0000000000000368 .LVL58
     /tmp/ccU3X7KV.s:689    .text:0000000000000370 .LVL60
     /tmp/ccU3X7KV.s:485    .text:0000000000000270 .LVL38
     /tmp/ccU3X7KV.s:523    .text:000000000000029c .LVL43
     /tmp/ccU3X7KV.s:548    .text:00000000000002b4 .LVL45
     /tmp/ccU3X7KV.s:552    .text:00000000000002bc .LVL46
     /tmp/ccU3X7KV.s:498    .text:0000000000000288 .LVL39
     /tmp/ccU3X7KV.s:504    .text:000000000000028c .LVL40
     /tmp/ccU3X7KV.s:509    .text:0000000000000290 .LVL41
     /tmp/ccU3X7KV.s:515    .text:0000000000000294 .LVL42
     /tmp/ccU3X7KV.s:531    .text:00000000000002a0 .LVL44
     /tmp/ccU3X7KV.s:284    .text:0000000000000158 .LVL20
     /tmp/ccU3X7KV.s:303    .text:000000000000017c .LVL22
     /tmp/ccU3X7KV.s:380    .text:00000000000001f8 .LVL30
     /tmp/ccU3X7KV.s:301    .text:0000000000000178 .LVL21
GAS LISTING /tmp/ccU3X7KV.s 			page 31


     /tmp/ccU3X7KV.s:377    .text:00000000000001f4 .LVL29
     /tmp/ccU3X7KV.s:336    .text:00000000000001b4 .LVL26
     /tmp/ccU3X7KV.s:353    .text:00000000000001dc .LVL27
     /tmp/ccU3X7KV.s:364    .text:00000000000001e4 .LVL28
     /tmp/ccU3X7KV.s:53     .text:0000000000000028 .LVL1
     /tmp/ccU3X7KV.s:92     .text:0000000000000064 .LVL4
     /tmp/ccU3X7KV.s:116    .text:0000000000000090 .LVL8
     /tmp/ccU3X7KV.s:125    .text:00000000000000a0 .LVL10
     /tmp/ccU3X7KV.s:90     .text:000000000000005c .LVL3
     /tmp/ccU3X7KV.s:121    .text:0000000000000098 .LVL9
     /tmp/ccU3X7KV.s:71     .text:000000000000004c .LVL2
     /tmp/ccU3X7KV.s:96     .text:0000000000000070 .LVL6
     /tmp/ccU3X7KV.s:185    .text:000000000000010c .LVL12
     /tmp/ccU3X7KV.s:163    .text:00000000000000e4 .LVL11
     /tmp/ccU3X7KV.s:757    .debug_info:0000000000000000 .Ldebug_info0
     /tmp/ccU3X7KV.s:98     .text:0000000000000070 .LBE50
     /tmp/ccU3X7KV.s:128    .text:00000000000000a0 .LBB61
     /tmp/ccU3X7KV.s:197    .text:000000000000011c .LBE61
     /tmp/ccU3X7KV.s:87     .text:0000000000000058 .LBE52
     /tmp/ccU3X7KV.s:130    .text:00000000000000a0 .LBB59
     /tmp/ccU3X7KV.s:195    .text:000000000000011c .LBE59
     /tmp/ccU3X7KV.s:223    .text:0000000000000134 .LBB63
     /tmp/ccU3X7KV.s:253    .text:0000000000000144 .LBE63
     /tmp/ccU3X7KV.s:267    .text:0000000000000150 .LBB68
     /tmp/ccU3X7KV.s:272    .text:0000000000000158 .LBE68
     /tmp/ccU3X7KV.s:310    .text:000000000000017c .LBE70
     /tmp/ccU3X7KV.s:330    .text:00000000000001a8 .LBB75
     /tmp/ccU3X7KV.s:356    .text:00000000000001dc .LBE75

UNDEFINED SYMBOLS
_ZN15MemoryAllocator12memory_allocEm
HEAP_END_ADDR
HEAP_START_ADDR
_ZN9Scheduler3putEP3TCB
_ZN9Scheduler4headE
_ZN9Scheduler4tailE
_ZN3TCB7runningE
_ZN3TCB5yieldEv
