GAS LISTING /tmp/cceicSzv.s 			page 1


   1              		.file	"semaphore.cpp"
   2              		.option pic
   3              		.option norelax
   4              		.text
   5              	.Ltext0:
   6              		.align	2
   7              		.globl	_ZN11MySemaphoreC2Em
   9              	_ZN11MySemaphoreC2Em:
  10              	.LFB54:
  11              		.file 1 "src/semaphore.cpp"
   1:src/semaphore.cpp **** #include "../h/semaphore.hpp"
   2:src/semaphore.cpp **** 
   3:src/semaphore.cpp **** #include "../h/TCB.hpp"
   4:src/semaphore.cpp **** 
   5:src/semaphore.cpp **** int MySemaphore::sem_open(MySemaphore **handle, uint64 init) {
   6:src/semaphore.cpp ****     *handle = new MySemaphore(init);
   7:src/semaphore.cpp ****     return 0;
   8:src/semaphore.cpp **** }
   9:src/semaphore.cpp **** 
  10:src/semaphore.cpp **** int MySemaphore::sem_close(MySemaphore* handle){
  11:src/semaphore.cpp ****     // deblokiraj sve niti
  12:src/semaphore.cpp ****     TCB* tmp = handle->head;
  13:src/semaphore.cpp ****     while(tmp){
  14:src/semaphore.cpp ****         tmp = handle->get_from_blocked();
  15:src/semaphore.cpp ****         if(tmp)Scheduler::getInstance().put(tmp);
  16:src/semaphore.cpp ****     }
  17:src/semaphore.cpp ****     // indikator za wait na true
  18:src/semaphore.cpp ****     handle->set_indicator(true);
  19:src/semaphore.cpp ****     return 0;
  20:src/semaphore.cpp **** }
  21:src/semaphore.cpp **** 
  22:src/semaphore.cpp **** int MySemaphore::sem_wait(MySemaphore *id) {
  23:src/semaphore.cpp ****     id->set_val(id->get_val() - 1);
  24:src/semaphore.cpp ****     if( id->get_val() < 0)id->block();
  25:src/semaphore.cpp ****     if(!id->get_indicator())return 0;
  26:src/semaphore.cpp ****     else return -1;
  27:src/semaphore.cpp **** }
  28:src/semaphore.cpp **** 
  29:src/semaphore.cpp **** int MySemaphore::sem_signal(MySemaphore *id) {
  30:src/semaphore.cpp ****     id->set_val(id->get_val() + 1);
  31:src/semaphore.cpp ****     if( id->get_val() <= 0)id->unblock();
  32:src/semaphore.cpp ****     if(!id->get_indicator())return 0;
  33:src/semaphore.cpp ****     else return -1;
  34:src/semaphore.cpp **** }
  35:src/semaphore.cpp **** 
  36:src/semaphore.cpp **** MySemaphore::MySemaphore(uint64 init) {
  12              		.loc 1 36 1
  13              		.cfi_startproc
  14              	.LVL0:
  15 0000 130101FF 		addi	sp,sp,-16
  16              		.cfi_def_cfa_offset 16
  17 0004 23348100 		sd	s0,8(sp)
  18              		.cfi_offset 8, -8
  19 0008 13040101 		addi	s0,sp,16
  20              		.cfi_def_cfa 8, 0
  21              	.LBB45:
  37:src/semaphore.cpp ****     val = init;
GAS LISTING /tmp/cceicSzv.s 			page 2


  22              		.loc 1 37 5
  23              		.loc 1 37 9 is_stmt 0
  24 000c 2320B500 		sw	a1,0(a0)
  38:src/semaphore.cpp ****     head = tail = nullptr;
  25              		.loc 1 38 5 is_stmt 1
  26              		.loc 1 38 17 is_stmt 0
  27 0010 23380500 		sd	zero,16(a0)
  28              		.loc 1 38 10
  29 0014 23340500 		sd	zero,8(a0)
  39:src/semaphore.cpp ****     indicator = false;
  30              		.loc 1 39 5 is_stmt 1
  31              		.loc 1 39 15 is_stmt 0
  32 0018 23020500 		sb	zero,4(a0)
  33              	.LBE45:
  40:src/semaphore.cpp **** }
  34              		.loc 1 40 1
  35 001c 03348100 		ld	s0,8(sp)
  36              		.cfi_restore 8
  37              		.cfi_def_cfa 2, 16
  38 0020 13010101 		addi	sp,sp,16
  39              		.cfi_def_cfa_offset 0
  40 0024 67800000 		jr	ra
  41              		.cfi_endproc
  42              	.LFE54:
  44              		.globl	_ZN11MySemaphoreC1Em
  45              		.set	_ZN11MySemaphoreC1Em,_ZN11MySemaphoreC2Em
  46              		.align	2
  47              		.globl	_ZN11MySemaphore8sem_openEPPS_m
  49              	_ZN11MySemaphore8sem_openEPPS_m:
  50              	.LFB49:
   5:src/semaphore.cpp ****     *handle = new MySemaphore(init);
  51              		.loc 1 5 62 is_stmt 1
  52              		.cfi_startproc
  53              	.LVL1:
  54 0028 130101FD 		addi	sp,sp,-48
  55              		.cfi_def_cfa_offset 48
  56 002c 23341102 		sd	ra,40(sp)
  57 0030 23308102 		sd	s0,32(sp)
  58 0034 233C9100 		sd	s1,24(sp)
  59 0038 23382101 		sd	s2,16(sp)
  60 003c 23343101 		sd	s3,8(sp)
  61              		.cfi_offset 1, -8
  62              		.cfi_offset 8, -16
  63              		.cfi_offset 9, -24
  64              		.cfi_offset 18, -32
  65              		.cfi_offset 19, -40
  66 0040 13040103 		addi	s0,sp,48
  67              		.cfi_def_cfa 8, 0
  68 0044 93040500 		mv	s1,a0
  69 0048 93890500 		mv	s3,a1
   6:src/semaphore.cpp ****     return 0;
  70              		.loc 1 6 5
  71              	.LVL2:
  72              	.LBB53:
  73              	.LBB54:
  74              		.file 2 "src/../h/semaphore.hpp"
   1:src/../h/semaphore.hpp **** #ifndef _semaphore_hpp_
GAS LISTING /tmp/cceicSzv.s 			page 3


   2:src/../h/semaphore.hpp **** #define _semaphore_hpp_
   3:src/../h/semaphore.hpp **** 
   4:src/../h/semaphore.hpp **** #include "../lib/hw.h"
   5:src/../h/semaphore.hpp **** #include "../h/MemoryAllocator.hpp"
   6:src/../h/semaphore.hpp **** 
   7:src/../h/semaphore.hpp **** class TCB;
   8:src/../h/semaphore.hpp **** 
   9:src/../h/semaphore.hpp **** class MySemaphore{
  10:src/../h/semaphore.hpp **** public:
  11:src/../h/semaphore.hpp **** 
  12:src/../h/semaphore.hpp ****     ~MySemaphore(){ sem_close(this);}
  13:src/../h/semaphore.hpp **** 
  14:src/../h/semaphore.hpp ****     static int sem_open(
  15:src/../h/semaphore.hpp ****           MySemaphore** handle,
  16:src/../h/semaphore.hpp ****           uint64 init
  17:src/../h/semaphore.hpp ****           );
  18:src/../h/semaphore.hpp ****     static int sem_close(MySemaphore* handle);
  19:src/../h/semaphore.hpp ****     static int sem_wait(MySemaphore* id);
  20:src/../h/semaphore.hpp ****     static int sem_signal(MySemaphore* id);
  21:src/../h/semaphore.hpp **** 
  22:src/../h/semaphore.hpp ****     void put_in_blocked(TCB* tcb);
  23:src/../h/semaphore.hpp **** 
  24:src/../h/semaphore.hpp ****     TCB* get_from_blocked();
  25:src/../h/semaphore.hpp **** 
  26:src/../h/semaphore.hpp ****     void block();
  27:src/../h/semaphore.hpp **** 
  28:src/../h/semaphore.hpp ****     void unblock();
  29:src/../h/semaphore.hpp **** 
  30:src/../h/semaphore.hpp ****     // getteri i setteri
  31:src/../h/semaphore.hpp ****     bool get_indicator()const{ return indicator; }
  32:src/../h/semaphore.hpp ****     void set_indicator(bool v){ indicator = v; }
  33:src/../h/semaphore.hpp ****     int get_val()const{ return val; }
  34:src/../h/semaphore.hpp ****     void set_val(int v){ val = v; }
  35:src/../h/semaphore.hpp **** 
  36:src/../h/semaphore.hpp ****     // operatori
  37:src/../h/semaphore.hpp ****     void *operator new(uint64 n){
  38:src/../h/semaphore.hpp ****         uint64 ssize = (n + MEM_BLOCK_SIZE - 1) / MEM_BLOCK_SIZE;
  75              		.loc 2 38 9
  39:src/../h/semaphore.hpp ****         return MemoryAllocator::getInstance().memory_alloc(ssize);
  76              		.loc 2 39 9
  77              	.LBB55:
  78              	.LBB56:
  79              		.file 3 "src/../h/../h/MemoryAllocator.hpp"
   1:src/../h/../h/MemoryAllocator.hpp **** #ifndef _memory_allocator_hpp_
   2:src/../h/../h/MemoryAllocator.hpp **** #define _memory_allocator_hpp_
   3:src/../h/../h/MemoryAllocator.hpp **** 
   4:src/../h/../h/MemoryAllocator.hpp **** #include "../lib/hw.h"
   5:src/../h/../h/MemoryAllocator.hpp **** 
   6:src/../h/../h/MemoryAllocator.hpp **** class MemoryAllocator{
   7:src/../h/../h/MemoryAllocator.hpp **** public:
   8:src/../h/../h/MemoryAllocator.hpp **** 
   9:src/../h/../h/MemoryAllocator.hpp ****     // dodaj instancu
  10:src/../h/../h/MemoryAllocator.hpp ****     static MemoryAllocator& getInstance(){
  11:src/../h/../h/MemoryAllocator.hpp ****         static MemoryAllocator instance;
  80              		.loc 3 11 9
  81              		.loc 3 11 32 is_stmt 0
  82 004c 97070000 		lbu	a5,_ZGVZN15MemoryAllocator11getInstanceEvE8instance
GAS LISTING /tmp/cceicSzv.s 			page 4


  82      83C70700 
  83 0054 639E0704 		bnez	a5,.L4
  84              	.LVL3:
  85              	.LBB57:
  86              	.LBB58:
  87              	.LBB59:
  12:src/../h/../h/MemoryAllocator.hpp ****         return instance;
  13:src/../h/../h/MemoryAllocator.hpp ****     }
  14:src/../h/../h/MemoryAllocator.hpp **** 
  15:src/../h/../h/MemoryAllocator.hpp ****     MemoryAllocator(const MemoryAllocator&) = delete;
  16:src/../h/../h/MemoryAllocator.hpp ****     void operator=(MemoryAllocator const&) = delete;
  17:src/../h/../h/MemoryAllocator.hpp **** 
  18:src/../h/../h/MemoryAllocator.hpp ****     void* memory_alloc (size_t);
  19:src/../h/../h/MemoryAllocator.hpp **** 
  20:src/../h/../h/MemoryAllocator.hpp ****     int memory_free (void*);
  21:src/../h/../h/MemoryAllocator.hpp **** 
  22:src/../h/../h/MemoryAllocator.hpp **** private:
  23:src/../h/../h/MemoryAllocator.hpp **** 
  24:src/../h/../h/MemoryAllocator.hpp ****     struct FreeMem{
  25:src/../h/../h/MemoryAllocator.hpp ****         size_t size;
  26:src/../h/../h/MemoryAllocator.hpp ****         FreeMem* next;
  27:src/../h/../h/MemoryAllocator.hpp ****         FreeMem* prev;
  28:src/../h/../h/MemoryAllocator.hpp ****     };
  29:src/../h/../h/MemoryAllocator.hpp **** 
  30:src/../h/../h/MemoryAllocator.hpp ****     FreeMem* fmem_head = nullptr;
  31:src/../h/../h/MemoryAllocator.hpp **** 
  32:src/../h/../h/MemoryAllocator.hpp ****     MemoryAllocator(){
  33:src/../h/../h/MemoryAllocator.hpp **** 
  34:src/../h/../h/MemoryAllocator.hpp ****         size_t heapStart = (size_t)HEAP_START_ADDR;
  88              		.loc 3 34 9 is_stmt 1
  89              		.loc 3 34 16 is_stmt 0
  90 0058 97070000 		la	a5,HEAP_START_ADDR
  90      83B70700 
  91 0060 83B70700 		ld	a5,0(a5)
  92              	.LVL4:
  35:src/../h/../h/MemoryAllocator.hpp ****         size_t heapEnd = (size_t)HEAP_END_ADDR - 1;
  93              		.loc 3 35 9 is_stmt 1
  94              		.loc 3 35 48 is_stmt 0
  95 0064 17070000 		la	a4,HEAP_END_ADDR
  95      03370700 
  96 006c 03370700 		ld	a4,0(a4)
  97              		.loc 3 35 16
  98 0070 1307F7FF 		addi	a4,a4,-1
  99              	.LVL5:
  36:src/../h/../h/MemoryAllocator.hpp **** 
  37:src/../h/../h/MemoryAllocator.hpp ****         size_t sizeInBlocks = (heapEnd - heapStart) / MEM_BLOCK_SIZE;
 100              		.loc 3 37 9 is_stmt 1
 101              		.loc 3 37 40 is_stmt 0
 102 0074 3307F740 		sub	a4,a4,a5
 103              	.LVL6:
 104              		.loc 3 37 16
 105 0078 13576700 		srli	a4,a4,6
 106              	.LVL7:
  38:src/../h/../h/MemoryAllocator.hpp **** 
  39:src/../h/../h/MemoryAllocator.hpp ****         // poravnaj na prvu krstenu adresu
  40:src/../h/../h/MemoryAllocator.hpp ****         fmem_head = (FreeMem*)(heapStart + ((heapStart % MEM_BLOCK_SIZE != 0)?(MEM_BLOCK_SIZE - hea
 107              		.loc 3 40 9 is_stmt 1
GAS LISTING /tmp/cceicSzv.s 			page 5


 108              		.loc 3 40 56 is_stmt 0
 109 007c 93F6F703 		andi	a3,a5,63
 110              		.loc 3 40 78
 111 0080 63860600 		beqz	a3,.L5
 112 0084 13060004 		li	a2,64
 113 0088 B306D640 		sub	a3,a2,a3
 114              	.L5:
 115              		.loc 3 40 42
 116 008c B387D700 		add	a5,a5,a3
 117              	.LVL8:
 118              		.loc 3 40 19
 119 0090 97060000 		sd	a5,_ZZN15MemoryAllocator11getInstanceEvE8instance,a3
 119      23B0F600 
  41:src/../h/../h/MemoryAllocator.hpp **** 
  42:src/../h/../h/MemoryAllocator.hpp ****         // napravi node
  43:src/../h/../h/MemoryAllocator.hpp **** 
  44:src/../h/../h/MemoryAllocator.hpp ****         fmem_head->next = nullptr;
 120              		.loc 3 44 9 is_stmt 1
 121              		.loc 3 44 25 is_stmt 0
 122 0098 23B40700 		sd	zero,8(a5)
  45:src/../h/../h/MemoryAllocator.hpp ****         fmem_head->prev = nullptr;
 123              		.loc 3 45 9 is_stmt 1
 124              		.loc 3 45 25 is_stmt 0
 125 009c 23B80700 		sd	zero,16(a5)
  46:src/../h/../h/MemoryAllocator.hpp ****         fmem_head->size = sizeInBlocks;
 126              		.loc 3 46 9 is_stmt 1
 127              		.loc 3 46 25 is_stmt 0
 128 00a0 23B0E700 		sd	a4,0(a5)
 129              	.LVL9:
 130              	.LBE59:
 131              	.LBE58:
 132              	.LBE57:
  11:src/../h/../h/MemoryAllocator.hpp ****         return instance;
 133              		.loc 3 11 32
 134 00a4 93071000 		li	a5,1
 135 00a8 17070000 		sb	a5,_ZGVZN15MemoryAllocator11getInstanceEvE8instance,a4
 135      2300F700 
 136              	.L4:
  12:src/../h/../h/MemoryAllocator.hpp ****     }
 137              		.loc 3 12 9 is_stmt 1
 138              	.LBE56:
 139              	.LBE55:
 140              		.loc 2 39 59 is_stmt 0
 141 00b0 93051000 		li	a1,1
 142              	.LVL10:
 143 00b4 17050000 		lla	a0,_ZZN15MemoryAllocator11getInstanceEvE8instance
 143      13050500 
 144              	.LVL11:
 145 00bc 97000000 		call	_ZN15MemoryAllocator12memory_allocEm@plt
 145      E7800000 
 146              	.LVL12:
 147 00c4 13090500 		mv	s2,a0
 148              	.LVL13:
 149              	.LBE54:
 150              	.LBE53:
   6:src/semaphore.cpp ****     return 0;
 151              		.loc 1 6 35
GAS LISTING /tmp/cceicSzv.s 			page 6


 152 00c8 93850900 		mv	a1,s3
 153 00cc 97000000 		call	_ZN11MySemaphoreC1Em
 153      E7800000 
 154              	.LVL14:
   6:src/semaphore.cpp ****     return 0;
 155              		.loc 1 6 13
 156 00d4 23B02401 		sd	s2,0(s1)
   7:src/semaphore.cpp **** }
 157              		.loc 1 7 5 is_stmt 1
   8:src/semaphore.cpp **** 
 158              		.loc 1 8 1 is_stmt 0
 159 00d8 13050000 		li	a0,0
 160 00dc 83308102 		ld	ra,40(sp)
 161              		.cfi_restore 1
 162 00e0 03340102 		ld	s0,32(sp)
 163              		.cfi_restore 8
 164              		.cfi_def_cfa 2, 48
 165 00e4 83348101 		ld	s1,24(sp)
 166              		.cfi_restore 9
 167              	.LVL15:
 168 00e8 03390101 		ld	s2,16(sp)
 169              		.cfi_restore 18
 170 00ec 83398100 		ld	s3,8(sp)
 171              		.cfi_restore 19
 172              	.LVL16:
 173 00f0 13010103 		addi	sp,sp,48
 174              		.cfi_def_cfa_offset 0
 175 00f4 67800000 		jr	ra
 176              		.cfi_endproc
 177              	.LFE49:
 179              		.align	2
 180              		.globl	_ZN11MySemaphore16get_from_blockedEv
 182              	_ZN11MySemaphore16get_from_blockedEv:
 183              	.LFB56:
  41:src/semaphore.cpp **** 
  42:src/semaphore.cpp **** TCB* MySemaphore::get_from_blocked() {
 184              		.loc 1 42 38 is_stmt 1
 185              		.cfi_startproc
 186              	.LVL17:
 187 00f8 130101FF 		addi	sp,sp,-16
 188              		.cfi_def_cfa_offset 16
 189 00fc 23348100 		sd	s0,8(sp)
 190              		.cfi_offset 8, -8
 191 0100 13040101 		addi	s0,sp,16
 192              		.cfi_def_cfa 8, 0
 193 0104 93070500 		mv	a5,a0
  43:src/semaphore.cpp ****     if(head){
 194              		.loc 1 43 5
 195              	.LBB60:
 196              		.loc 1 43 8 is_stmt 0
 197 0108 03358500 		ld	a0,8(a0)
 198              	.LVL18:
 199              		.loc 1 43 5
 200 010c 630A0500 		beqz	a0,.L7
 201              	.LBB61:
  44:src/semaphore.cpp ****         TCB* tmp = head;
 202              		.loc 1 44 9 is_stmt 1
GAS LISTING /tmp/cceicSzv.s 			page 7


 203              	.LVL19:
  45:src/semaphore.cpp ****         head = head->get_next_blocked();
 204              		.loc 1 45 9
 205              	.LBB62:
 206              	.LBB63:
 207              		.file 4 "src/../h/TCB.hpp"
   1:src/../h/TCB.hpp **** #ifndef _thread_hpp_
   2:src/../h/TCB.hpp **** #define _thread_hpp_
   3:src/../h/TCB.hpp **** 
   4:src/../h/TCB.hpp **** #include "../lib/hw.h"
   5:src/../h/TCB.hpp **** #include "../h/scheduler.hpp"
   6:src/../h/TCB.hpp **** #include "../h/MemoryAllocator.hpp"
   7:src/../h/TCB.hpp **** #include "../h/TS.hpp"
   8:src/../h/TCB.hpp **** #include "../h/periodic_threads.hpp"
   9:src/../h/TCB.hpp **** 
  10:src/../h/TCB.hpp **** class TCB{
  11:src/../h/TCB.hpp **** public:
  12:src/../h/TCB.hpp **** 
  13:src/../h/TCB.hpp ****     ~TCB(){
  14:src/../h/TCB.hpp ****         MemoryAllocator::getInstance().memory_free((void*)stack);
  15:src/../h/TCB.hpp ****     }
  16:src/../h/TCB.hpp **** 
  17:src/../h/TCB.hpp ****     using Body = void (*)(void*);
  18:src/../h/TCB.hpp **** 
  19:src/../h/TCB.hpp ****     // trazene
  20:src/../h/TCB.hpp ****     static int thread_create(
  21:src/../h/TCB.hpp ****         TCB** handle,
  22:src/../h/TCB.hpp ****         void(*start_routine)(void*),
  23:src/../h/TCB.hpp ****         void* arg,
  24:src/../h/TCB.hpp ****         void* stack_space,
  25:src/../h/TCB.hpp ****         bool flag
  26:src/../h/TCB.hpp ****     );
  27:src/../h/TCB.hpp **** 
  28:src/../h/TCB.hpp ****     static int thread_exit();
  29:src/../h/TCB.hpp **** 
  30:src/../h/TCB.hpp ****     static void thread_dispatch();
  31:src/../h/TCB.hpp **** 
  32:src/../h/TCB.hpp ****     static int time_sleep(uint64 time);
  33:src/../h/TCB.hpp **** 
  34:src/../h/TCB.hpp ****     // getteri i setteri
  35:src/../h/TCB.hpp ****     void set_finished(bool f){ this->finished = f; }
  36:src/../h/TCB.hpp **** 
  37:src/../h/TCB.hpp ****     bool is_finished()const{return finished;}
  38:src/../h/TCB.hpp **** 
  39:src/../h/TCB.hpp ****     void set_next_scheduler(TCB* nextThread){ next_scheduler = nextThread; }
  40:src/../h/TCB.hpp **** 
  41:src/../h/TCB.hpp ****     TCB* get_next_scheduler()const{ return next_scheduler; }
  42:src/../h/TCB.hpp **** 
  43:src/../h/TCB.hpp ****     void set_next_sleep(TCB* nextThread){ next_sleep = nextThread; }
  44:src/../h/TCB.hpp **** 
  45:src/../h/TCB.hpp ****     TCB* get_next_sleep()const{ return next_sleep; }
  46:src/../h/TCB.hpp **** 
  47:src/../h/TCB.hpp ****     void set_next_blocked(TCB* nextThread){ next_blocked = nextThread; }
  48:src/../h/TCB.hpp **** 
  49:src/../h/TCB.hpp ****     TCB* get_next_blocked()const{ return next_blocked; }
 208              		.loc 4 49 35
 209              		.loc 4 49 42 is_stmt 0
GAS LISTING /tmp/cceicSzv.s 			page 8


 210 0110 03370504 		ld	a4,64(a0)
 211              	.LVL20:
 212              	.LBE63:
 213              	.LBE62:
 214              		.loc 1 45 14
 215 0114 23B4E700 		sd	a4,8(a5)
  46:src/semaphore.cpp ****         if(!head)tail = nullptr;
 216              		.loc 1 46 9 is_stmt 1
 217 0118 630A0700 		beqz	a4,.L11
 218              	.L9:
  47:src/semaphore.cpp ****         tmp->set_next_blocked(nullptr);
 219              		.loc 1 47 9
 220              	.LVL21:
 221              	.LBB64:
 222              	.LBB65:
  47:src/../h/TCB.hpp **** 
 223              		.loc 4 47 45
  47:src/../h/TCB.hpp **** 
 224              		.loc 4 47 58 is_stmt 0
 225 011c 23300504 		sd	zero,64(a0)
 226              	.LVL22:
 227              	.LBE65:
 228              	.LBE64:
  48:src/semaphore.cpp ****         return tmp;
 229              		.loc 1 48 9 is_stmt 1
 230              	.L7:
 231              	.LBE61:
 232              	.LBE60:
  49:src/semaphore.cpp ****     }
  50:src/semaphore.cpp ****     return nullptr;
  51:src/semaphore.cpp **** }
 233              		.loc 1 51 1 is_stmt 0
 234 0120 03348100 		ld	s0,8(sp)
 235              		.cfi_remember_state
 236              		.cfi_restore 8
 237              		.cfi_def_cfa 2, 16
 238 0124 13010101 		addi	sp,sp,16
 239              		.cfi_def_cfa_offset 0
 240 0128 67800000 		jr	ra
 241              	.LVL23:
 242              	.L11:
 243              		.cfi_restore_state
 244              	.LBB67:
 245              	.LBB66:
  46:src/semaphore.cpp ****         tmp->set_next_blocked(nullptr);
 246              		.loc 1 46 18 is_stmt 1 discriminator 1
  46:src/semaphore.cpp ****         tmp->set_next_blocked(nullptr);
 247              		.loc 1 46 23 is_stmt 0 discriminator 1
 248 012c 23B80700 		sd	zero,16(a5)
 249 0130 6FF0DFFE 		j	.L9
 250              	.LBE66:
 251              	.LBE67:
 252              		.cfi_endproc
 253              	.LFE56:
 255              		.align	2
 256              		.globl	_ZN11MySemaphore9sem_closeEPS_
 258              	_ZN11MySemaphore9sem_closeEPS_:
GAS LISTING /tmp/cceicSzv.s 			page 9


 259              	.LFB50:
  10:src/semaphore.cpp ****     // deblokiraj sve niti
 260              		.loc 1 10 48 is_stmt 1
 261              		.cfi_startproc
 262              	.LVL24:
 263 0134 130101FE 		addi	sp,sp,-32
 264              		.cfi_def_cfa_offset 32
 265 0138 233C1100 		sd	ra,24(sp)
 266 013c 23388100 		sd	s0,16(sp)
 267 0140 23349100 		sd	s1,8(sp)
 268 0144 23302101 		sd	s2,0(sp)
 269              		.cfi_offset 1, -8
 270              		.cfi_offset 8, -16
 271              		.cfi_offset 9, -24
 272              		.cfi_offset 18, -32
 273 0148 13040102 		addi	s0,sp,32
 274              		.cfi_def_cfa 8, 0
 275 014c 13090500 		mv	s2,a0
  12:src/semaphore.cpp ****     while(tmp){
 276              		.loc 1 12 5
  12:src/semaphore.cpp ****     while(tmp){
 277              		.loc 1 12 10 is_stmt 0
 278 0150 83348500 		ld	s1,8(a0)
 279              	.LVL25:
 280 0154 6F008001 		j	.L13
 281              	.LVL26:
 282              	.L16:
 283              	.LBB68:
 284              	.LBB69:
 285              		.file 5 "src/../h/../h/scheduler.hpp"
   1:src/../h/../h/scheduler.hpp **** #ifndef _scheduler_hpp_
   2:src/../h/../h/scheduler.hpp **** #define _scheduler_hpp_
   3:src/../h/../h/scheduler.hpp **** 
   4:src/../h/../h/scheduler.hpp **** //#include "../test/printing.hpp"
   5:src/../h/../h/scheduler.hpp **** 
   6:src/../h/../h/scheduler.hpp **** class TCB;
   7:src/../h/../h/scheduler.hpp **** 
   8:src/../h/../h/scheduler.hpp **** class Scheduler{
   9:src/../h/../h/scheduler.hpp **** public:
  10:src/../h/../h/scheduler.hpp **** 
  11:src/../h/../h/scheduler.hpp ****     static Scheduler& getInstance(){
  12:src/../h/../h/scheduler.hpp ****         static Scheduler instance;
  13:src/../h/../h/scheduler.hpp ****         return instance;
 286              		.loc 5 13 9 is_stmt 1
 287              	.LBE69:
 288              	.LBE68:
  15:src/semaphore.cpp ****     }
 289              		.loc 1 15 44 is_stmt 0
 290 0158 93850400 		mv	a1,s1
 291 015c 17050000 		lla	a0,_ZZN9Scheduler11getInstanceEvE8instance
 291      13050500 
 292 0164 97000000 		call	_ZN9Scheduler3putEP3TCB@plt
 292      E7800000 
 293              	.LVL27:
 294              	.L13:
  13:src/semaphore.cpp ****         tmp = handle->get_from_blocked();
 295              		.loc 1 13 5 is_stmt 1
GAS LISTING /tmp/cceicSzv.s 			page 10


  13:src/semaphore.cpp ****         tmp = handle->get_from_blocked();
 296              		.loc 1 13 11
 297 016c 63860404 		beqz	s1,.L14
  14:src/semaphore.cpp ****         if(tmp)Scheduler::getInstance().put(tmp);
 298              		.loc 1 14 9
  14:src/semaphore.cpp ****         if(tmp)Scheduler::getInstance().put(tmp);
 299              		.loc 1 14 39 is_stmt 0
 300 0170 13050900 		mv	a0,s2
 301 0174 97000000 		call	_ZN11MySemaphore16get_from_blockedEv
 301      E7800000 
 302              	.LVL28:
 303 017c 93040500 		mv	s1,a0
 304              	.LVL29:
  15:src/semaphore.cpp ****     }
 305              		.loc 1 15 9 is_stmt 1
 306 0180 E30605FE 		beqz	a0,.L13
  15:src/semaphore.cpp ****     }
 307              		.loc 1 15 16
 308              	.LBB73:
 309              	.LBB72:
  12:src/../h/../h/scheduler.hpp ****         return instance;
 310              		.loc 5 12 9
  12:src/../h/../h/scheduler.hpp ****         return instance;
 311              		.loc 5 12 26 is_stmt 0
 312 0184 97070000 		lbu	a5,_ZGVZN9Scheduler11getInstanceEvE8instance
 312      83C70700 
 313 018c E39607FC 		bnez	a5,.L16
 314              	.LVL30:
 315              	.LBB70:
 316              	.LBB71:
  14:src/../h/../h/scheduler.hpp ****     }
  15:src/../h/../h/scheduler.hpp **** 
  16:src/../h/../h/scheduler.hpp ****     Scheduler(const Scheduler&) = delete;
  17:src/../h/../h/scheduler.hpp ****     void operator=(Scheduler const&) = delete;
  18:src/../h/../h/scheduler.hpp **** 
  19:src/../h/../h/scheduler.hpp ****     TCB* get();
  20:src/../h/../h/scheduler.hpp **** 
  21:src/../h/../h/scheduler.hpp ****     void put(TCB* tcb);
  22:src/../h/../h/scheduler.hpp **** 
  23:src/../h/../h/scheduler.hpp **** //    static void printScheduler();
  24:src/../h/../h/scheduler.hpp **** 
  25:src/../h/../h/scheduler.hpp **** private:
  26:src/../h/../h/scheduler.hpp **** 
  27:src/../h/../h/scheduler.hpp ****     Scheduler(){
  28:src/../h/../h/scheduler.hpp ****         head = nullptr;
 317              		.loc 5 28 9 is_stmt 1
 318              		.loc 5 28 14 is_stmt 0
 319 0190 97070000 		la	a5,_ZN9Scheduler4headE
 319      83B70700 
 320 0198 23B00700 		sd	zero,0(a5)
  29:src/../h/../h/scheduler.hpp ****         tail = nullptr;
 321              		.loc 5 29 9 is_stmt 1
 322              		.loc 5 29 14 is_stmt 0
 323 019c 97070000 		la	a5,_ZN9Scheduler4tailE
 323      83B70700 
 324 01a4 23B00700 		sd	zero,0(a5)
 325              	.LBE71:
GAS LISTING /tmp/cceicSzv.s 			page 11


 326              	.LBE70:
  12:src/../h/../h/scheduler.hpp ****         return instance;
 327              		.loc 5 12 26
 328 01a8 93071000 		li	a5,1
 329 01ac 17070000 		sb	a5,_ZGVZN9Scheduler11getInstanceEvE8instance,a4
 329      2300F700 
 330 01b4 6FF05FFA 		j	.L16
 331              	.LVL31:
 332              	.L14:
 333              	.LBE72:
 334              	.LBE73:
  18:src/semaphore.cpp ****     return 0;
 335              		.loc 1 18 5 is_stmt 1
 336              	.LBB74:
 337              	.LBB75:
  32:src/../h/semaphore.hpp ****     int get_val()const{ return val; }
 338              		.loc 2 32 33
  32:src/../h/semaphore.hpp ****     int get_val()const{ return val; }
 339              		.loc 2 32 43 is_stmt 0
 340 01b8 93071000 		li	a5,1
 341 01bc 2302F900 		sb	a5,4(s2)
 342              	.LVL32:
 343              	.LBE75:
 344              	.LBE74:
  19:src/semaphore.cpp **** }
 345              		.loc 1 19 5 is_stmt 1
  20:src/semaphore.cpp **** 
 346              		.loc 1 20 1 is_stmt 0
 347 01c0 13050000 		li	a0,0
 348 01c4 83308101 		ld	ra,24(sp)
 349              		.cfi_restore 1
 350 01c8 03340101 		ld	s0,16(sp)
 351              		.cfi_restore 8
 352              		.cfi_def_cfa 2, 32
 353 01cc 83348100 		ld	s1,8(sp)
 354              		.cfi_restore 9
 355              	.LVL33:
 356 01d0 03390100 		ld	s2,0(sp)
 357              		.cfi_restore 18
 358              	.LVL34:
 359 01d4 13010102 		addi	sp,sp,32
 360              		.cfi_def_cfa_offset 0
 361 01d8 67800000 		jr	ra
 362              		.cfi_endproc
 363              	.LFE50:
 365              		.align	2
 366              		.globl	_ZN11MySemaphore14put_in_blockedEP3TCB
 368              	_ZN11MySemaphore14put_in_blockedEP3TCB:
 369              	.LFB57:
  52:src/semaphore.cpp **** 
  53:src/semaphore.cpp **** void MySemaphore::put_in_blocked(TCB *tcb) {
 370              		.loc 1 53 44 is_stmt 1
 371              		.cfi_startproc
 372              	.LVL35:
 373 01dc 130101FF 		addi	sp,sp,-16
 374              		.cfi_def_cfa_offset 16
 375 01e0 23348100 		sd	s0,8(sp)
GAS LISTING /tmp/cceicSzv.s 			page 12


 376              		.cfi_offset 8, -8
 377 01e4 13040101 		addi	s0,sp,16
 378              		.cfi_def_cfa 8, 0
  54:src/semaphore.cpp ****     if(!head)head = tcb;
 379              		.loc 1 54 5
 380              		.loc 1 54 9 is_stmt 0
 381 01e8 83378500 		ld	a5,8(a0)
 382              		.loc 1 54 5
 383 01ec 638E0700 		beqz	a5,.L22
  55:src/semaphore.cpp ****     else tail->set_next_blocked(tcb);
 384              		.loc 1 55 10 is_stmt 1
 385 01f0 83370501 		ld	a5,16(a0)
 386              	.LVL36:
 387              	.LBB76:
 388              	.LBB77:
  47:src/../h/TCB.hpp **** 
 389              		.loc 4 47 45
  47:src/../h/TCB.hpp **** 
 390              		.loc 4 47 58 is_stmt 0
 391 01f4 23B0B704 		sd	a1,64(a5)
 392              	.LVL37:
 393              	.L20:
 394              	.LBE77:
 395              	.LBE76:
  56:src/semaphore.cpp ****     tail = tcb;
 396              		.loc 1 56 5 is_stmt 1
 397              		.loc 1 56 10 is_stmt 0
 398 01f8 2338B500 		sd	a1,16(a0)
  57:src/semaphore.cpp **** }
 399              		.loc 1 57 1
 400 01fc 03348100 		ld	s0,8(sp)
 401              		.cfi_remember_state
 402              		.cfi_restore 8
 403              		.cfi_def_cfa 2, 16
 404 0200 13010101 		addi	sp,sp,16
 405              		.cfi_def_cfa_offset 0
 406 0204 67800000 		jr	ra
 407              	.L22:
 408              		.cfi_restore_state
  54:src/semaphore.cpp ****     else tail->set_next_blocked(tcb);
 409              		.loc 1 54 14 is_stmt 1 discriminator 1
  54:src/semaphore.cpp ****     else tail->set_next_blocked(tcb);
 410              		.loc 1 54 19 is_stmt 0 discriminator 1
 411 0208 2334B500 		sd	a1,8(a0)
 412 020c 6FF0DFFE 		j	.L20
 413              		.cfi_endproc
 414              	.LFE57:
 416              		.align	2
 417              		.globl	_ZN11MySemaphore5blockEv
 419              	_ZN11MySemaphore5blockEv:
 420              	.LFB58:
  58:src/semaphore.cpp **** 
  59:src/semaphore.cpp **** void MySemaphore::block() {
 421              		.loc 1 59 27 is_stmt 1
 422              		.cfi_startproc
 423              	.LVL38:
 424 0210 130101FF 		addi	sp,sp,-16
GAS LISTING /tmp/cceicSzv.s 			page 13


 425              		.cfi_def_cfa_offset 16
 426 0214 23341100 		sd	ra,8(sp)
 427 0218 23308100 		sd	s0,0(sp)
 428              		.cfi_offset 1, -8
 429              		.cfi_offset 8, -16
 430 021c 13040101 		addi	s0,sp,16
 431              		.cfi_def_cfa 8, 0
  60:src/semaphore.cpp ****     TCB* old = TCB::running;
 432              		.loc 1 60 5
 433              	.LVL39:
  61:src/semaphore.cpp ****     put_in_blocked(old);
 434              		.loc 1 61 5
 435              		.loc 1 61 19 is_stmt 0
 436 0220 97070000 		la	a5,_ZN3TCB7runningE
 436      83B70700 
 437 0228 83B50700 		ld	a1,0(a5)
 438 022c 97000000 		call	_ZN11MySemaphore14put_in_blockedEP3TCB
 438      E7800000 
 439              	.LVL40:
  62:src/semaphore.cpp ****     TCB::yield();
 440              		.loc 1 62 5 is_stmt 1
 441              		.loc 1 62 15 is_stmt 0
 442 0234 97000000 		call	_ZN3TCB5yieldEv@plt
 442      E7800000 
 443              	.LVL41:
  63:src/semaphore.cpp **** }
 444              		.loc 1 63 1
 445 023c 83308100 		ld	ra,8(sp)
 446              		.cfi_restore 1
 447 0240 03340100 		ld	s0,0(sp)
 448              		.cfi_restore 8
 449              		.cfi_def_cfa 2, 16
 450 0244 13010101 		addi	sp,sp,16
 451              		.cfi_def_cfa_offset 0
 452 0248 67800000 		jr	ra
 453              		.cfi_endproc
 454              	.LFE58:
 456              		.align	2
 457              		.globl	_ZN11MySemaphore8sem_waitEPS_
 459              	_ZN11MySemaphore8sem_waitEPS_:
 460              	.LFB51:
  22:src/semaphore.cpp ****     id->set_val(id->get_val() - 1);
 461              		.loc 1 22 44 is_stmt 1
 462              		.cfi_startproc
 463              	.LVL42:
 464 024c 130101FE 		addi	sp,sp,-32
 465              		.cfi_def_cfa_offset 32
 466 0250 233C1100 		sd	ra,24(sp)
 467 0254 23388100 		sd	s0,16(sp)
 468 0258 23349100 		sd	s1,8(sp)
 469              		.cfi_offset 1, -8
 470              		.cfi_offset 8, -16
 471              		.cfi_offset 9, -24
 472 025c 13040102 		addi	s0,sp,32
 473              		.cfi_def_cfa 8, 0
 474 0260 93040500 		mv	s1,a0
  23:src/semaphore.cpp ****     if( id->get_val() < 0)id->block();
GAS LISTING /tmp/cceicSzv.s 			page 14


 475              		.loc 1 23 5
 476              	.LVL43:
 477              	.LBB78:
 478              	.LBB79:
  33:src/../h/semaphore.hpp ****     void set_val(int v){ val = v; }
 479              		.loc 2 33 25
  33:src/../h/semaphore.hpp ****     void set_val(int v){ val = v; }
 480              		.loc 2 33 32 is_stmt 0
 481 0264 83270500 		lw	a5,0(a0)
 482              	.LVL44:
 483              	.LBE79:
 484              	.LBE78:
  23:src/semaphore.cpp ****     if( id->get_val() < 0)id->block();
 485              		.loc 1 23 16
 486 0268 9B87F7FF 		addiw	a5,a5,-1
 487              	.LVL45:
 488              	.LBB80:
 489              	.LBB81:
  34:src/../h/semaphore.hpp **** 
 490              		.loc 2 34 26 is_stmt 1
  34:src/../h/semaphore.hpp **** 
 491              		.loc 2 34 30 is_stmt 0
 492 026c 2320F500 		sw	a5,0(a0)
 493              	.LVL46:
 494              	.LBE81:
 495              	.LBE80:
  24:src/semaphore.cpp ****     if(!id->get_indicator())return 0;
 496              		.loc 1 24 5 is_stmt 1
  33:src/../h/semaphore.hpp ****     void set_val(int v){ val = v; }
 497              		.loc 2 33 25
  24:src/semaphore.cpp ****     if(!id->get_indicator())return 0;
 498              		.loc 1 24 5 is_stmt 0
 499 0270 13970702 		slli	a4,a5,32
 500 0274 63420702 		bltz	a4,.L30
 501              	.LVL47:
 502              	.L26:
  25:src/semaphore.cpp ****     else return -1;
 503              		.loc 1 25 5 is_stmt 1
 504              	.LBB82:
 505              	.LBB83:
  31:src/../h/semaphore.hpp ****     void set_indicator(bool v){ indicator = v; }
 506              		.loc 2 31 32
  31:src/../h/semaphore.hpp ****     void set_indicator(bool v){ indicator = v; }
 507              		.loc 2 31 39 is_stmt 0
 508 0278 83C74400 		lbu	a5,4(s1)
 509              	.LVL48:
 510              	.LBE83:
 511              	.LBE82:
  25:src/semaphore.cpp ****     else return -1;
 512              		.loc 1 25 5
 513 027c 63940702 		bnez	a5,.L28
  25:src/semaphore.cpp ****     else return -1;
 514              		.loc 1 25 36
 515 0280 13050000 		li	a0,0
 516              	.L27:
  27:src/semaphore.cpp **** 
 517              		.loc 1 27 1
GAS LISTING /tmp/cceicSzv.s 			page 15


 518 0284 83308101 		ld	ra,24(sp)
 519              		.cfi_remember_state
 520              		.cfi_restore 1
 521 0288 03340101 		ld	s0,16(sp)
 522              		.cfi_restore 8
 523              		.cfi_def_cfa 2, 32
 524 028c 83348100 		ld	s1,8(sp)
 525              		.cfi_restore 9
 526              	.LVL49:
 527 0290 13010102 		addi	sp,sp,32
 528              		.cfi_def_cfa_offset 0
 529 0294 67800000 		jr	ra
 530              	.LVL50:
 531              	.L30:
 532              		.cfi_restore_state
  24:src/semaphore.cpp ****     if(!id->get_indicator())return 0;
 533              		.loc 1 24 27 is_stmt 1 discriminator 1
  24:src/semaphore.cpp ****     if(!id->get_indicator())return 0;
 534              		.loc 1 24 36 is_stmt 0 discriminator 1
 535 0298 97000000 		call	_ZN11MySemaphore5blockEv
 535      E7800000 
 536              	.LVL51:
 537 02a0 6FF09FFD 		j	.L26
 538              	.L28:
  26:src/semaphore.cpp **** }
 539              		.loc 1 26 18
 540 02a4 1305F0FF 		li	a0,-1
 541 02a8 6FF0DFFD 		j	.L27
 542              		.cfi_endproc
 543              	.LFE51:
 545              		.align	2
 546              		.globl	_ZN11MySemaphore7unblockEv
 548              	_ZN11MySemaphore7unblockEv:
 549              	.LFB59:
  64:src/semaphore.cpp **** 
  65:src/semaphore.cpp **** void MySemaphore::unblock() {
 550              		.loc 1 65 29 is_stmt 1
 551              		.cfi_startproc
 552              	.LVL52:
 553 02ac 130101FF 		addi	sp,sp,-16
 554              		.cfi_def_cfa_offset 16
 555 02b0 23341100 		sd	ra,8(sp)
 556 02b4 23308100 		sd	s0,0(sp)
 557              		.cfi_offset 1, -8
 558              		.cfi_offset 8, -16
 559 02b8 13040101 		addi	s0,sp,16
 560              		.cfi_def_cfa 8, 0
  66:src/semaphore.cpp ****     TCB* tmp = get_from_blocked();
 561              		.loc 1 66 5
 562              		.loc 1 66 32 is_stmt 0
 563 02bc 97000000 		call	_ZN11MySemaphore16get_from_blockedEv
 563      E7800000 
 564              	.LVL53:
  67:src/semaphore.cpp ****     if(tmp)Scheduler::getInstance().put(tmp);
 565              		.loc 1 67 5 is_stmt 1
 566 02c4 63040504 		beqz	a0,.L31
 567 02c8 93050500 		mv	a1,a0
GAS LISTING /tmp/cceicSzv.s 			page 16


 568              		.loc 1 67 12
 569              	.LBB84:
 570              	.LBB85:
  12:src/../h/../h/scheduler.hpp ****         return instance;
 571              		.loc 5 12 9
  12:src/../h/../h/scheduler.hpp ****         return instance;
 572              		.loc 5 12 26 is_stmt 0
 573 02cc 97070000 		lbu	a5,_ZGVZN9Scheduler11getInstanceEvE8instance
 573      83C70700 
 574 02d4 63940702 		bnez	a5,.L33
 575              	.LVL54:
 576              	.LBB86:
 577              	.LBB87:
  28:src/../h/../h/scheduler.hpp ****         tail = nullptr;
 578              		.loc 5 28 9 is_stmt 1
  28:src/../h/../h/scheduler.hpp ****         tail = nullptr;
 579              		.loc 5 28 14 is_stmt 0
 580 02d8 97070000 		la	a5,_ZN9Scheduler4headE
 580      83B70700 
 581 02e0 23B00700 		sd	zero,0(a5)
 582              		.loc 5 29 9 is_stmt 1
 583              		.loc 5 29 14 is_stmt 0
 584 02e4 97070000 		la	a5,_ZN9Scheduler4tailE
 584      83B70700 
 585 02ec 23B00700 		sd	zero,0(a5)
 586              	.LBE87:
 587              	.LBE86:
  12:src/../h/../h/scheduler.hpp ****         return instance;
 588              		.loc 5 12 26
 589 02f0 93071000 		li	a5,1
 590 02f4 17070000 		sb	a5,_ZGVZN9Scheduler11getInstanceEvE8instance,a4
 590      2300F700 
 591              	.LVL55:
 592              	.L33:
  13:src/../h/../h/scheduler.hpp ****     }
 593              		.loc 5 13 9 is_stmt 1
 594              	.LBE85:
 595              	.LBE84:
 596              		.loc 1 67 40 is_stmt 0
 597 02fc 17050000 		lla	a0,_ZZN9Scheduler11getInstanceEvE8instance
 597      13050500 
 598              	.LVL56:
 599 0304 97000000 		call	_ZN9Scheduler3putEP3TCB@plt
 599      E7800000 
 600              	.LVL57:
 601              	.L31:
  68:src/semaphore.cpp **** }
 602              		.loc 1 68 1
 603 030c 83308100 		ld	ra,8(sp)
 604              		.cfi_restore 1
 605 0310 03340100 		ld	s0,0(sp)
 606              		.cfi_restore 8
 607              		.cfi_def_cfa 2, 16
 608 0314 13010101 		addi	sp,sp,16
 609              		.cfi_def_cfa_offset 0
 610 0318 67800000 		jr	ra
 611              		.cfi_endproc
GAS LISTING /tmp/cceicSzv.s 			page 17


 612              	.LFE59:
 614              		.align	2
 615              		.globl	_ZN11MySemaphore10sem_signalEPS_
 617              	_ZN11MySemaphore10sem_signalEPS_:
 618              	.LFB52:
  29:src/semaphore.cpp ****     id->set_val(id->get_val() + 1);
 619              		.loc 1 29 46 is_stmt 1
 620              		.cfi_startproc
 621              	.LVL58:
 622 031c 130101FE 		addi	sp,sp,-32
 623              		.cfi_def_cfa_offset 32
 624 0320 233C1100 		sd	ra,24(sp)
 625 0324 23388100 		sd	s0,16(sp)
 626 0328 23349100 		sd	s1,8(sp)
 627              		.cfi_offset 1, -8
 628              		.cfi_offset 8, -16
 629              		.cfi_offset 9, -24
 630 032c 13040102 		addi	s0,sp,32
 631              		.cfi_def_cfa 8, 0
 632 0330 93040500 		mv	s1,a0
  30:src/semaphore.cpp ****     if( id->get_val() <= 0)id->unblock();
 633              		.loc 1 30 5
 634              	.LVL59:
 635              	.LBB88:
 636              	.LBB89:
  33:src/../h/semaphore.hpp ****     void set_val(int v){ val = v; }
 637              		.loc 2 33 25
  33:src/../h/semaphore.hpp ****     void set_val(int v){ val = v; }
 638              		.loc 2 33 32 is_stmt 0
 639 0334 83270500 		lw	a5,0(a0)
 640              	.LVL60:
 641              	.LBE89:
 642              	.LBE88:
  30:src/semaphore.cpp ****     if( id->get_val() <= 0)id->unblock();
 643              		.loc 1 30 16
 644 0338 9B871700 		addiw	a5,a5,1
 645 033c 1B870700 		sext.w	a4,a5
 646              	.LVL61:
 647              	.LBB90:
 648              	.LBB91:
  34:src/../h/semaphore.hpp **** 
 649              		.loc 2 34 26 is_stmt 1
  34:src/../h/semaphore.hpp **** 
 650              		.loc 2 34 30 is_stmt 0
 651 0340 2320F500 		sw	a5,0(a0)
 652              	.LVL62:
 653              	.LBE91:
 654              	.LBE90:
  31:src/semaphore.cpp ****     if(!id->get_indicator())return 0;
 655              		.loc 1 31 5 is_stmt 1
  33:src/../h/semaphore.hpp ****     void set_val(int v){ val = v; }
 656              		.loc 2 33 25
  31:src/semaphore.cpp ****     if(!id->get_indicator())return 0;
 657              		.loc 1 31 5 is_stmt 0
 658 0344 6352E002 		blez	a4,.L40
 659              	.LVL63:
 660              	.L36:
GAS LISTING /tmp/cceicSzv.s 			page 18


  32:src/semaphore.cpp ****     else return -1;
 661              		.loc 1 32 5 is_stmt 1
 662              	.LBB92:
 663              	.LBB93:
  31:src/../h/semaphore.hpp ****     void set_indicator(bool v){ indicator = v; }
 664              		.loc 2 31 32
  31:src/../h/semaphore.hpp ****     void set_indicator(bool v){ indicator = v; }
 665              		.loc 2 31 39 is_stmt 0
 666 0348 83C74400 		lbu	a5,4(s1)
 667              	.LVL64:
 668              	.LBE93:
 669              	.LBE92:
  32:src/semaphore.cpp ****     else return -1;
 670              		.loc 1 32 5
 671 034c 63940702 		bnez	a5,.L38
  32:src/semaphore.cpp ****     else return -1;
 672              		.loc 1 32 36
 673 0350 13050000 		li	a0,0
 674              	.L37:
  34:src/semaphore.cpp **** 
 675              		.loc 1 34 1
 676 0354 83308101 		ld	ra,24(sp)
 677              		.cfi_remember_state
 678              		.cfi_restore 1
 679 0358 03340101 		ld	s0,16(sp)
 680              		.cfi_restore 8
 681              		.cfi_def_cfa 2, 32
 682 035c 83348100 		ld	s1,8(sp)
 683              		.cfi_restore 9
 684              	.LVL65:
 685 0360 13010102 		addi	sp,sp,32
 686              		.cfi_def_cfa_offset 0
 687 0364 67800000 		jr	ra
 688              	.LVL66:
 689              	.L40:
 690              		.cfi_restore_state
  31:src/semaphore.cpp ****     if(!id->get_indicator())return 0;
 691              		.loc 1 31 28 is_stmt 1 discriminator 1
  31:src/semaphore.cpp ****     if(!id->get_indicator())return 0;
 692              		.loc 1 31 39 is_stmt 0 discriminator 1
 693 0368 97000000 		call	_ZN11MySemaphore7unblockEv
 693      E7800000 
 694              	.LVL67:
 695 0370 6FF09FFD 		j	.L36
 696              	.L38:
  33:src/semaphore.cpp **** }
 697              		.loc 1 33 18
 698 0374 1305F0FF 		li	a0,-1
 699 0378 6FF0DFFD 		j	.L37
 700              		.cfi_endproc
 701              	.LFE52:
 703              		.weak	_ZGVZN9Scheduler11getInstanceEvE8instance
 704              		.section	.bss._ZGVZN9Scheduler11getInstanceEvE8instance,"awG",@nobits,_ZGVZN9Scheduler11getInstanc
 705              		.align	3
 708              	_ZGVZN9Scheduler11getInstanceEvE8instance:
 709 0000 00000000 		.zero	8
 709      00000000 
GAS LISTING /tmp/cceicSzv.s 			page 19


 710              		.weak	_ZZN9Scheduler11getInstanceEvE8instance
 711              		.section	.bss._ZZN9Scheduler11getInstanceEvE8instance,"awG",@nobits,_ZZN9Scheduler11getInstanceEvE
 712              		.align	3
 715              	_ZZN9Scheduler11getInstanceEvE8instance:
 716 0000 00       		.zero	1
 717              		.weak	_ZGVZN15MemoryAllocator11getInstanceEvE8instance
 718              		.section	.bss._ZGVZN15MemoryAllocator11getInstanceEvE8instance,"awG",@nobits,_ZGVZN15MemoryAllocat
 719              		.align	3
 722              	_ZGVZN15MemoryAllocator11getInstanceEvE8instance:
 723 0000 00000000 		.zero	8
 723      00000000 
 724              		.weak	_ZZN15MemoryAllocator11getInstanceEvE8instance
 725              		.section	.bss._ZZN15MemoryAllocator11getInstanceEvE8instance,"awG",@nobits,_ZZN15MemoryAllocator11
 726              		.align	3
 729              	_ZZN15MemoryAllocator11getInstanceEvE8instance:
 730 0000 00000000 		.zero	8
 730      00000000 
 731              		.text
 732              	.Letext0:
 733              		.file 6 "src/../h/../lib/hw.h"
GAS LISTING /tmp/cceicSzv.s 			page 20


DEFINED SYMBOLS
                            *ABS*:0000000000000000 semaphore.cpp
     /tmp/cceicSzv.s:9      .text:0000000000000000 _ZN11MySemaphoreC2Em
     /tmp/cceicSzv.s:13     .text:0000000000000000 .L0 
     /tmp/cceicSzv.s:15     .text:0000000000000000 .L0 
     /tmp/cceicSzv.s:16     .text:0000000000000004 .L0 
     /tmp/cceicSzv.s:18     .text:0000000000000008 .L0 
     /tmp/cceicSzv.s:20     .text:000000000000000c .L0 
     /tmp/cceicSzv.s:23     .text:000000000000000c .L0 
     /tmp/cceicSzv.s:24     .text:000000000000000c .L0 
     /tmp/cceicSzv.s:26     .text:0000000000000010 .L0 
     /tmp/cceicSzv.s:27     .text:0000000000000010 .L0 
     /tmp/cceicSzv.s:29     .text:0000000000000014 .L0 
     /tmp/cceicSzv.s:31     .text:0000000000000018 .L0 
     /tmp/cceicSzv.s:32     .text:0000000000000018 .L0 
     /tmp/cceicSzv.s:35     .text:000000000000001c .L0 
     /tmp/cceicSzv.s:36     .text:0000000000000020 .L0 
     /tmp/cceicSzv.s:37     .text:0000000000000020 .L0 
     /tmp/cceicSzv.s:39     .text:0000000000000024 .L0 
     /tmp/cceicSzv.s:41     .text:0000000000000028 .L0 
     /tmp/cceicSzv.s:9      .text:0000000000000000 _ZN11MySemaphoreC1Em
     /tmp/cceicSzv.s:49     .text:0000000000000028 _ZN11MySemaphore8sem_openEPPS_m
     /tmp/cceicSzv.s:52     .text:0000000000000028 .L0 
     /tmp/cceicSzv.s:54     .text:0000000000000028 .L0 
     /tmp/cceicSzv.s:55     .text:000000000000002c .L0 
     /tmp/cceicSzv.s:61     .text:0000000000000040 .L0 
     /tmp/cceicSzv.s:62     .text:0000000000000040 .L0 
     /tmp/cceicSzv.s:63     .text:0000000000000040 .L0 
     /tmp/cceicSzv.s:64     .text:0000000000000040 .L0 
     /tmp/cceicSzv.s:65     .text:0000000000000040 .L0 
     /tmp/cceicSzv.s:67     .text:0000000000000044 .L0 
     /tmp/cceicSzv.s:75     .text:000000000000004c .L0 
     /tmp/cceicSzv.s:76     .text:000000000000004c .L0 
     /tmp/cceicSzv.s:80     .text:000000000000004c .L0 
     /tmp/cceicSzv.s:81     .text:000000000000004c .L0 
     /tmp/cceicSzv.s:722    .bss._ZGVZN15MemoryAllocator11getInstanceEvE8instance:0000000000000000 _ZGVZN15MemoryAllocator11getInstanceEvE8instance
     /tmp/cceicSzv.s:82     .text:000000000000004c .L0 
     /tmp/cceicSzv.s:89     .text:0000000000000058 .L0 
     /tmp/cceicSzv.s:90     .text:0000000000000058 .L0 
     /tmp/cceicSzv.s:94     .text:0000000000000064 .L0 
     /tmp/cceicSzv.s:95     .text:0000000000000064 .L0 
     /tmp/cceicSzv.s:98     .text:0000000000000070 .L0 
     /tmp/cceicSzv.s:101    .text:0000000000000074 .L0 
     /tmp/cceicSzv.s:102    .text:0000000000000074 .L0 
     /tmp/cceicSzv.s:105    .text:0000000000000078 .L0 
     /tmp/cceicSzv.s:108    .text:000000000000007c .L0 
     /tmp/cceicSzv.s:109    .text:000000000000007c .L0 
     /tmp/cceicSzv.s:111    .text:0000000000000080 .L0 
     /tmp/cceicSzv.s:116    .text:000000000000008c .L0 
     /tmp/cceicSzv.s:729    .bss._ZZN15MemoryAllocator11getInstanceEvE8instance:0000000000000000 _ZZN15MemoryAllocator11getInstanceEvE8instance
     /tmp/cceicSzv.s:119    .text:0000000000000090 .L0 
     /tmp/cceicSzv.s:121    .text:0000000000000098 .L0 
     /tmp/cceicSzv.s:122    .text:0000000000000098 .L0 
     /tmp/cceicSzv.s:124    .text:000000000000009c .L0 
     /tmp/cceicSzv.s:125    .text:000000000000009c .L0 
     /tmp/cceicSzv.s:127    .text:00000000000000a0 .L0 
     /tmp/cceicSzv.s:128    .text:00000000000000a0 .L0 
GAS LISTING /tmp/cceicSzv.s 			page 21


     /tmp/cceicSzv.s:134    .text:00000000000000a4 .L0 
     /tmp/cceicSzv.s:140    .text:00000000000000b0 .L0 
     /tmp/cceicSzv.s:141    .text:00000000000000b0 .L0 
     /tmp/cceicSzv.s:152    .text:00000000000000c8 .L0 
     /tmp/cceicSzv.s:156    .text:00000000000000d4 .L0 
     /tmp/cceicSzv.s:158    .text:00000000000000d8 .L0 
     /tmp/cceicSzv.s:159    .text:00000000000000d8 .L0 
     /tmp/cceicSzv.s:161    .text:00000000000000e0 .L0 
     /tmp/cceicSzv.s:163    .text:00000000000000e4 .L0 
     /tmp/cceicSzv.s:164    .text:00000000000000e4 .L0 
     /tmp/cceicSzv.s:166    .text:00000000000000e8 .L0 
     /tmp/cceicSzv.s:169    .text:00000000000000ec .L0 
     /tmp/cceicSzv.s:171    .text:00000000000000f0 .L0 
     /tmp/cceicSzv.s:174    .text:00000000000000f4 .L0 
     /tmp/cceicSzv.s:176    .text:00000000000000f8 .L0 
     /tmp/cceicSzv.s:182    .text:00000000000000f8 _ZN11MySemaphore16get_from_blockedEv
     /tmp/cceicSzv.s:185    .text:00000000000000f8 .L0 
     /tmp/cceicSzv.s:187    .text:00000000000000f8 .L0 
     /tmp/cceicSzv.s:188    .text:00000000000000fc .L0 
     /tmp/cceicSzv.s:190    .text:0000000000000100 .L0 
     /tmp/cceicSzv.s:192    .text:0000000000000104 .L0 
     /tmp/cceicSzv.s:196    .text:0000000000000108 .L0 
     /tmp/cceicSzv.s:197    .text:0000000000000108 .L0 
     /tmp/cceicSzv.s:200    .text:000000000000010c .L0 
     /tmp/cceicSzv.s:204    .text:0000000000000110 .L0 
     /tmp/cceicSzv.s:208    .text:0000000000000110 .L0 
     /tmp/cceicSzv.s:209    .text:0000000000000110 .L0 
     /tmp/cceicSzv.s:210    .text:0000000000000110 .L0 
     /tmp/cceicSzv.s:215    .text:0000000000000114 .L0 
     /tmp/cceicSzv.s:217    .text:0000000000000118 .L0 
     /tmp/cceicSzv.s:223    .text:000000000000011c .L0 
     /tmp/cceicSzv.s:224    .text:000000000000011c .L0 
     /tmp/cceicSzv.s:225    .text:000000000000011c .L0 
     /tmp/cceicSzv.s:233    .text:0000000000000120 .L0 
     /tmp/cceicSzv.s:234    .text:0000000000000120 .L0 
     /tmp/cceicSzv.s:235    .text:0000000000000124 .L0 
     /tmp/cceicSzv.s:236    .text:0000000000000124 .L0 
     /tmp/cceicSzv.s:237    .text:0000000000000124 .L0 
     /tmp/cceicSzv.s:239    .text:0000000000000128 .L0 
     /tmp/cceicSzv.s:243    .text:000000000000012c .L0 
     /tmp/cceicSzv.s:247    .text:000000000000012c .L0 
     /tmp/cceicSzv.s:248    .text:000000000000012c .L0 
     /tmp/cceicSzv.s:252    .text:0000000000000134 .L0 
     /tmp/cceicSzv.s:258    .text:0000000000000134 _ZN11MySemaphore9sem_closeEPS_
     /tmp/cceicSzv.s:261    .text:0000000000000134 .L0 
     /tmp/cceicSzv.s:263    .text:0000000000000134 .L0 
     /tmp/cceicSzv.s:264    .text:0000000000000138 .L0 
     /tmp/cceicSzv.s:269    .text:0000000000000148 .L0 
     /tmp/cceicSzv.s:270    .text:0000000000000148 .L0 
     /tmp/cceicSzv.s:271    .text:0000000000000148 .L0 
     /tmp/cceicSzv.s:272    .text:0000000000000148 .L0 
     /tmp/cceicSzv.s:274    .text:000000000000014c .L0 
     /tmp/cceicSzv.s:277    .text:0000000000000150 .L0 
     /tmp/cceicSzv.s:278    .text:0000000000000150 .L0 
     /tmp/cceicSzv.s:289    .text:0000000000000158 .L0 
     /tmp/cceicSzv.s:290    .text:0000000000000158 .L0 
     /tmp/cceicSzv.s:715    .bss._ZZN9Scheduler11getInstanceEvE8instance:0000000000000000 _ZZN9Scheduler11getInstanceEvE8instance
GAS LISTING /tmp/cceicSzv.s 			page 22


     /tmp/cceicSzv.s:296    .text:000000000000016c .L0 
     /tmp/cceicSzv.s:297    .text:000000000000016c .L0 
     /tmp/cceicSzv.s:299    .text:0000000000000170 .L0 
     /tmp/cceicSzv.s:300    .text:0000000000000170 .L0 
     /tmp/cceicSzv.s:306    .text:0000000000000180 .L0 
     /tmp/cceicSzv.s:310    .text:0000000000000184 .L0 
     /tmp/cceicSzv.s:311    .text:0000000000000184 .L0 
     /tmp/cceicSzv.s:708    .bss._ZGVZN9Scheduler11getInstanceEvE8instance:0000000000000000 _ZGVZN9Scheduler11getInstanceEvE8instance
     /tmp/cceicSzv.s:312    .text:0000000000000184 .L0 
     /tmp/cceicSzv.s:318    .text:0000000000000190 .L0 
     /tmp/cceicSzv.s:319    .text:0000000000000190 .L0 
     /tmp/cceicSzv.s:322    .text:000000000000019c .L0 
     /tmp/cceicSzv.s:323    .text:000000000000019c .L0 
     /tmp/cceicSzv.s:328    .text:00000000000001a8 .L0 
     /tmp/cceicSzv.s:338    .text:00000000000001b8 .L0 
     /tmp/cceicSzv.s:339    .text:00000000000001b8 .L0 
     /tmp/cceicSzv.s:340    .text:00000000000001b8 .L0 
     /tmp/cceicSzv.s:346    .text:00000000000001c0 .L0 
     /tmp/cceicSzv.s:347    .text:00000000000001c0 .L0 
     /tmp/cceicSzv.s:349    .text:00000000000001c8 .L0 
     /tmp/cceicSzv.s:351    .text:00000000000001cc .L0 
     /tmp/cceicSzv.s:352    .text:00000000000001cc .L0 
     /tmp/cceicSzv.s:354    .text:00000000000001d0 .L0 
     /tmp/cceicSzv.s:357    .text:00000000000001d4 .L0 
     /tmp/cceicSzv.s:360    .text:00000000000001d8 .L0 
     /tmp/cceicSzv.s:362    .text:00000000000001dc .L0 
     /tmp/cceicSzv.s:368    .text:00000000000001dc _ZN11MySemaphore14put_in_blockedEP3TCB
     /tmp/cceicSzv.s:371    .text:00000000000001dc .L0 
     /tmp/cceicSzv.s:373    .text:00000000000001dc .L0 
     /tmp/cceicSzv.s:374    .text:00000000000001e0 .L0 
     /tmp/cceicSzv.s:376    .text:00000000000001e4 .L0 
     /tmp/cceicSzv.s:378    .text:00000000000001e8 .L0 
     /tmp/cceicSzv.s:380    .text:00000000000001e8 .L0 
     /tmp/cceicSzv.s:381    .text:00000000000001e8 .L0 
     /tmp/cceicSzv.s:383    .text:00000000000001ec .L0 
     /tmp/cceicSzv.s:385    .text:00000000000001f0 .L0 
     /tmp/cceicSzv.s:390    .text:00000000000001f4 .L0 
     /tmp/cceicSzv.s:391    .text:00000000000001f4 .L0 
     /tmp/cceicSzv.s:397    .text:00000000000001f8 .L0 
     /tmp/cceicSzv.s:398    .text:00000000000001f8 .L0 
     /tmp/cceicSzv.s:400    .text:00000000000001fc .L0 
     /tmp/cceicSzv.s:401    .text:0000000000000200 .L0 
     /tmp/cceicSzv.s:402    .text:0000000000000200 .L0 
     /tmp/cceicSzv.s:403    .text:0000000000000200 .L0 
     /tmp/cceicSzv.s:405    .text:0000000000000204 .L0 
     /tmp/cceicSzv.s:408    .text:0000000000000208 .L0 
     /tmp/cceicSzv.s:410    .text:0000000000000208 .L0 
     /tmp/cceicSzv.s:411    .text:0000000000000208 .L0 
     /tmp/cceicSzv.s:413    .text:0000000000000210 .L0 
     /tmp/cceicSzv.s:419    .text:0000000000000210 _ZN11MySemaphore5blockEv
     /tmp/cceicSzv.s:422    .text:0000000000000210 .L0 
     /tmp/cceicSzv.s:424    .text:0000000000000210 .L0 
     /tmp/cceicSzv.s:425    .text:0000000000000214 .L0 
     /tmp/cceicSzv.s:428    .text:000000000000021c .L0 
     /tmp/cceicSzv.s:429    .text:000000000000021c .L0 
     /tmp/cceicSzv.s:431    .text:0000000000000220 .L0 
     /tmp/cceicSzv.s:434    .text:0000000000000220 .L0 
GAS LISTING /tmp/cceicSzv.s 			page 23


     /tmp/cceicSzv.s:435    .text:0000000000000220 .L0 
     /tmp/cceicSzv.s:436    .text:0000000000000220 .L0 
     /tmp/cceicSzv.s:441    .text:0000000000000234 .L0 
     /tmp/cceicSzv.s:442    .text:0000000000000234 .L0 
     /tmp/cceicSzv.s:445    .text:000000000000023c .L0 
     /tmp/cceicSzv.s:446    .text:0000000000000240 .L0 
     /tmp/cceicSzv.s:448    .text:0000000000000244 .L0 
     /tmp/cceicSzv.s:449    .text:0000000000000244 .L0 
     /tmp/cceicSzv.s:451    .text:0000000000000248 .L0 
     /tmp/cceicSzv.s:453    .text:000000000000024c .L0 
     /tmp/cceicSzv.s:459    .text:000000000000024c _ZN11MySemaphore8sem_waitEPS_
     /tmp/cceicSzv.s:462    .text:000000000000024c .L0 
     /tmp/cceicSzv.s:464    .text:000000000000024c .L0 
     /tmp/cceicSzv.s:465    .text:0000000000000250 .L0 
     /tmp/cceicSzv.s:469    .text:000000000000025c .L0 
     /tmp/cceicSzv.s:470    .text:000000000000025c .L0 
     /tmp/cceicSzv.s:471    .text:000000000000025c .L0 
     /tmp/cceicSzv.s:473    .text:0000000000000260 .L0 
     /tmp/cceicSzv.s:479    .text:0000000000000264 .L0 
     /tmp/cceicSzv.s:480    .text:0000000000000264 .L0 
     /tmp/cceicSzv.s:481    .text:0000000000000264 .L0 
     /tmp/cceicSzv.s:486    .text:0000000000000268 .L0 
     /tmp/cceicSzv.s:491    .text:000000000000026c .L0 
     /tmp/cceicSzv.s:492    .text:000000000000026c .L0 
     /tmp/cceicSzv.s:497    .text:0000000000000270 .L0 
     /tmp/cceicSzv.s:498    .text:0000000000000270 .L0 
     /tmp/cceicSzv.s:499    .text:0000000000000270 .L0 
     /tmp/cceicSzv.s:506    .text:0000000000000278 .L0 
     /tmp/cceicSzv.s:507    .text:0000000000000278 .L0 
     /tmp/cceicSzv.s:508    .text:0000000000000278 .L0 
     /tmp/cceicSzv.s:513    .text:000000000000027c .L0 
     /tmp/cceicSzv.s:515    .text:0000000000000280 .L0 
     /tmp/cceicSzv.s:518    .text:0000000000000284 .L0 
     /tmp/cceicSzv.s:519    .text:0000000000000288 .L0 
     /tmp/cceicSzv.s:520    .text:0000000000000288 .L0 
     /tmp/cceicSzv.s:522    .text:000000000000028c .L0 
     /tmp/cceicSzv.s:523    .text:000000000000028c .L0 
     /tmp/cceicSzv.s:525    .text:0000000000000290 .L0 
     /tmp/cceicSzv.s:528    .text:0000000000000294 .L0 
     /tmp/cceicSzv.s:532    .text:0000000000000298 .L0 
     /tmp/cceicSzv.s:534    .text:0000000000000298 .L0 
     /tmp/cceicSzv.s:535    .text:0000000000000298 .L0 
     /tmp/cceicSzv.s:540    .text:00000000000002a4 .L0 
     /tmp/cceicSzv.s:542    .text:00000000000002ac .L0 
     /tmp/cceicSzv.s:548    .text:00000000000002ac _ZN11MySemaphore7unblockEv
     /tmp/cceicSzv.s:551    .text:00000000000002ac .L0 
     /tmp/cceicSzv.s:553    .text:00000000000002ac .L0 
     /tmp/cceicSzv.s:554    .text:00000000000002b0 .L0 
     /tmp/cceicSzv.s:557    .text:00000000000002b8 .L0 
     /tmp/cceicSzv.s:558    .text:00000000000002b8 .L0 
     /tmp/cceicSzv.s:560    .text:00000000000002bc .L0 
     /tmp/cceicSzv.s:562    .text:00000000000002bc .L0 
     /tmp/cceicSzv.s:563    .text:00000000000002bc .L0 
     /tmp/cceicSzv.s:566    .text:00000000000002c4 .L0 
     /tmp/cceicSzv.s:571    .text:00000000000002cc .L0 
     /tmp/cceicSzv.s:572    .text:00000000000002cc .L0 
     /tmp/cceicSzv.s:573    .text:00000000000002cc .L0 
GAS LISTING /tmp/cceicSzv.s 			page 24


     /tmp/cceicSzv.s:579    .text:00000000000002d8 .L0 
     /tmp/cceicSzv.s:580    .text:00000000000002d8 .L0 
     /tmp/cceicSzv.s:583    .text:00000000000002e4 .L0 
     /tmp/cceicSzv.s:584    .text:00000000000002e4 .L0 
     /tmp/cceicSzv.s:589    .text:00000000000002f0 .L0 
     /tmp/cceicSzv.s:596    .text:00000000000002fc .L0 
     /tmp/cceicSzv.s:597    .text:00000000000002fc .L0 
     /tmp/cceicSzv.s:603    .text:000000000000030c .L0 
     /tmp/cceicSzv.s:604    .text:0000000000000310 .L0 
     /tmp/cceicSzv.s:606    .text:0000000000000314 .L0 
     /tmp/cceicSzv.s:607    .text:0000000000000314 .L0 
     /tmp/cceicSzv.s:609    .text:0000000000000318 .L0 
     /tmp/cceicSzv.s:611    .text:000000000000031c .L0 
     /tmp/cceicSzv.s:617    .text:000000000000031c _ZN11MySemaphore10sem_signalEPS_
     /tmp/cceicSzv.s:620    .text:000000000000031c .L0 
     /tmp/cceicSzv.s:622    .text:000000000000031c .L0 
     /tmp/cceicSzv.s:623    .text:0000000000000320 .L0 
     /tmp/cceicSzv.s:627    .text:000000000000032c .L0 
     /tmp/cceicSzv.s:628    .text:000000000000032c .L0 
     /tmp/cceicSzv.s:629    .text:000000000000032c .L0 
     /tmp/cceicSzv.s:631    .text:0000000000000330 .L0 
     /tmp/cceicSzv.s:637    .text:0000000000000334 .L0 
     /tmp/cceicSzv.s:638    .text:0000000000000334 .L0 
     /tmp/cceicSzv.s:639    .text:0000000000000334 .L0 
     /tmp/cceicSzv.s:644    .text:0000000000000338 .L0 
     /tmp/cceicSzv.s:650    .text:0000000000000340 .L0 
     /tmp/cceicSzv.s:651    .text:0000000000000340 .L0 
     /tmp/cceicSzv.s:656    .text:0000000000000344 .L0 
     /tmp/cceicSzv.s:657    .text:0000000000000344 .L0 
     /tmp/cceicSzv.s:658    .text:0000000000000344 .L0 
     /tmp/cceicSzv.s:664    .text:0000000000000348 .L0 
     /tmp/cceicSzv.s:665    .text:0000000000000348 .L0 
     /tmp/cceicSzv.s:666    .text:0000000000000348 .L0 
     /tmp/cceicSzv.s:671    .text:000000000000034c .L0 
     /tmp/cceicSzv.s:673    .text:0000000000000350 .L0 
     /tmp/cceicSzv.s:676    .text:0000000000000354 .L0 
     /tmp/cceicSzv.s:677    .text:0000000000000358 .L0 
     /tmp/cceicSzv.s:678    .text:0000000000000358 .L0 
     /tmp/cceicSzv.s:680    .text:000000000000035c .L0 
     /tmp/cceicSzv.s:681    .text:000000000000035c .L0 
     /tmp/cceicSzv.s:683    .text:0000000000000360 .L0 
     /tmp/cceicSzv.s:686    .text:0000000000000364 .L0 
     /tmp/cceicSzv.s:690    .text:0000000000000368 .L0 
     /tmp/cceicSzv.s:692    .text:0000000000000368 .L0 
     /tmp/cceicSzv.s:693    .text:0000000000000368 .L0 
     /tmp/cceicSzv.s:698    .text:0000000000000374 .L0 
     /tmp/cceicSzv.s:700    .text:000000000000037c .L0 
     /tmp/cceicSzv.s:734    .text:000000000000037c .L0 
     /tmp/cceicSzv.s:82     .text:000000000000004c .L0 
     /tmp/cceicSzv.s:90     .text:0000000000000058 .L0 
     /tmp/cceicSzv.s:95     .text:0000000000000064 .L0 
     /tmp/cceicSzv.s:119    .text:0000000000000090 .L0 
     /tmp/cceicSzv.s:135    .text:00000000000000a8 .L0 
     /tmp/cceicSzv.s:143    .text:00000000000000b4 .L0 
     /tmp/cceicSzv.s:291    .text:000000000000015c .L0 
     /tmp/cceicSzv.s:312    .text:0000000000000184 .L0 
     /tmp/cceicSzv.s:319    .text:0000000000000190 .L0 
GAS LISTING /tmp/cceicSzv.s 			page 25


     /tmp/cceicSzv.s:323    .text:000000000000019c .L0 
     /tmp/cceicSzv.s:329    .text:00000000000001ac .L0 
     /tmp/cceicSzv.s:436    .text:0000000000000220 .L0 
     /tmp/cceicSzv.s:573    .text:00000000000002cc .L0 
     /tmp/cceicSzv.s:580    .text:00000000000002d8 .L0 
     /tmp/cceicSzv.s:584    .text:00000000000002e4 .L0 
     /tmp/cceicSzv.s:590    .text:00000000000002f4 .L0 
     /tmp/cceicSzv.s:597    .text:00000000000002fc .L0 
     /tmp/cceicSzv.s:136    .text:00000000000000b0 .L4
     /tmp/cceicSzv.s:114    .text:000000000000008c .L5
     /tmp/cceicSzv.s:230    .text:0000000000000120 .L7
     /tmp/cceicSzv.s:242    .text:000000000000012c .L11
     /tmp/cceicSzv.s:218    .text:000000000000011c .L9
     /tmp/cceicSzv.s:294    .text:000000000000016c .L13
     /tmp/cceicSzv.s:332    .text:00000000000001b8 .L14
     /tmp/cceicSzv.s:282    .text:0000000000000158 .L16
     /tmp/cceicSzv.s:407    .text:0000000000000208 .L22
     /tmp/cceicSzv.s:393    .text:00000000000001f8 .L20
     /tmp/cceicSzv.s:531    .text:0000000000000298 .L30
     /tmp/cceicSzv.s:538    .text:00000000000002a4 .L28
     /tmp/cceicSzv.s:502    .text:0000000000000278 .L26
     /tmp/cceicSzv.s:516    .text:0000000000000284 .L27
     /tmp/cceicSzv.s:601    .text:000000000000030c .L31
     /tmp/cceicSzv.s:592    .text:00000000000002fc .L33
     /tmp/cceicSzv.s:689    .text:0000000000000368 .L40
     /tmp/cceicSzv.s:696    .text:0000000000000374 .L38
     /tmp/cceicSzv.s:660    .text:0000000000000348 .L36
     /tmp/cceicSzv.s:674    .text:0000000000000354 .L37
     /tmp/cceicSzv.s:2666   .debug_abbrev:0000000000000000 .Ldebug_abbrev0
     /tmp/cceicSzv.s:4478   .debug_str:00000000000009ba .LASF157
     /tmp/cceicSzv.s:4358   .debug_str:000000000000054e .LASF158
     /tmp/cceicSzv.s:4218   .debug_str:000000000000005b .LASF159
     /tmp/cceicSzv.s:5      .text:0000000000000000 .Ltext0
     /tmp/cceicSzv.s:732    .text:000000000000037c .Letext0
     /tmp/cceicSzv.s:4200   .debug_line:0000000000000000 .Ldebug_line0
     /tmp/cceicSzv.s:4318   .debug_str:00000000000003ca .LASF0
     /tmp/cceicSzv.s:4342   .debug_str:00000000000004ae .LASF1
     /tmp/cceicSzv.s:4428   .debug_str:000000000000086b .LASF2
     /tmp/cceicSzv.s:4436   .debug_str:00000000000008a5 .LASF4
     /tmp/cceicSzv.s:4322   .debug_str:00000000000003f2 .LASF3
     /tmp/cceicSzv.s:4214   .debug_str:0000000000000048 .LASF5
     /tmp/cceicSzv.s:4396   .debug_str:0000000000000721 .LASF6
     /tmp/cceicSzv.s:4336   .debug_str:000000000000046e .LASF7
     /tmp/cceicSzv.s:4296   .debug_str:0000000000000319 .LASF8
     /tmp/cceicSzv.s:4302   .debug_str:0000000000000340 .LASF9
     /tmp/cceicSzv.s:4240   .debug_str:000000000000012e .LASF10
     /tmp/cceicSzv.s:4494   .debug_str:0000000000000b11 .LASF11
     /tmp/cceicSzv.s:4286   .debug_str:00000000000002cf .LASF12
     /tmp/cceicSzv.s:4252   .debug_str:0000000000000194 .LASF13
     /tmp/cceicSzv.s:4238   .debug_str:000000000000011e .LASF14
     /tmp/cceicSzv.s:4460   .debug_str:0000000000000949 .LASF15
     /tmp/cceicSzv.s:4268   .debug_str:0000000000000202 .LASF16
     /tmp/cceicSzv.s:4452   .debug_str:000000000000090c .LASF17
     /tmp/cceicSzv.s:4392   .debug_str:0000000000000704 .LASF21
     /tmp/cceicSzv.s:4474   .debug_str:00000000000009aa .LASF69
     /tmp/cceicSzv.s:4340   .debug_str:00000000000004a9 .LASF18
     /tmp/cceicSzv.s:4242   .debug_str:000000000000013d .LASF19
GAS LISTING /tmp/cceicSzv.s 			page 26


     /tmp/cceicSzv.s:4224   .debug_str:00000000000000ae .LASF20
     /tmp/cceicSzv.s:4512   .debug_str:0000000000000bae .LASF75
     /tmp/cceicSzv.s:4366   .debug_str:00000000000005b0 .LASF77
     /tmp/cceicSzv.s:4324   .debug_str:0000000000000404 .LASF23
     /tmp/cceicSzv.s:4432   .debug_str:0000000000000886 .LASF22
     /tmp/cceicSzv.s:4498   .debug_str:0000000000000b2b .LASF24
     /tmp/cceicSzv.s:4254   .debug_str:00000000000001a4 .LASF25
     /tmp/cceicSzv.s:4364   .debug_str:000000000000058b .LASF26
     /tmp/cceicSzv.s:4216   .debug_str:000000000000004f .LASF27
     /tmp/cceicSzv.s:4408   .debug_str:00000000000007ba .LASF28
     /tmp/cceicSzv.s:4448   .debug_str:00000000000008ef .LASF29
     /tmp/cceicSzv.s:4220   .debug_str:000000000000008f .LASF122
     /tmp/cceicSzv.s:4246   .debug_str:000000000000015f .LASF30
     /tmp/cceicSzv.s:4528   .debug_str:0000000000000c10 .LASF31
     /tmp/cceicSzv.s:4314   .debug_str:00000000000003af .LASF33
     /tmp/cceicSzv.s:4420   .debug_str:0000000000000825 .LASF32
     /tmp/cceicSzv.s:4250   .debug_str:0000000000000174 .LASF34
     /tmp/cceicSzv.s:4410   .debug_str:00000000000007df .LASF35
     /tmp/cceicSzv.s:4360   .debug_str:0000000000000560 .LASF36
     /tmp/cceicSzv.s:4534   .debug_str:0000000000000c2f .LASF37
     /tmp/cceicSzv.s:4290   .debug_str:00000000000002e3 .LASF38
     /tmp/cceicSzv.s:4306   .debug_str:000000000000036f .LASF39
     /tmp/cceicSzv.s:4304   .debug_str:000000000000034e .LASF40
     /tmp/cceicSzv.s:4496   .debug_str:0000000000000b1c .LASF41
     /tmp/cceicSzv.s:4492   .debug_str:0000000000000aea .LASF42
     /tmp/cceicSzv.s:4470   .debug_str:0000000000000984 .LASF43
     /tmp/cceicSzv.s:4376   .debug_str:000000000000062d .LASF44
     /tmp/cceicSzv.s:4316   .debug_str:00000000000003c4 .LASF45
     /tmp/cceicSzv.s:4230   .debug_str:00000000000000d2 .LASF46
     /tmp/cceicSzv.s:4208   .debug_str:000000000000002e .LASF47
     /tmp/cceicSzv.s:4510   .debug_str:0000000000000b93 .LASF48
     /tmp/cceicSzv.s:4232   .debug_str:00000000000000eb .LASF49
     /tmp/cceicSzv.s:4400   .debug_str:0000000000000749 .LASF50
     /tmp/cceicSzv.s:4506   .debug_str:0000000000000b74 .LASF51
     /tmp/cceicSzv.s:4370   .debug_str:00000000000005ee .LASF52
     /tmp/cceicSzv.s:4456   .debug_str:0000000000000933 .LASF53
     /tmp/cceicSzv.s:4278   .debug_str:000000000000027a .LASF54
     /tmp/cceicSzv.s:4266   .debug_str:00000000000001fa .LASF55
     /tmp/cceicSzv.s:4274   .debug_str:000000000000023f .LASF56
     /tmp/cceicSzv.s:4270   .debug_str:0000000000000218 .LASF57
     /tmp/cceicSzv.s:4398   .debug_str:0000000000000734 .LASF58
     /tmp/cceicSzv.s:4234   .debug_str:00000000000000f9 .LASF59
     /tmp/cceicSzv.s:4390   .debug_str:00000000000006ef .LASF60
     /tmp/cceicSzv.s:4206   .debug_str:000000000000001e .LASF61
     /tmp/cceicSzv.s:4354   .debug_str:0000000000000529 .LASF63
     /tmp/cceicSzv.s:4450   .debug_str:00000000000008f9 .LASF62
     /tmp/cceicSzv.s:4422   .debug_str:000000000000082e .LASF64
     /tmp/cceicSzv.s:4350   .debug_str:00000000000004f9 .LASF65
     /tmp/cceicSzv.s:4532   .debug_str:0000000000000c25 .LASF66
     /tmp/cceicSzv.s:4284   .debug_str:00000000000002ca .LASF67
     /tmp/cceicSzv.s:4374   .debug_str:0000000000000628 .LASF68
     /tmp/cceicSzv.s:4466   .debug_str:000000000000096d .LASF70
     /tmp/cceicSzv.s:4438   .debug_str:00000000000008ac .LASF71
     /tmp/cceicSzv.s:4212   .debug_str:000000000000003c .LASF72
     /tmp/cceicSzv.s:4458   .debug_str:000000000000093b .LASF73
     /tmp/cceicSzv.s:4388   .debug_str:00000000000006c6 .LASF74
     /tmp/cceicSzv.s:4362   .debug_str:000000000000057f .LASF76
GAS LISTING /tmp/cceicSzv.s 			page 27


     /tmp/cceicSzv.s:4282   .debug_str:00000000000002b3 .LASF78
     /tmp/cceicSzv.s:4412   .debug_str:00000000000007e9 .LASF111
     /tmp/cceicSzv.s:4352   .debug_str:000000000000050e .LASF113
     /tmp/cceicSzv.s:4426   .debug_str:0000000000000860 .LASF79
     /tmp/cceicSzv.s:4440   .debug_str:00000000000008b1 .LASF80
     /tmp/cceicSzv.s:4504   .debug_str:0000000000000b67 .LASF81
     /tmp/cceicSzv.s:4258   .debug_str:00000000000001be .LASF82
     /tmp/cceicSzv.s:4414   .debug_str:00000000000007f9 .LASF83
     /tmp/cceicSzv.s:4372   .debug_str:0000000000000610 .LASF84
     /tmp/cceicSzv.s:4406   .debug_str:00000000000007a7 .LASF85
     /tmp/cceicSzv.s:4276   .debug_str:000000000000025a .LASF86
     /tmp/cceicSzv.s:4500   .debug_str:0000000000000b47 .LASF87
     /tmp/cceicSzv.s:4404   .debug_str:0000000000000788 .LASF88
     /tmp/cceicSzv.s:4462   .debug_str:0000000000000955 .LASF89
     /tmp/cceicSzv.s:4424   .debug_str:0000000000000844 .LASF90
     /tmp/cceicSzv.s:4328   .debug_str:0000000000000429 .LASF91
     /tmp/cceicSzv.s:4384   .debug_str:00000000000006a6 .LASF92
     /tmp/cceicSzv.s:4508   .debug_str:0000000000000b82 .LASF93
     /tmp/cceicSzv.s:4480   .debug_str:0000000000000a7e .LASF94
     /tmp/cceicSzv.s:4454   .debug_str:0000000000000922 .LASF95
     /tmp/cceicSzv.s:4280   .debug_str:0000000000000296 .LASF96
     /tmp/cceicSzv.s:4526   .debug_str:0000000000000c02 .LASF97
     /tmp/cceicSzv.s:4226   .debug_str:00000000000000b3 .LASF98
     /tmp/cceicSzv.s:4486   .debug_str:0000000000000abb .LASF99
     /tmp/cceicSzv.s:4416   .debug_str:0000000000000805 .LASF100
     /tmp/cceicSzv.s:4330   .debug_str:0000000000000438 .LASF101
     /tmp/cceicSzv.s:4272   .debug_str:0000000000000225 .LASF102
     /tmp/cceicSzv.s:4484   .debug_str:0000000000000aac .LASF103
     /tmp/cceicSzv.s:4320   .debug_str:00000000000003d7 .LASF104
     /tmp/cceicSzv.s:4502   .debug_str:0000000000000b5a .LASF105
     /tmp/cceicSzv.s:4490   .debug_str:0000000000000ad2 .LASF106
     /tmp/cceicSzv.s:4442   .debug_str:00000000000008c7 .LASF107
     /tmp/cceicSzv.s:4244   .debug_str:0000000000000142 .LASF108
     /tmp/cceicSzv.s:4262   .debug_str:00000000000001db .LASF109
     /tmp/cceicSzv.s:4402   .debug_str:000000000000076c .LASF110
     /tmp/cceicSzv.s:4344   .debug_str:00000000000004c1 .LASF112
     /tmp/cceicSzv.s:4482   .debug_str:0000000000000a9c .LASF114
     /tmp/cceicSzv.s:4298   .debug_str:0000000000000329 .LASF115
     /tmp/cceicSzv.s:4292   .debug_str:0000000000000301 .LASF116
     /tmp/cceicSzv.s:4382   .debug_str:0000000000000699 .LASF117
     /tmp/cceicSzv.s:4430   .debug_str:0000000000000879 .LASF118
     /tmp/cceicSzv.s:4476   .debug_str:00000000000009b2 .LASF119
     /tmp/cceicSzv.s:4288   .debug_str:00000000000002de .LASF120
     /tmp/cceicSzv.s:4378   .debug_str:0000000000000652 .LASF160
     /tmp/cceicSzv.s:4386   .debug_str:00000000000006c1 .LASF161
     /tmp/cceicSzv.s:4356   .debug_str:000000000000053f .LASF121
     /tmp/cceicSzv.s:4346   .debug_str:00000000000004c7 .LASF123
     /tmp/cceicSzv.s:4264   .debug_str:00000000000001eb .LASF162
     /tmp/cceicSzv.s:4368   .debug_str:00000000000005d4 .LASF163
     /tmp/cceicSzv.s:4446   .debug_str:00000000000008dc .LASF143
     /tmp/cceicSzv.s:4204   .debug_str:0000000000000019 .LASF124
     /tmp/cceicSzv.s:4326   .debug_str:0000000000000420 .LASF125
     /tmp/cceicSzv.s:4524   .debug_str:0000000000000bfc .LASF126
     /tmp/cceicSzv.s:4488   .debug_str:0000000000000aca .LASF127
     /tmp/cceicSzv.s:4464   .debug_str:0000000000000964 .LASF128
     /tmp/cceicSzv.s:4468   .debug_str:0000000000000975 .LASF129
     /tmp/cceicSzv.s:4310   .debug_str:000000000000038c .LASF130
GAS LISTING /tmp/cceicSzv.s 			page 28


     /tmp/cceicSzv.s:4256   .debug_str:00000000000001b1 .LASF131
     /tmp/cceicSzv.s:4222   .debug_str:00000000000000a8 .LASF132
     /tmp/cceicSzv.s:4300   .debug_str:0000000000000335 .LASF133
     /tmp/cceicSzv.s:4444   .debug_str:00000000000008d7 .LASF134
     /tmp/cceicSzv.s:4348   .debug_str:00000000000004f0 .LASF135
     /tmp/cceicSzv.s:4294   .debug_str:000000000000030d .LASF136
     /tmp/cceicSzv.s:4418   .debug_str:0000000000000820 .LASF137
     /tmp/cceicSzv.s:4332   .debug_str:0000000000000447 .LASF138
     /tmp/cceicSzv.s:4334   .debug_str:0000000000000451 .LASF139
     /tmp/cceicSzv.s:4236   .debug_str:0000000000000109 .LASF140
     /tmp/cceicSzv.s:4434   .debug_str:0000000000000890 .LASF141
     /tmp/cceicSzv.s:4522   .debug_str:0000000000000be8 .LASF164
     /tmp/cceicSzv.s:4312   .debug_str:0000000000000397 .LASF165
     /tmp/cceicSzv.s:4518   .debug_str:0000000000000bcc .LASF142
     /tmp/cceicSzv.s:549    .text:00000000000002ac .LFB59
     /tmp/cceicSzv.s:612    .text:000000000000031c .LFE59
     /tmp/cceicSzv.s:4260   .debug_str:00000000000001d6 .LASF144
     /tmp/cceicSzv.s:3836   .debug_loc:0000000000000000 .LLST26
     /tmp/cceicSzv.s:3850   .debug_loc:0000000000000039 .LLST27
     /tmp/cceicSzv.s:569    .text:00000000000002cc .LBB84
     /tmp/cceicSzv.s:595    .text:00000000000002fc .LBE84
     /tmp/cceicSzv.s:576    .text:00000000000002d8 .LBB86
     /tmp/cceicSzv.s:587    .text:00000000000002f0 .LBE86
     /tmp/cceicSzv.s:3861   .debug_loc:000000000000006f .LLST28
     /tmp/cceicSzv.s:564    .text:00000000000002c4 .LVL53
     /tmp/cceicSzv.s:600    .text:000000000000030c .LVL57
     /tmp/cceicSzv.s:420    .text:0000000000000210 .LFB58
     /tmp/cceicSzv.s:454    .text:000000000000024c .LFE58
     /tmp/cceicSzv.s:3870   .debug_loc:000000000000009b .LLST20
     /tmp/cceicSzv.s:439    .text:0000000000000234 .LVL40
     /tmp/cceicSzv.s:443    .text:000000000000023c .LVL41
     /tmp/cceicSzv.s:369    .text:00000000000001dc .LFB57
     /tmp/cceicSzv.s:414    .text:0000000000000210 .LFE57
     /tmp/cceicSzv.s:387    .text:00000000000001f4 .LBB76
     /tmp/cceicSzv.s:395    .text:00000000000001f8 .LBE76
     /tmp/cceicSzv.s:3884   .debug_loc:00000000000000d4 .LLST18
     /tmp/cceicSzv.s:3891   .debug_loc:00000000000000f7 .LLST19
     /tmp/cceicSzv.s:183    .text:00000000000000f8 .LFB56
     /tmp/cceicSzv.s:253    .text:0000000000000134 .LFE56
     /tmp/cceicSzv.s:3898   .debug_loc:000000000000011a .LLST8
     /tmp/cceicSzv.s:4186   .debug_ranges:0000000000000000 .Ldebug_ranges0
     /tmp/cceicSzv.s:3909   .debug_loc:0000000000000150 .LLST9
     /tmp/cceicSzv.s:205    .text:0000000000000110 .LBB62
     /tmp/cceicSzv.s:213    .text:0000000000000114 .LBE62
     /tmp/cceicSzv.s:3920   .debug_loc:0000000000000186 .LLST10
     /tmp/cceicSzv.s:221    .text:000000000000011c .LBB64
     /tmp/cceicSzv.s:228    .text:0000000000000120 .LBE64
     /tmp/cceicSzv.s:3927   .debug_loc:00000000000001a9 .LLST11
     /tmp/cceicSzv.s:3935   .debug_loc:00000000000001cd .LLST12
     /tmp/cceicSzv.s:4228   .debug_str:00000000000000cd .LASF146
     /tmp/cceicSzv.s:4472   .debug_str:0000000000000995 .LASF166
     /tmp/cceicSzv.s:10     .text:0000000000000000 .LFB54
     /tmp/cceicSzv.s:42     .text:0000000000000028 .LFE54
     /tmp/cceicSzv.s:618    .text:000000000000031c .LFB52
     /tmp/cceicSzv.s:701    .text:000000000000037c .LFE52
     /tmp/cceicSzv.s:3942   .debug_loc:00000000000001f0 .LLST29
     /tmp/cceicSzv.s:635    .text:0000000000000334 .LBB88
GAS LISTING /tmp/cceicSzv.s 			page 29


     /tmp/cceicSzv.s:642    .text:0000000000000338 .LBE88
     /tmp/cceicSzv.s:3964   .debug_loc:000000000000024f .LLST30
     /tmp/cceicSzv.s:647    .text:0000000000000340 .LBB90
     /tmp/cceicSzv.s:654    .text:0000000000000344 .LBE90
     /tmp/cceicSzv.s:3971   .debug_loc:0000000000000272 .LLST31
     /tmp/cceicSzv.s:3978   .debug_loc:0000000000000295 .LLST32
     /tmp/cceicSzv.s:662    .text:0000000000000348 .LBB92
     /tmp/cceicSzv.s:669    .text:000000000000034c .LBE92
     /tmp/cceicSzv.s:3985   .debug_loc:00000000000002b8 .LLST33
     /tmp/cceicSzv.s:694    .text:0000000000000370 .LVL67
     /tmp/cceicSzv.s:460    .text:000000000000024c .LFB51
     /tmp/cceicSzv.s:543    .text:00000000000002ac .LFE51
     /tmp/cceicSzv.s:3992   .debug_loc:00000000000002db .LLST21
     /tmp/cceicSzv.s:477    .text:0000000000000264 .LBB78
     /tmp/cceicSzv.s:484    .text:0000000000000268 .LBE78
     /tmp/cceicSzv.s:4014   .debug_loc:000000000000033a .LLST22
     /tmp/cceicSzv.s:488    .text:000000000000026c .LBB80
     /tmp/cceicSzv.s:495    .text:0000000000000270 .LBE80
     /tmp/cceicSzv.s:4021   .debug_loc:000000000000035d .LLST23
     /tmp/cceicSzv.s:4028   .debug_loc:0000000000000380 .LLST24
     /tmp/cceicSzv.s:504    .text:0000000000000278 .LBB82
     /tmp/cceicSzv.s:511    .text:000000000000027c .LBE82
     /tmp/cceicSzv.s:4035   .debug_loc:00000000000003a3 .LLST25
     /tmp/cceicSzv.s:536    .text:00000000000002a0 .LVL51
     /tmp/cceicSzv.s:259    .text:0000000000000134 .LFB50
     /tmp/cceicSzv.s:363    .text:00000000000001dc .LFE50
     /tmp/cceicSzv.s:4514   .debug_str:0000000000000bba .LASF145
     /tmp/cceicSzv.s:4042   .debug_loc:00000000000003c6 .LLST13
     /tmp/cceicSzv.s:4060   .debug_loc:0000000000000412 .LLST14
     /tmp/cceicSzv.s:283    .text:0000000000000158 .LBB68
     /tmp/cceicSzv.s:315    .text:0000000000000190 .LBB70
     /tmp/cceicSzv.s:326    .text:00000000000001a8 .LBE70
     /tmp/cceicSzv.s:4067   .debug_loc:0000000000000435 .LLST15
     /tmp/cceicSzv.s:336    .text:00000000000001b8 .LBB74
     /tmp/cceicSzv.s:344    .text:00000000000001c0 .LBE74
     /tmp/cceicSzv.s:4076   .debug_loc:0000000000000461 .LLST16
     /tmp/cceicSzv.s:4084   .debug_loc:0000000000000485 .LLST17
     /tmp/cceicSzv.s:293    .text:000000000000016c .LVL27
     /tmp/cceicSzv.s:302    .text:000000000000017c .LVL28
     /tmp/cceicSzv.s:50     .text:0000000000000028 .LFB49
     /tmp/cceicSzv.s:177    .text:00000000000000f8 .LFE49
     /tmp/cceicSzv.s:4091   .debug_loc:00000000000004a8 .LLST0
     /tmp/cceicSzv.s:4109   .debug_loc:00000000000004f4 .LLST1
     /tmp/cceicSzv.s:72     .text:000000000000004c .LBB53
     /tmp/cceicSzv.s:150    .text:00000000000000c8 .LBE53
     /tmp/cceicSzv.s:4127   .debug_loc:0000000000000540 .LLST2
     /tmp/cceicSzv.s:4135   .debug_loc:0000000000000564 .LLST3
     /tmp/cceicSzv.s:77     .text:000000000000004c .LBB55
     /tmp/cceicSzv.s:139    .text:00000000000000b0 .LBE55
     /tmp/cceicSzv.s:85     .text:0000000000000058 .LBB57
     /tmp/cceicSzv.s:132    .text:00000000000000a4 .LBE57
     /tmp/cceicSzv.s:4143   .debug_loc:0000000000000588 .LLST4
     /tmp/cceicSzv.s:87     .text:0000000000000058 .LBB59
     /tmp/cceicSzv.s:130    .text:00000000000000a4 .LBE59
     /tmp/cceicSzv.s:4152   .debug_loc:00000000000005b4 .LLST5
     /tmp/cceicSzv.s:4159   .debug_loc:00000000000005d7 .LLST6
     /tmp/cceicSzv.s:4166   .debug_loc:00000000000005fa .LLST7
GAS LISTING /tmp/cceicSzv.s 			page 30


     /tmp/cceicSzv.s:146    .text:00000000000000c4 .LVL12
     /tmp/cceicSzv.s:154    .text:00000000000000d4 .LVL14
     /tmp/cceicSzv.s:4516   .debug_str:0000000000000bc1 .LASF147
     /tmp/cceicSzv.s:4308   .debug_str:000000000000037a .LASF152
     /tmp/cceicSzv.s:4248   .debug_str:000000000000016b .LASF154
     /tmp/cceicSzv.s:4338   .debug_str:0000000000000481 .LASF155
     /tmp/cceicSzv.s:4210   .debug_str:0000000000000036 .LASF148
     /tmp/cceicSzv.s:4520   .debug_str:0000000000000bde .LASF149
     /tmp/cceicSzv.s:4530   .debug_str:0000000000000c1d .LASF150
     /tmp/cceicSzv.s:4394   .debug_str:0000000000000714 .LASF151
     /tmp/cceicSzv.s:4202   .debug_str:0000000000000000 .LASF153
     /tmp/cceicSzv.s:4380   .debug_str:000000000000066a .LASF156
     /tmp/cceicSzv.s:552    .text:00000000000002ac .LVL52
     /tmp/cceicSzv.s:598    .text:0000000000000304 .LVL56
     /tmp/cceicSzv.s:575    .text:00000000000002d8 .LVL54
     /tmp/cceicSzv.s:591    .text:00000000000002fc .LVL55
     /tmp/cceicSzv.s:423    .text:0000000000000210 .LVL38
     /tmp/cceicSzv.s:386    .text:00000000000001f4 .LVL36
     /tmp/cceicSzv.s:392    .text:00000000000001f8 .LVL37
     /tmp/cceicSzv.s:186    .text:00000000000000f8 .LVL17
     /tmp/cceicSzv.s:198    .text:000000000000010c .LVL18
     /tmp/cceicSzv.s:203    .text:0000000000000110 .LVL19
     /tmp/cceicSzv.s:226    .text:0000000000000120 .LVL22
     /tmp/cceicSzv.s:241    .text:000000000000012c .LVL23
     /tmp/cceicSzv.s:211    .text:0000000000000114 .LVL20
     /tmp/cceicSzv.s:220    .text:000000000000011c .LVL21
     /tmp/cceicSzv.s:621    .text:000000000000031c .LVL58
     /tmp/cceicSzv.s:659    .text:0000000000000348 .LVL63
     /tmp/cceicSzv.s:684    .text:0000000000000360 .LVL65
     /tmp/cceicSzv.s:688    .text:0000000000000368 .LVL66
     /tmp/cceicSzv.s:634    .text:0000000000000334 .LVL59
     /tmp/cceicSzv.s:640    .text:0000000000000338 .LVL60
     /tmp/cceicSzv.s:646    .text:0000000000000340 .LVL61
     /tmp/cceicSzv.s:652    .text:0000000000000344 .LVL62
     /tmp/cceicSzv.s:667    .text:000000000000034c .LVL64
     /tmp/cceicSzv.s:463    .text:000000000000024c .LVL42
     /tmp/cceicSzv.s:501    .text:0000000000000278 .LVL47
     /tmp/cceicSzv.s:526    .text:0000000000000290 .LVL49
     /tmp/cceicSzv.s:530    .text:0000000000000298 .LVL50
     /tmp/cceicSzv.s:476    .text:0000000000000264 .LVL43
     /tmp/cceicSzv.s:482    .text:0000000000000268 .LVL44
     /tmp/cceicSzv.s:487    .text:000000000000026c .LVL45
     /tmp/cceicSzv.s:493    .text:0000000000000270 .LVL46
     /tmp/cceicSzv.s:509    .text:000000000000027c .LVL48
     /tmp/cceicSzv.s:262    .text:0000000000000134 .LVL24
     /tmp/cceicSzv.s:281    .text:0000000000000158 .LVL26
     /tmp/cceicSzv.s:358    .text:00000000000001d4 .LVL34
     /tmp/cceicSzv.s:279    .text:0000000000000154 .LVL25
     /tmp/cceicSzv.s:355    .text:00000000000001d0 .LVL33
     /tmp/cceicSzv.s:314    .text:0000000000000190 .LVL30
     /tmp/cceicSzv.s:331    .text:00000000000001b8 .LVL31
     /tmp/cceicSzv.s:342    .text:00000000000001c0 .LVL32
     /tmp/cceicSzv.s:53     .text:0000000000000028 .LVL1
     /tmp/cceicSzv.s:144    .text:00000000000000bc .LVL11
     /tmp/cceicSzv.s:167    .text:00000000000000e8 .LVL15
     /tmp/cceicSzv.s:142    .text:00000000000000b4 .LVL10
     /tmp/cceicSzv.s:172    .text:00000000000000f0 .LVL16
GAS LISTING /tmp/cceicSzv.s 			page 31


     /tmp/cceicSzv.s:71     .text:000000000000004c .LVL2
     /tmp/cceicSzv.s:148    .text:00000000000000c8 .LVL13
     /tmp/cceicSzv.s:84     .text:0000000000000058 .LVL3
     /tmp/cceicSzv.s:129    .text:00000000000000a4 .LVL9
     /tmp/cceicSzv.s:92     .text:0000000000000064 .LVL4
     /tmp/cceicSzv.s:117    .text:0000000000000090 .LVL8
     /tmp/cceicSzv.s:99     .text:0000000000000074 .LVL5
     /tmp/cceicSzv.s:103    .text:0000000000000078 .LVL6
     /tmp/cceicSzv.s:106    .text:000000000000007c .LVL7
     /tmp/cceicSzv.s:735    .debug_info:0000000000000000 .Ldebug_info0
     /tmp/cceicSzv.s:201    .text:0000000000000110 .LBB61
     /tmp/cceicSzv.s:231    .text:0000000000000120 .LBE61
     /tmp/cceicSzv.s:245    .text:000000000000012c .LBB66
     /tmp/cceicSzv.s:250    .text:0000000000000134 .LBE66
     /tmp/cceicSzv.s:288    .text:0000000000000158 .LBE68
     /tmp/cceicSzv.s:308    .text:0000000000000184 .LBB73
     /tmp/cceicSzv.s:334    .text:00000000000001b8 .LBE73

UNDEFINED SYMBOLS
HEAP_START_ADDR
HEAP_END_ADDR
_ZN15MemoryAllocator12memory_allocEm
_ZN9Scheduler3putEP3TCB
_ZN9Scheduler4headE
_ZN9Scheduler4tailE
_ZN3TCB7runningE
_ZN3TCB5yieldEv
