GAS LISTING /tmp/ccGVpxtD.s 			page 1


   1              		.file	"Slab.cpp"
   2              		.option pic
   3              		.option norelax
   4              		.text
   5              	.Ltext0:
   6              		.align	2
   7              		.globl	_ZN12kmem_cache_s16create_free_slabEv
   9              	_ZN12kmem_cache_s16create_free_slabEv:
  10              	.LFB40:
  11              		.file 1 "src/Slab.cpp"
   1:src/Slab.cpp  **** //
   2:src/Slab.cpp  **** // Created by os on 8/18/23.
   3:src/Slab.cpp  **** //
   4:src/Slab.cpp  **** #include "../h/Slab.h"
   5:src/Slab.cpp  **** #include "../test/printing.hpp"
   6:src/Slab.cpp  **** 
   7:src/Slab.cpp  **** kmem_cache_s* kmem_cache_s::head = nullptr;
   8:src/Slab.cpp  **** 
   9:src/Slab.cpp  **** void* kmem_cache_s::kmem_cache_create(const char *name, size_t size, void (*ctor)(void *), void (*d
  10:src/Slab.cpp  **** 
  11:src/Slab.cpp  ****     // check if name already exists in cache list
  12:src/Slab.cpp  ****     for(kmem_cache_s* curr = kmem_cache_s::head; curr; curr = curr->next){
  13:src/Slab.cpp  ****         if(curr->name == name){
  14:src/Slab.cpp  ****             return nullptr;
  15:src/Slab.cpp  ****         }
  16:src/Slab.cpp  ****     }
  17:src/Slab.cpp  **** 
  18:src/Slab.cpp  ****     // assign values
  19:src/Slab.cpp  ****     kmem_cache_s* tmp = (kmem_cache_s*)BuddySystem::getInstance().buddyAlloc(BLOCK_SIZE - sizeof(si
  20:src/Slab.cpp  ****     tmp->name = name;
  21:src/Slab.cpp  ****     tmp->objsize = size;
  22:src/Slab.cpp  ****     tmp->ctor = ctor;
  23:src/Slab.cpp  ****     tmp->dtor = dtor;
  24:src/Slab.cpp  **** 
  25:src/Slab.cpp  ****     // assign default values
  26:src/Slab.cpp  ****     tmp->slabs_full = tmp->slabs_partial = tmp->slabs_free = nullptr;
  27:src/Slab.cpp  ****     tmp->num_slabs_full = tmp->num_slabs_partial = tmp->num_slabs_free = tmp->num_active_obj = tmp-
  28:src/Slab.cpp  ****     tmp->growing = false;
  29:src/Slab.cpp  **** 
  30:src/Slab.cpp  ****     // calc how many blocks one slab should contain
  31:src/Slab.cpp  ****     tmp->size_in_blocks = 1;
  32:src/Slab.cpp  ****     size_t min_size_of_objects = tmp->objsize * NUM_OF_OBJECTS_IN_SLAB;
  33:src/Slab.cpp  ****     size_t min_size_of_arr = 2 * sizeof(size_t);
  34:src/Slab.cpp  ****     // min requirements
  35:src/Slab.cpp  ****     while(tmp->size_in_blocks * BLOCK_SIZE < sizeof(size_t)*2 + sizeof(Slab) + min_size_of_arr + mi
  36:src/Slab.cpp  ****         tmp->size_in_blocks++;
  37:src/Slab.cpp  ****     }
  38:src/Slab.cpp  **** 
  39:src/Slab.cpp  ****     // calc how many objects one slab can contain
  40:src/Slab.cpp  ****     int how_many_objects_into_one_slab = 10;
  41:src/Slab.cpp  ****     int current_size_of_arr = 2;
  42:src/Slab.cpp  ****     while((how_many_objects_into_one_slab + 1) * tmp->objsize <=
  43:src/Slab.cpp  ****             (int)(tmp->size_in_blocks * BLOCK_SIZE - sizeof(size_t)*2 - sizeof(Slab) - current_size
  44:src/Slab.cpp  ****         if(++how_many_objects_into_one_slab % 8 == 0){
  45:src/Slab.cpp  ****             current_size_of_arr++;
  46:src/Slab.cpp  ****         }
  47:src/Slab.cpp  ****     }
GAS LISTING /tmp/ccGVpxtD.s 			page 2


  48:src/Slab.cpp  ****     tmp->num = how_many_objects_into_one_slab;
  49:src/Slab.cpp  ****     tmp->size_of_arr = current_size_of_arr;
  50:src/Slab.cpp  **** 
  51:src/Slab.cpp  ****     // creating an empty slab
  52:src/Slab.cpp  ****     tmp->create_free_slab();
  53:src/Slab.cpp  **** 
  54:src/Slab.cpp  ****     // add new cache to cache chain
  55:src/Slab.cpp  ****     tmp->next = kmem_cache_s::head;
  56:src/Slab.cpp  ****     kmem_cache_s::head = tmp;
  57:src/Slab.cpp  **** 
  58:src/Slab.cpp  ****     return (void*)tmp;
  59:src/Slab.cpp  **** }
  60:src/Slab.cpp  **** 
  61:src/Slab.cpp  **** ///
  62:src/Slab.cpp  **** /// \return velicinu za koliko je smanjena memorija (u bajtovima)
  63:src/Slab.cpp  **** size_t kmem_cache_s::kmem_cache_shrink() {
  64:src/Slab.cpp  ****     if(this->growing){
  65:src/Slab.cpp  ****         this->growing = false;
  66:src/Slab.cpp  ****         return 0;
  67:src/Slab.cpp  ****     }
  68:src/Slab.cpp  ****     Slab* curr = this->slabs_free, *prev;
  69:src/Slab.cpp  ****     int cnt = (int)this->num_slabs_free;
  70:src/Slab.cpp  ****     while(curr){
  71:src/Slab.cpp  ****         prev = curr;
  72:src/Slab.cpp  ****         curr = curr->next;
  73:src/Slab.cpp  ****         prev->clear_slab(num, objsize, dtor);
  74:src/Slab.cpp  ****         BuddySystem::getInstance().buddyFree((size_t)prev);
  75:src/Slab.cpp  ****     }
  76:src/Slab.cpp  ****     this->slabs_free = nullptr;
  77:src/Slab.cpp  ****     this->num_slabs_free = 0;
  78:src/Slab.cpp  ****     this->growing = false;
  79:src/Slab.cpp  ****     this->shrink++;
  80:src/Slab.cpp  ****     return cnt * this->size_in_blocks;
  81:src/Slab.cpp  **** }
  82:src/Slab.cpp  **** 
  83:src/Slab.cpp  **** void *kmem_cache_s::kmem_cache_alloc() {
  84:src/Slab.cpp  ****     if(num_slabs_partial != 0){
  85:src/Slab.cpp  ****         void* addr = this->slabs_partial->return_first_free_object_and_rearange_list(this->num, thi
  86:src/Slab.cpp  ****         this->num_active_obj++;
  87:src/Slab.cpp  ****         this->slabs_partial->increment_num_of_active();
  88:src/Slab.cpp  **** 
  89:src/Slab.cpp  ****         if(this->slabs_partial->get_number_of_active_objects() == this->num){
  90:src/Slab.cpp  ****             // move from partial to full
  91:src/Slab.cpp  ****             Slab* tmp = this->slabs_partial;
  92:src/Slab.cpp  ****             this->slabs_partial = this->slabs_partial->next;
  93:src/Slab.cpp  ****             tmp->next = this->slabs_full;
  94:src/Slab.cpp  ****             this->slabs_full = tmp;
  95:src/Slab.cpp  ****             this->num_slabs_partial--;
  96:src/Slab.cpp  ****             this->num_slabs_full++;
  97:src/Slab.cpp  ****         }
  98:src/Slab.cpp  ****         return addr;
  99:src/Slab.cpp  ****     }
 100:src/Slab.cpp  ****     else if(num_slabs_free != 0){
 101:src/Slab.cpp  ****         void* addr1 = this->slabs_free->return_first_free_object_and_rearange_list(this->num, this-
 102:src/Slab.cpp  ****         this->num_active_obj++;
 103:src/Slab.cpp  **** 
 104:src/Slab.cpp  ****         // move from free to partial
GAS LISTING /tmp/ccGVpxtD.s 			page 3


 105:src/Slab.cpp  ****         Slab* tmp = this->slabs_free;
 106:src/Slab.cpp  ****         this->slabs_free = this->slabs_free->next;
 107:src/Slab.cpp  ****         tmp->next = this->slabs_partial;
 108:src/Slab.cpp  ****         tmp->increment_num_of_active();
 109:src/Slab.cpp  ****         this->slabs_partial = tmp;
 110:src/Slab.cpp  ****         this->num_slabs_free--;
 111:src/Slab.cpp  ****         this->num_slabs_partial++;
 112:src/Slab.cpp  **** 
 113:src/Slab.cpp  ****         return addr1;
 114:src/Slab.cpp  ****     }
 115:src/Slab.cpp  ****     else{
 116:src/Slab.cpp  ****         // case if we need to expand cache
 117:src/Slab.cpp  ****         create_free_slab();
 118:src/Slab.cpp  ****         this->growing = true;
 119:src/Slab.cpp  ****         return nullptr;
 120:src/Slab.cpp  ****     }
 121:src/Slab.cpp  **** }
 122:src/Slab.cpp  **** 
 123:src/Slab.cpp  **** void kmem_cache_s::create_free_slab() {
  12              		.loc 1 123 39
  13              		.cfi_startproc
  14              	.LVL0:
  15 0000 130101FD 		addi	sp,sp,-48
  16              		.cfi_def_cfa_offset 48
  17 0004 23341102 		sd	ra,40(sp)
  18 0008 23308102 		sd	s0,32(sp)
  19 000c 233C9100 		sd	s1,24(sp)
  20 0010 23382101 		sd	s2,16(sp)
  21 0014 23343101 		sd	s3,8(sp)
  22 0018 23304101 		sd	s4,0(sp)
  23              		.cfi_offset 1, -8
  24              		.cfi_offset 8, -16
  25              		.cfi_offset 9, -24
  26              		.cfi_offset 18, -32
  27              		.cfi_offset 19, -40
  28              		.cfi_offset 20, -48
  29 001c 13040103 		addi	s0,sp,48
  30              		.cfi_def_cfa 8, 0
  31 0020 93040500 		mv	s1,a0
 124:src/Slab.cpp  ****     Slab* tmp = (Slab*)(BuddySystem::getInstance().buddyAlloc(this->num * this->objsize + sizeof(Sl
  32              		.loc 1 124 5
  33              	.LVL1:
  34              	.LBB56:
  35              	.LBB57:
  36              		.file 2 "src/../h/../h/Buddy.h"
   1:src/../h/../h/Buddy.h **** //
   2:src/../h/../h/Buddy.h **** // Created by os on 8/12/23.
   3:src/../h/../h/Buddy.h **** //
   4:src/../h/../h/Buddy.h **** 
   5:src/../h/../h/Buddy.h **** #ifndef PROJECT_BASE_V1_1_BUDDY_H
   6:src/../h/../h/Buddy.h **** #define PROJECT_BASE_V1_1_BUDDY_H
   7:src/../h/../h/Buddy.h **** 
   8:src/../h/../h/Buddy.h **** #include "../lib/hw.h"
   9:src/../h/../h/Buddy.h **** 
  10:src/../h/../h/Buddy.h **** class BuddySystem{
  11:src/../h/../h/Buddy.h **** public:
  12:src/../h/../h/Buddy.h **** 
GAS LISTING /tmp/ccGVpxtD.s 			page 4


  13:src/../h/../h/Buddy.h ****     void* buddyAlloc(size_t size);
  14:src/../h/../h/Buddy.h ****     void buddyFree(size_t addr);
  15:src/../h/../h/Buddy.h **** 
  16:src/../h/../h/Buddy.h ****     static BuddySystem& getInstance(void *space = nullptr, int block_num = 0){
  17:src/../h/../h/Buddy.h ****         static BuddySystem bs;
  37              		.loc 2 17 9
  38              		.loc 2 17 28 is_stmt 0
  39 0024 97070000 		lbu	a5,_ZGVZN11BuddySystem11getInstanceEPviE2bs
  39      83C70700 
  40 002c 63880706 		beqz	a5,.L8
  41              	.LVL2:
  42              	.L2:
  18:src/../h/../h/Buddy.h ****         if(block_num != 0 && space != nullptr){
  43              		.loc 2 18 9 is_stmt 1
  19:src/../h/../h/Buddy.h ****             bs.buddyHeapStart = (size_t)space;
  20:src/../h/../h/Buddy.h ****             bs.buddyNumOfBlocks = block_num;
  21:src/../h/../h/Buddy.h ****             bs.initBuddy();
  22:src/../h/../h/Buddy.h ****         }
  23:src/../h/../h/Buddy.h ****         return bs;
  44              		.loc 2 23 9
  45              	.LBE57:
  46              	.LBE56:
  47              		.loc 1 124 81 is_stmt 0
  48 0030 83B50403 		ld	a1,48(s1)
  49              		.loc 1 124 69
  50 0034 83B78403 		ld	a5,56(s1)
  51              		.loc 1 124 104
  52 0038 93851500 		addi	a1,a1,1
  53 003c B385F502 		mul	a1,a1,a5
  54              		.loc 1 124 62
  55 0040 93858501 		addi	a1,a1,24
  56 0044 17050000 		lla	a0,_ZZN11BuddySystem11getInstanceEPviE2bs
  56      13050500 
  57 004c 97000000 		call	_ZN11BuddySystem10buddyAllocEm@plt
  57      E7800000 
  58              	.LVL3:
  59 0054 130A0500 		mv	s4,a0
  60              	.LVL4:
 125:src/Slab.cpp  ****     tmp->num_active = 0;
  61              		.loc 1 125 5 is_stmt 1
  62              		.loc 1 125 21 is_stmt 0
  63 0058 23300500 		sd	zero,0(a0)
 126:src/Slab.cpp  ****     tmp->next = nullptr;
  64              		.loc 1 126 5 is_stmt 1
  65              		.loc 1 126 15 is_stmt 0
  66 005c 23340500 		sd	zero,8(a0)
 127:src/Slab.cpp  ****     this->slabs_free = tmp;
  67              		.loc 1 127 5 is_stmt 1
  68              		.loc 1 127 22 is_stmt 0
  69 0060 23B8A400 		sd	a0,16(s1)
 128:src/Slab.cpp  ****     tmp->first_addr = ((size_t)tmp + sizeof(Slab) + this->size_of_arr * sizeof(size_t));
  70              		.loc 1 128 5 is_stmt 1
  71              		.loc 1 128 59 is_stmt 0
  72 0064 03B90404 		ld	s2,64(s1)
  73              		.loc 1 128 71
  74 0068 13193900 		slli	s2,s2,3
  75              		.loc 1 128 51
GAS LISTING /tmp/ccGVpxtD.s 			page 5


  76 006c 33092501 		add	s2,a0,s2
  77 0070 13098901 		addi	s2,s2,24
  78              		.loc 1 128 21
  79 0074 23382501 		sd	s2,16(a0)
 129:src/Slab.cpp  **** 
 130:src/Slab.cpp  ****     for(size_t  i = 0; i < this->size_of_arr; i++){
  80              		.loc 1 130 5 is_stmt 1
  81              	.LVL5:
  82              	.LBB59:
  83              		.loc 1 130 17 is_stmt 0
  84 0078 13070000 		li	a4,0
  85              	.LVL6:
  86              	.L4:
  87              		.loc 1 130 26 is_stmt 1 discriminator 3
  88              		.loc 1 130 34 is_stmt 0 discriminator 3
  89 007c 83B70404 		ld	a5,64(s1)
  90              		.loc 1 130 26 discriminator 3
  91 0080 637EF702 		bleu	a5,a4,.L3
 131:src/Slab.cpp  ****         tmp->free_objects[i] = 0;
  92              		.loc 1 131 9 is_stmt 1 discriminator 2
  93              		.loc 1 131 30 is_stmt 0 discriminator 2
  94 0084 93072700 		addi	a5,a4,2
  95 0088 93973700 		slli	a5,a5,3
  96 008c B307FA00 		add	a5,s4,a5
  97 0090 23B40700 		sd	zero,8(a5)
 130:src/Slab.cpp  ****         tmp->free_objects[i] = 0;
  98              		.loc 1 130 5 is_stmt 1 discriminator 2
  99 0094 13071700 		addi	a4,a4,1
 100              	.LVL7:
 101 0098 6FF05FFE 		j	.L4
 102              	.LVL8:
 103              	.L8:
 104              	.LBE59:
 105              	.LBB60:
 106              	.LBB58:
  17:src/../h/../h/Buddy.h ****         if(block_num != 0 && space != nullptr){
 107              		.loc 2 17 28 is_stmt 0
 108 009c 17050000 		lla	a0,_ZZN11BuddySystem11getInstanceEPviE2bs
 108      13050500 
 109 00a4 97000000 		call	_ZN11BuddySystemC1Ev@plt
 109      E7800000 
 110              	.LVL9:
 111 00ac 93071000 		li	a5,1
 112 00b0 17070000 		sb	a5,_ZGVZN11BuddySystem11getInstanceEPviE2bs,a4
 112      2300F700 
 113 00b8 6FF09FF7 		j	.L2
 114              	.LVL10:
 115              	.L3:
 116              	.LBE58:
 117              	.LBE60:
 132:src/Slab.cpp  ****     }
 133:src/Slab.cpp  **** 
 134:src/Slab.cpp  ****     // initialize slab if there is constructor
 135:src/Slab.cpp  ****     if(this->ctor != nullptr){
 118              		.loc 1 135 5 is_stmt 1
 119              	.LBB61:
 120              		.loc 1 135 14 is_stmt 0
GAS LISTING /tmp/ccGVpxtD.s 			page 6


 121 00bc 83B70405 		ld	a5,80(s1)
 122              		.loc 1 135 5
 123 00c0 63860702 		beqz	a5,.L5
 124              	.LBB62:
 125              	.LBB63:
 136:src/Slab.cpp  ****         size_t addr = tmp->first_addr;
 137:src/Slab.cpp  ****         for(size_t i = 0; i < this->num; i++){
 126              		.loc 1 137 20
 127 00c4 93090000 		li	s3,0
 128              	.LVL11:
 129              	.L6:
 130              		.loc 1 137 29 is_stmt 1 discriminator 3
 131              		.loc 1 137 37 is_stmt 0 discriminator 3
 132 00c8 83B78403 		ld	a5,56(s1)
 133              		.loc 1 137 29 discriminator 3
 134 00cc 63F0F902 		bleu	a5,s3,.L5
 138:src/Slab.cpp  ****             this->ctor((void*)addr);
 135              		.loc 1 138 13 is_stmt 1 discriminator 2
 136              		.loc 1 138 19 is_stmt 0 discriminator 2
 137 00d0 83B70405 		ld	a5,80(s1)
 138              		.loc 1 138 23 discriminator 2
 139 00d4 13050900 		mv	a0,s2
 140 00d8 E7800700 		jalr	a5
 141              	.LVL12:
 139:src/Slab.cpp  ****             addr += objsize;
 142              		.loc 1 139 13 is_stmt 1 discriminator 2
 143              		.loc 1 139 21 is_stmt 0 discriminator 2
 144 00dc 83B70403 		ld	a5,48(s1)
 145              		.loc 1 139 18 discriminator 2
 146 00e0 3309F900 		add	s2,s2,a5
 147              	.LVL13:
 137:src/Slab.cpp  ****             this->ctor((void*)addr);
 148              		.loc 1 137 9 is_stmt 1 discriminator 2
 149 00e4 93891900 		addi	s3,s3,1
 150              	.LVL14:
 151 00e8 6FF01FFE 		j	.L6
 152              	.LVL15:
 153              	.L5:
 154              	.LBE63:
 155              	.LBE62:
 156              	.LBE61:
 140:src/Slab.cpp  ****         }
 141:src/Slab.cpp  ****     }
 142:src/Slab.cpp  **** 
 143:src/Slab.cpp  ****     // set free pointer and increment number of free slabs
 144:src/Slab.cpp  ****     this->slabs_free = tmp;
 157              		.loc 1 144 5
 158              		.loc 1 144 22 is_stmt 0
 159 00ec 23B84401 		sd	s4,16(s1)
 145:src/Slab.cpp  ****     this->num_slabs_free++;
 160              		.loc 1 145 5 is_stmt 1
 161              		.loc 1 145 11 is_stmt 0
 162 00f0 83B78402 		ld	a5,40(s1)
 163              		.loc 1 145 25
 164 00f4 93871700 		addi	a5,a5,1
 165 00f8 23B4F402 		sd	a5,40(s1)
 146:src/Slab.cpp  **** }
GAS LISTING /tmp/ccGVpxtD.s 			page 7


 166              		.loc 1 146 1
 167 00fc 83308102 		ld	ra,40(sp)
 168              		.cfi_restore 1
 169 0100 03340102 		ld	s0,32(sp)
 170              		.cfi_restore 8
 171              		.cfi_def_cfa 2, 48
 172 0104 83348101 		ld	s1,24(sp)
 173              		.cfi_restore 9
 174              	.LVL16:
 175 0108 03390101 		ld	s2,16(sp)
 176              		.cfi_restore 18
 177 010c 83398100 		ld	s3,8(sp)
 178              		.cfi_restore 19
 179 0110 033A0100 		ld	s4,0(sp)
 180              		.cfi_restore 20
 181              	.LVL17:
 182 0114 13010103 		addi	sp,sp,48
 183              		.cfi_def_cfa_offset 0
 184 0118 67800000 		jr	ra
 185              		.cfi_endproc
 186              	.LFE40:
 188              		.align	2
 189              		.globl	_ZN12kmem_cache_s17kmem_cache_createEPKcmPFvPvES4_
 191              	_ZN12kmem_cache_s17kmem_cache_createEPKcmPFvPvES4_:
 192              	.LFB37:
   9:src/Slab.cpp  **** 
 193              		.loc 1 9 114 is_stmt 1
 194              		.cfi_startproc
 195              	.LVL18:
 196 011c 130101FC 		addi	sp,sp,-64
 197              		.cfi_def_cfa_offset 64
 198 0120 233C1102 		sd	ra,56(sp)
 199 0124 23388102 		sd	s0,48(sp)
 200 0128 23349102 		sd	s1,40(sp)
 201 012c 23302103 		sd	s2,32(sp)
 202 0130 233C3101 		sd	s3,24(sp)
 203 0134 23384101 		sd	s4,16(sp)
 204 0138 23345101 		sd	s5,8(sp)
 205              		.cfi_offset 1, -8
 206              		.cfi_offset 8, -16
 207              		.cfi_offset 9, -24
 208              		.cfi_offset 18, -32
 209              		.cfi_offset 19, -40
 210              		.cfi_offset 20, -48
 211              		.cfi_offset 21, -56
 212 013c 13040104 		addi	s0,sp,64
 213              		.cfi_def_cfa 8, 0
 214 0140 93090500 		mv	s3,a0
 215 0144 13890500 		mv	s2,a1
 216 0148 930A0600 		mv	s5,a2
 217 014c 138A0600 		mv	s4,a3
  12:src/Slab.cpp  ****         if(curr->name == name){
 218              		.loc 1 12 5
 219              	.LBB64:
  12:src/Slab.cpp  ****         if(curr->name == name){
 220              		.loc 1 12 23 is_stmt 0
 221 0150 97070000 		ld	a5,.LANCHOR0
GAS LISTING /tmp/ccGVpxtD.s 			page 8


 221      83B70700 
 222              	.LVL19:
 223              	.L12:
  12:src/Slab.cpp  ****         if(curr->name == name){
 224              		.loc 1 12 50 is_stmt 1 discriminator 1
 225 0158 638A0700 		beqz	a5,.L10
  13:src/Slab.cpp  ****             return nullptr;
 226              		.loc 1 13 9
  13:src/Slab.cpp  ****             return nullptr;
 227              		.loc 1 13 18 is_stmt 0
 228 015c 03B70706 		ld	a4,96(a5)
  13:src/Slab.cpp  ****             return nullptr;
 229              		.loc 1 13 9
 230 0160 63063715 		beq	a4,s3,.L18
  12:src/Slab.cpp  ****         if(curr->name == name){
 231              		.loc 1 12 5 is_stmt 1 discriminator 2
  12:src/Slab.cpp  ****         if(curr->name == name){
 232              		.loc 1 12 61 is_stmt 0 discriminator 2
 233 0164 83B78706 		ld	a5,104(a5)
 234              	.LVL20:
  12:src/Slab.cpp  ****         if(curr->name == name){
 235              		.loc 1 12 5 discriminator 2
 236 0168 6FF01FFF 		j	.L12
 237              	.L10:
 238              	.LBE64:
  19:src/Slab.cpp  ****     tmp->name = name;
 239              		.loc 1 19 5 is_stmt 1
 240              	.LVL21:
 241              	.LBB65:
 242              	.LBB66:
  17:src/../h/../h/Buddy.h ****         if(block_num != 0 && space != nullptr){
 243              		.loc 2 17 9
  17:src/../h/../h/Buddy.h ****         if(block_num != 0 && space != nullptr){
 244              		.loc 2 17 28 is_stmt 0
 245 016c 97070000 		lbu	a5,_ZGVZN11BuddySystem11getInstanceEPviE2bs
 245      83C70700 
 246              	.LVL22:
 247 0174 63800708 		beqz	a5,.L21
 248              	.LVL23:
 249              	.L13:
  18:src/../h/../h/Buddy.h ****             bs.buddyHeapStart = (size_t)space;
 250              		.loc 2 18 9 is_stmt 1
 251              		.loc 2 23 9
 252              	.LBE66:
 253              	.LBE65:
  19:src/Slab.cpp  ****     tmp->name = name;
 254              		.loc 1 19 77 is_stmt 0
 255 0178 B7150000 		li	a1,4096
 256 017c 938585FF 		addi	a1,a1,-8
 257 0180 17050000 		lla	a0,_ZZN11BuddySystem11getInstanceEPviE2bs
 257      13050500 
 258 0188 97000000 		call	_ZN11BuddySystem10buddyAllocEm@plt
 258      E7800000 
 259              	.LVL24:
 260 0190 93040500 		mv	s1,a0
 261              	.LVL25:
  20:src/Slab.cpp  ****     tmp->objsize = size;
GAS LISTING /tmp/ccGVpxtD.s 			page 9


 262              		.loc 1 20 5 is_stmt 1
  20:src/Slab.cpp  ****     tmp->objsize = size;
 263              		.loc 1 20 15 is_stmt 0
 264 0194 23303507 		sd	s3,96(a0)
  21:src/Slab.cpp  ****     tmp->ctor = ctor;
 265              		.loc 1 21 5 is_stmt 1
  21:src/Slab.cpp  ****     tmp->ctor = ctor;
 266              		.loc 1 21 18 is_stmt 0
 267 0198 23382503 		sd	s2,48(a0)
  22:src/Slab.cpp  ****     tmp->dtor = dtor;
 268              		.loc 1 22 5 is_stmt 1
  22:src/Slab.cpp  ****     tmp->dtor = dtor;
 269              		.loc 1 22 15 is_stmt 0
 270 019c 23385505 		sd	s5,80(a0)
  23:src/Slab.cpp  **** 
 271              		.loc 1 23 5 is_stmt 1
  23:src/Slab.cpp  **** 
 272              		.loc 1 23 15 is_stmt 0
 273 01a0 233C4505 		sd	s4,88(a0)
  26:src/Slab.cpp  ****     tmp->num_slabs_full = tmp->num_slabs_partial = tmp->num_slabs_free = tmp->num_active_obj = tmp-
 274              		.loc 1 26 5 is_stmt 1
  26:src/Slab.cpp  ****     tmp->num_slabs_full = tmp->num_slabs_partial = tmp->num_slabs_free = tmp->num_active_obj = tmp-
 275              		.loc 1 26 60 is_stmt 0
 276 01a4 23380500 		sd	zero,16(a0)
  26:src/Slab.cpp  ****     tmp->num_slabs_full = tmp->num_slabs_partial = tmp->num_slabs_free = tmp->num_active_obj = tmp-
 277              		.loc 1 26 42
 278 01a8 23340500 		sd	zero,8(a0)
  26:src/Slab.cpp  ****     tmp->num_slabs_full = tmp->num_slabs_partial = tmp->num_slabs_free = tmp->num_active_obj = tmp-
 279              		.loc 1 26 21
 280 01ac 23300500 		sd	zero,0(a0)
  27:src/Slab.cpp  ****     tmp->growing = false;
 281              		.loc 1 27 5 is_stmt 1
  27:src/Slab.cpp  ****     tmp->growing = false;
 282              		.loc 1 27 108 is_stmt 0
 283 01b0 23300508 		sd	zero,128(a0)
  27:src/Slab.cpp  ****     tmp->growing = false;
 284              		.loc 1 27 94
 285 01b4 23380506 		sd	zero,112(a0)
  27:src/Slab.cpp  ****     tmp->growing = false;
 286              		.loc 1 27 72
 287 01b8 23340502 		sd	zero,40(a0)
  27:src/Slab.cpp  ****     tmp->growing = false;
 288              		.loc 1 27 50
 289 01bc 23300502 		sd	zero,32(a0)
  27:src/Slab.cpp  ****     tmp->growing = false;
 290              		.loc 1 27 25
 291 01c0 233C0500 		sd	zero,24(a0)
  28:src/Slab.cpp  **** 
 292              		.loc 1 28 5 is_stmt 1
  28:src/Slab.cpp  **** 
 293              		.loc 1 28 18 is_stmt 0
 294 01c4 230C0506 		sb	zero,120(a0)
  31:src/Slab.cpp  ****     size_t min_size_of_objects = tmp->objsize * NUM_OF_OBJECTS_IN_SLAB;
 295              		.loc 1 31 5 is_stmt 1
  31:src/Slab.cpp  ****     size_t min_size_of_objects = tmp->objsize * NUM_OF_OBJECTS_IN_SLAB;
 296              		.loc 1 31 25 is_stmt 0
 297 01c8 93071000 		li	a5,1
GAS LISTING /tmp/ccGVpxtD.s 			page 10


 298 01cc 2334F504 		sd	a5,72(a0)
  32:src/Slab.cpp  ****     size_t min_size_of_arr = 2 * sizeof(size_t);
 299              		.loc 1 32 5 is_stmt 1
  32:src/Slab.cpp  ****     size_t min_size_of_arr = 2 * sizeof(size_t);
 300              		.loc 1 32 12 is_stmt 0
 301 01d0 13162900 		slli	a2,s2,2
 302 01d4 33062601 		add	a2,a2,s2
 303              	.LVL26:
  33:src/Slab.cpp  ****     // min requirements
 304              		.loc 1 33 5 is_stmt 1
 305              	.L15:
  35:src/Slab.cpp  ****         tmp->size_in_blocks++;
 306              		.loc 1 35 5
  35:src/Slab.cpp  ****         tmp->size_in_blocks++;
 307              		.loc 1 35 44
  35:src/Slab.cpp  ****         tmp->size_in_blocks++;
 308              		.loc 1 35 16 is_stmt 0
 309 01d8 03B78404 		ld	a4,72(s1)
  35:src/Slab.cpp  ****         tmp->size_in_blocks++;
 310              		.loc 1 35 31
 311 01dc 9316C700 		slli	a3,a4,12
  35:src/Slab.cpp  ****         tmp->size_in_blocks++;
 312              		.loc 1 35 96
 313 01e0 93078603 		addi	a5,a2,56
  35:src/Slab.cpp  ****         tmp->size_in_blocks++;
 314              		.loc 1 35 44
 315 01e4 63F6F606 		bgeu	a3,a5,.L19
  36:src/Slab.cpp  ****     }
 316              		.loc 1 36 9 is_stmt 1
  36:src/Slab.cpp  ****     }
 317              		.loc 1 36 28 is_stmt 0
 318 01e8 13071700 		addi	a4,a4,1
 319 01ec 23B4E404 		sd	a4,72(s1)
  35:src/Slab.cpp  ****         tmp->size_in_blocks++;
 320              		.loc 1 35 5
 321 01f0 6FF09FFE 		j	.L15
 322              	.LVL27:
 323              	.L21:
 324              	.LBB68:
 325              	.LBB67:
  17:src/../h/../h/Buddy.h ****         if(block_num != 0 && space != nullptr){
 326              		.loc 2 17 28
 327 01f4 17050000 		lla	a0,_ZZN11BuddySystem11getInstanceEPviE2bs
 327      13050500 
 328              	.LVL28:
 329 01fc 97000000 		call	_ZN11BuddySystemC1Ev@plt
 329      E7800000 
 330              	.LVL29:
 331 0204 93071000 		li	a5,1
 332 0208 17070000 		sb	a5,_ZGVZN11BuddySystem11getInstanceEPviE2bs,a4
 332      2300F700 
 333 0210 6FF09FF6 		j	.L13
 334              	.LVL30:
 335              	.L17:
 336              	.LBE67:
 337              	.LBE68:
   9:src/Slab.cpp  **** 
GAS LISTING /tmp/ccGVpxtD.s 			page 11


 338              		.loc 1 9 114
 339 0214 13080500 		mv	a6,a0
 340              	.LVL31:
 341              	.L14:
  42:src/Slab.cpp  ****             (int)(tmp->size_in_blocks * BLOCK_SIZE - sizeof(size_t)*2 - sizeof(Slab) - current_size
 342              		.loc 1 42 5 is_stmt 1
  42:src/Slab.cpp  ****             (int)(tmp->size_in_blocks * BLOCK_SIZE - sizeof(size_t)*2 - sizeof(Slab) - current_size
 343              		.loc 1 42 63
  42:src/Slab.cpp  ****             (int)(tmp->size_in_blocks * BLOCK_SIZE - sizeof(size_t)*2 - sizeof(Slab) - current_size
 344              		.loc 1 42 43 is_stmt 0
 345 0218 9B061800 		addiw	a3,a6,1
 346 021c 1B850600 		sext.w	a0,a3
  42:src/Slab.cpp  ****             (int)(tmp->size_in_blocks * BLOCK_SIZE - sizeof(size_t)*2 - sizeof(Slab) - current_size
 347              		.loc 1 42 48
 348 0220 B3082503 		mul	a7,a0,s2
  43:src/Slab.cpp  ****         if(++how_many_objects_into_one_slab % 8 == 0){
 349              		.loc 1 43 86
 350 0224 93179700 		slli	a5,a4,9
 351 0228 B387B740 		sub	a5,a5,a1
 352 022c 37060020 		li	a2,536870912
 353 0230 1B06B6FF 		addiw	a2,a2,-5
 354 0234 BB87C700 		addw	a5,a5,a2
 355 0238 9B973700 		slliw	a5,a5,3
  42:src/Slab.cpp  ****             (int)(tmp->size_in_blocks * BLOCK_SIZE - sizeof(size_t)*2 - sizeof(Slab) - current_size
 356              		.loc 1 42 63
 357 023c 63E01703 		bgtu	a7,a5,.L16
  44:src/Slab.cpp  ****             current_size_of_arr++;
 358              		.loc 1 44 9 is_stmt 1
 359              	.LVL32:
  44:src/Slab.cpp  ****             current_size_of_arr++;
 360              		.loc 1 44 49 is_stmt 0
 361 0240 93F67600 		andi	a3,a3,7
 362              	.LVL33:
  44:src/Slab.cpp  ****             current_size_of_arr++;
 363              		.loc 1 44 9
 364 0244 E39806FC 		bnez	a3,.L17
  45:src/Slab.cpp  ****         }
 365              		.loc 1 45 13 is_stmt 1
  45:src/Slab.cpp  ****         }
 366              		.loc 1 45 32 is_stmt 0
 367 0248 9B851500 		addiw	a1,a1,1
 368              	.LVL34:
 369 024c 6FF09FFC 		j	.L17
 370              	.LVL35:
 371              	.L19:
  41:src/Slab.cpp  ****     while((how_many_objects_into_one_slab + 1) * tmp->objsize <=
 372              		.loc 1 41 9
 373 0250 93052000 		li	a1,2
  40:src/Slab.cpp  ****     int current_size_of_arr = 2;
 374              		.loc 1 40 9
 375 0254 1308A000 		li	a6,10
 376 0258 6FF01FFC 		j	.L14
 377              	.LVL36:
 378              	.L16:
  48:src/Slab.cpp  ****     tmp->size_of_arr = current_size_of_arr;
 379              		.loc 1 48 5 is_stmt 1
  48:src/Slab.cpp  ****     tmp->size_of_arr = current_size_of_arr;
GAS LISTING /tmp/ccGVpxtD.s 			page 12


 380              		.loc 1 48 14 is_stmt 0
 381 025c 23BC0403 		sd	a6,56(s1)
  49:src/Slab.cpp  **** 
 382              		.loc 1 49 5 is_stmt 1
  49:src/Slab.cpp  **** 
 383              		.loc 1 49 22 is_stmt 0
 384 0260 23B0B404 		sd	a1,64(s1)
  52:src/Slab.cpp  **** 
 385              		.loc 1 52 5 is_stmt 1
  52:src/Slab.cpp  **** 
 386              		.loc 1 52 26 is_stmt 0
 387 0264 13850400 		mv	a0,s1
 388 0268 97000000 		call	_ZN12kmem_cache_s16create_free_slabEv
 388      E7800000 
 389              	.LVL37:
  55:src/Slab.cpp  ****     kmem_cache_s::head = tmp;
 390              		.loc 1 55 5 is_stmt 1
  55:src/Slab.cpp  ****     kmem_cache_s::head = tmp;
 391              		.loc 1 55 15 is_stmt 0
 392 0270 97070000 		lla	a5,.LANCHOR0
 392      93870700 
 393 0278 03B70700 		ld	a4,0(a5)
 394 027c 23B4E406 		sd	a4,104(s1)
  56:src/Slab.cpp  **** 
 395              		.loc 1 56 5 is_stmt 1
  56:src/Slab.cpp  **** 
 396              		.loc 1 56 24 is_stmt 0
 397 0280 23B09700 		sd	s1,0(a5)
  58:src/Slab.cpp  **** }
 398              		.loc 1 58 5 is_stmt 1
 399              	.LVL38:
 400              	.L9:
  59:src/Slab.cpp  **** 
 401              		.loc 1 59 1 is_stmt 0
 402 0284 13850400 		mv	a0,s1
 403 0288 83308103 		ld	ra,56(sp)
 404              		.cfi_remember_state
 405              		.cfi_restore 1
 406 028c 03340103 		ld	s0,48(sp)
 407              		.cfi_restore 8
 408              		.cfi_def_cfa 2, 64
 409 0290 83348102 		ld	s1,40(sp)
 410              		.cfi_restore 9
 411 0294 03390102 		ld	s2,32(sp)
 412              		.cfi_restore 18
 413              	.LVL39:
 414 0298 83398101 		ld	s3,24(sp)
 415              		.cfi_restore 19
 416              	.LVL40:
 417 029c 033A0101 		ld	s4,16(sp)
 418              		.cfi_restore 20
 419              	.LVL41:
 420 02a0 833A8100 		ld	s5,8(sp)
 421              		.cfi_restore 21
 422              	.LVL42:
 423 02a4 13010104 		addi	sp,sp,64
 424              		.cfi_def_cfa_offset 0
GAS LISTING /tmp/ccGVpxtD.s 			page 13


 425 02a8 67800000 		jr	ra
 426              	.LVL43:
 427              	.L18:
 428              		.cfi_restore_state
 429              	.LBB69:
  14:src/Slab.cpp  ****         }
 430              		.loc 1 14 20
 431 02ac 93040000 		li	s1,0
 432 02b0 6FF05FFD 		j	.L9
 433              	.LBE69:
 434              		.cfi_endproc
 435              	.LFE37:
 437              		.align	2
 438              		.globl	_ZN4Slab8set_maskEib
 440              	_ZN4Slab8set_maskEib:
 441              	.LFB41:
 147:src/Slab.cpp  **** 
 148:src/Slab.cpp  **** void Slab::set_mask(int position,  bool flag){
 442              		.loc 1 148 46 is_stmt 1
 443              		.cfi_startproc
 444              	.LVL44:
 445 02b4 130101FF 		addi	sp,sp,-16
 446              		.cfi_def_cfa_offset 16
 447 02b8 23348100 		sd	s0,8(sp)
 448              		.cfi_offset 8, -8
 449 02bc 13040101 		addi	s0,sp,16
 450              		.cfi_def_cfa 8, 0
 149:src/Slab.cpp  ****     int pos = position / sizeof(size_t);
 451              		.loc 1 149 5
 452              		.loc 1 149 9 is_stmt 0
 453 02c0 13D83540 		srai	a6,a1,3
 454              	.LVL45:
 150:src/Slab.cpp  ****     int relative_pos = position % sizeof(size_t);
 455              		.loc 1 150 5 is_stmt 1
 456              		.loc 1 150 9 is_stmt 0
 457 02c4 93F57500 		andi	a1,a1,7
 458              	.LVL46:
 151:src/Slab.cpp  ****     size_t mask = 1;
 459              		.loc 1 151 5 is_stmt 1
 152:src/Slab.cpp  ****     for(int i = 0; i < sizeof(size_t) - relative_pos - 1; i++){
 460              		.loc 1 152 5
 461              	.LBB70:
 462              		.loc 1 152 13 is_stmt 0
 463 02c8 13070000 		li	a4,0
 464              	.LBE70:
 151:src/Slab.cpp  ****     size_t mask = 1;
 465              		.loc 1 151 12
 466 02cc 93061000 		li	a3,1
 467              	.LVL47:
 468              	.L24:
 469              	.LBB71:
 470              		.loc 1 152 22 is_stmt 1 discriminator 3
 471              		.loc 1 152 54 is_stmt 0 discriminator 3
 472 02d0 93077000 		li	a5,7
 473 02d4 B387B740 		sub	a5,a5,a1
 474              		.loc 1 152 22 discriminator 3
 475 02d8 6378F700 		bgeu	a4,a5,.L23
GAS LISTING /tmp/ccGVpxtD.s 			page 14


 153:src/Slab.cpp  ****         mask <<= 1;
 476              		.loc 1 153 9 is_stmt 1 discriminator 2
 477              		.loc 1 153 14 is_stmt 0 discriminator 2
 478 02dc 93961600 		slli	a3,a3,1
 479              	.LVL48:
 152:src/Slab.cpp  ****     for(int i = 0; i < sizeof(size_t) - relative_pos - 1; i++){
 480              		.loc 1 152 5 is_stmt 1 discriminator 2
 481 02e0 1B071700 		addiw	a4,a4,1
 482              	.LVL49:
 483 02e4 6FF0DFFE 		j	.L24
 484              	.LVL50:
 485              	.L23:
 486              	.LBE71:
 154:src/Slab.cpp  ****     }
 155:src/Slab.cpp  ****     if(flag){
 487              		.loc 1 155 5
 488 02e8 63040602 		beqz	a2,.L25
 156:src/Slab.cpp  ****         // setujemo bit na jedan
 157:src/Slab.cpp  ****         this->free_objects[pos] |= mask;
 489              		.loc 1 157 9
 490              		.loc 1 157 33 is_stmt 0
 491 02ec 13082800 		addi	a6,a6,2
 492              	.LVL51:
 493 02f0 13183800 		slli	a6,a6,3
 494              	.LVL52:
 495 02f4 33050501 		add	a0,a0,a6
 496              	.LVL53:
 497 02f8 83378500 		ld	a5,8(a0)
 498 02fc B3E6D700 		or	a3,a5,a3
 499              	.LVL54:
 500 0300 2334D500 		sd	a3,8(a0)
 501              	.L22:
 158:src/Slab.cpp  ****     }else{
 159:src/Slab.cpp  ****         // setujemo bit na nula
 160:src/Slab.cpp  ****         mask = ~mask;
 161:src/Slab.cpp  ****         this->free_objects[pos] &= mask;
 162:src/Slab.cpp  ****     }
 163:src/Slab.cpp  ****     return;
 164:src/Slab.cpp  **** }
 502              		.loc 1 164 1
 503 0304 03348100 		ld	s0,8(sp)
 504              		.cfi_remember_state
 505              		.cfi_restore 8
 506              		.cfi_def_cfa 2, 16
 507 0308 13010101 		addi	sp,sp,16
 508              		.cfi_def_cfa_offset 0
 509 030c 67800000 		jr	ra
 510              	.LVL55:
 511              	.L25:
 512              		.cfi_restore_state
 160:src/Slab.cpp  ****         this->free_objects[pos] &= mask;
 513              		.loc 1 160 9 is_stmt 1
 160:src/Slab.cpp  ****         this->free_objects[pos] &= mask;
 514              		.loc 1 160 14 is_stmt 0
 515 0310 93C6F6FF 		not	a3,a3
 516              	.LVL56:
 161:src/Slab.cpp  ****     }
GAS LISTING /tmp/ccGVpxtD.s 			page 15


 517              		.loc 1 161 9 is_stmt 1
 161:src/Slab.cpp  ****     }
 518              		.loc 1 161 33 is_stmt 0
 519 0314 13082800 		addi	a6,a6,2
 520              	.LVL57:
 521 0318 13183800 		slli	a6,a6,3
 522              	.LVL58:
 523 031c 33050501 		add	a0,a0,a6
 524              	.LVL59:
 525 0320 83378500 		ld	a5,8(a0)
 526 0324 B3F6D700 		and	a3,a5,a3
 527              	.LVL60:
 528 0328 2334D500 		sd	a3,8(a0)
 163:src/Slab.cpp  **** }
 529              		.loc 1 163 5 is_stmt 1
 530 032c 6FF09FFD 		j	.L22
 531              		.cfi_endproc
 532              	.LFE41:
 534              		.align	2
 535              		.globl	_ZN4Slab9is_activeEi
 537              	_ZN4Slab9is_activeEi:
 538              	.LFB42:
 165:src/Slab.cpp  **** 
 166:src/Slab.cpp  **** bool Slab::is_active(int position){
 539              		.loc 1 166 35
 540              		.cfi_startproc
 541              	.LVL61:
 542 0330 130101FF 		addi	sp,sp,-16
 543              		.cfi_def_cfa_offset 16
 544 0334 23348100 		sd	s0,8(sp)
 545              		.cfi_offset 8, -8
 546 0338 13040101 		addi	s0,sp,16
 547              		.cfi_def_cfa 8, 0
 167:src/Slab.cpp  ****     int pos = position / sizeof(size_t);
 548              		.loc 1 167 5
 549              		.loc 1 167 9 is_stmt 0
 550 033c 13D63540 		srai	a2,a1,3
 551              	.LVL62:
 168:src/Slab.cpp  ****     int relative_pos = position % sizeof(size_t);
 552              		.loc 1 168 5 is_stmt 1
 553              		.loc 1 168 9 is_stmt 0
 554 0340 93F57500 		andi	a1,a1,7
 555              	.LVL63:
 169:src/Slab.cpp  ****     size_t mask = 1;
 556              		.loc 1 169 5 is_stmt 1
 170:src/Slab.cpp  ****     for(int i = 0; i < sizeof(size_t) - relative_pos - 1; i++){
 557              		.loc 1 170 5
 558              	.LBB72:
 559              		.loc 1 170 13 is_stmt 0
 560 0344 13070000 		li	a4,0
 561              	.LBE72:
 169:src/Slab.cpp  ****     size_t mask = 1;
 562              		.loc 1 169 12
 563 0348 93061000 		li	a3,1
 564              	.LVL64:
 565              	.L30:
 566              	.LBB73:
GAS LISTING /tmp/ccGVpxtD.s 			page 16


 567              		.loc 1 170 22 is_stmt 1 discriminator 3
 568              		.loc 1 170 54 is_stmt 0 discriminator 3
 569 034c 93077000 		li	a5,7
 570 0350 B387B740 		sub	a5,a5,a1
 571              		.loc 1 170 22 discriminator 3
 572 0354 6378F700 		bgeu	a4,a5,.L29
 171:src/Slab.cpp  ****         mask <<= 1;
 573              		.loc 1 171 9 is_stmt 1 discriminator 2
 574              		.loc 1 171 14 is_stmt 0 discriminator 2
 575 0358 93961600 		slli	a3,a3,1
 576              	.LVL65:
 170:src/Slab.cpp  ****     for(int i = 0; i < sizeof(size_t) - relative_pos - 1; i++){
 577              		.loc 1 170 5 is_stmt 1 discriminator 2
 578 035c 1B071700 		addiw	a4,a4,1
 579              	.LVL66:
 580 0360 6FF0DFFE 		j	.L30
 581              	.LVL67:
 582              	.L29:
 583              	.LBE73:
 172:src/Slab.cpp  ****     }
 173:src/Slab.cpp  ****     return this->free_objects[pos] & mask;
 584              		.loc 1 173 5
 585              		.loc 1 173 34 is_stmt 0
 586 0364 93072600 		addi	a5,a2,2
 587 0368 93973700 		slli	a5,a5,3
 588 036c 3305F500 		add	a0,a0,a5
 589              	.LVL68:
 590 0370 03358500 		ld	a0,8(a0)
 591              		.loc 1 173 36
 592 0374 3375D500 		and	a0,a0,a3
 174:src/Slab.cpp  **** }
 593              		.loc 1 174 1
 594 0378 3335A000 		snez	a0,a0
 595 037c 03348100 		ld	s0,8(sp)
 596              		.cfi_restore 8
 597              		.cfi_def_cfa 2, 16
 598 0380 13010101 		addi	sp,sp,16
 599              		.cfi_def_cfa_offset 0
 600 0384 67800000 		jr	ra
 601              		.cfi_endproc
 602              	.LFE42:
 604              		.align	2
 605              		.globl	_ZN12kmem_cache_s15kmem_cache_freeEPv
 607              	_ZN12kmem_cache_s15kmem_cache_freeEPv:
 608              	.LFB43:
 175:src/Slab.cpp  **** 
 176:src/Slab.cpp  **** // returns -1 if object not found and 0 if removal is completed
 177:src/Slab.cpp  **** int kmem_cache_s::kmem_cache_free(void *objp) {
 609              		.loc 1 177 47 is_stmt 1
 610              		.cfi_startproc
 611              	.LVL69:
 612 0388 130101FD 		addi	sp,sp,-48
 613              		.cfi_def_cfa_offset 48
 614 038c 23341102 		sd	ra,40(sp)
 615 0390 23308102 		sd	s0,32(sp)
 616 0394 233C9100 		sd	s1,24(sp)
 617 0398 23382101 		sd	s2,16(sp)
GAS LISTING /tmp/ccGVpxtD.s 			page 17


 618 039c 23343101 		sd	s3,8(sp)
 619 03a0 23304101 		sd	s4,0(sp)
 620              		.cfi_offset 1, -8
 621              		.cfi_offset 8, -16
 622              		.cfi_offset 9, -24
 623              		.cfi_offset 18, -32
 624              		.cfi_offset 19, -40
 625              		.cfi_offset 20, -48
 626 03a4 13040103 		addi	s0,sp,48
 627              		.cfi_def_cfa 8, 0
 628 03a8 130A0500 		mv	s4,a0
 629 03ac 93890500 		mv	s3,a1
 178:src/Slab.cpp  ****     // check firstly in partial
 179:src/Slab.cpp  ****     Slab* prev = nullptr;
 630              		.loc 1 179 5
 631              	.LVL70:
 180:src/Slab.cpp  ****     for(Slab* tmp = this->slabs_partial; tmp; tmp = tmp->next){
 632              		.loc 1 180 5
 633              	.LBB74:
 634              		.loc 1 180 15 is_stmt 0
 635 03b0 83348500 		ld	s1,8(a0)
 636              	.LVL71:
 637              	.LBE74:
 179:src/Slab.cpp  ****     for(Slab* tmp = this->slabs_partial; tmp; tmp = tmp->next){
 638              		.loc 1 179 11
 639 03b4 13090000 		li	s2,0
 640 03b8 6F008001 		j	.L41
 641              	.LVL72:
 642              	.L38:
 643              	.LBB87:
 644              	.LBB75:
 645              	.LBB76:
 646              	.LBB77:
 181:src/Slab.cpp  ****         if((size_t)objp > (size_t)tmp &&
 182:src/Slab.cpp  ****         (size_t)objp < (size_t)tmp + this->size_in_blocks * BLOCK_SIZE - sizeof(size_t)){
 183:src/Slab.cpp  ****             size_t position = (((size_t)objp - (size_t)tmp->first_addr)) / (size_t)this->objsize;
 184:src/Slab.cpp  ****             tmp->set_mask(position, false);
 185:src/Slab.cpp  ****             if(this->dtor){
 186:src/Slab.cpp  ****                 this->dtor(objp);
 187:src/Slab.cpp  ****             }
 188:src/Slab.cpp  ****             if(this->ctor){
 189:src/Slab.cpp  ****                 this->ctor(objp);
 190:src/Slab.cpp  ****             }
 191:src/Slab.cpp  **** 
 192:src/Slab.cpp  ****             this->num_active_obj--;
 193:src/Slab.cpp  ****             tmp->decrement_num_of_active();
 194:src/Slab.cpp  ****             size_t number_of_active = tmp->get_number_of_active_objects();
 195:src/Slab.cpp  ****             if(number_of_active == 0){
 196:src/Slab.cpp  ****                 // move from partial to free
 197:src/Slab.cpp  ****                 if(prev)prev->next = tmp->next;
 198:src/Slab.cpp  ****                 else slabs_partial = tmp->next;
 647              		.loc 1 198 22 is_stmt 1
 648              		.loc 1 198 43 is_stmt 0
 649 03bc 83B78400 		ld	a5,8(s1)
 650              	.LVL73:
 651              		.loc 1 198 36
 652 03c0 2334FA00 		sd	a5,8(s4)
GAS LISTING /tmp/ccGVpxtD.s 			page 18


 653              	.LVL74:
 654 03c4 6F004009 		j	.L39
 655              	.LVL75:
 656              	.L34:
 657              	.LBE77:
 658              	.LBE76:
 199:src/Slab.cpp  ****                 tmp->next = this->slabs_free;
 200:src/Slab.cpp  ****                 this->slabs_free = tmp;
 201:src/Slab.cpp  ****                 this->num_slabs_partial--;
 202:src/Slab.cpp  ****                 this->num_slabs_free++;
 203:src/Slab.cpp  ****             }
 204:src/Slab.cpp  ****             return 0;
 205:src/Slab.cpp  ****         }
 206:src/Slab.cpp  ****         prev = tmp;
 659              		.loc 1 206 9 is_stmt 1 discriminator 2
 660              	.LBE75:
 180:src/Slab.cpp  ****         if((size_t)objp > (size_t)tmp &&
 661              		.loc 1 180 5 discriminator 2
 662              	.LBB84:
 663              		.loc 1 206 14 is_stmt 0 discriminator 2
 664 03c8 13890400 		mv	s2,s1
 665              	.LBE84:
 180:src/Slab.cpp  ****         if((size_t)objp > (size_t)tmp &&
 666              		.loc 1 180 51 discriminator 2
 667 03cc 83B48400 		ld	s1,8(s1)
 668              	.LVL76:
 669              	.L41:
 180:src/Slab.cpp  ****         if((size_t)objp > (size_t)tmp &&
 670              		.loc 1 180 42 is_stmt 1 discriminator 1
 671 03d0 638A040A 		beqz	s1,.L33
 672              	.LBB85:
 181:src/Slab.cpp  ****         if((size_t)objp > (size_t)tmp &&
 673              		.loc 1 181 9
 674              	.LBB82:
 675 03d4 E3FA34FF 		bleu	s3,s1,.L34
 182:src/Slab.cpp  ****             size_t position = (((size_t)objp - (size_t)tmp->first_addr)) / (size_t)this->objsize;
 676              		.loc 1 182 44 is_stmt 0 discriminator 1
 677 03d8 83378A04 		ld	a5,72(s4)
 182:src/Slab.cpp  ****             size_t position = (((size_t)objp - (size_t)tmp->first_addr)) / (size_t)this->objsize;
 678              		.loc 1 182 59 discriminator 1
 679 03dc 9397C700 		slli	a5,a5,12
 182:src/Slab.cpp  ****             size_t position = (((size_t)objp - (size_t)tmp->first_addr)) / (size_t)this->objsize;
 680              		.loc 1 182 36 discriminator 1
 681 03e0 B387F400 		add	a5,s1,a5
 182:src/Slab.cpp  ****             size_t position = (((size_t)objp - (size_t)tmp->first_addr)) / (size_t)this->objsize;
 682              		.loc 1 182 72 discriminator 1
 683 03e4 938787FF 		addi	a5,a5,-8
 181:src/Slab.cpp  ****         (size_t)objp < (size_t)tmp + this->size_in_blocks * BLOCK_SIZE - sizeof(size_t)){
 684              		.loc 1 181 39 discriminator 1
 685 03e8 E3F0F9FE 		bgeu	s3,a5,.L34
 686              	.LBB80:
 183:src/Slab.cpp  ****             tmp->set_mask(position, false);
 687              		.loc 1 183 13 is_stmt 1
 183:src/Slab.cpp  ****             tmp->set_mask(position, false);
 688              		.loc 1 183 61 is_stmt 0
 689 03ec 83B50401 		ld	a1,16(s1)
 690              	.LVL77:
GAS LISTING /tmp/ccGVpxtD.s 			page 19


 183:src/Slab.cpp  ****             tmp->set_mask(position, false);
 691              		.loc 1 183 46
 692 03f0 3387B940 		sub	a4,s3,a1
 183:src/Slab.cpp  ****             tmp->set_mask(position, false);
 693              		.loc 1 183 90
 694 03f4 83350A03 		ld	a1,48(s4)
 183:src/Slab.cpp  ****             tmp->set_mask(position, false);
 695              		.loc 1 183 20
 696 03f8 B355B702 		divu	a1,a4,a1
 697              	.LVL78:
 184:src/Slab.cpp  ****             if(this->dtor){
 698              		.loc 1 184 13 is_stmt 1
 184:src/Slab.cpp  ****             if(this->dtor){
 699              		.loc 1 184 26 is_stmt 0
 700 03fc 13060000 		li	a2,0
 701 0400 9B850500 		sext.w	a1,a1
 702              	.LVL79:
 703 0404 13850400 		mv	a0,s1
 704              	.LVL80:
 705 0408 97000000 		call	_ZN4Slab8set_maskEib
 705      E7800000 
 706              	.LVL81:
 185:src/Slab.cpp  ****                 this->dtor(objp);
 707              		.loc 1 185 13 is_stmt 1
 185:src/Slab.cpp  ****                 this->dtor(objp);
 708              		.loc 1 185 22 is_stmt 0
 709 0410 83378A05 		ld	a5,88(s4)
 185:src/Slab.cpp  ****                 this->dtor(objp);
 710              		.loc 1 185 13
 711 0414 63860700 		beqz	a5,.L35
 186:src/Slab.cpp  ****             }
 712              		.loc 1 186 17 is_stmt 1
 186:src/Slab.cpp  ****             }
 713              		.loc 1 186 27 is_stmt 0
 714 0418 13850900 		mv	a0,s3
 715 041c E7800700 		jalr	a5
 716              	.LVL82:
 717              	.L35:
 188:src/Slab.cpp  ****                 this->ctor(objp);
 718              		.loc 1 188 13 is_stmt 1
 188:src/Slab.cpp  ****                 this->ctor(objp);
 719              		.loc 1 188 22 is_stmt 0
 720 0420 83370A05 		ld	a5,80(s4)
 188:src/Slab.cpp  ****                 this->ctor(objp);
 721              		.loc 1 188 13
 722 0424 63860700 		beqz	a5,.L36
 189:src/Slab.cpp  ****             }
 723              		.loc 1 189 17 is_stmt 1
 189:src/Slab.cpp  ****             }
 724              		.loc 1 189 27 is_stmt 0
 725 0428 13850900 		mv	a0,s3
 726 042c E7800700 		jalr	a5
 727              	.LVL83:
 728              	.L36:
 192:src/Slab.cpp  ****             tmp->decrement_num_of_active();
 729              		.loc 1 192 13 is_stmt 1
 192:src/Slab.cpp  ****             tmp->decrement_num_of_active();
GAS LISTING /tmp/ccGVpxtD.s 			page 20


 730              		.loc 1 192 19 is_stmt 0
 731 0430 83370A07 		ld	a5,112(s4)
 192:src/Slab.cpp  ****             tmp->decrement_num_of_active();
 732              		.loc 1 192 33
 733 0434 9387F7FF 		addi	a5,a5,-1
 734 0438 2338FA06 		sd	a5,112(s4)
 193:src/Slab.cpp  ****             size_t number_of_active = tmp->get_number_of_active_objects();
 735              		.loc 1 193 13 is_stmt 1
 736              	.LVL84:
 737              	.LBB78:
 738              	.LBB79:
 739              		.file 3 "src/../h/Slab.h"
   1:src/../h/Slab.h **** 
   2:src/../h/Slab.h **** #include "../lib/hw.h"
   3:src/../h/Slab.h **** #include "../h/Buddy.h"
   4:src/../h/Slab.h **** #include "../h/String.h"
   5:src/../h/Slab.h **** 
   6:src/../h/Slab.h **** struct Slab{
   7:src/../h/Slab.h **** private:
   8:src/../h/Slab.h ****     friend struct kmem_cache_s;
   9:src/../h/Slab.h ****     size_t num_active = 0; // number of active objects in slab
  10:src/../h/Slab.h ****     Slab* next = nullptr; // next slab
  11:src/../h/Slab.h ****     size_t first_addr;
  12:src/../h/Slab.h ****     size_t free_objects[];
  13:src/../h/Slab.h **** 
  14:src/../h/Slab.h **** public:
  15:src/../h/Slab.h ****     void clear_slab(int num_of_objects_in_slab, int objsize, void (*dtor)(void *));
  16:src/../h/Slab.h ****     size_t get_number_of_active_objects(){return num_active;}
  17:src/../h/Slab.h ****     void* return_first_free_object_and_rearange_list(int, int);
  18:src/../h/Slab.h ****     void increment_num_of_active(){num_active++;}
  19:src/../h/Slab.h ****     void decrement_num_of_active(){num_active--;}
 740              		.loc 3 19 36
 741 043c 83B70400 		ld	a5,0(s1)
 742              		.loc 3 19 46 is_stmt 0
 743 0440 9387F7FF 		addi	a5,a5,-1
 744 0444 23B0F400 		sd	a5,0(s1)
 745              	.LVL85:
 746              	.LBE79:
 747              	.LBE78:
 194:src/Slab.cpp  ****             if(number_of_active == 0){
 748              		.loc 1 194 13 is_stmt 1
 749              	.LBE80:
 750              	.LBE82:
 751              	.LBE85:
 752              	.LBE87:
  16:src/../h/Slab.h ****     void* return_first_free_object_and_rearange_list(int, int);
 753              		.loc 3 16 43
 754              	.LBB88:
 755              	.LBB86:
 756              	.LBB83:
 757              	.LBB81:
 195:src/Slab.cpp  ****                 // move from partial to free
 758              		.loc 1 195 13
 759 0448 639A0702 		bnez	a5,.L37
 197:src/Slab.cpp  ****                 else slabs_partial = tmp->next;
 760              		.loc 1 197 17
 761 044c E30809F6 		beqz	s2,.L38
GAS LISTING /tmp/ccGVpxtD.s 			page 21


 197:src/Slab.cpp  ****                 else slabs_partial = tmp->next;
 762              		.loc 1 197 25 discriminator 1
 197:src/Slab.cpp  ****                 else slabs_partial = tmp->next;
 763              		.loc 1 197 43 is_stmt 0 discriminator 1
 764 0450 83B78400 		ld	a5,8(s1)
 765              	.LVL86:
 197:src/Slab.cpp  ****                 else slabs_partial = tmp->next;
 766              		.loc 1 197 36 discriminator 1
 767 0454 2334F900 		sd	a5,8(s2)
 768              	.LVL87:
 769              	.L39:
 199:src/Slab.cpp  ****                 this->slabs_free = tmp;
 770              		.loc 1 199 17 is_stmt 1
 199:src/Slab.cpp  ****                 this->slabs_free = tmp;
 771              		.loc 1 199 35 is_stmt 0
 772 0458 83370A01 		ld	a5,16(s4)
 199:src/Slab.cpp  ****                 this->slabs_free = tmp;
 773              		.loc 1 199 27
 774 045c 23B4F400 		sd	a5,8(s1)
 200:src/Slab.cpp  ****                 this->num_slabs_partial--;
 775              		.loc 1 200 17 is_stmt 1
 200:src/Slab.cpp  ****                 this->num_slabs_partial--;
 776              		.loc 1 200 34 is_stmt 0
 777 0460 23389A00 		sd	s1,16(s4)
 201:src/Slab.cpp  ****                 this->num_slabs_free++;
 778              		.loc 1 201 17 is_stmt 1
 201:src/Slab.cpp  ****                 this->num_slabs_free++;
 779              		.loc 1 201 23 is_stmt 0
 780 0464 83370A02 		ld	a5,32(s4)
 201:src/Slab.cpp  ****                 this->num_slabs_free++;
 781              		.loc 1 201 40
 782 0468 9387F7FF 		addi	a5,a5,-1
 783 046c 2330FA02 		sd	a5,32(s4)
 202:src/Slab.cpp  ****             }
 784              		.loc 1 202 17 is_stmt 1
 202:src/Slab.cpp  ****             }
 785              		.loc 1 202 23 is_stmt 0
 786 0470 83378A02 		ld	a5,40(s4)
 202:src/Slab.cpp  ****             }
 787              		.loc 1 202 37
 788 0474 93871700 		addi	a5,a5,1
 789 0478 2334FA02 		sd	a5,40(s4)
 790              	.L37:
 204:src/Slab.cpp  ****         }
 791              		.loc 1 204 13 is_stmt 1
 204:src/Slab.cpp  ****         }
 792              		.loc 1 204 20 is_stmt 0
 793 047c 13050000 		li	a0,0
 794 0480 6F00400D 		j	.L40
 795              	.LVL88:
 796              	.L33:
 797              	.LBE81:
 798              	.LBE83:
 799              	.LBE86:
 800              	.LBE88:
 207:src/Slab.cpp  ****     }
 208:src/Slab.cpp  ****     // check in full
GAS LISTING /tmp/ccGVpxtD.s 			page 22


 209:src/Slab.cpp  ****     prev = nullptr;
 801              		.loc 1 209 5 is_stmt 1
 210:src/Slab.cpp  ****     for(Slab* tmp = this->slabs_full; tmp; tmp = tmp->next){
 802              		.loc 1 210 5
 803              	.LBB89:
 804              		.loc 1 210 15 is_stmt 0
 805 0484 03390A00 		ld	s2,0(s4)
 806              	.LVL89:
 807 0488 6F008001 		j	.L47
 808              	.LVL90:
 809              	.L45:
 810              	.LBB90:
 811              	.LBB91:
 812              	.LBB92:
 211:src/Slab.cpp  ****         if((size_t)objp > (size_t)tmp &&
 212:src/Slab.cpp  ****            (size_t)objp < (size_t)tmp + this->size_in_blocks * BLOCK_SIZE - sizeof(size_t)){
 213:src/Slab.cpp  ****             size_t position = (((size_t)objp - (size_t)tmp->first_addr)) / (size_t)this->objsize;
 214:src/Slab.cpp  ****             tmp->set_mask(position, false);
 215:src/Slab.cpp  ****             if(this->dtor){
 216:src/Slab.cpp  ****                 this->dtor(objp);
 217:src/Slab.cpp  ****             }
 218:src/Slab.cpp  ****             if(this->ctor){
 219:src/Slab.cpp  ****                 this->ctor(objp);
 220:src/Slab.cpp  ****             }
 221:src/Slab.cpp  ****             this->num_active_obj--;
 222:src/Slab.cpp  ****             tmp->decrement_num_of_active();
 223:src/Slab.cpp  **** 
 224:src/Slab.cpp  ****             // move from full to partial
 225:src/Slab.cpp  ****             if(prev)prev->next = tmp->next;
 226:src/Slab.cpp  ****             else slabs_full = tmp->next;
 813              		.loc 1 226 18 is_stmt 1
 814              		.loc 1 226 36 is_stmt 0
 815 048c 83378900 		ld	a5,8(s2)
 816              		.loc 1 226 29
 817 0490 2330FA00 		sd	a5,0(s4)
 818 0494 6F000009 		j	.L46
 819              	.LVL91:
 820              	.L42:
 821              	.LBE92:
 822              	.LBE91:
 227:src/Slab.cpp  ****             tmp->next = this->slabs_partial;
 228:src/Slab.cpp  ****             this->slabs_partial = tmp;
 229:src/Slab.cpp  ****             this->num_slabs_full--;
 230:src/Slab.cpp  ****             this->num_slabs_partial++;
 231:src/Slab.cpp  **** 
 232:src/Slab.cpp  ****             return 0;
 233:src/Slab.cpp  ****         }
 234:src/Slab.cpp  ****         prev = tmp;
 823              		.loc 1 234 9 is_stmt 1 discriminator 2
 824              	.LBE90:
 210:src/Slab.cpp  ****         if((size_t)objp > (size_t)tmp &&
 825              		.loc 1 210 5 discriminator 2
 826              	.LBB97:
 827              		.loc 1 234 14 is_stmt 0 discriminator 2
 828 0498 93040900 		mv	s1,s2
 829              	.LBE97:
 210:src/Slab.cpp  ****         if((size_t)objp > (size_t)tmp &&
GAS LISTING /tmp/ccGVpxtD.s 			page 23


 830              		.loc 1 210 48 discriminator 2
 831 049c 03398900 		ld	s2,8(s2)
 832              	.LVL92:
 833              	.L47:
 210:src/Slab.cpp  ****         if((size_t)objp > (size_t)tmp &&
 834              		.loc 1 210 39 is_stmt 1 discriminator 1
 835 04a0 6308090A 		beqz	s2,.L48
 836              	.LBB98:
 211:src/Slab.cpp  ****         if((size_t)objp > (size_t)tmp &&
 837              		.loc 1 211 9
 838              	.LBB96:
 839 04a4 E37A39FF 		bleu	s3,s2,.L42
 212:src/Slab.cpp  ****             size_t position = (((size_t)objp - (size_t)tmp->first_addr)) / (size_t)this->objsize;
 840              		.loc 1 212 47 is_stmt 0 discriminator 1
 841 04a8 83378A04 		ld	a5,72(s4)
 212:src/Slab.cpp  ****             size_t position = (((size_t)objp - (size_t)tmp->first_addr)) / (size_t)this->objsize;
 842              		.loc 1 212 62 discriminator 1
 843 04ac 9397C700 		slli	a5,a5,12
 212:src/Slab.cpp  ****             size_t position = (((size_t)objp - (size_t)tmp->first_addr)) / (size_t)this->objsize;
 844              		.loc 1 212 39 discriminator 1
 845 04b0 B307F900 		add	a5,s2,a5
 212:src/Slab.cpp  ****             size_t position = (((size_t)objp - (size_t)tmp->first_addr)) / (size_t)this->objsize;
 846              		.loc 1 212 75 discriminator 1
 847 04b4 938787FF 		addi	a5,a5,-8
 211:src/Slab.cpp  ****            (size_t)objp < (size_t)tmp + this->size_in_blocks * BLOCK_SIZE - sizeof(size_t)){
 848              		.loc 1 211 39 discriminator 1
 849 04b8 E3F0F9FE 		bgeu	s3,a5,.L42
 850              	.LBB95:
 213:src/Slab.cpp  ****             tmp->set_mask(position, false);
 851              		.loc 1 213 13 is_stmt 1
 213:src/Slab.cpp  ****             tmp->set_mask(position, false);
 852              		.loc 1 213 61 is_stmt 0
 853 04bc 83350901 		ld	a1,16(s2)
 854              	.LVL93:
 213:src/Slab.cpp  ****             tmp->set_mask(position, false);
 855              		.loc 1 213 46
 856 04c0 3387B940 		sub	a4,s3,a1
 213:src/Slab.cpp  ****             tmp->set_mask(position, false);
 857              		.loc 1 213 90
 858 04c4 83350A03 		ld	a1,48(s4)
 213:src/Slab.cpp  ****             tmp->set_mask(position, false);
 859              		.loc 1 213 20
 860 04c8 B355B702 		divu	a1,a4,a1
 861              	.LVL94:
 214:src/Slab.cpp  ****             if(this->dtor){
 862              		.loc 1 214 13 is_stmt 1
 214:src/Slab.cpp  ****             if(this->dtor){
 863              		.loc 1 214 26 is_stmt 0
 864 04cc 13060000 		li	a2,0
 865 04d0 9B850500 		sext.w	a1,a1
 866              	.LVL95:
 867 04d4 13050900 		mv	a0,s2
 868              	.LVL96:
 869 04d8 97000000 		call	_ZN4Slab8set_maskEib
 869      E7800000 
 870              	.LVL97:
 215:src/Slab.cpp  ****                 this->dtor(objp);
GAS LISTING /tmp/ccGVpxtD.s 			page 24


 871              		.loc 1 215 13 is_stmt 1
 215:src/Slab.cpp  ****                 this->dtor(objp);
 872              		.loc 1 215 22 is_stmt 0
 873 04e0 83378A05 		ld	a5,88(s4)
 215:src/Slab.cpp  ****                 this->dtor(objp);
 874              		.loc 1 215 13
 875 04e4 63860700 		beqz	a5,.L43
 216:src/Slab.cpp  ****             }
 876              		.loc 1 216 17 is_stmt 1
 216:src/Slab.cpp  ****             }
 877              		.loc 1 216 27 is_stmt 0
 878 04e8 13850900 		mv	a0,s3
 879 04ec E7800700 		jalr	a5
 880              	.LVL98:
 881              	.L43:
 218:src/Slab.cpp  ****                 this->ctor(objp);
 882              		.loc 1 218 13 is_stmt 1
 218:src/Slab.cpp  ****                 this->ctor(objp);
 883              		.loc 1 218 22 is_stmt 0
 884 04f0 83370A05 		ld	a5,80(s4)
 218:src/Slab.cpp  ****                 this->ctor(objp);
 885              		.loc 1 218 13
 886 04f4 63860700 		beqz	a5,.L44
 219:src/Slab.cpp  ****             }
 887              		.loc 1 219 17 is_stmt 1
 219:src/Slab.cpp  ****             }
 888              		.loc 1 219 27 is_stmt 0
 889 04f8 13850900 		mv	a0,s3
 890 04fc E7800700 		jalr	a5
 891              	.LVL99:
 892              	.L44:
 221:src/Slab.cpp  ****             tmp->decrement_num_of_active();
 893              		.loc 1 221 13 is_stmt 1
 221:src/Slab.cpp  ****             tmp->decrement_num_of_active();
 894              		.loc 1 221 19 is_stmt 0
 895 0500 83370A07 		ld	a5,112(s4)
 221:src/Slab.cpp  ****             tmp->decrement_num_of_active();
 896              		.loc 1 221 33
 897 0504 9387F7FF 		addi	a5,a5,-1
 898 0508 2338FA06 		sd	a5,112(s4)
 222:src/Slab.cpp  **** 
 899              		.loc 1 222 13 is_stmt 1
 900              	.LVL100:
 901              	.LBB93:
 902              	.LBB94:
 903              		.loc 3 19 36
 904 050c 83370900 		ld	a5,0(s2)
 905              		.loc 3 19 46 is_stmt 0
 906 0510 9387F7FF 		addi	a5,a5,-1
 907 0514 2330F900 		sd	a5,0(s2)
 908              	.LVL101:
 909              	.LBE94:
 910              	.LBE93:
 225:src/Slab.cpp  ****             else slabs_full = tmp->next;
 911              		.loc 1 225 13 is_stmt 1
 912 0518 E38A04F6 		beqz	s1,.L45
 225:src/Slab.cpp  ****             else slabs_full = tmp->next;
GAS LISTING /tmp/ccGVpxtD.s 			page 25


 913              		.loc 1 225 21 discriminator 1
 225:src/Slab.cpp  ****             else slabs_full = tmp->next;
 914              		.loc 1 225 39 is_stmt 0 discriminator 1
 915 051c 83378900 		ld	a5,8(s2)
 225:src/Slab.cpp  ****             else slabs_full = tmp->next;
 916              		.loc 1 225 32 discriminator 1
 917 0520 23B4F400 		sd	a5,8(s1)
 918              	.L46:
 227:src/Slab.cpp  ****             this->slabs_partial = tmp;
 919              		.loc 1 227 13 is_stmt 1
 227:src/Slab.cpp  ****             this->slabs_partial = tmp;
 920              		.loc 1 227 31 is_stmt 0
 921 0524 83378A00 		ld	a5,8(s4)
 227:src/Slab.cpp  ****             this->slabs_partial = tmp;
 922              		.loc 1 227 23
 923 0528 2334F900 		sd	a5,8(s2)
 228:src/Slab.cpp  ****             this->num_slabs_full--;
 924              		.loc 1 228 13 is_stmt 1
 228:src/Slab.cpp  ****             this->num_slabs_full--;
 925              		.loc 1 228 33 is_stmt 0
 926 052c 23342A01 		sd	s2,8(s4)
 229:src/Slab.cpp  ****             this->num_slabs_partial++;
 927              		.loc 1 229 13 is_stmt 1
 229:src/Slab.cpp  ****             this->num_slabs_partial++;
 928              		.loc 1 229 19 is_stmt 0
 929 0530 83378A01 		ld	a5,24(s4)
 229:src/Slab.cpp  ****             this->num_slabs_partial++;
 930              		.loc 1 229 33
 931 0534 9387F7FF 		addi	a5,a5,-1
 932 0538 233CFA00 		sd	a5,24(s4)
 230:src/Slab.cpp  **** 
 933              		.loc 1 230 13 is_stmt 1
 230:src/Slab.cpp  **** 
 934              		.loc 1 230 19 is_stmt 0
 935 053c 83370A02 		ld	a5,32(s4)
 230:src/Slab.cpp  **** 
 936              		.loc 1 230 36
 937 0540 93871700 		addi	a5,a5,1
 938 0544 2330FA02 		sd	a5,32(s4)
 232:src/Slab.cpp  ****         }
 939              		.loc 1 232 13 is_stmt 1
 232:src/Slab.cpp  ****         }
 940              		.loc 1 232 20 is_stmt 0
 941 0548 13050000 		li	a0,0
 942 054c 6F008000 		j	.L40
 943              	.LVL102:
 944              	.L48:
 945              	.LBE95:
 946              	.LBE96:
 947              	.LBE98:
 948              	.LBE89:
 235:src/Slab.cpp  ****     }
 236:src/Slab.cpp  ****     return -1;
 949              		.loc 1 236 13
 950 0550 1305F0FF 		li	a0,-1
 951              	.LVL103:
 952              	.L40:
GAS LISTING /tmp/ccGVpxtD.s 			page 26


 237:src/Slab.cpp  **** }
 953              		.loc 1 237 1
 954 0554 83308102 		ld	ra,40(sp)
 955              		.cfi_restore 1
 956 0558 03340102 		ld	s0,32(sp)
 957              		.cfi_restore 8
 958              		.cfi_def_cfa 2, 48
 959 055c 83348101 		ld	s1,24(sp)
 960              		.cfi_restore 9
 961 0560 03390101 		ld	s2,16(sp)
 962              		.cfi_restore 18
 963 0564 83398100 		ld	s3,8(sp)
 964              		.cfi_restore 19
 965              	.LVL104:
 966 0568 033A0100 		ld	s4,0(sp)
 967              		.cfi_restore 20
 968              	.LVL105:
 969 056c 13010103 		addi	sp,sp,48
 970              		.cfi_def_cfa_offset 0
 971 0570 67800000 		jr	ra
 972              		.cfi_endproc
 973              	.LFE43:
 975              		.align	2
 976              		.globl	_ZN12kmem_cache_s20check_if_name_existsEPKc
 978              	_ZN12kmem_cache_s20check_if_name_existsEPKc:
 979              	.LFB45:
 238:src/Slab.cpp  **** 
 239:src/Slab.cpp  **** void *kmem_cache_s::kmalloc(size_t size) {
 240:src/Slab.cpp  ****     // kreiraj ime
 241:src/Slab.cpp  ****     const char* n = (const char*)concatenate_int_to_char_ptr((int)size);
 242:src/Slab.cpp  **** 
 243:src/Slab.cpp  ****     kmem_cache_s* tmp = check_if_name_exists(n);
 244:src/Slab.cpp  ****     if(tmp == nullptr){
 245:src/Slab.cpp  ****         // napravi novi
 246:src/Slab.cpp  ****         tmp = (kmem_cache_s*)kmem_cache_create(n, size, nullptr, nullptr);
 247:src/Slab.cpp  ****         if(!tmp)return nullptr;
 248:src/Slab.cpp  ****     }
 249:src/Slab.cpp  ****     // vrati element
 250:src/Slab.cpp  ****     void* elem = tmp->kmem_cache_alloc();
 251:src/Slab.cpp  ****     return elem;
 252:src/Slab.cpp  **** }
 253:src/Slab.cpp  **** 
 254:src/Slab.cpp  **** // returns cache with given name, or nullptr if there is no such cache
 255:src/Slab.cpp  **** kmem_cache_s *kmem_cache_s::check_if_name_exists(const char* name) {
 980              		.loc 1 255 68 is_stmt 1
 981              		.cfi_startproc
 982              	.LVL106:
 983 0574 130101FE 		addi	sp,sp,-32
 984              		.cfi_def_cfa_offset 32
 985 0578 233C1100 		sd	ra,24(sp)
 986 057c 23388100 		sd	s0,16(sp)
 987 0580 23349100 		sd	s1,8(sp)
 988 0584 23302101 		sd	s2,0(sp)
 989              		.cfi_offset 1, -8
 990              		.cfi_offset 8, -16
 991              		.cfi_offset 9, -24
 992              		.cfi_offset 18, -32
GAS LISTING /tmp/ccGVpxtD.s 			page 27


 993 0588 13040102 		addi	s0,sp,32
 994              		.cfi_def_cfa 8, 0
 995 058c 13090500 		mv	s2,a0
 256:src/Slab.cpp  ****     for(kmem_cache_s* tmp = kmem_cache_s::head; tmp; tmp = tmp->next){
 996              		.loc 1 256 5
 997              	.LBB99:
 998              		.loc 1 256 23 is_stmt 0
 999 0590 97040000 		ld	s1,.LANCHOR0
 999      83B40400 
 1000              	.LVL107:
 1001              	.L52:
 1002              		.loc 1 256 49 is_stmt 1 discriminator 1
 1003 0598 63800402 		beqz	s1,.L50
 257:src/Slab.cpp  ****         if(string_compare(tmp->name, name)){
 1004              		.loc 1 257 9
 1005              		.loc 1 257 26 is_stmt 0
 1006 059c 93050900 		mv	a1,s2
 1007 05a0 03B50406 		ld	a0,96(s1)
 1008 05a4 97000000 		call	_Z14string_comparePKcS0_@plt
 1008      E7800000 
 1009              	.LVL108:
 1010              		.loc 1 257 9
 1011 05ac 63160500 		bnez	a0,.L50
 256:src/Slab.cpp  ****     for(kmem_cache_s* tmp = kmem_cache_s::head; tmp; tmp = tmp->next){
 1012              		.loc 1 256 5 is_stmt 1 discriminator 2
 256:src/Slab.cpp  ****     for(kmem_cache_s* tmp = kmem_cache_s::head; tmp; tmp = tmp->next){
 1013              		.loc 1 256 58 is_stmt 0 discriminator 2
 1014 05b0 83B48406 		ld	s1,104(s1)
 1015              	.LVL109:
 256:src/Slab.cpp  ****     for(kmem_cache_s* tmp = kmem_cache_s::head; tmp; tmp = tmp->next){
 1016              		.loc 1 256 5 discriminator 2
 1017 05b4 6FF05FFE 		j	.L52
 1018              	.L50:
 1019              	.LBE99:
 258:src/Slab.cpp  ****             return tmp;
 259:src/Slab.cpp  ****         }
 260:src/Slab.cpp  ****     }
 261:src/Slab.cpp  ****     return nullptr;
 262:src/Slab.cpp  **** }
 1020              		.loc 1 262 1
 1021 05b8 13850400 		mv	a0,s1
 1022 05bc 83308101 		ld	ra,24(sp)
 1023              		.cfi_restore 1
 1024 05c0 03340101 		ld	s0,16(sp)
 1025              		.cfi_restore 8
 1026              		.cfi_def_cfa 2, 32
 1027 05c4 83348100 		ld	s1,8(sp)
 1028              		.cfi_restore 9
 1029              	.LVL110:
 1030 05c8 03390100 		ld	s2,0(sp)
 1031              		.cfi_restore 18
 1032              	.LVL111:
 1033 05cc 13010102 		addi	sp,sp,32
 1034              		.cfi_def_cfa_offset 0
 1035 05d0 67800000 		jr	ra
 1036              		.cfi_endproc
 1037              	.LFE45:
GAS LISTING /tmp/ccGVpxtD.s 			page 28


 1039              		.align	2
 1040              		.globl	_ZN12kmem_cache_s3powEm
 1042              	_ZN12kmem_cache_s3powEm:
 1043              	.LFB46:
 263:src/Slab.cpp  **** 
 264:src/Slab.cpp  **** size_t kmem_cache_s::pow(size_t deg){
 1044              		.loc 1 264 37 is_stmt 1
 1045              		.cfi_startproc
 1046              	.LVL112:
 1047 05d4 130101FF 		addi	sp,sp,-16
 1048              		.cfi_def_cfa_offset 16
 1049 05d8 23348100 		sd	s0,8(sp)
 1050              		.cfi_offset 8, -8
 1051 05dc 13040101 		addi	s0,sp,16
 1052              		.cfi_def_cfa 8, 0
 1053 05e0 13070500 		mv	a4,a0
 265:src/Slab.cpp  ****     size_t tmp = 1;
 1054              		.loc 1 265 5
 1055              	.LVL113:
 266:src/Slab.cpp  ****     for(size_t i = 0; i < deg; i++){
 1056              		.loc 1 266 5
 1057              	.LBB100:
 1058              		.loc 1 266 16 is_stmt 0
 1059 05e4 93070000 		li	a5,0
 1060              	.LBE100:
 265:src/Slab.cpp  ****     size_t tmp = 1;
 1061              		.loc 1 265 12
 1062 05e8 13051000 		li	a0,1
 1063              	.LVL114:
 1064              	.L56:
 1065              	.LBB101:
 1066              		.loc 1 266 25 is_stmt 1 discriminator 3
 1067 05ec 63F8E700 		bgeu	a5,a4,.L54
 267:src/Slab.cpp  ****         tmp <<= 1;
 1068              		.loc 1 267 9 discriminator 2
 1069              		.loc 1 267 13 is_stmt 0 discriminator 2
 1070 05f0 13151500 		slli	a0,a0,1
 1071              	.LVL115:
 266:src/Slab.cpp  ****     for(size_t i = 0; i < deg; i++){
 1072              		.loc 1 266 5 is_stmt 1 discriminator 2
 1073 05f4 93871700 		addi	a5,a5,1
 1074              	.LVL116:
 1075 05f8 6FF05FFF 		j	.L56
 1076              	.L54:
 1077              	.LBE101:
 268:src/Slab.cpp  ****     }
 269:src/Slab.cpp  ****     return tmp;
 270:src/Slab.cpp  **** }
 1078              		.loc 1 270 1 is_stmt 0
 1079 05fc 03348100 		ld	s0,8(sp)
 1080              		.cfi_restore 8
 1081              		.cfi_def_cfa 2, 16
 1082 0600 13010101 		addi	sp,sp,16
 1083              		.cfi_def_cfa_offset 0
 1084 0604 67800000 		jr	ra
 1085              		.cfi_endproc
 1086              	.LFE46:
GAS LISTING /tmp/ccGVpxtD.s 			page 29


 1088              		.align	2
 1089              		.globl	_ZN12kmem_cache_s28is_small_buffer_size_correctEm
 1091              	_ZN12kmem_cache_s28is_small_buffer_size_correctEm:
 1092              	.LFB47:
 271:src/Slab.cpp  **** 
 272:src/Slab.cpp  **** int kmem_cache_s::is_small_buffer_size_correct(size_t size) {
 1093              		.loc 1 272 61 is_stmt 1
 1094              		.cfi_startproc
 1095              	.LVL117:
 1096 0608 130101FE 		addi	sp,sp,-32
 1097              		.cfi_def_cfa_offset 32
 1098 060c 233C1100 		sd	ra,24(sp)
 1099 0610 23388100 		sd	s0,16(sp)
 1100 0614 23349100 		sd	s1,8(sp)
 1101              		.cfi_offset 1, -8
 1102              		.cfi_offset 8, -16
 1103              		.cfi_offset 9, -24
 1104 0618 13040102 		addi	s0,sp,32
 1105              		.cfi_def_cfa 8, 0
 1106 061c 93040500 		mv	s1,a0
 273:src/Slab.cpp  ****     int deg = 5;
 1107              		.loc 1 273 5
 1108              	.LVL118:
 274:src/Slab.cpp  ****     size_t val = pow(deg);
 1109              		.loc 1 274 5
 1110              		.loc 1 274 21 is_stmt 0
 1111 0620 13055000 		li	a0,5
 1112              	.LVL119:
 1113 0624 97000000 		call	_ZN12kmem_cache_s3powEm
 1113      E7800000 
 1114              	.LVL120:
 273:src/Slab.cpp  ****     int deg = 5;
 1115              		.loc 1 273 9
 1116 062c 93075000 		li	a5,5
 1117              	.LVL121:
 1118              	.L60:
 275:src/Slab.cpp  ****     while(size > val){
 1119              		.loc 1 275 5 is_stmt 1
 1120              		.loc 1 275 16
 1121 0630 63789500 		bgeu	a0,s1,.L59
 276:src/Slab.cpp  ****         deg++;
 1122              		.loc 1 276 9
 1123              		.loc 1 276 12 is_stmt 0
 1124 0634 9B871700 		addiw	a5,a5,1
 1125              	.LVL122:
 277:src/Slab.cpp  ****         val <<= 1;
 1126              		.loc 1 277 9 is_stmt 1
 1127              		.loc 1 277 13 is_stmt 0
 1128 0638 13151500 		slli	a0,a0,1
 1129              	.LVL123:
 275:src/Slab.cpp  ****     while(size > val){
 1130              		.loc 1 275 5
 1131 063c 6FF05FFF 		j	.L60
 1132              	.LVL124:
 1133              	.L59:
 278:src/Slab.cpp  ****     }
 279:src/Slab.cpp  ****     if(deg > 17)return 0;
GAS LISTING /tmp/ccGVpxtD.s 			page 30


 1134              		.loc 1 279 5 is_stmt 1
 1135 0640 13071001 		li	a4,17
 1136 0644 634EF700 		bgt	a5,a4,.L62
 280:src/Slab.cpp  ****     return (int)val;
 1137              		.loc 1 280 5
 1138              		.loc 1 280 17 is_stmt 0
 1139 0648 1B050500 		sext.w	a0,a0
 1140              	.LVL125:
 1141              	.L61:
 281:src/Slab.cpp  **** }
 1142              		.loc 1 281 1
 1143 064c 83308101 		ld	ra,24(sp)
 1144              		.cfi_remember_state
 1145              		.cfi_restore 1
 1146 0650 03340101 		ld	s0,16(sp)
 1147              		.cfi_restore 8
 1148              		.cfi_def_cfa 2, 32
 1149 0654 83348100 		ld	s1,8(sp)
 1150              		.cfi_restore 9
 1151              	.LVL126:
 1152 0658 13010102 		addi	sp,sp,32
 1153              		.cfi_def_cfa_offset 0
 1154 065c 67800000 		jr	ra
 1155              	.LVL127:
 1156              	.L62:
 1157              		.cfi_restore_state
 279:src/Slab.cpp  ****     return (int)val;
 1158              		.loc 1 279 24
 1159 0660 13050000 		li	a0,0
 1160              	.LVL128:
 1161 0664 6FF09FFE 		j	.L61
 1162              		.cfi_endproc
 1163              	.LFE47:
 1165              		.align	2
 1166              		.globl	_ZN12kmem_cache_s5kfreeEPKv
 1168              	_ZN12kmem_cache_s5kfreeEPKv:
 1169              	.LFB48:
 282:src/Slab.cpp  **** 
 283:src/Slab.cpp  **** // returns 0 if delete is executed, -1 if not
 284:src/Slab.cpp  **** int kmem_cache_s::kfree(const void *objp) {
 1170              		.loc 1 284 43 is_stmt 1
 1171              		.cfi_startproc
 1172              	.LVL129:
 1173 0668 130101FE 		addi	sp,sp,-32
 1174              		.cfi_def_cfa_offset 32
 1175 066c 233C1100 		sd	ra,24(sp)
 1176 0670 23388100 		sd	s0,16(sp)
 1177 0674 23349100 		sd	s1,8(sp)
 1178 0678 23302101 		sd	s2,0(sp)
 1179              		.cfi_offset 1, -8
 1180              		.cfi_offset 8, -16
 1181              		.cfi_offset 9, -24
 1182              		.cfi_offset 18, -32
 1183 067c 13040102 		addi	s0,sp,32
 1184              		.cfi_def_cfa 8, 0
 1185 0680 13090500 		mv	s2,a0
 285:src/Slab.cpp  ****     for(kmem_cache_s* tmp = kmem_cache_s::head; tmp; tmp = tmp->next){
GAS LISTING /tmp/ccGVpxtD.s 			page 31


 1186              		.loc 1 285 5
 1187              	.LBB102:
 1188              		.loc 1 285 23 is_stmt 0
 1189 0684 97040000 		ld	s1,.LANCHOR0
 1189      83B40400 
 1190              	.LVL130:
 1191              	.L66:
 1192              		.loc 1 285 49 is_stmt 1 discriminator 1
 1193 068c 63800402 		beqz	s1,.L67
 286:src/Slab.cpp  ****         if(tmp->kmem_cache_free((void*)objp) == 0)return 0;
 1194              		.loc 1 286 9
 1195              		.loc 1 286 32 is_stmt 0
 1196 0690 93050900 		mv	a1,s2
 1197 0694 13850400 		mv	a0,s1
 1198 0698 97000000 		call	_ZN12kmem_cache_s15kmem_cache_freeEPv
 1198      E7800000 
 1199              	.LVL131:
 1200              		.loc 1 286 9
 1201 06a0 63080500 		beqz	a0,.L65
 285:src/Slab.cpp  ****     for(kmem_cache_s* tmp = kmem_cache_s::head; tmp; tmp = tmp->next){
 1202              		.loc 1 285 5 is_stmt 1 discriminator 2
 285:src/Slab.cpp  ****     for(kmem_cache_s* tmp = kmem_cache_s::head; tmp; tmp = tmp->next){
 1203              		.loc 1 285 58 is_stmt 0 discriminator 2
 1204 06a4 83B48406 		ld	s1,104(s1)
 1205              	.LVL132:
 285:src/Slab.cpp  ****     for(kmem_cache_s* tmp = kmem_cache_s::head; tmp; tmp = tmp->next){
 1206              		.loc 1 285 5 discriminator 2
 1207 06a8 6FF05FFE 		j	.L66
 1208              	.L67:
 1209              	.LBE102:
 287:src/Slab.cpp  ****     }
 288:src/Slab.cpp  ****     // if not found return 1;
 289:src/Slab.cpp  ****     return -1;
 1210              		.loc 1 289 13
 1211 06ac 1305F0FF 		li	a0,-1
 1212              	.L65:
 290:src/Slab.cpp  **** }
 1213              		.loc 1 290 1
 1214 06b0 83308101 		ld	ra,24(sp)
 1215              		.cfi_restore 1
 1216 06b4 03340101 		ld	s0,16(sp)
 1217              		.cfi_restore 8
 1218              		.cfi_def_cfa 2, 32
 1219 06b8 83348100 		ld	s1,8(sp)
 1220              		.cfi_restore 9
 1221              	.LVL133:
 1222 06bc 03390100 		ld	s2,0(sp)
 1223              		.cfi_restore 18
 1224              	.LVL134:
 1225 06c0 13010102 		addi	sp,sp,32
 1226              		.cfi_def_cfa_offset 0
 1227 06c4 67800000 		jr	ra
 1228              		.cfi_endproc
 1229              	.LFE48:
 1231              		.section	.rodata.str1.8,"aMS",@progbits,1
 1232              		.align	3
 1233              	.LC0:
GAS LISTING /tmp/ccGVpxtD.s 			page 32


 1234 0000 2D2D2D2D 		.string	"------------------- CACHE INFO -------------------\n"
 1234      2D2D2D2D 
 1234      2D2D2D2D 
 1234      2D2D2D2D 
 1234      2D2D2D20 
 1235 0034 00000000 		.align	3
 1236              	.LC1:
 1237 0038 496D653A 		.string	"Ime: "
 1237      2000
 1238 003e 0000     		.align	3
 1239              	.LC2:
 1240 0040 0A00     		.string	"\n"
 1241 0042 00000000 		.align	3
 1241      0000
 1242              	.LC3:
 1243 0048 56656C69 		.string	"Velicina objekta: "
 1243      63696E61 
 1243      206F626A 
 1243      656B7461 
 1243      3A2000
 1244 005b 00000000 		.align	3
 1244      00
 1245              	.LC4:
 1246 0060 56656C69 		.string	"Velicina kesa u blokovima: "
 1246      63696E61 
 1246      206B6573 
 1246      61207520 
 1246      626C6F6B 
 1247 007c 00000000 		.align	3
 1248              	.LC5:
 1249 0080 42726F6A 		.string	"Broj ploca u kesu: "
 1249      20706C6F 
 1249      63612075 
 1249      206B6573 
 1249      753A2000 
 1250 0094 00000000 		.align	3
 1251              	.LC6:
 1252 0098 42726F6A 		.string	"Broj objekata koji staju u jednu plocu: "
 1252      206F626A 
 1252      656B6174 
 1252      61206B6F 
 1252      6A692073 
 1253 00c1 00000000 		.align	3
 1253      000000
 1254              	.LC7:
 1255 00c8 42726F6A 		.string	"Broj aktivnih objekata u kesu: "
 1255      20616B74 
 1255      69766E69 
 1255      68206F62 
 1255      6A656B61 
 1256              		.align	3
 1257              	.LC8:
 1258 00e8 736C6F62 		.string	"slobodni: "
 1258      6F646E69 
 1258      3A2000
 1259 00f3 00000000 		.align	3
 1259      00
GAS LISTING /tmp/ccGVpxtD.s 			page 33


 1260              	.LC9:
 1261 00f8 2000     		.string	" "
 1262 00fa 00000000 		.align	3
 1262      0000
 1263              	.LC10:
 1264 0100 7A617072 		.string	"zaprljani: "
 1264      6C6A616E 
 1264      693A2000 
 1265 010c 00000000 		.align	3
 1266              	.LC11:
 1267 0110 70756E69 		.string	"puni: "
 1267      3A2000
 1268 0117 00       		.align	3
 1269              	.LC12:
 1270 0118 42726F6A 		.string	"Broj uspesnih smanjenja kesa: "
 1270      20757370 
 1270      65736E69 
 1270      6820736D 
 1270      616E6A65 
 1271 0137 00       		.align	3
 1272              	.LC13:
 1273 0138 56656C69 		.string	"Velicina metapodataka za kmem_cache_s: "
 1273      63696E61 
 1273      206D6574 
 1273      61706F64 
 1273      6174616B 
 1274              		.align	3
 1275              	.LC14:
 1276 0160 56656C69 		.string	"Velicina metapodataka za Slab: "
 1276      63696E61 
 1276      206D6574 
 1276      61706F64 
 1276      6174616B 
 1277              		.align	3
 1278              	.LC15:
 1279 0180 5265616C 		.string	"Realna iskoriscenost prostora: "
 1279      6E612069 
 1279      736B6F72 
 1279      69736365 
 1279      6E6F7374 
 1280              		.align	3
 1281              	.LC16:
 1282 01a0 2F00     		.string	"/"
 1283 01a2 00000000 		.align	3
 1283      0000
 1284              	.LC17:
 1285 01a8 4566656B 		.string	"Efektivna iskoriscenost prostora: "
 1285      7469766E 
 1285      61206973 
 1285      6B6F7269 
 1285      7363656E 
 1286 01cb 00000000 		.align	3
 1286      00
 1287              	.LC18:
 1288 01d0 2D2D2D2D 		.string	"----------------------- END ----------------------\n"
 1288      2D2D2D2D 
 1288      2D2D2D2D 
GAS LISTING /tmp/ccGVpxtD.s 			page 34


 1288      2D2D2D2D 
 1288      2D2D2D2D 
 1289              		.text
 1290              		.align	2
 1291              		.globl	_ZN12kmem_cache_s15kmem_cache_infoEv
 1293              	_ZN12kmem_cache_s15kmem_cache_infoEv:
 1294              	.LFB50:
 291:src/Slab.cpp  **** 
 292:src/Slab.cpp  **** ///
 293:src/Slab.cpp  **** /// \param addr - address of cache that we deleting
 294:src/Slab.cpp  **** /// \return 0 - if deleted all, -1 - if error ocurred
 295:src/Slab.cpp  **** int kmem_cache_s::kmem_cache_destroy(size_t addr) {
 296:src/Slab.cpp  ****     Slab *prev = nullptr, *tmp = this->slabs_full;
 297:src/Slab.cpp  ****     while (tmp) {
 298:src/Slab.cpp  ****         prev = tmp;
 299:src/Slab.cpp  ****         tmp = tmp->next;
 300:src/Slab.cpp  ****         prev->clear_slab((int)num, (int)objsize, dtor);
 301:src/Slab.cpp  ****         BuddySystem::getInstance().buddyFree((size_t)prev);
 302:src/Slab.cpp  ****     }
 303:src/Slab.cpp  ****     prev = nullptr; tmp = this->slabs_partial;
 304:src/Slab.cpp  ****     while (tmp) {
 305:src/Slab.cpp  ****         prev = tmp;
 306:src/Slab.cpp  ****         tmp = tmp->next;
 307:src/Slab.cpp  ****         prev->clear_slab((int)num, (int)objsize, dtor);
 308:src/Slab.cpp  ****         BuddySystem::getInstance().buddyFree((size_t)prev);
 309:src/Slab.cpp  ****     }
 310:src/Slab.cpp  ****     prev = nullptr; tmp = this->slabs_free;
 311:src/Slab.cpp  ****     while (tmp) {
 312:src/Slab.cpp  ****         prev = tmp;
 313:src/Slab.cpp  ****         tmp = tmp->next;
 314:src/Slab.cpp  ****         prev->clear_slab((int)num, (int)objsize, dtor);
 315:src/Slab.cpp  ****         BuddySystem::getInstance().buddyFree((size_t)prev);
 316:src/Slab.cpp  ****     }
 317:src/Slab.cpp  **** 
 318:src/Slab.cpp  ****     kmem_cache_s* cache = kmem_cache_s::head, *prev_cache = nullptr;
 319:src/Slab.cpp  ****     while(cache){
 320:src/Slab.cpp  ****         if((size_t)cache == addr){
 321:src/Slab.cpp  ****             if(prev_cache){
 322:src/Slab.cpp  ****                 prev_cache->next = cache->next;
 323:src/Slab.cpp  ****                 cache->next = nullptr;
 324:src/Slab.cpp  ****                 BuddySystem::getInstance().buddyFree((size_t)cache);
 325:src/Slab.cpp  ****                 return 0;
 326:src/Slab.cpp  ****             }
 327:src/Slab.cpp  ****         }
 328:src/Slab.cpp  ****         prev_cache = cache;
 329:src/Slab.cpp  ****         cache = cache->next;
 330:src/Slab.cpp  ****     }
 331:src/Slab.cpp  ****     return -1;
 332:src/Slab.cpp  **** }
 333:src/Slab.cpp  **** 
 334:src/Slab.cpp  **** void kmem_cache_s::kmem_cache_info() {
 1295              		.loc 1 334 38 is_stmt 1
 1296              		.cfi_startproc
 1297              	.LVL135:
 1298 06c8 130101FD 		addi	sp,sp,-48
 1299              		.cfi_def_cfa_offset 48
 1300 06cc 23341102 		sd	ra,40(sp)
GAS LISTING /tmp/ccGVpxtD.s 			page 35


 1301 06d0 23308102 		sd	s0,32(sp)
 1302 06d4 233C9100 		sd	s1,24(sp)
 1303 06d8 23382101 		sd	s2,16(sp)
 1304 06dc 23343101 		sd	s3,8(sp)
 1305 06e0 23304101 		sd	s4,0(sp)
 1306              		.cfi_offset 1, -8
 1307              		.cfi_offset 8, -16
 1308              		.cfi_offset 9, -24
 1309              		.cfi_offset 18, -32
 1310              		.cfi_offset 19, -40
 1311              		.cfi_offset 20, -48
 1312 06e4 13040103 		addi	s0,sp,48
 1313              		.cfi_def_cfa 8, 0
 1314 06e8 13090500 		mv	s2,a0
 335:src/Slab.cpp  **** 
 336:src/Slab.cpp  ****     printString("------------------- CACHE INFO -------------------\n");
 1315              		.loc 1 336 5
 1316              		.loc 1 336 16 is_stmt 0
 1317 06ec 17050000 		lla	a0,.LC0
 1317      13050500 
 1318              	.LVL136:
 1319 06f4 97000000 		call	_Z11printStringPKc@plt
 1319      E7800000 
 1320              	.LVL137:
 337:src/Slab.cpp  ****     // print name and object size
 338:src/Slab.cpp  ****     printString("Ime: ");
 1321              		.loc 1 338 5 is_stmt 1
 1322              		.loc 1 338 16 is_stmt 0
 1323 06fc 17050000 		lla	a0,.LC1
 1323      13050500 
 1324 0704 97000000 		call	_Z11printStringPKc@plt
 1324      E7800000 
 1325              	.LVL138:
 339:src/Slab.cpp  ****     printString(name);
 1326              		.loc 1 339 5 is_stmt 1
 1327              		.loc 1 339 16 is_stmt 0
 1328 070c 03350906 		ld	a0,96(s2)
 1329 0710 97000000 		call	_Z11printStringPKc@plt
 1329      E7800000 
 1330              	.LVL139:
 340:src/Slab.cpp  ****     printString("\n");
 1331              		.loc 1 340 5 is_stmt 1
 1332              		.loc 1 340 16 is_stmt 0
 1333 0718 17050000 		lla	a0,.LC2
 1333      13050500 
 1334 0720 97000000 		call	_Z11printStringPKc@plt
 1334      E7800000 
 1335              	.LVL140:
 341:src/Slab.cpp  ****     printString("Velicina objekta: ");
 1336              		.loc 1 341 5 is_stmt 1
 1337              		.loc 1 341 16 is_stmt 0
 1338 0728 17050000 		lla	a0,.LC3
 1338      13050500 
 1339 0730 97000000 		call	_Z11printStringPKc@plt
 1339      E7800000 
 1340              	.LVL141:
 342:src/Slab.cpp  ****     printInt(objsize);
GAS LISTING /tmp/ccGVpxtD.s 			page 36


 1341              		.loc 1 342 5 is_stmt 1
 1342              		.loc 1 342 13 is_stmt 0
 1343 0738 13060000 		li	a2,0
 1344 073c 9305A000 		li	a1,10
 1345 0740 03250903 		lw	a0,48(s2)
 1346 0744 97000000 		call	_Z8printIntiii@plt
 1346      E7800000 
 1347              	.LVL142:
 343:src/Slab.cpp  ****     printString("\n");
 1348              		.loc 1 343 5 is_stmt 1
 1349              		.loc 1 343 16 is_stmt 0
 1350 074c 17050000 		lla	a0,.LC2
 1350      13050500 
 1351 0754 97000000 		call	_Z11printStringPKc@plt
 1351      E7800000 
 1352              	.LVL143:
 344:src/Slab.cpp  **** 
 345:src/Slab.cpp  ****     // print size of cache (in blocks)
 346:src/Slab.cpp  ****     size_t num_of_slabs = num_slabs_full + num_slabs_partial + num_slabs_free;
 1353              		.loc 1 346 5 is_stmt 1
 1354              		.loc 1 346 27 is_stmt 0
 1355 075c 83398901 		ld	s3,24(s2)
 1356              		.loc 1 346 44
 1357 0760 83370902 		ld	a5,32(s2)
 1358              		.loc 1 346 42
 1359 0764 B389F900 		add	s3,s3,a5
 1360              		.loc 1 346 64
 1361 0768 03358902 		ld	a0,40(s2)
 1362              		.loc 1 346 12
 1363 076c B389A900 		add	s3,s3,a0
 1364              	.LVL144:
 347:src/Slab.cpp  ****     size_t size_of_cache_in_blocks = num_of_slabs * size_in_blocks + 1;
 1365              		.loc 1 347 5 is_stmt 1
 1366              		.loc 1 347 53 is_stmt 0
 1367 0770 83348904 		ld	s1,72(s2)
 1368              		.loc 1 347 51
 1369 0774 B3843403 		mul	s1,s1,s3
 1370              		.loc 1 347 12
 1371 0778 93841400 		addi	s1,s1,1
 1372              	.LVL145:
 348:src/Slab.cpp  ****     printString("Velicina kesa u blokovima: ");
 1373              		.loc 1 348 5 is_stmt 1
 1374              		.loc 1 348 16 is_stmt 0
 1375 077c 17050000 		lla	a0,.LC4
 1375      13050500 
 1376 0784 97000000 		call	_Z11printStringPKc@plt
 1376      E7800000 
 1377              	.LVL146:
 349:src/Slab.cpp  ****     printInt(size_of_cache_in_blocks);
 1378              		.loc 1 349 5 is_stmt 1
 1379              		.loc 1 349 13 is_stmt 0
 1380 078c 13060000 		li	a2,0
 1381 0790 9305A000 		li	a1,10
 1382 0794 1B850400 		sext.w	a0,s1
 1383 0798 97000000 		call	_Z8printIntiii@plt
 1383      E7800000 
 1384              	.LVL147:
GAS LISTING /tmp/ccGVpxtD.s 			page 37


 350:src/Slab.cpp  ****     printString("\n");
 1385              		.loc 1 350 5 is_stmt 1
 1386              		.loc 1 350 16 is_stmt 0
 1387 07a0 17050000 		lla	a0,.LC2
 1387      13050500 
 1388 07a8 97000000 		call	_Z11printStringPKc@plt
 1388      E7800000 
 1389              	.LVL148:
 351:src/Slab.cpp  **** 
 352:src/Slab.cpp  ****     // print number of slabs in cache
 353:src/Slab.cpp  ****     printString("Broj ploca u kesu: ");
 1390              		.loc 1 353 5 is_stmt 1
 1391              		.loc 1 353 16 is_stmt 0
 1392 07b0 17050000 		lla	a0,.LC5
 1392      13050500 
 1393 07b8 97000000 		call	_Z11printStringPKc@plt
 1393      E7800000 
 1394              	.LVL149:
 354:src/Slab.cpp  ****     printInt(num_of_slabs);
 1395              		.loc 1 354 5 is_stmt 1
 1396              		.loc 1 354 13 is_stmt 0
 1397 07c0 13060000 		li	a2,0
 1398 07c4 9305A000 		li	a1,10
 1399 07c8 1B850900 		sext.w	a0,s3
 1400 07cc 97000000 		call	_Z8printIntiii@plt
 1400      E7800000 
 1401              	.LVL150:
 355:src/Slab.cpp  ****     printString("\n");
 1402              		.loc 1 355 5 is_stmt 1
 1403              		.loc 1 355 16 is_stmt 0
 1404 07d4 17050000 		lla	a0,.LC2
 1404      13050500 
 1405 07dc 97000000 		call	_Z11printStringPKc@plt
 1405      E7800000 
 1406              	.LVL151:
 356:src/Slab.cpp  **** 
 357:src/Slab.cpp  ****     // number of objects in one slab
 358:src/Slab.cpp  ****     printString("Broj objekata koji staju u jednu plocu: ");
 1407              		.loc 1 358 5 is_stmt 1
 1408              		.loc 1 358 16 is_stmt 0
 1409 07e4 17050000 		lla	a0,.LC6
 1409      13050500 
 1410 07ec 97000000 		call	_Z11printStringPKc@plt
 1410      E7800000 
 1411              	.LVL152:
 359:src/Slab.cpp  ****     printInt(num);
 1412              		.loc 1 359 5 is_stmt 1
 1413              		.loc 1 359 13 is_stmt 0
 1414 07f4 13060000 		li	a2,0
 1415 07f8 9305A000 		li	a1,10
 1416 07fc 03258903 		lw	a0,56(s2)
 1417 0800 97000000 		call	_Z8printIntiii@plt
 1417      E7800000 
 1418              	.LVL153:
 360:src/Slab.cpp  ****     printString("\n");
 1419              		.loc 1 360 5 is_stmt 1
 1420              		.loc 1 360 16 is_stmt 0
GAS LISTING /tmp/ccGVpxtD.s 			page 38


 1421 0808 17050000 		lla	a0,.LC2
 1421      13050500 
 1422 0810 97000000 		call	_Z11printStringPKc@plt
 1422      E7800000 
 1423              	.LVL154:
 361:src/Slab.cpp  **** 
 362:src/Slab.cpp  ****     // number of objects in one slab
 363:src/Slab.cpp  ****     printString("Broj aktivnih objekata u kesu: ");
 1424              		.loc 1 363 5 is_stmt 1
 1425              		.loc 1 363 16 is_stmt 0
 1426 0818 17050000 		lla	a0,.LC7
 1426      13050500 
 1427 0820 97000000 		call	_Z11printStringPKc@plt
 1427      E7800000 
 1428              	.LVL155:
 364:src/Slab.cpp  ****     printInt(num_active_obj);
 1429              		.loc 1 364 5 is_stmt 1
 1430              		.loc 1 364 13 is_stmt 0
 1431 0828 13060000 		li	a2,0
 1432 082c 9305A000 		li	a1,10
 1433 0830 03250907 		lw	a0,112(s2)
 1434 0834 97000000 		call	_Z8printIntiii@plt
 1434      E7800000 
 1435              	.LVL156:
 365:src/Slab.cpp  ****     printString("\n");
 1436              		.loc 1 365 5 is_stmt 1
 1437              		.loc 1 365 16 is_stmt 0
 1438 083c 17050000 		lla	a0,.LC2
 1438      13050500 
 1439 0844 97000000 		call	_Z11printStringPKc@plt
 1439      E7800000 
 1440              	.LVL157:
 366:src/Slab.cpp  **** 
 367:src/Slab.cpp  ****     // stanje u slabovima
 368:src/Slab.cpp  ****     printString("slobodni: ");
 1441              		.loc 1 368 5 is_stmt 1
 1442              		.loc 1 368 16 is_stmt 0
 1443 084c 17050000 		lla	a0,.LC8
 1443      13050500 
 1444 0854 97000000 		call	_Z11printStringPKc@plt
 1444      E7800000 
 1445              	.LVL158:
 369:src/Slab.cpp  ****     for(Slab* tmp = slabs_free; tmp; tmp = tmp->next){
 1446              		.loc 1 369 5 is_stmt 1
 1447              	.LBB103:
 1448              		.loc 1 369 15 is_stmt 0
 1449 085c 83340901 		ld	s1,16(s2)
 1450              	.LVL159:
 1451              	.L71:
 1452              		.loc 1 369 33 is_stmt 1 discriminator 3
 1453 0860 63880402 		beqz	s1,.L70
 370:src/Slab.cpp  ****         printInt(tmp->get_number_of_active_objects());
 1454              		.loc 1 370 9
 1455              	.LVL160:
 1456              	.LBB104:
 1457              	.LBB105:
  16:src/../h/Slab.h ****     void* return_first_free_object_and_rearange_list(int, int);
GAS LISTING /tmp/ccGVpxtD.s 			page 39


 1458              		.loc 3 16 43
 1459              	.LBE105:
 1460              	.LBE104:
 1461              		.loc 1 370 17 is_stmt 0
 1462 0864 13060000 		li	a2,0
 1463 0868 9305A000 		li	a1,10
 1464 086c 03A50400 		lw	a0,0(s1)
 1465 0870 97000000 		call	_Z8printIntiii@plt
 1465      E7800000 
 1466              	.LVL161:
 371:src/Slab.cpp  ****         printString(" ");
 1467              		.loc 1 371 9 is_stmt 1
 1468              		.loc 1 371 20 is_stmt 0
 1469 0878 17050000 		lla	a0,.LC9
 1469      13050500 
 1470 0880 97000000 		call	_Z11printStringPKc@plt
 1470      E7800000 
 1471              	.LVL162:
 369:src/Slab.cpp  ****         printInt(tmp->get_number_of_active_objects());
 1472              		.loc 1 369 5 is_stmt 1
 369:src/Slab.cpp  ****         printInt(tmp->get_number_of_active_objects());
 1473              		.loc 1 369 42 is_stmt 0
 1474 0888 83B48400 		ld	s1,8(s1)
 1475              	.LVL163:
 369:src/Slab.cpp  ****         printInt(tmp->get_number_of_active_objects());
 1476              		.loc 1 369 5
 1477 088c 6FF05FFD 		j	.L71
 1478              	.L70:
 1479              	.LBE103:
 372:src/Slab.cpp  ****     }
 373:src/Slab.cpp  ****     printString("\n");
 1480              		.loc 1 373 5 is_stmt 1
 1481              		.loc 1 373 16 is_stmt 0
 1482 0890 17050000 		lla	a0,.LC2
 1482      13050500 
 1483 0898 97000000 		call	_Z11printStringPKc@plt
 1483      E7800000 
 1484              	.LVL164:
 374:src/Slab.cpp  ****     printString("zaprljani: ");
 1485              		.loc 1 374 5 is_stmt 1
 1486              		.loc 1 374 16 is_stmt 0
 1487 08a0 17050000 		lla	a0,.LC10
 1487      13050500 
 1488 08a8 97000000 		call	_Z11printStringPKc@plt
 1488      E7800000 
 1489              	.LVL165:
 375:src/Slab.cpp  ****     for(Slab* tmp = slabs_partial; tmp; tmp = tmp->next){
 1490              		.loc 1 375 5 is_stmt 1
 1491              	.LBB106:
 1492              		.loc 1 375 15 is_stmt 0
 1493 08b0 83348900 		ld	s1,8(s2)
 1494              	.LVL166:
 1495              	.L73:
 1496              		.loc 1 375 36 is_stmt 1 discriminator 3
 1497 08b4 63880402 		beqz	s1,.L72
 376:src/Slab.cpp  ****         printInt(tmp->get_number_of_active_objects());
 1498              		.loc 1 376 9
GAS LISTING /tmp/ccGVpxtD.s 			page 40


 1499              	.LVL167:
 1500              	.LBB107:
 1501              	.LBB108:
  16:src/../h/Slab.h ****     void* return_first_free_object_and_rearange_list(int, int);
 1502              		.loc 3 16 43
 1503              	.LBE108:
 1504              	.LBE107:
 1505              		.loc 1 376 17 is_stmt 0
 1506 08b8 13060000 		li	a2,0
 1507 08bc 9305A000 		li	a1,10
 1508 08c0 03A50400 		lw	a0,0(s1)
 1509 08c4 97000000 		call	_Z8printIntiii@plt
 1509      E7800000 
 1510              	.LVL168:
 377:src/Slab.cpp  ****         printString(" ");
 1511              		.loc 1 377 9 is_stmt 1
 1512              		.loc 1 377 20 is_stmt 0
 1513 08cc 17050000 		lla	a0,.LC9
 1513      13050500 
 1514 08d4 97000000 		call	_Z11printStringPKc@plt
 1514      E7800000 
 1515              	.LVL169:
 375:src/Slab.cpp  ****         printInt(tmp->get_number_of_active_objects());
 1516              		.loc 1 375 5 is_stmt 1
 375:src/Slab.cpp  ****         printInt(tmp->get_number_of_active_objects());
 1517              		.loc 1 375 45 is_stmt 0
 1518 08dc 83B48400 		ld	s1,8(s1)
 1519              	.LVL170:
 375:src/Slab.cpp  ****         printInt(tmp->get_number_of_active_objects());
 1520              		.loc 1 375 5
 1521 08e0 6FF05FFD 		j	.L73
 1522              	.L72:
 1523              	.LBE106:
 378:src/Slab.cpp  ****     }
 379:src/Slab.cpp  ****     printString("\n");
 1524              		.loc 1 379 5 is_stmt 1
 1525              		.loc 1 379 16 is_stmt 0
 1526 08e4 17050000 		lla	a0,.LC2
 1526      13050500 
 1527 08ec 97000000 		call	_Z11printStringPKc@plt
 1527      E7800000 
 1528              	.LVL171:
 380:src/Slab.cpp  ****     printString("puni: ");
 1529              		.loc 1 380 5 is_stmt 1
 1530              		.loc 1 380 16 is_stmt 0
 1531 08f4 17050000 		lla	a0,.LC11
 1531      13050500 
 1532 08fc 97000000 		call	_Z11printStringPKc@plt
 1532      E7800000 
 1533              	.LVL172:
 381:src/Slab.cpp  ****     for(Slab* tmp = slabs_full; tmp; tmp = tmp->next){
 1534              		.loc 1 381 5 is_stmt 1
 1535              	.LBB109:
 1536              		.loc 1 381 15 is_stmt 0
 1537 0904 83340900 		ld	s1,0(s2)
 1538              	.LVL173:
 1539              	.L75:
GAS LISTING /tmp/ccGVpxtD.s 			page 41


 1540              		.loc 1 381 33 is_stmt 1 discriminator 3
 1541 0908 63880402 		beqz	s1,.L74
 382:src/Slab.cpp  ****         printInt(tmp->get_number_of_active_objects());
 1542              		.loc 1 382 9
 1543              	.LVL174:
 1544              	.LBB110:
 1545              	.LBB111:
  16:src/../h/Slab.h ****     void* return_first_free_object_and_rearange_list(int, int);
 1546              		.loc 3 16 43
 1547              	.LBE111:
 1548              	.LBE110:
 1549              		.loc 1 382 17 is_stmt 0
 1550 090c 13060000 		li	a2,0
 1551 0910 9305A000 		li	a1,10
 1552 0914 03A50400 		lw	a0,0(s1)
 1553 0918 97000000 		call	_Z8printIntiii@plt
 1553      E7800000 
 1554              	.LVL175:
 383:src/Slab.cpp  ****         printString(" ");
 1555              		.loc 1 383 9 is_stmt 1
 1556              		.loc 1 383 20 is_stmt 0
 1557 0920 17050000 		lla	a0,.LC9
 1557      13050500 
 1558 0928 97000000 		call	_Z11printStringPKc@plt
 1558      E7800000 
 1559              	.LVL176:
 381:src/Slab.cpp  ****         printInt(tmp->get_number_of_active_objects());
 1560              		.loc 1 381 5 is_stmt 1
 381:src/Slab.cpp  ****         printInt(tmp->get_number_of_active_objects());
 1561              		.loc 1 381 42 is_stmt 0
 1562 0930 83B48400 		ld	s1,8(s1)
 1563              	.LVL177:
 381:src/Slab.cpp  ****         printInt(tmp->get_number_of_active_objects());
 1564              		.loc 1 381 5
 1565 0934 6FF05FFD 		j	.L75
 1566              	.L74:
 1567              	.LBE109:
 384:src/Slab.cpp  ****     }
 385:src/Slab.cpp  ****     printString("\n");
 1568              		.loc 1 385 5 is_stmt 1
 1569              		.loc 1 385 16 is_stmt 0
 1570 0938 17050000 		lla	a0,.LC2
 1570      13050500 
 1571 0940 97000000 		call	_Z11printStringPKc@plt
 1571      E7800000 
 1572              	.LVL178:
 386:src/Slab.cpp  **** 
 387:src/Slab.cpp  ****     // number of times cache shrank
 388:src/Slab.cpp  ****     printString("Broj uspesnih smanjenja kesa: ");
 1573              		.loc 1 388 5 is_stmt 1
 1574              		.loc 1 388 16 is_stmt 0
 1575 0948 17050000 		lla	a0,.LC12
 1575      13050500 
 1576 0950 97000000 		call	_Z11printStringPKc@plt
 1576      E7800000 
 1577              	.LVL179:
 389:src/Slab.cpp  ****     printInt(shrink);
GAS LISTING /tmp/ccGVpxtD.s 			page 42


 1578              		.loc 1 389 5 is_stmt 1
 1579              		.loc 1 389 13 is_stmt 0
 1580 0958 13060000 		li	a2,0
 1581 095c 9305A000 		li	a1,10
 1582 0960 03250908 		lw	a0,128(s2)
 1583 0964 97000000 		call	_Z8printIntiii@plt
 1583      E7800000 
 1584              	.LVL180:
 390:src/Slab.cpp  ****     printString("\n");
 1585              		.loc 1 390 5 is_stmt 1
 1586              		.loc 1 390 16 is_stmt 0
 1587 096c 17050000 		lla	a0,.LC2
 1587      13050500 
 1588 0974 97000000 		call	_Z11printStringPKc@plt
 1588      E7800000 
 1589              	.LVL181:
 391:src/Slab.cpp  **** 
 392:src/Slab.cpp  ****     // metedata
 393:src/Slab.cpp  ****     printString("Velicina metapodataka za kmem_cache_s: ");
 1590              		.loc 1 393 5 is_stmt 1
 1591              		.loc 1 393 16 is_stmt 0
 1592 097c 17050000 		lla	a0,.LC13
 1592      13050500 
 1593 0984 97000000 		call	_Z11printStringPKc@plt
 1593      E7800000 
 1594              	.LVL182:
 394:src/Slab.cpp  ****     printInt(sizeof(kmem_cache_s));
 1595              		.loc 1 394 5 is_stmt 1
 1596              		.loc 1 394 13 is_stmt 0
 1597 098c 13060000 		li	a2,0
 1598 0990 9305A000 		li	a1,10
 1599 0994 13058008 		li	a0,136
 1600 0998 97000000 		call	_Z8printIntiii@plt
 1600      E7800000 
 1601              	.LVL183:
 395:src/Slab.cpp  ****     printString("\n");
 1602              		.loc 1 395 5 is_stmt 1
 1603              		.loc 1 395 16 is_stmt 0
 1604 09a0 17050000 		lla	a0,.LC2
 1604      13050500 
 1605 09a8 97000000 		call	_Z11printStringPKc@plt
 1605      E7800000 
 1606              	.LVL184:
 396:src/Slab.cpp  ****     printString("Velicina metapodataka za Slab: ");
 1607              		.loc 1 396 5 is_stmt 1
 1608              		.loc 1 396 16 is_stmt 0
 1609 09b0 17050000 		lla	a0,.LC14
 1609      13050500 
 1610 09b8 97000000 		call	_Z11printStringPKc@plt
 1610      E7800000 
 1611              	.LVL185:
 397:src/Slab.cpp  ****     size_t size_of_slab = sizeof(Slab) + this->size_of_arr * sizeof(size_t) + sizeof(size_t);
 1612              		.loc 1 397 5 is_stmt 1
 1613              		.loc 1 397 48 is_stmt 0
 1614 09c0 83340904 		ld	s1,64(s2)
 1615              	.LVL186:
 1616              		.loc 1 397 77
GAS LISTING /tmp/ccGVpxtD.s 			page 43


 1617 09c4 93844400 		addi	s1,s1,4
 1618              		.loc 1 397 12
 1619 09c8 93943400 		slli	s1,s1,3
 1620              	.LVL187:
 398:src/Slab.cpp  ****     printInt(size_of_slab);
 1621              		.loc 1 398 5 is_stmt 1
 1622              		.loc 1 398 13 is_stmt 0
 1623 09cc 13060000 		li	a2,0
 1624 09d0 9305A000 		li	a1,10
 1625 09d4 1B850400 		sext.w	a0,s1
 1626 09d8 97000000 		call	_Z8printIntiii@plt
 1626      E7800000 
 1627              	.LVL188:
 399:src/Slab.cpp  ****     printString("\n");
 1628              		.loc 1 399 5 is_stmt 1
 1629              		.loc 1 399 16 is_stmt 0
 1630 09e0 17050000 		lla	a0,.LC2
 1630      13050500 
 1631 09e8 97000000 		call	_Z11printStringPKc@plt
 1631      E7800000 
 1632              	.LVL189:
 400:src/Slab.cpp  **** 
 401:src/Slab.cpp  ****     // percentage of fullfilment of cache
 402:src/Slab.cpp  ****     size_t neto = sizeof(kmem_cache_s) + num_of_slabs * size_of_slab + num_active_obj * objsize;
 1633              		.loc 1 402 5 is_stmt 1
 1634              		.loc 1 402 55 is_stmt 0
 1635 09f0 B3849902 		mul	s1,s3,s1
 1636              	.LVL190:
 1637              		.loc 1 402 72
 1638 09f4 83370907 		ld	a5,112(s2)
 1639              		.loc 1 402 89
 1640 09f8 03370903 		ld	a4,48(s2)
 1641              		.loc 1 402 87
 1642 09fc B387E702 		mul	a5,a5,a4
 1643              		.loc 1 402 70
 1644 0a00 B384F400 		add	s1,s1,a5
 1645              		.loc 1 402 12
 1646 0a04 93848408 		addi	s1,s1,136
 1647              	.LVL191:
 403:src/Slab.cpp  ****     size_t bruto = (1 + num_of_slabs * size_in_blocks) * BLOCK_SIZE;
 1648              		.loc 1 403 5 is_stmt 1
 1649              		.loc 1 403 40 is_stmt 0
 1650 0a08 033A8904 		ld	s4,72(s2)
 1651              		.loc 1 403 38
 1652 0a0c 330A3A03 		mul	s4,s4,s3
 1653              		.loc 1 403 23
 1654 0a10 130A1A00 		addi	s4,s4,1
 1655              		.loc 1 403 12
 1656 0a14 131ACA00 		slli	s4,s4,12
 1657              	.LVL192:
 404:src/Slab.cpp  **** 
 405:src/Slab.cpp  ****     printString("Realna iskoriscenost prostora: ");
 1658              		.loc 1 405 5 is_stmt 1
 1659              		.loc 1 405 16 is_stmt 0
 1660 0a18 17050000 		lla	a0,.LC15
 1660      13050500 
 1661 0a20 97000000 		call	_Z11printStringPKc@plt
GAS LISTING /tmp/ccGVpxtD.s 			page 44


 1661      E7800000 
 1662              	.LVL193:
 406:src/Slab.cpp  ****     printInt(neto);
 1663              		.loc 1 406 5 is_stmt 1
 1664              		.loc 1 406 13 is_stmt 0
 1665 0a28 13060000 		li	a2,0
 1666 0a2c 9305A000 		li	a1,10
 1667 0a30 1B850400 		sext.w	a0,s1
 1668 0a34 97000000 		call	_Z8printIntiii@plt
 1668      E7800000 
 1669              	.LVL194:
 407:src/Slab.cpp  ****     printString("/");
 1670              		.loc 1 407 5 is_stmt 1
 1671              		.loc 1 407 16 is_stmt 0
 1672 0a3c 17050000 		lla	a0,.LC16
 1672      13050500 
 1673 0a44 97000000 		call	_Z11printStringPKc@plt
 1673      E7800000 
 1674              	.LVL195:
 408:src/Slab.cpp  ****     printInt(bruto);
 1675              		.loc 1 408 5 is_stmt 1
 1676              		.loc 1 408 13 is_stmt 0
 1677 0a4c 13060000 		li	a2,0
 1678 0a50 9305A000 		li	a1,10
 1679 0a54 1B050A00 		sext.w	a0,s4
 1680 0a58 97000000 		call	_Z8printIntiii@plt
 1680      E7800000 
 1681              	.LVL196:
 409:src/Slab.cpp  ****     printString("\n");
 1682              		.loc 1 409 5 is_stmt 1
 1683              		.loc 1 409 16 is_stmt 0
 1684 0a60 17050000 		lla	a0,.LC2
 1684      13050500 
 1685 0a68 97000000 		call	_Z11printStringPKc@plt
 1685      E7800000 
 1686              	.LVL197:
 410:src/Slab.cpp  ****     printString("Efektivna iskoriscenost prostora: ");
 1687              		.loc 1 410 5 is_stmt 1
 1688              		.loc 1 410 16 is_stmt 0
 1689 0a70 17050000 		lla	a0,.LC17
 1689      13050500 
 1690 0a78 97000000 		call	_Z11printStringPKc@plt
 1690      E7800000 
 1691              	.LVL198:
 411:src/Slab.cpp  ****     printInt(num_active_obj * objsize);
 1692              		.loc 1 411 5 is_stmt 1
 1693              		.loc 1 411 14 is_stmt 0
 1694 0a80 03350907 		ld	a0,112(s2)
 1695              		.loc 1 411 31
 1696 0a84 83370903 		ld	a5,48(s2)
 1697              		.loc 1 411 13
 1698 0a88 13060000 		li	a2,0
 1699 0a8c 9305A000 		li	a1,10
 1700 0a90 3B05F502 		mulw	a0,a0,a5
 1701 0a94 97000000 		call	_Z8printIntiii@plt
 1701      E7800000 
 1702              	.LVL199:
GAS LISTING /tmp/ccGVpxtD.s 			page 45


 412:src/Slab.cpp  ****     printString("/");
 1703              		.loc 1 412 5 is_stmt 1
 1704              		.loc 1 412 16 is_stmt 0
 1705 0a9c 17050000 		lla	a0,.LC16
 1705      13050500 
 1706 0aa4 97000000 		call	_Z11printStringPKc@plt
 1706      E7800000 
 1707              	.LVL200:
 413:src/Slab.cpp  ****     size_t real_bruto = num_of_slabs * size_in_blocks * BLOCK_SIZE - num_of_slabs * sizeof(Slab);
 1708              		.loc 1 413 5 is_stmt 1
 1709              		.loc 1 413 40 is_stmt 0
 1710 0aac 03358904 		ld	a0,72(s2)
 1711              		.loc 1 413 38
 1712 0ab0 33053503 		mul	a0,a0,s3
 1713              		.loc 1 413 55
 1714 0ab4 1315C500 		slli	a0,a0,12
 1715              		.loc 1 413 83
 1716 0ab8 93971900 		slli	a5,s3,1
 1717 0abc B3893701 		add	s3,a5,s3
 1718              	.LVL201:
 1719 0ac0 93993900 		slli	s3,s3,3
 1720              	.LVL202:
 414:src/Slab.cpp  ****     printInt(real_bruto);
 1721              		.loc 1 414 5 is_stmt 1
 1722              		.loc 1 414 13 is_stmt 0
 1723 0ac4 13060000 		li	a2,0
 1724 0ac8 9305A000 		li	a1,10
 1725 0acc 3B053541 		subw	a0,a0,s3
 1726              	.LVL203:
 1727 0ad0 97000000 		call	_Z8printIntiii@plt
 1727      E7800000 
 1728              	.LVL204:
 415:src/Slab.cpp  ****     printString("\n");
 1729              		.loc 1 415 5 is_stmt 1
 1730              		.loc 1 415 16 is_stmt 0
 1731 0ad8 17050000 		lla	a0,.LC2
 1731      13050500 
 1732 0ae0 97000000 		call	_Z11printStringPKc@plt
 1732      E7800000 
 1733              	.LVL205:
 416:src/Slab.cpp  **** 
 417:src/Slab.cpp  ****     printString("----------------------- END ----------------------\n");
 1734              		.loc 1 417 5 is_stmt 1
 1735              		.loc 1 417 16 is_stmt 0
 1736 0ae8 17050000 		lla	a0,.LC18
 1736      13050500 
 1737 0af0 97000000 		call	_Z11printStringPKc@plt
 1737      E7800000 
 1738              	.LVL206:
 418:src/Slab.cpp  **** }
 1739              		.loc 1 418 1
 1740 0af8 83308102 		ld	ra,40(sp)
 1741              		.cfi_restore 1
 1742 0afc 03340102 		ld	s0,32(sp)
 1743              		.cfi_restore 8
 1744              		.cfi_def_cfa 2, 48
 1745 0b00 83348101 		ld	s1,24(sp)
GAS LISTING /tmp/ccGVpxtD.s 			page 46


 1746              		.cfi_restore 9
 1747              	.LVL207:
 1748 0b04 03390101 		ld	s2,16(sp)
 1749              		.cfi_restore 18
 1750              	.LVL208:
 1751 0b08 83398100 		ld	s3,8(sp)
 1752              		.cfi_restore 19
 1753 0b0c 033A0100 		ld	s4,0(sp)
 1754              		.cfi_restore 20
 1755              	.LVL209:
 1756 0b10 13010103 		addi	sp,sp,48
 1757              		.cfi_def_cfa_offset 0
 1758 0b14 67800000 		jr	ra
 1759              		.cfi_endproc
 1760              	.LFE50:
 1762              		.section	.rodata.str1.8
 1763 0204 00000000 		.align	3
 1764              	.LC19:
 1765 0208 0A090909 		.string	"\n\t\t\t ### PRINT ALL CACHES ###\t\t\t\n"
 1765      20232323 
 1765      20505249 
 1765      4E542041 
 1765      4C4C2043 
 1766 022a 00000000 		.align	3
 1766      0000
 1767              	.LC20:
 1768 0230 09090909 		.string	"\t\t\t\t    ### END ###\t\t\t\n"
 1768      20202020 
 1768      23232320 
 1768      454E4420 
 1768      23232309 
 1769              		.text
 1770              		.align	2
 1771              		.globl	_ZN12kmem_cache_s21print_info_all_cachesEv
 1773              	_ZN12kmem_cache_s21print_info_all_cachesEv:
 1774              	.LFB51:
 419:src/Slab.cpp  **** 
 420:src/Slab.cpp  **** void kmem_cache_s::print_info_all_caches() {
 1775              		.loc 1 420 44 is_stmt 1
 1776              		.cfi_startproc
 1777 0b18 130101FE 		addi	sp,sp,-32
 1778              		.cfi_def_cfa_offset 32
 1779 0b1c 233C1100 		sd	ra,24(sp)
 1780 0b20 23388100 		sd	s0,16(sp)
 1781 0b24 23349100 		sd	s1,8(sp)
 1782              		.cfi_offset 1, -8
 1783              		.cfi_offset 8, -16
 1784              		.cfi_offset 9, -24
 1785 0b28 13040102 		addi	s0,sp,32
 1786              		.cfi_def_cfa 8, 0
 421:src/Slab.cpp  ****     printString("\n\t\t\t ### PRINT ALL CACHES ###\t\t\t\n");
 1787              		.loc 1 421 5
 1788              		.loc 1 421 16 is_stmt 0
 1789 0b2c 17050000 		lla	a0,.LC19
 1789      13050500 
 1790 0b34 97000000 		call	_Z11printStringPKc@plt
 1790      E7800000 
GAS LISTING /tmp/ccGVpxtD.s 			page 47


 1791              	.LVL210:
 422:src/Slab.cpp  ****     for(kmem_cache_s* tmp = kmem_cache_s::head; tmp; tmp = tmp->next){
 1792              		.loc 1 422 5 is_stmt 1
 1793              	.LBB112:
 1794              		.loc 1 422 23 is_stmt 0
 1795 0b3c 97040000 		ld	s1,.LANCHOR0
 1795      83B40400 
 1796              	.LVL211:
 1797              	.L79:
 1798              		.loc 1 422 49 is_stmt 1 discriminator 3
 1799 0b44 638C0400 		beqz	s1,.L78
 423:src/Slab.cpp  ****         tmp->kmem_cache_info();
 1800              		.loc 1 423 9 discriminator 2
 1801              		.loc 1 423 29 is_stmt 0 discriminator 2
 1802 0b48 13850400 		mv	a0,s1
 1803 0b4c 97000000 		call	_ZN12kmem_cache_s15kmem_cache_infoEv
 1803      E7800000 
 1804              	.LVL212:
 422:src/Slab.cpp  ****     for(kmem_cache_s* tmp = kmem_cache_s::head; tmp; tmp = tmp->next){
 1805              		.loc 1 422 5 is_stmt 1 discriminator 2
 422:src/Slab.cpp  ****     for(kmem_cache_s* tmp = kmem_cache_s::head; tmp; tmp = tmp->next){
 1806              		.loc 1 422 58 is_stmt 0 discriminator 2
 1807 0b54 83B48406 		ld	s1,104(s1)
 1808              	.LVL213:
 422:src/Slab.cpp  ****     for(kmem_cache_s* tmp = kmem_cache_s::head; tmp; tmp = tmp->next){
 1809              		.loc 1 422 5 discriminator 2
 1810 0b58 6FF0DFFE 		j	.L79
 1811              	.L78:
 1812              	.LBE112:
 424:src/Slab.cpp  ****     }
 425:src/Slab.cpp  ****     printString("\t\t\t\t    ### END ###\t\t\t\n");
 1813              		.loc 1 425 5 is_stmt 1
 1814              		.loc 1 425 16 is_stmt 0
 1815 0b5c 17050000 		lla	a0,.LC20
 1815      13050500 
 1816 0b64 97000000 		call	_Z11printStringPKc@plt
 1816      E7800000 
 1817              	.LVL214:
 426:src/Slab.cpp  **** }
 1818              		.loc 1 426 1
 1819 0b6c 83308101 		ld	ra,24(sp)
 1820              		.cfi_restore 1
 1821 0b70 03340101 		ld	s0,16(sp)
 1822              		.cfi_restore 8
 1823              		.cfi_def_cfa 2, 32
 1824 0b74 83348100 		ld	s1,8(sp)
 1825              		.cfi_restore 9
 1826              	.LVL215:
 1827 0b78 13010102 		addi	sp,sp,32
 1828              		.cfi_def_cfa_offset 0
 1829 0b7c 67800000 		jr	ra
 1830              		.cfi_endproc
 1831              	.LFE51:
 1833              		.align	2
 1834              		.globl	_ZN4Slab42return_first_free_object_and_rearange_listEii
 1836              	_ZN4Slab42return_first_free_object_and_rearange_listEii:
 1837              	.LFB52:
GAS LISTING /tmp/ccGVpxtD.s 			page 48


 427:src/Slab.cpp  **** 
 428:src/Slab.cpp  **** void *Slab::return_first_free_object_and_rearange_list(int number_of_objects_in_slab, int size_of_o
 1838              		.loc 1 428 107 is_stmt 1
 1839              		.cfi_startproc
 1840              	.LVL216:
 1841 0b80 130101FD 		addi	sp,sp,-48
 1842              		.cfi_def_cfa_offset 48
 1843 0b84 23341102 		sd	ra,40(sp)
 1844 0b88 23308102 		sd	s0,32(sp)
 1845 0b8c 233C9100 		sd	s1,24(sp)
 1846 0b90 23382101 		sd	s2,16(sp)
 1847 0b94 23343101 		sd	s3,8(sp)
 1848 0b98 23304101 		sd	s4,0(sp)
 1849              		.cfi_offset 1, -8
 1850              		.cfi_offset 8, -16
 1851              		.cfi_offset 9, -24
 1852              		.cfi_offset 18, -32
 1853              		.cfi_offset 19, -40
 1854              		.cfi_offset 20, -48
 1855 0b9c 13040103 		addi	s0,sp,48
 1856              		.cfi_def_cfa 8, 0
 1857 0ba0 93090500 		mv	s3,a0
 1858 0ba4 13890500 		mv	s2,a1
 1859 0ba8 130A0600 		mv	s4,a2
 429:src/Slab.cpp  ****     int i = 0;
 1860              		.loc 1 429 5
 1861              	.LVL217:
 1862              		.loc 1 429 9 is_stmt 0
 1863 0bac 93040000 		li	s1,0
 1864              	.LVL218:
 1865              	.L83:
 430:src/Slab.cpp  ****     while(i < number_of_objects_in_slab && this->is_active(i)){
 1866              		.loc 1 430 5 is_stmt 1
 1867              		.loc 1 430 41
 1868 0bb0 63D02403 		bge	s1,s2,.L82
 1869              		.loc 1 430 59 is_stmt 0 discriminator 1
 1870 0bb4 93850400 		mv	a1,s1
 1871 0bb8 13850900 		mv	a0,s3
 1872 0bbc 97000000 		call	_ZN4Slab9is_activeEi
 1872      E7800000 
 1873              	.LVL219:
 1874              		.loc 1 430 41 discriminator 1
 1875 0bc4 63060500 		beqz	a0,.L82
 431:src/Slab.cpp  ****         i++;
 1876              		.loc 1 431 9 is_stmt 1
 1877              		.loc 1 431 10 is_stmt 0
 1878 0bc8 9B841400 		addiw	s1,s1,1
 1879              	.LVL220:
 430:src/Slab.cpp  ****     while(i < number_of_objects_in_slab && this->is_active(i)){
 1880              		.loc 1 430 5
 1881 0bcc 6FF05FFE 		j	.L83
 1882              	.LVL221:
 1883              	.L82:
 432:src/Slab.cpp  ****     }
 433:src/Slab.cpp  ****     if(i >= number_of_objects_in_slab)return nullptr; // nece se desiti ali postoji kao ogranicenje
 1884              		.loc 1 433 5 is_stmt 1 discriminator 4
 1885 0bd0 63D22405 		bge	s1,s2,.L85
GAS LISTING /tmp/ccGVpxtD.s 			page 49


 434:src/Slab.cpp  ****     this->set_mask(i, true);
 1886              		.loc 1 434 5
 1887              		.loc 1 434 19 is_stmt 0
 1888 0bd4 13061000 		li	a2,1
 1889 0bd8 93850400 		mv	a1,s1
 1890 0bdc 13850900 		mv	a0,s3
 1891 0be0 97000000 		call	_ZN4Slab8set_maskEib
 1891      E7800000 
 1892              	.LVL222:
 435:src/Slab.cpp  ****     return (void*)(this->first_addr + size_of_object * i);
 1893              		.loc 1 435 5 is_stmt 1
 1894              		.loc 1 435 26 is_stmt 0
 1895 0be8 03B50901 		ld	a0,16(s3)
 1896              		.loc 1 435 54
 1897 0bec BB844403 		mulw	s1,s1,s4
 1898              	.LVL223:
 1899              		.loc 1 435 37
 1900 0bf0 33059500 		add	a0,a0,s1
 1901              	.L81:
 436:src/Slab.cpp  **** }
 1902              		.loc 1 436 1
 1903 0bf4 83308102 		ld	ra,40(sp)
 1904              		.cfi_remember_state
 1905              		.cfi_restore 1
 1906 0bf8 03340102 		ld	s0,32(sp)
 1907              		.cfi_restore 8
 1908              		.cfi_def_cfa 2, 48
 1909 0bfc 83348101 		ld	s1,24(sp)
 1910              		.cfi_restore 9
 1911 0c00 03390101 		ld	s2,16(sp)
 1912              		.cfi_restore 18
 1913 0c04 83398100 		ld	s3,8(sp)
 1914              		.cfi_restore 19
 1915              	.LVL224:
 1916 0c08 033A0100 		ld	s4,0(sp)
 1917              		.cfi_restore 20
 1918 0c0c 13010103 		addi	sp,sp,48
 1919              		.cfi_def_cfa_offset 0
 1920 0c10 67800000 		jr	ra
 1921              	.LVL225:
 1922              	.L85:
 1923              		.cfi_restore_state
 433:src/Slab.cpp  ****     this->set_mask(i, true);
 1924              		.loc 1 433 46
 1925 0c14 13050000 		li	a0,0
 1926 0c18 6FF0DFFD 		j	.L81
 1927              		.cfi_endproc
 1928              	.LFE52:
 1930              		.align	2
 1931              		.globl	_ZN12kmem_cache_s16kmem_cache_allocEv
 1933              	_ZN12kmem_cache_s16kmem_cache_allocEv:
 1934              	.LFB39:
  83:src/Slab.cpp  ****     if(num_slabs_partial != 0){
 1935              		.loc 1 83 40 is_stmt 1
 1936              		.cfi_startproc
 1937              	.LVL226:
 1938 0c1c 130101FE 		addi	sp,sp,-32
GAS LISTING /tmp/ccGVpxtD.s 			page 50


 1939              		.cfi_def_cfa_offset 32
 1940 0c20 233C1100 		sd	ra,24(sp)
 1941 0c24 23388100 		sd	s0,16(sp)
 1942 0c28 23349100 		sd	s1,8(sp)
 1943              		.cfi_offset 1, -8
 1944              		.cfi_offset 8, -16
 1945              		.cfi_offset 9, -24
 1946 0c2c 13040102 		addi	s0,sp,32
 1947              		.cfi_def_cfa 8, 0
 1948 0c30 93040500 		mv	s1,a0
  84:src/Slab.cpp  ****         void* addr = this->slabs_partial->return_first_free_object_and_rearange_list(this->num, thi
 1949              		.loc 1 84 5
 1950              	.LBB113:
  84:src/Slab.cpp  ****         void* addr = this->slabs_partial->return_first_free_object_and_rearange_list(this->num, thi
 1951              		.loc 1 84 8 is_stmt 0
 1952 0c34 83370502 		ld	a5,32(a0)
  84:src/Slab.cpp  ****         void* addr = this->slabs_partial->return_first_free_object_and_rearange_list(this->num, thi
 1953              		.loc 1 84 5
 1954 0c38 639E0706 		bnez	a5,.L93
 1955              	.LBE113:
 100:src/Slab.cpp  ****         void* addr1 = this->slabs_free->return_first_free_object_and_rearange_list(this->num, this-
 1956              		.loc 1 100 10 is_stmt 1
 1957              	.LBB126:
 1958              	.LBB114:
 100:src/Slab.cpp  ****         void* addr1 = this->slabs_free->return_first_free_object_and_rearange_list(this->num, this-
 1959              		.loc 1 100 13 is_stmt 0
 1960 0c3c 83378502 		ld	a5,40(a0)
 100:src/Slab.cpp  ****         void* addr1 = this->slabs_free->return_first_free_object_and_rearange_list(this->num, this-
 1961              		.loc 1 100 10
 1962 0c40 6382070E 		beqz	a5,.L91
 1963              	.LBB115:
 101:src/Slab.cpp  ****         this->num_active_obj++;
 1964              		.loc 1 101 9 is_stmt 1
 101:src/Slab.cpp  ****         this->num_active_obj++;
 1965              		.loc 1 101 83 is_stmt 0
 1966 0c44 03260503 		lw	a2,48(a0)
 1967 0c48 83258503 		lw	a1,56(a0)
 1968 0c4c 03350501 		ld	a0,16(a0)
 1969              	.LVL227:
 1970 0c50 97000000 		call	_ZN4Slab42return_first_free_object_and_rearange_listEii
 1970      E7800000 
 1971              	.LVL228:
 102:src/Slab.cpp  **** 
 1972              		.loc 1 102 9 is_stmt 1
 102:src/Slab.cpp  **** 
 1973              		.loc 1 102 15 is_stmt 0
 1974 0c58 83B70407 		ld	a5,112(s1)
 102:src/Slab.cpp  **** 
 1975              		.loc 1 102 29
 1976 0c5c 93871700 		addi	a5,a5,1
 1977 0c60 23B8F406 		sd	a5,112(s1)
 105:src/Slab.cpp  ****         this->slabs_free = this->slabs_free->next;
 1978              		.loc 1 105 9 is_stmt 1
 105:src/Slab.cpp  ****         this->slabs_free = this->slabs_free->next;
 1979              		.loc 1 105 15 is_stmt 0
 1980 0c64 83B70401 		ld	a5,16(s1)
 1981              	.LVL229:
GAS LISTING /tmp/ccGVpxtD.s 			page 51


 106:src/Slab.cpp  ****         tmp->next = this->slabs_partial;
 1982              		.loc 1 106 9 is_stmt 1
 106:src/Slab.cpp  ****         tmp->next = this->slabs_partial;
 1983              		.loc 1 106 46 is_stmt 0
 1984 0c68 03B78700 		ld	a4,8(a5)
 106:src/Slab.cpp  ****         tmp->next = this->slabs_partial;
 1985              		.loc 1 106 26
 1986 0c6c 23B8E400 		sd	a4,16(s1)
 107:src/Slab.cpp  ****         tmp->increment_num_of_active();
 1987              		.loc 1 107 9 is_stmt 1
 107:src/Slab.cpp  ****         tmp->increment_num_of_active();
 1988              		.loc 1 107 27 is_stmt 0
 1989 0c70 03B78400 		ld	a4,8(s1)
 107:src/Slab.cpp  ****         tmp->increment_num_of_active();
 1990              		.loc 1 107 19
 1991 0c74 23B4E700 		sd	a4,8(a5)
 108:src/Slab.cpp  ****         this->slabs_partial = tmp;
 1992              		.loc 1 108 9 is_stmt 1
 1993              	.LVL230:
 1994              	.LBB116:
 1995              	.LBB117:
  18:src/../h/Slab.h ****     void decrement_num_of_active(){num_active--;}
 1996              		.loc 3 18 36
 1997 0c78 03B70700 		ld	a4,0(a5)
  18:src/../h/Slab.h ****     void decrement_num_of_active(){num_active--;}
 1998              		.loc 3 18 46 is_stmt 0
 1999 0c7c 13071700 		addi	a4,a4,1
 2000 0c80 23B0E700 		sd	a4,0(a5)
 2001              	.LVL231:
 2002              	.LBE117:
 2003              	.LBE116:
 109:src/Slab.cpp  ****         this->num_slabs_free--;
 2004              		.loc 1 109 9 is_stmt 1
 109:src/Slab.cpp  ****         this->num_slabs_free--;
 2005              		.loc 1 109 29 is_stmt 0
 2006 0c84 23B4F400 		sd	a5,8(s1)
 110:src/Slab.cpp  ****         this->num_slabs_partial++;
 2007              		.loc 1 110 9 is_stmt 1
 110:src/Slab.cpp  ****         this->num_slabs_partial++;
 2008              		.loc 1 110 15 is_stmt 0
 2009 0c88 83B78402 		ld	a5,40(s1)
 2010              	.LVL232:
 110:src/Slab.cpp  ****         this->num_slabs_partial++;
 2011              		.loc 1 110 29
 2012 0c8c 9387F7FF 		addi	a5,a5,-1
 2013 0c90 23B4F402 		sd	a5,40(s1)
 111:src/Slab.cpp  **** 
 2014              		.loc 1 111 9 is_stmt 1
 111:src/Slab.cpp  **** 
 2015              		.loc 1 111 15 is_stmt 0
 2016 0c94 83B70402 		ld	a5,32(s1)
 111:src/Slab.cpp  **** 
 2017              		.loc 1 111 32
 2018 0c98 93871700 		addi	a5,a5,1
 2019 0c9c 23B0F402 		sd	a5,32(s1)
 113:src/Slab.cpp  ****     }
 2020              		.loc 1 113 9 is_stmt 1
GAS LISTING /tmp/ccGVpxtD.s 			page 52


 2021              	.LVL233:
 2022              	.L87:
 2023              	.LBE115:
 2024              	.LBE114:
 2025              	.LBE126:
 121:src/Slab.cpp  **** 
 2026              		.loc 1 121 1 is_stmt 0
 2027 0ca0 83308101 		ld	ra,24(sp)
 2028              		.cfi_remember_state
 2029              		.cfi_restore 1
 2030 0ca4 03340101 		ld	s0,16(sp)
 2031              		.cfi_restore 8
 2032              		.cfi_def_cfa 2, 32
 2033 0ca8 83348100 		ld	s1,8(sp)
 2034              		.cfi_restore 9
 2035              	.LVL234:
 2036 0cac 13010102 		addi	sp,sp,32
 2037              		.cfi_def_cfa_offset 0
 2038 0cb0 67800000 		jr	ra
 2039              	.LVL235:
 2040              	.L93:
 2041              		.cfi_restore_state
 2042              	.LBB127:
 2043              	.LBB118:
  85:src/Slab.cpp  ****         this->num_active_obj++;
 2044              		.loc 1 85 9 is_stmt 1
  85:src/Slab.cpp  ****         this->num_active_obj++;
 2045              		.loc 1 85 85 is_stmt 0
 2046 0cb4 03260503 		lw	a2,48(a0)
 2047 0cb8 83258503 		lw	a1,56(a0)
 2048 0cbc 03358500 		ld	a0,8(a0)
 2049 0cc0 97000000 		call	_ZN4Slab42return_first_free_object_and_rearange_listEii
 2049      E7800000 
 2050              	.LVL236:
  86:src/Slab.cpp  ****         this->slabs_partial->increment_num_of_active();
 2051              		.loc 1 86 9 is_stmt 1
  86:src/Slab.cpp  ****         this->slabs_partial->increment_num_of_active();
 2052              		.loc 1 86 15 is_stmt 0
 2053 0cc8 83B70407 		ld	a5,112(s1)
  86:src/Slab.cpp  ****         this->slabs_partial->increment_num_of_active();
 2054              		.loc 1 86 29
 2055 0ccc 93871700 		addi	a5,a5,1
 2056 0cd0 23B8F406 		sd	a5,112(s1)
  87:src/Slab.cpp  **** 
 2057              		.loc 1 87 9 is_stmt 1
  87:src/Slab.cpp  **** 
 2058              		.loc 1 87 15 is_stmt 0
 2059 0cd4 03B78400 		ld	a4,8(s1)
 2060              	.LVL237:
 2061              	.LBB119:
 2062              	.LBB120:
  18:src/../h/Slab.h ****     void decrement_num_of_active(){num_active--;}
 2063              		.loc 3 18 36 is_stmt 1
 2064 0cd8 83370700 		ld	a5,0(a4)
  18:src/../h/Slab.h ****     void decrement_num_of_active(){num_active--;}
 2065              		.loc 3 18 46 is_stmt 0
 2066 0cdc 93871700 		addi	a5,a5,1
GAS LISTING /tmp/ccGVpxtD.s 			page 53


 2067 0ce0 2330F700 		sd	a5,0(a4)
 2068              	.LVL238:
 2069              	.LBE120:
 2070              	.LBE119:
  89:src/Slab.cpp  ****             // move from partial to full
 2071              		.loc 1 89 9 is_stmt 1
 2072              	.LBB121:
  89:src/Slab.cpp  ****             // move from partial to full
 2073              		.loc 1 89 18 is_stmt 0
 2074 0ce4 83B78400 		ld	a5,8(s1)
 2075              	.LVL239:
 2076              	.LBB122:
 2077              	.LBB123:
  16:src/../h/Slab.h ****     void* return_first_free_object_and_rearange_list(int, int);
 2078              		.loc 3 16 43 is_stmt 1
  16:src/../h/Slab.h ****     void* return_first_free_object_and_rearange_list(int, int);
 2079              		.loc 3 16 50 is_stmt 0
 2080 0ce8 03B70700 		ld	a4,0(a5)
 2081              	.LVL240:
 2082              	.LBE123:
 2083              	.LBE122:
  89:src/Slab.cpp  ****             // move from partial to full
 2084              		.loc 1 89 73
 2085 0cec 83B68403 		ld	a3,56(s1)
  89:src/Slab.cpp  ****             // move from partial to full
 2086              		.loc 1 89 9
 2087 0cf0 E398E6FA 		bne	a3,a4,.L87
 2088              	.LBB124:
  91:src/Slab.cpp  ****             this->slabs_partial = this->slabs_partial->next;
 2089              		.loc 1 91 13 is_stmt 1
 2090              	.LVL241:
  92:src/Slab.cpp  ****             tmp->next = this->slabs_full;
 2091              		.loc 1 92 13
  92:src/Slab.cpp  ****             tmp->next = this->slabs_full;
 2092              		.loc 1 92 56 is_stmt 0
 2093 0cf4 03B78700 		ld	a4,8(a5)
  92:src/Slab.cpp  ****             tmp->next = this->slabs_full;
 2094              		.loc 1 92 33
 2095 0cf8 23B4E400 		sd	a4,8(s1)
  93:src/Slab.cpp  ****             this->slabs_full = tmp;
 2096              		.loc 1 93 13 is_stmt 1
  93:src/Slab.cpp  ****             this->slabs_full = tmp;
 2097              		.loc 1 93 31 is_stmt 0
 2098 0cfc 03B70400 		ld	a4,0(s1)
  93:src/Slab.cpp  ****             this->slabs_full = tmp;
 2099              		.loc 1 93 23
 2100 0d00 23B4E700 		sd	a4,8(a5)
  94:src/Slab.cpp  ****             this->num_slabs_partial--;
 2101              		.loc 1 94 13 is_stmt 1
  94:src/Slab.cpp  ****             this->num_slabs_partial--;
 2102              		.loc 1 94 30 is_stmt 0
 2103 0d04 23B0F400 		sd	a5,0(s1)
  95:src/Slab.cpp  ****             this->num_slabs_full++;
 2104              		.loc 1 95 13 is_stmt 1
  95:src/Slab.cpp  ****             this->num_slabs_full++;
 2105              		.loc 1 95 19 is_stmt 0
 2106 0d08 83B70402 		ld	a5,32(s1)
GAS LISTING /tmp/ccGVpxtD.s 			page 54


 2107              	.LVL242:
  95:src/Slab.cpp  ****             this->num_slabs_full++;
 2108              		.loc 1 95 36
 2109 0d0c 9387F7FF 		addi	a5,a5,-1
 2110 0d10 23B0F402 		sd	a5,32(s1)
  96:src/Slab.cpp  ****         }
 2111              		.loc 1 96 13 is_stmt 1
  96:src/Slab.cpp  ****         }
 2112              		.loc 1 96 19 is_stmt 0
 2113 0d14 83B78401 		ld	a5,24(s1)
  96:src/Slab.cpp  ****         }
 2114              		.loc 1 96 33
 2115 0d18 93871700 		addi	a5,a5,1
 2116 0d1c 23BCF400 		sd	a5,24(s1)
 2117              	.LBE124:
 2118              	.LBE121:
  98:src/Slab.cpp  ****     }
 2119              		.loc 1 98 9 is_stmt 1
  98:src/Slab.cpp  ****     }
 2120              		.loc 1 98 16 is_stmt 0
 2121 0d20 6FF01FF8 		j	.L87
 2122              	.LVL243:
 2123              	.L91:
 2124              	.LBE118:
 2125              	.LBB125:
 117:src/Slab.cpp  ****         this->growing = true;
 2126              		.loc 1 117 9 is_stmt 1
 117:src/Slab.cpp  ****         this->growing = true;
 2127              		.loc 1 117 25 is_stmt 0
 2128 0d24 97000000 		call	_ZN12kmem_cache_s16create_free_slabEv
 2128      E7800000 
 2129              	.LVL244:
 118:src/Slab.cpp  ****         return nullptr;
 2130              		.loc 1 118 9 is_stmt 1
 118:src/Slab.cpp  ****         return nullptr;
 2131              		.loc 1 118 23 is_stmt 0
 2132 0d2c 93071000 		li	a5,1
 2133 0d30 238CF406 		sb	a5,120(s1)
 119:src/Slab.cpp  ****     }
 2134              		.loc 1 119 9 is_stmt 1
 119:src/Slab.cpp  ****     }
 2135              		.loc 1 119 16 is_stmt 0
 2136 0d34 13050000 		li	a0,0
 2137 0d38 6FF09FF6 		j	.L87
 2138              	.LBE125:
 2139              	.LBE127:
 2140              		.cfi_endproc
 2141              	.LFE39:
 2143              		.align	2
 2144              		.globl	_ZN12kmem_cache_s7kmallocEm
 2146              	_ZN12kmem_cache_s7kmallocEm:
 2147              	.LFB44:
 239:src/Slab.cpp  ****     // kreiraj ime
 2148              		.loc 1 239 42 is_stmt 1
 2149              		.cfi_startproc
 2150              	.LVL245:
 2151 0d3c 130101FE 		addi	sp,sp,-32
GAS LISTING /tmp/ccGVpxtD.s 			page 55


 2152              		.cfi_def_cfa_offset 32
 2153 0d40 233C1100 		sd	ra,24(sp)
 2154 0d44 23388100 		sd	s0,16(sp)
 2155 0d48 23349100 		sd	s1,8(sp)
 2156 0d4c 23302101 		sd	s2,0(sp)
 2157              		.cfi_offset 1, -8
 2158              		.cfi_offset 8, -16
 2159              		.cfi_offset 9, -24
 2160              		.cfi_offset 18, -32
 2161 0d50 13040102 		addi	s0,sp,32
 2162              		.cfi_def_cfa 8, 0
 2163 0d54 93040500 		mv	s1,a0
 241:src/Slab.cpp  **** 
 2164              		.loc 1 241 5
 241:src/Slab.cpp  **** 
 2165              		.loc 1 241 61 is_stmt 0
 2166 0d58 1B050500 		sext.w	a0,a0
 2167              	.LVL246:
 2168 0d5c 97000000 		call	_Z27concatenate_int_to_char_ptri@plt
 2168      E7800000 
 2169              	.LVL247:
 2170 0d64 13090500 		mv	s2,a0
 2171              	.LVL248:
 243:src/Slab.cpp  ****     if(tmp == nullptr){
 2172              		.loc 1 243 5 is_stmt 1
 243:src/Slab.cpp  ****     if(tmp == nullptr){
 2173              		.loc 1 243 45 is_stmt 0
 2174 0d68 97000000 		call	_ZN12kmem_cache_s20check_if_name_existsEPKc
 2174      E7800000 
 2175              	.LVL249:
 244:src/Slab.cpp  ****         // napravi novi
 2176              		.loc 1 244 5 is_stmt 1
 2177 0d70 63020502 		beqz	a0,.L98
 2178              	.L95:
 250:src/Slab.cpp  ****     return elem;
 2179              		.loc 1 250 5
 250:src/Slab.cpp  ****     return elem;
 2180              		.loc 1 250 39 is_stmt 0
 2181 0d74 97000000 		call	_ZN12kmem_cache_s16kmem_cache_allocEv
 2181      E7800000 
 2182              	.LVL250:
 251:src/Slab.cpp  **** }
 2183              		.loc 1 251 5 is_stmt 1
 2184              	.L94:
 252:src/Slab.cpp  **** 
 2185              		.loc 1 252 1 is_stmt 0
 2186 0d7c 83308101 		ld	ra,24(sp)
 2187              		.cfi_remember_state
 2188              		.cfi_restore 1
 2189 0d80 03340101 		ld	s0,16(sp)
 2190              		.cfi_restore 8
 2191              		.cfi_def_cfa 2, 32
 2192 0d84 83348100 		ld	s1,8(sp)
 2193              		.cfi_restore 9
 2194              	.LVL251:
 2195 0d88 03390100 		ld	s2,0(sp)
 2196              		.cfi_restore 18
GAS LISTING /tmp/ccGVpxtD.s 			page 56


 2197              	.LVL252:
 2198 0d8c 13010102 		addi	sp,sp,32
 2199              		.cfi_def_cfa_offset 0
 2200 0d90 67800000 		jr	ra
 2201              	.LVL253:
 2202              	.L98:
 2203              		.cfi_restore_state
 246:src/Slab.cpp  ****         if(!tmp)return nullptr;
 2204              		.loc 1 246 9 is_stmt 1
 246:src/Slab.cpp  ****         if(!tmp)return nullptr;
 2205              		.loc 1 246 47 is_stmt 0
 2206 0d94 93060000 		li	a3,0
 2207 0d98 13060000 		li	a2,0
 2208 0d9c 93850400 		mv	a1,s1
 2209 0da0 13050900 		mv	a0,s2
 2210              	.LVL254:
 2211 0da4 97000000 		call	_ZN12kmem_cache_s17kmem_cache_createEPKcmPFvPvES4_
 2211      E7800000 
 2212              	.LVL255:
 247:src/Slab.cpp  ****     }
 2213              		.loc 1 247 9 is_stmt 1
 2214 0dac E31405FC 		bnez	a0,.L95
 2215 0db0 6FF0DFFC 		j	.L94
 2216              		.cfi_endproc
 2217              	.LFE44:
 2219              		.align	2
 2220              		.globl	_ZN4Slab10clear_slabEiiPFvPvE
 2222              	_ZN4Slab10clear_slabEiiPFvPvE:
 2223              	.LFB53:
 437:src/Slab.cpp  **** 
 438:src/Slab.cpp  **** void Slab::clear_slab(int num_of_objects_in_slab, int objsize, void (*dtor)(void *)) {
 2224              		.loc 1 438 86
 2225              		.cfi_startproc
 2226              	.LVL256:
 439:src/Slab.cpp  ****     if(dtor == nullptr)return;
 2227              		.loc 1 439 5
 2228 0db4 638A0608 		beqz	a3,.L104
 438:src/Slab.cpp  ****     if(dtor == nullptr)return;
 2229              		.loc 1 438 86 is_stmt 0
 2230 0db8 130101FC 		addi	sp,sp,-64
 2231              		.cfi_def_cfa_offset 64
 2232 0dbc 233C1102 		sd	ra,56(sp)
 2233 0dc0 23388102 		sd	s0,48(sp)
 2234 0dc4 23349102 		sd	s1,40(sp)
 2235 0dc8 23302103 		sd	s2,32(sp)
 2236 0dcc 233C3101 		sd	s3,24(sp)
 2237 0dd0 23384101 		sd	s4,16(sp)
 2238 0dd4 23345101 		sd	s5,8(sp)
 2239              		.cfi_offset 1, -8
 2240              		.cfi_offset 8, -16
 2241              		.cfi_offset 9, -24
 2242              		.cfi_offset 18, -32
 2243              		.cfi_offset 19, -40
 2244              		.cfi_offset 20, -48
 2245              		.cfi_offset 21, -56
 2246 0dd8 13040104 		addi	s0,sp,64
 2247              		.cfi_def_cfa 8, 0
GAS LISTING /tmp/ccGVpxtD.s 			page 57


 2248 0ddc 13090500 		mv	s2,a0
 2249 0de0 93890500 		mv	s3,a1
 2250 0de4 930A0600 		mv	s5,a2
 2251 0de8 138A0600 		mv	s4,a3
 2252              	.LBB128:
 440:src/Slab.cpp  ****     for(int i = 0; i < num_of_objects_in_slab; i++){
 2253              		.loc 1 440 13
 2254 0dec 93040000 		li	s1,0
 2255 0df0 6F008000 		j	.L102
 2256              	.LVL257:
 2257              	.L101:
 2258              		.loc 1 440 5 is_stmt 1 discriminator 2
 2259 0df4 9B841400 		addiw	s1,s1,1
 2260              	.LVL258:
 2261              	.L102:
 2262              		.loc 1 440 22 discriminator 1
 2263 0df8 63D63403 		bge	s1,s3,.L99
 441:src/Slab.cpp  ****         if(this->is_active(i)){
 2264              		.loc 1 441 9
 2265              		.loc 1 441 27 is_stmt 0
 2266 0dfc 93850400 		mv	a1,s1
 2267 0e00 13050900 		mv	a0,s2
 2268 0e04 97000000 		call	_ZN4Slab9is_activeEi
 2268      E7800000 
 2269              	.LVL259:
 2270              		.loc 1 441 9
 2271 0e0c E30405FE 		beqz	a0,.L101
 442:src/Slab.cpp  ****             dtor((void*)(this->first_addr + i * objsize));
 2272              		.loc 1 442 13 is_stmt 1
 2273              		.loc 1 442 32 is_stmt 0
 2274 0e10 03350901 		ld	a0,16(s2)
 2275              		.loc 1 442 47
 2276 0e14 BB875403 		mulw	a5,s1,s5
 2277              		.loc 1 442 17
 2278 0e18 3305F500 		add	a0,a0,a5
 2279 0e1c E7000A00 		jalr	s4
 2280              	.LVL260:
 2281 0e20 6FF05FFD 		j	.L101
 2282              	.L99:
 2283              	.LBE128:
 443:src/Slab.cpp  ****         }
 444:src/Slab.cpp  ****     }
 445:src/Slab.cpp  **** }
 2284              		.loc 1 445 1
 2285 0e24 83308103 		ld	ra,56(sp)
 2286              		.cfi_restore 1
 2287 0e28 03340103 		ld	s0,48(sp)
 2288              		.cfi_restore 8
 2289              		.cfi_def_cfa 2, 64
 2290 0e2c 83348102 		ld	s1,40(sp)
 2291              		.cfi_restore 9
 2292              	.LVL261:
 2293 0e30 03390102 		ld	s2,32(sp)
 2294              		.cfi_restore 18
 2295              	.LVL262:
 2296 0e34 83398101 		ld	s3,24(sp)
 2297              		.cfi_restore 19
GAS LISTING /tmp/ccGVpxtD.s 			page 58


 2298 0e38 033A0101 		ld	s4,16(sp)
 2299              		.cfi_restore 20
 2300              	.LVL263:
 2301 0e3c 833A8100 		ld	s5,8(sp)
 2302              		.cfi_restore 21
 2303 0e40 13010104 		addi	sp,sp,64
 2304              		.cfi_def_cfa_offset 0
 2305 0e44 67800000 		jr	ra
 2306              	.LVL264:
 2307              	.L104:
 2308 0e48 67800000 		ret
 2309              		.cfi_endproc
 2310              	.LFE53:
 2312              		.align	2
 2313              		.globl	_ZN12kmem_cache_s17kmem_cache_shrinkEv
 2315              	_ZN12kmem_cache_s17kmem_cache_shrinkEv:
 2316              	.LFB38:
  63:src/Slab.cpp  ****     if(this->growing){
 2317              		.loc 1 63 42 is_stmt 1
 2318              		.cfi_startproc
 2319              	.LVL265:
 2320 0e4c 130101FD 		addi	sp,sp,-48
 2321              		.cfi_def_cfa_offset 48
 2322 0e50 23341102 		sd	ra,40(sp)
 2323 0e54 23308102 		sd	s0,32(sp)
 2324 0e58 233C9100 		sd	s1,24(sp)
 2325 0e5c 23382101 		sd	s2,16(sp)
 2326 0e60 23343101 		sd	s3,8(sp)
 2327 0e64 23304101 		sd	s4,0(sp)
 2328              		.cfi_offset 1, -8
 2329              		.cfi_offset 8, -16
 2330              		.cfi_offset 9, -24
 2331              		.cfi_offset 18, -32
 2332              		.cfi_offset 19, -40
 2333              		.cfi_offset 20, -48
 2334 0e68 13040103 		addi	s0,sp,48
 2335              		.cfi_def_cfa 8, 0
 2336 0e6c 13090500 		mv	s2,a0
  64:src/Slab.cpp  ****         this->growing = false;
 2337              		.loc 1 64 5
  64:src/Slab.cpp  ****         this->growing = false;
 2338              		.loc 1 64 14 is_stmt 0
 2339 0e70 83478507 		lbu	a5,120(a0)
  64:src/Slab.cpp  ****         this->growing = false;
 2340              		.loc 1 64 5
 2341 0e74 63980700 		bnez	a5,.L114
  68:src/Slab.cpp  ****     int cnt = (int)this->num_slabs_free;
 2342              		.loc 1 68 5 is_stmt 1
  68:src/Slab.cpp  ****     int cnt = (int)this->num_slabs_free;
 2343              		.loc 1 68 11 is_stmt 0
 2344 0e78 83340501 		ld	s1,16(a0)
 2345              	.LVL266:
  69:src/Slab.cpp  ****     while(curr){
 2346              		.loc 1 69 5 is_stmt 1
  69:src/Slab.cpp  ****     while(curr){
 2347              		.loc 1 69 9 is_stmt 0
 2348 0e7c 032A8502 		lw	s4,40(a0)
GAS LISTING /tmp/ccGVpxtD.s 			page 59


 2349              	.LVL267:
 2350 0e80 6F004004 		j	.L112
 2351              	.LVL268:
 2352              	.L114:
  65:src/Slab.cpp  ****         return 0;
 2353              		.loc 1 65 9 is_stmt 1
  65:src/Slab.cpp  ****         return 0;
 2354              		.loc 1 65 23 is_stmt 0
 2355 0e84 230C0506 		sb	zero,120(a0)
  66:src/Slab.cpp  ****     }
 2356              		.loc 1 66 9 is_stmt 1
  66:src/Slab.cpp  ****     }
 2357              		.loc 1 66 16 is_stmt 0
 2358 0e88 13050000 		li	a0,0
 2359              	.LVL269:
 2360 0e8c 6F008008 		j	.L107
 2361              	.LVL270:
 2362              	.L115:
 2363              	.LBB129:
 2364              	.LBB130:
  17:src/../h/../h/Buddy.h ****         if(block_num != 0 && space != nullptr){
 2365              		.loc 2 17 28
 2366 0e90 17050000 		lla	a0,_ZZN11BuddySystem11getInstanceEPviE2bs
 2366      13050500 
 2367 0e98 97000000 		call	_ZN11BuddySystemC1Ev@plt
 2367      E7800000 
 2368              	.LVL271:
 2369 0ea0 93071000 		li	a5,1
 2370 0ea4 17070000 		sb	a5,_ZGVZN11BuddySystem11getInstanceEPviE2bs,a4
 2370      2300F700 
 2371              	.L111:
  18:src/../h/../h/Buddy.h ****             bs.buddyHeapStart = (size_t)space;
 2372              		.loc 2 18 9 is_stmt 1
 2373              		.loc 2 23 9
 2374              	.LVL272:
 2375              	.LBE130:
 2376              	.LBE129:
  74:src/Slab.cpp  ****     }
 2377              		.loc 1 74 45 is_stmt 0
 2378 0eac 93850400 		mv	a1,s1
 2379 0eb0 17050000 		lla	a0,_ZZN11BuddySystem11getInstanceEPviE2bs
 2379      13050500 
 2380 0eb8 97000000 		call	_ZN11BuddySystem9buddyFreeEm@plt
 2380      E7800000 
 2381              	.LVL273:
  72:src/Slab.cpp  ****         prev->clear_slab(num, objsize, dtor);
 2382              		.loc 1 72 14
 2383 0ec0 93840900 		mv	s1,s3
 2384              	.LVL274:
 2385              	.L112:
  70:src/Slab.cpp  ****         prev = curr;
 2386              		.loc 1 70 5 is_stmt 1
  70:src/Slab.cpp  ****         prev = curr;
 2387              		.loc 1 70 11
 2388 0ec4 63880402 		beqz	s1,.L110
  71:src/Slab.cpp  ****         curr = curr->next;
 2389              		.loc 1 71 9
GAS LISTING /tmp/ccGVpxtD.s 			page 60


 2390              	.LVL275:
  72:src/Slab.cpp  ****         prev->clear_slab(num, objsize, dtor);
 2391              		.loc 1 72 9
  72:src/Slab.cpp  ****         prev->clear_slab(num, objsize, dtor);
 2392              		.loc 1 72 14 is_stmt 0
 2393 0ec8 83B98400 		ld	s3,8(s1)
 2394              	.LVL276:
  73:src/Slab.cpp  ****         BuddySystem::getInstance().buddyFree((size_t)prev);
 2395              		.loc 1 73 9 is_stmt 1
  73:src/Slab.cpp  ****         BuddySystem::getInstance().buddyFree((size_t)prev);
 2396              		.loc 1 73 25 is_stmt 0
 2397 0ecc 83368905 		ld	a3,88(s2)
 2398 0ed0 03260903 		lw	a2,48(s2)
 2399 0ed4 83258903 		lw	a1,56(s2)
 2400 0ed8 13850400 		mv	a0,s1
 2401 0edc 97000000 		call	_ZN4Slab10clear_slabEiiPFvPvE
 2401      E7800000 
 2402              	.LVL277:
  74:src/Slab.cpp  ****     }
 2403              		.loc 1 74 9 is_stmt 1
 2404              	.LBB132:
 2405              	.LBB131:
  17:src/../h/../h/Buddy.h ****         if(block_num != 0 && space != nullptr){
 2406              		.loc 2 17 9
  17:src/../h/../h/Buddy.h ****         if(block_num != 0 && space != nullptr){
 2407              		.loc 2 17 28 is_stmt 0
 2408 0ee4 97070000 		lbu	a5,_ZGVZN11BuddySystem11getInstanceEPviE2bs
 2408      83C70700 
 2409 0eec E39007FC 		bnez	a5,.L111
 2410 0ef0 6FF01FFA 		j	.L115
 2411              	.LVL278:
 2412              	.L110:
 2413              	.LBE131:
 2414              	.LBE132:
  76:src/Slab.cpp  ****     this->num_slabs_free = 0;
 2415              		.loc 1 76 5 is_stmt 1
  76:src/Slab.cpp  ****     this->num_slabs_free = 0;
 2416              		.loc 1 76 22 is_stmt 0
 2417 0ef4 23380900 		sd	zero,16(s2)
  77:src/Slab.cpp  ****     this->growing = false;
 2418              		.loc 1 77 5 is_stmt 1
  77:src/Slab.cpp  ****     this->growing = false;
 2419              		.loc 1 77 26 is_stmt 0
 2420 0ef8 23340902 		sd	zero,40(s2)
  78:src/Slab.cpp  ****     this->shrink++;
 2421              		.loc 1 78 5 is_stmt 1
  78:src/Slab.cpp  ****     this->shrink++;
 2422              		.loc 1 78 19 is_stmt 0
 2423 0efc 230C0906 		sb	zero,120(s2)
  79:src/Slab.cpp  ****     return cnt * this->size_in_blocks;
 2424              		.loc 1 79 5 is_stmt 1
  79:src/Slab.cpp  ****     return cnt * this->size_in_blocks;
 2425              		.loc 1 79 11 is_stmt 0
 2426 0f00 83370908 		ld	a5,128(s2)
  79:src/Slab.cpp  ****     return cnt * this->size_in_blocks;
 2427              		.loc 1 79 17
 2428 0f04 93871700 		addi	a5,a5,1
GAS LISTING /tmp/ccGVpxtD.s 			page 61


 2429 0f08 2330F908 		sd	a5,128(s2)
  80:src/Slab.cpp  **** }
 2430              		.loc 1 80 5 is_stmt 1
  80:src/Slab.cpp  **** }
 2431              		.loc 1 80 24 is_stmt 0
 2432 0f0c 03358904 		ld	a0,72(s2)
 2433 0f10 3305AA02 		mul	a0,s4,a0
 2434              	.LVL279:
 2435              	.L107:
  81:src/Slab.cpp  **** 
 2436              		.loc 1 81 1
 2437 0f14 83308102 		ld	ra,40(sp)
 2438              		.cfi_restore 1
 2439 0f18 03340102 		ld	s0,32(sp)
 2440              		.cfi_restore 8
 2441              		.cfi_def_cfa 2, 48
 2442 0f1c 83348101 		ld	s1,24(sp)
 2443              		.cfi_restore 9
 2444 0f20 03390101 		ld	s2,16(sp)
 2445              		.cfi_restore 18
 2446              	.LVL280:
 2447 0f24 83398100 		ld	s3,8(sp)
 2448              		.cfi_restore 19
 2449 0f28 033A0100 		ld	s4,0(sp)
 2450              		.cfi_restore 20
 2451 0f2c 13010103 		addi	sp,sp,48
 2452              		.cfi_def_cfa_offset 0
 2453 0f30 67800000 		jr	ra
 2454              		.cfi_endproc
 2455              	.LFE38:
 2457              		.align	2
 2458              		.globl	_ZN12kmem_cache_s18kmem_cache_destroyEm
 2460              	_ZN12kmem_cache_s18kmem_cache_destroyEm:
 2461              	.LFB49:
 295:src/Slab.cpp  ****     Slab *prev = nullptr, *tmp = this->slabs_full;
 2462              		.loc 1 295 51 is_stmt 1
 2463              		.cfi_startproc
 2464              	.LVL281:
 2465 0f34 130101FD 		addi	sp,sp,-48
 2466              		.cfi_def_cfa_offset 48
 2467 0f38 23341102 		sd	ra,40(sp)
 2468 0f3c 23308102 		sd	s0,32(sp)
 2469 0f40 233C9100 		sd	s1,24(sp)
 2470 0f44 23382101 		sd	s2,16(sp)
 2471 0f48 23343101 		sd	s3,8(sp)
 2472 0f4c 23304101 		sd	s4,0(sp)
 2473              		.cfi_offset 1, -8
 2474              		.cfi_offset 8, -16
 2475              		.cfi_offset 9, -24
 2476              		.cfi_offset 18, -32
 2477              		.cfi_offset 19, -40
 2478              		.cfi_offset 20, -48
 2479 0f50 13040103 		addi	s0,sp,48
 2480              		.cfi_def_cfa 8, 0
 2481 0f54 93040500 		mv	s1,a0
 2482 0f58 138A0500 		mv	s4,a1
 296:src/Slab.cpp  ****     while (tmp) {
GAS LISTING /tmp/ccGVpxtD.s 			page 62


 2483              		.loc 1 296 5
 2484              	.LVL282:
 296:src/Slab.cpp  ****     while (tmp) {
 2485              		.loc 1 296 28 is_stmt 0
 2486 0f5c 03390500 		ld	s2,0(a0)
 2487              	.LVL283:
 2488 0f60 6F00C001 		j	.L119
 2489              	.LVL284:
 2490              	.L118:
 2491              	.LBB133:
 2492              	.LBB134:
  18:src/../h/../h/Buddy.h ****             bs.buddyHeapStart = (size_t)space;
 2493              		.loc 2 18 9 is_stmt 1
 2494              		.loc 2 23 9
 2495              	.LBE134:
 2496              	.LBE133:
 301:src/Slab.cpp  ****     }
 2497              		.loc 1 301 45 is_stmt 0
 2498 0f64 93050900 		mv	a1,s2
 2499 0f68 17050000 		lla	a0,_ZZN11BuddySystem11getInstanceEPviE2bs
 2499      13050500 
 2500 0f70 97000000 		call	_ZN11BuddySystem9buddyFreeEm@plt
 2500      E7800000 
 2501              	.LVL285:
 299:src/Slab.cpp  ****         prev->clear_slab((int)num, (int)objsize, dtor);
 2502              		.loc 1 299 13
 2503 0f78 13890900 		mv	s2,s3
 2504              	.LVL286:
 2505              	.L119:
 297:src/Slab.cpp  ****         prev = tmp;
 2506              		.loc 1 297 5 is_stmt 1
 297:src/Slab.cpp  ****         prev = tmp;
 2507              		.loc 1 297 12
 2508 0f7c 63060904 		beqz	s2,.L117
 298:src/Slab.cpp  ****         tmp = tmp->next;
 2509              		.loc 1 298 9
 2510              	.LVL287:
 299:src/Slab.cpp  ****         prev->clear_slab((int)num, (int)objsize, dtor);
 2511              		.loc 1 299 9
 299:src/Slab.cpp  ****         prev->clear_slab((int)num, (int)objsize, dtor);
 2512              		.loc 1 299 13 is_stmt 0
 2513 0f80 83398900 		ld	s3,8(s2)
 2514              	.LVL288:
 300:src/Slab.cpp  ****         BuddySystem::getInstance().buddyFree((size_t)prev);
 2515              		.loc 1 300 9 is_stmt 1
 300:src/Slab.cpp  ****         BuddySystem::getInstance().buddyFree((size_t)prev);
 2516              		.loc 1 300 25 is_stmt 0
 2517 0f84 83B68405 		ld	a3,88(s1)
 2518 0f88 03A60403 		lw	a2,48(s1)
 2519 0f8c 83A58403 		lw	a1,56(s1)
 2520 0f90 13050900 		mv	a0,s2
 2521 0f94 97000000 		call	_ZN4Slab10clear_slabEiiPFvPvE
 2521      E7800000 
 2522              	.LVL289:
 301:src/Slab.cpp  ****     }
 2523              		.loc 1 301 9 is_stmt 1
 2524              	.LBB136:
GAS LISTING /tmp/ccGVpxtD.s 			page 63


 2525              	.LBB135:
  17:src/../h/../h/Buddy.h ****         if(block_num != 0 && space != nullptr){
 2526              		.loc 2 17 9
  17:src/../h/../h/Buddy.h ****         if(block_num != 0 && space != nullptr){
 2527              		.loc 2 17 28 is_stmt 0
 2528 0f9c 97070000 		lbu	a5,_ZGVZN11BuddySystem11getInstanceEPviE2bs
 2528      83C70700 
 2529 0fa4 E39007FC 		bnez	a5,.L118
 2530 0fa8 17050000 		lla	a0,_ZZN11BuddySystem11getInstanceEPviE2bs
 2530      13050500 
 2531 0fb0 97000000 		call	_ZN11BuddySystemC1Ev@plt
 2531      E7800000 
 2532              	.LVL290:
 2533 0fb8 93071000 		li	a5,1
 2534 0fbc 17070000 		sb	a5,_ZGVZN11BuddySystem11getInstanceEPviE2bs,a4
 2534      2300F700 
 2535 0fc4 6FF01FFA 		j	.L118
 2536              	.LVL291:
 2537              	.L117:
 2538              	.LBE135:
 2539              	.LBE136:
 303:src/Slab.cpp  ****     while (tmp) {
 2540              		.loc 1 303 5 is_stmt 1
 303:src/Slab.cpp  ****     while (tmp) {
 2541              		.loc 1 303 21
 303:src/Slab.cpp  ****     while (tmp) {
 2542              		.loc 1 303 25 is_stmt 0
 2543 0fc8 03B98400 		ld	s2,8(s1)
 2544              	.LVL292:
 2545 0fcc 6F008003 		j	.L122
 2546              	.LVL293:
 2547              	.L132:
 2548              	.LBB137:
 2549              	.LBB138:
  17:src/../h/../h/Buddy.h ****         if(block_num != 0 && space != nullptr){
 2550              		.loc 2 17 28
 2551 0fd0 17050000 		lla	a0,_ZZN11BuddySystem11getInstanceEPviE2bs
 2551      13050500 
 2552 0fd8 97000000 		call	_ZN11BuddySystemC1Ev@plt
 2552      E7800000 
 2553              	.LVL294:
 2554 0fe0 93071000 		li	a5,1
 2555 0fe4 17070000 		sb	a5,_ZGVZN11BuddySystem11getInstanceEPviE2bs,a4
 2555      2300F700 
 2556              	.L121:
  18:src/../h/../h/Buddy.h ****             bs.buddyHeapStart = (size_t)space;
 2557              		.loc 2 18 9 is_stmt 1
 2558              		.loc 2 23 9
 2559              	.LVL295:
 2560              	.LBE138:
 2561              	.LBE137:
 308:src/Slab.cpp  ****     }
 2562              		.loc 1 308 45 is_stmt 0
 2563 0fec 93050900 		mv	a1,s2
 2564 0ff0 17050000 		lla	a0,_ZZN11BuddySystem11getInstanceEPviE2bs
 2564      13050500 
 2565 0ff8 97000000 		call	_ZN11BuddySystem9buddyFreeEm@plt
GAS LISTING /tmp/ccGVpxtD.s 			page 64


 2565      E7800000 
 2566              	.LVL296:
 306:src/Slab.cpp  ****         prev->clear_slab((int)num, (int)objsize, dtor);
 2567              		.loc 1 306 13
 2568 1000 13890900 		mv	s2,s3
 2569              	.LVL297:
 2570              	.L122:
 304:src/Slab.cpp  ****         prev = tmp;
 2571              		.loc 1 304 5 is_stmt 1
 304:src/Slab.cpp  ****         prev = tmp;
 2572              		.loc 1 304 12
 2573 1004 63080902 		beqz	s2,.L120
 305:src/Slab.cpp  ****         tmp = tmp->next;
 2574              		.loc 1 305 9
 2575              	.LVL298:
 306:src/Slab.cpp  ****         prev->clear_slab((int)num, (int)objsize, dtor);
 2576              		.loc 1 306 9
 306:src/Slab.cpp  ****         prev->clear_slab((int)num, (int)objsize, dtor);
 2577              		.loc 1 306 13 is_stmt 0
 2578 1008 83398900 		ld	s3,8(s2)
 2579              	.LVL299:
 307:src/Slab.cpp  ****         BuddySystem::getInstance().buddyFree((size_t)prev);
 2580              		.loc 1 307 9 is_stmt 1
 307:src/Slab.cpp  ****         BuddySystem::getInstance().buddyFree((size_t)prev);
 2581              		.loc 1 307 25 is_stmt 0
 2582 100c 83B68405 		ld	a3,88(s1)
 2583 1010 03A60403 		lw	a2,48(s1)
 2584 1014 83A58403 		lw	a1,56(s1)
 2585 1018 13050900 		mv	a0,s2
 2586 101c 97000000 		call	_ZN4Slab10clear_slabEiiPFvPvE
 2586      E7800000 
 2587              	.LVL300:
 308:src/Slab.cpp  ****     }
 2588              		.loc 1 308 9 is_stmt 1
 2589              	.LBB140:
 2590              	.LBB139:
  17:src/../h/../h/Buddy.h ****         if(block_num != 0 && space != nullptr){
 2591              		.loc 2 17 9
  17:src/../h/../h/Buddy.h ****         if(block_num != 0 && space != nullptr){
 2592              		.loc 2 17 28 is_stmt 0
 2593 1024 97070000 		lbu	a5,_ZGVZN11BuddySystem11getInstanceEPviE2bs
 2593      83C70700 
 2594 102c E39007FC 		bnez	a5,.L121
 2595 1030 6FF01FFA 		j	.L132
 2596              	.LVL301:
 2597              	.L120:
 2598              	.LBE139:
 2599              	.LBE140:
 310:src/Slab.cpp  ****     while (tmp) {
 2600              		.loc 1 310 5 is_stmt 1
 310:src/Slab.cpp  ****     while (tmp) {
 2601              		.loc 1 310 21
 310:src/Slab.cpp  ****     while (tmp) {
 2602              		.loc 1 310 25 is_stmt 0
 2603 1034 03B90401 		ld	s2,16(s1)
 2604              	.LVL302:
 2605 1038 6F008003 		j	.L125
GAS LISTING /tmp/ccGVpxtD.s 			page 65


 2606              	.LVL303:
 2607              	.L133:
 2608              	.LBB141:
 2609              	.LBB142:
  17:src/../h/../h/Buddy.h ****         if(block_num != 0 && space != nullptr){
 2610              		.loc 2 17 28
 2611 103c 17050000 		lla	a0,_ZZN11BuddySystem11getInstanceEPviE2bs
 2611      13050500 
 2612 1044 97000000 		call	_ZN11BuddySystemC1Ev@plt
 2612      E7800000 
 2613              	.LVL304:
 2614 104c 93071000 		li	a5,1
 2615 1050 17070000 		sb	a5,_ZGVZN11BuddySystem11getInstanceEPviE2bs,a4
 2615      2300F700 
 2616              	.L124:
  18:src/../h/../h/Buddy.h ****             bs.buddyHeapStart = (size_t)space;
 2617              		.loc 2 18 9 is_stmt 1
 2618              		.loc 2 23 9
 2619              	.LVL305:
 2620              	.LBE142:
 2621              	.LBE141:
 315:src/Slab.cpp  ****     }
 2622              		.loc 1 315 45 is_stmt 0
 2623 1058 93050900 		mv	a1,s2
 2624 105c 17050000 		lla	a0,_ZZN11BuddySystem11getInstanceEPviE2bs
 2624      13050500 
 2625 1064 97000000 		call	_ZN11BuddySystem9buddyFreeEm@plt
 2625      E7800000 
 2626              	.LVL306:
 313:src/Slab.cpp  ****         prev->clear_slab((int)num, (int)objsize, dtor);
 2627              		.loc 1 313 13
 2628 106c 13890900 		mv	s2,s3
 2629              	.LVL307:
 2630              	.L125:
 311:src/Slab.cpp  ****         prev = tmp;
 2631              		.loc 1 311 5 is_stmt 1
 311:src/Slab.cpp  ****         prev = tmp;
 2632              		.loc 1 311 12
 2633 1070 63080902 		beqz	s2,.L123
 312:src/Slab.cpp  ****         tmp = tmp->next;
 2634              		.loc 1 312 9
 2635              	.LVL308:
 313:src/Slab.cpp  ****         prev->clear_slab((int)num, (int)objsize, dtor);
 2636              		.loc 1 313 9
 313:src/Slab.cpp  ****         prev->clear_slab((int)num, (int)objsize, dtor);
 2637              		.loc 1 313 13 is_stmt 0
 2638 1074 83398900 		ld	s3,8(s2)
 2639              	.LVL309:
 314:src/Slab.cpp  ****         BuddySystem::getInstance().buddyFree((size_t)prev);
 2640              		.loc 1 314 9 is_stmt 1
 314:src/Slab.cpp  ****         BuddySystem::getInstance().buddyFree((size_t)prev);
 2641              		.loc 1 314 25 is_stmt 0
 2642 1078 83B68405 		ld	a3,88(s1)
 2643 107c 03A60403 		lw	a2,48(s1)
 2644 1080 83A58403 		lw	a1,56(s1)
 2645 1084 13050900 		mv	a0,s2
 2646 1088 97000000 		call	_ZN4Slab10clear_slabEiiPFvPvE
GAS LISTING /tmp/ccGVpxtD.s 			page 66


 2646      E7800000 
 2647              	.LVL310:
 315:src/Slab.cpp  ****     }
 2648              		.loc 1 315 9 is_stmt 1
 2649              	.LBB144:
 2650              	.LBB143:
  17:src/../h/../h/Buddy.h ****         if(block_num != 0 && space != nullptr){
 2651              		.loc 2 17 9
  17:src/../h/../h/Buddy.h ****         if(block_num != 0 && space != nullptr){
 2652              		.loc 2 17 28 is_stmt 0
 2653 1090 97070000 		lbu	a5,_ZGVZN11BuddySystem11getInstanceEPviE2bs
 2653      83C70700 
 2654 1098 E39007FC 		bnez	a5,.L124
 2655 109c 6FF01FFA 		j	.L133
 2656              	.LVL311:
 2657              	.L123:
 2658              	.LBE143:
 2659              	.LBE144:
 318:src/Slab.cpp  ****     while(cache){
 2660              		.loc 1 318 5 is_stmt 1
 318:src/Slab.cpp  ****     while(cache){
 2661              		.loc 1 318 19 is_stmt 0
 2662 10a0 97070000 		ld	a5,.LANCHOR0
 2662      83B70700 
 2663              	.LVL312:
 2664 10a8 6F00C002 		j	.L129
 2665              	.LVL313:
 2666              	.L134:
 2667              	.LBB145:
 2668              	.LBB146:
  17:src/../h/../h/Buddy.h ****         if(block_num != 0 && space != nullptr){
 2669              		.loc 2 17 28
 2670 10ac 17050000 		lla	a0,_ZZN11BuddySystem11getInstanceEPviE2bs
 2670      13050500 
 2671 10b4 97000000 		call	_ZN11BuddySystemC1Ev@plt
 2671      E7800000 
 2672              	.LVL314:
 2673 10bc 93071000 		li	a5,1
 2674 10c0 17070000 		sb	a5,_ZGVZN11BuddySystem11getInstanceEPviE2bs,a4
 2674      2300F700 
 2675 10c8 6F004003 		j	.L128
 2676              	.LVL315:
 2677              	.L127:
 2678              	.LBE146:
 2679              	.LBE145:
 328:src/Slab.cpp  ****         cache = cache->next;
 2680              		.loc 1 328 9 is_stmt 1
 329:src/Slab.cpp  ****     }
 2681              		.loc 1 329 9
 328:src/Slab.cpp  ****         cache = cache->next;
 2682              		.loc 1 328 20 is_stmt 0
 2683 10cc 13890700 		mv	s2,a5
 329:src/Slab.cpp  ****     }
 2684              		.loc 1 329 15
 2685 10d0 83B78706 		ld	a5,104(a5)
 2686              	.LVL316:
 2687              	.L129:
GAS LISTING /tmp/ccGVpxtD.s 			page 67


 319:src/Slab.cpp  ****         if((size_t)cache == addr){
 2688              		.loc 1 319 5 is_stmt 1
 319:src/Slab.cpp  ****         if((size_t)cache == addr){
 2689              		.loc 1 319 11
 2690 10d4 63820704 		beqz	a5,.L130
 320:src/Slab.cpp  ****             if(prev_cache){
 2691              		.loc 1 320 9
 320:src/Slab.cpp  ****             if(prev_cache){
 2692              		.loc 1 320 26 is_stmt 0
 2693 10d8 93840700 		mv	s1,a5
 320:src/Slab.cpp  ****             if(prev_cache){
 2694              		.loc 1 320 9
 2695 10dc E39847FF 		bne	a5,s4,.L127
 321:src/Slab.cpp  ****                 prev_cache->next = cache->next;
 2696              		.loc 1 321 13 is_stmt 1
 2697 10e0 E30609FE 		beqz	s2,.L127
 322:src/Slab.cpp  ****                 cache->next = nullptr;
 2698              		.loc 1 322 17
 322:src/Slab.cpp  ****                 cache->next = nullptr;
 2699              		.loc 1 322 43 is_stmt 0
 2700 10e4 03B78706 		ld	a4,104(a5)
 322:src/Slab.cpp  ****                 cache->next = nullptr;
 2701              		.loc 1 322 34
 2702 10e8 2334E906 		sd	a4,104(s2)
 323:src/Slab.cpp  ****                 BuddySystem::getInstance().buddyFree((size_t)cache);
 2703              		.loc 1 323 17 is_stmt 1
 323:src/Slab.cpp  ****                 BuddySystem::getInstance().buddyFree((size_t)cache);
 2704              		.loc 1 323 29 is_stmt 0
 2705 10ec 23B40706 		sd	zero,104(a5)
 324:src/Slab.cpp  ****                 return 0;
 2706              		.loc 1 324 17 is_stmt 1
 2707              	.LVL317:
 2708              	.LBB148:
 2709              	.LBB147:
  17:src/../h/../h/Buddy.h ****         if(block_num != 0 && space != nullptr){
 2710              		.loc 2 17 9
  17:src/../h/../h/Buddy.h ****         if(block_num != 0 && space != nullptr){
 2711              		.loc 2 17 28 is_stmt 0
 2712 10f0 97070000 		lbu	a5,_ZGVZN11BuddySystem11getInstanceEPviE2bs
 2712      83C70700 
 2713              	.LVL318:
 2714 10f8 E38A07FA 		beqz	a5,.L134
 2715              	.L128:
  18:src/../h/../h/Buddy.h ****             bs.buddyHeapStart = (size_t)space;
 2716              		.loc 2 18 9 is_stmt 1
 2717              		.loc 2 23 9
 2718              	.LVL319:
 2719              	.LBE147:
 2720              	.LBE148:
 324:src/Slab.cpp  ****                 return 0;
 2721              		.loc 1 324 53 is_stmt 0
 2722 10fc 93850400 		mv	a1,s1
 2723 1100 17050000 		lla	a0,_ZZN11BuddySystem11getInstanceEPviE2bs
 2723      13050500 
 2724 1108 97000000 		call	_ZN11BuddySystem9buddyFreeEm@plt
 2724      E7800000 
 2725              	.LVL320:
GAS LISTING /tmp/ccGVpxtD.s 			page 68


 325:src/Slab.cpp  ****             }
 2726              		.loc 1 325 17 is_stmt 1
 325:src/Slab.cpp  ****             }
 2727              		.loc 1 325 24 is_stmt 0
 2728 1110 13050000 		li	a0,0
 2729 1114 6F008000 		j	.L126
 2730              	.LVL321:
 2731              	.L130:
 331:src/Slab.cpp  **** }
 2732              		.loc 1 331 13
 2733 1118 1305F0FF 		li	a0,-1
 2734              	.LVL322:
 2735              	.L126:
 332:src/Slab.cpp  **** 
 2736              		.loc 1 332 1
 2737 111c 83308102 		ld	ra,40(sp)
 2738              		.cfi_restore 1
 2739 1120 03340102 		ld	s0,32(sp)
 2740              		.cfi_restore 8
 2741              		.cfi_def_cfa 2, 48
 2742 1124 83348101 		ld	s1,24(sp)
 2743              		.cfi_restore 9
 2744 1128 03390101 		ld	s2,16(sp)
 2745              		.cfi_restore 18
 2746              	.LVL323:
 2747 112c 83398100 		ld	s3,8(sp)
 2748              		.cfi_restore 19
 2749 1130 033A0100 		ld	s4,0(sp)
 2750              		.cfi_restore 20
 2751              	.LVL324:
 2752 1134 13010103 		addi	sp,sp,48
 2753              		.cfi_def_cfa_offset 0
 2754 1138 67800000 		jr	ra
 2755              		.cfi_endproc
 2756              	.LFE49:
 2758              		.globl	_ZN12kmem_cache_s4headE
 2759              		.weak	_ZGVZN11BuddySystem11getInstanceEPviE2bs
 2760              		.section	.bss._ZGVZN11BuddySystem11getInstanceEPviE2bs,"awG",@nobits,_ZGVZN11BuddySystem11getInsta
 2761              		.align	3
 2764              	_ZGVZN11BuddySystem11getInstanceEPviE2bs:
 2765 0000 00000000 		.zero	8
 2765      00000000 
 2766              		.weak	_ZZN11BuddySystem11getInstanceEPviE2bs
 2767              		.section	.bss._ZZN11BuddySystem11getInstanceEPviE2bs,"awG",@nobits,_ZZN11BuddySystem11getInstanceE
 2768              		.align	3
 2771              	_ZZN11BuddySystem11getInstanceEPviE2bs:
 2772 0000 00000000 		.zero	344
 2772      00000000 
 2772      00000000 
 2772      00000000 
 2772      00000000 
 2773              		.bss
 2774              		.align	3
 2775              		.set	.LANCHOR0,. + 0
 2778              	_ZN12kmem_cache_s4headE:
 2779 0000 00000000 		.zero	8
 2779      00000000 
GAS LISTING /tmp/ccGVpxtD.s 			page 69


 2780              		.text
 2781              	.Letext0:
 2782              		.file 4 "src/../h/../lib/hw.h"
 2783              		.file 5 "src/../test/../h/syscall_c.h"
 2784              		.file 6 "src/../test/printing.hpp"
 2785              		.file 7 "src/../h/../h/String.h"
GAS LISTING /tmp/ccGVpxtD.s 			page 70


DEFINED SYMBOLS
                            *ABS*:0000000000000000 Slab.cpp
     /tmp/ccGVpxtD.s:9      .text:0000000000000000 _ZN12kmem_cache_s16create_free_slabEv
     /tmp/ccGVpxtD.s:13     .text:0000000000000000 .L0 
     /tmp/ccGVpxtD.s:15     .text:0000000000000000 .L0 
     /tmp/ccGVpxtD.s:16     .text:0000000000000004 .L0 
     /tmp/ccGVpxtD.s:23     .text:000000000000001c .L0 
     /tmp/ccGVpxtD.s:24     .text:000000000000001c .L0 
     /tmp/ccGVpxtD.s:25     .text:000000000000001c .L0 
     /tmp/ccGVpxtD.s:26     .text:000000000000001c .L0 
     /tmp/ccGVpxtD.s:27     .text:000000000000001c .L0 
     /tmp/ccGVpxtD.s:28     .text:000000000000001c .L0 
     /tmp/ccGVpxtD.s:30     .text:0000000000000020 .L0 
     /tmp/ccGVpxtD.s:37     .text:0000000000000024 .L0 
     /tmp/ccGVpxtD.s:38     .text:0000000000000024 .L0 
     /tmp/ccGVpxtD.s:2764   .bss._ZGVZN11BuddySystem11getInstanceEPviE2bs:0000000000000000 _ZGVZN11BuddySystem11getInstanceEPviE2bs
     /tmp/ccGVpxtD.s:39     .text:0000000000000024 .L0 
     /tmp/ccGVpxtD.s:44     .text:0000000000000030 .L0 
     /tmp/ccGVpxtD.s:47     .text:0000000000000030 .L0 
     /tmp/ccGVpxtD.s:48     .text:0000000000000030 .L0 
     /tmp/ccGVpxtD.s:50     .text:0000000000000034 .L0 
     /tmp/ccGVpxtD.s:52     .text:0000000000000038 .L0 
     /tmp/ccGVpxtD.s:55     .text:0000000000000040 .L0 
     /tmp/ccGVpxtD.s:2771   .bss._ZZN11BuddySystem11getInstanceEPviE2bs:0000000000000000 _ZZN11BuddySystem11getInstanceEPviE2bs
     /tmp/ccGVpxtD.s:62     .text:0000000000000058 .L0 
     /tmp/ccGVpxtD.s:63     .text:0000000000000058 .L0 
     /tmp/ccGVpxtD.s:65     .text:000000000000005c .L0 
     /tmp/ccGVpxtD.s:66     .text:000000000000005c .L0 
     /tmp/ccGVpxtD.s:68     .text:0000000000000060 .L0 
     /tmp/ccGVpxtD.s:69     .text:0000000000000060 .L0 
     /tmp/ccGVpxtD.s:71     .text:0000000000000064 .L0 
     /tmp/ccGVpxtD.s:72     .text:0000000000000064 .L0 
     /tmp/ccGVpxtD.s:74     .text:0000000000000068 .L0 
     /tmp/ccGVpxtD.s:76     .text:000000000000006c .L0 
     /tmp/ccGVpxtD.s:79     .text:0000000000000074 .L0 
     /tmp/ccGVpxtD.s:83     .text:0000000000000078 .L0 
     /tmp/ccGVpxtD.s:84     .text:0000000000000078 .L0 
     /tmp/ccGVpxtD.s:88     .text:000000000000007c .L0 
     /tmp/ccGVpxtD.s:89     .text:000000000000007c .L0 
     /tmp/ccGVpxtD.s:91     .text:0000000000000080 .L0 
     /tmp/ccGVpxtD.s:93     .text:0000000000000084 .L0 
     /tmp/ccGVpxtD.s:94     .text:0000000000000084 .L0 
     /tmp/ccGVpxtD.s:99     .text:0000000000000094 .L0 
     /tmp/ccGVpxtD.s:108    .text:000000000000009c .L0 
     /tmp/ccGVpxtD.s:120    .text:00000000000000bc .L0 
     /tmp/ccGVpxtD.s:121    .text:00000000000000bc .L0 
     /tmp/ccGVpxtD.s:123    .text:00000000000000c0 .L0 
     /tmp/ccGVpxtD.s:127    .text:00000000000000c4 .L0 
     /tmp/ccGVpxtD.s:131    .text:00000000000000c8 .L0 
     /tmp/ccGVpxtD.s:132    .text:00000000000000c8 .L0 
     /tmp/ccGVpxtD.s:134    .text:00000000000000cc .L0 
     /tmp/ccGVpxtD.s:136    .text:00000000000000d0 .L0 
     /tmp/ccGVpxtD.s:137    .text:00000000000000d0 .L0 
     /tmp/ccGVpxtD.s:139    .text:00000000000000d4 .L0 
     /tmp/ccGVpxtD.s:143    .text:00000000000000dc .L0 
     /tmp/ccGVpxtD.s:144    .text:00000000000000dc .L0 
     /tmp/ccGVpxtD.s:146    .text:00000000000000e0 .L0 
GAS LISTING /tmp/ccGVpxtD.s 			page 71


     /tmp/ccGVpxtD.s:149    .text:00000000000000e4 .L0 
     /tmp/ccGVpxtD.s:158    .text:00000000000000ec .L0 
     /tmp/ccGVpxtD.s:159    .text:00000000000000ec .L0 
     /tmp/ccGVpxtD.s:161    .text:00000000000000f0 .L0 
     /tmp/ccGVpxtD.s:162    .text:00000000000000f0 .L0 
     /tmp/ccGVpxtD.s:164    .text:00000000000000f4 .L0 
     /tmp/ccGVpxtD.s:167    .text:00000000000000fc .L0 
     /tmp/ccGVpxtD.s:168    .text:0000000000000100 .L0 
     /tmp/ccGVpxtD.s:170    .text:0000000000000104 .L0 
     /tmp/ccGVpxtD.s:171    .text:0000000000000104 .L0 
     /tmp/ccGVpxtD.s:173    .text:0000000000000108 .L0 
     /tmp/ccGVpxtD.s:176    .text:000000000000010c .L0 
     /tmp/ccGVpxtD.s:178    .text:0000000000000110 .L0 
     /tmp/ccGVpxtD.s:180    .text:0000000000000114 .L0 
     /tmp/ccGVpxtD.s:183    .text:0000000000000118 .L0 
     /tmp/ccGVpxtD.s:185    .text:000000000000011c .L0 
     /tmp/ccGVpxtD.s:191    .text:000000000000011c _ZN12kmem_cache_s17kmem_cache_createEPKcmPFvPvES4_
     /tmp/ccGVpxtD.s:194    .text:000000000000011c .L0 
     /tmp/ccGVpxtD.s:196    .text:000000000000011c .L0 
     /tmp/ccGVpxtD.s:197    .text:0000000000000120 .L0 
     /tmp/ccGVpxtD.s:205    .text:000000000000013c .L0 
     /tmp/ccGVpxtD.s:206    .text:000000000000013c .L0 
     /tmp/ccGVpxtD.s:207    .text:000000000000013c .L0 
     /tmp/ccGVpxtD.s:208    .text:000000000000013c .L0 
     /tmp/ccGVpxtD.s:209    .text:000000000000013c .L0 
     /tmp/ccGVpxtD.s:210    .text:000000000000013c .L0 
     /tmp/ccGVpxtD.s:211    .text:000000000000013c .L0 
     /tmp/ccGVpxtD.s:213    .text:0000000000000140 .L0 
     /tmp/ccGVpxtD.s:220    .text:0000000000000150 .L0 
     /tmp/ccGVpxtD.s:221    .text:0000000000000150 .L0 
     /tmp/ccGVpxtD.s:225    .text:0000000000000158 .L0 
     /tmp/ccGVpxtD.s:227    .text:000000000000015c .L0 
     /tmp/ccGVpxtD.s:228    .text:000000000000015c .L0 
     /tmp/ccGVpxtD.s:230    .text:0000000000000160 .L0 
     /tmp/ccGVpxtD.s:232    .text:0000000000000164 .L0 
     /tmp/ccGVpxtD.s:233    .text:0000000000000164 .L0 
     /tmp/ccGVpxtD.s:236    .text:0000000000000168 .L0 
     /tmp/ccGVpxtD.s:243    .text:000000000000016c .L0 
     /tmp/ccGVpxtD.s:244    .text:000000000000016c .L0 
     /tmp/ccGVpxtD.s:245    .text:000000000000016c .L0 
     /tmp/ccGVpxtD.s:251    .text:0000000000000178 .L0 
     /tmp/ccGVpxtD.s:254    .text:0000000000000178 .L0 
     /tmp/ccGVpxtD.s:255    .text:0000000000000178 .L0 
     /tmp/ccGVpxtD.s:263    .text:0000000000000194 .L0 
     /tmp/ccGVpxtD.s:264    .text:0000000000000194 .L0 
     /tmp/ccGVpxtD.s:266    .text:0000000000000198 .L0 
     /tmp/ccGVpxtD.s:267    .text:0000000000000198 .L0 
     /tmp/ccGVpxtD.s:269    .text:000000000000019c .L0 
     /tmp/ccGVpxtD.s:270    .text:000000000000019c .L0 
     /tmp/ccGVpxtD.s:272    .text:00000000000001a0 .L0 
     /tmp/ccGVpxtD.s:273    .text:00000000000001a0 .L0 
     /tmp/ccGVpxtD.s:275    .text:00000000000001a4 .L0 
     /tmp/ccGVpxtD.s:276    .text:00000000000001a4 .L0 
     /tmp/ccGVpxtD.s:278    .text:00000000000001a8 .L0 
     /tmp/ccGVpxtD.s:280    .text:00000000000001ac .L0 
     /tmp/ccGVpxtD.s:282    .text:00000000000001b0 .L0 
     /tmp/ccGVpxtD.s:283    .text:00000000000001b0 .L0 
GAS LISTING /tmp/ccGVpxtD.s 			page 72


     /tmp/ccGVpxtD.s:285    .text:00000000000001b4 .L0 
     /tmp/ccGVpxtD.s:287    .text:00000000000001b8 .L0 
     /tmp/ccGVpxtD.s:289    .text:00000000000001bc .L0 
     /tmp/ccGVpxtD.s:291    .text:00000000000001c0 .L0 
     /tmp/ccGVpxtD.s:293    .text:00000000000001c4 .L0 
     /tmp/ccGVpxtD.s:294    .text:00000000000001c4 .L0 
     /tmp/ccGVpxtD.s:296    .text:00000000000001c8 .L0 
     /tmp/ccGVpxtD.s:297    .text:00000000000001c8 .L0 
     /tmp/ccGVpxtD.s:300    .text:00000000000001d0 .L0 
     /tmp/ccGVpxtD.s:301    .text:00000000000001d0 .L0 
     /tmp/ccGVpxtD.s:306    .text:00000000000001d8 .L0 
     /tmp/ccGVpxtD.s:307    .text:00000000000001d8 .L0 
     /tmp/ccGVpxtD.s:308    .text:00000000000001d8 .L0 
     /tmp/ccGVpxtD.s:309    .text:00000000000001d8 .L0 
     /tmp/ccGVpxtD.s:311    .text:00000000000001dc .L0 
     /tmp/ccGVpxtD.s:313    .text:00000000000001e0 .L0 
     /tmp/ccGVpxtD.s:315    .text:00000000000001e4 .L0 
     /tmp/ccGVpxtD.s:317    .text:00000000000001e8 .L0 
     /tmp/ccGVpxtD.s:318    .text:00000000000001e8 .L0 
     /tmp/ccGVpxtD.s:321    .text:00000000000001f0 .L0 
     /tmp/ccGVpxtD.s:327    .text:00000000000001f4 .L0 
     /tmp/ccGVpxtD.s:339    .text:0000000000000214 .L0 
     /tmp/ccGVpxtD.s:343    .text:0000000000000218 .L0 
     /tmp/ccGVpxtD.s:344    .text:0000000000000218 .L0 
     /tmp/ccGVpxtD.s:345    .text:0000000000000218 .L0 
     /tmp/ccGVpxtD.s:348    .text:0000000000000220 .L0 
     /tmp/ccGVpxtD.s:350    .text:0000000000000224 .L0 
     /tmp/ccGVpxtD.s:357    .text:000000000000023c .L0 
     /tmp/ccGVpxtD.s:360    .text:0000000000000240 .L0 
     /tmp/ccGVpxtD.s:361    .text:0000000000000240 .L0 
     /tmp/ccGVpxtD.s:364    .text:0000000000000244 .L0 
     /tmp/ccGVpxtD.s:366    .text:0000000000000248 .L0 
     /tmp/ccGVpxtD.s:367    .text:0000000000000248 .L0 
     /tmp/ccGVpxtD.s:373    .text:0000000000000250 .L0 
     /tmp/ccGVpxtD.s:375    .text:0000000000000254 .L0 
     /tmp/ccGVpxtD.s:380    .text:000000000000025c .L0 
     /tmp/ccGVpxtD.s:381    .text:000000000000025c .L0 
     /tmp/ccGVpxtD.s:383    .text:0000000000000260 .L0 
     /tmp/ccGVpxtD.s:384    .text:0000000000000260 .L0 
     /tmp/ccGVpxtD.s:386    .text:0000000000000264 .L0 
     /tmp/ccGVpxtD.s:387    .text:0000000000000264 .L0 
     /tmp/ccGVpxtD.s:391    .text:0000000000000270 .L0 
     /tmp/ccGVpxtD.s:392    .text:0000000000000270 .L0 
     /tmp/ccGVpxtD.s:396    .text:0000000000000280 .L0 
     /tmp/ccGVpxtD.s:397    .text:0000000000000280 .L0 
     /tmp/ccGVpxtD.s:401    .text:0000000000000284 .L0 
     /tmp/ccGVpxtD.s:402    .text:0000000000000284 .L0 
     /tmp/ccGVpxtD.s:404    .text:000000000000028c .L0 
     /tmp/ccGVpxtD.s:405    .text:000000000000028c .L0 
     /tmp/ccGVpxtD.s:407    .text:0000000000000290 .L0 
     /tmp/ccGVpxtD.s:408    .text:0000000000000290 .L0 
     /tmp/ccGVpxtD.s:410    .text:0000000000000294 .L0 
     /tmp/ccGVpxtD.s:412    .text:0000000000000298 .L0 
     /tmp/ccGVpxtD.s:415    .text:000000000000029c .L0 
     /tmp/ccGVpxtD.s:418    .text:00000000000002a0 .L0 
     /tmp/ccGVpxtD.s:421    .text:00000000000002a4 .L0 
     /tmp/ccGVpxtD.s:424    .text:00000000000002a8 .L0 
GAS LISTING /tmp/ccGVpxtD.s 			page 73


     /tmp/ccGVpxtD.s:428    .text:00000000000002ac .L0 
     /tmp/ccGVpxtD.s:431    .text:00000000000002ac .L0 
     /tmp/ccGVpxtD.s:434    .text:00000000000002b4 .L0 
     /tmp/ccGVpxtD.s:440    .text:00000000000002b4 _ZN4Slab8set_maskEib
     /tmp/ccGVpxtD.s:443    .text:00000000000002b4 .L0 
     /tmp/ccGVpxtD.s:445    .text:00000000000002b4 .L0 
     /tmp/ccGVpxtD.s:446    .text:00000000000002b8 .L0 
     /tmp/ccGVpxtD.s:448    .text:00000000000002bc .L0 
     /tmp/ccGVpxtD.s:450    .text:00000000000002c0 .L0 
     /tmp/ccGVpxtD.s:452    .text:00000000000002c0 .L0 
     /tmp/ccGVpxtD.s:453    .text:00000000000002c0 .L0 
     /tmp/ccGVpxtD.s:456    .text:00000000000002c4 .L0 
     /tmp/ccGVpxtD.s:457    .text:00000000000002c4 .L0 
     /tmp/ccGVpxtD.s:460    .text:00000000000002c8 .L0 
     /tmp/ccGVpxtD.s:462    .text:00000000000002c8 .L0 
     /tmp/ccGVpxtD.s:463    .text:00000000000002c8 .L0 
     /tmp/ccGVpxtD.s:466    .text:00000000000002cc .L0 
     /tmp/ccGVpxtD.s:471    .text:00000000000002d0 .L0 
     /tmp/ccGVpxtD.s:472    .text:00000000000002d0 .L0 
     /tmp/ccGVpxtD.s:475    .text:00000000000002d8 .L0 
     /tmp/ccGVpxtD.s:477    .text:00000000000002dc .L0 
     /tmp/ccGVpxtD.s:478    .text:00000000000002dc .L0 
     /tmp/ccGVpxtD.s:481    .text:00000000000002e0 .L0 
     /tmp/ccGVpxtD.s:488    .text:00000000000002e8 .L0 
     /tmp/ccGVpxtD.s:490    .text:00000000000002ec .L0 
     /tmp/ccGVpxtD.s:491    .text:00000000000002ec .L0 
     /tmp/ccGVpxtD.s:503    .text:0000000000000304 .L0 
     /tmp/ccGVpxtD.s:504    .text:0000000000000308 .L0 
     /tmp/ccGVpxtD.s:505    .text:0000000000000308 .L0 
     /tmp/ccGVpxtD.s:506    .text:0000000000000308 .L0 
     /tmp/ccGVpxtD.s:508    .text:000000000000030c .L0 
     /tmp/ccGVpxtD.s:512    .text:0000000000000310 .L0 
     /tmp/ccGVpxtD.s:514    .text:0000000000000310 .L0 
     /tmp/ccGVpxtD.s:515    .text:0000000000000310 .L0 
     /tmp/ccGVpxtD.s:518    .text:0000000000000314 .L0 
     /tmp/ccGVpxtD.s:519    .text:0000000000000314 .L0 
     /tmp/ccGVpxtD.s:530    .text:000000000000032c .L0 
     /tmp/ccGVpxtD.s:531    .text:0000000000000330 .L0 
     /tmp/ccGVpxtD.s:537    .text:0000000000000330 _ZN4Slab9is_activeEi
     /tmp/ccGVpxtD.s:540    .text:0000000000000330 .L0 
     /tmp/ccGVpxtD.s:542    .text:0000000000000330 .L0 
     /tmp/ccGVpxtD.s:543    .text:0000000000000334 .L0 
     /tmp/ccGVpxtD.s:545    .text:0000000000000338 .L0 
     /tmp/ccGVpxtD.s:547    .text:000000000000033c .L0 
     /tmp/ccGVpxtD.s:549    .text:000000000000033c .L0 
     /tmp/ccGVpxtD.s:550    .text:000000000000033c .L0 
     /tmp/ccGVpxtD.s:553    .text:0000000000000340 .L0 
     /tmp/ccGVpxtD.s:554    .text:0000000000000340 .L0 
     /tmp/ccGVpxtD.s:557    .text:0000000000000344 .L0 
     /tmp/ccGVpxtD.s:559    .text:0000000000000344 .L0 
     /tmp/ccGVpxtD.s:560    .text:0000000000000344 .L0 
     /tmp/ccGVpxtD.s:563    .text:0000000000000348 .L0 
     /tmp/ccGVpxtD.s:568    .text:000000000000034c .L0 
     /tmp/ccGVpxtD.s:569    .text:000000000000034c .L0 
     /tmp/ccGVpxtD.s:572    .text:0000000000000354 .L0 
     /tmp/ccGVpxtD.s:574    .text:0000000000000358 .L0 
     /tmp/ccGVpxtD.s:575    .text:0000000000000358 .L0 
GAS LISTING /tmp/ccGVpxtD.s 			page 74


     /tmp/ccGVpxtD.s:578    .text:000000000000035c .L0 
     /tmp/ccGVpxtD.s:585    .text:0000000000000364 .L0 
     /tmp/ccGVpxtD.s:586    .text:0000000000000364 .L0 
     /tmp/ccGVpxtD.s:592    .text:0000000000000374 .L0 
     /tmp/ccGVpxtD.s:594    .text:0000000000000378 .L0 
     /tmp/ccGVpxtD.s:596    .text:0000000000000380 .L0 
     /tmp/ccGVpxtD.s:597    .text:0000000000000380 .L0 
     /tmp/ccGVpxtD.s:599    .text:0000000000000384 .L0 
     /tmp/ccGVpxtD.s:601    .text:0000000000000388 .L0 
     /tmp/ccGVpxtD.s:607    .text:0000000000000388 _ZN12kmem_cache_s15kmem_cache_freeEPv
     /tmp/ccGVpxtD.s:610    .text:0000000000000388 .L0 
     /tmp/ccGVpxtD.s:612    .text:0000000000000388 .L0 
     /tmp/ccGVpxtD.s:613    .text:000000000000038c .L0 
     /tmp/ccGVpxtD.s:620    .text:00000000000003a4 .L0 
     /tmp/ccGVpxtD.s:621    .text:00000000000003a4 .L0 
     /tmp/ccGVpxtD.s:622    .text:00000000000003a4 .L0 
     /tmp/ccGVpxtD.s:623    .text:00000000000003a4 .L0 
     /tmp/ccGVpxtD.s:624    .text:00000000000003a4 .L0 
     /tmp/ccGVpxtD.s:625    .text:00000000000003a4 .L0 
     /tmp/ccGVpxtD.s:627    .text:00000000000003a8 .L0 
     /tmp/ccGVpxtD.s:632    .text:00000000000003b0 .L0 
     /tmp/ccGVpxtD.s:634    .text:00000000000003b0 .L0 
     /tmp/ccGVpxtD.s:635    .text:00000000000003b0 .L0 
     /tmp/ccGVpxtD.s:639    .text:00000000000003b4 .L0 
     /tmp/ccGVpxtD.s:648    .text:00000000000003bc .L0 
     /tmp/ccGVpxtD.s:649    .text:00000000000003bc .L0 
     /tmp/ccGVpxtD.s:652    .text:00000000000003c0 .L0 
     /tmp/ccGVpxtD.s:661    .text:00000000000003c8 .L0 
     /tmp/ccGVpxtD.s:663    .text:00000000000003c8 .L0 
     /tmp/ccGVpxtD.s:664    .text:00000000000003c8 .L0 
     /tmp/ccGVpxtD.s:667    .text:00000000000003cc .L0 
     /tmp/ccGVpxtD.s:671    .text:00000000000003d0 .L0 
     /tmp/ccGVpxtD.s:675    .text:00000000000003d4 .L0 
     /tmp/ccGVpxtD.s:677    .text:00000000000003d8 .L0 
     /tmp/ccGVpxtD.s:679    .text:00000000000003dc .L0 
     /tmp/ccGVpxtD.s:681    .text:00000000000003e0 .L0 
     /tmp/ccGVpxtD.s:683    .text:00000000000003e4 .L0 
     /tmp/ccGVpxtD.s:685    .text:00000000000003e8 .L0 
     /tmp/ccGVpxtD.s:688    .text:00000000000003ec .L0 
     /tmp/ccGVpxtD.s:689    .text:00000000000003ec .L0 
     /tmp/ccGVpxtD.s:692    .text:00000000000003f0 .L0 
     /tmp/ccGVpxtD.s:694    .text:00000000000003f4 .L0 
     /tmp/ccGVpxtD.s:696    .text:00000000000003f8 .L0 
     /tmp/ccGVpxtD.s:699    .text:00000000000003fc .L0 
     /tmp/ccGVpxtD.s:700    .text:00000000000003fc .L0 
     /tmp/ccGVpxtD.s:708    .text:0000000000000410 .L0 
     /tmp/ccGVpxtD.s:709    .text:0000000000000410 .L0 
     /tmp/ccGVpxtD.s:711    .text:0000000000000414 .L0 
     /tmp/ccGVpxtD.s:713    .text:0000000000000418 .L0 
     /tmp/ccGVpxtD.s:714    .text:0000000000000418 .L0 
     /tmp/ccGVpxtD.s:719    .text:0000000000000420 .L0 
     /tmp/ccGVpxtD.s:720    .text:0000000000000420 .L0 
     /tmp/ccGVpxtD.s:722    .text:0000000000000424 .L0 
     /tmp/ccGVpxtD.s:724    .text:0000000000000428 .L0 
     /tmp/ccGVpxtD.s:725    .text:0000000000000428 .L0 
     /tmp/ccGVpxtD.s:730    .text:0000000000000430 .L0 
     /tmp/ccGVpxtD.s:731    .text:0000000000000430 .L0 
GAS LISTING /tmp/ccGVpxtD.s 			page 75


     /tmp/ccGVpxtD.s:733    .text:0000000000000434 .L0 
     /tmp/ccGVpxtD.s:740    .text:000000000000043c .L0 
     /tmp/ccGVpxtD.s:741    .text:000000000000043c .L0 
     /tmp/ccGVpxtD.s:743    .text:0000000000000440 .L0 
     /tmp/ccGVpxtD.s:753    .text:0000000000000448 .L0 
     /tmp/ccGVpxtD.s:758    .text:0000000000000448 .L0 
     /tmp/ccGVpxtD.s:759    .text:0000000000000448 .L0 
     /tmp/ccGVpxtD.s:761    .text:000000000000044c .L0 
     /tmp/ccGVpxtD.s:763    .text:0000000000000450 .L0 
     /tmp/ccGVpxtD.s:764    .text:0000000000000450 .L0 
     /tmp/ccGVpxtD.s:767    .text:0000000000000454 .L0 
     /tmp/ccGVpxtD.s:771    .text:0000000000000458 .L0 
     /tmp/ccGVpxtD.s:772    .text:0000000000000458 .L0 
     /tmp/ccGVpxtD.s:774    .text:000000000000045c .L0 
     /tmp/ccGVpxtD.s:776    .text:0000000000000460 .L0 
     /tmp/ccGVpxtD.s:777    .text:0000000000000460 .L0 
     /tmp/ccGVpxtD.s:779    .text:0000000000000464 .L0 
     /tmp/ccGVpxtD.s:780    .text:0000000000000464 .L0 
     /tmp/ccGVpxtD.s:782    .text:0000000000000468 .L0 
     /tmp/ccGVpxtD.s:785    .text:0000000000000470 .L0 
     /tmp/ccGVpxtD.s:786    .text:0000000000000470 .L0 
     /tmp/ccGVpxtD.s:788    .text:0000000000000474 .L0 
     /tmp/ccGVpxtD.s:792    .text:000000000000047c .L0 
     /tmp/ccGVpxtD.s:793    .text:000000000000047c .L0 
     /tmp/ccGVpxtD.s:802    .text:0000000000000484 .L0 
     /tmp/ccGVpxtD.s:804    .text:0000000000000484 .L0 
     /tmp/ccGVpxtD.s:805    .text:0000000000000484 .L0 
     /tmp/ccGVpxtD.s:814    .text:000000000000048c .L0 
     /tmp/ccGVpxtD.s:815    .text:000000000000048c .L0 
     /tmp/ccGVpxtD.s:817    .text:0000000000000490 .L0 
     /tmp/ccGVpxtD.s:825    .text:0000000000000498 .L0 
     /tmp/ccGVpxtD.s:827    .text:0000000000000498 .L0 
     /tmp/ccGVpxtD.s:828    .text:0000000000000498 .L0 
     /tmp/ccGVpxtD.s:831    .text:000000000000049c .L0 
     /tmp/ccGVpxtD.s:835    .text:00000000000004a0 .L0 
     /tmp/ccGVpxtD.s:839    .text:00000000000004a4 .L0 
     /tmp/ccGVpxtD.s:841    .text:00000000000004a8 .L0 
     /tmp/ccGVpxtD.s:843    .text:00000000000004ac .L0 
     /tmp/ccGVpxtD.s:845    .text:00000000000004b0 .L0 
     /tmp/ccGVpxtD.s:847    .text:00000000000004b4 .L0 
     /tmp/ccGVpxtD.s:849    .text:00000000000004b8 .L0 
     /tmp/ccGVpxtD.s:852    .text:00000000000004bc .L0 
     /tmp/ccGVpxtD.s:853    .text:00000000000004bc .L0 
     /tmp/ccGVpxtD.s:856    .text:00000000000004c0 .L0 
     /tmp/ccGVpxtD.s:858    .text:00000000000004c4 .L0 
     /tmp/ccGVpxtD.s:860    .text:00000000000004c8 .L0 
     /tmp/ccGVpxtD.s:863    .text:00000000000004cc .L0 
     /tmp/ccGVpxtD.s:864    .text:00000000000004cc .L0 
     /tmp/ccGVpxtD.s:872    .text:00000000000004e0 .L0 
     /tmp/ccGVpxtD.s:873    .text:00000000000004e0 .L0 
     /tmp/ccGVpxtD.s:875    .text:00000000000004e4 .L0 
     /tmp/ccGVpxtD.s:877    .text:00000000000004e8 .L0 
     /tmp/ccGVpxtD.s:878    .text:00000000000004e8 .L0 
     /tmp/ccGVpxtD.s:883    .text:00000000000004f0 .L0 
     /tmp/ccGVpxtD.s:884    .text:00000000000004f0 .L0 
     /tmp/ccGVpxtD.s:886    .text:00000000000004f4 .L0 
     /tmp/ccGVpxtD.s:888    .text:00000000000004f8 .L0 
GAS LISTING /tmp/ccGVpxtD.s 			page 76


     /tmp/ccGVpxtD.s:889    .text:00000000000004f8 .L0 
     /tmp/ccGVpxtD.s:894    .text:0000000000000500 .L0 
     /tmp/ccGVpxtD.s:895    .text:0000000000000500 .L0 
     /tmp/ccGVpxtD.s:897    .text:0000000000000504 .L0 
     /tmp/ccGVpxtD.s:903    .text:000000000000050c .L0 
     /tmp/ccGVpxtD.s:904    .text:000000000000050c .L0 
     /tmp/ccGVpxtD.s:906    .text:0000000000000510 .L0 
     /tmp/ccGVpxtD.s:912    .text:0000000000000518 .L0 
     /tmp/ccGVpxtD.s:914    .text:000000000000051c .L0 
     /tmp/ccGVpxtD.s:915    .text:000000000000051c .L0 
     /tmp/ccGVpxtD.s:917    .text:0000000000000520 .L0 
     /tmp/ccGVpxtD.s:920    .text:0000000000000524 .L0 
     /tmp/ccGVpxtD.s:921    .text:0000000000000524 .L0 
     /tmp/ccGVpxtD.s:923    .text:0000000000000528 .L0 
     /tmp/ccGVpxtD.s:925    .text:000000000000052c .L0 
     /tmp/ccGVpxtD.s:926    .text:000000000000052c .L0 
     /tmp/ccGVpxtD.s:928    .text:0000000000000530 .L0 
     /tmp/ccGVpxtD.s:929    .text:0000000000000530 .L0 
     /tmp/ccGVpxtD.s:931    .text:0000000000000534 .L0 
     /tmp/ccGVpxtD.s:934    .text:000000000000053c .L0 
     /tmp/ccGVpxtD.s:935    .text:000000000000053c .L0 
     /tmp/ccGVpxtD.s:937    .text:0000000000000540 .L0 
     /tmp/ccGVpxtD.s:940    .text:0000000000000548 .L0 
     /tmp/ccGVpxtD.s:941    .text:0000000000000548 .L0 
     /tmp/ccGVpxtD.s:950    .text:0000000000000550 .L0 
     /tmp/ccGVpxtD.s:954    .text:0000000000000554 .L0 
     /tmp/ccGVpxtD.s:955    .text:0000000000000558 .L0 
     /tmp/ccGVpxtD.s:957    .text:000000000000055c .L0 
     /tmp/ccGVpxtD.s:958    .text:000000000000055c .L0 
     /tmp/ccGVpxtD.s:960    .text:0000000000000560 .L0 
     /tmp/ccGVpxtD.s:962    .text:0000000000000564 .L0 
     /tmp/ccGVpxtD.s:964    .text:0000000000000568 .L0 
     /tmp/ccGVpxtD.s:967    .text:000000000000056c .L0 
     /tmp/ccGVpxtD.s:970    .text:0000000000000570 .L0 
     /tmp/ccGVpxtD.s:972    .text:0000000000000574 .L0 
     /tmp/ccGVpxtD.s:978    .text:0000000000000574 _ZN12kmem_cache_s20check_if_name_existsEPKc
     /tmp/ccGVpxtD.s:981    .text:0000000000000574 .L0 
     /tmp/ccGVpxtD.s:983    .text:0000000000000574 .L0 
     /tmp/ccGVpxtD.s:984    .text:0000000000000578 .L0 
     /tmp/ccGVpxtD.s:989    .text:0000000000000588 .L0 
     /tmp/ccGVpxtD.s:990    .text:0000000000000588 .L0 
     /tmp/ccGVpxtD.s:991    .text:0000000000000588 .L0 
     /tmp/ccGVpxtD.s:992    .text:0000000000000588 .L0 
     /tmp/ccGVpxtD.s:994    .text:000000000000058c .L0 
     /tmp/ccGVpxtD.s:998    .text:0000000000000590 .L0 
     /tmp/ccGVpxtD.s:999    .text:0000000000000590 .L0 
     /tmp/ccGVpxtD.s:1003   .text:0000000000000598 .L0 
     /tmp/ccGVpxtD.s:1005   .text:000000000000059c .L0 
     /tmp/ccGVpxtD.s:1006   .text:000000000000059c .L0 
     /tmp/ccGVpxtD.s:1011   .text:00000000000005ac .L0 
     /tmp/ccGVpxtD.s:1013   .text:00000000000005b0 .L0 
     /tmp/ccGVpxtD.s:1014   .text:00000000000005b0 .L0 
     /tmp/ccGVpxtD.s:1017   .text:00000000000005b4 .L0 
     /tmp/ccGVpxtD.s:1021   .text:00000000000005b8 .L0 
     /tmp/ccGVpxtD.s:1023   .text:00000000000005c0 .L0 
     /tmp/ccGVpxtD.s:1025   .text:00000000000005c4 .L0 
     /tmp/ccGVpxtD.s:1026   .text:00000000000005c4 .L0 
GAS LISTING /tmp/ccGVpxtD.s 			page 77


     /tmp/ccGVpxtD.s:1028   .text:00000000000005c8 .L0 
     /tmp/ccGVpxtD.s:1031   .text:00000000000005cc .L0 
     /tmp/ccGVpxtD.s:1034   .text:00000000000005d0 .L0 
     /tmp/ccGVpxtD.s:1036   .text:00000000000005d4 .L0 
     /tmp/ccGVpxtD.s:1042   .text:00000000000005d4 _ZN12kmem_cache_s3powEm
     /tmp/ccGVpxtD.s:1045   .text:00000000000005d4 .L0 
     /tmp/ccGVpxtD.s:1047   .text:00000000000005d4 .L0 
     /tmp/ccGVpxtD.s:1048   .text:00000000000005d8 .L0 
     /tmp/ccGVpxtD.s:1050   .text:00000000000005dc .L0 
     /tmp/ccGVpxtD.s:1052   .text:00000000000005e0 .L0 
     /tmp/ccGVpxtD.s:1056   .text:00000000000005e4 .L0 
     /tmp/ccGVpxtD.s:1058   .text:00000000000005e4 .L0 
     /tmp/ccGVpxtD.s:1059   .text:00000000000005e4 .L0 
     /tmp/ccGVpxtD.s:1062   .text:00000000000005e8 .L0 
     /tmp/ccGVpxtD.s:1067   .text:00000000000005ec .L0 
     /tmp/ccGVpxtD.s:1069   .text:00000000000005f0 .L0 
     /tmp/ccGVpxtD.s:1070   .text:00000000000005f0 .L0 
     /tmp/ccGVpxtD.s:1073   .text:00000000000005f4 .L0 
     /tmp/ccGVpxtD.s:1079   .text:00000000000005fc .L0 
     /tmp/ccGVpxtD.s:1080   .text:0000000000000600 .L0 
     /tmp/ccGVpxtD.s:1081   .text:0000000000000600 .L0 
     /tmp/ccGVpxtD.s:1083   .text:0000000000000604 .L0 
     /tmp/ccGVpxtD.s:1085   .text:0000000000000608 .L0 
     /tmp/ccGVpxtD.s:1091   .text:0000000000000608 _ZN12kmem_cache_s28is_small_buffer_size_correctEm
     /tmp/ccGVpxtD.s:1094   .text:0000000000000608 .L0 
     /tmp/ccGVpxtD.s:1096   .text:0000000000000608 .L0 
     /tmp/ccGVpxtD.s:1097   .text:000000000000060c .L0 
     /tmp/ccGVpxtD.s:1101   .text:0000000000000618 .L0 
     /tmp/ccGVpxtD.s:1102   .text:0000000000000618 .L0 
     /tmp/ccGVpxtD.s:1103   .text:0000000000000618 .L0 
     /tmp/ccGVpxtD.s:1105   .text:000000000000061c .L0 
     /tmp/ccGVpxtD.s:1109   .text:0000000000000620 .L0 
     /tmp/ccGVpxtD.s:1110   .text:0000000000000620 .L0 
     /tmp/ccGVpxtD.s:1111   .text:0000000000000620 .L0 
     /tmp/ccGVpxtD.s:1116   .text:000000000000062c .L0 
     /tmp/ccGVpxtD.s:1120   .text:0000000000000630 .L0 
     /tmp/ccGVpxtD.s:1121   .text:0000000000000630 .L0 
     /tmp/ccGVpxtD.s:1123   .text:0000000000000634 .L0 
     /tmp/ccGVpxtD.s:1124   .text:0000000000000634 .L0 
     /tmp/ccGVpxtD.s:1127   .text:0000000000000638 .L0 
     /tmp/ccGVpxtD.s:1128   .text:0000000000000638 .L0 
     /tmp/ccGVpxtD.s:1131   .text:000000000000063c .L0 
     /tmp/ccGVpxtD.s:1135   .text:0000000000000640 .L0 
     /tmp/ccGVpxtD.s:1138   .text:0000000000000648 .L0 
     /tmp/ccGVpxtD.s:1139   .text:0000000000000648 .L0 
     /tmp/ccGVpxtD.s:1143   .text:000000000000064c .L0 
     /tmp/ccGVpxtD.s:1144   .text:0000000000000650 .L0 
     /tmp/ccGVpxtD.s:1145   .text:0000000000000650 .L0 
     /tmp/ccGVpxtD.s:1147   .text:0000000000000654 .L0 
     /tmp/ccGVpxtD.s:1148   .text:0000000000000654 .L0 
     /tmp/ccGVpxtD.s:1150   .text:0000000000000658 .L0 
     /tmp/ccGVpxtD.s:1153   .text:000000000000065c .L0 
     /tmp/ccGVpxtD.s:1157   .text:0000000000000660 .L0 
     /tmp/ccGVpxtD.s:1159   .text:0000000000000660 .L0 
     /tmp/ccGVpxtD.s:1162   .text:0000000000000668 .L0 
     /tmp/ccGVpxtD.s:1168   .text:0000000000000668 _ZN12kmem_cache_s5kfreeEPKv
     /tmp/ccGVpxtD.s:1171   .text:0000000000000668 .L0 
GAS LISTING /tmp/ccGVpxtD.s 			page 78


     /tmp/ccGVpxtD.s:1173   .text:0000000000000668 .L0 
     /tmp/ccGVpxtD.s:1174   .text:000000000000066c .L0 
     /tmp/ccGVpxtD.s:1179   .text:000000000000067c .L0 
     /tmp/ccGVpxtD.s:1180   .text:000000000000067c .L0 
     /tmp/ccGVpxtD.s:1181   .text:000000000000067c .L0 
     /tmp/ccGVpxtD.s:1182   .text:000000000000067c .L0 
     /tmp/ccGVpxtD.s:1184   .text:0000000000000680 .L0 
     /tmp/ccGVpxtD.s:1188   .text:0000000000000684 .L0 
     /tmp/ccGVpxtD.s:1189   .text:0000000000000684 .L0 
     /tmp/ccGVpxtD.s:1193   .text:000000000000068c .L0 
     /tmp/ccGVpxtD.s:1195   .text:0000000000000690 .L0 
     /tmp/ccGVpxtD.s:1196   .text:0000000000000690 .L0 
     /tmp/ccGVpxtD.s:1201   .text:00000000000006a0 .L0 
     /tmp/ccGVpxtD.s:1203   .text:00000000000006a4 .L0 
     /tmp/ccGVpxtD.s:1204   .text:00000000000006a4 .L0 
     /tmp/ccGVpxtD.s:1207   .text:00000000000006a8 .L0 
     /tmp/ccGVpxtD.s:1211   .text:00000000000006ac .L0 
     /tmp/ccGVpxtD.s:1214   .text:00000000000006b0 .L0 
     /tmp/ccGVpxtD.s:1215   .text:00000000000006b4 .L0 
     /tmp/ccGVpxtD.s:1217   .text:00000000000006b8 .L0 
     /tmp/ccGVpxtD.s:1218   .text:00000000000006b8 .L0 
     /tmp/ccGVpxtD.s:1220   .text:00000000000006bc .L0 
     /tmp/ccGVpxtD.s:1223   .text:00000000000006c0 .L0 
     /tmp/ccGVpxtD.s:1226   .text:00000000000006c4 .L0 
     /tmp/ccGVpxtD.s:1228   .text:00000000000006c8 .L0 
     /tmp/ccGVpxtD.s:1293   .text:00000000000006c8 _ZN12kmem_cache_s15kmem_cache_infoEv
     /tmp/ccGVpxtD.s:1296   .text:00000000000006c8 .L0 
     /tmp/ccGVpxtD.s:1298   .text:00000000000006c8 .L0 
     /tmp/ccGVpxtD.s:1299   .text:00000000000006cc .L0 
     /tmp/ccGVpxtD.s:1306   .text:00000000000006e4 .L0 
     /tmp/ccGVpxtD.s:1307   .text:00000000000006e4 .L0 
     /tmp/ccGVpxtD.s:1308   .text:00000000000006e4 .L0 
     /tmp/ccGVpxtD.s:1309   .text:00000000000006e4 .L0 
     /tmp/ccGVpxtD.s:1310   .text:00000000000006e4 .L0 
     /tmp/ccGVpxtD.s:1311   .text:00000000000006e4 .L0 
     /tmp/ccGVpxtD.s:1313   .text:00000000000006e8 .L0 
     /tmp/ccGVpxtD.s:1316   .text:00000000000006ec .L0 
     /tmp/ccGVpxtD.s:1317   .text:00000000000006ec .L0 
     /tmp/ccGVpxtD.s:1322   .text:00000000000006fc .L0 
     /tmp/ccGVpxtD.s:1323   .text:00000000000006fc .L0 
     /tmp/ccGVpxtD.s:1327   .text:000000000000070c .L0 
     /tmp/ccGVpxtD.s:1328   .text:000000000000070c .L0 
     /tmp/ccGVpxtD.s:1332   .text:0000000000000718 .L0 
     /tmp/ccGVpxtD.s:1333   .text:0000000000000718 .L0 
     /tmp/ccGVpxtD.s:1337   .text:0000000000000728 .L0 
     /tmp/ccGVpxtD.s:1338   .text:0000000000000728 .L0 
     /tmp/ccGVpxtD.s:1342   .text:0000000000000738 .L0 
     /tmp/ccGVpxtD.s:1343   .text:0000000000000738 .L0 
     /tmp/ccGVpxtD.s:1349   .text:000000000000074c .L0 
     /tmp/ccGVpxtD.s:1350   .text:000000000000074c .L0 
     /tmp/ccGVpxtD.s:1354   .text:000000000000075c .L0 
     /tmp/ccGVpxtD.s:1355   .text:000000000000075c .L0 
     /tmp/ccGVpxtD.s:1357   .text:0000000000000760 .L0 
     /tmp/ccGVpxtD.s:1359   .text:0000000000000764 .L0 
     /tmp/ccGVpxtD.s:1361   .text:0000000000000768 .L0 
     /tmp/ccGVpxtD.s:1363   .text:000000000000076c .L0 
     /tmp/ccGVpxtD.s:1366   .text:0000000000000770 .L0 
GAS LISTING /tmp/ccGVpxtD.s 			page 79


     /tmp/ccGVpxtD.s:1367   .text:0000000000000770 .L0 
     /tmp/ccGVpxtD.s:1369   .text:0000000000000774 .L0 
     /tmp/ccGVpxtD.s:1371   .text:0000000000000778 .L0 
     /tmp/ccGVpxtD.s:1374   .text:000000000000077c .L0 
     /tmp/ccGVpxtD.s:1375   .text:000000000000077c .L0 
     /tmp/ccGVpxtD.s:1379   .text:000000000000078c .L0 
     /tmp/ccGVpxtD.s:1380   .text:000000000000078c .L0 
     /tmp/ccGVpxtD.s:1386   .text:00000000000007a0 .L0 
     /tmp/ccGVpxtD.s:1387   .text:00000000000007a0 .L0 
     /tmp/ccGVpxtD.s:1391   .text:00000000000007b0 .L0 
     /tmp/ccGVpxtD.s:1392   .text:00000000000007b0 .L0 
     /tmp/ccGVpxtD.s:1396   .text:00000000000007c0 .L0 
     /tmp/ccGVpxtD.s:1397   .text:00000000000007c0 .L0 
     /tmp/ccGVpxtD.s:1403   .text:00000000000007d4 .L0 
     /tmp/ccGVpxtD.s:1404   .text:00000000000007d4 .L0 
     /tmp/ccGVpxtD.s:1408   .text:00000000000007e4 .L0 
     /tmp/ccGVpxtD.s:1409   .text:00000000000007e4 .L0 
     /tmp/ccGVpxtD.s:1413   .text:00000000000007f4 .L0 
     /tmp/ccGVpxtD.s:1414   .text:00000000000007f4 .L0 
     /tmp/ccGVpxtD.s:1420   .text:0000000000000808 .L0 
     /tmp/ccGVpxtD.s:1421   .text:0000000000000808 .L0 
     /tmp/ccGVpxtD.s:1425   .text:0000000000000818 .L0 
     /tmp/ccGVpxtD.s:1426   .text:0000000000000818 .L0 
     /tmp/ccGVpxtD.s:1430   .text:0000000000000828 .L0 
     /tmp/ccGVpxtD.s:1431   .text:0000000000000828 .L0 
     /tmp/ccGVpxtD.s:1437   .text:000000000000083c .L0 
     /tmp/ccGVpxtD.s:1438   .text:000000000000083c .L0 
     /tmp/ccGVpxtD.s:1442   .text:000000000000084c .L0 
     /tmp/ccGVpxtD.s:1443   .text:000000000000084c .L0 
     /tmp/ccGVpxtD.s:1448   .text:000000000000085c .L0 
     /tmp/ccGVpxtD.s:1449   .text:000000000000085c .L0 
     /tmp/ccGVpxtD.s:1453   .text:0000000000000860 .L0 
     /tmp/ccGVpxtD.s:1458   .text:0000000000000864 .L0 
     /tmp/ccGVpxtD.s:1461   .text:0000000000000864 .L0 
     /tmp/ccGVpxtD.s:1462   .text:0000000000000864 .L0 
     /tmp/ccGVpxtD.s:1468   .text:0000000000000878 .L0 
     /tmp/ccGVpxtD.s:1469   .text:0000000000000878 .L0 
     /tmp/ccGVpxtD.s:1473   .text:0000000000000888 .L0 
     /tmp/ccGVpxtD.s:1474   .text:0000000000000888 .L0 
     /tmp/ccGVpxtD.s:1477   .text:000000000000088c .L0 
     /tmp/ccGVpxtD.s:1481   .text:0000000000000890 .L0 
     /tmp/ccGVpxtD.s:1482   .text:0000000000000890 .L0 
     /tmp/ccGVpxtD.s:1486   .text:00000000000008a0 .L0 
     /tmp/ccGVpxtD.s:1487   .text:00000000000008a0 .L0 
     /tmp/ccGVpxtD.s:1492   .text:00000000000008b0 .L0 
     /tmp/ccGVpxtD.s:1493   .text:00000000000008b0 .L0 
     /tmp/ccGVpxtD.s:1497   .text:00000000000008b4 .L0 
     /tmp/ccGVpxtD.s:1502   .text:00000000000008b8 .L0 
     /tmp/ccGVpxtD.s:1505   .text:00000000000008b8 .L0 
     /tmp/ccGVpxtD.s:1506   .text:00000000000008b8 .L0 
     /tmp/ccGVpxtD.s:1512   .text:00000000000008cc .L0 
     /tmp/ccGVpxtD.s:1513   .text:00000000000008cc .L0 
     /tmp/ccGVpxtD.s:1517   .text:00000000000008dc .L0 
     /tmp/ccGVpxtD.s:1518   .text:00000000000008dc .L0 
     /tmp/ccGVpxtD.s:1521   .text:00000000000008e0 .L0 
     /tmp/ccGVpxtD.s:1525   .text:00000000000008e4 .L0 
     /tmp/ccGVpxtD.s:1526   .text:00000000000008e4 .L0 
GAS LISTING /tmp/ccGVpxtD.s 			page 80


     /tmp/ccGVpxtD.s:1530   .text:00000000000008f4 .L0 
     /tmp/ccGVpxtD.s:1531   .text:00000000000008f4 .L0 
     /tmp/ccGVpxtD.s:1536   .text:0000000000000904 .L0 
     /tmp/ccGVpxtD.s:1537   .text:0000000000000904 .L0 
     /tmp/ccGVpxtD.s:1541   .text:0000000000000908 .L0 
     /tmp/ccGVpxtD.s:1546   .text:000000000000090c .L0 
     /tmp/ccGVpxtD.s:1549   .text:000000000000090c .L0 
     /tmp/ccGVpxtD.s:1550   .text:000000000000090c .L0 
     /tmp/ccGVpxtD.s:1556   .text:0000000000000920 .L0 
     /tmp/ccGVpxtD.s:1557   .text:0000000000000920 .L0 
     /tmp/ccGVpxtD.s:1561   .text:0000000000000930 .L0 
     /tmp/ccGVpxtD.s:1562   .text:0000000000000930 .L0 
     /tmp/ccGVpxtD.s:1565   .text:0000000000000934 .L0 
     /tmp/ccGVpxtD.s:1569   .text:0000000000000938 .L0 
     /tmp/ccGVpxtD.s:1570   .text:0000000000000938 .L0 
     /tmp/ccGVpxtD.s:1574   .text:0000000000000948 .L0 
     /tmp/ccGVpxtD.s:1575   .text:0000000000000948 .L0 
     /tmp/ccGVpxtD.s:1579   .text:0000000000000958 .L0 
     /tmp/ccGVpxtD.s:1580   .text:0000000000000958 .L0 
     /tmp/ccGVpxtD.s:1586   .text:000000000000096c .L0 
     /tmp/ccGVpxtD.s:1587   .text:000000000000096c .L0 
     /tmp/ccGVpxtD.s:1591   .text:000000000000097c .L0 
     /tmp/ccGVpxtD.s:1592   .text:000000000000097c .L0 
     /tmp/ccGVpxtD.s:1596   .text:000000000000098c .L0 
     /tmp/ccGVpxtD.s:1597   .text:000000000000098c .L0 
     /tmp/ccGVpxtD.s:1603   .text:00000000000009a0 .L0 
     /tmp/ccGVpxtD.s:1604   .text:00000000000009a0 .L0 
     /tmp/ccGVpxtD.s:1608   .text:00000000000009b0 .L0 
     /tmp/ccGVpxtD.s:1609   .text:00000000000009b0 .L0 
     /tmp/ccGVpxtD.s:1613   .text:00000000000009c0 .L0 
     /tmp/ccGVpxtD.s:1614   .text:00000000000009c0 .L0 
     /tmp/ccGVpxtD.s:1617   .text:00000000000009c4 .L0 
     /tmp/ccGVpxtD.s:1619   .text:00000000000009c8 .L0 
     /tmp/ccGVpxtD.s:1622   .text:00000000000009cc .L0 
     /tmp/ccGVpxtD.s:1623   .text:00000000000009cc .L0 
     /tmp/ccGVpxtD.s:1629   .text:00000000000009e0 .L0 
     /tmp/ccGVpxtD.s:1630   .text:00000000000009e0 .L0 
     /tmp/ccGVpxtD.s:1634   .text:00000000000009f0 .L0 
     /tmp/ccGVpxtD.s:1635   .text:00000000000009f0 .L0 
     /tmp/ccGVpxtD.s:1638   .text:00000000000009f4 .L0 
     /tmp/ccGVpxtD.s:1640   .text:00000000000009f8 .L0 
     /tmp/ccGVpxtD.s:1642   .text:00000000000009fc .L0 
     /tmp/ccGVpxtD.s:1644   .text:0000000000000a00 .L0 
     /tmp/ccGVpxtD.s:1646   .text:0000000000000a04 .L0 
     /tmp/ccGVpxtD.s:1649   .text:0000000000000a08 .L0 
     /tmp/ccGVpxtD.s:1650   .text:0000000000000a08 .L0 
     /tmp/ccGVpxtD.s:1652   .text:0000000000000a0c .L0 
     /tmp/ccGVpxtD.s:1654   .text:0000000000000a10 .L0 
     /tmp/ccGVpxtD.s:1656   .text:0000000000000a14 .L0 
     /tmp/ccGVpxtD.s:1659   .text:0000000000000a18 .L0 
     /tmp/ccGVpxtD.s:1660   .text:0000000000000a18 .L0 
     /tmp/ccGVpxtD.s:1664   .text:0000000000000a28 .L0 
     /tmp/ccGVpxtD.s:1665   .text:0000000000000a28 .L0 
     /tmp/ccGVpxtD.s:1671   .text:0000000000000a3c .L0 
     /tmp/ccGVpxtD.s:1672   .text:0000000000000a3c .L0 
     /tmp/ccGVpxtD.s:1676   .text:0000000000000a4c .L0 
     /tmp/ccGVpxtD.s:1677   .text:0000000000000a4c .L0 
GAS LISTING /tmp/ccGVpxtD.s 			page 81


     /tmp/ccGVpxtD.s:1683   .text:0000000000000a60 .L0 
     /tmp/ccGVpxtD.s:1684   .text:0000000000000a60 .L0 
     /tmp/ccGVpxtD.s:1688   .text:0000000000000a70 .L0 
     /tmp/ccGVpxtD.s:1689   .text:0000000000000a70 .L0 
     /tmp/ccGVpxtD.s:1693   .text:0000000000000a80 .L0 
     /tmp/ccGVpxtD.s:1694   .text:0000000000000a80 .L0 
     /tmp/ccGVpxtD.s:1696   .text:0000000000000a84 .L0 
     /tmp/ccGVpxtD.s:1698   .text:0000000000000a88 .L0 
     /tmp/ccGVpxtD.s:1704   .text:0000000000000a9c .L0 
     /tmp/ccGVpxtD.s:1705   .text:0000000000000a9c .L0 
     /tmp/ccGVpxtD.s:1709   .text:0000000000000aac .L0 
     /tmp/ccGVpxtD.s:1710   .text:0000000000000aac .L0 
     /tmp/ccGVpxtD.s:1712   .text:0000000000000ab0 .L0 
     /tmp/ccGVpxtD.s:1714   .text:0000000000000ab4 .L0 
     /tmp/ccGVpxtD.s:1716   .text:0000000000000ab8 .L0 
     /tmp/ccGVpxtD.s:1722   .text:0000000000000ac4 .L0 
     /tmp/ccGVpxtD.s:1723   .text:0000000000000ac4 .L0 
     /tmp/ccGVpxtD.s:1730   .text:0000000000000ad8 .L0 
     /tmp/ccGVpxtD.s:1731   .text:0000000000000ad8 .L0 
     /tmp/ccGVpxtD.s:1735   .text:0000000000000ae8 .L0 
     /tmp/ccGVpxtD.s:1736   .text:0000000000000ae8 .L0 
     /tmp/ccGVpxtD.s:1740   .text:0000000000000af8 .L0 
     /tmp/ccGVpxtD.s:1741   .text:0000000000000afc .L0 
     /tmp/ccGVpxtD.s:1743   .text:0000000000000b00 .L0 
     /tmp/ccGVpxtD.s:1744   .text:0000000000000b00 .L0 
     /tmp/ccGVpxtD.s:1746   .text:0000000000000b04 .L0 
     /tmp/ccGVpxtD.s:1749   .text:0000000000000b08 .L0 
     /tmp/ccGVpxtD.s:1752   .text:0000000000000b0c .L0 
     /tmp/ccGVpxtD.s:1754   .text:0000000000000b10 .L0 
     /tmp/ccGVpxtD.s:1757   .text:0000000000000b14 .L0 
     /tmp/ccGVpxtD.s:1759   .text:0000000000000b18 .L0 
     /tmp/ccGVpxtD.s:1773   .text:0000000000000b18 _ZN12kmem_cache_s21print_info_all_cachesEv
     /tmp/ccGVpxtD.s:1776   .text:0000000000000b18 .L0 
     /tmp/ccGVpxtD.s:1777   .text:0000000000000b18 .L0 
     /tmp/ccGVpxtD.s:1778   .text:0000000000000b1c .L0 
     /tmp/ccGVpxtD.s:1782   .text:0000000000000b28 .L0 
     /tmp/ccGVpxtD.s:1783   .text:0000000000000b28 .L0 
     /tmp/ccGVpxtD.s:1784   .text:0000000000000b28 .L0 
     /tmp/ccGVpxtD.s:1786   .text:0000000000000b2c .L0 
     /tmp/ccGVpxtD.s:1788   .text:0000000000000b2c .L0 
     /tmp/ccGVpxtD.s:1789   .text:0000000000000b2c .L0 
     /tmp/ccGVpxtD.s:1794   .text:0000000000000b3c .L0 
     /tmp/ccGVpxtD.s:1795   .text:0000000000000b3c .L0 
     /tmp/ccGVpxtD.s:1799   .text:0000000000000b44 .L0 
     /tmp/ccGVpxtD.s:1801   .text:0000000000000b48 .L0 
     /tmp/ccGVpxtD.s:1802   .text:0000000000000b48 .L0 
     /tmp/ccGVpxtD.s:1806   .text:0000000000000b54 .L0 
     /tmp/ccGVpxtD.s:1807   .text:0000000000000b54 .L0 
     /tmp/ccGVpxtD.s:1810   .text:0000000000000b58 .L0 
     /tmp/ccGVpxtD.s:1814   .text:0000000000000b5c .L0 
     /tmp/ccGVpxtD.s:1815   .text:0000000000000b5c .L0 
     /tmp/ccGVpxtD.s:1819   .text:0000000000000b6c .L0 
     /tmp/ccGVpxtD.s:1820   .text:0000000000000b70 .L0 
     /tmp/ccGVpxtD.s:1822   .text:0000000000000b74 .L0 
     /tmp/ccGVpxtD.s:1823   .text:0000000000000b74 .L0 
     /tmp/ccGVpxtD.s:1825   .text:0000000000000b78 .L0 
     /tmp/ccGVpxtD.s:1828   .text:0000000000000b7c .L0 
GAS LISTING /tmp/ccGVpxtD.s 			page 82


     /tmp/ccGVpxtD.s:1830   .text:0000000000000b80 .L0 
     /tmp/ccGVpxtD.s:1836   .text:0000000000000b80 _ZN4Slab42return_first_free_object_and_rearange_listEii
     /tmp/ccGVpxtD.s:1839   .text:0000000000000b80 .L0 
     /tmp/ccGVpxtD.s:1841   .text:0000000000000b80 .L0 
     /tmp/ccGVpxtD.s:1842   .text:0000000000000b84 .L0 
     /tmp/ccGVpxtD.s:1849   .text:0000000000000b9c .L0 
     /tmp/ccGVpxtD.s:1850   .text:0000000000000b9c .L0 
     /tmp/ccGVpxtD.s:1851   .text:0000000000000b9c .L0 
     /tmp/ccGVpxtD.s:1852   .text:0000000000000b9c .L0 
     /tmp/ccGVpxtD.s:1853   .text:0000000000000b9c .L0 
     /tmp/ccGVpxtD.s:1854   .text:0000000000000b9c .L0 
     /tmp/ccGVpxtD.s:1856   .text:0000000000000ba0 .L0 
     /tmp/ccGVpxtD.s:1862   .text:0000000000000bac .L0 
     /tmp/ccGVpxtD.s:1863   .text:0000000000000bac .L0 
     /tmp/ccGVpxtD.s:1867   .text:0000000000000bb0 .L0 
     /tmp/ccGVpxtD.s:1868   .text:0000000000000bb0 .L0 
     /tmp/ccGVpxtD.s:1870   .text:0000000000000bb4 .L0 
     /tmp/ccGVpxtD.s:1875   .text:0000000000000bc4 .L0 
     /tmp/ccGVpxtD.s:1877   .text:0000000000000bc8 .L0 
     /tmp/ccGVpxtD.s:1878   .text:0000000000000bc8 .L0 
     /tmp/ccGVpxtD.s:1881   .text:0000000000000bcc .L0 
     /tmp/ccGVpxtD.s:1885   .text:0000000000000bd0 .L0 
     /tmp/ccGVpxtD.s:1887   .text:0000000000000bd4 .L0 
     /tmp/ccGVpxtD.s:1888   .text:0000000000000bd4 .L0 
     /tmp/ccGVpxtD.s:1894   .text:0000000000000be8 .L0 
     /tmp/ccGVpxtD.s:1895   .text:0000000000000be8 .L0 
     /tmp/ccGVpxtD.s:1897   .text:0000000000000bec .L0 
     /tmp/ccGVpxtD.s:1900   .text:0000000000000bf0 .L0 
     /tmp/ccGVpxtD.s:1903   .text:0000000000000bf4 .L0 
     /tmp/ccGVpxtD.s:1904   .text:0000000000000bf8 .L0 
     /tmp/ccGVpxtD.s:1905   .text:0000000000000bf8 .L0 
     /tmp/ccGVpxtD.s:1907   .text:0000000000000bfc .L0 
     /tmp/ccGVpxtD.s:1908   .text:0000000000000bfc .L0 
     /tmp/ccGVpxtD.s:1910   .text:0000000000000c00 .L0 
     /tmp/ccGVpxtD.s:1912   .text:0000000000000c04 .L0 
     /tmp/ccGVpxtD.s:1914   .text:0000000000000c08 .L0 
     /tmp/ccGVpxtD.s:1917   .text:0000000000000c0c .L0 
     /tmp/ccGVpxtD.s:1919   .text:0000000000000c10 .L0 
     /tmp/ccGVpxtD.s:1923   .text:0000000000000c14 .L0 
     /tmp/ccGVpxtD.s:1925   .text:0000000000000c14 .L0 
     /tmp/ccGVpxtD.s:1927   .text:0000000000000c1c .L0 
     /tmp/ccGVpxtD.s:1933   .text:0000000000000c1c _ZN12kmem_cache_s16kmem_cache_allocEv
     /tmp/ccGVpxtD.s:1936   .text:0000000000000c1c .L0 
     /tmp/ccGVpxtD.s:1938   .text:0000000000000c1c .L0 
     /tmp/ccGVpxtD.s:1939   .text:0000000000000c20 .L0 
     /tmp/ccGVpxtD.s:1943   .text:0000000000000c2c .L0 
     /tmp/ccGVpxtD.s:1944   .text:0000000000000c2c .L0 
     /tmp/ccGVpxtD.s:1945   .text:0000000000000c2c .L0 
     /tmp/ccGVpxtD.s:1947   .text:0000000000000c30 .L0 
     /tmp/ccGVpxtD.s:1951   .text:0000000000000c34 .L0 
     /tmp/ccGVpxtD.s:1952   .text:0000000000000c34 .L0 
     /tmp/ccGVpxtD.s:1954   .text:0000000000000c38 .L0 
     /tmp/ccGVpxtD.s:1959   .text:0000000000000c3c .L0 
     /tmp/ccGVpxtD.s:1960   .text:0000000000000c3c .L0 
     /tmp/ccGVpxtD.s:1962   .text:0000000000000c40 .L0 
     /tmp/ccGVpxtD.s:1965   .text:0000000000000c44 .L0 
     /tmp/ccGVpxtD.s:1966   .text:0000000000000c44 .L0 
GAS LISTING /tmp/ccGVpxtD.s 			page 83


     /tmp/ccGVpxtD.s:1973   .text:0000000000000c58 .L0 
     /tmp/ccGVpxtD.s:1974   .text:0000000000000c58 .L0 
     /tmp/ccGVpxtD.s:1976   .text:0000000000000c5c .L0 
     /tmp/ccGVpxtD.s:1979   .text:0000000000000c64 .L0 
     /tmp/ccGVpxtD.s:1980   .text:0000000000000c64 .L0 
     /tmp/ccGVpxtD.s:1983   .text:0000000000000c68 .L0 
     /tmp/ccGVpxtD.s:1984   .text:0000000000000c68 .L0 
     /tmp/ccGVpxtD.s:1986   .text:0000000000000c6c .L0 
     /tmp/ccGVpxtD.s:1988   .text:0000000000000c70 .L0 
     /tmp/ccGVpxtD.s:1989   .text:0000000000000c70 .L0 
     /tmp/ccGVpxtD.s:1991   .text:0000000000000c74 .L0 
     /tmp/ccGVpxtD.s:1996   .text:0000000000000c78 .L0 
     /tmp/ccGVpxtD.s:1997   .text:0000000000000c78 .L0 
     /tmp/ccGVpxtD.s:1999   .text:0000000000000c7c .L0 
     /tmp/ccGVpxtD.s:2005   .text:0000000000000c84 .L0 
     /tmp/ccGVpxtD.s:2006   .text:0000000000000c84 .L0 
     /tmp/ccGVpxtD.s:2008   .text:0000000000000c88 .L0 
     /tmp/ccGVpxtD.s:2009   .text:0000000000000c88 .L0 
     /tmp/ccGVpxtD.s:2012   .text:0000000000000c8c .L0 
     /tmp/ccGVpxtD.s:2015   .text:0000000000000c94 .L0 
     /tmp/ccGVpxtD.s:2016   .text:0000000000000c94 .L0 
     /tmp/ccGVpxtD.s:2018   .text:0000000000000c98 .L0 
     /tmp/ccGVpxtD.s:2026   .text:0000000000000ca0 .L0 
     /tmp/ccGVpxtD.s:2027   .text:0000000000000ca0 .L0 
     /tmp/ccGVpxtD.s:2028   .text:0000000000000ca4 .L0 
     /tmp/ccGVpxtD.s:2029   .text:0000000000000ca4 .L0 
     /tmp/ccGVpxtD.s:2031   .text:0000000000000ca8 .L0 
     /tmp/ccGVpxtD.s:2032   .text:0000000000000ca8 .L0 
     /tmp/ccGVpxtD.s:2034   .text:0000000000000cac .L0 
     /tmp/ccGVpxtD.s:2037   .text:0000000000000cb0 .L0 
     /tmp/ccGVpxtD.s:2041   .text:0000000000000cb4 .L0 
     /tmp/ccGVpxtD.s:2045   .text:0000000000000cb4 .L0 
     /tmp/ccGVpxtD.s:2046   .text:0000000000000cb4 .L0 
     /tmp/ccGVpxtD.s:2052   .text:0000000000000cc8 .L0 
     /tmp/ccGVpxtD.s:2053   .text:0000000000000cc8 .L0 
     /tmp/ccGVpxtD.s:2055   .text:0000000000000ccc .L0 
     /tmp/ccGVpxtD.s:2058   .text:0000000000000cd4 .L0 
     /tmp/ccGVpxtD.s:2059   .text:0000000000000cd4 .L0 
     /tmp/ccGVpxtD.s:2064   .text:0000000000000cd8 .L0 
     /tmp/ccGVpxtD.s:2066   .text:0000000000000cdc .L0 
     /tmp/ccGVpxtD.s:2073   .text:0000000000000ce4 .L0 
     /tmp/ccGVpxtD.s:2074   .text:0000000000000ce4 .L0 
     /tmp/ccGVpxtD.s:2079   .text:0000000000000ce8 .L0 
     /tmp/ccGVpxtD.s:2080   .text:0000000000000ce8 .L0 
     /tmp/ccGVpxtD.s:2085   .text:0000000000000cec .L0 
     /tmp/ccGVpxtD.s:2087   .text:0000000000000cf0 .L0 
     /tmp/ccGVpxtD.s:2091   .text:0000000000000cf4 .L0 
     /tmp/ccGVpxtD.s:2092   .text:0000000000000cf4 .L0 
     /tmp/ccGVpxtD.s:2093   .text:0000000000000cf4 .L0 
     /tmp/ccGVpxtD.s:2095   .text:0000000000000cf8 .L0 
     /tmp/ccGVpxtD.s:2097   .text:0000000000000cfc .L0 
     /tmp/ccGVpxtD.s:2098   .text:0000000000000cfc .L0 
     /tmp/ccGVpxtD.s:2100   .text:0000000000000d00 .L0 
     /tmp/ccGVpxtD.s:2102   .text:0000000000000d04 .L0 
     /tmp/ccGVpxtD.s:2103   .text:0000000000000d04 .L0 
     /tmp/ccGVpxtD.s:2105   .text:0000000000000d08 .L0 
     /tmp/ccGVpxtD.s:2106   .text:0000000000000d08 .L0 
GAS LISTING /tmp/ccGVpxtD.s 			page 84


     /tmp/ccGVpxtD.s:2109   .text:0000000000000d0c .L0 
     /tmp/ccGVpxtD.s:2112   .text:0000000000000d14 .L0 
     /tmp/ccGVpxtD.s:2113   .text:0000000000000d14 .L0 
     /tmp/ccGVpxtD.s:2115   .text:0000000000000d18 .L0 
     /tmp/ccGVpxtD.s:2120   .text:0000000000000d20 .L0 
     /tmp/ccGVpxtD.s:2121   .text:0000000000000d20 .L0 
     /tmp/ccGVpxtD.s:2127   .text:0000000000000d24 .L0 
     /tmp/ccGVpxtD.s:2128   .text:0000000000000d24 .L0 
     /tmp/ccGVpxtD.s:2131   .text:0000000000000d2c .L0 
     /tmp/ccGVpxtD.s:2132   .text:0000000000000d2c .L0 
     /tmp/ccGVpxtD.s:2135   .text:0000000000000d34 .L0 
     /tmp/ccGVpxtD.s:2136   .text:0000000000000d34 .L0 
     /tmp/ccGVpxtD.s:2140   .text:0000000000000d3c .L0 
     /tmp/ccGVpxtD.s:2146   .text:0000000000000d3c _ZN12kmem_cache_s7kmallocEm
     /tmp/ccGVpxtD.s:2149   .text:0000000000000d3c .L0 
     /tmp/ccGVpxtD.s:2151   .text:0000000000000d3c .L0 
     /tmp/ccGVpxtD.s:2152   .text:0000000000000d40 .L0 
     /tmp/ccGVpxtD.s:2157   .text:0000000000000d50 .L0 
     /tmp/ccGVpxtD.s:2158   .text:0000000000000d50 .L0 
     /tmp/ccGVpxtD.s:2159   .text:0000000000000d50 .L0 
     /tmp/ccGVpxtD.s:2160   .text:0000000000000d50 .L0 
     /tmp/ccGVpxtD.s:2162   .text:0000000000000d54 .L0 
     /tmp/ccGVpxtD.s:2165   .text:0000000000000d58 .L0 
     /tmp/ccGVpxtD.s:2166   .text:0000000000000d58 .L0 
     /tmp/ccGVpxtD.s:2173   .text:0000000000000d68 .L0 
     /tmp/ccGVpxtD.s:2174   .text:0000000000000d68 .L0 
     /tmp/ccGVpxtD.s:2177   .text:0000000000000d70 .L0 
     /tmp/ccGVpxtD.s:2180   .text:0000000000000d74 .L0 
     /tmp/ccGVpxtD.s:2181   .text:0000000000000d74 .L0 
     /tmp/ccGVpxtD.s:2185   .text:0000000000000d7c .L0 
     /tmp/ccGVpxtD.s:2186   .text:0000000000000d7c .L0 
     /tmp/ccGVpxtD.s:2187   .text:0000000000000d80 .L0 
     /tmp/ccGVpxtD.s:2188   .text:0000000000000d80 .L0 
     /tmp/ccGVpxtD.s:2190   .text:0000000000000d84 .L0 
     /tmp/ccGVpxtD.s:2191   .text:0000000000000d84 .L0 
     /tmp/ccGVpxtD.s:2193   .text:0000000000000d88 .L0 
     /tmp/ccGVpxtD.s:2196   .text:0000000000000d8c .L0 
     /tmp/ccGVpxtD.s:2199   .text:0000000000000d90 .L0 
     /tmp/ccGVpxtD.s:2203   .text:0000000000000d94 .L0 
     /tmp/ccGVpxtD.s:2205   .text:0000000000000d94 .L0 
     /tmp/ccGVpxtD.s:2206   .text:0000000000000d94 .L0 
     /tmp/ccGVpxtD.s:2214   .text:0000000000000dac .L0 
     /tmp/ccGVpxtD.s:2216   .text:0000000000000db4 .L0 
     /tmp/ccGVpxtD.s:2222   .text:0000000000000db4 _ZN4Slab10clear_slabEiiPFvPvE
     /tmp/ccGVpxtD.s:2225   .text:0000000000000db4 .L0 
     /tmp/ccGVpxtD.s:2227   .text:0000000000000db4 .L0 
     /tmp/ccGVpxtD.s:2228   .text:0000000000000db4 .L0 
     /tmp/ccGVpxtD.s:2230   .text:0000000000000db8 .L0 
     /tmp/ccGVpxtD.s:2231   .text:0000000000000dbc .L0 
     /tmp/ccGVpxtD.s:2239   .text:0000000000000dd8 .L0 
     /tmp/ccGVpxtD.s:2240   .text:0000000000000dd8 .L0 
     /tmp/ccGVpxtD.s:2241   .text:0000000000000dd8 .L0 
     /tmp/ccGVpxtD.s:2242   .text:0000000000000dd8 .L0 
     /tmp/ccGVpxtD.s:2243   .text:0000000000000dd8 .L0 
     /tmp/ccGVpxtD.s:2244   .text:0000000000000dd8 .L0 
     /tmp/ccGVpxtD.s:2245   .text:0000000000000dd8 .L0 
     /tmp/ccGVpxtD.s:2247   .text:0000000000000ddc .L0 
GAS LISTING /tmp/ccGVpxtD.s 			page 85


     /tmp/ccGVpxtD.s:2254   .text:0000000000000dec .L0 
     /tmp/ccGVpxtD.s:2259   .text:0000000000000df4 .L0 
     /tmp/ccGVpxtD.s:2263   .text:0000000000000df8 .L0 
     /tmp/ccGVpxtD.s:2265   .text:0000000000000dfc .L0 
     /tmp/ccGVpxtD.s:2266   .text:0000000000000dfc .L0 
     /tmp/ccGVpxtD.s:2271   .text:0000000000000e0c .L0 
     /tmp/ccGVpxtD.s:2273   .text:0000000000000e10 .L0 
     /tmp/ccGVpxtD.s:2274   .text:0000000000000e10 .L0 
     /tmp/ccGVpxtD.s:2276   .text:0000000000000e14 .L0 
     /tmp/ccGVpxtD.s:2278   .text:0000000000000e18 .L0 
     /tmp/ccGVpxtD.s:2285   .text:0000000000000e24 .L0 
     /tmp/ccGVpxtD.s:2286   .text:0000000000000e28 .L0 
     /tmp/ccGVpxtD.s:2288   .text:0000000000000e2c .L0 
     /tmp/ccGVpxtD.s:2289   .text:0000000000000e2c .L0 
     /tmp/ccGVpxtD.s:2291   .text:0000000000000e30 .L0 
     /tmp/ccGVpxtD.s:2294   .text:0000000000000e34 .L0 
     /tmp/ccGVpxtD.s:2297   .text:0000000000000e38 .L0 
     /tmp/ccGVpxtD.s:2299   .text:0000000000000e3c .L0 
     /tmp/ccGVpxtD.s:2302   .text:0000000000000e40 .L0 
     /tmp/ccGVpxtD.s:2304   .text:0000000000000e44 .L0 
     /tmp/ccGVpxtD.s:2309   .text:0000000000000e4c .L0 
     /tmp/ccGVpxtD.s:2315   .text:0000000000000e4c _ZN12kmem_cache_s17kmem_cache_shrinkEv
     /tmp/ccGVpxtD.s:2318   .text:0000000000000e4c .L0 
     /tmp/ccGVpxtD.s:2320   .text:0000000000000e4c .L0 
     /tmp/ccGVpxtD.s:2321   .text:0000000000000e50 .L0 
     /tmp/ccGVpxtD.s:2328   .text:0000000000000e68 .L0 
     /tmp/ccGVpxtD.s:2329   .text:0000000000000e68 .L0 
     /tmp/ccGVpxtD.s:2330   .text:0000000000000e68 .L0 
     /tmp/ccGVpxtD.s:2331   .text:0000000000000e68 .L0 
     /tmp/ccGVpxtD.s:2332   .text:0000000000000e68 .L0 
     /tmp/ccGVpxtD.s:2333   .text:0000000000000e68 .L0 
     /tmp/ccGVpxtD.s:2335   .text:0000000000000e6c .L0 
     /tmp/ccGVpxtD.s:2338   .text:0000000000000e70 .L0 
     /tmp/ccGVpxtD.s:2339   .text:0000000000000e70 .L0 
     /tmp/ccGVpxtD.s:2341   .text:0000000000000e74 .L0 
     /tmp/ccGVpxtD.s:2343   .text:0000000000000e78 .L0 
     /tmp/ccGVpxtD.s:2344   .text:0000000000000e78 .L0 
     /tmp/ccGVpxtD.s:2347   .text:0000000000000e7c .L0 
     /tmp/ccGVpxtD.s:2348   .text:0000000000000e7c .L0 
     /tmp/ccGVpxtD.s:2354   .text:0000000000000e84 .L0 
     /tmp/ccGVpxtD.s:2355   .text:0000000000000e84 .L0 
     /tmp/ccGVpxtD.s:2357   .text:0000000000000e88 .L0 
     /tmp/ccGVpxtD.s:2358   .text:0000000000000e88 .L0 
     /tmp/ccGVpxtD.s:2366   .text:0000000000000e90 .L0 
     /tmp/ccGVpxtD.s:2373   .text:0000000000000eac .L0 
     /tmp/ccGVpxtD.s:2377   .text:0000000000000eac .L0 
     /tmp/ccGVpxtD.s:2378   .text:0000000000000eac .L0 
     /tmp/ccGVpxtD.s:2383   .text:0000000000000ec0 .L0 
     /tmp/ccGVpxtD.s:2387   .text:0000000000000ec4 .L0 
     /tmp/ccGVpxtD.s:2388   .text:0000000000000ec4 .L0 
     /tmp/ccGVpxtD.s:2391   .text:0000000000000ec8 .L0 
     /tmp/ccGVpxtD.s:2392   .text:0000000000000ec8 .L0 
     /tmp/ccGVpxtD.s:2393   .text:0000000000000ec8 .L0 
     /tmp/ccGVpxtD.s:2396   .text:0000000000000ecc .L0 
     /tmp/ccGVpxtD.s:2397   .text:0000000000000ecc .L0 
     /tmp/ccGVpxtD.s:2406   .text:0000000000000ee4 .L0 
     /tmp/ccGVpxtD.s:2407   .text:0000000000000ee4 .L0 
GAS LISTING /tmp/ccGVpxtD.s 			page 86


     /tmp/ccGVpxtD.s:2408   .text:0000000000000ee4 .L0 
     /tmp/ccGVpxtD.s:2416   .text:0000000000000ef4 .L0 
     /tmp/ccGVpxtD.s:2417   .text:0000000000000ef4 .L0 
     /tmp/ccGVpxtD.s:2419   .text:0000000000000ef8 .L0 
     /tmp/ccGVpxtD.s:2420   .text:0000000000000ef8 .L0 
     /tmp/ccGVpxtD.s:2422   .text:0000000000000efc .L0 
     /tmp/ccGVpxtD.s:2423   .text:0000000000000efc .L0 
     /tmp/ccGVpxtD.s:2425   .text:0000000000000f00 .L0 
     /tmp/ccGVpxtD.s:2426   .text:0000000000000f00 .L0 
     /tmp/ccGVpxtD.s:2428   .text:0000000000000f04 .L0 
     /tmp/ccGVpxtD.s:2431   .text:0000000000000f0c .L0 
     /tmp/ccGVpxtD.s:2432   .text:0000000000000f0c .L0 
     /tmp/ccGVpxtD.s:2437   .text:0000000000000f14 .L0 
     /tmp/ccGVpxtD.s:2438   .text:0000000000000f18 .L0 
     /tmp/ccGVpxtD.s:2440   .text:0000000000000f1c .L0 
     /tmp/ccGVpxtD.s:2441   .text:0000000000000f1c .L0 
     /tmp/ccGVpxtD.s:2443   .text:0000000000000f20 .L0 
     /tmp/ccGVpxtD.s:2445   .text:0000000000000f24 .L0 
     /tmp/ccGVpxtD.s:2448   .text:0000000000000f28 .L0 
     /tmp/ccGVpxtD.s:2450   .text:0000000000000f2c .L0 
     /tmp/ccGVpxtD.s:2452   .text:0000000000000f30 .L0 
     /tmp/ccGVpxtD.s:2454   .text:0000000000000f34 .L0 
     /tmp/ccGVpxtD.s:2460   .text:0000000000000f34 _ZN12kmem_cache_s18kmem_cache_destroyEm
     /tmp/ccGVpxtD.s:2463   .text:0000000000000f34 .L0 
     /tmp/ccGVpxtD.s:2465   .text:0000000000000f34 .L0 
     /tmp/ccGVpxtD.s:2466   .text:0000000000000f38 .L0 
     /tmp/ccGVpxtD.s:2473   .text:0000000000000f50 .L0 
     /tmp/ccGVpxtD.s:2474   .text:0000000000000f50 .L0 
     /tmp/ccGVpxtD.s:2475   .text:0000000000000f50 .L0 
     /tmp/ccGVpxtD.s:2476   .text:0000000000000f50 .L0 
     /tmp/ccGVpxtD.s:2477   .text:0000000000000f50 .L0 
     /tmp/ccGVpxtD.s:2478   .text:0000000000000f50 .L0 
     /tmp/ccGVpxtD.s:2480   .text:0000000000000f54 .L0 
     /tmp/ccGVpxtD.s:2485   .text:0000000000000f5c .L0 
     /tmp/ccGVpxtD.s:2486   .text:0000000000000f5c .L0 
     /tmp/ccGVpxtD.s:2494   .text:0000000000000f64 .L0 
     /tmp/ccGVpxtD.s:2497   .text:0000000000000f64 .L0 
     /tmp/ccGVpxtD.s:2498   .text:0000000000000f64 .L0 
     /tmp/ccGVpxtD.s:2503   .text:0000000000000f78 .L0 
     /tmp/ccGVpxtD.s:2507   .text:0000000000000f7c .L0 
     /tmp/ccGVpxtD.s:2508   .text:0000000000000f7c .L0 
     /tmp/ccGVpxtD.s:2511   .text:0000000000000f80 .L0 
     /tmp/ccGVpxtD.s:2512   .text:0000000000000f80 .L0 
     /tmp/ccGVpxtD.s:2513   .text:0000000000000f80 .L0 
     /tmp/ccGVpxtD.s:2516   .text:0000000000000f84 .L0 
     /tmp/ccGVpxtD.s:2517   .text:0000000000000f84 .L0 
     /tmp/ccGVpxtD.s:2526   .text:0000000000000f9c .L0 
     /tmp/ccGVpxtD.s:2527   .text:0000000000000f9c .L0 
     /tmp/ccGVpxtD.s:2528   .text:0000000000000f9c .L0 
     /tmp/ccGVpxtD.s:2541   .text:0000000000000fc8 .L0 
     /tmp/ccGVpxtD.s:2542   .text:0000000000000fc8 .L0 
     /tmp/ccGVpxtD.s:2543   .text:0000000000000fc8 .L0 
     /tmp/ccGVpxtD.s:2551   .text:0000000000000fd0 .L0 
     /tmp/ccGVpxtD.s:2558   .text:0000000000000fec .L0 
     /tmp/ccGVpxtD.s:2562   .text:0000000000000fec .L0 
     /tmp/ccGVpxtD.s:2563   .text:0000000000000fec .L0 
     /tmp/ccGVpxtD.s:2568   .text:0000000000001000 .L0 
GAS LISTING /tmp/ccGVpxtD.s 			page 87


     /tmp/ccGVpxtD.s:2572   .text:0000000000001004 .L0 
     /tmp/ccGVpxtD.s:2573   .text:0000000000001004 .L0 
     /tmp/ccGVpxtD.s:2576   .text:0000000000001008 .L0 
     /tmp/ccGVpxtD.s:2577   .text:0000000000001008 .L0 
     /tmp/ccGVpxtD.s:2578   .text:0000000000001008 .L0 
     /tmp/ccGVpxtD.s:2581   .text:000000000000100c .L0 
     /tmp/ccGVpxtD.s:2582   .text:000000000000100c .L0 
     /tmp/ccGVpxtD.s:2591   .text:0000000000001024 .L0 
     /tmp/ccGVpxtD.s:2592   .text:0000000000001024 .L0 
     /tmp/ccGVpxtD.s:2593   .text:0000000000001024 .L0 
     /tmp/ccGVpxtD.s:2601   .text:0000000000001034 .L0 
     /tmp/ccGVpxtD.s:2602   .text:0000000000001034 .L0 
     /tmp/ccGVpxtD.s:2603   .text:0000000000001034 .L0 
     /tmp/ccGVpxtD.s:2611   .text:000000000000103c .L0 
     /tmp/ccGVpxtD.s:2618   .text:0000000000001058 .L0 
     /tmp/ccGVpxtD.s:2622   .text:0000000000001058 .L0 
     /tmp/ccGVpxtD.s:2623   .text:0000000000001058 .L0 
     /tmp/ccGVpxtD.s:2628   .text:000000000000106c .L0 
     /tmp/ccGVpxtD.s:2632   .text:0000000000001070 .L0 
     /tmp/ccGVpxtD.s:2633   .text:0000000000001070 .L0 
     /tmp/ccGVpxtD.s:2636   .text:0000000000001074 .L0 
     /tmp/ccGVpxtD.s:2637   .text:0000000000001074 .L0 
     /tmp/ccGVpxtD.s:2638   .text:0000000000001074 .L0 
     /tmp/ccGVpxtD.s:2641   .text:0000000000001078 .L0 
     /tmp/ccGVpxtD.s:2642   .text:0000000000001078 .L0 
     /tmp/ccGVpxtD.s:2651   .text:0000000000001090 .L0 
     /tmp/ccGVpxtD.s:2652   .text:0000000000001090 .L0 
     /tmp/ccGVpxtD.s:2653   .text:0000000000001090 .L0 
     /tmp/ccGVpxtD.s:2661   .text:00000000000010a0 .L0 
     /tmp/ccGVpxtD.s:2662   .text:00000000000010a0 .L0 
     /tmp/ccGVpxtD.s:2670   .text:00000000000010ac .L0 
     /tmp/ccGVpxtD.s:2681   .text:00000000000010cc .L0 
     /tmp/ccGVpxtD.s:2682   .text:00000000000010cc .L0 
     /tmp/ccGVpxtD.s:2683   .text:00000000000010cc .L0 
     /tmp/ccGVpxtD.s:2685   .text:00000000000010d0 .L0 
     /tmp/ccGVpxtD.s:2689   .text:00000000000010d4 .L0 
     /tmp/ccGVpxtD.s:2690   .text:00000000000010d4 .L0 
     /tmp/ccGVpxtD.s:2692   .text:00000000000010d8 .L0 
     /tmp/ccGVpxtD.s:2693   .text:00000000000010d8 .L0 
     /tmp/ccGVpxtD.s:2695   .text:00000000000010dc .L0 
     /tmp/ccGVpxtD.s:2697   .text:00000000000010e0 .L0 
     /tmp/ccGVpxtD.s:2699   .text:00000000000010e4 .L0 
     /tmp/ccGVpxtD.s:2700   .text:00000000000010e4 .L0 
     /tmp/ccGVpxtD.s:2702   .text:00000000000010e8 .L0 
     /tmp/ccGVpxtD.s:2704   .text:00000000000010ec .L0 
     /tmp/ccGVpxtD.s:2705   .text:00000000000010ec .L0 
     /tmp/ccGVpxtD.s:2710   .text:00000000000010f0 .L0 
     /tmp/ccGVpxtD.s:2711   .text:00000000000010f0 .L0 
     /tmp/ccGVpxtD.s:2712   .text:00000000000010f0 .L0 
     /tmp/ccGVpxtD.s:2717   .text:00000000000010fc .L0 
     /tmp/ccGVpxtD.s:2721   .text:00000000000010fc .L0 
     /tmp/ccGVpxtD.s:2722   .text:00000000000010fc .L0 
     /tmp/ccGVpxtD.s:2727   .text:0000000000001110 .L0 
     /tmp/ccGVpxtD.s:2728   .text:0000000000001110 .L0 
     /tmp/ccGVpxtD.s:2733   .text:0000000000001118 .L0 
     /tmp/ccGVpxtD.s:2737   .text:000000000000111c .L0 
     /tmp/ccGVpxtD.s:2738   .text:0000000000001120 .L0 
GAS LISTING /tmp/ccGVpxtD.s 			page 88


     /tmp/ccGVpxtD.s:2740   .text:0000000000001124 .L0 
     /tmp/ccGVpxtD.s:2741   .text:0000000000001124 .L0 
     /tmp/ccGVpxtD.s:2743   .text:0000000000001128 .L0 
     /tmp/ccGVpxtD.s:2745   .text:000000000000112c .L0 
     /tmp/ccGVpxtD.s:2748   .text:0000000000001130 .L0 
     /tmp/ccGVpxtD.s:2750   .text:0000000000001134 .L0 
     /tmp/ccGVpxtD.s:2753   .text:0000000000001138 .L0 
     /tmp/ccGVpxtD.s:2755   .text:000000000000113c .L0 
     /tmp/ccGVpxtD.s:2778   .bss:0000000000000000 _ZN12kmem_cache_s4headE
     /tmp/ccGVpxtD.s:2775   .bss:0000000000000000 .LANCHOR0
     /tmp/ccGVpxtD.s:2786   .text:000000000000113c .L0 
     /tmp/ccGVpxtD.s:39     .text:0000000000000024 .L0 
     /tmp/ccGVpxtD.s:56     .text:0000000000000044 .L0 
     /tmp/ccGVpxtD.s:108    .text:000000000000009c .L0 
     /tmp/ccGVpxtD.s:112    .text:00000000000000b0 .L0 
     /tmp/ccGVpxtD.s:221    .text:0000000000000150 .L0 
     /tmp/ccGVpxtD.s:245    .text:000000000000016c .L0 
     /tmp/ccGVpxtD.s:257    .text:0000000000000180 .L0 
     /tmp/ccGVpxtD.s:327    .text:00000000000001f4 .L0 
     /tmp/ccGVpxtD.s:332    .text:0000000000000208 .L0 
     /tmp/ccGVpxtD.s:392    .text:0000000000000270 .L0 
     /tmp/ccGVpxtD.s:999    .text:0000000000000590 .L0 
     /tmp/ccGVpxtD.s:1189   .text:0000000000000684 .L0 
     /tmp/ccGVpxtD.s:1233   .rodata.str1.8:0000000000000000 .LC0
     /tmp/ccGVpxtD.s:1317   .text:00000000000006ec .L0 
     /tmp/ccGVpxtD.s:1236   .rodata.str1.8:0000000000000038 .LC1
     /tmp/ccGVpxtD.s:1323   .text:00000000000006fc .L0 
     /tmp/ccGVpxtD.s:1239   .rodata.str1.8:0000000000000040 .LC2
     /tmp/ccGVpxtD.s:1333   .text:0000000000000718 .L0 
     /tmp/ccGVpxtD.s:1242   .rodata.str1.8:0000000000000048 .LC3
     /tmp/ccGVpxtD.s:1338   .text:0000000000000728 .L0 
     /tmp/ccGVpxtD.s:1350   .text:000000000000074c .L0 
     /tmp/ccGVpxtD.s:1245   .rodata.str1.8:0000000000000060 .LC4
     /tmp/ccGVpxtD.s:1375   .text:000000000000077c .L0 
     /tmp/ccGVpxtD.s:1387   .text:00000000000007a0 .L0 
     /tmp/ccGVpxtD.s:1248   .rodata.str1.8:0000000000000080 .LC5
     /tmp/ccGVpxtD.s:1392   .text:00000000000007b0 .L0 
     /tmp/ccGVpxtD.s:1404   .text:00000000000007d4 .L0 
     /tmp/ccGVpxtD.s:1251   .rodata.str1.8:0000000000000098 .LC6
     /tmp/ccGVpxtD.s:1409   .text:00000000000007e4 .L0 
     /tmp/ccGVpxtD.s:1421   .text:0000000000000808 .L0 
     /tmp/ccGVpxtD.s:1254   .rodata.str1.8:00000000000000c8 .LC7
     /tmp/ccGVpxtD.s:1426   .text:0000000000000818 .L0 
     /tmp/ccGVpxtD.s:1438   .text:000000000000083c .L0 
     /tmp/ccGVpxtD.s:1257   .rodata.str1.8:00000000000000e8 .LC8
     /tmp/ccGVpxtD.s:1443   .text:000000000000084c .L0 
     /tmp/ccGVpxtD.s:1260   .rodata.str1.8:00000000000000f8 .LC9
     /tmp/ccGVpxtD.s:1469   .text:0000000000000878 .L0 
     /tmp/ccGVpxtD.s:1482   .text:0000000000000890 .L0 
     /tmp/ccGVpxtD.s:1263   .rodata.str1.8:0000000000000100 .LC10
     /tmp/ccGVpxtD.s:1487   .text:00000000000008a0 .L0 
     /tmp/ccGVpxtD.s:1513   .text:00000000000008cc .L0 
     /tmp/ccGVpxtD.s:1526   .text:00000000000008e4 .L0 
     /tmp/ccGVpxtD.s:1266   .rodata.str1.8:0000000000000110 .LC11
     /tmp/ccGVpxtD.s:1531   .text:00000000000008f4 .L0 
     /tmp/ccGVpxtD.s:1557   .text:0000000000000920 .L0 
     /tmp/ccGVpxtD.s:1570   .text:0000000000000938 .L0 
GAS LISTING /tmp/ccGVpxtD.s 			page 89


     /tmp/ccGVpxtD.s:1269   .rodata.str1.8:0000000000000118 .LC12
     /tmp/ccGVpxtD.s:1575   .text:0000000000000948 .L0 
     /tmp/ccGVpxtD.s:1587   .text:000000000000096c .L0 
     /tmp/ccGVpxtD.s:1272   .rodata.str1.8:0000000000000138 .LC13
     /tmp/ccGVpxtD.s:1592   .text:000000000000097c .L0 
     /tmp/ccGVpxtD.s:1604   .text:00000000000009a0 .L0 
     /tmp/ccGVpxtD.s:1275   .rodata.str1.8:0000000000000160 .LC14
     /tmp/ccGVpxtD.s:1609   .text:00000000000009b0 .L0 
     /tmp/ccGVpxtD.s:1630   .text:00000000000009e0 .L0 
     /tmp/ccGVpxtD.s:1278   .rodata.str1.8:0000000000000180 .LC15
     /tmp/ccGVpxtD.s:1660   .text:0000000000000a18 .L0 
     /tmp/ccGVpxtD.s:1281   .rodata.str1.8:00000000000001a0 .LC16
     /tmp/ccGVpxtD.s:1672   .text:0000000000000a3c .L0 
     /tmp/ccGVpxtD.s:1684   .text:0000000000000a60 .L0 
     /tmp/ccGVpxtD.s:1284   .rodata.str1.8:00000000000001a8 .LC17
     /tmp/ccGVpxtD.s:1689   .text:0000000000000a70 .L0 
     /tmp/ccGVpxtD.s:1705   .text:0000000000000a9c .L0 
     /tmp/ccGVpxtD.s:1731   .text:0000000000000ad8 .L0 
     /tmp/ccGVpxtD.s:1287   .rodata.str1.8:00000000000001d0 .LC18
     /tmp/ccGVpxtD.s:1736   .text:0000000000000ae8 .L0 
     /tmp/ccGVpxtD.s:1764   .rodata.str1.8:0000000000000208 .LC19
     /tmp/ccGVpxtD.s:1789   .text:0000000000000b2c .L0 
     /tmp/ccGVpxtD.s:1795   .text:0000000000000b3c .L0 
     /tmp/ccGVpxtD.s:1767   .rodata.str1.8:0000000000000230 .LC20
     /tmp/ccGVpxtD.s:1815   .text:0000000000000b5c .L0 
     /tmp/ccGVpxtD.s:2366   .text:0000000000000e90 .L0 
     /tmp/ccGVpxtD.s:2370   .text:0000000000000ea4 .L0 
     /tmp/ccGVpxtD.s:2379   .text:0000000000000eb0 .L0 
     /tmp/ccGVpxtD.s:2408   .text:0000000000000ee4 .L0 
     /tmp/ccGVpxtD.s:2499   .text:0000000000000f68 .L0 
     /tmp/ccGVpxtD.s:2528   .text:0000000000000f9c .L0 
     /tmp/ccGVpxtD.s:2530   .text:0000000000000fa8 .L0 
     /tmp/ccGVpxtD.s:2534   .text:0000000000000fbc .L0 
     /tmp/ccGVpxtD.s:2551   .text:0000000000000fd0 .L0 
     /tmp/ccGVpxtD.s:2555   .text:0000000000000fe4 .L0 
     /tmp/ccGVpxtD.s:2564   .text:0000000000000ff0 .L0 
     /tmp/ccGVpxtD.s:2593   .text:0000000000001024 .L0 
     /tmp/ccGVpxtD.s:2611   .text:000000000000103c .L0 
     /tmp/ccGVpxtD.s:2615   .text:0000000000001050 .L0 
     /tmp/ccGVpxtD.s:2624   .text:000000000000105c .L0 
     /tmp/ccGVpxtD.s:2653   .text:0000000000001090 .L0 
     /tmp/ccGVpxtD.s:2662   .text:00000000000010a0 .L0 
     /tmp/ccGVpxtD.s:2670   .text:00000000000010ac .L0 
     /tmp/ccGVpxtD.s:2674   .text:00000000000010c0 .L0 
     /tmp/ccGVpxtD.s:2712   .text:00000000000010f0 .L0 
     /tmp/ccGVpxtD.s:2723   .text:0000000000001100 .L0 
     /tmp/ccGVpxtD.s:103    .text:000000000000009c .L8
     /tmp/ccGVpxtD.s:115    .text:00000000000000bc .L3
     /tmp/ccGVpxtD.s:86     .text:000000000000007c .L4
     /tmp/ccGVpxtD.s:42     .text:0000000000000030 .L2
     /tmp/ccGVpxtD.s:153    .text:00000000000000ec .L5
     /tmp/ccGVpxtD.s:129    .text:00000000000000c8 .L6
     /tmp/ccGVpxtD.s:237    .text:000000000000016c .L10
     /tmp/ccGVpxtD.s:427    .text:00000000000002ac .L18
     /tmp/ccGVpxtD.s:223    .text:0000000000000158 .L12
     /tmp/ccGVpxtD.s:323    .text:00000000000001f4 .L21
     /tmp/ccGVpxtD.s:371    .text:0000000000000250 .L19
GAS LISTING /tmp/ccGVpxtD.s 			page 90


     /tmp/ccGVpxtD.s:305    .text:00000000000001d8 .L15
     /tmp/ccGVpxtD.s:249    .text:0000000000000178 .L13
     /tmp/ccGVpxtD.s:378    .text:000000000000025c .L16
     /tmp/ccGVpxtD.s:335    .text:0000000000000214 .L17
     /tmp/ccGVpxtD.s:341    .text:0000000000000218 .L14
     /tmp/ccGVpxtD.s:400    .text:0000000000000284 .L9
     /tmp/ccGVpxtD.s:485    .text:00000000000002e8 .L23
     /tmp/ccGVpxtD.s:468    .text:00000000000002d0 .L24
     /tmp/ccGVpxtD.s:511    .text:0000000000000310 .L25
     /tmp/ccGVpxtD.s:501    .text:0000000000000304 .L22
     /tmp/ccGVpxtD.s:582    .text:0000000000000364 .L29
     /tmp/ccGVpxtD.s:565    .text:000000000000034c .L30
     /tmp/ccGVpxtD.s:669    .text:00000000000003d0 .L41
     /tmp/ccGVpxtD.s:769    .text:0000000000000458 .L39
     /tmp/ccGVpxtD.s:796    .text:0000000000000484 .L33
     /tmp/ccGVpxtD.s:656    .text:00000000000003c8 .L34
     /tmp/ccGVpxtD.s:717    .text:0000000000000420 .L35
     /tmp/ccGVpxtD.s:728    .text:0000000000000430 .L36
     /tmp/ccGVpxtD.s:790    .text:000000000000047c .L37
     /tmp/ccGVpxtD.s:642    .text:00000000000003bc .L38
     /tmp/ccGVpxtD.s:952    .text:0000000000000554 .L40
     /tmp/ccGVpxtD.s:833    .text:00000000000004a0 .L47
     /tmp/ccGVpxtD.s:918    .text:0000000000000524 .L46
     /tmp/ccGVpxtD.s:944    .text:0000000000000550 .L48
     /tmp/ccGVpxtD.s:820    .text:0000000000000498 .L42
     /tmp/ccGVpxtD.s:881    .text:00000000000004f0 .L43
     /tmp/ccGVpxtD.s:892    .text:0000000000000500 .L44
     /tmp/ccGVpxtD.s:809    .text:000000000000048c .L45
     /tmp/ccGVpxtD.s:1018   .text:00000000000005b8 .L50
     /tmp/ccGVpxtD.s:1001   .text:0000000000000598 .L52
     /tmp/ccGVpxtD.s:1076   .text:00000000000005fc .L54
     /tmp/ccGVpxtD.s:1064   .text:00000000000005ec .L56
     /tmp/ccGVpxtD.s:1133   .text:0000000000000640 .L59
     /tmp/ccGVpxtD.s:1118   .text:0000000000000630 .L60
     /tmp/ccGVpxtD.s:1156   .text:0000000000000660 .L62
     /tmp/ccGVpxtD.s:1141   .text:000000000000064c .L61
     /tmp/ccGVpxtD.s:1208   .text:00000000000006ac .L67
     /tmp/ccGVpxtD.s:1212   .text:00000000000006b0 .L65
     /tmp/ccGVpxtD.s:1191   .text:000000000000068c .L66
     /tmp/ccGVpxtD.s:1478   .text:0000000000000890 .L70
     /tmp/ccGVpxtD.s:1451   .text:0000000000000860 .L71
     /tmp/ccGVpxtD.s:1522   .text:00000000000008e4 .L72
     /tmp/ccGVpxtD.s:1495   .text:00000000000008b4 .L73
     /tmp/ccGVpxtD.s:1566   .text:0000000000000938 .L74
     /tmp/ccGVpxtD.s:1539   .text:0000000000000908 .L75
     /tmp/ccGVpxtD.s:1811   .text:0000000000000b5c .L78
     /tmp/ccGVpxtD.s:1797   .text:0000000000000b44 .L79
     /tmp/ccGVpxtD.s:1883   .text:0000000000000bd0 .L82
     /tmp/ccGVpxtD.s:1865   .text:0000000000000bb0 .L83
     /tmp/ccGVpxtD.s:1922   .text:0000000000000c14 .L85
     /tmp/ccGVpxtD.s:1901   .text:0000000000000bf4 .L81
     /tmp/ccGVpxtD.s:2040   .text:0000000000000cb4 .L93
     /tmp/ccGVpxtD.s:2123   .text:0000000000000d24 .L91
     /tmp/ccGVpxtD.s:2022   .text:0000000000000ca0 .L87
     /tmp/ccGVpxtD.s:2202   .text:0000000000000d94 .L98
     /tmp/ccGVpxtD.s:2178   .text:0000000000000d74 .L95
     /tmp/ccGVpxtD.s:2184   .text:0000000000000d7c .L94
GAS LISTING /tmp/ccGVpxtD.s 			page 91


     /tmp/ccGVpxtD.s:2307   .text:0000000000000e48 .L104
     /tmp/ccGVpxtD.s:2261   .text:0000000000000df8 .L102
     /tmp/ccGVpxtD.s:2282   .text:0000000000000e24 .L99
     /tmp/ccGVpxtD.s:2257   .text:0000000000000df4 .L101
     /tmp/ccGVpxtD.s:2352   .text:0000000000000e84 .L114
     /tmp/ccGVpxtD.s:2385   .text:0000000000000ec4 .L112
     /tmp/ccGVpxtD.s:2435   .text:0000000000000f14 .L107
     /tmp/ccGVpxtD.s:2412   .text:0000000000000ef4 .L110
     /tmp/ccGVpxtD.s:2371   .text:0000000000000eac .L111
     /tmp/ccGVpxtD.s:2362   .text:0000000000000e90 .L115
     /tmp/ccGVpxtD.s:2505   .text:0000000000000f7c .L119
     /tmp/ccGVpxtD.s:2537   .text:0000000000000fc8 .L117
     /tmp/ccGVpxtD.s:2490   .text:0000000000000f64 .L118
     /tmp/ccGVpxtD.s:2570   .text:0000000000001004 .L122
     /tmp/ccGVpxtD.s:2597   .text:0000000000001034 .L120
     /tmp/ccGVpxtD.s:2556   .text:0000000000000fec .L121
     /tmp/ccGVpxtD.s:2547   .text:0000000000000fd0 .L132
     /tmp/ccGVpxtD.s:2630   .text:0000000000001070 .L125
     /tmp/ccGVpxtD.s:2657   .text:00000000000010a0 .L123
     /tmp/ccGVpxtD.s:2616   .text:0000000000001058 .L124
     /tmp/ccGVpxtD.s:2607   .text:000000000000103c .L133
     /tmp/ccGVpxtD.s:2687   .text:00000000000010d4 .L129
     /tmp/ccGVpxtD.s:2715   .text:00000000000010fc .L128
     /tmp/ccGVpxtD.s:2731   .text:0000000000001118 .L130
     /tmp/ccGVpxtD.s:2677   .text:00000000000010cc .L127
     /tmp/ccGVpxtD.s:2666   .text:00000000000010ac .L134
     /tmp/ccGVpxtD.s:2735   .text:000000000000111c .L126
     /tmp/ccGVpxtD.s:5935   .debug_abbrev:0000000000000000 .Ldebug_abbrev0
     /tmp/ccGVpxtD.s:9132   .debug_str:0000000000000890 .LASF143
     /tmp/ccGVpxtD.s:9118   .debug_str:000000000000083b .LASF144
     /tmp/ccGVpxtD.s:8904   .debug_str:000000000000005d .LASF145
     /tmp/ccGVpxtD.s:5      .text:0000000000000000 .Ltext0
     /tmp/ccGVpxtD.s:2781   .text:000000000000113c .Letext0
     /tmp/ccGVpxtD.s:8894   .debug_line:0000000000000000 .Ldebug_line0
     /tmp/ccGVpxtD.s:9006   .debug_str:0000000000000460 .LASF0
     /tmp/ccGVpxtD.s:9000   .debug_str:000000000000043e .LASF1
     /tmp/ccGVpxtD.s:9016   .debug_str:00000000000004a7 .LASF2
     /tmp/ccGVpxtD.s:9078   .debug_str:00000000000006e6 .LASF3
     /tmp/ccGVpxtD.s:9088   .debug_str:0000000000000757 .LASF4
     /tmp/ccGVpxtD.s:8898   .debug_str:0000000000000024 .LASF5
     /tmp/ccGVpxtD.s:9056   .debug_str:0000000000000600 .LASF6
     /tmp/ccGVpxtD.s:9010   .debug_str:0000000000000477 .LASF7
     /tmp/ccGVpxtD.s:9034   .debug_str:000000000000052f .LASF8
     /tmp/ccGVpxtD.s:8976   .debug_str:0000000000000364 .LASF9
     /tmp/ccGVpxtD.s:8988   .debug_str:00000000000003e0 .LASF10
     /tmp/ccGVpxtD.s:8924   .debug_str:0000000000000148 .LASF11
     /tmp/ccGVpxtD.s:9144   .debug_str:00000000000009ad .LASF12
     /tmp/ccGVpxtD.s:8964   .debug_str:00000000000002e9 .LASF13
     /tmp/ccGVpxtD.s:8936   .debug_str:00000000000001d1 .LASF14
     /tmp/ccGVpxtD.s:8922   .debug_str:0000000000000138 .LASF15
     /tmp/ccGVpxtD.s:9114   .debug_str:0000000000000825 .LASF16
     /tmp/ccGVpxtD.s:8944   .debug_str:000000000000021e .LASF17
     /tmp/ccGVpxtD.s:9106   .debug_str:00000000000007fb .LASF18
     /tmp/ccGVpxtD.s:8956   .debug_str:00000000000002ae .LASF31
     /tmp/ccGVpxtD.s:9150   .debug_str:00000000000009d0 .LASF43
     /tmp/ccGVpxtD.s:8926   .debug_str:0000000000000157 .LASF19
     /tmp/ccGVpxtD.s:9014   .debug_str:00000000000004a2 .LASF20
GAS LISTING /tmp/ccGVpxtD.s 			page 92


     /tmp/ccGVpxtD.s:8902   .debug_str:0000000000000052 .LASF25
     /tmp/ccGVpxtD.s:9050   .debug_str:00000000000005a9 .LASF27
     /tmp/ccGVpxtD.s:9116   .debug_str:0000000000000831 .LASF21
     /tmp/ccGVpxtD.s:9042   .debug_str:000000000000057a .LASF23
     /tmp/ccGVpxtD.s:9170   .debug_str:0000000000000acb .LASF22
     /tmp/ccGVpxtD.s:8978   .debug_str:0000000000000374 .LASF24
     /tmp/ccGVpxtD.s:8966   .debug_str:00000000000002f8 .LASF26
     /tmp/ccGVpxtD.s:9054   .debug_str:00000000000005d3 .LASF28
     /tmp/ccGVpxtD.s:9174   .debug_str:0000000000000ae8 .LASF29
     /tmp/ccGVpxtD.s:8934   .debug_str:00000000000001a2 .LASF30
     /tmp/ccGVpxtD.s:8990   .debug_str:00000000000003ee .LASF32
     /tmp/ccGVpxtD.s:9030   .debug_str:000000000000051b .LASF33
     /tmp/ccGVpxtD.s:9164   .debug_str:0000000000000aa0 .LASF34
     /tmp/ccGVpxtD.s:9188   .debug_str:0000000000000bb4 .LASF35
     /tmp/ccGVpxtD.s:8998   .debug_str:0000000000000434 .LASF42
     /tmp/ccGVpxtD.s:9038   .debug_str:000000000000054e .LASF49
     /tmp/ccGVpxtD.s:9086   .debug_str:0000000000000749 .LASF36
     /tmp/ccGVpxtD.s:8984   .debug_str:00000000000003b8 .LASF37
     /tmp/ccGVpxtD.s:8992   .debug_str:0000000000000403 .LASF38
     /tmp/ccGVpxtD.s:9152   .debug_str:00000000000009d8 .LASF39
     /tmp/ccGVpxtD.s:8930   .debug_str:0000000000000170 .LASF40
     /tmp/ccGVpxtD.s:9076   .debug_str:00000000000006b7 .LASF41
     /tmp/ccGVpxtD.s:8958   .debug_str:00000000000002ba .LASF103
     /tmp/ccGVpxtD.s:9070   .debug_str:000000000000068b .LASF146
     /tmp/ccGVpxtD.s:9128   .debug_str:0000000000000883 .LASF44
     /tmp/ccGVpxtD.s:9020   .debug_str:00000000000004c0 .LASF45
     /tmp/ccGVpxtD.s:9052   .debug_str:00000000000005c8 .LASF46
     /tmp/ccGVpxtD.s:9138   .debug_str:000000000000097d .LASF47
     /tmp/ccGVpxtD.s:9036   .debug_str:0000000000000543 .LASF48
     /tmp/ccGVpxtD.s:9178   .debug_str:0000000000000b2f .LASF50
     /tmp/ccGVpxtD.s:8974   .debug_str:0000000000000347 .LASF51
     /tmp/ccGVpxtD.s:8948   .debug_str:0000000000000247 .LASF52
     /tmp/ccGVpxtD.s:8972   .debug_str:000000000000031c .LASF53
     /tmp/ccGVpxtD.s:9064   .debug_str:0000000000000642 .LASF54
     /tmp/ccGVpxtD.s:9012   .debug_str:000000000000048a .LASF55
     /tmp/ccGVpxtD.s:9162   .debug_str:0000000000000a7c .LASF56
     /tmp/ccGVpxtD.s:9184   .debug_str:0000000000000b80 .LASF57
     /tmp/ccGVpxtD.s:8896   .debug_str:0000000000000000 .LASF58
     /tmp/ccGVpxtD.s:9148   .debug_str:00000000000009c7 .LASF59
     /tmp/ccGVpxtD.s:8912   .debug_str:00000000000000ca .LASF60
     /tmp/ccGVpxtD.s:9058   .debug_str:0000000000000613 .LASF61
     /tmp/ccGVpxtD.s:9120   .debug_str:0000000000000848 .LASF62
     /tmp/ccGVpxtD.s:9032   .debug_str:000000000000052a .LASF63
     /tmp/ccGVpxtD.s:9102   .debug_str:00000000000007c8 .LASF64
     /tmp/ccGVpxtD.s:9108   .debug_str:0000000000000811 .LASF65
     /tmp/ccGVpxtD.s:8950   .debug_str:0000000000000270 .LASF66
     /tmp/ccGVpxtD.s:8982   .debug_str:00000000000003aa .LASF67
     /tmp/ccGVpxtD.s:9142   .debug_str:00000000000009a2 .LASF68
     /tmp/ccGVpxtD.s:8962   .debug_str:00000000000002da .LASF69
     /tmp/ccGVpxtD.s:9062   .debug_str:0000000000000630 .LASF70
     /tmp/ccGVpxtD.s:9146   .debug_str:00000000000009b8 .LASF71
     /tmp/ccGVpxtD.s:9074   .debug_str:00000000000006af .LASF72
     /tmp/ccGVpxtD.s:9136   .debug_str:0000000000000971 .LASF73
     /tmp/ccGVpxtD.s:9126   .debug_str:0000000000000874 .LASF74
     /tmp/ccGVpxtD.s:9046   .debug_str:000000000000059e .LASF75
     /tmp/ccGVpxtD.s:8986   .debug_str:00000000000003db .LASF76
     /tmp/ccGVpxtD.s:9008   .debug_str:0000000000000472 .LASF77
GAS LISTING /tmp/ccGVpxtD.s 			page 93


     /tmp/ccGVpxtD.s:8940   .debug_str:00000000000001f2 .LASF78
     /tmp/ccGVpxtD.s:9130   .debug_str:0000000000000888 .LASF79
     /tmp/ccGVpxtD.s:9044   .debug_str:0000000000000597 .LASF80
     /tmp/ccGVpxtD.s:9122   .debug_str:000000000000085d .LASF81
     /tmp/ccGVpxtD.s:8932   .debug_str:000000000000017b .LASF82
     /tmp/ccGVpxtD.s:8938   .debug_str:00000000000001e1 .LASF83
     /tmp/ccGVpxtD.s:9104   .debug_str:00000000000007d5 .LASF84
     /tmp/ccGVpxtD.s:8918   .debug_str:000000000000010c .LASF85
     /tmp/ccGVpxtD.s:9180   .debug_str:0000000000000b4d .LASF86
     /tmp/ccGVpxtD.s:8946   .debug_str:0000000000000234 .LASF87
     /tmp/ccGVpxtD.s:8914   .debug_str:00000000000000df .LASF88
     /tmp/ccGVpxtD.s:9080   .debug_str:00000000000006f4 .LASF89
     /tmp/ccGVpxtD.s:9026   .debug_str:00000000000004e7 .LASF90
     /tmp/ccGVpxtD.s:8954   .debug_str:000000000000029c .LASF91
     /tmp/ccGVpxtD.s:9160   .debug_str:0000000000000a49 .LASF92
     /tmp/ccGVpxtD.s:9168   .debug_str:0000000000000ac3 .LASF93
     /tmp/ccGVpxtD.s:8920   .debug_str:000000000000011c .LASF94
     /tmp/ccGVpxtD.s:8970   .debug_str:0000000000000316 .LASF95
     /tmp/ccGVpxtD.s:9186   .debug_str:0000000000000b98 .LASF96
     /tmp/ccGVpxtD.s:8942   .debug_str:0000000000000201 .LASF97
     /tmp/ccGVpxtD.s:9158   .debug_str:0000000000000a17 .LASF98
     /tmp/ccGVpxtD.s:9166   .debug_str:0000000000000aad .LASF147
     /tmp/ccGVpxtD.s:9084   .debug_str:000000000000071e .LASF148
     /tmp/ccGVpxtD.s:9172   .debug_str:0000000000000ad7 .LASF99
     /tmp/ccGVpxtD.s:9098   .debug_str:0000000000000797 .LASF100
     /tmp/ccGVpxtD.s:8908   .debug_str:0000000000000096 .LASF101
     /tmp/ccGVpxtD.s:9176   .debug_str:0000000000000b03 .LASF102
     /tmp/ccGVpxtD.s:9140   .debug_str:000000000000098a .LASF104
     /tmp/ccGVpxtD.s:9124   .debug_str:000000000000086f .LASF105
     /tmp/ccGVpxtD.s:9024   .debug_str:00000000000004d0 .LASF106
     /tmp/ccGVpxtD.s:8994   .debug_str:0000000000000411 .LASF149
     /tmp/ccGVpxtD.s:2223   .text:0000000000000db4 .LFB53
     /tmp/ccGVpxtD.s:2310   .text:0000000000000e4c .LFE53
     /tmp/ccGVpxtD.s:8968   .debug_str:0000000000000311 .LASF108
     /tmp/ccGVpxtD.s:7215   .debug_loc:0000000000000000 .LLST74
     /tmp/ccGVpxtD.s:9154   .debug_str:00000000000009fb .LASF107
     /tmp/ccGVpxtD.s:7237   .debug_loc:000000000000005f .LLST75
     /tmp/ccGVpxtD.s:7255   .debug_loc:00000000000000ab .LLST76
     /tmp/ccGVpxtD.s:7273   .debug_loc:00000000000000f7 .LLST77
     /tmp/ccGVpxtD.s:2252   .text:0000000000000dec .LBB128
     /tmp/ccGVpxtD.s:2283   .text:0000000000000e24 .LBE128
     /tmp/ccGVpxtD.s:7295   .debug_loc:0000000000000156 .LLST78
     /tmp/ccGVpxtD.s:2269   .text:0000000000000e0c .LVL259
     /tmp/ccGVpxtD.s:1837   .text:0000000000000b80 .LFB52
     /tmp/ccGVpxtD.s:1928   .text:0000000000000c1c .LFE52
     /tmp/ccGVpxtD.s:7302   .debug_loc:0000000000000179 .LLST59
     /tmp/ccGVpxtD.s:9082   .debug_str:0000000000000704 .LASF109
     /tmp/ccGVpxtD.s:7324   .debug_loc:00000000000001d8 .LLST60
     /tmp/ccGVpxtD.s:9028   .debug_str:000000000000050c .LASF110
     /tmp/ccGVpxtD.s:7338   .debug_loc:0000000000000211 .LLST61
     /tmp/ccGVpxtD.s:7352   .debug_loc:000000000000024a .LLST62
     /tmp/ccGVpxtD.s:1873   .text:0000000000000bc4 .LVL219
     /tmp/ccGVpxtD.s:1892   .text:0000000000000be8 .LVL222
     /tmp/ccGVpxtD.s:1774   .text:0000000000000b18 .LFB51
     /tmp/ccGVpxtD.s:1831   .text:0000000000000b80 .LFE51
     /tmp/ccGVpxtD.s:1793   .text:0000000000000b3c .LBB112
     /tmp/ccGVpxtD.s:1812   .text:0000000000000b5c .LBE112
GAS LISTING /tmp/ccGVpxtD.s 			page 94


     /tmp/ccGVpxtD.s:7372   .debug_loc:00000000000002a7 .LLST58
     /tmp/ccGVpxtD.s:1804   .text:0000000000000b54 .LVL212
     /tmp/ccGVpxtD.s:1791   .text:0000000000000b3c .LVL210
     /tmp/ccGVpxtD.s:1817   .text:0000000000000b6c .LVL214
     /tmp/ccGVpxtD.s:1294   .text:00000000000006c8 .LFB50
     /tmp/ccGVpxtD.s:1760   .text:0000000000000b18 .LFE50
     /tmp/ccGVpxtD.s:7379   .debug_loc:00000000000002ca .LLST48
     /tmp/ccGVpxtD.s:9182   .debug_str:0000000000000b73 .LASF111
     /tmp/ccGVpxtD.s:7397   .debug_loc:0000000000000316 .LLST49
     /tmp/ccGVpxtD.s:9090   .debug_str:000000000000075e .LASF112
     /tmp/ccGVpxtD.s:7404   .debug_loc:0000000000000339 .LLST50
     /tmp/ccGVpxtD.s:9092   .debug_str:0000000000000776 .LASF113
     /tmp/ccGVpxtD.s:7411   .debug_loc:000000000000035c .LLST51
     /tmp/ccGVpxtD.s:9066   .debug_str:000000000000067a .LASF114
     /tmp/ccGVpxtD.s:7418   .debug_loc:000000000000037f .LLST52
     /tmp/ccGVpxtD.s:9112   .debug_str:000000000000081f .LASF115
     /tmp/ccGVpxtD.s:7425   .debug_loc:00000000000003a2 .LLST53
     /tmp/ccGVpxtD.s:9100   .debug_str:00000000000007bd .LASF116
     /tmp/ccGVpxtD.s:7432   .debug_loc:00000000000003c5 .LLST54
     /tmp/ccGVpxtD.s:1447   .text:000000000000085c .LBB103
     /tmp/ccGVpxtD.s:1479   .text:0000000000000890 .LBE103
     /tmp/ccGVpxtD.s:7444   .debug_loc:00000000000003ed .LLST55
     /tmp/ccGVpxtD.s:1456   .text:0000000000000864 .LBB104
     /tmp/ccGVpxtD.s:1460   .text:0000000000000864 .LBE104
     /tmp/ccGVpxtD.s:1466   .text:0000000000000878 .LVL161
     /tmp/ccGVpxtD.s:1471   .text:0000000000000888 .LVL162
     /tmp/ccGVpxtD.s:1491   .text:00000000000008b0 .LBB106
     /tmp/ccGVpxtD.s:1523   .text:00000000000008e4 .LBE106
     /tmp/ccGVpxtD.s:7451   .debug_loc:0000000000000410 .LLST56
     /tmp/ccGVpxtD.s:1500   .text:00000000000008b8 .LBB107
     /tmp/ccGVpxtD.s:1504   .text:00000000000008b8 .LBE107
     /tmp/ccGVpxtD.s:1510   .text:00000000000008cc .LVL168
     /tmp/ccGVpxtD.s:1515   .text:00000000000008dc .LVL169
     /tmp/ccGVpxtD.s:1535   .text:0000000000000904 .LBB109
     /tmp/ccGVpxtD.s:1567   .text:0000000000000938 .LBE109
     /tmp/ccGVpxtD.s:7458   .debug_loc:0000000000000433 .LLST57
     /tmp/ccGVpxtD.s:1544   .text:000000000000090c .LBB110
     /tmp/ccGVpxtD.s:1548   .text:000000000000090c .LBE110
     /tmp/ccGVpxtD.s:1554   .text:0000000000000920 .LVL175
     /tmp/ccGVpxtD.s:1559   .text:0000000000000930 .LVL176
     /tmp/ccGVpxtD.s:1320   .text:00000000000006fc .LVL137
     /tmp/ccGVpxtD.s:1325   .text:000000000000070c .LVL138
     /tmp/ccGVpxtD.s:1330   .text:0000000000000718 .LVL139
     /tmp/ccGVpxtD.s:1335   .text:0000000000000728 .LVL140
     /tmp/ccGVpxtD.s:1340   .text:0000000000000738 .LVL141
     /tmp/ccGVpxtD.s:1347   .text:000000000000074c .LVL142
     /tmp/ccGVpxtD.s:1352   .text:000000000000075c .LVL143
     /tmp/ccGVpxtD.s:1377   .text:000000000000078c .LVL146
     /tmp/ccGVpxtD.s:1384   .text:00000000000007a0 .LVL147
     /tmp/ccGVpxtD.s:1389   .text:00000000000007b0 .LVL148
     /tmp/ccGVpxtD.s:1394   .text:00000000000007c0 .LVL149
     /tmp/ccGVpxtD.s:1401   .text:00000000000007d4 .LVL150
     /tmp/ccGVpxtD.s:1406   .text:00000000000007e4 .LVL151
     /tmp/ccGVpxtD.s:1411   .text:00000000000007f4 .LVL152
     /tmp/ccGVpxtD.s:1418   .text:0000000000000808 .LVL153
     /tmp/ccGVpxtD.s:1423   .text:0000000000000818 .LVL154
     /tmp/ccGVpxtD.s:1428   .text:0000000000000828 .LVL155
GAS LISTING /tmp/ccGVpxtD.s 			page 95


     /tmp/ccGVpxtD.s:1435   .text:000000000000083c .LVL156
     /tmp/ccGVpxtD.s:1440   .text:000000000000084c .LVL157
     /tmp/ccGVpxtD.s:1445   .text:000000000000085c .LVL158
     /tmp/ccGVpxtD.s:1484   .text:00000000000008a0 .LVL164
     /tmp/ccGVpxtD.s:1489   .text:00000000000008b0 .LVL165
     /tmp/ccGVpxtD.s:1528   .text:00000000000008f4 .LVL171
     /tmp/ccGVpxtD.s:1533   .text:0000000000000904 .LVL172
     /tmp/ccGVpxtD.s:1572   .text:0000000000000948 .LVL178
     /tmp/ccGVpxtD.s:1577   .text:0000000000000958 .LVL179
     /tmp/ccGVpxtD.s:1584   .text:000000000000096c .LVL180
     /tmp/ccGVpxtD.s:1589   .text:000000000000097c .LVL181
     /tmp/ccGVpxtD.s:1594   .text:000000000000098c .LVL182
     /tmp/ccGVpxtD.s:1601   .text:00000000000009a0 .LVL183
     /tmp/ccGVpxtD.s:1606   .text:00000000000009b0 .LVL184
     /tmp/ccGVpxtD.s:1611   .text:00000000000009c0 .LVL185
     /tmp/ccGVpxtD.s:1627   .text:00000000000009e0 .LVL188
     /tmp/ccGVpxtD.s:1632   .text:00000000000009f0 .LVL189
     /tmp/ccGVpxtD.s:1662   .text:0000000000000a28 .LVL193
     /tmp/ccGVpxtD.s:1669   .text:0000000000000a3c .LVL194
     /tmp/ccGVpxtD.s:1674   .text:0000000000000a4c .LVL195
     /tmp/ccGVpxtD.s:1681   .text:0000000000000a60 .LVL196
     /tmp/ccGVpxtD.s:1686   .text:0000000000000a70 .LVL197
     /tmp/ccGVpxtD.s:1691   .text:0000000000000a80 .LVL198
     /tmp/ccGVpxtD.s:1702   .text:0000000000000a9c .LVL199
     /tmp/ccGVpxtD.s:1707   .text:0000000000000aac .LVL200
     /tmp/ccGVpxtD.s:1728   .text:0000000000000ad8 .LVL204
     /tmp/ccGVpxtD.s:1733   .text:0000000000000ae8 .LVL205
     /tmp/ccGVpxtD.s:1738   .text:0000000000000af8 .LVL206
     /tmp/ccGVpxtD.s:2461   .text:0000000000000f34 .LFB49
     /tmp/ccGVpxtD.s:2756   .text:000000000000113c .LFE49
     /tmp/ccGVpxtD.s:7465   .debug_loc:0000000000000456 .LLST85
     /tmp/ccGVpxtD.s:8916   .debug_str:0000000000000107 .LASF117
     /tmp/ccGVpxtD.s:7483   .debug_loc:00000000000004a2 .LLST86
     /tmp/ccGVpxtD.s:8906   .debug_str:0000000000000091 .LASF118
     /tmp/ccGVpxtD.s:7501   .debug_loc:00000000000004ee .LLST87
     /tmp/ccGVpxtD.s:7543   .debug_loc:00000000000005ac .LLST88
     /tmp/ccGVpxtD.s:9190   .debug_str:0000000000000bc5 .LASF119
     /tmp/ccGVpxtD.s:7598   .debug_loc:00000000000006b3 .LLST89
     /tmp/ccGVpxtD.s:8996   .debug_str:0000000000000429 .LASF120
     /tmp/ccGVpxtD.s:7626   .debug_loc:0000000000000737 .LLST90
     /tmp/ccGVpxtD.s:2491   .text:0000000000000f64 .LBB133
     /tmp/ccGVpxtD.s:8804   .debug_ranges:0000000000000000 .Ldebug_ranges0
     /tmp/ccGVpxtD.s:7646   .debug_loc:0000000000000794 .LLST91
     /tmp/ccGVpxtD.s:2532   .text:0000000000000fb8 .LVL290
     /tmp/ccGVpxtD.s:2548   .text:0000000000000fd0 .LBB137
     /tmp/ccGVpxtD.s:7654   .debug_loc:00000000000007b8 .LLST93
     /tmp/ccGVpxtD.s:2553   .text:0000000000000fe0 .LVL294
     /tmp/ccGVpxtD.s:2608   .text:000000000000103c .LBB141
     /tmp/ccGVpxtD.s:7667   .debug_loc:00000000000007f0 .LLST95
     /tmp/ccGVpxtD.s:2613   .text:000000000000104c .LVL304
     /tmp/ccGVpxtD.s:2667   .text:00000000000010ac .LBB145
     /tmp/ccGVpxtD.s:7680   .debug_loc:0000000000000828 .LLST97
     /tmp/ccGVpxtD.s:2672   .text:00000000000010bc .LVL314
     /tmp/ccGVpxtD.s:2501   .text:0000000000000f78 .LVL285
     /tmp/ccGVpxtD.s:2522   .text:0000000000000f9c .LVL289
     /tmp/ccGVpxtD.s:2566   .text:0000000000001000 .LVL296
     /tmp/ccGVpxtD.s:2587   .text:0000000000001024 .LVL300
GAS LISTING /tmp/ccGVpxtD.s 			page 96


     /tmp/ccGVpxtD.s:2626   .text:000000000000106c .LVL306
     /tmp/ccGVpxtD.s:2647   .text:0000000000001090 .LVL310
     /tmp/ccGVpxtD.s:2725   .text:0000000000001110 .LVL320
     /tmp/ccGVpxtD.s:1169   .text:0000000000000668 .LFB48
     /tmp/ccGVpxtD.s:1229   .text:00000000000006c8 .LFE48
     /tmp/ccGVpxtD.s:9022   .debug_str:00000000000004cb .LASF121
     /tmp/ccGVpxtD.s:7693   .debug_loc:0000000000000860 .LLST46
     /tmp/ccGVpxtD.s:1187   .text:0000000000000684 .LBB102
     /tmp/ccGVpxtD.s:1209   .text:00000000000006ac .LBE102
     /tmp/ccGVpxtD.s:7711   .debug_loc:00000000000008ac .LLST47
     /tmp/ccGVpxtD.s:1199   .text:00000000000006a0 .LVL131
     /tmp/ccGVpxtD.s:1092   .text:0000000000000608 .LFB47
     /tmp/ccGVpxtD.s:1163   .text:0000000000000668 .LFE47
     /tmp/ccGVpxtD.s:7718   .debug_loc:00000000000008cf .LLST43
     /tmp/ccGVpxtD.s:7740   .debug_loc:000000000000092e .LLST44
     /tmp/ccGVpxtD.s:7756   .debug_loc:0000000000000978 .LLST45
     /tmp/ccGVpxtD.s:1114   .text:000000000000062c .LVL120
     /tmp/ccGVpxtD.s:1043   .text:00000000000005d4 .LFB46
     /tmp/ccGVpxtD.s:1086   .text:0000000000000608 .LFE46
     /tmp/ccGVpxtD.s:7767   .debug_loc:00000000000009ae .LLST40
     /tmp/ccGVpxtD.s:7778   .debug_loc:00000000000009e4 .LLST41
     /tmp/ccGVpxtD.s:7790   .debug_loc:0000000000000a1b .LLST42
     /tmp/ccGVpxtD.s:979    .text:0000000000000574 .LFB45
     /tmp/ccGVpxtD.s:1037   .text:00000000000005d4 .LFE45
     /tmp/ccGVpxtD.s:7802   .debug_loc:0000000000000a52 .LLST38
     /tmp/ccGVpxtD.s:997    .text:0000000000000590 .LBB99
     /tmp/ccGVpxtD.s:1019   .text:00000000000005b8 .LBE99
     /tmp/ccGVpxtD.s:7820   .debug_loc:0000000000000a9e .LLST39
     /tmp/ccGVpxtD.s:1009   .text:00000000000005ac .LVL108
     /tmp/ccGVpxtD.s:2147   .text:0000000000000d3c .LFB44
     /tmp/ccGVpxtD.s:2217   .text:0000000000000db4 .LFE44
     /tmp/ccGVpxtD.s:7831   .debug_loc:0000000000000ad4 .LLST71
     /tmp/ccGVpxtD.s:7853   .debug_loc:0000000000000b33 .LLST72
     /tmp/ccGVpxtD.s:7868   .debug_loc:0000000000000b7c .LLST73
     /tmp/ccGVpxtD.s:9002   .debug_str:000000000000044b .LASF150
     /tmp/ccGVpxtD.s:2169   .text:0000000000000d64 .LVL247
     /tmp/ccGVpxtD.s:2175   .text:0000000000000d70 .LVL249
     /tmp/ccGVpxtD.s:2182   .text:0000000000000d7c .LVL250
     /tmp/ccGVpxtD.s:2212   .text:0000000000000dac .LVL255
     /tmp/ccGVpxtD.s:608    .text:0000000000000388 .LFB43
     /tmp/ccGVpxtD.s:973    .text:0000000000000574 .LFE43
     /tmp/ccGVpxtD.s:7883   .debug_loc:0000000000000bc5 .LLST28
     /tmp/ccGVpxtD.s:7933   .debug_loc:0000000000000ca9 .LLST29
     /tmp/ccGVpxtD.s:7983   .debug_loc:0000000000000d8d .LLST30
     /tmp/ccGVpxtD.s:8020   .debug_loc:0000000000000e37 .LLST31
     /tmp/ccGVpxtD.s:9110   .debug_str:0000000000000816 .LASF122
     /tmp/ccGVpxtD.s:8036   .debug_loc:0000000000000e81 .LLST32
     /tmp/ccGVpxtD.s:9134   .debug_str:0000000000000960 .LASF123
     /tmp/ccGVpxtD.s:8075   .debug_loc:0000000000000ee2 .LLST33
     /tmp/ccGVpxtD.s:737    .text:000000000000043c .LBB78
     /tmp/ccGVpxtD.s:747    .text:0000000000000448 .LBE78
     /tmp/ccGVpxtD.s:8096   .debug_loc:0000000000000f40 .LLST34
     /tmp/ccGVpxtD.s:706    .text:0000000000000410 .LVL81
     /tmp/ccGVpxtD.s:716    .text:0000000000000420 .LVL82
     /tmp/ccGVpxtD.s:727    .text:0000000000000430 .LVL83
     /tmp/ccGVpxtD.s:803    .text:0000000000000484 .LBB89
     /tmp/ccGVpxtD.s:948    .text:0000000000000550 .LBE89
GAS LISTING /tmp/ccGVpxtD.s 			page 97


     /tmp/ccGVpxtD.s:8103   .debug_loc:0000000000000f63 .LLST35
     /tmp/ccGVpxtD.s:8119   .debug_loc:0000000000000fad .LLST36
     /tmp/ccGVpxtD.s:901    .text:000000000000050c .LBB93
     /tmp/ccGVpxtD.s:910    .text:0000000000000518 .LBE93
     /tmp/ccGVpxtD.s:8158   .debug_loc:000000000000100e .LLST37
     /tmp/ccGVpxtD.s:870    .text:00000000000004e0 .LVL97
     /tmp/ccGVpxtD.s:880    .text:00000000000004f0 .LVL98
     /tmp/ccGVpxtD.s:891    .text:0000000000000500 .LVL99
     /tmp/ccGVpxtD.s:538    .text:0000000000000330 .LFB42
     /tmp/ccGVpxtD.s:602    .text:0000000000000388 .LFE42
     /tmp/ccGVpxtD.s:8165   .debug_loc:0000000000001031 .LLST24
     /tmp/ccGVpxtD.s:8179   .debug_loc:000000000000106a .LLST25
     /tmp/ccGVpxtD.s:9072   .debug_str:00000000000006a2 .LASF124
     /tmp/ccGVpxtD.s:9156   .debug_str:0000000000000a12 .LASF125
     /tmp/ccGVpxtD.s:8193   .debug_loc:00000000000010a3 .LLST26
     /tmp/ccGVpxtD.s:8205   .debug_loc:00000000000010da .LLST27
     /tmp/ccGVpxtD.s:441    .text:00000000000002b4 .LFB41
     /tmp/ccGVpxtD.s:532    .text:0000000000000330 .LFE41
     /tmp/ccGVpxtD.s:8221   .debug_loc:0000000000001124 .LLST19
     /tmp/ccGVpxtD.s:8246   .debug_loc:0000000000001186 .LLST20
     /tmp/ccGVpxtD.s:9096   .debug_str:0000000000000792 .LASF126
     /tmp/ccGVpxtD.s:8260   .debug_loc:00000000000011bf .LLST21
     /tmp/ccGVpxtD.s:8283   .debug_loc:000000000000121f .LLST22
     /tmp/ccGVpxtD.s:8299   .debug_loc:0000000000001269 .LLST23
     /tmp/ccGVpxtD.s:10     .text:0000000000000000 .LFB40
     /tmp/ccGVpxtD.s:186    .text:000000000000011c .LFE40
     /tmp/ccGVpxtD.s:8315   .debug_loc:00000000000012b3 .LLST0
     /tmp/ccGVpxtD.s:8333   .debug_loc:00000000000012ff .LLST1
     /tmp/ccGVpxtD.s:82     .text:0000000000000078 .LBB59
     /tmp/ccGVpxtD.s:104    .text:000000000000009c .LBE59
     /tmp/ccGVpxtD.s:8356   .debug_loc:000000000000135f .LLST4
     /tmp/ccGVpxtD.s:124    .text:00000000000000c4 .LBB62
     /tmp/ccGVpxtD.s:155    .text:00000000000000ec .LBE62
     /tmp/ccGVpxtD.s:8372   .debug_loc:00000000000013a9 .LLST5
     /tmp/ccGVpxtD.s:125    .text:00000000000000c4 .LBB63
     /tmp/ccGVpxtD.s:154    .text:00000000000000ec .LBE63
     /tmp/ccGVpxtD.s:8379   .debug_loc:00000000000013cc .LLST6
     /tmp/ccGVpxtD.s:141    .text:00000000000000dc .LVL12
     /tmp/ccGVpxtD.s:34     .text:0000000000000024 .LBB56
     /tmp/ccGVpxtD.s:8386   .debug_loc:00000000000013ef .LLST2
     /tmp/ccGVpxtD.s:110    .text:00000000000000ac .LVL9
     /tmp/ccGVpxtD.s:58     .text:0000000000000054 .LVL3
     /tmp/ccGVpxtD.s:1934   .text:0000000000000c1c .LFB39
     /tmp/ccGVpxtD.s:2141   .text:0000000000000d3c .LFE39
     /tmp/ccGVpxtD.s:8399   .debug_loc:0000000000001427 .LLST63
     /tmp/ccGVpxtD.s:2043   .text:0000000000000cb4 .LBB118
     /tmp/ccGVpxtD.s:2124   .text:0000000000000d24 .LBE118
     /tmp/ccGVpxtD.s:8421   .debug_loc:0000000000001486 .LLST67
     /tmp/ccGVpxtD.s:2088   .text:0000000000000cf4 .LBB124
     /tmp/ccGVpxtD.s:2117   .text:0000000000000d20 .LBE124
     /tmp/ccGVpxtD.s:8428   .debug_loc:00000000000014a9 .LLST70
     /tmp/ccGVpxtD.s:2061   .text:0000000000000cd8 .LBB119
     /tmp/ccGVpxtD.s:2070   .text:0000000000000ce4 .LBE119
     /tmp/ccGVpxtD.s:8440   .debug_loc:00000000000014e0 .LLST68
     /tmp/ccGVpxtD.s:2076   .text:0000000000000ce8 .LBB122
     /tmp/ccGVpxtD.s:2083   .text:0000000000000cec .LBE122
     /tmp/ccGVpxtD.s:8447   .debug_loc:0000000000001503 .LLST69
GAS LISTING /tmp/ccGVpxtD.s 			page 98


     /tmp/ccGVpxtD.s:2050   .text:0000000000000cc8 .LVL236
     /tmp/ccGVpxtD.s:1963   .text:0000000000000c44 .LBB115
     /tmp/ccGVpxtD.s:2023   .text:0000000000000ca0 .LBE115
     /tmp/ccGVpxtD.s:9048   .debug_str:00000000000005a3 .LASF127
     /tmp/ccGVpxtD.s:8454   .debug_loc:0000000000001526 .LLST64
     /tmp/ccGVpxtD.s:8461   .debug_loc:0000000000001549 .LLST65
     /tmp/ccGVpxtD.s:1994   .text:0000000000000c78 .LBB116
     /tmp/ccGVpxtD.s:2003   .text:0000000000000c84 .LBE116
     /tmp/ccGVpxtD.s:8473   .debug_loc:0000000000001580 .LLST66
     /tmp/ccGVpxtD.s:1971   .text:0000000000000c58 .LVL228
     /tmp/ccGVpxtD.s:2129   .text:0000000000000d2c .LVL244
     /tmp/ccGVpxtD.s:2316   .text:0000000000000e4c .LFB38
     /tmp/ccGVpxtD.s:2455   .text:0000000000000f34 .LFE38
     /tmp/ccGVpxtD.s:8480   .debug_loc:00000000000015a3 .LLST79
     /tmp/ccGVpxtD.s:9198   .debug_str:0000000000000c0a .LASF128
     /tmp/ccGVpxtD.s:8498   .debug_loc:00000000000015ef .LLST80
     /tmp/ccGVpxtD.s:8521   .debug_loc:000000000000165e .LLST81
     /tmp/ccGVpxtD.s:8532   .debug_loc:0000000000001694 .LLST82
     /tmp/ccGVpxtD.s:2363   .text:0000000000000e90 .LBB129
     /tmp/ccGVpxtD.s:8543   .debug_loc:00000000000016ca .LLST83
     /tmp/ccGVpxtD.s:2368   .text:0000000000000ea0 .LVL271
     /tmp/ccGVpxtD.s:2381   .text:0000000000000ec0 .LVL273
     /tmp/ccGVpxtD.s:2402   .text:0000000000000ee4 .LVL277
     /tmp/ccGVpxtD.s:192    .text:000000000000011c .LFB37
     /tmp/ccGVpxtD.s:435    .text:00000000000002b4 .LFE37
     /tmp/ccGVpxtD.s:8556   .debug_loc:0000000000001702 .LLST7
     /tmp/ccGVpxtD.s:8586   .debug_loc:0000000000001787 .LLST8
     /tmp/ccGVpxtD.s:8616   .debug_loc:000000000000180c .LLST9
     /tmp/ccGVpxtD.s:8646   .debug_loc:0000000000001891 .LLST10
     /tmp/ccGVpxtD.s:8676   .debug_loc:0000000000001916 .LLST11
     /tmp/ccGVpxtD.s:8980   .debug_str:0000000000000396 .LASF129
     /tmp/ccGVpxtD.s:8687   .debug_loc:000000000000194c .LLST12
     /tmp/ccGVpxtD.s:9004   .debug_str:0000000000000450 .LASF130
     /tmp/ccGVpxtD.s:8720   .debug_loc:00000000000019b6 .LLST13
     /tmp/ccGVpxtD.s:8910   .debug_str:00000000000000ab .LASF131
     /tmp/ccGVpxtD.s:8733   .debug_loc:00000000000019ee .LLST14
     /tmp/ccGVpxtD.s:8928   .debug_str:000000000000015c .LASF132
     /tmp/ccGVpxtD.s:8756   .debug_loc:0000000000001a5d .LLST15
     /tmp/ccGVpxtD.s:8767   .debug_loc:0000000000001a93 .LLST16
     /tmp/ccGVpxtD.s:241    .text:000000000000016c .LBB65
     /tmp/ccGVpxtD.s:8778   .debug_loc:0000000000001ac9 .LLST17
     /tmp/ccGVpxtD.s:330    .text:0000000000000204 .LVL29
     /tmp/ccGVpxtD.s:259    .text:0000000000000190 .LVL24
     /tmp/ccGVpxtD.s:389    .text:0000000000000270 .LVL37
     /tmp/ccGVpxtD.s:9018   .debug_str:00000000000004ba .LASF133
     /tmp/ccGVpxtD.s:9196   .debug_str:0000000000000c00 .LASF134
     /tmp/ccGVpxtD.s:8900   .debug_str:000000000000002b .LASF151
     /tmp/ccGVpxtD.s:9060   .debug_str:000000000000061d .LASF135
     /tmp/ccGVpxtD.s:9068   .debug_str:000000000000067f .LASF137
     /tmp/ccGVpxtD.s:9094   .debug_str:0000000000000783 .LASF136
     /tmp/ccGVpxtD.s:8960   .debug_str:00000000000002d1 .LASF138
     /tmp/ccGVpxtD.s:9194   .debug_str:0000000000000be7 .LASF139
     /tmp/ccGVpxtD.s:9040   .debug_str:000000000000056b .LASF140
     /tmp/ccGVpxtD.s:8952   .debug_str:000000000000027b .LASF141
     /tmp/ccGVpxtD.s:9192   .debug_str:0000000000000bcb .LASF142
     /tmp/ccGVpxtD.s:2226   .text:0000000000000db4 .LVL256
     /tmp/ccGVpxtD.s:2256   .text:0000000000000df4 .LVL257
GAS LISTING /tmp/ccGVpxtD.s 			page 99


     /tmp/ccGVpxtD.s:2295   .text:0000000000000e34 .LVL262
     /tmp/ccGVpxtD.s:2306   .text:0000000000000e48 .LVL264
     /tmp/ccGVpxtD.s:2300   .text:0000000000000e3c .LVL263
     /tmp/ccGVpxtD.s:2292   .text:0000000000000e30 .LVL261
     /tmp/ccGVpxtD.s:1840   .text:0000000000000b80 .LVL216
     /tmp/ccGVpxtD.s:1864   .text:0000000000000bb0 .LVL218
     /tmp/ccGVpxtD.s:1915   .text:0000000000000c08 .LVL224
     /tmp/ccGVpxtD.s:1921   .text:0000000000000c14 .LVL225
     /tmp/ccGVpxtD.s:1861   .text:0000000000000bac .LVL217
     /tmp/ccGVpxtD.s:1879   .text:0000000000000bcc .LVL220
     /tmp/ccGVpxtD.s:1882   .text:0000000000000bd0 .LVL221
     /tmp/ccGVpxtD.s:1898   .text:0000000000000bf0 .LVL223
     /tmp/ccGVpxtD.s:1796   .text:0000000000000b44 .LVL211
     /tmp/ccGVpxtD.s:1826   .text:0000000000000b78 .LVL215
     /tmp/ccGVpxtD.s:1297   .text:00000000000006c8 .LVL135
     /tmp/ccGVpxtD.s:1318   .text:00000000000006f4 .LVL136
     /tmp/ccGVpxtD.s:1750   .text:0000000000000b08 .LVL208
     /tmp/ccGVpxtD.s:1364   .text:0000000000000770 .LVL144
     /tmp/ccGVpxtD.s:1718   .text:0000000000000ac0 .LVL201
     /tmp/ccGVpxtD.s:1372   .text:000000000000077c .LVL145
     /tmp/ccGVpxtD.s:1450   .text:0000000000000860 .LVL159
     /tmp/ccGVpxtD.s:1620   .text:00000000000009cc .LVL187
     /tmp/ccGVpxtD.s:1636   .text:00000000000009f4 .LVL190
     /tmp/ccGVpxtD.s:1647   .text:0000000000000a08 .LVL191
     /tmp/ccGVpxtD.s:1747   .text:0000000000000b04 .LVL207
     /tmp/ccGVpxtD.s:1657   .text:0000000000000a18 .LVL192
     /tmp/ccGVpxtD.s:1755   .text:0000000000000b10 .LVL209
     /tmp/ccGVpxtD.s:1720   .text:0000000000000ac4 .LVL202
     /tmp/ccGVpxtD.s:1726   .text:0000000000000ad0 .LVL203
     /tmp/ccGVpxtD.s:1494   .text:00000000000008b4 .LVL166
     /tmp/ccGVpxtD.s:1538   .text:0000000000000908 .LVL173
     /tmp/ccGVpxtD.s:1615   .text:00000000000009c4 .LVL186
     /tmp/ccGVpxtD.s:2464   .text:0000000000000f34 .LVL281
     /tmp/ccGVpxtD.s:2489   .text:0000000000000f64 .LVL284
     /tmp/ccGVpxtD.s:2665   .text:00000000000010ac .LVL313
     /tmp/ccGVpxtD.s:2751   .text:0000000000001134 .LVL324
     /tmp/ccGVpxtD.s:2484   .text:0000000000000f5c .LVL282
     /tmp/ccGVpxtD.s:2504   .text:0000000000000f7c .LVL286
     /tmp/ccGVpxtD.s:2510   .text:0000000000000f80 .LVL287
     /tmp/ccGVpxtD.s:2536   .text:0000000000000fc8 .LVL291
     /tmp/ccGVpxtD.s:2546   .text:0000000000000fd0 .LVL293
     /tmp/ccGVpxtD.s:2569   .text:0000000000001004 .LVL297
     /tmp/ccGVpxtD.s:2575   .text:0000000000001008 .LVL298
     /tmp/ccGVpxtD.s:2596   .text:0000000000001034 .LVL301
     /tmp/ccGVpxtD.s:2606   .text:000000000000103c .LVL303
     /tmp/ccGVpxtD.s:2629   .text:0000000000001070 .LVL307
     /tmp/ccGVpxtD.s:2635   .text:0000000000001074 .LVL308
     /tmp/ccGVpxtD.s:2656   .text:00000000000010a0 .LVL311
     /tmp/ccGVpxtD.s:2487   .text:0000000000000f60 .LVL283
     /tmp/ccGVpxtD.s:2514   .text:0000000000000f84 .LVL288
     /tmp/ccGVpxtD.s:2579   .text:000000000000100c .LVL299
     /tmp/ccGVpxtD.s:2639   .text:0000000000001078 .LVL309
     /tmp/ccGVpxtD.s:2663   .text:00000000000010a8 .LVL312
     /tmp/ccGVpxtD.s:2676   .text:00000000000010cc .LVL315
     /tmp/ccGVpxtD.s:2686   .text:00000000000010d4 .LVL316
     /tmp/ccGVpxtD.s:2713   .text:00000000000010f8 .LVL318
     /tmp/ccGVpxtD.s:2730   .text:0000000000001118 .LVL321
GAS LISTING /tmp/ccGVpxtD.s 			page 100


     /tmp/ccGVpxtD.s:2734   .text:000000000000111c .LVL322
     /tmp/ccGVpxtD.s:2746   .text:000000000000112c .LVL323
     /tmp/ccGVpxtD.s:2559   .text:0000000000000fec .LVL295
     /tmp/ccGVpxtD.s:2619   .text:0000000000001058 .LVL305
     /tmp/ccGVpxtD.s:2707   .text:00000000000010f0 .LVL317
     /tmp/ccGVpxtD.s:2718   .text:00000000000010fc .LVL319
     /tmp/ccGVpxtD.s:1172   .text:0000000000000668 .LVL129
     /tmp/ccGVpxtD.s:1190   .text:000000000000068c .LVL130
     /tmp/ccGVpxtD.s:1224   .text:00000000000006c0 .LVL134
     /tmp/ccGVpxtD.s:1221   .text:00000000000006bc .LVL133
     /tmp/ccGVpxtD.s:1095   .text:0000000000000608 .LVL117
     /tmp/ccGVpxtD.s:1112   .text:0000000000000624 .LVL119
     /tmp/ccGVpxtD.s:1151   .text:0000000000000658 .LVL126
     /tmp/ccGVpxtD.s:1155   .text:0000000000000660 .LVL127
     /tmp/ccGVpxtD.s:1108   .text:0000000000000620 .LVL118
     /tmp/ccGVpxtD.s:1117   .text:0000000000000630 .LVL121
     /tmp/ccGVpxtD.s:1125   .text:0000000000000638 .LVL122
     /tmp/ccGVpxtD.s:1132   .text:0000000000000640 .LVL124
     /tmp/ccGVpxtD.s:1140   .text:000000000000064c .LVL125
     /tmp/ccGVpxtD.s:1160   .text:0000000000000664 .LVL128
     /tmp/ccGVpxtD.s:1046   .text:00000000000005d4 .LVL112
     /tmp/ccGVpxtD.s:1063   .text:00000000000005ec .LVL114
     /tmp/ccGVpxtD.s:1055   .text:00000000000005e4 .LVL113
     /tmp/ccGVpxtD.s:982    .text:0000000000000574 .LVL106
     /tmp/ccGVpxtD.s:1000   .text:0000000000000598 .LVL107
     /tmp/ccGVpxtD.s:1032   .text:00000000000005cc .LVL111
     /tmp/ccGVpxtD.s:1029   .text:00000000000005c8 .LVL110
     /tmp/ccGVpxtD.s:2150   .text:0000000000000d3c .LVL245
     /tmp/ccGVpxtD.s:2167   .text:0000000000000d5c .LVL246
     /tmp/ccGVpxtD.s:2194   .text:0000000000000d88 .LVL251
     /tmp/ccGVpxtD.s:2201   .text:0000000000000d94 .LVL253
     /tmp/ccGVpxtD.s:2171   .text:0000000000000d68 .LVL248
     /tmp/ccGVpxtD.s:2197   .text:0000000000000d8c .LVL252
     /tmp/ccGVpxtD.s:2210   .text:0000000000000da4 .LVL254
     /tmp/ccGVpxtD.s:611    .text:0000000000000388 .LVL69
     /tmp/ccGVpxtD.s:641    .text:00000000000003bc .LVL72
     /tmp/ccGVpxtD.s:655    .text:00000000000003c8 .LVL75
     /tmp/ccGVpxtD.s:704    .text:0000000000000408 .LVL80
     /tmp/ccGVpxtD.s:795    .text:0000000000000484 .LVL88
     /tmp/ccGVpxtD.s:808    .text:000000000000048c .LVL90
     /tmp/ccGVpxtD.s:819    .text:0000000000000498 .LVL91
     /tmp/ccGVpxtD.s:868    .text:00000000000004d8 .LVL96
     /tmp/ccGVpxtD.s:943    .text:0000000000000550 .LVL102
     /tmp/ccGVpxtD.s:951    .text:0000000000000554 .LVL103
     /tmp/ccGVpxtD.s:968    .text:000000000000056c .LVL105
     /tmp/ccGVpxtD.s:690    .text:00000000000003f0 .LVL77
     /tmp/ccGVpxtD.s:854    .text:00000000000004c0 .LVL93
     /tmp/ccGVpxtD.s:965    .text:0000000000000568 .LVL104
     /tmp/ccGVpxtD.s:631    .text:00000000000003b0 .LVL70
     /tmp/ccGVpxtD.s:668    .text:00000000000003d0 .LVL76
     /tmp/ccGVpxtD.s:832    .text:00000000000004a0 .LVL92
     /tmp/ccGVpxtD.s:636    .text:00000000000003b4 .LVL71
     /tmp/ccGVpxtD.s:697    .text:00000000000003fc .LVL78
     /tmp/ccGVpxtD.s:702    .text:0000000000000404 .LVL79
     /tmp/ccGVpxtD.s:650    .text:00000000000003c0 .LVL73
     /tmp/ccGVpxtD.s:653    .text:00000000000003c4 .LVL74
     /tmp/ccGVpxtD.s:745    .text:0000000000000448 .LVL85
GAS LISTING /tmp/ccGVpxtD.s 			page 101


     /tmp/ccGVpxtD.s:765    .text:0000000000000454 .LVL86
     /tmp/ccGVpxtD.s:768    .text:0000000000000458 .LVL87
     /tmp/ccGVpxtD.s:736    .text:000000000000043c .LVL84
     /tmp/ccGVpxtD.s:806    .text:0000000000000488 .LVL89
     /tmp/ccGVpxtD.s:861    .text:00000000000004cc .LVL94
     /tmp/ccGVpxtD.s:866    .text:00000000000004d4 .LVL95
     /tmp/ccGVpxtD.s:900    .text:000000000000050c .LVL100
     /tmp/ccGVpxtD.s:908    .text:0000000000000518 .LVL101
     /tmp/ccGVpxtD.s:541    .text:0000000000000330 .LVL61
     /tmp/ccGVpxtD.s:589    .text:0000000000000370 .LVL68
     /tmp/ccGVpxtD.s:555    .text:0000000000000344 .LVL63
     /tmp/ccGVpxtD.s:564    .text:000000000000034c .LVL64
     /tmp/ccGVpxtD.s:579    .text:0000000000000360 .LVL66
     /tmp/ccGVpxtD.s:581    .text:0000000000000364 .LVL67
     /tmp/ccGVpxtD.s:444    .text:00000000000002b4 .LVL44
     /tmp/ccGVpxtD.s:496    .text:00000000000002f8 .LVL53
     /tmp/ccGVpxtD.s:510    .text:0000000000000310 .LVL55
     /tmp/ccGVpxtD.s:524    .text:0000000000000320 .LVL59
     /tmp/ccGVpxtD.s:458    .text:00000000000002c8 .LVL46
     /tmp/ccGVpxtD.s:454    .text:00000000000002c4 .LVL45
     /tmp/ccGVpxtD.s:492    .text:00000000000002f0 .LVL51
     /tmp/ccGVpxtD.s:494    .text:00000000000002f4 .LVL52
     /tmp/ccGVpxtD.s:520    .text:0000000000000318 .LVL57
     /tmp/ccGVpxtD.s:522    .text:000000000000031c .LVL58
     /tmp/ccGVpxtD.s:467    .text:00000000000002d0 .LVL47
     /tmp/ccGVpxtD.s:499    .text:0000000000000300 .LVL54
     /tmp/ccGVpxtD.s:527    .text:0000000000000328 .LVL60
     /tmp/ccGVpxtD.s:482    .text:00000000000002e4 .LVL49
     /tmp/ccGVpxtD.s:484    .text:00000000000002e8 .LVL50
     /tmp/ccGVpxtD.s:14     .text:0000000000000000 .LVL0
     /tmp/ccGVpxtD.s:41     .text:0000000000000030 .LVL2
     /tmp/ccGVpxtD.s:174    .text:0000000000000108 .LVL16
     /tmp/ccGVpxtD.s:60     .text:0000000000000058 .LVL4
     /tmp/ccGVpxtD.s:102    .text:000000000000009c .LVL8
     /tmp/ccGVpxtD.s:114    .text:00000000000000bc .LVL10
     /tmp/ccGVpxtD.s:128    .text:00000000000000c8 .LVL11
     /tmp/ccGVpxtD.s:181    .text:0000000000000114 .LVL17
     /tmp/ccGVpxtD.s:81     .text:0000000000000078 .LVL5
     /tmp/ccGVpxtD.s:85     .text:000000000000007c .LVL6
     /tmp/ccGVpxtD.s:152    .text:00000000000000ec .LVL15
     /tmp/ccGVpxtD.s:33     .text:0000000000000024 .LVL1
     /tmp/ccGVpxtD.s:1937   .text:0000000000000c1c .LVL226
     /tmp/ccGVpxtD.s:1969   .text:0000000000000c50 .LVL227
     /tmp/ccGVpxtD.s:2035   .text:0000000000000cac .LVL234
     /tmp/ccGVpxtD.s:2039   .text:0000000000000cb4 .LVL235
     /tmp/ccGVpxtD.s:2122   .text:0000000000000d24 .LVL243
     /tmp/ccGVpxtD.s:2090   .text:0000000000000cf4 .LVL241
     /tmp/ccGVpxtD.s:2107   .text:0000000000000d0c .LVL242
     /tmp/ccGVpxtD.s:2060   .text:0000000000000cd8 .LVL237
     /tmp/ccGVpxtD.s:2068   .text:0000000000000ce4 .LVL238
     /tmp/ccGVpxtD.s:2075   .text:0000000000000ce8 .LVL239
     /tmp/ccGVpxtD.s:2081   .text:0000000000000cec .LVL240
     /tmp/ccGVpxtD.s:2021   .text:0000000000000ca0 .LVL233
     /tmp/ccGVpxtD.s:1981   .text:0000000000000c68 .LVL229
     /tmp/ccGVpxtD.s:2010   .text:0000000000000c8c .LVL232
     /tmp/ccGVpxtD.s:1993   .text:0000000000000c78 .LVL230
     /tmp/ccGVpxtD.s:2001   .text:0000000000000c84 .LVL231
GAS LISTING /tmp/ccGVpxtD.s 			page 102


     /tmp/ccGVpxtD.s:2319   .text:0000000000000e4c .LVL265
     /tmp/ccGVpxtD.s:2359   .text:0000000000000e8c .LVL269
     /tmp/ccGVpxtD.s:2446   .text:0000000000000f24 .LVL280
     /tmp/ccGVpxtD.s:2345   .text:0000000000000e7c .LVL266
     /tmp/ccGVpxtD.s:2351   .text:0000000000000e84 .LVL268
     /tmp/ccGVpxtD.s:2361   .text:0000000000000e90 .LVL270
     /tmp/ccGVpxtD.s:2384   .text:0000000000000ec4 .LVL274
     /tmp/ccGVpxtD.s:2394   .text:0000000000000ecc .LVL276
     /tmp/ccGVpxtD.s:2411   .text:0000000000000ef4 .LVL278
     /tmp/ccGVpxtD.s:2434   .text:0000000000000f14 .LVL279
     /tmp/ccGVpxtD.s:2390   .text:0000000000000ec8 .LVL275
     /tmp/ccGVpxtD.s:2349   .text:0000000000000e80 .LVL267
     /tmp/ccGVpxtD.s:2374   .text:0000000000000eac .LVL272
     /tmp/ccGVpxtD.s:195    .text:000000000000011c .LVL18
     /tmp/ccGVpxtD.s:248    .text:0000000000000178 .LVL23
     /tmp/ccGVpxtD.s:322    .text:00000000000001f4 .LVL27
     /tmp/ccGVpxtD.s:328    .text:00000000000001fc .LVL28
     /tmp/ccGVpxtD.s:416    .text:000000000000029c .LVL40
     /tmp/ccGVpxtD.s:426    .text:00000000000002ac .LVL43
     /tmp/ccGVpxtD.s:413    .text:0000000000000298 .LVL39
     /tmp/ccGVpxtD.s:422    .text:00000000000002a4 .LVL42
     /tmp/ccGVpxtD.s:419    .text:00000000000002a0 .LVL41
     /tmp/ccGVpxtD.s:261    .text:0000000000000194 .LVL25
     /tmp/ccGVpxtD.s:334    .text:0000000000000214 .LVL30
     /tmp/ccGVpxtD.s:399    .text:0000000000000284 .LVL38
     /tmp/ccGVpxtD.s:303    .text:00000000000001d8 .LVL26
     /tmp/ccGVpxtD.s:370    .text:0000000000000250 .LVL35
     /tmp/ccGVpxtD.s:377    .text:000000000000025c .LVL36
     /tmp/ccGVpxtD.s:340    .text:0000000000000218 .LVL31
     /tmp/ccGVpxtD.s:359    .text:0000000000000240 .LVL32
     /tmp/ccGVpxtD.s:362    .text:0000000000000244 .LVL33
     /tmp/ccGVpxtD.s:368    .text:000000000000024c .LVL34
     /tmp/ccGVpxtD.s:222    .text:0000000000000158 .LVL19
     /tmp/ccGVpxtD.s:246    .text:0000000000000174 .LVL22
     /tmp/ccGVpxtD.s:240    .text:000000000000016c .LVL21
     /tmp/ccGVpxtD.s:2787   .debug_info:0000000000000000 .Ldebug_info0
     /tmp/ccGVpxtD.s:46     .text:0000000000000030 .LBE56
     /tmp/ccGVpxtD.s:105    .text:000000000000009c .LBB60
     /tmp/ccGVpxtD.s:117    .text:00000000000000bc .LBE60
     /tmp/ccGVpxtD.s:219    .text:0000000000000150 .LBB64
     /tmp/ccGVpxtD.s:238    .text:000000000000016c .LBE64
     /tmp/ccGVpxtD.s:429    .text:00000000000002ac .LBB69
     /tmp/ccGVpxtD.s:433    .text:00000000000002b4 .LBE69
     /tmp/ccGVpxtD.s:253    .text:0000000000000178 .LBE65
     /tmp/ccGVpxtD.s:324    .text:00000000000001f4 .LBB68
     /tmp/ccGVpxtD.s:337    .text:0000000000000214 .LBE68
     /tmp/ccGVpxtD.s:461    .text:00000000000002c8 .LBB70
     /tmp/ccGVpxtD.s:464    .text:00000000000002cc .LBE70
     /tmp/ccGVpxtD.s:469    .text:00000000000002d0 .LBB71
     /tmp/ccGVpxtD.s:486    .text:00000000000002e8 .LBE71
     /tmp/ccGVpxtD.s:558    .text:0000000000000344 .LBB72
     /tmp/ccGVpxtD.s:561    .text:0000000000000348 .LBE72
     /tmp/ccGVpxtD.s:566    .text:000000000000034c .LBB73
     /tmp/ccGVpxtD.s:583    .text:0000000000000364 .LBE73
     /tmp/ccGVpxtD.s:633    .text:00000000000003b0 .LBB74
     /tmp/ccGVpxtD.s:637    .text:00000000000003b4 .LBE74
     /tmp/ccGVpxtD.s:643    .text:00000000000003bc .LBB87
GAS LISTING /tmp/ccGVpxtD.s 			page 103


     /tmp/ccGVpxtD.s:752    .text:0000000000000448 .LBE87
     /tmp/ccGVpxtD.s:754    .text:0000000000000448 .LBB88
     /tmp/ccGVpxtD.s:800    .text:0000000000000484 .LBE88
     /tmp/ccGVpxtD.s:646    .text:00000000000003bc .LBB77
     /tmp/ccGVpxtD.s:657    .text:00000000000003c8 .LBE77
     /tmp/ccGVpxtD.s:686    .text:00000000000003ec .LBB80
     /tmp/ccGVpxtD.s:749    .text:0000000000000448 .LBE80
     /tmp/ccGVpxtD.s:757    .text:0000000000000448 .LBB81
     /tmp/ccGVpxtD.s:797    .text:0000000000000484 .LBE81
     /tmp/ccGVpxtD.s:812    .text:000000000000048c .LBB92
     /tmp/ccGVpxtD.s:821    .text:0000000000000498 .LBE92
     /tmp/ccGVpxtD.s:850    .text:00000000000004bc .LBB95
     /tmp/ccGVpxtD.s:945    .text:0000000000000550 .LBE95
     /tmp/ccGVpxtD.s:1057   .text:00000000000005e4 .LBB100
     /tmp/ccGVpxtD.s:1060   .text:00000000000005e8 .LBE100
     /tmp/ccGVpxtD.s:1065   .text:00000000000005ec .LBB101
     /tmp/ccGVpxtD.s:1077   .text:00000000000005fc .LBE101
     /tmp/ccGVpxtD.s:2376   .text:0000000000000eac .LBE129
     /tmp/ccGVpxtD.s:2404   .text:0000000000000ee4 .LBB132
     /tmp/ccGVpxtD.s:2414   .text:0000000000000ef4 .LBE132
     /tmp/ccGVpxtD.s:2496   .text:0000000000000f64 .LBE133
     /tmp/ccGVpxtD.s:2524   .text:0000000000000f9c .LBB136
     /tmp/ccGVpxtD.s:2539   .text:0000000000000fc8 .LBE136
     /tmp/ccGVpxtD.s:2561   .text:0000000000000fec .LBE137
     /tmp/ccGVpxtD.s:2589   .text:0000000000001024 .LBB140
     /tmp/ccGVpxtD.s:2599   .text:0000000000001034 .LBE140
     /tmp/ccGVpxtD.s:2621   .text:0000000000001058 .LBE141
     /tmp/ccGVpxtD.s:2649   .text:0000000000001090 .LBB144
     /tmp/ccGVpxtD.s:2659   .text:00000000000010a0 .LBE144
     /tmp/ccGVpxtD.s:2679   .text:00000000000010cc .LBE145
     /tmp/ccGVpxtD.s:2708   .text:00000000000010f0 .LBB148
     /tmp/ccGVpxtD.s:2720   .text:00000000000010fc .LBE148

UNDEFINED SYMBOLS
_ZN11BuddySystem10buddyAllocEm
_ZN11BuddySystemC1Ev
_Z14string_comparePKcS0_
_Z11printStringPKc
_Z8printIntiii
_Z27concatenate_int_to_char_ptri
_ZN11BuddySystem9buddyFreeEm
