GAS LISTING /tmp/ccJsZ0pp.s 			page 1


   1              		.file	"Slab.cpp"
   2              		.option pic
   3              		.option norelax
   4              		.text
   5              	.Ltext0:
   6              		.align	2
   7              		.globl	_ZN12kmem_cache_s17kmem_cache_shrinkEv
   9              	_ZN12kmem_cache_s17kmem_cache_shrinkEv:
  10              	.LFB47:
  11              		.file 1 "src/Slab.cpp"
   1:src/Slab.cpp  **** //
   2:src/Slab.cpp  **** // Created by os on 8/18/23.
   3:src/Slab.cpp  **** //
   4:src/Slab.cpp  **** #include "../h/Slab.h"
   5:src/Slab.cpp  **** #include "../test/printing.hpp"
   6:src/Slab.cpp  **** 
   7:src/Slab.cpp  **** kmem_cache_s* kmem_cache_s::head = nullptr;
   8:src/Slab.cpp  **** 
   9:src/Slab.cpp  **** void* kmem_cache_s::kmem_cache_create(const char *name, size_t size, void (*ctor)(void *), void (*d
  10:src/Slab.cpp  **** 
  11:src/Slab.cpp  ****     // check if name already exists in cache list
  12:src/Slab.cpp  ****     for(kmem_cache_s* curr = kmem_cache_s::head; curr; curr = curr->next){
  13:src/Slab.cpp  ****         if(curr->name == name){
  14:src/Slab.cpp  ****             return nullptr;
  15:src/Slab.cpp  ****         }
  16:src/Slab.cpp  ****     }
  17:src/Slab.cpp  **** 
  18:src/Slab.cpp  ****     // assign values
  19:src/Slab.cpp  ****     kmem_cache_s* tmp = (kmem_cache_s*)BuddySystem::getInstance().buddyAlloc(BLOCK_SIZE - sizeof(si
  20:src/Slab.cpp  ****     tmp->name = name;
  21:src/Slab.cpp  ****     tmp->objsize = size;
  22:src/Slab.cpp  ****     tmp->ctor = ctor;
  23:src/Slab.cpp  ****     tmp->dtor = dtor;
  24:src/Slab.cpp  **** 
  25:src/Slab.cpp  ****     // assign default values
  26:src/Slab.cpp  ****     tmp->slabs_full = tmp->slabs_partial = tmp->slabs_free = nullptr;
  27:src/Slab.cpp  ****     tmp->num_slabs_full = tmp->num_slabs_partial = tmp->num_slabs_free = tmp->num_active_obj = tmp-
  28:src/Slab.cpp  ****     tmp->growing = false;
  29:src/Slab.cpp  **** 
  30:src/Slab.cpp  ****     // calc how many blocks one slab should contain
  31:src/Slab.cpp  ****     tmp->size_in_blocks = 1;
  32:src/Slab.cpp  ****     while(tmp->size_in_blocks * BLOCK_SIZE < tmp->objsize * NUM_OF_OBJECTS_IN_SLAB + sizeof(Slab) +
  33:src/Slab.cpp  ****         tmp->size_in_blocks++;
  34:src/Slab.cpp  ****     }
  35:src/Slab.cpp  ****     // calc how many objects one slab can contain
  36:src/Slab.cpp  ****     int how_many_objects_into_one_slab = (int)(tmp->size_in_blocks * BLOCK_SIZE - sizeof(Slab) - si
  37:src/Slab.cpp  ****     tmp->num = how_many_objects_into_one_slab;
  38:src/Slab.cpp  **** 
  39:src/Slab.cpp  ****     // creating an empty slab
  40:src/Slab.cpp  ****     tmp->create_free_slab();
  41:src/Slab.cpp  **** 
  42:src/Slab.cpp  ****     // add new cache to cache chain
  43:src/Slab.cpp  ****     tmp->next = kmem_cache_s::head;
  44:src/Slab.cpp  ****     kmem_cache_s::head = tmp;
  45:src/Slab.cpp  **** 
  46:src/Slab.cpp  ****     return (void*)tmp;
  47:src/Slab.cpp  **** }
GAS LISTING /tmp/ccJsZ0pp.s 			page 2


  48:src/Slab.cpp  **** 
  49:src/Slab.cpp  **** ///
  50:src/Slab.cpp  **** /// \return velicinu za koliko je smanjena memorija (u bajtovima)
  51:src/Slab.cpp  **** size_t kmem_cache_s::kmem_cache_shrink() {
  12              		.loc 1 51 42
  13              		.cfi_startproc
  14              	.LVL0:
  15 0000 130101FD 		addi	sp,sp,-48
  16              		.cfi_def_cfa_offset 48
  17 0004 23341102 		sd	ra,40(sp)
  18 0008 23308102 		sd	s0,32(sp)
  19 000c 233C9100 		sd	s1,24(sp)
  20 0010 23382101 		sd	s2,16(sp)
  21 0014 23343101 		sd	s3,8(sp)
  22 0018 23304101 		sd	s4,0(sp)
  23              		.cfi_offset 1, -8
  24              		.cfi_offset 8, -16
  25              		.cfi_offset 9, -24
  26              		.cfi_offset 18, -32
  27              		.cfi_offset 19, -40
  28              		.cfi_offset 20, -48
  29 001c 13040103 		addi	s0,sp,48
  30              		.cfi_def_cfa 8, 0
  31 0020 93090500 		mv	s3,a0
  52:src/Slab.cpp  ****     if(this->growing){
  32              		.loc 1 52 5
  33              		.loc 1 52 14 is_stmt 0
  34 0024 83470507 		lbu	a5,112(a0)
  35              		.loc 1 52 5
  36 0028 63980700 		bnez	a5,.L8
  53:src/Slab.cpp  ****         this->growing = false;
  54:src/Slab.cpp  ****         return 0;
  55:src/Slab.cpp  ****     }
  56:src/Slab.cpp  ****     Slab* curr = this->slabs_free, *prev;
  37              		.loc 1 56 5 is_stmt 1
  38              		.loc 1 56 11 is_stmt 0
  39 002c 83340501 		ld	s1,16(a0)
  40              	.LVL1:
  57:src/Slab.cpp  ****     int cnt = (int)this->num_slabs_free;
  41              		.loc 1 57 5 is_stmt 1
  42              		.loc 1 57 9 is_stmt 0
  43 0030 032A8502 		lw	s4,40(a0)
  44              	.LVL2:
  45 0034 6F004004 		j	.L6
  46              	.LVL3:
  47              	.L8:
  53:src/Slab.cpp  ****         this->growing = false;
  48              		.loc 1 53 9 is_stmt 1
  53:src/Slab.cpp  ****         this->growing = false;
  49              		.loc 1 53 23 is_stmt 0
  50 0038 23080506 		sb	zero,112(a0)
  54:src/Slab.cpp  ****     }
  51              		.loc 1 54 9 is_stmt 1
  54:src/Slab.cpp  ****     }
  52              		.loc 1 54 16 is_stmt 0
  53 003c 13050000 		li	a0,0
  54              	.LVL4:
GAS LISTING /tmp/ccJsZ0pp.s 			page 3


  55 0040 6F000007 		j	.L1
  56              	.LVL5:
  57              	.L9:
  58              	.LBB55:
  59              	.LBB56:
  60              		.file 2 "src/../h/../h/Buddy.h"
   1:src/../h/../h/Buddy.h **** //
   2:src/../h/../h/Buddy.h **** // Created by os on 8/12/23.
   3:src/../h/../h/Buddy.h **** //
   4:src/../h/../h/Buddy.h **** 
   5:src/../h/../h/Buddy.h **** #ifndef PROJECT_BASE_V1_1_BUDDY_H
   6:src/../h/../h/Buddy.h **** #define PROJECT_BASE_V1_1_BUDDY_H
   7:src/../h/../h/Buddy.h **** 
   8:src/../h/../h/Buddy.h **** #include "../lib/hw.h"
   9:src/../h/../h/Buddy.h **** 
  10:src/../h/../h/Buddy.h **** class BuddySystem{
  11:src/../h/../h/Buddy.h **** public:
  12:src/../h/../h/Buddy.h **** 
  13:src/../h/../h/Buddy.h ****     void* buddyAlloc(size_t size);
  14:src/../h/../h/Buddy.h ****     void buddyFree(size_t addr);
  15:src/../h/../h/Buddy.h **** 
  16:src/../h/../h/Buddy.h ****     static BuddySystem& getInstance(void *space = nullptr, int block_num = 0){
  17:src/../h/../h/Buddy.h ****         static BuddySystem bs;
  61              		.loc 2 17 28
  62 0044 17050000 		lla	a0,_ZZN11BuddySystem11getInstanceEPviE2bs
  62      13050500 
  63 004c 97000000 		call	_ZN11BuddySystemC1Ev@plt
  63      E7800000 
  64              	.LVL6:
  65 0054 93071000 		li	a5,1
  66 0058 17070000 		sb	a5,_ZGVZN11BuddySystem11getInstanceEPviE2bs,a4
  66      2300F700 
  67              	.L5:
  18:src/../h/../h/Buddy.h ****         if(block_num != 0 && space != nullptr){
  68              		.loc 2 18 9 is_stmt 1
  19:src/../h/../h/Buddy.h ****             bs.buddyHeapStart = (size_t)space;
  20:src/../h/../h/Buddy.h ****             bs.buddyNumOfBlocks = block_num;
  21:src/../h/../h/Buddy.h ****             bs.initBuddy();
  22:src/../h/../h/Buddy.h ****         }
  23:src/../h/../h/Buddy.h ****         return bs;
  69              		.loc 2 23 9
  70              	.LVL7:
  71              	.LBE56:
  72              	.LBE55:
  58:src/Slab.cpp  ****     while(curr){
  59:src/Slab.cpp  ****         prev = curr;
  60:src/Slab.cpp  ****         curr = curr->next;
  61:src/Slab.cpp  ****         BuddySystem::getInstance().buddyFree((size_t)prev);
  73              		.loc 1 61 45 is_stmt 0
  74 0060 93850400 		mv	a1,s1
  75 0064 17050000 		lla	a0,_ZZN11BuddySystem11getInstanceEPviE2bs
  75      13050500 
  76 006c 97000000 		call	_ZN11BuddySystem9buddyFreeEm@plt
  76      E7800000 
  77              	.LVL8:
  60:src/Slab.cpp  ****         BuddySystem::getInstance().buddyFree((size_t)prev);
  78              		.loc 1 60 14
GAS LISTING /tmp/ccJsZ0pp.s 			page 4


  79 0074 93040900 		mv	s1,s2
  80              	.LVL9:
  81              	.L6:
  58:src/Slab.cpp  ****     while(curr){
  82              		.loc 1 58 5 is_stmt 1
  58:src/Slab.cpp  ****     while(curr){
  83              		.loc 1 58 11
  84 0078 638C0400 		beqz	s1,.L4
  59:src/Slab.cpp  ****         curr = curr->next;
  85              		.loc 1 59 9
  86              	.LVL10:
  60:src/Slab.cpp  ****         BuddySystem::getInstance().buddyFree((size_t)prev);
  87              		.loc 1 60 9
  60:src/Slab.cpp  ****         BuddySystem::getInstance().buddyFree((size_t)prev);
  88              		.loc 1 60 14 is_stmt 0
  89 007c 03B98400 		ld	s2,8(s1)
  90              	.LVL11:
  91              		.loc 1 61 9 is_stmt 1
  92              	.LBB58:
  93              	.LBB57:
  17:src/../h/../h/Buddy.h ****         if(block_num != 0 && space != nullptr){
  94              		.loc 2 17 9
  17:src/../h/../h/Buddy.h ****         if(block_num != 0 && space != nullptr){
  95              		.loc 2 17 28 is_stmt 0
  96 0080 97070000 		lbu	a5,_ZGVZN11BuddySystem11getInstanceEPviE2bs
  96      83C70700 
  97 0088 E39C07FC 		bnez	a5,.L5
  98 008c 6FF09FFB 		j	.L9
  99              	.LVL12:
 100              	.L4:
 101              	.LBE57:
 102              	.LBE58:
  62:src/Slab.cpp  ****     }
  63:src/Slab.cpp  ****     this->slabs_free = nullptr;
 103              		.loc 1 63 5 is_stmt 1
 104              		.loc 1 63 22 is_stmt 0
 105 0090 23B80900 		sd	zero,16(s3)
  64:src/Slab.cpp  ****     this->num_slabs_free = 0;
 106              		.loc 1 64 5 is_stmt 1
 107              		.loc 1 64 26 is_stmt 0
 108 0094 23B40902 		sd	zero,40(s3)
  65:src/Slab.cpp  ****     this->growing = false;
 109              		.loc 1 65 5 is_stmt 1
 110              		.loc 1 65 19 is_stmt 0
 111 0098 23880906 		sb	zero,112(s3)
  66:src/Slab.cpp  ****     this->shrink++;
 112              		.loc 1 66 5 is_stmt 1
 113              		.loc 1 66 11 is_stmt 0
 114 009c 83B78907 		ld	a5,120(s3)
 115              		.loc 1 66 17
 116 00a0 93871700 		addi	a5,a5,1
 117 00a4 23BCF906 		sd	a5,120(s3)
  67:src/Slab.cpp  ****     return cnt * this->size_in_blocks;
 118              		.loc 1 67 5 is_stmt 1
 119              		.loc 1 67 24 is_stmt 0
 120 00a8 03B50904 		ld	a0,64(s3)
 121 00ac 3305AA02 		mul	a0,s4,a0
GAS LISTING /tmp/ccJsZ0pp.s 			page 5


 122              	.LVL13:
 123              	.L1:
  68:src/Slab.cpp  **** }
 124              		.loc 1 68 1
 125 00b0 83308102 		ld	ra,40(sp)
 126              		.cfi_restore 1
 127 00b4 03340102 		ld	s0,32(sp)
 128              		.cfi_restore 8
 129              		.cfi_def_cfa 2, 48
 130 00b8 83348101 		ld	s1,24(sp)
 131              		.cfi_restore 9
 132 00bc 03390101 		ld	s2,16(sp)
 133              		.cfi_restore 18
 134 00c0 83398100 		ld	s3,8(sp)
 135              		.cfi_restore 19
 136              	.LVL14:
 137 00c4 033A0100 		ld	s4,0(sp)
 138              		.cfi_restore 20
 139 00c8 13010103 		addi	sp,sp,48
 140              		.cfi_def_cfa_offset 0
 141 00cc 67800000 		jr	ra
 142              		.cfi_endproc
 143              	.LFE47:
 145              		.align	2
 146              		.globl	_ZN12kmem_cache_s16create_free_slabEv
 148              	_ZN12kmem_cache_s16create_free_slabEv:
 149              	.LFB49:
  69:src/Slab.cpp  **** 
  70:src/Slab.cpp  **** void *kmem_cache_s::kmem_cache_alloc() {
  71:src/Slab.cpp  ****     if(num_slabs_partial != 0){
  72:src/Slab.cpp  ****         void* addr = this->slabs_partial->return_first_free_object_and_rearange_list(this->num, thi
  73:src/Slab.cpp  ****         this->num_active_obj++;
  74:src/Slab.cpp  ****         this->slabs_partial->increment_num_of_active();
  75:src/Slab.cpp  **** 
  76:src/Slab.cpp  ****         if(this->slabs_partial->get_number_of_active_objects() == this->num){
  77:src/Slab.cpp  ****             // move from partial to full
  78:src/Slab.cpp  ****             Slab* tmp = this->slabs_partial;
  79:src/Slab.cpp  ****             tmp->next = this->slabs_full;
  80:src/Slab.cpp  ****             this->slabs_partial = this->slabs_partial->next;
  81:src/Slab.cpp  ****             this->slabs_full = tmp;
  82:src/Slab.cpp  ****             this->num_slabs_partial--;
  83:src/Slab.cpp  ****             this->num_slabs_full++;
  84:src/Slab.cpp  ****         }
  85:src/Slab.cpp  ****         return addr;
  86:src/Slab.cpp  ****     }
  87:src/Slab.cpp  **** 
  88:src/Slab.cpp  ****     if(num_slabs_free != 0){
  89:src/Slab.cpp  ****         void* addr = this->slabs_free->return_first_free_object_and_rearange_list(this->num, this->
  90:src/Slab.cpp  ****         this->num_active_obj++;
  91:src/Slab.cpp  **** 
  92:src/Slab.cpp  ****         // move from free to partial
  93:src/Slab.cpp  ****         Slab* tmp = this->slabs_free;
  94:src/Slab.cpp  ****         tmp->next = this->slabs_partial;
  95:src/Slab.cpp  ****         tmp->increment_num_of_active();
  96:src/Slab.cpp  ****         this->slabs_free = this->slabs_free->next;
  97:src/Slab.cpp  ****         this->slabs_partial = tmp;
  98:src/Slab.cpp  ****         this->num_slabs_free--;
GAS LISTING /tmp/ccJsZ0pp.s 			page 6


  99:src/Slab.cpp  ****         this->num_slabs_partial++;
 100:src/Slab.cpp  **** 
 101:src/Slab.cpp  ****         return addr;
 102:src/Slab.cpp  ****     }
 103:src/Slab.cpp  **** 
 104:src/Slab.cpp  ****     // case if we need to expand cache
 105:src/Slab.cpp  ****     create_free_slab();
 106:src/Slab.cpp  ****     this->growing = true;
 107:src/Slab.cpp  ****     return nullptr;
 108:src/Slab.cpp  **** }
 109:src/Slab.cpp  **** 
 110:src/Slab.cpp  **** void kmem_cache_s::create_free_slab() {
 150              		.loc 1 110 39 is_stmt 1
 151              		.cfi_startproc
 152              	.LVL15:
 153 00d0 130101FD 		addi	sp,sp,-48
 154              		.cfi_def_cfa_offset 48
 155 00d4 23341102 		sd	ra,40(sp)
 156 00d8 23308102 		sd	s0,32(sp)
 157 00dc 233C9100 		sd	s1,24(sp)
 158 00e0 23382101 		sd	s2,16(sp)
 159 00e4 23343101 		sd	s3,8(sp)
 160 00e8 23304101 		sd	s4,0(sp)
 161              		.cfi_offset 1, -8
 162              		.cfi_offset 8, -16
 163              		.cfi_offset 9, -24
 164              		.cfi_offset 18, -32
 165              		.cfi_offset 19, -40
 166              		.cfi_offset 20, -48
 167 00ec 13040103 		addi	s0,sp,48
 168              		.cfi_def_cfa 8, 0
 169 00f0 93040500 		mv	s1,a0
 111:src/Slab.cpp  ****     Slab* tmp = (Slab*)(BuddySystem::getInstance().buddyAlloc(this->num * this->objsize + sizeof(Sl
 170              		.loc 1 111 5
 171              	.LVL16:
 172              	.LBB59:
 173              	.LBB60:
  17:src/../h/../h/Buddy.h ****         if(block_num != 0 && space != nullptr){
 174              		.loc 2 17 9
  17:src/../h/../h/Buddy.h ****         if(block_num != 0 && space != nullptr){
 175              		.loc 2 17 28 is_stmt 0
 176 00f4 97070000 		lbu	a5,_ZGVZN11BuddySystem11getInstanceEPviE2bs
 176      83C70700 
 177 00fc 63860706 		beqz	a5,.L17
 178              	.LVL17:
 179              	.L11:
  18:src/../h/../h/Buddy.h ****             bs.buddyHeapStart = (size_t)space;
 180              		.loc 2 18 9 is_stmt 1
 181              		.loc 2 23 9
 182              	.LBE60:
 183              	.LBE59:
 184              		.loc 1 111 69 is_stmt 0
 185 0100 83B58403 		ld	a1,56(s1)
 186              		.loc 1 111 81
 187 0104 83B70403 		ld	a5,48(s1)
 188              		.loc 1 111 73
 189 0108 B385F502 		mul	a1,a1,a5
GAS LISTING /tmp/ccJsZ0pp.s 			page 7


 190              		.loc 1 111 62
 191 010c 93850502 		addi	a1,a1,32
 192 0110 17050000 		lla	a0,_ZZN11BuddySystem11getInstanceEPviE2bs
 192      13050500 
 193 0118 97000000 		call	_ZN11BuddySystem10buddyAllocEm@plt
 193      E7800000 
 194              	.LVL18:
 195 0120 130A0500 		mv	s4,a0
 196              	.LVL19:
 112:src/Slab.cpp  ****     tmp->num_active = 0;
 197              		.loc 1 112 5 is_stmt 1
 198              		.loc 1 112 21 is_stmt 0
 199 0124 23300500 		sd	zero,0(a0)
 113:src/Slab.cpp  ****     tmp->next = nullptr;
 200              		.loc 1 113 5 is_stmt 1
 201              		.loc 1 113 15 is_stmt 0
 202 0128 23340500 		sd	zero,8(a0)
 114:src/Slab.cpp  ****     this->slabs_free = tmp;
 203              		.loc 1 114 5 is_stmt 1
 204              		.loc 1 114 22 is_stmt 0
 205 012c 23B8A400 		sd	a0,16(s1)
 115:src/Slab.cpp  ****     tmp->first_addr = ((size_t)tmp + sizeof(Slab));
 206              		.loc 1 115 5 is_stmt 1
 207              		.loc 1 115 36 is_stmt 0
 208 0130 93070502 		addi	a5,a0,32
 209              		.loc 1 115 21
 210 0134 233CF500 		sd	a5,24(a0)
 116:src/Slab.cpp  ****     bool arr[this->num];
 211              		.loc 1 116 5 is_stmt 1
 212              		.loc 1 116 20 is_stmt 0
 213 0138 83B78403 		ld	a5,56(s1)
 214              	.LVL20:
 215              		.loc 1 116 10
 216 013c 9387F700 		addi	a5,a5,15
 217              	.LVL21:
 218 0140 93F707FF 		andi	a5,a5,-16
 219 0144 3301F140 		sub	sp,sp,a5
 220 0148 93060100 		mv	a3,sp
 221              	.LVL22:
 117:src/Slab.cpp  ****     for(size_t  i = 0; i < this->num; i++){
 222              		.loc 1 117 5 is_stmt 1
 223              	.LBB62:
 224              		.loc 1 117 17 is_stmt 0
 225 014c 93070000 		li	a5,0
 226              	.LVL23:
 227              	.L13:
 228              		.loc 1 117 26 is_stmt 1 discriminator 3
 229              		.loc 1 117 34 is_stmt 0 discriminator 3
 230 0150 03B78403 		ld	a4,56(s1)
 231              		.loc 1 117 26 discriminator 3
 232 0154 63FAE702 		bgeu	a5,a4,.L12
 118:src/Slab.cpp  ****         arr[i] = false;
 233              		.loc 1 118 9 is_stmt 1 discriminator 2
 234              		.loc 1 118 16 is_stmt 0 discriminator 2
 235 0158 3387F600 		add	a4,a3,a5
 236 015c 23000700 		sb	zero,0(a4)
 117:src/Slab.cpp  ****     for(size_t  i = 0; i < this->num; i++){
GAS LISTING /tmp/ccJsZ0pp.s 			page 8


 237              		.loc 1 117 5 is_stmt 1 discriminator 2
 238 0160 93871700 		addi	a5,a5,1
 239              	.LVL24:
 240 0164 6FF0DFFE 		j	.L13
 241              	.LVL25:
 242              	.L17:
 243              	.LBE62:
 244              	.LBB63:
 245              	.LBB61:
  17:src/../h/../h/Buddy.h ****         if(block_num != 0 && space != nullptr){
 246              		.loc 2 17 28 is_stmt 0
 247 0168 17050000 		lla	a0,_ZZN11BuddySystem11getInstanceEPviE2bs
 247      13050500 
 248 0170 97000000 		call	_ZN11BuddySystemC1Ev@plt
 248      E7800000 
 249              	.LVL26:
 250 0178 93071000 		li	a5,1
 251 017c 17070000 		sb	a5,_ZGVZN11BuddySystem11getInstanceEPviE2bs,a4
 251      2300F700 
 252 0184 6FF0DFF7 		j	.L11
 253              	.LVL27:
 254              	.L12:
 255              	.LBE61:
 256              	.LBE63:
 119:src/Slab.cpp  ****     }
 120:src/Slab.cpp  ****     tmp->free_objects = arr;
 257              		.loc 1 120 5 is_stmt 1
 258              		.loc 1 120 23 is_stmt 0
 259 0188 2338DA00 		sd	a3,16(s4)
 121:src/Slab.cpp  **** 
 122:src/Slab.cpp  ****     // initialize slab if there is constructor
 123:src/Slab.cpp  ****     if(this->ctor != nullptr){
 260              		.loc 1 123 5 is_stmt 1
 261              	.LBB64:
 262              		.loc 1 123 14 is_stmt 0
 263 018c 83B78404 		ld	a5,72(s1)
 264              	.LVL28:
 265              		.loc 1 123 5
 266 0190 63880702 		beqz	a5,.L14
 267              	.LBE64:
 124:src/Slab.cpp  ****         for(size_t i = 0, addr = tmp->first_addr; i < this->num; i++, addr += this->objsize){
 268              		.loc 1 124 9 is_stmt 1
 269              	.LVL29:
 270              	.LBB66:
 271              	.LBB65:
 272              		.loc 1 124 27 is_stmt 0
 273 0194 83398A01 		ld	s3,24(s4)
 274              	.LVL30:
 275              		.loc 1 124 20
 276 0198 13090000 		li	s2,0
 277              	.LVL31:
 278              	.L15:
 279              		.loc 1 124 53 is_stmt 1 discriminator 1
 280              		.loc 1 124 61 is_stmt 0 discriminator 1
 281 019c 83B78403 		ld	a5,56(s1)
 282              		.loc 1 124 53 discriminator 1
 283 01a0 6370F902 		bgeu	s2,a5,.L14
GAS LISTING /tmp/ccJsZ0pp.s 			page 9


 125:src/Slab.cpp  ****             this->ctor((void*)addr);
 284              		.loc 1 125 13 is_stmt 1
 285              		.loc 1 125 19 is_stmt 0
 286 01a4 83B78404 		ld	a5,72(s1)
 287              		.loc 1 125 23
 288 01a8 13850900 		mv	a0,s3
 289 01ac E7800700 		jalr	a5
 290              	.LVL32:
 124:src/Slab.cpp  ****         for(size_t i = 0, addr = tmp->first_addr; i < this->num; i++, addr += this->objsize){
 291              		.loc 1 124 9 is_stmt 1
 292 01b0 13091900 		addi	s2,s2,1
 293              	.LVL33:
 124:src/Slab.cpp  ****         for(size_t i = 0, addr = tmp->first_addr; i < this->num; i++, addr += this->objsize){
 294              		.loc 1 124 85 is_stmt 0
 295 01b4 83B70403 		ld	a5,48(s1)
 124:src/Slab.cpp  ****         for(size_t i = 0, addr = tmp->first_addr; i < this->num; i++, addr += this->objsize){
 296              		.loc 1 124 76
 297 01b8 B389F900 		add	s3,s3,a5
 298              	.LVL34:
 124:src/Slab.cpp  ****         for(size_t i = 0, addr = tmp->first_addr; i < this->num; i++, addr += this->objsize){
 299              		.loc 1 124 9
 300 01bc 6FF01FFE 		j	.L15
 301              	.LVL35:
 302              	.L14:
 303              	.LBE65:
 304              	.LBE66:
 126:src/Slab.cpp  ****         }
 127:src/Slab.cpp  ****     }
 128:src/Slab.cpp  **** 
 129:src/Slab.cpp  ****     // set free pointer and increment number of free slabs
 130:src/Slab.cpp  ****     this->slabs_free = tmp;
 305              		.loc 1 130 5 is_stmt 1
 306              		.loc 1 130 22 is_stmt 0
 307 01c0 23B84401 		sd	s4,16(s1)
 131:src/Slab.cpp  ****     this->num_slabs_free++;
 308              		.loc 1 131 5 is_stmt 1
 309              		.loc 1 131 11 is_stmt 0
 310 01c4 83B78402 		ld	a5,40(s1)
 311              		.loc 1 131 25
 312 01c8 93871700 		addi	a5,a5,1
 313 01cc 23B4F402 		sd	a5,40(s1)
 132:src/Slab.cpp  **** }
 314              		.loc 1 132 1
 315 01d0 130104FD 		addi	sp,s0,-48
 316              		.cfi_def_cfa 2, 48
 317              	.LVL36:
 318 01d4 83308102 		ld	ra,40(sp)
 319              		.cfi_restore 1
 320 01d8 03340102 		ld	s0,32(sp)
 321              		.cfi_restore 8
 322 01dc 83348101 		ld	s1,24(sp)
 323              		.cfi_restore 9
 324              	.LVL37:
 325 01e0 03390101 		ld	s2,16(sp)
 326              		.cfi_restore 18
 327 01e4 83398100 		ld	s3,8(sp)
 328              		.cfi_restore 19
GAS LISTING /tmp/ccJsZ0pp.s 			page 10


 329 01e8 033A0100 		ld	s4,0(sp)
 330              		.cfi_restore 20
 331              	.LVL38:
 332 01ec 13010103 		addi	sp,sp,48
 333              		.cfi_def_cfa_offset 0
 334 01f0 67800000 		jr	ra
 335              		.cfi_endproc
 336              	.LFE49:
 338              		.align	2
 339              		.globl	_ZN12kmem_cache_s17kmem_cache_createEPKcmPFvPvES4_
 341              	_ZN12kmem_cache_s17kmem_cache_createEPKcmPFvPvES4_:
 342              	.LFB46:
   9:src/Slab.cpp  **** 
 343              		.loc 1 9 114 is_stmt 1
 344              		.cfi_startproc
 345              	.LVL39:
 346 01f4 130101FC 		addi	sp,sp,-64
 347              		.cfi_def_cfa_offset 64
 348 01f8 233C1102 		sd	ra,56(sp)
 349 01fc 23388102 		sd	s0,48(sp)
 350 0200 23349102 		sd	s1,40(sp)
 351 0204 23302103 		sd	s2,32(sp)
 352 0208 233C3101 		sd	s3,24(sp)
 353 020c 23384101 		sd	s4,16(sp)
 354 0210 23345101 		sd	s5,8(sp)
 355              		.cfi_offset 1, -8
 356              		.cfi_offset 8, -16
 357              		.cfi_offset 9, -24
 358              		.cfi_offset 18, -32
 359              		.cfi_offset 19, -40
 360              		.cfi_offset 20, -48
 361              		.cfi_offset 21, -56
 362 0214 13040104 		addi	s0,sp,64
 363              		.cfi_def_cfa 8, 0
 364 0218 93090500 		mv	s3,a0
 365 021c 13890500 		mv	s2,a1
 366 0220 930A0600 		mv	s5,a2
 367 0224 138A0600 		mv	s4,a3
  12:src/Slab.cpp  ****         if(curr->name == name){
 368              		.loc 1 12 5
 369              	.LBB67:
  12:src/Slab.cpp  ****         if(curr->name == name){
 370              		.loc 1 12 23 is_stmt 0
 371 0228 97070000 		ld	a5,.LANCHOR0
 371      83B70700 
 372              	.LVL40:
 373              	.L21:
  12:src/Slab.cpp  ****         if(curr->name == name){
 374              		.loc 1 12 50 is_stmt 1 discriminator 1
 375 0230 638A0700 		beqz	a5,.L19
  13:src/Slab.cpp  ****             return nullptr;
 376              		.loc 1 13 9
  13:src/Slab.cpp  ****             return nullptr;
 377              		.loc 1 13 18 is_stmt 0
 378 0234 03B78705 		ld	a4,88(a5)
  13:src/Slab.cpp  ****             return nullptr;
 379              		.loc 1 13 9
GAS LISTING /tmp/ccJsZ0pp.s 			page 11


 380 0238 63083711 		beq	a4,s3,.L25
  12:src/Slab.cpp  ****         if(curr->name == name){
 381              		.loc 1 12 5 is_stmt 1 discriminator 2
  12:src/Slab.cpp  ****         if(curr->name == name){
 382              		.loc 1 12 61 is_stmt 0 discriminator 2
 383 023c 83B70706 		ld	a5,96(a5)
 384              	.LVL41:
  12:src/Slab.cpp  ****         if(curr->name == name){
 385              		.loc 1 12 5 discriminator 2
 386 0240 6FF01FFF 		j	.L21
 387              	.L19:
 388              	.LBE67:
  19:src/Slab.cpp  ****     tmp->name = name;
 389              		.loc 1 19 5 is_stmt 1
 390              	.LVL42:
 391              	.LBB68:
 392              	.LBB69:
  17:src/../h/../h/Buddy.h ****         if(block_num != 0 && space != nullptr){
 393              		.loc 2 17 9
  17:src/../h/../h/Buddy.h ****         if(block_num != 0 && space != nullptr){
 394              		.loc 2 17 28 is_stmt 0
 395 0244 97070000 		lbu	a5,_ZGVZN11BuddySystem11getInstanceEPviE2bs
 395      83C70700 
 396              	.LVL43:
 397 024c 63820708 		beqz	a5,.L27
 398              	.LVL44:
 399              	.L22:
  18:src/../h/../h/Buddy.h ****             bs.buddyHeapStart = (size_t)space;
 400              		.loc 2 18 9 is_stmt 1
 401              		.loc 2 23 9
 402              	.LBE69:
 403              	.LBE68:
  19:src/Slab.cpp  ****     tmp->name = name;
 404              		.loc 1 19 77 is_stmt 0
 405 0250 B7150000 		li	a1,4096
 406 0254 938585FF 		addi	a1,a1,-8
 407 0258 17050000 		lla	a0,_ZZN11BuddySystem11getInstanceEPviE2bs
 407      13050500 
 408 0260 97000000 		call	_ZN11BuddySystem10buddyAllocEm@plt
 408      E7800000 
 409              	.LVL45:
 410 0268 93040500 		mv	s1,a0
 411              	.LVL46:
  20:src/Slab.cpp  ****     tmp->objsize = size;
 412              		.loc 1 20 5 is_stmt 1
  20:src/Slab.cpp  ****     tmp->objsize = size;
 413              		.loc 1 20 15 is_stmt 0
 414 026c 233C3505 		sd	s3,88(a0)
  21:src/Slab.cpp  ****     tmp->ctor = ctor;
 415              		.loc 1 21 5 is_stmt 1
  21:src/Slab.cpp  ****     tmp->ctor = ctor;
 416              		.loc 1 21 18 is_stmt 0
 417 0270 23382503 		sd	s2,48(a0)
  22:src/Slab.cpp  ****     tmp->dtor = dtor;
 418              		.loc 1 22 5 is_stmt 1
  22:src/Slab.cpp  ****     tmp->dtor = dtor;
 419              		.loc 1 22 15 is_stmt 0
GAS LISTING /tmp/ccJsZ0pp.s 			page 12


 420 0274 23345505 		sd	s5,72(a0)
  23:src/Slab.cpp  **** 
 421              		.loc 1 23 5 is_stmt 1
  23:src/Slab.cpp  **** 
 422              		.loc 1 23 15 is_stmt 0
 423 0278 23384505 		sd	s4,80(a0)
  26:src/Slab.cpp  ****     tmp->num_slabs_full = tmp->num_slabs_partial = tmp->num_slabs_free = tmp->num_active_obj = tmp-
 424              		.loc 1 26 5 is_stmt 1
  26:src/Slab.cpp  ****     tmp->num_slabs_full = tmp->num_slabs_partial = tmp->num_slabs_free = tmp->num_active_obj = tmp-
 425              		.loc 1 26 60 is_stmt 0
 426 027c 23380500 		sd	zero,16(a0)
  26:src/Slab.cpp  ****     tmp->num_slabs_full = tmp->num_slabs_partial = tmp->num_slabs_free = tmp->num_active_obj = tmp-
 427              		.loc 1 26 42
 428 0280 23340500 		sd	zero,8(a0)
  26:src/Slab.cpp  ****     tmp->num_slabs_full = tmp->num_slabs_partial = tmp->num_slabs_free = tmp->num_active_obj = tmp-
 429              		.loc 1 26 21
 430 0284 23300500 		sd	zero,0(a0)
  27:src/Slab.cpp  ****     tmp->growing = false;
 431              		.loc 1 27 5 is_stmt 1
  27:src/Slab.cpp  ****     tmp->growing = false;
 432              		.loc 1 27 108 is_stmt 0
 433 0288 233C0506 		sd	zero,120(a0)
  27:src/Slab.cpp  ****     tmp->growing = false;
 434              		.loc 1 27 94
 435 028c 23340506 		sd	zero,104(a0)
  27:src/Slab.cpp  ****     tmp->growing = false;
 436              		.loc 1 27 72
 437 0290 23340502 		sd	zero,40(a0)
  27:src/Slab.cpp  ****     tmp->growing = false;
 438              		.loc 1 27 50
 439 0294 23300502 		sd	zero,32(a0)
  27:src/Slab.cpp  ****     tmp->growing = false;
 440              		.loc 1 27 25
 441 0298 233C0500 		sd	zero,24(a0)
  28:src/Slab.cpp  **** 
 442              		.loc 1 28 5 is_stmt 1
  28:src/Slab.cpp  **** 
 443              		.loc 1 28 18 is_stmt 0
 444 029c 23080506 		sb	zero,112(a0)
  31:src/Slab.cpp  ****     while(tmp->size_in_blocks * BLOCK_SIZE < tmp->objsize * NUM_OF_OBJECTS_IN_SLAB + sizeof(Slab) +
 445              		.loc 1 31 5 is_stmt 1
  31:src/Slab.cpp  ****     while(tmp->size_in_blocks * BLOCK_SIZE < tmp->objsize * NUM_OF_OBJECTS_IN_SLAB + sizeof(Slab) +
 446              		.loc 1 31 25 is_stmt 0
 447 02a0 93071000 		li	a5,1
 448 02a4 2330F504 		sd	a5,64(a0)
 449              	.L24:
  32:src/Slab.cpp  ****         tmp->size_in_blocks++;
 450              		.loc 1 32 5 is_stmt 1
  32:src/Slab.cpp  ****         tmp->size_in_blocks++;
 451              		.loc 1 32 44
  32:src/Slab.cpp  ****         tmp->size_in_blocks++;
 452              		.loc 1 32 16 is_stmt 0
 453 02a8 03B70404 		ld	a4,64(s1)
  32:src/Slab.cpp  ****         tmp->size_in_blocks++;
 454              		.loc 1 32 31
 455 02ac 9316C700 		slli	a3,a4,12
  32:src/Slab.cpp  ****         tmp->size_in_blocks++;
GAS LISTING /tmp/ccJsZ0pp.s 			page 13


 456              		.loc 1 32 59
 457 02b0 93172900 		slli	a5,s2,2
 458 02b4 B3872701 		add	a5,a5,s2
 459 02b8 93971700 		slli	a5,a5,1
  32:src/Slab.cpp  ****         tmp->size_in_blocks++;
 460              		.loc 1 32 99
 461 02bc 93878702 		addi	a5,a5,40
  32:src/Slab.cpp  ****         tmp->size_in_blocks++;
 462              		.loc 1 32 44
 463 02c0 63F8F602 		bgeu	a3,a5,.L23
  33:src/Slab.cpp  ****     }
 464              		.loc 1 33 9 is_stmt 1
  33:src/Slab.cpp  ****     }
 465              		.loc 1 33 28 is_stmt 0
 466 02c4 13071700 		addi	a4,a4,1
 467 02c8 23B0E404 		sd	a4,64(s1)
  32:src/Slab.cpp  ****         tmp->size_in_blocks++;
 468              		.loc 1 32 5
 469 02cc 6FF0DFFD 		j	.L24
 470              	.LVL47:
 471              	.L27:
 472              	.LBB71:
 473              	.LBB70:
  17:src/../h/../h/Buddy.h ****         if(block_num != 0 && space != nullptr){
 474              		.loc 2 17 28
 475 02d0 17050000 		lla	a0,_ZZN11BuddySystem11getInstanceEPviE2bs
 475      13050500 
 476              	.LVL48:
 477 02d8 97000000 		call	_ZN11BuddySystemC1Ev@plt
 477      E7800000 
 478              	.LVL49:
 479 02e0 93071000 		li	a5,1
 480 02e4 17070000 		sb	a5,_ZGVZN11BuddySystem11getInstanceEPviE2bs,a4
 480      2300F700 
 481 02ec 6FF05FF6 		j	.L22
 482              	.LVL50:
 483              	.L23:
 484              	.LBE70:
 485              	.LBE71:
  36:src/Slab.cpp  ****     tmp->num = how_many_objects_into_one_slab;
 486              		.loc 1 36 5 is_stmt 1
  36:src/Slab.cpp  ****     tmp->num = how_many_objects_into_one_slab;
 487              		.loc 1 36 96 is_stmt 0
 488 02f0 9B17C700 		slliw	a5,a4,12
 489 02f4 9B8787FD 		addiw	a5,a5,-40
  36:src/Slab.cpp  ****     tmp->num = how_many_objects_into_one_slab;
 490              		.loc 1 36 9
 491 02f8 BBC72703 		divw	a5,a5,s2
 492              	.LVL51:
  37:src/Slab.cpp  **** 
 493              		.loc 1 37 5 is_stmt 1
  37:src/Slab.cpp  **** 
 494              		.loc 1 37 14 is_stmt 0
 495 02fc 23BCF402 		sd	a5,56(s1)
  40:src/Slab.cpp  **** 
 496              		.loc 1 40 5 is_stmt 1
  40:src/Slab.cpp  **** 
GAS LISTING /tmp/ccJsZ0pp.s 			page 14


 497              		.loc 1 40 26 is_stmt 0
 498 0300 13850400 		mv	a0,s1
 499 0304 97000000 		call	_ZN12kmem_cache_s16create_free_slabEv
 499      E7800000 
 500              	.LVL52:
  43:src/Slab.cpp  ****     kmem_cache_s::head = tmp;
 501              		.loc 1 43 5 is_stmt 1
  43:src/Slab.cpp  ****     kmem_cache_s::head = tmp;
 502              		.loc 1 43 15 is_stmt 0
 503 030c 97070000 		lla	a5,.LANCHOR0
 503      93870700 
 504 0314 03B70700 		ld	a4,0(a5)
 505 0318 23B0E406 		sd	a4,96(s1)
  44:src/Slab.cpp  **** 
 506              		.loc 1 44 5 is_stmt 1
  44:src/Slab.cpp  **** 
 507              		.loc 1 44 24 is_stmt 0
 508 031c 23B09700 		sd	s1,0(a5)
  46:src/Slab.cpp  **** }
 509              		.loc 1 46 5 is_stmt 1
 510              	.LVL53:
 511              	.L18:
  47:src/Slab.cpp  **** 
 512              		.loc 1 47 1 is_stmt 0
 513 0320 13850400 		mv	a0,s1
 514 0324 83308103 		ld	ra,56(sp)
 515              		.cfi_remember_state
 516              		.cfi_restore 1
 517 0328 03340103 		ld	s0,48(sp)
 518              		.cfi_restore 8
 519              		.cfi_def_cfa 2, 64
 520 032c 83348102 		ld	s1,40(sp)
 521              		.cfi_restore 9
 522 0330 03390102 		ld	s2,32(sp)
 523              		.cfi_restore 18
 524              	.LVL54:
 525 0334 83398101 		ld	s3,24(sp)
 526              		.cfi_restore 19
 527              	.LVL55:
 528 0338 033A0101 		ld	s4,16(sp)
 529              		.cfi_restore 20
 530              	.LVL56:
 531 033c 833A8100 		ld	s5,8(sp)
 532              		.cfi_restore 21
 533              	.LVL57:
 534 0340 13010104 		addi	sp,sp,64
 535              		.cfi_def_cfa_offset 0
 536 0344 67800000 		jr	ra
 537              	.LVL58:
 538              	.L25:
 539              		.cfi_restore_state
 540              	.LBB72:
  14:src/Slab.cpp  ****         }
 541              		.loc 1 14 20
 542 0348 93040000 		li	s1,0
 543 034c 6FF05FFD 		j	.L18
 544              	.LBE72:
GAS LISTING /tmp/ccJsZ0pp.s 			page 15


 545              		.cfi_endproc
 546              	.LFE46:
 548              		.align	2
 549              		.globl	_ZN12kmem_cache_s15kmem_cache_freeEPv
 551              	_ZN12kmem_cache_s15kmem_cache_freeEPv:
 552              	.LFB50:
 133:src/Slab.cpp  **** 
 134:src/Slab.cpp  **** // returns -1 if object not found and 0 if removal is completed
 135:src/Slab.cpp  **** int kmem_cache_s::kmem_cache_free(void *objp) {
 553              		.loc 1 135 47 is_stmt 1
 554              		.cfi_startproc
 555              	.LVL59:
 556 0350 130101FD 		addi	sp,sp,-48
 557              		.cfi_def_cfa_offset 48
 558 0354 23341102 		sd	ra,40(sp)
 559 0358 23308102 		sd	s0,32(sp)
 560 035c 233C9100 		sd	s1,24(sp)
 561 0360 23382101 		sd	s2,16(sp)
 562 0364 23343101 		sd	s3,8(sp)
 563 0368 23304101 		sd	s4,0(sp)
 564              		.cfi_offset 1, -8
 565              		.cfi_offset 8, -16
 566              		.cfi_offset 9, -24
 567              		.cfi_offset 18, -32
 568              		.cfi_offset 19, -40
 569              		.cfi_offset 20, -48
 570 036c 13040103 		addi	s0,sp,48
 571              		.cfi_def_cfa 8, 0
 572 0370 130A0500 		mv	s4,a0
 573 0374 93890500 		mv	s3,a1
 136:src/Slab.cpp  ****     // check firstly in partial
 137:src/Slab.cpp  ****     Slab* prev = nullptr;
 574              		.loc 1 137 5
 575              	.LVL60:
 138:src/Slab.cpp  ****     for(Slab* tmp = this->slabs_partial; tmp; tmp = tmp->next){
 576              		.loc 1 138 5
 577              	.LBB73:
 578              		.loc 1 138 15 is_stmt 0
 579 0378 83348500 		ld	s1,8(a0)
 580              	.LVL61:
 581              	.LBE73:
 137:src/Slab.cpp  ****     for(Slab* tmp = this->slabs_partial; tmp; tmp = tmp->next){
 582              		.loc 1 137 11
 583 037c 13090000 		li	s2,0
 584 0380 6F008001 		j	.L37
 585              	.LVL62:
 586              	.L34:
 587              	.LBB86:
 588              	.LBB74:
 589              	.LBB75:
 590              	.LBB76:
 139:src/Slab.cpp  ****         if((size_t)objp > (size_t)tmp &&
 140:src/Slab.cpp  ****         (size_t)objp < (size_t)tmp + this->size_in_blocks * BLOCK_SIZE - sizeof(size_t)){
 141:src/Slab.cpp  ****             size_t position = (((size_t)objp - (size_t)tmp->first_addr)) / (size_t)this->objsize;
 142:src/Slab.cpp  ****             (tmp->free_objects)[position] = false;
 143:src/Slab.cpp  ****             if(this->dtor){
 144:src/Slab.cpp  ****                 this->dtor(objp);
GAS LISTING /tmp/ccJsZ0pp.s 			page 16


 145:src/Slab.cpp  ****             }
 146:src/Slab.cpp  ****             if(this->ctor){
 147:src/Slab.cpp  ****                 this->ctor(objp);
 148:src/Slab.cpp  ****             }
 149:src/Slab.cpp  **** 
 150:src/Slab.cpp  ****             this->num_active_obj--;
 151:src/Slab.cpp  ****             tmp->decrement_num_of_active();
 152:src/Slab.cpp  ****             size_t number_of_active = tmp->get_number_of_active_objects();
 153:src/Slab.cpp  ****             if(number_of_active == 0){
 154:src/Slab.cpp  ****                 // move from partial to free
 155:src/Slab.cpp  ****                 if(prev)prev->next = tmp->next;
 156:src/Slab.cpp  ****                 else slabs_partial = tmp->next;
 591              		.loc 1 156 22 is_stmt 1
 592              		.loc 1 156 43 is_stmt 0
 593 0384 83B78400 		ld	a5,8(s1)
 594              	.LVL63:
 595              		.loc 1 156 36
 596 0388 2334FA00 		sd	a5,8(s4)
 597              	.LVL64:
 598 038c 6F00C008 		j	.L35
 599              	.LVL65:
 600              	.L30:
 601              	.LBE76:
 602              	.LBE75:
 157:src/Slab.cpp  ****                 tmp->next = this->slabs_free;
 158:src/Slab.cpp  ****                 this->slabs_free = tmp;
 159:src/Slab.cpp  ****                 this->num_slabs_partial--;
 160:src/Slab.cpp  ****                 this->num_slabs_free++;
 161:src/Slab.cpp  ****             }
 162:src/Slab.cpp  ****             return 0;
 163:src/Slab.cpp  ****         }
 164:src/Slab.cpp  ****         prev = tmp;
 603              		.loc 1 164 9 is_stmt 1 discriminator 2
 604              	.LBE74:
 138:src/Slab.cpp  ****         if((size_t)objp > (size_t)tmp &&
 605              		.loc 1 138 5 discriminator 2
 606              	.LBB83:
 607              		.loc 1 164 14 is_stmt 0 discriminator 2
 608 0390 13890400 		mv	s2,s1
 609              	.LBE83:
 138:src/Slab.cpp  ****         if((size_t)objp > (size_t)tmp &&
 610              		.loc 1 138 51 discriminator 2
 611 0394 83B48400 		ld	s1,8(s1)
 612              	.LVL66:
 613              	.L37:
 138:src/Slab.cpp  ****         if((size_t)objp > (size_t)tmp &&
 614              		.loc 1 138 42 is_stmt 1 discriminator 1
 615 0398 6386040A 		beqz	s1,.L29
 616              	.LBB84:
 139:src/Slab.cpp  ****         if((size_t)objp > (size_t)tmp &&
 617              		.loc 1 139 9
 618              	.LBB81:
 619 039c E3FA34FF 		bleu	s3,s1,.L30
 140:src/Slab.cpp  ****             size_t position = (((size_t)objp - (size_t)tmp->first_addr)) / (size_t)this->objsize;
 620              		.loc 1 140 44 is_stmt 0 discriminator 1
 621 03a0 83370A04 		ld	a5,64(s4)
 140:src/Slab.cpp  ****             size_t position = (((size_t)objp - (size_t)tmp->first_addr)) / (size_t)this->objsize;
GAS LISTING /tmp/ccJsZ0pp.s 			page 17


 622              		.loc 1 140 59 discriminator 1
 623 03a4 9397C700 		slli	a5,a5,12
 140:src/Slab.cpp  ****             size_t position = (((size_t)objp - (size_t)tmp->first_addr)) / (size_t)this->objsize;
 624              		.loc 1 140 36 discriminator 1
 625 03a8 B387F400 		add	a5,s1,a5
 140:src/Slab.cpp  ****             size_t position = (((size_t)objp - (size_t)tmp->first_addr)) / (size_t)this->objsize;
 626              		.loc 1 140 72 discriminator 1
 627 03ac 938787FF 		addi	a5,a5,-8
 139:src/Slab.cpp  ****         (size_t)objp < (size_t)tmp + this->size_in_blocks * BLOCK_SIZE - sizeof(size_t)){
 628              		.loc 1 139 39 discriminator 1
 629 03b0 E3F0F9FE 		bgeu	s3,a5,.L30
 630              	.LBB79:
 141:src/Slab.cpp  ****             (tmp->free_objects)[position] = false;
 631              		.loc 1 141 13 is_stmt 1
 141:src/Slab.cpp  ****             (tmp->free_objects)[position] = false;
 632              		.loc 1 141 61 is_stmt 0
 633 03b4 83B78401 		ld	a5,24(s1)
 141:src/Slab.cpp  ****             (tmp->free_objects)[position] = false;
 634              		.loc 1 141 46
 635 03b8 3387F940 		sub	a4,s3,a5
 141:src/Slab.cpp  ****             (tmp->free_objects)[position] = false;
 636              		.loc 1 141 90
 637 03bc 83370A03 		ld	a5,48(s4)
 141:src/Slab.cpp  ****             (tmp->free_objects)[position] = false;
 638              		.loc 1 141 20
 639 03c0 3357F702 		divu	a4,a4,a5
 640              	.LVL67:
 142:src/Slab.cpp  ****             if(this->dtor){
 641              		.loc 1 142 13 is_stmt 1
 142:src/Slab.cpp  ****             if(this->dtor){
 642              		.loc 1 142 19 is_stmt 0
 643 03c4 83B70401 		ld	a5,16(s1)
 142:src/Slab.cpp  ****             if(this->dtor){
 644              		.loc 1 142 41
 645 03c8 3387E700 		add	a4,a5,a4
 646              	.LVL68:
 142:src/Slab.cpp  ****             if(this->dtor){
 647              		.loc 1 142 43
 648 03cc 23000700 		sb	zero,0(a4)
 649              	.LVL69:
 143:src/Slab.cpp  ****                 this->dtor(objp);
 650              		.loc 1 143 13 is_stmt 1
 143:src/Slab.cpp  ****                 this->dtor(objp);
 651              		.loc 1 143 22 is_stmt 0
 652 03d0 83370A05 		ld	a5,80(s4)
 143:src/Slab.cpp  ****                 this->dtor(objp);
 653              		.loc 1 143 13
 654 03d4 63860700 		beqz	a5,.L31
 144:src/Slab.cpp  ****             }
 655              		.loc 1 144 17 is_stmt 1
 144:src/Slab.cpp  ****             }
 656              		.loc 1 144 27 is_stmt 0
 657 03d8 13850900 		mv	a0,s3
 658              	.LVL70:
 659 03dc E7800700 		jalr	a5
 660              	.LVL71:
 661              	.L31:
GAS LISTING /tmp/ccJsZ0pp.s 			page 18


 146:src/Slab.cpp  ****                 this->ctor(objp);
 662              		.loc 1 146 13 is_stmt 1
 146:src/Slab.cpp  ****                 this->ctor(objp);
 663              		.loc 1 146 22 is_stmt 0
 664 03e0 83378A04 		ld	a5,72(s4)
 146:src/Slab.cpp  ****                 this->ctor(objp);
 665              		.loc 1 146 13
 666 03e4 63860700 		beqz	a5,.L32
 147:src/Slab.cpp  ****             }
 667              		.loc 1 147 17 is_stmt 1
 147:src/Slab.cpp  ****             }
 668              		.loc 1 147 27 is_stmt 0
 669 03e8 13850900 		mv	a0,s3
 670 03ec E7800700 		jalr	a5
 671              	.LVL72:
 672              	.L32:
 150:src/Slab.cpp  ****             tmp->decrement_num_of_active();
 673              		.loc 1 150 13 is_stmt 1
 150:src/Slab.cpp  ****             tmp->decrement_num_of_active();
 674              		.loc 1 150 19 is_stmt 0
 675 03f0 83378A06 		ld	a5,104(s4)
 150:src/Slab.cpp  ****             tmp->decrement_num_of_active();
 676              		.loc 1 150 33
 677 03f4 9387F7FF 		addi	a5,a5,-1
 678 03f8 2334FA06 		sd	a5,104(s4)
 151:src/Slab.cpp  ****             size_t number_of_active = tmp->get_number_of_active_objects();
 679              		.loc 1 151 13 is_stmt 1
 680              	.LVL73:
 681              	.LBB77:
 682              	.LBB78:
 683              		.file 3 "src/../h/Slab.h"
   1:src/../h/Slab.h **** 
   2:src/../h/Slab.h **** #include "../lib/hw.h"
   3:src/../h/Slab.h **** #include "../h/Buddy.h"
   4:src/../h/Slab.h **** #include "../h/String.h"
   5:src/../h/Slab.h **** 
   6:src/../h/Slab.h **** class Slab{
   7:src/../h/Slab.h **** private:
   8:src/../h/Slab.h ****     size_t num_active = 0; // number of active objects in slab
   9:src/../h/Slab.h ****     Slab* next = nullptr; // next slab
  10:src/../h/Slab.h ****     bool *free_objects;
  11:src/../h/Slab.h ****     size_t first_addr;
  12:src/../h/Slab.h ****     friend struct kmem_cache_s;
  13:src/../h/Slab.h **** public:
  14:src/../h/Slab.h ****     size_t get_number_of_active_objects(){return num_active;}
  15:src/../h/Slab.h ****     void* return_first_free_object_and_rearange_list(int, int);
  16:src/../h/Slab.h ****     void increment_num_of_active(){num_active++;}
  17:src/../h/Slab.h ****     void decrement_num_of_active(){num_active--;}
 684              		.loc 3 17 36
 685 03fc 83B70400 		ld	a5,0(s1)
 686              		.loc 3 17 46 is_stmt 0
 687 0400 9387F7FF 		addi	a5,a5,-1
 688 0404 23B0F400 		sd	a5,0(s1)
 689              	.LVL74:
 690              	.LBE78:
 691              	.LBE77:
 152:src/Slab.cpp  ****             if(number_of_active == 0){
GAS LISTING /tmp/ccJsZ0pp.s 			page 19


 692              		.loc 1 152 13 is_stmt 1
 693              	.LBE79:
 694              	.LBE81:
 695              	.LBE84:
 696              	.LBE86:
  14:src/../h/Slab.h ****     void* return_first_free_object_and_rearange_list(int, int);
 697              		.loc 3 14 43
 698              	.LBB87:
 699              	.LBB85:
 700              	.LBB82:
 701              	.LBB80:
 153:src/Slab.cpp  ****                 // move from partial to free
 702              		.loc 1 153 13
 703 0408 639A0702 		bnez	a5,.L33
 155:src/Slab.cpp  ****                 else slabs_partial = tmp->next;
 704              		.loc 1 155 17
 705 040c E30C09F6 		beqz	s2,.L34
 155:src/Slab.cpp  ****                 else slabs_partial = tmp->next;
 706              		.loc 1 155 25 discriminator 1
 155:src/Slab.cpp  ****                 else slabs_partial = tmp->next;
 707              		.loc 1 155 43 is_stmt 0 discriminator 1
 708 0410 83B78400 		ld	a5,8(s1)
 709              	.LVL75:
 155:src/Slab.cpp  ****                 else slabs_partial = tmp->next;
 710              		.loc 1 155 36 discriminator 1
 711 0414 2334F900 		sd	a5,8(s2)
 712              	.LVL76:
 713              	.L35:
 157:src/Slab.cpp  ****                 this->slabs_free = tmp;
 714              		.loc 1 157 17 is_stmt 1
 157:src/Slab.cpp  ****                 this->slabs_free = tmp;
 715              		.loc 1 157 35 is_stmt 0
 716 0418 83370A01 		ld	a5,16(s4)
 157:src/Slab.cpp  ****                 this->slabs_free = tmp;
 717              		.loc 1 157 27
 718 041c 23B4F400 		sd	a5,8(s1)
 158:src/Slab.cpp  ****                 this->num_slabs_partial--;
 719              		.loc 1 158 17 is_stmt 1
 158:src/Slab.cpp  ****                 this->num_slabs_partial--;
 720              		.loc 1 158 34 is_stmt 0
 721 0420 23389A00 		sd	s1,16(s4)
 159:src/Slab.cpp  ****                 this->num_slabs_free++;
 722              		.loc 1 159 17 is_stmt 1
 159:src/Slab.cpp  ****                 this->num_slabs_free++;
 723              		.loc 1 159 23 is_stmt 0
 724 0424 83370A02 		ld	a5,32(s4)
 159:src/Slab.cpp  ****                 this->num_slabs_free++;
 725              		.loc 1 159 40
 726 0428 9387F7FF 		addi	a5,a5,-1
 727 042c 2330FA02 		sd	a5,32(s4)
 160:src/Slab.cpp  ****             }
 728              		.loc 1 160 17 is_stmt 1
 160:src/Slab.cpp  ****             }
 729              		.loc 1 160 23 is_stmt 0
 730 0430 83378A02 		ld	a5,40(s4)
 160:src/Slab.cpp  ****             }
 731              		.loc 1 160 37
GAS LISTING /tmp/ccJsZ0pp.s 			page 20


 732 0434 93871700 		addi	a5,a5,1
 733 0438 2334FA02 		sd	a5,40(s4)
 734              	.L33:
 162:src/Slab.cpp  ****         }
 735              		.loc 1 162 13 is_stmt 1
 162:src/Slab.cpp  ****         }
 736              		.loc 1 162 20 is_stmt 0
 737 043c 13050000 		li	a0,0
 738 0440 6F00C00C 		j	.L36
 739              	.LVL77:
 740              	.L29:
 741              	.LBE80:
 742              	.LBE82:
 743              	.LBE85:
 744              	.LBE87:
 165:src/Slab.cpp  ****     }
 166:src/Slab.cpp  ****     // check in full
 167:src/Slab.cpp  ****     prev = nullptr;
 745              		.loc 1 167 5 is_stmt 1
 168:src/Slab.cpp  ****     for(Slab* tmp = this->slabs_full; tmp; tmp = tmp->next){
 746              		.loc 1 168 5
 747              	.LBB88:
 748              		.loc 1 168 15 is_stmt 0
 749 0444 03390A00 		ld	s2,0(s4)
 750              	.LVL78:
 751 0448 6F008001 		j	.L43
 752              	.LVL79:
 753              	.L41:
 754              	.LBB89:
 755              	.LBB90:
 756              	.LBB91:
 169:src/Slab.cpp  ****         if((size_t)objp > (size_t)tmp &&
 170:src/Slab.cpp  ****            (size_t)objp < (size_t)tmp + this->size_in_blocks * BLOCK_SIZE - sizeof(size_t)){
 171:src/Slab.cpp  ****             size_t position = (((size_t)objp - (size_t)tmp->first_addr)) / (size_t)this->objsize;
 172:src/Slab.cpp  ****             (tmp->free_objects)[position] = false;
 173:src/Slab.cpp  ****             if(this->dtor){
 174:src/Slab.cpp  ****                 this->dtor(objp);
 175:src/Slab.cpp  ****             }
 176:src/Slab.cpp  ****             if(this->ctor){
 177:src/Slab.cpp  ****                 this->ctor(objp);
 178:src/Slab.cpp  ****             }
 179:src/Slab.cpp  ****             this->num_active_obj--;
 180:src/Slab.cpp  ****             tmp->decrement_num_of_active();
 181:src/Slab.cpp  **** 
 182:src/Slab.cpp  ****             // move from full to partial
 183:src/Slab.cpp  ****             if(prev)prev->next = tmp->next;
 184:src/Slab.cpp  ****             else slabs_full = tmp->next;
 757              		.loc 1 184 18 is_stmt 1
 758              		.loc 1 184 36 is_stmt 0
 759 044c 83378900 		ld	a5,8(s2)
 760              		.loc 1 184 29
 761 0450 2330FA00 		sd	a5,0(s4)
 762 0454 6F008008 		j	.L42
 763              	.LVL80:
 764              	.L38:
 765              	.LBE91:
 766              	.LBE90:
GAS LISTING /tmp/ccJsZ0pp.s 			page 21


 185:src/Slab.cpp  ****             tmp->next = this->slabs_partial;
 186:src/Slab.cpp  ****             this->slabs_partial = tmp;
 187:src/Slab.cpp  ****             this->num_slabs_full--;
 188:src/Slab.cpp  ****             this->num_slabs_partial++;
 189:src/Slab.cpp  **** 
 190:src/Slab.cpp  ****             return 0;
 191:src/Slab.cpp  ****         }
 192:src/Slab.cpp  ****         prev = tmp;
 767              		.loc 1 192 9 is_stmt 1 discriminator 2
 768              	.LBE89:
 168:src/Slab.cpp  ****         if((size_t)objp > (size_t)tmp &&
 769              		.loc 1 168 5 discriminator 2
 770              	.LBB96:
 771              		.loc 1 192 14 is_stmt 0 discriminator 2
 772 0458 93040900 		mv	s1,s2
 773              	.LBE96:
 168:src/Slab.cpp  ****         if((size_t)objp > (size_t)tmp &&
 774              		.loc 1 168 48 discriminator 2
 775 045c 03398900 		ld	s2,8(s2)
 776              	.LVL81:
 777              	.L43:
 168:src/Slab.cpp  ****         if((size_t)objp > (size_t)tmp &&
 778              		.loc 1 168 39 is_stmt 1 discriminator 1
 779 0460 6304090A 		beqz	s2,.L44
 780              	.LBB97:
 169:src/Slab.cpp  ****         if((size_t)objp > (size_t)tmp &&
 781              		.loc 1 169 9
 782              	.LBB95:
 783 0464 E37A39FF 		bleu	s3,s2,.L38
 170:src/Slab.cpp  ****             size_t position = (((size_t)objp - (size_t)tmp->first_addr)) / (size_t)this->objsize;
 784              		.loc 1 170 47 is_stmt 0 discriminator 1
 785 0468 83370A04 		ld	a5,64(s4)
 170:src/Slab.cpp  ****             size_t position = (((size_t)objp - (size_t)tmp->first_addr)) / (size_t)this->objsize;
 786              		.loc 1 170 62 discriminator 1
 787 046c 9397C700 		slli	a5,a5,12
 170:src/Slab.cpp  ****             size_t position = (((size_t)objp - (size_t)tmp->first_addr)) / (size_t)this->objsize;
 788              		.loc 1 170 39 discriminator 1
 789 0470 B307F900 		add	a5,s2,a5
 170:src/Slab.cpp  ****             size_t position = (((size_t)objp - (size_t)tmp->first_addr)) / (size_t)this->objsize;
 790              		.loc 1 170 75 discriminator 1
 791 0474 938787FF 		addi	a5,a5,-8
 169:src/Slab.cpp  ****            (size_t)objp < (size_t)tmp + this->size_in_blocks * BLOCK_SIZE - sizeof(size_t)){
 792              		.loc 1 169 39 discriminator 1
 793 0478 E3F0F9FE 		bgeu	s3,a5,.L38
 794              	.LBB94:
 171:src/Slab.cpp  ****             (tmp->free_objects)[position] = false;
 795              		.loc 1 171 13 is_stmt 1
 171:src/Slab.cpp  ****             (tmp->free_objects)[position] = false;
 796              		.loc 1 171 61 is_stmt 0
 797 047c 83378901 		ld	a5,24(s2)
 171:src/Slab.cpp  ****             (tmp->free_objects)[position] = false;
 798              		.loc 1 171 46
 799 0480 3387F940 		sub	a4,s3,a5
 171:src/Slab.cpp  ****             (tmp->free_objects)[position] = false;
 800              		.loc 1 171 90
 801 0484 83370A03 		ld	a5,48(s4)
 171:src/Slab.cpp  ****             (tmp->free_objects)[position] = false;
GAS LISTING /tmp/ccJsZ0pp.s 			page 22


 802              		.loc 1 171 20
 803 0488 3357F702 		divu	a4,a4,a5
 804              	.LVL82:
 172:src/Slab.cpp  ****             if(this->dtor){
 805              		.loc 1 172 13 is_stmt 1
 172:src/Slab.cpp  ****             if(this->dtor){
 806              		.loc 1 172 19 is_stmt 0
 807 048c 83370901 		ld	a5,16(s2)
 172:src/Slab.cpp  ****             if(this->dtor){
 808              		.loc 1 172 41
 809 0490 3387E700 		add	a4,a5,a4
 810              	.LVL83:
 172:src/Slab.cpp  ****             if(this->dtor){
 811              		.loc 1 172 43
 812 0494 23000700 		sb	zero,0(a4)
 813              	.LVL84:
 173:src/Slab.cpp  ****                 this->dtor(objp);
 814              		.loc 1 173 13 is_stmt 1
 173:src/Slab.cpp  ****                 this->dtor(objp);
 815              		.loc 1 173 22 is_stmt 0
 816 0498 83370A05 		ld	a5,80(s4)
 173:src/Slab.cpp  ****                 this->dtor(objp);
 817              		.loc 1 173 13
 818 049c 63860700 		beqz	a5,.L39
 174:src/Slab.cpp  ****             }
 819              		.loc 1 174 17 is_stmt 1
 174:src/Slab.cpp  ****             }
 820              		.loc 1 174 27 is_stmt 0
 821 04a0 13850900 		mv	a0,s3
 822              	.LVL85:
 823 04a4 E7800700 		jalr	a5
 824              	.LVL86:
 825              	.L39:
 176:src/Slab.cpp  ****                 this->ctor(objp);
 826              		.loc 1 176 13 is_stmt 1
 176:src/Slab.cpp  ****                 this->ctor(objp);
 827              		.loc 1 176 22 is_stmt 0
 828 04a8 83378A04 		ld	a5,72(s4)
 176:src/Slab.cpp  ****                 this->ctor(objp);
 829              		.loc 1 176 13
 830 04ac 63860700 		beqz	a5,.L40
 177:src/Slab.cpp  ****             }
 831              		.loc 1 177 17 is_stmt 1
 177:src/Slab.cpp  ****             }
 832              		.loc 1 177 27 is_stmt 0
 833 04b0 13850900 		mv	a0,s3
 834 04b4 E7800700 		jalr	a5
 835              	.LVL87:
 836              	.L40:
 179:src/Slab.cpp  ****             tmp->decrement_num_of_active();
 837              		.loc 1 179 13 is_stmt 1
 179:src/Slab.cpp  ****             tmp->decrement_num_of_active();
 838              		.loc 1 179 19 is_stmt 0
 839 04b8 83378A06 		ld	a5,104(s4)
 179:src/Slab.cpp  ****             tmp->decrement_num_of_active();
 840              		.loc 1 179 33
 841 04bc 9387F7FF 		addi	a5,a5,-1
GAS LISTING /tmp/ccJsZ0pp.s 			page 23


 842 04c0 2334FA06 		sd	a5,104(s4)
 180:src/Slab.cpp  **** 
 843              		.loc 1 180 13 is_stmt 1
 844              	.LVL88:
 845              	.LBB92:
 846              	.LBB93:
 847              		.loc 3 17 36
 848 04c4 83370900 		ld	a5,0(s2)
 849              		.loc 3 17 46 is_stmt 0
 850 04c8 9387F7FF 		addi	a5,a5,-1
 851 04cc 2330F900 		sd	a5,0(s2)
 852              	.LVL89:
 853              	.LBE93:
 854              	.LBE92:
 183:src/Slab.cpp  ****             else slabs_full = tmp->next;
 855              		.loc 1 183 13 is_stmt 1
 856 04d0 E38E04F6 		beqz	s1,.L41
 183:src/Slab.cpp  ****             else slabs_full = tmp->next;
 857              		.loc 1 183 21 discriminator 1
 183:src/Slab.cpp  ****             else slabs_full = tmp->next;
 858              		.loc 1 183 39 is_stmt 0 discriminator 1
 859 04d4 83378900 		ld	a5,8(s2)
 183:src/Slab.cpp  ****             else slabs_full = tmp->next;
 860              		.loc 1 183 32 discriminator 1
 861 04d8 23B4F400 		sd	a5,8(s1)
 862              	.L42:
 185:src/Slab.cpp  ****             this->slabs_partial = tmp;
 863              		.loc 1 185 13 is_stmt 1
 185:src/Slab.cpp  ****             this->slabs_partial = tmp;
 864              		.loc 1 185 31 is_stmt 0
 865 04dc 83378A00 		ld	a5,8(s4)
 185:src/Slab.cpp  ****             this->slabs_partial = tmp;
 866              		.loc 1 185 23
 867 04e0 2334F900 		sd	a5,8(s2)
 186:src/Slab.cpp  ****             this->num_slabs_full--;
 868              		.loc 1 186 13 is_stmt 1
 186:src/Slab.cpp  ****             this->num_slabs_full--;
 869              		.loc 1 186 33 is_stmt 0
 870 04e4 23342A01 		sd	s2,8(s4)
 187:src/Slab.cpp  ****             this->num_slabs_partial++;
 871              		.loc 1 187 13 is_stmt 1
 187:src/Slab.cpp  ****             this->num_slabs_partial++;
 872              		.loc 1 187 19 is_stmt 0
 873 04e8 83378A01 		ld	a5,24(s4)
 187:src/Slab.cpp  ****             this->num_slabs_partial++;
 874              		.loc 1 187 33
 875 04ec 9387F7FF 		addi	a5,a5,-1
 876 04f0 233CFA00 		sd	a5,24(s4)
 188:src/Slab.cpp  **** 
 877              		.loc 1 188 13 is_stmt 1
 188:src/Slab.cpp  **** 
 878              		.loc 1 188 19 is_stmt 0
 879 04f4 83370A02 		ld	a5,32(s4)
 188:src/Slab.cpp  **** 
 880              		.loc 1 188 36
 881 04f8 93871700 		addi	a5,a5,1
 882 04fc 2330FA02 		sd	a5,32(s4)
GAS LISTING /tmp/ccJsZ0pp.s 			page 24


 190:src/Slab.cpp  ****         }
 883              		.loc 1 190 13 is_stmt 1
 190:src/Slab.cpp  ****         }
 884              		.loc 1 190 20 is_stmt 0
 885 0500 13050000 		li	a0,0
 886 0504 6F008000 		j	.L36
 887              	.LVL90:
 888              	.L44:
 889              	.LBE94:
 890              	.LBE95:
 891              	.LBE97:
 892              	.LBE88:
 193:src/Slab.cpp  ****     }
 194:src/Slab.cpp  ****     return -1;
 893              		.loc 1 194 13
 894 0508 1305F0FF 		li	a0,-1
 895              	.LVL91:
 896              	.L36:
 195:src/Slab.cpp  **** }
 897              		.loc 1 195 1
 898 050c 83308102 		ld	ra,40(sp)
 899              		.cfi_restore 1
 900 0510 03340102 		ld	s0,32(sp)
 901              		.cfi_restore 8
 902              		.cfi_def_cfa 2, 48
 903 0514 83348101 		ld	s1,24(sp)
 904              		.cfi_restore 9
 905 0518 03390101 		ld	s2,16(sp)
 906              		.cfi_restore 18
 907 051c 83398100 		ld	s3,8(sp)
 908              		.cfi_restore 19
 909              	.LVL92:
 910 0520 033A0100 		ld	s4,0(sp)
 911              		.cfi_restore 20
 912              	.LVL93:
 913 0524 13010103 		addi	sp,sp,48
 914              		.cfi_def_cfa_offset 0
 915 0528 67800000 		jr	ra
 916              		.cfi_endproc
 917              	.LFE50:
 919              		.align	2
 920              		.globl	_ZN12kmem_cache_s20check_if_name_existsEPKc
 922              	_ZN12kmem_cache_s20check_if_name_existsEPKc:
 923              	.LFB52:
 196:src/Slab.cpp  **** 
 197:src/Slab.cpp  **** void *kmem_cache_s::kmalloc(size_t size) {
 198:src/Slab.cpp  ****     // kreiraj ime
 199:src/Slab.cpp  ****     const char* n = (const char*)concatenate_int_to_char_ptr((int)size);
 200:src/Slab.cpp  **** 
 201:src/Slab.cpp  ****     kmem_cache_s* tmp = check_if_name_exists(n);
 202:src/Slab.cpp  ****     kmem_cache_s* cache = nullptr;
 203:src/Slab.cpp  ****     if(tmp == nullptr){
 204:src/Slab.cpp  ****         // napravi novi
 205:src/Slab.cpp  ****         cache = (kmem_cache_s*)kmem_cache_create(n, size, nullptr, nullptr);
 206:src/Slab.cpp  ****         if(!cache)return nullptr;
 207:src/Slab.cpp  ****     }
 208:src/Slab.cpp  ****     // vrati element
GAS LISTING /tmp/ccJsZ0pp.s 			page 25


 209:src/Slab.cpp  ****     void* elem = cache->kmem_cache_alloc();
 210:src/Slab.cpp  ****     return elem;
 211:src/Slab.cpp  **** }
 212:src/Slab.cpp  **** 
 213:src/Slab.cpp  **** // returns cache with given name, or nullptr if there is no such cache
 214:src/Slab.cpp  **** kmem_cache_s *kmem_cache_s::check_if_name_exists(const char* name) {
 924              		.loc 1 214 68 is_stmt 1
 925              		.cfi_startproc
 926              	.LVL94:
 927 052c 130101FE 		addi	sp,sp,-32
 928              		.cfi_def_cfa_offset 32
 929 0530 233C1100 		sd	ra,24(sp)
 930 0534 23388100 		sd	s0,16(sp)
 931 0538 23349100 		sd	s1,8(sp)
 932 053c 23302101 		sd	s2,0(sp)
 933              		.cfi_offset 1, -8
 934              		.cfi_offset 8, -16
 935              		.cfi_offset 9, -24
 936              		.cfi_offset 18, -32
 937 0540 13040102 		addi	s0,sp,32
 938              		.cfi_def_cfa 8, 0
 939 0544 13090500 		mv	s2,a0
 215:src/Slab.cpp  ****     for(kmem_cache_s* tmp = kmem_cache_s::head; tmp; tmp = tmp->next){
 940              		.loc 1 215 5
 941              	.LBB98:
 942              		.loc 1 215 23 is_stmt 0
 943 0548 97040000 		ld	s1,.LANCHOR0
 943      83B40400 
 944              	.LVL95:
 945              	.L48:
 946              		.loc 1 215 49 is_stmt 1 discriminator 1
 947 0550 63800402 		beqz	s1,.L46
 216:src/Slab.cpp  ****         if(string_compare(tmp->name, name)){
 948              		.loc 1 216 9
 949              		.loc 1 216 26 is_stmt 0
 950 0554 93050900 		mv	a1,s2
 951 0558 03B58405 		ld	a0,88(s1)
 952 055c 97000000 		call	_Z14string_comparePKcS0_@plt
 952      E7800000 
 953              	.LVL96:
 954              		.loc 1 216 9
 955 0564 63160500 		bnez	a0,.L46
 215:src/Slab.cpp  ****     for(kmem_cache_s* tmp = kmem_cache_s::head; tmp; tmp = tmp->next){
 956              		.loc 1 215 5 is_stmt 1 discriminator 2
 215:src/Slab.cpp  ****     for(kmem_cache_s* tmp = kmem_cache_s::head; tmp; tmp = tmp->next){
 957              		.loc 1 215 58 is_stmt 0 discriminator 2
 958 0568 83B40406 		ld	s1,96(s1)
 959              	.LVL97:
 215:src/Slab.cpp  ****     for(kmem_cache_s* tmp = kmem_cache_s::head; tmp; tmp = tmp->next){
 960              		.loc 1 215 5 discriminator 2
 961 056c 6FF05FFE 		j	.L48
 962              	.L46:
 963              	.LBE98:
 217:src/Slab.cpp  ****             return tmp;
 218:src/Slab.cpp  ****         }
 219:src/Slab.cpp  ****     }
 220:src/Slab.cpp  ****     return nullptr;
GAS LISTING /tmp/ccJsZ0pp.s 			page 26


 221:src/Slab.cpp  **** }
 964              		.loc 1 221 1
 965 0570 13850400 		mv	a0,s1
 966 0574 83308101 		ld	ra,24(sp)
 967              		.cfi_restore 1
 968 0578 03340101 		ld	s0,16(sp)
 969              		.cfi_restore 8
 970              		.cfi_def_cfa 2, 32
 971 057c 83348100 		ld	s1,8(sp)
 972              		.cfi_restore 9
 973              	.LVL98:
 974 0580 03390100 		ld	s2,0(sp)
 975              		.cfi_restore 18
 976              	.LVL99:
 977 0584 13010102 		addi	sp,sp,32
 978              		.cfi_def_cfa_offset 0
 979 0588 67800000 		jr	ra
 980              		.cfi_endproc
 981              	.LFE52:
 983              		.align	2
 984              		.globl	_ZN12kmem_cache_s3powEm
 986              	_ZN12kmem_cache_s3powEm:
 987              	.LFB53:
 222:src/Slab.cpp  **** 
 223:src/Slab.cpp  **** size_t kmem_cache_s::pow(size_t deg){
 988              		.loc 1 223 37 is_stmt 1
 989              		.cfi_startproc
 990              	.LVL100:
 991 058c 130101FF 		addi	sp,sp,-16
 992              		.cfi_def_cfa_offset 16
 993 0590 23348100 		sd	s0,8(sp)
 994              		.cfi_offset 8, -8
 995 0594 13040101 		addi	s0,sp,16
 996              		.cfi_def_cfa 8, 0
 997 0598 13070500 		mv	a4,a0
 224:src/Slab.cpp  ****     size_t tmp = 1;
 998              		.loc 1 224 5
 999              	.LVL101:
 225:src/Slab.cpp  ****     for(size_t i = 0; i < deg; i++){
 1000              		.loc 1 225 5
 1001              	.LBB99:
 1002              		.loc 1 225 16 is_stmt 0
 1003 059c 93070000 		li	a5,0
 1004              	.LBE99:
 224:src/Slab.cpp  ****     size_t tmp = 1;
 1005              		.loc 1 224 12
 1006 05a0 13051000 		li	a0,1
 1007              	.LVL102:
 1008              	.L52:
 1009              	.LBB100:
 1010              		.loc 1 225 25 is_stmt 1 discriminator 3
 1011 05a4 63F8E700 		bgeu	a5,a4,.L50
 226:src/Slab.cpp  ****         tmp <<= 1;
 1012              		.loc 1 226 9 discriminator 2
 1013              		.loc 1 226 13 is_stmt 0 discriminator 2
 1014 05a8 13151500 		slli	a0,a0,1
 1015              	.LVL103:
GAS LISTING /tmp/ccJsZ0pp.s 			page 27


 225:src/Slab.cpp  ****     for(size_t i = 0; i < deg; i++){
 1016              		.loc 1 225 5 is_stmt 1 discriminator 2
 1017 05ac 93871700 		addi	a5,a5,1
 1018              	.LVL104:
 1019 05b0 6FF05FFF 		j	.L52
 1020              	.L50:
 1021              	.LBE100:
 227:src/Slab.cpp  ****     }
 228:src/Slab.cpp  ****     return tmp;
 229:src/Slab.cpp  **** }
 1022              		.loc 1 229 1 is_stmt 0
 1023 05b4 03348100 		ld	s0,8(sp)
 1024              		.cfi_restore 8
 1025              		.cfi_def_cfa 2, 16
 1026 05b8 13010101 		addi	sp,sp,16
 1027              		.cfi_def_cfa_offset 0
 1028 05bc 67800000 		jr	ra
 1029              		.cfi_endproc
 1030              	.LFE53:
 1032              		.align	2
 1033              		.globl	_ZN12kmem_cache_s28is_small_buffer_size_correctEm
 1035              	_ZN12kmem_cache_s28is_small_buffer_size_correctEm:
 1036              	.LFB54:
 230:src/Slab.cpp  **** 
 231:src/Slab.cpp  **** bool kmem_cache_s::is_small_buffer_size_correct(size_t size) {
 1037              		.loc 1 231 62 is_stmt 1
 1038              		.cfi_startproc
 1039              	.LVL105:
 1040 05c0 130101FF 		addi	sp,sp,-16
 1041              		.cfi_def_cfa_offset 16
 1042 05c4 23348100 		sd	s0,8(sp)
 1043              		.cfi_offset 8, -8
 1044 05c8 13040101 		addi	s0,sp,16
 1045              		.cfi_def_cfa 8, 0
 232:src/Slab.cpp  ****     size_t num = 1;
 1046              		.loc 1 232 5
 1047              	.LVL106:
 233:src/Slab.cpp  ****     size_t iter = 0;
 1048              		.loc 1 233 5
 1049              		.loc 1 233 12 is_stmt 0
 1050 05cc 13070000 		li	a4,0
 232:src/Slab.cpp  ****     size_t num = 1;
 1051              		.loc 1 232 12
 1052 05d0 93071000 		li	a5,1
 1053 05d4 6F008000 		j	.L56
 1054              	.LVL107:
 1055              	.L58:
 234:src/Slab.cpp  ****     while(num < size){
 235:src/Slab.cpp  ****         num <<= 1;
 236:src/Slab.cpp  ****         iter++;
 1056              		.loc 1 236 13
 1057 05d8 13870600 		mv	a4,a3
 1058              	.LVL108:
 1059              	.L56:
 234:src/Slab.cpp  ****     while(num < size){
 1060              		.loc 1 234 5 is_stmt 1
 234:src/Slab.cpp  ****     while(num < size){
GAS LISTING /tmp/ccJsZ0pp.s 			page 28


 1061              		.loc 1 234 15
 1062 05dc 63F2A702 		bgeu	a5,a0,.L57
 235:src/Slab.cpp  ****         iter++;
 1063              		.loc 1 235 9
 235:src/Slab.cpp  ****         iter++;
 1064              		.loc 1 235 13 is_stmt 0
 1065 05e0 93971700 		slli	a5,a5,1
 1066              	.LVL109:
 1067              		.loc 1 236 9 is_stmt 1
 1068              		.loc 1 236 13 is_stmt 0
 1069 05e4 93061700 		addi	a3,a4,1
 1070              	.LVL110:
 237:src/Slab.cpp  ****         if(num == size){
 1071              		.loc 1 237 9 is_stmt 1
 1072 05e8 E318F5FE 		bne	a0,a5,.L58
 238:src/Slab.cpp  ****             if(iter >= 5 && iter <= 17){
 1073              		.loc 1 238 13
 1074              		.loc 1 238 26 is_stmt 0
 1075 05ec 1307C7FF 		addi	a4,a4,-4
 1076              		.loc 1 238 13
 1077 05f0 9307C000 		li	a5,12
 1078              	.LVL111:
 1079 05f4 63EEE700 		bgtu	a4,a5,.L59
 239:src/Slab.cpp  ****                 return true;
 1080              		.loc 1 239 24
 1081 05f8 13051000 		li	a0,1
 1082              	.LVL112:
 1083 05fc 6F008000 		j	.L55
 1084              	.LVL113:
 1085              	.L57:
 240:src/Slab.cpp  ****             }
 241:src/Slab.cpp  ****             else return false;
 242:src/Slab.cpp  ****         }
 243:src/Slab.cpp  ****     }
 244:src/Slab.cpp  ****     return false;
 1086              		.loc 1 244 12
 1087 0600 13050000 		li	a0,0
 1088              	.LVL114:
 1089              	.L55:
 245:src/Slab.cpp  **** }
 1090              		.loc 1 245 1
 1091 0604 03348100 		ld	s0,8(sp)
 1092              		.cfi_remember_state
 1093              		.cfi_restore 8
 1094              		.cfi_def_cfa 2, 16
 1095 0608 13010101 		addi	sp,sp,16
 1096              		.cfi_def_cfa_offset 0
 1097 060c 67800000 		jr	ra
 1098              	.LVL115:
 1099              	.L59:
 1100              		.cfi_restore_state
 241:src/Slab.cpp  ****         }
 1101              		.loc 1 241 25
 1102 0610 13050000 		li	a0,0
 1103              	.LVL116:
 1104 0614 6FF01FFF 		j	.L55
 1105              		.cfi_endproc
GAS LISTING /tmp/ccJsZ0pp.s 			page 29


 1106              	.LFE54:
 1108              		.align	2
 1109              		.globl	_ZN12kmem_cache_s5kfreeEPKv
 1111              	_ZN12kmem_cache_s5kfreeEPKv:
 1112              	.LFB55:
 246:src/Slab.cpp  **** 
 247:src/Slab.cpp  **** // returns 0 if delete is executed, -1 if not
 248:src/Slab.cpp  **** int kmem_cache_s::kfree(const void *objp) {
 1113              		.loc 1 248 43 is_stmt 1
 1114              		.cfi_startproc
 1115              	.LVL117:
 1116 0618 130101FE 		addi	sp,sp,-32
 1117              		.cfi_def_cfa_offset 32
 1118 061c 233C1100 		sd	ra,24(sp)
 1119 0620 23388100 		sd	s0,16(sp)
 1120 0624 23349100 		sd	s1,8(sp)
 1121 0628 23302101 		sd	s2,0(sp)
 1122              		.cfi_offset 1, -8
 1123              		.cfi_offset 8, -16
 1124              		.cfi_offset 9, -24
 1125              		.cfi_offset 18, -32
 1126 062c 13040102 		addi	s0,sp,32
 1127              		.cfi_def_cfa 8, 0
 1128 0630 13090500 		mv	s2,a0
 249:src/Slab.cpp  ****     for(kmem_cache_s* tmp = kmem_cache_s::head; tmp; tmp = tmp->next){
 1129              		.loc 1 249 5
 1130              	.LBB101:
 1131              		.loc 1 249 23 is_stmt 0
 1132 0634 97040000 		ld	s1,.LANCHOR0
 1132      83B40400 
 1133              	.LVL118:
 1134              	.L63:
 1135              		.loc 1 249 49 is_stmt 1 discriminator 1
 1136 063c 63800402 		beqz	s1,.L64
 250:src/Slab.cpp  ****         if(tmp->kmem_cache_free((void*)objp) == 0)return 0;
 1137              		.loc 1 250 9
 1138              		.loc 1 250 32 is_stmt 0
 1139 0640 93050900 		mv	a1,s2
 1140 0644 13850400 		mv	a0,s1
 1141 0648 97000000 		call	_ZN12kmem_cache_s15kmem_cache_freeEPv
 1141      E7800000 
 1142              	.LVL119:
 1143              		.loc 1 250 9
 1144 0650 63080500 		beqz	a0,.L62
 249:src/Slab.cpp  ****     for(kmem_cache_s* tmp = kmem_cache_s::head; tmp; tmp = tmp->next){
 1145              		.loc 1 249 5 is_stmt 1 discriminator 2
 249:src/Slab.cpp  ****     for(kmem_cache_s* tmp = kmem_cache_s::head; tmp; tmp = tmp->next){
 1146              		.loc 1 249 58 is_stmt 0 discriminator 2
 1147 0654 83B40406 		ld	s1,96(s1)
 1148              	.LVL120:
 249:src/Slab.cpp  ****     for(kmem_cache_s* tmp = kmem_cache_s::head; tmp; tmp = tmp->next){
 1149              		.loc 1 249 5 discriminator 2
 1150 0658 6FF05FFE 		j	.L63
 1151              	.L64:
 1152              	.LBE101:
 251:src/Slab.cpp  ****     }
 252:src/Slab.cpp  ****     // if not found return 1;
GAS LISTING /tmp/ccJsZ0pp.s 			page 30


 253:src/Slab.cpp  ****     return -1;
 1153              		.loc 1 253 13
 1154 065c 1305F0FF 		li	a0,-1
 1155              	.L62:
 254:src/Slab.cpp  **** }
 1156              		.loc 1 254 1
 1157 0660 83308101 		ld	ra,24(sp)
 1158              		.cfi_restore 1
 1159 0664 03340101 		ld	s0,16(sp)
 1160              		.cfi_restore 8
 1161              		.cfi_def_cfa 2, 32
 1162 0668 83348100 		ld	s1,8(sp)
 1163              		.cfi_restore 9
 1164              	.LVL121:
 1165 066c 03390100 		ld	s2,0(sp)
 1166              		.cfi_restore 18
 1167              	.LVL122:
 1168 0670 13010102 		addi	sp,sp,32
 1169              		.cfi_def_cfa_offset 0
 1170 0674 67800000 		jr	ra
 1171              		.cfi_endproc
 1172              	.LFE55:
 1174              		.align	2
 1175              		.globl	_ZN12kmem_cache_s18kmem_cache_destroyEm
 1177              	_ZN12kmem_cache_s18kmem_cache_destroyEm:
 1178              	.LFB56:
 255:src/Slab.cpp  **** 
 256:src/Slab.cpp  **** ///
 257:src/Slab.cpp  **** /// \param addr - address of cache that we deleting
 258:src/Slab.cpp  **** /// \return 0 - if deleted all, -1 - if error ocurred
 259:src/Slab.cpp  **** int kmem_cache_s::kmem_cache_destroy(size_t addr) {
 1179              		.loc 1 259 51 is_stmt 1
 1180              		.cfi_startproc
 1181              	.LVL123:
 1182 0678 130101FD 		addi	sp,sp,-48
 1183              		.cfi_def_cfa_offset 48
 1184 067c 23341102 		sd	ra,40(sp)
 1185 0680 23308102 		sd	s0,32(sp)
 1186 0684 233C9100 		sd	s1,24(sp)
 1187 0688 23382101 		sd	s2,16(sp)
 1188 068c 23343101 		sd	s3,8(sp)
 1189 0690 23304101 		sd	s4,0(sp)
 1190              		.cfi_offset 1, -8
 1191              		.cfi_offset 8, -16
 1192              		.cfi_offset 9, -24
 1193              		.cfi_offset 18, -32
 1194              		.cfi_offset 19, -40
 1195              		.cfi_offset 20, -48
 1196 0694 13040103 		addi	s0,sp,48
 1197              		.cfi_def_cfa 8, 0
 1198 0698 130A0500 		mv	s4,a0
 1199 069c 93890500 		mv	s3,a1
 260:src/Slab.cpp  ****     Slab *prev = nullptr, *tmp = this->slabs_full;
 1200              		.loc 1 260 5
 1201              	.LVL124:
 1202              		.loc 1 260 28 is_stmt 0
 1203 06a0 83340500 		ld	s1,0(a0)
GAS LISTING /tmp/ccJsZ0pp.s 			page 31


 1204              	.LVL125:
 1205 06a4 6F00C001 		j	.L69
 1206              	.LVL126:
 1207              	.L68:
 1208              	.LBB102:
 1209              	.LBB103:
  18:src/../h/../h/Buddy.h ****             bs.buddyHeapStart = (size_t)space;
 1210              		.loc 2 18 9 is_stmt 1
 1211              		.loc 2 23 9
 1212              	.LBE103:
 1213              	.LBE102:
 261:src/Slab.cpp  ****     while (tmp) {
 262:src/Slab.cpp  ****         prev = tmp;
 263:src/Slab.cpp  ****         tmp = tmp->next;
 264:src/Slab.cpp  ****         BuddySystem::getInstance().buddyFree((size_t)prev);
 1214              		.loc 1 264 45 is_stmt 0
 1215 06a8 93850400 		mv	a1,s1
 1216 06ac 17050000 		lla	a0,_ZZN11BuddySystem11getInstanceEPviE2bs
 1216      13050500 
 1217 06b4 97000000 		call	_ZN11BuddySystem9buddyFreeEm@plt
 1217      E7800000 
 1218              	.LVL127:
 263:src/Slab.cpp  ****         BuddySystem::getInstance().buddyFree((size_t)prev);
 1219              		.loc 1 263 13
 1220 06bc 93040900 		mv	s1,s2
 1221              	.LVL128:
 1222              	.L69:
 261:src/Slab.cpp  ****     while (tmp) {
 1223              		.loc 1 261 5 is_stmt 1
 261:src/Slab.cpp  ****     while (tmp) {
 1224              		.loc 1 261 12
 1225 06c0 638A0402 		beqz	s1,.L67
 262:src/Slab.cpp  ****         tmp = tmp->next;
 1226              		.loc 1 262 9
 1227              	.LVL129:
 263:src/Slab.cpp  ****         BuddySystem::getInstance().buddyFree((size_t)prev);
 1228              		.loc 1 263 9
 263:src/Slab.cpp  ****         BuddySystem::getInstance().buddyFree((size_t)prev);
 1229              		.loc 1 263 13 is_stmt 0
 1230 06c4 03B98400 		ld	s2,8(s1)
 1231              	.LVL130:
 1232              		.loc 1 264 9 is_stmt 1
 1233              	.LBB105:
 1234              	.LBB104:
  17:src/../h/../h/Buddy.h ****         if(block_num != 0 && space != nullptr){
 1235              		.loc 2 17 9
  17:src/../h/../h/Buddy.h ****         if(block_num != 0 && space != nullptr){
 1236              		.loc 2 17 28 is_stmt 0
 1237 06c8 97070000 		lbu	a5,_ZGVZN11BuddySystem11getInstanceEPviE2bs
 1237      83C70700 
 1238 06d0 E39C07FC 		bnez	a5,.L68
 1239 06d4 17050000 		lla	a0,_ZZN11BuddySystem11getInstanceEPviE2bs
 1239      13050500 
 1240 06dc 97000000 		call	_ZN11BuddySystemC1Ev@plt
 1240      E7800000 
 1241              	.LVL131:
 1242 06e4 93071000 		li	a5,1
GAS LISTING /tmp/ccJsZ0pp.s 			page 32


 1243 06e8 17070000 		sb	a5,_ZGVZN11BuddySystem11getInstanceEPviE2bs,a4
 1243      2300F700 
 1244 06f0 6FF09FFB 		j	.L68
 1245              	.LVL132:
 1246              	.L67:
 1247              	.LBE104:
 1248              	.LBE105:
 265:src/Slab.cpp  ****     }
 266:src/Slab.cpp  ****     prev = nullptr; tmp = this->slabs_partial;
 1249              		.loc 1 266 5 is_stmt 1
 1250              		.loc 1 266 21
 1251              		.loc 1 266 25 is_stmt 0
 1252 06f4 83348A00 		ld	s1,8(s4)
 1253              	.LVL133:
 1254 06f8 6F008003 		j	.L72
 1255              	.LVL134:
 1256              	.L82:
 1257              	.LBB106:
 1258              	.LBB107:
  17:src/../h/../h/Buddy.h ****         if(block_num != 0 && space != nullptr){
 1259              		.loc 2 17 28
 1260 06fc 17050000 		lla	a0,_ZZN11BuddySystem11getInstanceEPviE2bs
 1260      13050500 
 1261 0704 97000000 		call	_ZN11BuddySystemC1Ev@plt
 1261      E7800000 
 1262              	.LVL135:
 1263 070c 93071000 		li	a5,1
 1264 0710 17070000 		sb	a5,_ZGVZN11BuddySystem11getInstanceEPviE2bs,a4
 1264      2300F700 
 1265              	.L71:
  18:src/../h/../h/Buddy.h ****             bs.buddyHeapStart = (size_t)space;
 1266              		.loc 2 18 9 is_stmt 1
 1267              		.loc 2 23 9
 1268              	.LVL136:
 1269              	.LBE107:
 1270              	.LBE106:
 267:src/Slab.cpp  ****     while (tmp) {
 268:src/Slab.cpp  ****         prev = tmp;
 269:src/Slab.cpp  ****         tmp = tmp->next;
 270:src/Slab.cpp  ****         BuddySystem::getInstance().buddyFree((size_t)prev);
 1271              		.loc 1 270 45 is_stmt 0
 1272 0718 93850400 		mv	a1,s1
 1273 071c 17050000 		lla	a0,_ZZN11BuddySystem11getInstanceEPviE2bs
 1273      13050500 
 1274 0724 97000000 		call	_ZN11BuddySystem9buddyFreeEm@plt
 1274      E7800000 
 1275              	.LVL137:
 269:src/Slab.cpp  ****         BuddySystem::getInstance().buddyFree((size_t)prev);
 1276              		.loc 1 269 13
 1277 072c 93040900 		mv	s1,s2
 1278              	.LVL138:
 1279              	.L72:
 267:src/Slab.cpp  ****     while (tmp) {
 1280              		.loc 1 267 5 is_stmt 1
 267:src/Slab.cpp  ****     while (tmp) {
 1281              		.loc 1 267 12
 1282 0730 638C0400 		beqz	s1,.L70
GAS LISTING /tmp/ccJsZ0pp.s 			page 33


 268:src/Slab.cpp  ****         tmp = tmp->next;
 1283              		.loc 1 268 9
 1284              	.LVL139:
 269:src/Slab.cpp  ****         BuddySystem::getInstance().buddyFree((size_t)prev);
 1285              		.loc 1 269 9
 269:src/Slab.cpp  ****         BuddySystem::getInstance().buddyFree((size_t)prev);
 1286              		.loc 1 269 13 is_stmt 0
 1287 0734 03B98400 		ld	s2,8(s1)
 1288              	.LVL140:
 1289              		.loc 1 270 9 is_stmt 1
 1290              	.LBB109:
 1291              	.LBB108:
  17:src/../h/../h/Buddy.h ****         if(block_num != 0 && space != nullptr){
 1292              		.loc 2 17 9
  17:src/../h/../h/Buddy.h ****         if(block_num != 0 && space != nullptr){
 1293              		.loc 2 17 28 is_stmt 0
 1294 0738 97070000 		lbu	a5,_ZGVZN11BuddySystem11getInstanceEPviE2bs
 1294      83C70700 
 1295 0740 E39C07FC 		bnez	a5,.L71
 1296 0744 6FF09FFB 		j	.L82
 1297              	.LVL141:
 1298              	.L70:
 1299              	.LBE108:
 1300              	.LBE109:
 271:src/Slab.cpp  ****     }
 272:src/Slab.cpp  ****     prev = nullptr; tmp = this->slabs_free;
 1301              		.loc 1 272 5 is_stmt 1
 1302              		.loc 1 272 21
 1303              		.loc 1 272 25 is_stmt 0
 1304 0748 83340A01 		ld	s1,16(s4)
 1305              	.LVL142:
 1306 074c 6F008003 		j	.L75
 1307              	.LVL143:
 1308              	.L83:
 1309              	.LBB110:
 1310              	.LBB111:
  17:src/../h/../h/Buddy.h ****         if(block_num != 0 && space != nullptr){
 1311              		.loc 2 17 28
 1312 0750 17050000 		lla	a0,_ZZN11BuddySystem11getInstanceEPviE2bs
 1312      13050500 
 1313 0758 97000000 		call	_ZN11BuddySystemC1Ev@plt
 1313      E7800000 
 1314              	.LVL144:
 1315 0760 93071000 		li	a5,1
 1316 0764 17070000 		sb	a5,_ZGVZN11BuddySystem11getInstanceEPviE2bs,a4
 1316      2300F700 
 1317              	.L74:
  18:src/../h/../h/Buddy.h ****             bs.buddyHeapStart = (size_t)space;
 1318              		.loc 2 18 9 is_stmt 1
 1319              		.loc 2 23 9
 1320              	.LVL145:
 1321              	.LBE111:
 1322              	.LBE110:
 273:src/Slab.cpp  ****     while (tmp) {
 274:src/Slab.cpp  ****         prev = tmp;
 275:src/Slab.cpp  ****         tmp = tmp->next;
 276:src/Slab.cpp  ****         BuddySystem::getInstance().buddyFree((size_t)prev);
GAS LISTING /tmp/ccJsZ0pp.s 			page 34


 1323              		.loc 1 276 45 is_stmt 0
 1324 076c 93850400 		mv	a1,s1
 1325 0770 17050000 		lla	a0,_ZZN11BuddySystem11getInstanceEPviE2bs
 1325      13050500 
 1326 0778 97000000 		call	_ZN11BuddySystem9buddyFreeEm@plt
 1326      E7800000 
 1327              	.LVL146:
 275:src/Slab.cpp  ****         BuddySystem::getInstance().buddyFree((size_t)prev);
 1328              		.loc 1 275 13
 1329 0780 93040900 		mv	s1,s2
 1330              	.LVL147:
 1331              	.L75:
 273:src/Slab.cpp  ****     while (tmp) {
 1332              		.loc 1 273 5 is_stmt 1
 273:src/Slab.cpp  ****     while (tmp) {
 1333              		.loc 1 273 12
 1334 0784 638C0400 		beqz	s1,.L73
 274:src/Slab.cpp  ****         tmp = tmp->next;
 1335              		.loc 1 274 9
 1336              	.LVL148:
 275:src/Slab.cpp  ****         BuddySystem::getInstance().buddyFree((size_t)prev);
 1337              		.loc 1 275 9
 275:src/Slab.cpp  ****         BuddySystem::getInstance().buddyFree((size_t)prev);
 1338              		.loc 1 275 13 is_stmt 0
 1339 0788 03B98400 		ld	s2,8(s1)
 1340              	.LVL149:
 1341              		.loc 1 276 9 is_stmt 1
 1342              	.LBB113:
 1343              	.LBB112:
  17:src/../h/../h/Buddy.h ****         if(block_num != 0 && space != nullptr){
 1344              		.loc 2 17 9
  17:src/../h/../h/Buddy.h ****         if(block_num != 0 && space != nullptr){
 1345              		.loc 2 17 28 is_stmt 0
 1346 078c 97070000 		lbu	a5,_ZGVZN11BuddySystem11getInstanceEPviE2bs
 1346      83C70700 
 1347 0794 E39C07FC 		bnez	a5,.L74
 1348 0798 6FF09FFB 		j	.L83
 1349              	.LVL150:
 1350              	.L73:
 1351              	.LBE112:
 1352              	.LBE113:
 277:src/Slab.cpp  ****     }
 278:src/Slab.cpp  **** 
 279:src/Slab.cpp  ****     kmem_cache_s* cache = kmem_cache_s::head, *prev_cache = nullptr;
 1353              		.loc 1 279 5 is_stmt 1
 1354              		.loc 1 279 19 is_stmt 0
 1355 079c 97070000 		ld	a5,.LANCHOR0
 1355      83B70700 
 1356              	.LVL151:
 1357 07a4 6F00C002 		j	.L79
 1358              	.LVL152:
 1359              	.L84:
 1360              	.LBB114:
 1361              	.LBB115:
  17:src/../h/../h/Buddy.h ****         if(block_num != 0 && space != nullptr){
 1362              		.loc 2 17 28
 1363 07a8 17050000 		lla	a0,_ZZN11BuddySystem11getInstanceEPviE2bs
GAS LISTING /tmp/ccJsZ0pp.s 			page 35


 1363      13050500 
 1364 07b0 97000000 		call	_ZN11BuddySystemC1Ev@plt
 1364      E7800000 
 1365              	.LVL153:
 1366 07b8 93071000 		li	a5,1
 1367 07bc 17070000 		sb	a5,_ZGVZN11BuddySystem11getInstanceEPviE2bs,a4
 1367      2300F700 
 1368 07c4 6F004003 		j	.L78
 1369              	.LVL154:
 1370              	.L77:
 1371              	.LBE115:
 1372              	.LBE114:
 280:src/Slab.cpp  ****     while(cache){
 281:src/Slab.cpp  ****         if((size_t)cache == addr){
 282:src/Slab.cpp  ****             if(prev_cache){
 283:src/Slab.cpp  ****                 prev_cache->next = cache->next;
 284:src/Slab.cpp  ****                 cache->next = nullptr;
 285:src/Slab.cpp  ****                 BuddySystem::getInstance().buddyFree((size_t)cache);
 286:src/Slab.cpp  ****                 return 0;
 287:src/Slab.cpp  ****             }
 288:src/Slab.cpp  ****         }
 289:src/Slab.cpp  ****         prev_cache = cache;
 1373              		.loc 1 289 9 is_stmt 1
 290:src/Slab.cpp  ****         cache = cache->next;
 1374              		.loc 1 290 9
 289:src/Slab.cpp  ****         cache = cache->next;
 1375              		.loc 1 289 20 is_stmt 0
 1376 07c8 93840700 		mv	s1,a5
 1377              		.loc 1 290 15
 1378 07cc 83B70706 		ld	a5,96(a5)
 1379              	.LVL155:
 1380              	.L79:
 280:src/Slab.cpp  ****     while(cache){
 1381              		.loc 1 280 5 is_stmt 1
 280:src/Slab.cpp  ****     while(cache){
 1382              		.loc 1 280 11
 1383 07d0 63820704 		beqz	a5,.L80
 281:src/Slab.cpp  ****             if(prev_cache){
 1384              		.loc 1 281 9
 281:src/Slab.cpp  ****             if(prev_cache){
 1385              		.loc 1 281 26 is_stmt 0
 1386 07d4 13890700 		mv	s2,a5
 281:src/Slab.cpp  ****             if(prev_cache){
 1387              		.loc 1 281 9
 1388 07d8 E39837FF 		bne	a5,s3,.L77
 282:src/Slab.cpp  ****                 prev_cache->next = cache->next;
 1389              		.loc 1 282 13 is_stmt 1
 1390 07dc E38604FE 		beqz	s1,.L77
 283:src/Slab.cpp  ****                 cache->next = nullptr;
 1391              		.loc 1 283 17
 283:src/Slab.cpp  ****                 cache->next = nullptr;
 1392              		.loc 1 283 43 is_stmt 0
 1393 07e0 03B70706 		ld	a4,96(a5)
 283:src/Slab.cpp  ****                 cache->next = nullptr;
 1394              		.loc 1 283 34
 1395 07e4 23B0E406 		sd	a4,96(s1)
 284:src/Slab.cpp  ****                 BuddySystem::getInstance().buddyFree((size_t)cache);
GAS LISTING /tmp/ccJsZ0pp.s 			page 36


 1396              		.loc 1 284 17 is_stmt 1
 284:src/Slab.cpp  ****                 BuddySystem::getInstance().buddyFree((size_t)cache);
 1397              		.loc 1 284 29 is_stmt 0
 1398 07e8 23B00706 		sd	zero,96(a5)
 285:src/Slab.cpp  ****                 return 0;
 1399              		.loc 1 285 17 is_stmt 1
 1400              	.LVL156:
 1401              	.LBB117:
 1402              	.LBB116:
  17:src/../h/../h/Buddy.h ****         if(block_num != 0 && space != nullptr){
 1403              		.loc 2 17 9
  17:src/../h/../h/Buddy.h ****         if(block_num != 0 && space != nullptr){
 1404              		.loc 2 17 28 is_stmt 0
 1405 07ec 97070000 		lbu	a5,_ZGVZN11BuddySystem11getInstanceEPviE2bs
 1405      83C70700 
 1406              	.LVL157:
 1407 07f4 E38A07FA 		beqz	a5,.L84
 1408              	.L78:
  18:src/../h/../h/Buddy.h ****             bs.buddyHeapStart = (size_t)space;
 1409              		.loc 2 18 9 is_stmt 1
 1410              		.loc 2 23 9
 1411              	.LVL158:
 1412              	.LBE116:
 1413              	.LBE117:
 285:src/Slab.cpp  ****                 return 0;
 1414              		.loc 1 285 53 is_stmt 0
 1415 07f8 93050900 		mv	a1,s2
 1416 07fc 17050000 		lla	a0,_ZZN11BuddySystem11getInstanceEPviE2bs
 1416      13050500 
 1417 0804 97000000 		call	_ZN11BuddySystem9buddyFreeEm@plt
 1417      E7800000 
 1418              	.LVL159:
 286:src/Slab.cpp  ****             }
 1419              		.loc 1 286 17 is_stmt 1
 286:src/Slab.cpp  ****             }
 1420              		.loc 1 286 24 is_stmt 0
 1421 080c 13050000 		li	a0,0
 1422 0810 6F008000 		j	.L76
 1423              	.LVL160:
 1424              	.L80:
 291:src/Slab.cpp  ****     }
 292:src/Slab.cpp  ****     return -1;
 1425              		.loc 1 292 13
 1426 0814 1305F0FF 		li	a0,-1
 1427              	.LVL161:
 1428              	.L76:
 293:src/Slab.cpp  **** }
 1429              		.loc 1 293 1
 1430 0818 83308102 		ld	ra,40(sp)
 1431              		.cfi_restore 1
 1432 081c 03340102 		ld	s0,32(sp)
 1433              		.cfi_restore 8
 1434              		.cfi_def_cfa 2, 48
 1435 0820 83348101 		ld	s1,24(sp)
 1436              		.cfi_restore 9
 1437              	.LVL162:
 1438 0824 03390101 		ld	s2,16(sp)
GAS LISTING /tmp/ccJsZ0pp.s 			page 37


 1439              		.cfi_restore 18
 1440 0828 83398100 		ld	s3,8(sp)
 1441              		.cfi_restore 19
 1442              	.LVL163:
 1443 082c 033A0100 		ld	s4,0(sp)
 1444              		.cfi_restore 20
 1445              	.LVL164:
 1446 0830 13010103 		addi	sp,sp,48
 1447              		.cfi_def_cfa_offset 0
 1448 0834 67800000 		jr	ra
 1449              		.cfi_endproc
 1450              	.LFE56:
 1452              		.section	.rodata.str1.8,"aMS",@progbits,1
 1453              		.align	3
 1454              	.LC0:
 1455 0000 2D2D2D2D 		.string	"------------------- CACHE INFO -------------------\n"
 1455      2D2D2D2D 
 1455      2D2D2D2D 
 1455      2D2D2D2D 
 1455      2D2D2D20 
 1456 0034 00000000 		.align	3
 1457              	.LC1:
 1458 0038 496D653A 		.string	"Ime: "
 1458      2000
 1459 003e 0000     		.align	3
 1460              	.LC2:
 1461 0040 0A00     		.string	"\n"
 1462 0042 00000000 		.align	3
 1462      0000
 1463              	.LC3:
 1464 0048 56656C69 		.string	"Velicina objekta: "
 1464      63696E61 
 1464      206F626A 
 1464      656B7461 
 1464      3A2000
 1465 005b 00000000 		.align	3
 1465      00
 1466              	.LC4:
 1467 0060 56656C69 		.string	"Velicina kesa u blokovima: "
 1467      63696E61 
 1467      206B6573 
 1467      61207520 
 1467      626C6F6B 
 1468 007c 00000000 		.align	3
 1469              	.LC5:
 1470 0080 42726F6A 		.string	"Broj ploca u kesu: "
 1470      20706C6F 
 1470      63612075 
 1470      206B6573 
 1470      753A2000 
 1471 0094 00000000 		.align	3
 1472              	.LC6:
 1473 0098 42726F6A 		.string	"Broj objekata koji staju u jednu plocu: "
 1473      206F626A 
 1473      656B6174 
 1473      61206B6F 
 1473      6A692073 
GAS LISTING /tmp/ccJsZ0pp.s 			page 38


 1474 00c1 00000000 		.align	3
 1474      000000
 1475              	.LC7:
 1476 00c8 42726F6A 		.string	"Broj aktivnih objekata u kesu: "
 1476      20616B74 
 1476      69766E69 
 1476      68206F62 
 1476      6A656B61 
 1477              		.align	3
 1478              	.LC8:
 1479 00e8 736C6F62 		.string	"slobodni: "
 1479      6F646E69 
 1479      3A2000
 1480 00f3 00000000 		.align	3
 1480      00
 1481              	.LC9:
 1482 00f8 2000     		.string	" "
 1483 00fa 00000000 		.align	3
 1483      0000
 1484              	.LC10:
 1485 0100 7A617072 		.string	"zaprljani: "
 1485      6C6A616E 
 1485      693A2000 
 1486 010c 00000000 		.align	3
 1487              	.LC11:
 1488 0110 70756E69 		.string	"puni: "
 1488      3A2000
 1489 0117 00       		.align	3
 1490              	.LC12:
 1491 0118 42726F6A 		.string	"Broj uspesnih smanjenja kesa: "
 1491      20757370 
 1491      65736E69 
 1491      6820736D 
 1491      616E6A65 
 1492 0137 00       		.align	3
 1493              	.LC13:
 1494 0138 56656C69 		.string	"Velicina metapodataka za kmem_cache_s: "
 1494      63696E61 
 1494      206D6574 
 1494      61706F64 
 1494      6174616B 
 1495              		.align	3
 1496              	.LC14:
 1497 0160 56656C69 		.string	"Velicina metapodataka za Slab: "
 1497      63696E61 
 1497      206D6574 
 1497      61706F64 
 1497      6174616B 
 1498              		.align	3
 1499              	.LC15:
 1500 0180 50726F73 		.string	"Prosecna iskoriscenost prostora: "
 1500      65636E61 
 1500      2069736B 
 1500      6F726973 
 1500      63656E6F 
 1501 01a2 00000000 		.align	3
 1501      0000
GAS LISTING /tmp/ccJsZ0pp.s 			page 39


 1502              	.LC16:
 1503 01a8 2F00     		.string	"/"
 1504 01aa 00000000 		.align	3
 1504      0000
 1505              	.LC17:
 1506 01b0 5265616C 		.string	"Realna iskoriscenost prostora: "
 1506      6E612069 
 1506      736B6F72 
 1506      69736365 
 1506      6E6F7374 
 1507              		.align	3
 1508              	.LC18:
 1509 01d0 2D2D2D2D 		.string	"----------------------- END ----------------------\n"
 1509      2D2D2D2D 
 1509      2D2D2D2D 
 1509      2D2D2D2D 
 1509      2D2D2D2D 
 1510              		.text
 1511              		.align	2
 1512              		.globl	_ZN12kmem_cache_s15kmem_cache_infoEv
 1514              	_ZN12kmem_cache_s15kmem_cache_infoEv:
 1515              	.LFB57:
 294:src/Slab.cpp  **** 
 295:src/Slab.cpp  **** void kmem_cache_s::kmem_cache_info() {
 1516              		.loc 1 295 38 is_stmt 1
 1517              		.cfi_startproc
 1518              	.LVL165:
 1519 0838 130101FD 		addi	sp,sp,-48
 1520              		.cfi_def_cfa_offset 48
 1521 083c 23341102 		sd	ra,40(sp)
 1522 0840 23308102 		sd	s0,32(sp)
 1523 0844 233C9100 		sd	s1,24(sp)
 1524 0848 23382101 		sd	s2,16(sp)
 1525 084c 23343101 		sd	s3,8(sp)
 1526 0850 23304101 		sd	s4,0(sp)
 1527              		.cfi_offset 1, -8
 1528              		.cfi_offset 8, -16
 1529              		.cfi_offset 9, -24
 1530              		.cfi_offset 18, -32
 1531              		.cfi_offset 19, -40
 1532              		.cfi_offset 20, -48
 1533 0854 13040103 		addi	s0,sp,48
 1534              		.cfi_def_cfa 8, 0
 1535 0858 13090500 		mv	s2,a0
 296:src/Slab.cpp  **** 
 297:src/Slab.cpp  ****     printString("------------------- CACHE INFO -------------------\n");
 1536              		.loc 1 297 5
 1537              		.loc 1 297 16 is_stmt 0
 1538 085c 17050000 		lla	a0,.LC0
 1538      13050500 
 1539              	.LVL166:
 1540 0864 97000000 		call	_Z11printStringPKc@plt
 1540      E7800000 
 1541              	.LVL167:
 298:src/Slab.cpp  ****     // print name and object size
 299:src/Slab.cpp  ****     printString("Ime: ");
 1542              		.loc 1 299 5 is_stmt 1
GAS LISTING /tmp/ccJsZ0pp.s 			page 40


 1543              		.loc 1 299 16 is_stmt 0
 1544 086c 17050000 		lla	a0,.LC1
 1544      13050500 
 1545 0874 97000000 		call	_Z11printStringPKc@plt
 1545      E7800000 
 1546              	.LVL168:
 300:src/Slab.cpp  ****     printString(name);
 1547              		.loc 1 300 5 is_stmt 1
 1548              		.loc 1 300 16 is_stmt 0
 1549 087c 03358905 		ld	a0,88(s2)
 1550 0880 97000000 		call	_Z11printStringPKc@plt
 1550      E7800000 
 1551              	.LVL169:
 301:src/Slab.cpp  ****     printString("\n");
 1552              		.loc 1 301 5 is_stmt 1
 1553              		.loc 1 301 16 is_stmt 0
 1554 0888 17050000 		lla	a0,.LC2
 1554      13050500 
 1555 0890 97000000 		call	_Z11printStringPKc@plt
 1555      E7800000 
 1556              	.LVL170:
 302:src/Slab.cpp  ****     printString("Velicina objekta: ");
 1557              		.loc 1 302 5 is_stmt 1
 1558              		.loc 1 302 16 is_stmt 0
 1559 0898 17050000 		lla	a0,.LC3
 1559      13050500 
 1560 08a0 97000000 		call	_Z11printStringPKc@plt
 1560      E7800000 
 1561              	.LVL171:
 303:src/Slab.cpp  ****     printInt(objsize);
 1562              		.loc 1 303 5 is_stmt 1
 1563              		.loc 1 303 13 is_stmt 0
 1564 08a8 13060000 		li	a2,0
 1565 08ac 9305A000 		li	a1,10
 1566 08b0 03250903 		lw	a0,48(s2)
 1567 08b4 97000000 		call	_Z8printIntiii@plt
 1567      E7800000 
 1568              	.LVL172:
 304:src/Slab.cpp  ****     printString("\n");
 1569              		.loc 1 304 5 is_stmt 1
 1570              		.loc 1 304 16 is_stmt 0
 1571 08bc 17050000 		lla	a0,.LC2
 1571      13050500 
 1572 08c4 97000000 		call	_Z11printStringPKc@plt
 1572      E7800000 
 1573              	.LVL173:
 305:src/Slab.cpp  **** 
 306:src/Slab.cpp  ****     // print size of cache (in blocks)
 307:src/Slab.cpp  ****     size_t num_of_slabs = num_slabs_full + num_slabs_partial + num_slabs_free;
 1574              		.loc 1 307 5 is_stmt 1
 1575              		.loc 1 307 27 is_stmt 0
 1576 08cc 83398901 		ld	s3,24(s2)
 1577              		.loc 1 307 44
 1578 08d0 83370902 		ld	a5,32(s2)
 1579              		.loc 1 307 42
 1580 08d4 B389F900 		add	s3,s3,a5
 1581              		.loc 1 307 64
GAS LISTING /tmp/ccJsZ0pp.s 			page 41


 1582 08d8 03358902 		ld	a0,40(s2)
 1583              		.loc 1 307 12
 1584 08dc B389A900 		add	s3,s3,a0
 1585              	.LVL174:
 308:src/Slab.cpp  ****     size_t size_of_cache_in_blocks = num_of_slabs * size_in_blocks + 1;
 1586              		.loc 1 308 5 is_stmt 1
 1587              		.loc 1 308 53 is_stmt 0
 1588 08e0 83340904 		ld	s1,64(s2)
 1589              		.loc 1 308 51
 1590 08e4 B3843403 		mul	s1,s1,s3
 1591              		.loc 1 308 12
 1592 08e8 93841400 		addi	s1,s1,1
 1593              	.LVL175:
 309:src/Slab.cpp  ****     printString("Velicina kesa u blokovima: ");
 1594              		.loc 1 309 5 is_stmt 1
 1595              		.loc 1 309 16 is_stmt 0
 1596 08ec 17050000 		lla	a0,.LC4
 1596      13050500 
 1597 08f4 97000000 		call	_Z11printStringPKc@plt
 1597      E7800000 
 1598              	.LVL176:
 310:src/Slab.cpp  ****     printInt(size_of_cache_in_blocks);
 1599              		.loc 1 310 5 is_stmt 1
 1600              		.loc 1 310 13 is_stmt 0
 1601 08fc 13060000 		li	a2,0
 1602 0900 9305A000 		li	a1,10
 1603 0904 1B850400 		sext.w	a0,s1
 1604 0908 97000000 		call	_Z8printIntiii@plt
 1604      E7800000 
 1605              	.LVL177:
 311:src/Slab.cpp  ****     printString("\n");
 1606              		.loc 1 311 5 is_stmt 1
 1607              		.loc 1 311 16 is_stmt 0
 1608 0910 17050000 		lla	a0,.LC2
 1608      13050500 
 1609 0918 97000000 		call	_Z11printStringPKc@plt
 1609      E7800000 
 1610              	.LVL178:
 312:src/Slab.cpp  **** 
 313:src/Slab.cpp  ****     // print number of slabs in cache
 314:src/Slab.cpp  ****     printString("Broj ploca u kesu: ");
 1611              		.loc 1 314 5 is_stmt 1
 1612              		.loc 1 314 16 is_stmt 0
 1613 0920 17050000 		lla	a0,.LC5
 1613      13050500 
 1614 0928 97000000 		call	_Z11printStringPKc@plt
 1614      E7800000 
 1615              	.LVL179:
 315:src/Slab.cpp  ****     printInt(num_of_slabs);
 1616              		.loc 1 315 5 is_stmt 1
 1617              		.loc 1 315 13 is_stmt 0
 1618 0930 13060000 		li	a2,0
 1619 0934 9305A000 		li	a1,10
 1620 0938 1B850900 		sext.w	a0,s3
 1621 093c 97000000 		call	_Z8printIntiii@plt
 1621      E7800000 
 1622              	.LVL180:
GAS LISTING /tmp/ccJsZ0pp.s 			page 42


 316:src/Slab.cpp  ****     printString("\n");
 1623              		.loc 1 316 5 is_stmt 1
 1624              		.loc 1 316 16 is_stmt 0
 1625 0944 17050000 		lla	a0,.LC2
 1625      13050500 
 1626 094c 97000000 		call	_Z11printStringPKc@plt
 1626      E7800000 
 1627              	.LVL181:
 317:src/Slab.cpp  **** 
 318:src/Slab.cpp  ****     // number of objects in one slab
 319:src/Slab.cpp  ****     printString("Broj objekata koji staju u jednu plocu: ");
 1628              		.loc 1 319 5 is_stmt 1
 1629              		.loc 1 319 16 is_stmt 0
 1630 0954 17050000 		lla	a0,.LC6
 1630      13050500 
 1631 095c 97000000 		call	_Z11printStringPKc@plt
 1631      E7800000 
 1632              	.LVL182:
 320:src/Slab.cpp  ****     printInt(num);
 1633              		.loc 1 320 5 is_stmt 1
 1634              		.loc 1 320 13 is_stmt 0
 1635 0964 13060000 		li	a2,0
 1636 0968 9305A000 		li	a1,10
 1637 096c 03258903 		lw	a0,56(s2)
 1638 0970 97000000 		call	_Z8printIntiii@plt
 1638      E7800000 
 1639              	.LVL183:
 321:src/Slab.cpp  ****     printString("\n");
 1640              		.loc 1 321 5 is_stmt 1
 1641              		.loc 1 321 16 is_stmt 0
 1642 0978 17050000 		lla	a0,.LC2
 1642      13050500 
 1643 0980 97000000 		call	_Z11printStringPKc@plt
 1643      E7800000 
 1644              	.LVL184:
 322:src/Slab.cpp  **** 
 323:src/Slab.cpp  ****     // number of objects in one slab
 324:src/Slab.cpp  ****     printString("Broj aktivnih objekata u kesu: ");
 1645              		.loc 1 324 5 is_stmt 1
 1646              		.loc 1 324 16 is_stmt 0
 1647 0988 17050000 		lla	a0,.LC7
 1647      13050500 
 1648 0990 97000000 		call	_Z11printStringPKc@plt
 1648      E7800000 
 1649              	.LVL185:
 325:src/Slab.cpp  ****     printInt(num_active_obj);
 1650              		.loc 1 325 5 is_stmt 1
 1651              		.loc 1 325 13 is_stmt 0
 1652 0998 13060000 		li	a2,0
 1653 099c 9305A000 		li	a1,10
 1654 09a0 03258906 		lw	a0,104(s2)
 1655 09a4 97000000 		call	_Z8printIntiii@plt
 1655      E7800000 
 1656              	.LVL186:
 326:src/Slab.cpp  ****     printString("\n");
 1657              		.loc 1 326 5 is_stmt 1
 1658              		.loc 1 326 16 is_stmt 0
GAS LISTING /tmp/ccJsZ0pp.s 			page 43


 1659 09ac 17050000 		lla	a0,.LC2
 1659      13050500 
 1660 09b4 97000000 		call	_Z11printStringPKc@plt
 1660      E7800000 
 1661              	.LVL187:
 327:src/Slab.cpp  **** 
 328:src/Slab.cpp  ****     // stanje u slabovima
 329:src/Slab.cpp  ****     printString("slobodni: ");
 1662              		.loc 1 329 5 is_stmt 1
 1663              		.loc 1 329 16 is_stmt 0
 1664 09bc 17050000 		lla	a0,.LC8
 1664      13050500 
 1665 09c4 97000000 		call	_Z11printStringPKc@plt
 1665      E7800000 
 1666              	.LVL188:
 330:src/Slab.cpp  ****     for(Slab* tmp = slabs_free; tmp; tmp = tmp->next){
 1667              		.loc 1 330 5 is_stmt 1
 1668              	.LBB118:
 1669              		.loc 1 330 15 is_stmt 0
 1670 09cc 83340901 		ld	s1,16(s2)
 1671              	.LVL189:
 1672              	.L87:
 1673              		.loc 1 330 33 is_stmt 1 discriminator 3
 1674 09d0 63880402 		beqz	s1,.L86
 331:src/Slab.cpp  ****         printInt(tmp->get_number_of_active_objects());
 1675              		.loc 1 331 9
 1676              	.LVL190:
 1677              	.LBB119:
 1678              	.LBB120:
  14:src/../h/Slab.h ****     void* return_first_free_object_and_rearange_list(int, int);
 1679              		.loc 3 14 43
 1680              	.LBE120:
 1681              	.LBE119:
 1682              		.loc 1 331 17 is_stmt 0
 1683 09d4 13060000 		li	a2,0
 1684 09d8 9305A000 		li	a1,10
 1685 09dc 03A50400 		lw	a0,0(s1)
 1686 09e0 97000000 		call	_Z8printIntiii@plt
 1686      E7800000 
 1687              	.LVL191:
 332:src/Slab.cpp  ****         printString(" ");
 1688              		.loc 1 332 9 is_stmt 1
 1689              		.loc 1 332 20 is_stmt 0
 1690 09e8 17050000 		lla	a0,.LC9
 1690      13050500 
 1691 09f0 97000000 		call	_Z11printStringPKc@plt
 1691      E7800000 
 1692              	.LVL192:
 330:src/Slab.cpp  ****         printInt(tmp->get_number_of_active_objects());
 1693              		.loc 1 330 5 is_stmt 1
 330:src/Slab.cpp  ****         printInt(tmp->get_number_of_active_objects());
 1694              		.loc 1 330 42 is_stmt 0
 1695 09f8 83B48400 		ld	s1,8(s1)
 1696              	.LVL193:
 330:src/Slab.cpp  ****         printInt(tmp->get_number_of_active_objects());
 1697              		.loc 1 330 5
 1698 09fc 6FF05FFD 		j	.L87
GAS LISTING /tmp/ccJsZ0pp.s 			page 44


 1699              	.L86:
 1700              	.LBE118:
 333:src/Slab.cpp  ****     }
 334:src/Slab.cpp  ****     printString("\n");
 1701              		.loc 1 334 5 is_stmt 1
 1702              		.loc 1 334 16 is_stmt 0
 1703 0a00 17050000 		lla	a0,.LC2
 1703      13050500 
 1704 0a08 97000000 		call	_Z11printStringPKc@plt
 1704      E7800000 
 1705              	.LVL194:
 335:src/Slab.cpp  ****     printString("zaprljani: ");
 1706              		.loc 1 335 5 is_stmt 1
 1707              		.loc 1 335 16 is_stmt 0
 1708 0a10 17050000 		lla	a0,.LC10
 1708      13050500 
 1709 0a18 97000000 		call	_Z11printStringPKc@plt
 1709      E7800000 
 1710              	.LVL195:
 336:src/Slab.cpp  ****     for(Slab* tmp = slabs_partial; tmp; tmp = tmp->next){
 1711              		.loc 1 336 5 is_stmt 1
 1712              	.LBB121:
 1713              		.loc 1 336 15 is_stmt 0
 1714 0a20 83348900 		ld	s1,8(s2)
 1715              	.LVL196:
 1716              	.L89:
 1717              		.loc 1 336 36 is_stmt 1 discriminator 3
 1718 0a24 63880402 		beqz	s1,.L88
 337:src/Slab.cpp  ****         printInt(tmp->get_number_of_active_objects());
 1719              		.loc 1 337 9
 1720              	.LVL197:
 1721              	.LBB122:
 1722              	.LBB123:
  14:src/../h/Slab.h ****     void* return_first_free_object_and_rearange_list(int, int);
 1723              		.loc 3 14 43
 1724              	.LBE123:
 1725              	.LBE122:
 1726              		.loc 1 337 17 is_stmt 0
 1727 0a28 13060000 		li	a2,0
 1728 0a2c 9305A000 		li	a1,10
 1729 0a30 03A50400 		lw	a0,0(s1)
 1730 0a34 97000000 		call	_Z8printIntiii@plt
 1730      E7800000 
 1731              	.LVL198:
 338:src/Slab.cpp  ****         printString(" ");
 1732              		.loc 1 338 9 is_stmt 1
 1733              		.loc 1 338 20 is_stmt 0
 1734 0a3c 17050000 		lla	a0,.LC9
 1734      13050500 
 1735 0a44 97000000 		call	_Z11printStringPKc@plt
 1735      E7800000 
 1736              	.LVL199:
 336:src/Slab.cpp  ****         printInt(tmp->get_number_of_active_objects());
 1737              		.loc 1 336 5 is_stmt 1
 336:src/Slab.cpp  ****         printInt(tmp->get_number_of_active_objects());
 1738              		.loc 1 336 45 is_stmt 0
 1739 0a4c 83B48400 		ld	s1,8(s1)
GAS LISTING /tmp/ccJsZ0pp.s 			page 45


 1740              	.LVL200:
 336:src/Slab.cpp  ****         printInt(tmp->get_number_of_active_objects());
 1741              		.loc 1 336 5
 1742 0a50 6FF05FFD 		j	.L89
 1743              	.L88:
 1744              	.LBE121:
 339:src/Slab.cpp  ****     }
 340:src/Slab.cpp  ****     printString("\n");
 1745              		.loc 1 340 5 is_stmt 1
 1746              		.loc 1 340 16 is_stmt 0
 1747 0a54 17050000 		lla	a0,.LC2
 1747      13050500 
 1748 0a5c 97000000 		call	_Z11printStringPKc@plt
 1748      E7800000 
 1749              	.LVL201:
 341:src/Slab.cpp  ****     printString("puni: ");
 1750              		.loc 1 341 5 is_stmt 1
 1751              		.loc 1 341 16 is_stmt 0
 1752 0a64 17050000 		lla	a0,.LC11
 1752      13050500 
 1753 0a6c 97000000 		call	_Z11printStringPKc@plt
 1753      E7800000 
 1754              	.LVL202:
 342:src/Slab.cpp  ****     for(Slab* tmp = slabs_full; tmp; tmp = tmp->next){
 1755              		.loc 1 342 5 is_stmt 1
 1756              	.LBB124:
 1757              		.loc 1 342 15 is_stmt 0
 1758 0a74 83340900 		ld	s1,0(s2)
 1759              	.LVL203:
 1760              	.L91:
 1761              		.loc 1 342 33 is_stmt 1 discriminator 3
 1762 0a78 63880402 		beqz	s1,.L90
 343:src/Slab.cpp  ****         printInt(tmp->get_number_of_active_objects());
 1763              		.loc 1 343 9
 1764              	.LVL204:
 1765              	.LBB125:
 1766              	.LBB126:
  14:src/../h/Slab.h ****     void* return_first_free_object_and_rearange_list(int, int);
 1767              		.loc 3 14 43
 1768              	.LBE126:
 1769              	.LBE125:
 1770              		.loc 1 343 17 is_stmt 0
 1771 0a7c 13060000 		li	a2,0
 1772 0a80 9305A000 		li	a1,10
 1773 0a84 03A50400 		lw	a0,0(s1)
 1774 0a88 97000000 		call	_Z8printIntiii@plt
 1774      E7800000 
 1775              	.LVL205:
 344:src/Slab.cpp  ****         printString(" ");
 1776              		.loc 1 344 9 is_stmt 1
 1777              		.loc 1 344 20 is_stmt 0
 1778 0a90 17050000 		lla	a0,.LC9
 1778      13050500 
 1779 0a98 97000000 		call	_Z11printStringPKc@plt
 1779      E7800000 
 1780              	.LVL206:
 342:src/Slab.cpp  ****         printInt(tmp->get_number_of_active_objects());
GAS LISTING /tmp/ccJsZ0pp.s 			page 46


 1781              		.loc 1 342 5 is_stmt 1
 342:src/Slab.cpp  ****         printInt(tmp->get_number_of_active_objects());
 1782              		.loc 1 342 42 is_stmt 0
 1783 0aa0 83B48400 		ld	s1,8(s1)
 1784              	.LVL207:
 342:src/Slab.cpp  ****         printInt(tmp->get_number_of_active_objects());
 1785              		.loc 1 342 5
 1786 0aa4 6FF05FFD 		j	.L91
 1787              	.L90:
 1788              	.LBE124:
 345:src/Slab.cpp  ****     }
 346:src/Slab.cpp  ****     printString("\n");
 1789              		.loc 1 346 5 is_stmt 1
 1790              		.loc 1 346 16 is_stmt 0
 1791 0aa8 17050000 		lla	a0,.LC2
 1791      13050500 
 1792 0ab0 97000000 		call	_Z11printStringPKc@plt
 1792      E7800000 
 1793              	.LVL208:
 347:src/Slab.cpp  **** 
 348:src/Slab.cpp  ****     // number of times cache shrank
 349:src/Slab.cpp  ****     printString("Broj uspesnih smanjenja kesa: ");
 1794              		.loc 1 349 5 is_stmt 1
 1795              		.loc 1 349 16 is_stmt 0
 1796 0ab8 17050000 		lla	a0,.LC12
 1796      13050500 
 1797 0ac0 97000000 		call	_Z11printStringPKc@plt
 1797      E7800000 
 1798              	.LVL209:
 350:src/Slab.cpp  ****     printInt(shrink);
 1799              		.loc 1 350 5 is_stmt 1
 1800              		.loc 1 350 13 is_stmt 0
 1801 0ac8 13060000 		li	a2,0
 1802 0acc 9305A000 		li	a1,10
 1803 0ad0 03258907 		lw	a0,120(s2)
 1804 0ad4 97000000 		call	_Z8printIntiii@plt
 1804      E7800000 
 1805              	.LVL210:
 351:src/Slab.cpp  ****     printString("\n");
 1806              		.loc 1 351 5 is_stmt 1
 1807              		.loc 1 351 16 is_stmt 0
 1808 0adc 17050000 		lla	a0,.LC2
 1808      13050500 
 1809 0ae4 97000000 		call	_Z11printStringPKc@plt
 1809      E7800000 
 1810              	.LVL211:
 352:src/Slab.cpp  **** 
 353:src/Slab.cpp  ****     // metedata
 354:src/Slab.cpp  ****     printString("Velicina metapodataka za kmem_cache_s: ");
 1811              		.loc 1 354 5 is_stmt 1
 1812              		.loc 1 354 16 is_stmt 0
 1813 0aec 17050000 		lla	a0,.LC13
 1813      13050500 
 1814 0af4 97000000 		call	_Z11printStringPKc@plt
 1814      E7800000 
 1815              	.LVL212:
 355:src/Slab.cpp  ****     printInt(sizeof(kmem_cache_s));
GAS LISTING /tmp/ccJsZ0pp.s 			page 47


 1816              		.loc 1 355 5 is_stmt 1
 1817              		.loc 1 355 13 is_stmt 0
 1818 0afc 13060000 		li	a2,0
 1819 0b00 9305A000 		li	a1,10
 1820 0b04 13050008 		li	a0,128
 1821 0b08 97000000 		call	_Z8printIntiii@plt
 1821      E7800000 
 1822              	.LVL213:
 356:src/Slab.cpp  ****     printString("\n");
 1823              		.loc 1 356 5 is_stmt 1
 1824              		.loc 1 356 16 is_stmt 0
 1825 0b10 17050000 		lla	a0,.LC2
 1825      13050500 
 1826 0b18 97000000 		call	_Z11printStringPKc@plt
 1826      E7800000 
 1827              	.LVL214:
 357:src/Slab.cpp  ****     printString("Velicina metapodataka za Slab: ");
 1828              		.loc 1 357 5 is_stmt 1
 1829              		.loc 1 357 16 is_stmt 0
 1830 0b20 17050000 		lla	a0,.LC14
 1830      13050500 
 1831 0b28 97000000 		call	_Z11printStringPKc@plt
 1831      E7800000 
 1832              	.LVL215:
 358:src/Slab.cpp  ****     printInt(sizeof(Slab));
 1833              		.loc 1 358 5 is_stmt 1
 1834              		.loc 1 358 13 is_stmt 0
 1835 0b30 13060000 		li	a2,0
 1836 0b34 9305A000 		li	a1,10
 1837 0b38 13050002 		li	a0,32
 1838 0b3c 97000000 		call	_Z8printIntiii@plt
 1838      E7800000 
 1839              	.LVL216:
 359:src/Slab.cpp  ****     printString("\n");
 1840              		.loc 1 359 5 is_stmt 1
 1841              		.loc 1 359 16 is_stmt 0
 1842 0b44 17050000 		lla	a0,.LC2
 1842      13050500 
 1843 0b4c 97000000 		call	_Z11printStringPKc@plt
 1843      E7800000 
 1844              	.LVL217:
 360:src/Slab.cpp  **** 
 361:src/Slab.cpp  ****     // percentage of fullfilment of cache
 362:src/Slab.cpp  ****     size_t neto = sizeof(kmem_cache_s) + num_of_slabs * sizeof(Slab) + num_active_obj * objsize;
 1845              		.loc 1 362 5 is_stmt 1
 1846              		.loc 1 362 40 is_stmt 0
 1847 0b54 138A4900 		addi	s4,s3,4
 1848 0b58 131A5A00 		slli	s4,s4,5
 1849              		.loc 1 362 72
 1850 0b5c 83378906 		ld	a5,104(s2)
 1851              		.loc 1 362 89
 1852 0b60 03370903 		ld	a4,48(s2)
 1853              		.loc 1 362 87
 1854 0b64 B387E702 		mul	a5,a5,a4
 1855              		.loc 1 362 12
 1856 0b68 330AFA00 		add	s4,s4,a5
 1857              	.LVL218:
GAS LISTING /tmp/ccJsZ0pp.s 			page 48


 363:src/Slab.cpp  ****     size_t bruto = (1 + num_of_slabs * size_in_blocks) * BLOCK_SIZE;
 1858              		.loc 1 363 5 is_stmt 1
 1859              		.loc 1 363 40 is_stmt 0
 1860 0b6c 83340904 		ld	s1,64(s2)
 1861              	.LVL219:
 1862              		.loc 1 363 38
 1863 0b70 B3843403 		mul	s1,s1,s3
 1864              		.loc 1 363 23
 1865 0b74 93841400 		addi	s1,s1,1
 1866              		.loc 1 363 12
 1867 0b78 9394C400 		slli	s1,s1,12
 1868              	.LVL220:
 364:src/Slab.cpp  **** 
 365:src/Slab.cpp  ****     printString("Prosecna iskoriscenost prostora: ");
 1869              		.loc 1 365 5 is_stmt 1
 1870              		.loc 1 365 16 is_stmt 0
 1871 0b7c 17050000 		lla	a0,.LC15
 1871      13050500 
 1872 0b84 97000000 		call	_Z11printStringPKc@plt
 1872      E7800000 
 1873              	.LVL221:
 366:src/Slab.cpp  ****     printInt(neto);
 1874              		.loc 1 366 5 is_stmt 1
 1875              		.loc 1 366 13 is_stmt 0
 1876 0b8c 13060000 		li	a2,0
 1877 0b90 9305A000 		li	a1,10
 1878 0b94 1B050A00 		sext.w	a0,s4
 1879 0b98 97000000 		call	_Z8printIntiii@plt
 1879      E7800000 
 1880              	.LVL222:
 367:src/Slab.cpp  ****     printString("/");
 1881              		.loc 1 367 5 is_stmt 1
 1882              		.loc 1 367 16 is_stmt 0
 1883 0ba0 17050000 		lla	a0,.LC16
 1883      13050500 
 1884 0ba8 97000000 		call	_Z11printStringPKc@plt
 1884      E7800000 
 1885              	.LVL223:
 368:src/Slab.cpp  ****     printInt(bruto);
 1886              		.loc 1 368 5 is_stmt 1
 1887              		.loc 1 368 13 is_stmt 0
 1888 0bb0 13060000 		li	a2,0
 1889 0bb4 9305A000 		li	a1,10
 1890 0bb8 1B850400 		sext.w	a0,s1
 1891 0bbc 97000000 		call	_Z8printIntiii@plt
 1891      E7800000 
 1892              	.LVL224:
 369:src/Slab.cpp  ****     printString("\n");
 1893              		.loc 1 369 5 is_stmt 1
 1894              		.loc 1 369 16 is_stmt 0
 1895 0bc4 17050000 		lla	a0,.LC2
 1895      13050500 
 1896 0bcc 97000000 		call	_Z11printStringPKc@plt
 1896      E7800000 
 1897              	.LVL225:
 370:src/Slab.cpp  ****     printString("Realna iskoriscenost prostora: ");
 1898              		.loc 1 370 5 is_stmt 1
GAS LISTING /tmp/ccJsZ0pp.s 			page 49


 1899              		.loc 1 370 16 is_stmt 0
 1900 0bd4 17050000 		lla	a0,.LC17
 1900      13050500 
 1901 0bdc 97000000 		call	_Z11printStringPKc@plt
 1901      E7800000 
 1902              	.LVL226:
 371:src/Slab.cpp  ****     printInt(num_active_obj * objsize);
 1903              		.loc 1 371 5 is_stmt 1
 1904              		.loc 1 371 14 is_stmt 0
 1905 0be4 03358906 		ld	a0,104(s2)
 1906              		.loc 1 371 31
 1907 0be8 83370903 		ld	a5,48(s2)
 1908              		.loc 1 371 13
 1909 0bec 13060000 		li	a2,0
 1910 0bf0 9305A000 		li	a1,10
 1911 0bf4 3B05F502 		mulw	a0,a0,a5
 1912 0bf8 97000000 		call	_Z8printIntiii@plt
 1912      E7800000 
 1913              	.LVL227:
 372:src/Slab.cpp  ****     printString("/");
 1914              		.loc 1 372 5 is_stmt 1
 1915              		.loc 1 372 16 is_stmt 0
 1916 0c00 17050000 		lla	a0,.LC16
 1916      13050500 
 1917 0c08 97000000 		call	_Z11printStringPKc@plt
 1917      E7800000 
 1918              	.LVL228:
 373:src/Slab.cpp  ****     size_t real_bruto = num_of_slabs * size_in_blocks * BLOCK_SIZE - num_of_slabs * sizeof(Slab);
 1919              		.loc 1 373 5 is_stmt 1
 1920              		.loc 1 373 40 is_stmt 0
 1921 0c10 03350904 		ld	a0,64(s2)
 1922              		.loc 1 373 38
 1923 0c14 33053503 		mul	a0,a0,s3
 1924              		.loc 1 373 68
 1925 0c18 13157500 		slli	a0,a0,7
 1926 0c1c 33053541 		sub	a0,a0,s3
 1927              		.loc 1 373 12
 1928 0c20 13155500 		slli	a0,a0,5
 1929              	.LVL229:
 374:src/Slab.cpp  ****     printInt(real_bruto);
 1930              		.loc 1 374 5 is_stmt 1
 1931              		.loc 1 374 13 is_stmt 0
 1932 0c24 13060000 		li	a2,0
 1933 0c28 9305A000 		li	a1,10
 1934 0c2c 1B050500 		sext.w	a0,a0
 1935              	.LVL230:
 1936 0c30 97000000 		call	_Z8printIntiii@plt
 1936      E7800000 
 1937              	.LVL231:
 375:src/Slab.cpp  ****     printString("\n");
 1938              		.loc 1 375 5 is_stmt 1
 1939              		.loc 1 375 16 is_stmt 0
 1940 0c38 17050000 		lla	a0,.LC2
 1940      13050500 
 1941 0c40 97000000 		call	_Z11printStringPKc@plt
 1941      E7800000 
 1942              	.LVL232:
GAS LISTING /tmp/ccJsZ0pp.s 			page 50


 376:src/Slab.cpp  **** 
 377:src/Slab.cpp  ****     printString("----------------------- END ----------------------\n");
 1943              		.loc 1 377 5 is_stmt 1
 1944              		.loc 1 377 16 is_stmt 0
 1945 0c48 17050000 		lla	a0,.LC18
 1945      13050500 
 1946 0c50 97000000 		call	_Z11printStringPKc@plt
 1946      E7800000 
 1947              	.LVL233:
 378:src/Slab.cpp  **** }
 1948              		.loc 1 378 1
 1949 0c58 83308102 		ld	ra,40(sp)
 1950              		.cfi_restore 1
 1951 0c5c 03340102 		ld	s0,32(sp)
 1952              		.cfi_restore 8
 1953              		.cfi_def_cfa 2, 48
 1954 0c60 83348101 		ld	s1,24(sp)
 1955              		.cfi_restore 9
 1956              	.LVL234:
 1957 0c64 03390101 		ld	s2,16(sp)
 1958              		.cfi_restore 18
 1959              	.LVL235:
 1960 0c68 83398100 		ld	s3,8(sp)
 1961              		.cfi_restore 19
 1962              	.LVL236:
 1963 0c6c 033A0100 		ld	s4,0(sp)
 1964              		.cfi_restore 20
 1965              	.LVL237:
 1966 0c70 13010103 		addi	sp,sp,48
 1967              		.cfi_def_cfa_offset 0
 1968 0c74 67800000 		jr	ra
 1969              		.cfi_endproc
 1970              	.LFE57:
 1972              		.section	.rodata.str1.8
 1973 0204 00000000 		.align	3
 1974              	.LC19:
 1975 0208 0A090909 		.string	"\n\t\t\t ### PRINT ALL CACHES ###\t\t\t\n"
 1975      20232323 
 1975      20505249 
 1975      4E542041 
 1975      4C4C2043 
 1976 022a 00000000 		.align	3
 1976      0000
 1977              	.LC20:
 1978 0230 09090909 		.string	"\t\t\t\t    ### END ###\t\t\t\n"
 1978      20202020 
 1978      23232320 
 1978      454E4420 
 1978      23232309 
 1979              		.text
 1980              		.align	2
 1981              		.globl	_ZN12kmem_cache_s21print_info_all_cachesEv
 1983              	_ZN12kmem_cache_s21print_info_all_cachesEv:
 1984              	.LFB58:
 379:src/Slab.cpp  **** 
 380:src/Slab.cpp  **** void kmem_cache_s::print_info_all_caches() {
 1985              		.loc 1 380 44 is_stmt 1
GAS LISTING /tmp/ccJsZ0pp.s 			page 51


 1986              		.cfi_startproc
 1987 0c78 130101FE 		addi	sp,sp,-32
 1988              		.cfi_def_cfa_offset 32
 1989 0c7c 233C1100 		sd	ra,24(sp)
 1990 0c80 23388100 		sd	s0,16(sp)
 1991 0c84 23349100 		sd	s1,8(sp)
 1992              		.cfi_offset 1, -8
 1993              		.cfi_offset 8, -16
 1994              		.cfi_offset 9, -24
 1995 0c88 13040102 		addi	s0,sp,32
 1996              		.cfi_def_cfa 8, 0
 381:src/Slab.cpp  ****     printString("\n\t\t\t ### PRINT ALL CACHES ###\t\t\t\n");
 1997              		.loc 1 381 5
 1998              		.loc 1 381 16 is_stmt 0
 1999 0c8c 17050000 		lla	a0,.LC19
 1999      13050500 
 2000 0c94 97000000 		call	_Z11printStringPKc@plt
 2000      E7800000 
 2001              	.LVL238:
 382:src/Slab.cpp  ****     for(kmem_cache_s* tmp = kmem_cache_s::head; tmp; tmp = tmp->next){
 2002              		.loc 1 382 5 is_stmt 1
 2003              	.LBB127:
 2004              		.loc 1 382 23 is_stmt 0
 2005 0c9c 97040000 		ld	s1,.LANCHOR0
 2005      83B40400 
 2006              	.LVL239:
 2007              	.L95:
 2008              		.loc 1 382 49 is_stmt 1 discriminator 3
 2009 0ca4 638C0400 		beqz	s1,.L94
 383:src/Slab.cpp  ****         tmp->kmem_cache_info();
 2010              		.loc 1 383 9 discriminator 2
 2011              		.loc 1 383 29 is_stmt 0 discriminator 2
 2012 0ca8 13850400 		mv	a0,s1
 2013 0cac 97000000 		call	_ZN12kmem_cache_s15kmem_cache_infoEv
 2013      E7800000 
 2014              	.LVL240:
 382:src/Slab.cpp  ****     for(kmem_cache_s* tmp = kmem_cache_s::head; tmp; tmp = tmp->next){
 2015              		.loc 1 382 5 is_stmt 1 discriminator 2
 382:src/Slab.cpp  ****     for(kmem_cache_s* tmp = kmem_cache_s::head; tmp; tmp = tmp->next){
 2016              		.loc 1 382 58 is_stmt 0 discriminator 2
 2017 0cb4 83B40406 		ld	s1,96(s1)
 2018              	.LVL241:
 382:src/Slab.cpp  ****     for(kmem_cache_s* tmp = kmem_cache_s::head; tmp; tmp = tmp->next){
 2019              		.loc 1 382 5 discriminator 2
 2020 0cb8 6FF0DFFE 		j	.L95
 2021              	.L94:
 2022              	.LBE127:
 384:src/Slab.cpp  ****     }
 385:src/Slab.cpp  ****     printString("\t\t\t\t    ### END ###\t\t\t\n");
 2023              		.loc 1 385 5 is_stmt 1
 2024              		.loc 1 385 16 is_stmt 0
 2025 0cbc 17050000 		lla	a0,.LC20
 2025      13050500 
 2026 0cc4 97000000 		call	_Z11printStringPKc@plt
 2026      E7800000 
 2027              	.LVL242:
 386:src/Slab.cpp  **** }
GAS LISTING /tmp/ccJsZ0pp.s 			page 52


 2028              		.loc 1 386 1
 2029 0ccc 83308101 		ld	ra,24(sp)
 2030              		.cfi_restore 1
 2031 0cd0 03340101 		ld	s0,16(sp)
 2032              		.cfi_restore 8
 2033              		.cfi_def_cfa 2, 32
 2034 0cd4 83348100 		ld	s1,8(sp)
 2035              		.cfi_restore 9
 2036              	.LVL243:
 2037 0cd8 13010102 		addi	sp,sp,32
 2038              		.cfi_def_cfa_offset 0
 2039 0cdc 67800000 		jr	ra
 2040              		.cfi_endproc
 2041              	.LFE58:
 2043              		.align	2
 2044              		.globl	_ZN4Slab42return_first_free_object_and_rearange_listEii
 2046              	_ZN4Slab42return_first_free_object_and_rearange_listEii:
 2047              	.LFB59:
 387:src/Slab.cpp  **** 
 388:src/Slab.cpp  **** void *Slab::return_first_free_object_and_rearange_list(int number_of_objects_in_slab, int size_of_o
 2048              		.loc 1 388 107 is_stmt 1
 2049              		.cfi_startproc
 2050              	.LVL244:
 2051 0ce0 130101FF 		addi	sp,sp,-16
 2052              		.cfi_def_cfa_offset 16
 2053 0ce4 23348100 		sd	s0,8(sp)
 2054              		.cfi_offset 8, -8
 2055 0ce8 13040101 		addi	s0,sp,16
 2056              		.cfi_def_cfa 8, 0
 389:src/Slab.cpp  ****     int i = 0;
 2057              		.loc 1 389 5
 2058              	.LVL245:
 2059              		.loc 1 389 9 is_stmt 0
 2060 0cec 93070000 		li	a5,0
 2061              	.LVL246:
 2062              	.L99:
 390:src/Slab.cpp  ****     while(i < number_of_objects_in_slab && (this->free_objects)[i]){
 2063              		.loc 1 390 5 is_stmt 1
 2064              		.loc 1 390 41
 2065 0cf0 63DEB700 		bge	a5,a1,.L98
 2066              		.loc 1 390 51 is_stmt 0 discriminator 1
 2067 0cf4 03370501 		ld	a4,16(a0)
 2068              		.loc 1 390 66 discriminator 1
 2069 0cf8 3307F700 		add	a4,a4,a5
 2070 0cfc 03470700 		lbu	a4,0(a4)
 2071              		.loc 1 390 41 discriminator 1
 2072 0d00 63060700 		beqz	a4,.L98
 391:src/Slab.cpp  ****         i++;
 2073              		.loc 1 391 9 is_stmt 1
 2074              		.loc 1 391 10 is_stmt 0
 2075 0d04 9B871700 		addiw	a5,a5,1
 2076              	.LVL247:
 390:src/Slab.cpp  ****     while(i < number_of_objects_in_slab && (this->free_objects)[i]){
 2077              		.loc 1 390 5
 2078 0d08 6FF09FFE 		j	.L99
 2079              	.LVL248:
 2080              	.L98:
GAS LISTING /tmp/ccJsZ0pp.s 			page 53


 392:src/Slab.cpp  ****     }
 393:src/Slab.cpp  ****     if(i >= number_of_objects_in_slab)return nullptr; // nece se desiti ali postoji kao ogranicenje
 2081              		.loc 1 393 5 is_stmt 1
 2082 0d0c 63D6B702 		bge	a5,a1,.L101
 394:src/Slab.cpp  ****     (this->free_objects)[i] = true;
 2083              		.loc 1 394 5
 2084              		.loc 1 394 12 is_stmt 0
 2085 0d10 03370501 		ld	a4,16(a0)
 2086              		.loc 1 394 27
 2087 0d14 3307F700 		add	a4,a4,a5
 2088              		.loc 1 394 29
 2089 0d18 93061000 		li	a3,1
 2090 0d1c 2300D700 		sb	a3,0(a4)
 395:src/Slab.cpp  ****     return (void*)(this->first_addr + size_of_object * i);
 2091              		.loc 1 395 5 is_stmt 1
 2092              		.loc 1 395 26 is_stmt 0
 2093 0d20 03358501 		ld	a0,24(a0)
 2094              	.LVL249:
 2095              		.loc 1 395 54
 2096 0d24 BB87C702 		mulw	a5,a5,a2
 2097              	.LVL250:
 2098              		.loc 1 395 37
 2099 0d28 3305F500 		add	a0,a0,a5
 2100              	.L97:
 396:src/Slab.cpp  **** }
 2101              		.loc 1 396 1
 2102 0d2c 03348100 		ld	s0,8(sp)
 2103              		.cfi_remember_state
 2104              		.cfi_restore 8
 2105              		.cfi_def_cfa 2, 16
 2106 0d30 13010101 		addi	sp,sp,16
 2107              		.cfi_def_cfa_offset 0
 2108 0d34 67800000 		jr	ra
 2109              	.LVL251:
 2110              	.L101:
 2111              		.cfi_restore_state
 393:src/Slab.cpp  ****     (this->free_objects)[i] = true;
 2112              		.loc 1 393 46
 2113 0d38 13050000 		li	a0,0
 2114              	.LVL252:
 2115 0d3c 6FF01FFF 		j	.L97
 2116              		.cfi_endproc
 2117              	.LFE59:
 2119              		.align	2
 2120              		.globl	_ZN12kmem_cache_s16kmem_cache_allocEv
 2122              	_ZN12kmem_cache_s16kmem_cache_allocEv:
 2123              	.LFB48:
  70:src/Slab.cpp  ****     if(num_slabs_partial != 0){
 2124              		.loc 1 70 40 is_stmt 1
 2125              		.cfi_startproc
 2126              	.LVL253:
 2127 0d40 130101FE 		addi	sp,sp,-32
 2128              		.cfi_def_cfa_offset 32
 2129 0d44 233C1100 		sd	ra,24(sp)
 2130 0d48 23388100 		sd	s0,16(sp)
 2131 0d4c 23349100 		sd	s1,8(sp)
 2132              		.cfi_offset 1, -8
GAS LISTING /tmp/ccJsZ0pp.s 			page 54


 2133              		.cfi_offset 8, -16
 2134              		.cfi_offset 9, -24
 2135 0d50 13040102 		addi	s0,sp,32
 2136              		.cfi_def_cfa 8, 0
 2137 0d54 93040500 		mv	s1,a0
  71:src/Slab.cpp  ****         void* addr = this->slabs_partial->return_first_free_object_and_rearange_list(this->num, thi
 2138              		.loc 1 71 5
 2139              	.LBB128:
  71:src/Slab.cpp  ****         void* addr = this->slabs_partial->return_first_free_object_and_rearange_list(this->num, thi
 2140              		.loc 1 71 8 is_stmt 0
 2141 0d58 83370502 		ld	a5,32(a0)
  71:src/Slab.cpp  ****         void* addr = this->slabs_partial->return_first_free_object_and_rearange_list(this->num, thi
 2142              		.loc 1 71 5
 2143 0d5c 63900708 		bnez	a5,.L109
 2144              	.LBE128:
  88:src/Slab.cpp  ****         void* addr = this->slabs_free->return_first_free_object_and_rearange_list(this->num, this->
 2145              		.loc 1 88 5 is_stmt 1
 2146              	.LBB136:
  88:src/Slab.cpp  ****         void* addr = this->slabs_free->return_first_free_object_and_rearange_list(this->num, this->
 2147              		.loc 1 88 8 is_stmt 0
 2148 0d60 83378502 		ld	a5,40(a0)
  88:src/Slab.cpp  ****         void* addr = this->slabs_free->return_first_free_object_and_rearange_list(this->num, this->
 2149              		.loc 1 88 5
 2150 0d64 6386070E 		beqz	a5,.L107
 2151              	.LBB137:
  89:src/Slab.cpp  ****         this->num_active_obj++;
 2152              		.loc 1 89 9 is_stmt 1
  89:src/Slab.cpp  ****         this->num_active_obj++;
 2153              		.loc 1 89 82 is_stmt 0
 2154 0d68 03260503 		lw	a2,48(a0)
 2155 0d6c 83258503 		lw	a1,56(a0)
 2156 0d70 03350501 		ld	a0,16(a0)
 2157              	.LVL254:
 2158 0d74 97000000 		call	_ZN4Slab42return_first_free_object_and_rearange_listEii
 2158      E7800000 
 2159              	.LVL255:
  90:src/Slab.cpp  **** 
 2160              		.loc 1 90 9 is_stmt 1
  90:src/Slab.cpp  **** 
 2161              		.loc 1 90 15 is_stmt 0
 2162 0d7c 83B78406 		ld	a5,104(s1)
  90:src/Slab.cpp  **** 
 2163              		.loc 1 90 29
 2164 0d80 93871700 		addi	a5,a5,1
 2165 0d84 23B4F406 		sd	a5,104(s1)
  93:src/Slab.cpp  ****         tmp->next = this->slabs_partial;
 2166              		.loc 1 93 9 is_stmt 1
  93:src/Slab.cpp  ****         tmp->next = this->slabs_partial;
 2167              		.loc 1 93 15 is_stmt 0
 2168 0d88 83B70401 		ld	a5,16(s1)
 2169              	.LVL256:
  94:src/Slab.cpp  ****         tmp->increment_num_of_active();
 2170              		.loc 1 94 9 is_stmt 1
  94:src/Slab.cpp  ****         tmp->increment_num_of_active();
 2171              		.loc 1 94 27 is_stmt 0
 2172 0d8c 03B78400 		ld	a4,8(s1)
  94:src/Slab.cpp  ****         tmp->increment_num_of_active();
GAS LISTING /tmp/ccJsZ0pp.s 			page 55


 2173              		.loc 1 94 19
 2174 0d90 23B4E700 		sd	a4,8(a5)
  95:src/Slab.cpp  ****         this->slabs_free = this->slabs_free->next;
 2175              		.loc 1 95 9 is_stmt 1
 2176              	.LVL257:
 2177              	.LBB138:
 2178              	.LBB139:
  16:src/../h/Slab.h ****     void decrement_num_of_active(){num_active--;}
 2179              		.loc 3 16 36
 2180 0d94 03B70700 		ld	a4,0(a5)
  16:src/../h/Slab.h ****     void decrement_num_of_active(){num_active--;}
 2181              		.loc 3 16 46 is_stmt 0
 2182 0d98 13071700 		addi	a4,a4,1
 2183 0d9c 23B0E700 		sd	a4,0(a5)
 2184              	.LVL258:
 2185              	.LBE139:
 2186              	.LBE138:
  96:src/Slab.cpp  ****         this->slabs_partial = tmp;
 2187              		.loc 1 96 9 is_stmt 1
  96:src/Slab.cpp  ****         this->slabs_partial = tmp;
 2188              		.loc 1 96 34 is_stmt 0
 2189 0da0 03B70401 		ld	a4,16(s1)
  96:src/Slab.cpp  ****         this->slabs_partial = tmp;
 2190              		.loc 1 96 46
 2191 0da4 03378700 		ld	a4,8(a4)
  96:src/Slab.cpp  ****         this->slabs_partial = tmp;
 2192              		.loc 1 96 26
 2193 0da8 23B8E400 		sd	a4,16(s1)
  97:src/Slab.cpp  ****         this->num_slabs_free--;
 2194              		.loc 1 97 9 is_stmt 1
  97:src/Slab.cpp  ****         this->num_slabs_free--;
 2195              		.loc 1 97 29 is_stmt 0
 2196 0dac 23B4F400 		sd	a5,8(s1)
  98:src/Slab.cpp  ****         this->num_slabs_partial++;
 2197              		.loc 1 98 9 is_stmt 1
  98:src/Slab.cpp  ****         this->num_slabs_partial++;
 2198              		.loc 1 98 15 is_stmt 0
 2199 0db0 83B78402 		ld	a5,40(s1)
 2200              	.LVL259:
  98:src/Slab.cpp  ****         this->num_slabs_partial++;
 2201              		.loc 1 98 29
 2202 0db4 9387F7FF 		addi	a5,a5,-1
 2203 0db8 23B4F402 		sd	a5,40(s1)
  99:src/Slab.cpp  **** 
 2204              		.loc 1 99 9 is_stmt 1
  99:src/Slab.cpp  **** 
 2205              		.loc 1 99 15 is_stmt 0
 2206 0dbc 83B70402 		ld	a5,32(s1)
  99:src/Slab.cpp  **** 
 2207              		.loc 1 99 32
 2208 0dc0 93871700 		addi	a5,a5,1
 2209 0dc4 23B0F402 		sd	a5,32(s1)
 101:src/Slab.cpp  ****     }
 2210              		.loc 1 101 9 is_stmt 1
 2211              	.LVL260:
 2212              	.L103:
 2213              	.LBE137:
GAS LISTING /tmp/ccJsZ0pp.s 			page 56


 2214              	.LBE136:
 108:src/Slab.cpp  **** 
 2215              		.loc 1 108 1 is_stmt 0
 2216 0dc8 83308101 		ld	ra,24(sp)
 2217              		.cfi_remember_state
 2218              		.cfi_restore 1
 2219 0dcc 03340101 		ld	s0,16(sp)
 2220              		.cfi_restore 8
 2221              		.cfi_def_cfa 2, 32
 2222 0dd0 83348100 		ld	s1,8(sp)
 2223              		.cfi_restore 9
 2224              	.LVL261:
 2225 0dd4 13010102 		addi	sp,sp,32
 2226              		.cfi_def_cfa_offset 0
 2227 0dd8 67800000 		jr	ra
 2228              	.LVL262:
 2229              	.L109:
 2230              		.cfi_restore_state
 2231              	.LBB140:
 2232              	.LBB129:
  72:src/Slab.cpp  ****         this->num_active_obj++;
 2233              		.loc 1 72 9 is_stmt 1
  72:src/Slab.cpp  ****         this->num_active_obj++;
 2234              		.loc 1 72 85 is_stmt 0
 2235 0ddc 03260503 		lw	a2,48(a0)
 2236 0de0 83258503 		lw	a1,56(a0)
 2237 0de4 03358500 		ld	a0,8(a0)
 2238 0de8 97000000 		call	_ZN4Slab42return_first_free_object_and_rearange_listEii
 2238      E7800000 
 2239              	.LVL263:
  73:src/Slab.cpp  ****         this->slabs_partial->increment_num_of_active();
 2240              		.loc 1 73 9 is_stmt 1
  73:src/Slab.cpp  ****         this->slabs_partial->increment_num_of_active();
 2241              		.loc 1 73 15 is_stmt 0
 2242 0df0 83B78406 		ld	a5,104(s1)
  73:src/Slab.cpp  ****         this->slabs_partial->increment_num_of_active();
 2243              		.loc 1 73 29
 2244 0df4 93871700 		addi	a5,a5,1
 2245 0df8 23B4F406 		sd	a5,104(s1)
  74:src/Slab.cpp  **** 
 2246              		.loc 1 74 9 is_stmt 1
  74:src/Slab.cpp  **** 
 2247              		.loc 1 74 15 is_stmt 0
 2248 0dfc 03B78400 		ld	a4,8(s1)
 2249              	.LVL264:
 2250              	.LBB130:
 2251              	.LBB131:
  16:src/../h/Slab.h ****     void decrement_num_of_active(){num_active--;}
 2252              		.loc 3 16 36 is_stmt 1
 2253 0e00 83370700 		ld	a5,0(a4)
  16:src/../h/Slab.h ****     void decrement_num_of_active(){num_active--;}
 2254              		.loc 3 16 46 is_stmt 0
 2255 0e04 93871700 		addi	a5,a5,1
 2256 0e08 2330F700 		sd	a5,0(a4)
 2257              	.LVL265:
 2258              	.LBE131:
 2259              	.LBE130:
GAS LISTING /tmp/ccJsZ0pp.s 			page 57


  76:src/Slab.cpp  ****             // move from partial to full
 2260              		.loc 1 76 9 is_stmt 1
 2261              	.LBB132:
  76:src/Slab.cpp  ****             // move from partial to full
 2262              		.loc 1 76 18 is_stmt 0
 2263 0e0c 83B78400 		ld	a5,8(s1)
 2264              	.LVL266:
 2265              	.LBB133:
 2266              	.LBB134:
  14:src/../h/Slab.h ****     void* return_first_free_object_and_rearange_list(int, int);
 2267              		.loc 3 14 43 is_stmt 1
  14:src/../h/Slab.h ****     void* return_first_free_object_and_rearange_list(int, int);
 2268              		.loc 3 14 50 is_stmt 0
 2269 0e10 03B70700 		ld	a4,0(a5)
 2270              	.LVL267:
 2271              	.LBE134:
 2272              	.LBE133:
  76:src/Slab.cpp  ****             // move from partial to full
 2273              		.loc 1 76 73
 2274 0e14 83B68403 		ld	a3,56(s1)
  76:src/Slab.cpp  ****             // move from partial to full
 2275              		.loc 1 76 9
 2276 0e18 E398E6FA 		bne	a3,a4,.L103
 2277              	.LBB135:
  78:src/Slab.cpp  ****             tmp->next = this->slabs_full;
 2278              		.loc 1 78 13 is_stmt 1
 2279              	.LVL268:
  79:src/Slab.cpp  ****             this->slabs_partial = this->slabs_partial->next;
 2280              		.loc 1 79 13
  79:src/Slab.cpp  ****             this->slabs_partial = this->slabs_partial->next;
 2281              		.loc 1 79 31 is_stmt 0
 2282 0e1c 03B70400 		ld	a4,0(s1)
  79:src/Slab.cpp  ****             this->slabs_partial = this->slabs_partial->next;
 2283              		.loc 1 79 23
 2284 0e20 23B4E700 		sd	a4,8(a5)
  80:src/Slab.cpp  ****             this->slabs_full = tmp;
 2285              		.loc 1 80 13 is_stmt 1
  80:src/Slab.cpp  ****             this->slabs_full = tmp;
 2286              		.loc 1 80 41 is_stmt 0
 2287 0e24 03B78400 		ld	a4,8(s1)
  80:src/Slab.cpp  ****             this->slabs_full = tmp;
 2288              		.loc 1 80 56
 2289 0e28 03378700 		ld	a4,8(a4)
  80:src/Slab.cpp  ****             this->slabs_full = tmp;
 2290              		.loc 1 80 33
 2291 0e2c 23B4E400 		sd	a4,8(s1)
  81:src/Slab.cpp  ****             this->num_slabs_partial--;
 2292              		.loc 1 81 13 is_stmt 1
  81:src/Slab.cpp  ****             this->num_slabs_partial--;
 2293              		.loc 1 81 30 is_stmt 0
 2294 0e30 23B0F400 		sd	a5,0(s1)
  82:src/Slab.cpp  ****             this->num_slabs_full++;
 2295              		.loc 1 82 13 is_stmt 1
  82:src/Slab.cpp  ****             this->num_slabs_full++;
 2296              		.loc 1 82 19 is_stmt 0
 2297 0e34 83B70402 		ld	a5,32(s1)
 2298              	.LVL269:
GAS LISTING /tmp/ccJsZ0pp.s 			page 58


  82:src/Slab.cpp  ****             this->num_slabs_full++;
 2299              		.loc 1 82 36
 2300 0e38 9387F7FF 		addi	a5,a5,-1
 2301 0e3c 23B0F402 		sd	a5,32(s1)
  83:src/Slab.cpp  ****         }
 2302              		.loc 1 83 13 is_stmt 1
  83:src/Slab.cpp  ****         }
 2303              		.loc 1 83 19 is_stmt 0
 2304 0e40 83B78401 		ld	a5,24(s1)
  83:src/Slab.cpp  ****         }
 2305              		.loc 1 83 33
 2306 0e44 93871700 		addi	a5,a5,1
 2307 0e48 23BCF400 		sd	a5,24(s1)
 2308              	.LBE135:
 2309              	.LBE132:
  85:src/Slab.cpp  ****     }
 2310              		.loc 1 85 9 is_stmt 1
  85:src/Slab.cpp  ****     }
 2311              		.loc 1 85 16 is_stmt 0
 2312 0e4c 6FF0DFF7 		j	.L103
 2313              	.LVL270:
 2314              	.L107:
 2315              	.LBE129:
 2316              	.LBE140:
 105:src/Slab.cpp  ****     this->growing = true;
 2317              		.loc 1 105 5 is_stmt 1
 105:src/Slab.cpp  ****     this->growing = true;
 2318              		.loc 1 105 21 is_stmt 0
 2319 0e50 97000000 		call	_ZN12kmem_cache_s16create_free_slabEv
 2319      E7800000 
 2320              	.LVL271:
 106:src/Slab.cpp  ****     return nullptr;
 2321              		.loc 1 106 5 is_stmt 1
 106:src/Slab.cpp  ****     return nullptr;
 2322              		.loc 1 106 19 is_stmt 0
 2323 0e58 93071000 		li	a5,1
 2324 0e5c 2388F406 		sb	a5,112(s1)
 107:src/Slab.cpp  **** }
 2325              		.loc 1 107 5 is_stmt 1
 107:src/Slab.cpp  **** }
 2326              		.loc 1 107 12 is_stmt 0
 2327 0e60 13050000 		li	a0,0
 2328 0e64 6FF05FF6 		j	.L103
 2329              		.cfi_endproc
 2330              	.LFE48:
 2332              		.align	2
 2333              		.globl	_ZN12kmem_cache_s7kmallocEm
 2335              	_ZN12kmem_cache_s7kmallocEm:
 2336              	.LFB51:
 197:src/Slab.cpp  ****     // kreiraj ime
 2337              		.loc 1 197 42 is_stmt 1
 2338              		.cfi_startproc
 2339              	.LVL272:
 2340 0e68 130101FE 		addi	sp,sp,-32
 2341              		.cfi_def_cfa_offset 32
 2342 0e6c 233C1100 		sd	ra,24(sp)
 2343 0e70 23388100 		sd	s0,16(sp)
GAS LISTING /tmp/ccJsZ0pp.s 			page 59


 2344 0e74 23349100 		sd	s1,8(sp)
 2345 0e78 23302101 		sd	s2,0(sp)
 2346              		.cfi_offset 1, -8
 2347              		.cfi_offset 8, -16
 2348              		.cfi_offset 9, -24
 2349              		.cfi_offset 18, -32
 2350 0e7c 13040102 		addi	s0,sp,32
 2351              		.cfi_def_cfa 8, 0
 2352 0e80 93040500 		mv	s1,a0
 199:src/Slab.cpp  **** 
 2353              		.loc 1 199 5
 199:src/Slab.cpp  **** 
 2354              		.loc 1 199 61 is_stmt 0
 2355 0e84 1B050500 		sext.w	a0,a0
 2356              	.LVL273:
 2357 0e88 97000000 		call	_Z27concatenate_int_to_char_ptri@plt
 2357      E7800000 
 2358              	.LVL274:
 2359 0e90 13090500 		mv	s2,a0
 2360              	.LVL275:
 201:src/Slab.cpp  ****     kmem_cache_s* cache = nullptr;
 2361              		.loc 1 201 5 is_stmt 1
 201:src/Slab.cpp  ****     kmem_cache_s* cache = nullptr;
 2362              		.loc 1 201 45 is_stmt 0
 2363 0e94 97000000 		call	_ZN12kmem_cache_s20check_if_name_existsEPKc
 2363      E7800000 
 2364              	.LVL276:
 202:src/Slab.cpp  ****     if(tmp == nullptr){
 2365              		.loc 1 202 5 is_stmt 1
 203:src/Slab.cpp  ****         // napravi novi
 2366              		.loc 1 203 5
 2367 0e9c 63040502 		beqz	a0,.L115
 202:src/Slab.cpp  ****     if(tmp == nullptr){
 2368              		.loc 1 202 19 is_stmt 0
 2369 0ea0 13050000 		li	a0,0
 2370              	.LVL277:
 2371              	.L111:
 209:src/Slab.cpp  ****     return elem;
 2372              		.loc 1 209 5 is_stmt 1
 209:src/Slab.cpp  ****     return elem;
 2373              		.loc 1 209 41 is_stmt 0
 2374 0ea4 97000000 		call	_ZN12kmem_cache_s16kmem_cache_allocEv
 2374      E7800000 
 2375              	.LVL278:
 210:src/Slab.cpp  **** }
 2376              		.loc 1 210 5 is_stmt 1
 2377              	.L110:
 211:src/Slab.cpp  **** 
 2378              		.loc 1 211 1 is_stmt 0
 2379 0eac 83308101 		ld	ra,24(sp)
 2380              		.cfi_remember_state
 2381              		.cfi_restore 1
 2382 0eb0 03340101 		ld	s0,16(sp)
 2383              		.cfi_restore 8
 2384              		.cfi_def_cfa 2, 32
 2385 0eb4 83348100 		ld	s1,8(sp)
 2386              		.cfi_restore 9
GAS LISTING /tmp/ccJsZ0pp.s 			page 60


 2387              	.LVL279:
 2388 0eb8 03390100 		ld	s2,0(sp)
 2389              		.cfi_restore 18
 2390              	.LVL280:
 2391 0ebc 13010102 		addi	sp,sp,32
 2392              		.cfi_def_cfa_offset 0
 2393 0ec0 67800000 		jr	ra
 2394              	.LVL281:
 2395              	.L115:
 2396              		.cfi_restore_state
 205:src/Slab.cpp  ****         if(!cache)return nullptr;
 2397              		.loc 1 205 9 is_stmt 1
 205:src/Slab.cpp  ****         if(!cache)return nullptr;
 2398              		.loc 1 205 49 is_stmt 0
 2399 0ec4 93060000 		li	a3,0
 2400 0ec8 13060000 		li	a2,0
 2401 0ecc 93850400 		mv	a1,s1
 2402 0ed0 13050900 		mv	a0,s2
 2403              	.LVL282:
 2404 0ed4 97000000 		call	_ZN12kmem_cache_s17kmem_cache_createEPKcmPFvPvES4_
 2404      E7800000 
 2405              	.LVL283:
 206:src/Slab.cpp  ****     }
 2406              		.loc 1 206 9 is_stmt 1
 2407 0edc E31405FC 		bnez	a0,.L111
 2408 0ee0 6FF0DFFC 		j	.L110
 2409              		.cfi_endproc
 2410              	.LFE51:
 2412              		.globl	_ZN12kmem_cache_s4headE
 2413              		.weak	_ZGVZN11BuddySystem11getInstanceEPviE2bs
 2414              		.section	.bss._ZGVZN11BuddySystem11getInstanceEPviE2bs,"awG",@nobits,_ZGVZN11BuddySystem11getInsta
 2415              		.align	3
 2418              	_ZGVZN11BuddySystem11getInstanceEPviE2bs:
 2419 0000 00000000 		.zero	8
 2419      00000000 
 2420              		.weak	_ZZN11BuddySystem11getInstanceEPviE2bs
 2421              		.section	.bss._ZZN11BuddySystem11getInstanceEPviE2bs,"awG",@nobits,_ZZN11BuddySystem11getInstanceE
 2422              		.align	3
 2425              	_ZZN11BuddySystem11getInstanceEPviE2bs:
 2426 0000 00000000 		.zero	344
 2426      00000000 
 2426      00000000 
 2426      00000000 
 2426      00000000 
 2427              		.bss
 2428              		.align	3
 2429              		.set	.LANCHOR0,. + 0
 2432              	_ZN12kmem_cache_s4headE:
 2433 0000 00000000 		.zero	8
 2433      00000000 
 2434              		.text
 2435              	.Letext0:
 2436              		.file 4 "src/../h/../lib/hw.h"
 2437              		.file 5 "src/../test/../h/syscall_c.h"
 2438              		.file 6 "src/../test/printing.hpp"
 2439              		.file 7 "src/../h/../h/String.h"
GAS LISTING /tmp/ccJsZ0pp.s 			page 61


DEFINED SYMBOLS
                            *ABS*:0000000000000000 Slab.cpp
     /tmp/ccJsZ0pp.s:9      .text:0000000000000000 _ZN12kmem_cache_s17kmem_cache_shrinkEv
     /tmp/ccJsZ0pp.s:13     .text:0000000000000000 .L0 
     /tmp/ccJsZ0pp.s:15     .text:0000000000000000 .L0 
     /tmp/ccJsZ0pp.s:16     .text:0000000000000004 .L0 
     /tmp/ccJsZ0pp.s:23     .text:000000000000001c .L0 
     /tmp/ccJsZ0pp.s:24     .text:000000000000001c .L0 
     /tmp/ccJsZ0pp.s:25     .text:000000000000001c .L0 
     /tmp/ccJsZ0pp.s:26     .text:000000000000001c .L0 
     /tmp/ccJsZ0pp.s:27     .text:000000000000001c .L0 
     /tmp/ccJsZ0pp.s:28     .text:000000000000001c .L0 
     /tmp/ccJsZ0pp.s:30     .text:0000000000000020 .L0 
     /tmp/ccJsZ0pp.s:33     .text:0000000000000024 .L0 
     /tmp/ccJsZ0pp.s:34     .text:0000000000000024 .L0 
     /tmp/ccJsZ0pp.s:36     .text:0000000000000028 .L0 
     /tmp/ccJsZ0pp.s:38     .text:000000000000002c .L0 
     /tmp/ccJsZ0pp.s:39     .text:000000000000002c .L0 
     /tmp/ccJsZ0pp.s:42     .text:0000000000000030 .L0 
     /tmp/ccJsZ0pp.s:43     .text:0000000000000030 .L0 
     /tmp/ccJsZ0pp.s:49     .text:0000000000000038 .L0 
     /tmp/ccJsZ0pp.s:50     .text:0000000000000038 .L0 
     /tmp/ccJsZ0pp.s:52     .text:000000000000003c .L0 
     /tmp/ccJsZ0pp.s:53     .text:000000000000003c .L0 
     /tmp/ccJsZ0pp.s:2425   .bss._ZZN11BuddySystem11getInstanceEPviE2bs:0000000000000000 _ZZN11BuddySystem11getInstanceEPviE2bs
     /tmp/ccJsZ0pp.s:62     .text:0000000000000044 .L0 
     /tmp/ccJsZ0pp.s:2418   .bss._ZGVZN11BuddySystem11getInstanceEPviE2bs:0000000000000000 _ZGVZN11BuddySystem11getInstanceEPviE2bs
     /tmp/ccJsZ0pp.s:69     .text:0000000000000060 .L0 
     /tmp/ccJsZ0pp.s:73     .text:0000000000000060 .L0 
     /tmp/ccJsZ0pp.s:74     .text:0000000000000060 .L0 
     /tmp/ccJsZ0pp.s:79     .text:0000000000000074 .L0 
     /tmp/ccJsZ0pp.s:83     .text:0000000000000078 .L0 
     /tmp/ccJsZ0pp.s:84     .text:0000000000000078 .L0 
     /tmp/ccJsZ0pp.s:87     .text:000000000000007c .L0 
     /tmp/ccJsZ0pp.s:88     .text:000000000000007c .L0 
     /tmp/ccJsZ0pp.s:89     .text:000000000000007c .L0 
     /tmp/ccJsZ0pp.s:94     .text:0000000000000080 .L0 
     /tmp/ccJsZ0pp.s:95     .text:0000000000000080 .L0 
     /tmp/ccJsZ0pp.s:96     .text:0000000000000080 .L0 
     /tmp/ccJsZ0pp.s:104    .text:0000000000000090 .L0 
     /tmp/ccJsZ0pp.s:105    .text:0000000000000090 .L0 
     /tmp/ccJsZ0pp.s:107    .text:0000000000000094 .L0 
     /tmp/ccJsZ0pp.s:108    .text:0000000000000094 .L0 
     /tmp/ccJsZ0pp.s:110    .text:0000000000000098 .L0 
     /tmp/ccJsZ0pp.s:111    .text:0000000000000098 .L0 
     /tmp/ccJsZ0pp.s:113    .text:000000000000009c .L0 
     /tmp/ccJsZ0pp.s:114    .text:000000000000009c .L0 
     /tmp/ccJsZ0pp.s:116    .text:00000000000000a0 .L0 
     /tmp/ccJsZ0pp.s:119    .text:00000000000000a8 .L0 
     /tmp/ccJsZ0pp.s:120    .text:00000000000000a8 .L0 
     /tmp/ccJsZ0pp.s:125    .text:00000000000000b0 .L0 
     /tmp/ccJsZ0pp.s:126    .text:00000000000000b4 .L0 
     /tmp/ccJsZ0pp.s:128    .text:00000000000000b8 .L0 
     /tmp/ccJsZ0pp.s:129    .text:00000000000000b8 .L0 
     /tmp/ccJsZ0pp.s:131    .text:00000000000000bc .L0 
     /tmp/ccJsZ0pp.s:133    .text:00000000000000c0 .L0 
     /tmp/ccJsZ0pp.s:135    .text:00000000000000c4 .L0 
GAS LISTING /tmp/ccJsZ0pp.s 			page 62


     /tmp/ccJsZ0pp.s:138    .text:00000000000000c8 .L0 
     /tmp/ccJsZ0pp.s:140    .text:00000000000000cc .L0 
     /tmp/ccJsZ0pp.s:142    .text:00000000000000d0 .L0 
     /tmp/ccJsZ0pp.s:148    .text:00000000000000d0 _ZN12kmem_cache_s16create_free_slabEv
     /tmp/ccJsZ0pp.s:151    .text:00000000000000d0 .L0 
     /tmp/ccJsZ0pp.s:153    .text:00000000000000d0 .L0 
     /tmp/ccJsZ0pp.s:154    .text:00000000000000d4 .L0 
     /tmp/ccJsZ0pp.s:161    .text:00000000000000ec .L0 
     /tmp/ccJsZ0pp.s:162    .text:00000000000000ec .L0 
     /tmp/ccJsZ0pp.s:163    .text:00000000000000ec .L0 
     /tmp/ccJsZ0pp.s:164    .text:00000000000000ec .L0 
     /tmp/ccJsZ0pp.s:165    .text:00000000000000ec .L0 
     /tmp/ccJsZ0pp.s:166    .text:00000000000000ec .L0 
     /tmp/ccJsZ0pp.s:168    .text:00000000000000f0 .L0 
     /tmp/ccJsZ0pp.s:174    .text:00000000000000f4 .L0 
     /tmp/ccJsZ0pp.s:175    .text:00000000000000f4 .L0 
     /tmp/ccJsZ0pp.s:176    .text:00000000000000f4 .L0 
     /tmp/ccJsZ0pp.s:181    .text:0000000000000100 .L0 
     /tmp/ccJsZ0pp.s:184    .text:0000000000000100 .L0 
     /tmp/ccJsZ0pp.s:185    .text:0000000000000100 .L0 
     /tmp/ccJsZ0pp.s:187    .text:0000000000000104 .L0 
     /tmp/ccJsZ0pp.s:189    .text:0000000000000108 .L0 
     /tmp/ccJsZ0pp.s:191    .text:000000000000010c .L0 
     /tmp/ccJsZ0pp.s:198    .text:0000000000000124 .L0 
     /tmp/ccJsZ0pp.s:199    .text:0000000000000124 .L0 
     /tmp/ccJsZ0pp.s:201    .text:0000000000000128 .L0 
     /tmp/ccJsZ0pp.s:202    .text:0000000000000128 .L0 
     /tmp/ccJsZ0pp.s:204    .text:000000000000012c .L0 
     /tmp/ccJsZ0pp.s:205    .text:000000000000012c .L0 
     /tmp/ccJsZ0pp.s:207    .text:0000000000000130 .L0 
     /tmp/ccJsZ0pp.s:208    .text:0000000000000130 .L0 
     /tmp/ccJsZ0pp.s:210    .text:0000000000000134 .L0 
     /tmp/ccJsZ0pp.s:212    .text:0000000000000138 .L0 
     /tmp/ccJsZ0pp.s:213    .text:0000000000000138 .L0 
     /tmp/ccJsZ0pp.s:216    .text:000000000000013c .L0 
     /tmp/ccJsZ0pp.s:224    .text:000000000000014c .L0 
     /tmp/ccJsZ0pp.s:225    .text:000000000000014c .L0 
     /tmp/ccJsZ0pp.s:229    .text:0000000000000150 .L0 
     /tmp/ccJsZ0pp.s:230    .text:0000000000000150 .L0 
     /tmp/ccJsZ0pp.s:232    .text:0000000000000154 .L0 
     /tmp/ccJsZ0pp.s:234    .text:0000000000000158 .L0 
     /tmp/ccJsZ0pp.s:235    .text:0000000000000158 .L0 
     /tmp/ccJsZ0pp.s:238    .text:0000000000000160 .L0 
     /tmp/ccJsZ0pp.s:247    .text:0000000000000168 .L0 
     /tmp/ccJsZ0pp.s:258    .text:0000000000000188 .L0 
     /tmp/ccJsZ0pp.s:259    .text:0000000000000188 .L0 
     /tmp/ccJsZ0pp.s:262    .text:000000000000018c .L0 
     /tmp/ccJsZ0pp.s:263    .text:000000000000018c .L0 
     /tmp/ccJsZ0pp.s:266    .text:0000000000000190 .L0 
     /tmp/ccJsZ0pp.s:272    .text:0000000000000194 .L0 
     /tmp/ccJsZ0pp.s:273    .text:0000000000000194 .L0 
     /tmp/ccJsZ0pp.s:276    .text:0000000000000198 .L0 
     /tmp/ccJsZ0pp.s:280    .text:000000000000019c .L0 
     /tmp/ccJsZ0pp.s:281    .text:000000000000019c .L0 
     /tmp/ccJsZ0pp.s:283    .text:00000000000001a0 .L0 
     /tmp/ccJsZ0pp.s:285    .text:00000000000001a4 .L0 
     /tmp/ccJsZ0pp.s:286    .text:00000000000001a4 .L0 
GAS LISTING /tmp/ccJsZ0pp.s 			page 63


     /tmp/ccJsZ0pp.s:288    .text:00000000000001a8 .L0 
     /tmp/ccJsZ0pp.s:292    .text:00000000000001b0 .L0 
     /tmp/ccJsZ0pp.s:295    .text:00000000000001b4 .L0 
     /tmp/ccJsZ0pp.s:297    .text:00000000000001b8 .L0 
     /tmp/ccJsZ0pp.s:300    .text:00000000000001bc .L0 
     /tmp/ccJsZ0pp.s:306    .text:00000000000001c0 .L0 
     /tmp/ccJsZ0pp.s:307    .text:00000000000001c0 .L0 
     /tmp/ccJsZ0pp.s:309    .text:00000000000001c4 .L0 
     /tmp/ccJsZ0pp.s:310    .text:00000000000001c4 .L0 
     /tmp/ccJsZ0pp.s:312    .text:00000000000001c8 .L0 
     /tmp/ccJsZ0pp.s:315    .text:00000000000001d0 .L0 
     /tmp/ccJsZ0pp.s:316    .text:00000000000001d4 .L0 
     /tmp/ccJsZ0pp.s:319    .text:00000000000001d8 .L0 
     /tmp/ccJsZ0pp.s:321    .text:00000000000001dc .L0 
     /tmp/ccJsZ0pp.s:323    .text:00000000000001e0 .L0 
     /tmp/ccJsZ0pp.s:326    .text:00000000000001e4 .L0 
     /tmp/ccJsZ0pp.s:328    .text:00000000000001e8 .L0 
     /tmp/ccJsZ0pp.s:330    .text:00000000000001ec .L0 
     /tmp/ccJsZ0pp.s:333    .text:00000000000001f0 .L0 
     /tmp/ccJsZ0pp.s:335    .text:00000000000001f4 .L0 
     /tmp/ccJsZ0pp.s:341    .text:00000000000001f4 _ZN12kmem_cache_s17kmem_cache_createEPKcmPFvPvES4_
     /tmp/ccJsZ0pp.s:344    .text:00000000000001f4 .L0 
     /tmp/ccJsZ0pp.s:346    .text:00000000000001f4 .L0 
     /tmp/ccJsZ0pp.s:347    .text:00000000000001f8 .L0 
     /tmp/ccJsZ0pp.s:355    .text:0000000000000214 .L0 
     /tmp/ccJsZ0pp.s:356    .text:0000000000000214 .L0 
     /tmp/ccJsZ0pp.s:357    .text:0000000000000214 .L0 
     /tmp/ccJsZ0pp.s:358    .text:0000000000000214 .L0 
     /tmp/ccJsZ0pp.s:359    .text:0000000000000214 .L0 
     /tmp/ccJsZ0pp.s:360    .text:0000000000000214 .L0 
     /tmp/ccJsZ0pp.s:361    .text:0000000000000214 .L0 
     /tmp/ccJsZ0pp.s:363    .text:0000000000000218 .L0 
     /tmp/ccJsZ0pp.s:370    .text:0000000000000228 .L0 
     /tmp/ccJsZ0pp.s:371    .text:0000000000000228 .L0 
     /tmp/ccJsZ0pp.s:375    .text:0000000000000230 .L0 
     /tmp/ccJsZ0pp.s:377    .text:0000000000000234 .L0 
     /tmp/ccJsZ0pp.s:378    .text:0000000000000234 .L0 
     /tmp/ccJsZ0pp.s:380    .text:0000000000000238 .L0 
     /tmp/ccJsZ0pp.s:382    .text:000000000000023c .L0 
     /tmp/ccJsZ0pp.s:383    .text:000000000000023c .L0 
     /tmp/ccJsZ0pp.s:386    .text:0000000000000240 .L0 
     /tmp/ccJsZ0pp.s:393    .text:0000000000000244 .L0 
     /tmp/ccJsZ0pp.s:394    .text:0000000000000244 .L0 
     /tmp/ccJsZ0pp.s:395    .text:0000000000000244 .L0 
     /tmp/ccJsZ0pp.s:401    .text:0000000000000250 .L0 
     /tmp/ccJsZ0pp.s:404    .text:0000000000000250 .L0 
     /tmp/ccJsZ0pp.s:405    .text:0000000000000250 .L0 
     /tmp/ccJsZ0pp.s:413    .text:000000000000026c .L0 
     /tmp/ccJsZ0pp.s:414    .text:000000000000026c .L0 
     /tmp/ccJsZ0pp.s:416    .text:0000000000000270 .L0 
     /tmp/ccJsZ0pp.s:417    .text:0000000000000270 .L0 
     /tmp/ccJsZ0pp.s:419    .text:0000000000000274 .L0 
     /tmp/ccJsZ0pp.s:420    .text:0000000000000274 .L0 
     /tmp/ccJsZ0pp.s:422    .text:0000000000000278 .L0 
     /tmp/ccJsZ0pp.s:423    .text:0000000000000278 .L0 
     /tmp/ccJsZ0pp.s:425    .text:000000000000027c .L0 
     /tmp/ccJsZ0pp.s:426    .text:000000000000027c .L0 
GAS LISTING /tmp/ccJsZ0pp.s 			page 64


     /tmp/ccJsZ0pp.s:428    .text:0000000000000280 .L0 
     /tmp/ccJsZ0pp.s:430    .text:0000000000000284 .L0 
     /tmp/ccJsZ0pp.s:432    .text:0000000000000288 .L0 
     /tmp/ccJsZ0pp.s:433    .text:0000000000000288 .L0 
     /tmp/ccJsZ0pp.s:435    .text:000000000000028c .L0 
     /tmp/ccJsZ0pp.s:437    .text:0000000000000290 .L0 
     /tmp/ccJsZ0pp.s:439    .text:0000000000000294 .L0 
     /tmp/ccJsZ0pp.s:441    .text:0000000000000298 .L0 
     /tmp/ccJsZ0pp.s:443    .text:000000000000029c .L0 
     /tmp/ccJsZ0pp.s:444    .text:000000000000029c .L0 
     /tmp/ccJsZ0pp.s:446    .text:00000000000002a0 .L0 
     /tmp/ccJsZ0pp.s:447    .text:00000000000002a0 .L0 
     /tmp/ccJsZ0pp.s:451    .text:00000000000002a8 .L0 
     /tmp/ccJsZ0pp.s:452    .text:00000000000002a8 .L0 
     /tmp/ccJsZ0pp.s:453    .text:00000000000002a8 .L0 
     /tmp/ccJsZ0pp.s:455    .text:00000000000002ac .L0 
     /tmp/ccJsZ0pp.s:457    .text:00000000000002b0 .L0 
     /tmp/ccJsZ0pp.s:461    .text:00000000000002bc .L0 
     /tmp/ccJsZ0pp.s:463    .text:00000000000002c0 .L0 
     /tmp/ccJsZ0pp.s:465    .text:00000000000002c4 .L0 
     /tmp/ccJsZ0pp.s:466    .text:00000000000002c4 .L0 
     /tmp/ccJsZ0pp.s:469    .text:00000000000002cc .L0 
     /tmp/ccJsZ0pp.s:475    .text:00000000000002d0 .L0 
     /tmp/ccJsZ0pp.s:487    .text:00000000000002f0 .L0 
     /tmp/ccJsZ0pp.s:488    .text:00000000000002f0 .L0 
     /tmp/ccJsZ0pp.s:491    .text:00000000000002f8 .L0 
     /tmp/ccJsZ0pp.s:494    .text:00000000000002fc .L0 
     /tmp/ccJsZ0pp.s:495    .text:00000000000002fc .L0 
     /tmp/ccJsZ0pp.s:497    .text:0000000000000300 .L0 
     /tmp/ccJsZ0pp.s:498    .text:0000000000000300 .L0 
     /tmp/ccJsZ0pp.s:502    .text:000000000000030c .L0 
     /tmp/ccJsZ0pp.s:503    .text:000000000000030c .L0 
     /tmp/ccJsZ0pp.s:507    .text:000000000000031c .L0 
     /tmp/ccJsZ0pp.s:508    .text:000000000000031c .L0 
     /tmp/ccJsZ0pp.s:512    .text:0000000000000320 .L0 
     /tmp/ccJsZ0pp.s:513    .text:0000000000000320 .L0 
     /tmp/ccJsZ0pp.s:515    .text:0000000000000328 .L0 
     /tmp/ccJsZ0pp.s:516    .text:0000000000000328 .L0 
     /tmp/ccJsZ0pp.s:518    .text:000000000000032c .L0 
     /tmp/ccJsZ0pp.s:519    .text:000000000000032c .L0 
     /tmp/ccJsZ0pp.s:521    .text:0000000000000330 .L0 
     /tmp/ccJsZ0pp.s:523    .text:0000000000000334 .L0 
     /tmp/ccJsZ0pp.s:526    .text:0000000000000338 .L0 
     /tmp/ccJsZ0pp.s:529    .text:000000000000033c .L0 
     /tmp/ccJsZ0pp.s:532    .text:0000000000000340 .L0 
     /tmp/ccJsZ0pp.s:535    .text:0000000000000344 .L0 
     /tmp/ccJsZ0pp.s:539    .text:0000000000000348 .L0 
     /tmp/ccJsZ0pp.s:542    .text:0000000000000348 .L0 
     /tmp/ccJsZ0pp.s:545    .text:0000000000000350 .L0 
     /tmp/ccJsZ0pp.s:551    .text:0000000000000350 _ZN12kmem_cache_s15kmem_cache_freeEPv
     /tmp/ccJsZ0pp.s:554    .text:0000000000000350 .L0 
     /tmp/ccJsZ0pp.s:556    .text:0000000000000350 .L0 
     /tmp/ccJsZ0pp.s:557    .text:0000000000000354 .L0 
     /tmp/ccJsZ0pp.s:564    .text:000000000000036c .L0 
     /tmp/ccJsZ0pp.s:565    .text:000000000000036c .L0 
     /tmp/ccJsZ0pp.s:566    .text:000000000000036c .L0 
     /tmp/ccJsZ0pp.s:567    .text:000000000000036c .L0 
GAS LISTING /tmp/ccJsZ0pp.s 			page 65


     /tmp/ccJsZ0pp.s:568    .text:000000000000036c .L0 
     /tmp/ccJsZ0pp.s:569    .text:000000000000036c .L0 
     /tmp/ccJsZ0pp.s:571    .text:0000000000000370 .L0 
     /tmp/ccJsZ0pp.s:576    .text:0000000000000378 .L0 
     /tmp/ccJsZ0pp.s:578    .text:0000000000000378 .L0 
     /tmp/ccJsZ0pp.s:579    .text:0000000000000378 .L0 
     /tmp/ccJsZ0pp.s:583    .text:000000000000037c .L0 
     /tmp/ccJsZ0pp.s:592    .text:0000000000000384 .L0 
     /tmp/ccJsZ0pp.s:593    .text:0000000000000384 .L0 
     /tmp/ccJsZ0pp.s:596    .text:0000000000000388 .L0 
     /tmp/ccJsZ0pp.s:605    .text:0000000000000390 .L0 
     /tmp/ccJsZ0pp.s:607    .text:0000000000000390 .L0 
     /tmp/ccJsZ0pp.s:608    .text:0000000000000390 .L0 
     /tmp/ccJsZ0pp.s:611    .text:0000000000000394 .L0 
     /tmp/ccJsZ0pp.s:615    .text:0000000000000398 .L0 
     /tmp/ccJsZ0pp.s:619    .text:000000000000039c .L0 
     /tmp/ccJsZ0pp.s:621    .text:00000000000003a0 .L0 
     /tmp/ccJsZ0pp.s:623    .text:00000000000003a4 .L0 
     /tmp/ccJsZ0pp.s:625    .text:00000000000003a8 .L0 
     /tmp/ccJsZ0pp.s:627    .text:00000000000003ac .L0 
     /tmp/ccJsZ0pp.s:629    .text:00000000000003b0 .L0 
     /tmp/ccJsZ0pp.s:632    .text:00000000000003b4 .L0 
     /tmp/ccJsZ0pp.s:633    .text:00000000000003b4 .L0 
     /tmp/ccJsZ0pp.s:635    .text:00000000000003b8 .L0 
     /tmp/ccJsZ0pp.s:637    .text:00000000000003bc .L0 
     /tmp/ccJsZ0pp.s:639    .text:00000000000003c0 .L0 
     /tmp/ccJsZ0pp.s:642    .text:00000000000003c4 .L0 
     /tmp/ccJsZ0pp.s:643    .text:00000000000003c4 .L0 
     /tmp/ccJsZ0pp.s:645    .text:00000000000003c8 .L0 
     /tmp/ccJsZ0pp.s:648    .text:00000000000003cc .L0 
     /tmp/ccJsZ0pp.s:651    .text:00000000000003d0 .L0 
     /tmp/ccJsZ0pp.s:652    .text:00000000000003d0 .L0 
     /tmp/ccJsZ0pp.s:654    .text:00000000000003d4 .L0 
     /tmp/ccJsZ0pp.s:656    .text:00000000000003d8 .L0 
     /tmp/ccJsZ0pp.s:657    .text:00000000000003d8 .L0 
     /tmp/ccJsZ0pp.s:663    .text:00000000000003e0 .L0 
     /tmp/ccJsZ0pp.s:664    .text:00000000000003e0 .L0 
     /tmp/ccJsZ0pp.s:666    .text:00000000000003e4 .L0 
     /tmp/ccJsZ0pp.s:668    .text:00000000000003e8 .L0 
     /tmp/ccJsZ0pp.s:669    .text:00000000000003e8 .L0 
     /tmp/ccJsZ0pp.s:674    .text:00000000000003f0 .L0 
     /tmp/ccJsZ0pp.s:675    .text:00000000000003f0 .L0 
     /tmp/ccJsZ0pp.s:677    .text:00000000000003f4 .L0 
     /tmp/ccJsZ0pp.s:684    .text:00000000000003fc .L0 
     /tmp/ccJsZ0pp.s:685    .text:00000000000003fc .L0 
     /tmp/ccJsZ0pp.s:687    .text:0000000000000400 .L0 
     /tmp/ccJsZ0pp.s:697    .text:0000000000000408 .L0 
     /tmp/ccJsZ0pp.s:702    .text:0000000000000408 .L0 
     /tmp/ccJsZ0pp.s:703    .text:0000000000000408 .L0 
     /tmp/ccJsZ0pp.s:705    .text:000000000000040c .L0 
     /tmp/ccJsZ0pp.s:707    .text:0000000000000410 .L0 
     /tmp/ccJsZ0pp.s:708    .text:0000000000000410 .L0 
     /tmp/ccJsZ0pp.s:711    .text:0000000000000414 .L0 
     /tmp/ccJsZ0pp.s:715    .text:0000000000000418 .L0 
     /tmp/ccJsZ0pp.s:716    .text:0000000000000418 .L0 
     /tmp/ccJsZ0pp.s:718    .text:000000000000041c .L0 
     /tmp/ccJsZ0pp.s:720    .text:0000000000000420 .L0 
GAS LISTING /tmp/ccJsZ0pp.s 			page 66


     /tmp/ccJsZ0pp.s:721    .text:0000000000000420 .L0 
     /tmp/ccJsZ0pp.s:723    .text:0000000000000424 .L0 
     /tmp/ccJsZ0pp.s:724    .text:0000000000000424 .L0 
     /tmp/ccJsZ0pp.s:726    .text:0000000000000428 .L0 
     /tmp/ccJsZ0pp.s:729    .text:0000000000000430 .L0 
     /tmp/ccJsZ0pp.s:730    .text:0000000000000430 .L0 
     /tmp/ccJsZ0pp.s:732    .text:0000000000000434 .L0 
     /tmp/ccJsZ0pp.s:736    .text:000000000000043c .L0 
     /tmp/ccJsZ0pp.s:737    .text:000000000000043c .L0 
     /tmp/ccJsZ0pp.s:746    .text:0000000000000444 .L0 
     /tmp/ccJsZ0pp.s:748    .text:0000000000000444 .L0 
     /tmp/ccJsZ0pp.s:749    .text:0000000000000444 .L0 
     /tmp/ccJsZ0pp.s:758    .text:000000000000044c .L0 
     /tmp/ccJsZ0pp.s:759    .text:000000000000044c .L0 
     /tmp/ccJsZ0pp.s:761    .text:0000000000000450 .L0 
     /tmp/ccJsZ0pp.s:769    .text:0000000000000458 .L0 
     /tmp/ccJsZ0pp.s:771    .text:0000000000000458 .L0 
     /tmp/ccJsZ0pp.s:772    .text:0000000000000458 .L0 
     /tmp/ccJsZ0pp.s:775    .text:000000000000045c .L0 
     /tmp/ccJsZ0pp.s:779    .text:0000000000000460 .L0 
     /tmp/ccJsZ0pp.s:783    .text:0000000000000464 .L0 
     /tmp/ccJsZ0pp.s:785    .text:0000000000000468 .L0 
     /tmp/ccJsZ0pp.s:787    .text:000000000000046c .L0 
     /tmp/ccJsZ0pp.s:789    .text:0000000000000470 .L0 
     /tmp/ccJsZ0pp.s:791    .text:0000000000000474 .L0 
     /tmp/ccJsZ0pp.s:793    .text:0000000000000478 .L0 
     /tmp/ccJsZ0pp.s:796    .text:000000000000047c .L0 
     /tmp/ccJsZ0pp.s:797    .text:000000000000047c .L0 
     /tmp/ccJsZ0pp.s:799    .text:0000000000000480 .L0 
     /tmp/ccJsZ0pp.s:801    .text:0000000000000484 .L0 
     /tmp/ccJsZ0pp.s:803    .text:0000000000000488 .L0 
     /tmp/ccJsZ0pp.s:806    .text:000000000000048c .L0 
     /tmp/ccJsZ0pp.s:807    .text:000000000000048c .L0 
     /tmp/ccJsZ0pp.s:809    .text:0000000000000490 .L0 
     /tmp/ccJsZ0pp.s:812    .text:0000000000000494 .L0 
     /tmp/ccJsZ0pp.s:815    .text:0000000000000498 .L0 
     /tmp/ccJsZ0pp.s:816    .text:0000000000000498 .L0 
     /tmp/ccJsZ0pp.s:818    .text:000000000000049c .L0 
     /tmp/ccJsZ0pp.s:820    .text:00000000000004a0 .L0 
     /tmp/ccJsZ0pp.s:821    .text:00000000000004a0 .L0 
     /tmp/ccJsZ0pp.s:827    .text:00000000000004a8 .L0 
     /tmp/ccJsZ0pp.s:828    .text:00000000000004a8 .L0 
     /tmp/ccJsZ0pp.s:830    .text:00000000000004ac .L0 
     /tmp/ccJsZ0pp.s:832    .text:00000000000004b0 .L0 
     /tmp/ccJsZ0pp.s:833    .text:00000000000004b0 .L0 
     /tmp/ccJsZ0pp.s:838    .text:00000000000004b8 .L0 
     /tmp/ccJsZ0pp.s:839    .text:00000000000004b8 .L0 
     /tmp/ccJsZ0pp.s:841    .text:00000000000004bc .L0 
     /tmp/ccJsZ0pp.s:847    .text:00000000000004c4 .L0 
     /tmp/ccJsZ0pp.s:848    .text:00000000000004c4 .L0 
     /tmp/ccJsZ0pp.s:850    .text:00000000000004c8 .L0 
     /tmp/ccJsZ0pp.s:856    .text:00000000000004d0 .L0 
     /tmp/ccJsZ0pp.s:858    .text:00000000000004d4 .L0 
     /tmp/ccJsZ0pp.s:859    .text:00000000000004d4 .L0 
     /tmp/ccJsZ0pp.s:861    .text:00000000000004d8 .L0 
     /tmp/ccJsZ0pp.s:864    .text:00000000000004dc .L0 
     /tmp/ccJsZ0pp.s:865    .text:00000000000004dc .L0 
GAS LISTING /tmp/ccJsZ0pp.s 			page 67


     /tmp/ccJsZ0pp.s:867    .text:00000000000004e0 .L0 
     /tmp/ccJsZ0pp.s:869    .text:00000000000004e4 .L0 
     /tmp/ccJsZ0pp.s:870    .text:00000000000004e4 .L0 
     /tmp/ccJsZ0pp.s:872    .text:00000000000004e8 .L0 
     /tmp/ccJsZ0pp.s:873    .text:00000000000004e8 .L0 
     /tmp/ccJsZ0pp.s:875    .text:00000000000004ec .L0 
     /tmp/ccJsZ0pp.s:878    .text:00000000000004f4 .L0 
     /tmp/ccJsZ0pp.s:879    .text:00000000000004f4 .L0 
     /tmp/ccJsZ0pp.s:881    .text:00000000000004f8 .L0 
     /tmp/ccJsZ0pp.s:884    .text:0000000000000500 .L0 
     /tmp/ccJsZ0pp.s:885    .text:0000000000000500 .L0 
     /tmp/ccJsZ0pp.s:894    .text:0000000000000508 .L0 
     /tmp/ccJsZ0pp.s:898    .text:000000000000050c .L0 
     /tmp/ccJsZ0pp.s:899    .text:0000000000000510 .L0 
     /tmp/ccJsZ0pp.s:901    .text:0000000000000514 .L0 
     /tmp/ccJsZ0pp.s:902    .text:0000000000000514 .L0 
     /tmp/ccJsZ0pp.s:904    .text:0000000000000518 .L0 
     /tmp/ccJsZ0pp.s:906    .text:000000000000051c .L0 
     /tmp/ccJsZ0pp.s:908    .text:0000000000000520 .L0 
     /tmp/ccJsZ0pp.s:911    .text:0000000000000524 .L0 
     /tmp/ccJsZ0pp.s:914    .text:0000000000000528 .L0 
     /tmp/ccJsZ0pp.s:916    .text:000000000000052c .L0 
     /tmp/ccJsZ0pp.s:922    .text:000000000000052c _ZN12kmem_cache_s20check_if_name_existsEPKc
     /tmp/ccJsZ0pp.s:925    .text:000000000000052c .L0 
     /tmp/ccJsZ0pp.s:927    .text:000000000000052c .L0 
     /tmp/ccJsZ0pp.s:928    .text:0000000000000530 .L0 
     /tmp/ccJsZ0pp.s:933    .text:0000000000000540 .L0 
     /tmp/ccJsZ0pp.s:934    .text:0000000000000540 .L0 
     /tmp/ccJsZ0pp.s:935    .text:0000000000000540 .L0 
     /tmp/ccJsZ0pp.s:936    .text:0000000000000540 .L0 
     /tmp/ccJsZ0pp.s:938    .text:0000000000000544 .L0 
     /tmp/ccJsZ0pp.s:942    .text:0000000000000548 .L0 
     /tmp/ccJsZ0pp.s:943    .text:0000000000000548 .L0 
     /tmp/ccJsZ0pp.s:947    .text:0000000000000550 .L0 
     /tmp/ccJsZ0pp.s:949    .text:0000000000000554 .L0 
     /tmp/ccJsZ0pp.s:950    .text:0000000000000554 .L0 
     /tmp/ccJsZ0pp.s:955    .text:0000000000000564 .L0 
     /tmp/ccJsZ0pp.s:957    .text:0000000000000568 .L0 
     /tmp/ccJsZ0pp.s:958    .text:0000000000000568 .L0 
     /tmp/ccJsZ0pp.s:961    .text:000000000000056c .L0 
     /tmp/ccJsZ0pp.s:965    .text:0000000000000570 .L0 
     /tmp/ccJsZ0pp.s:967    .text:0000000000000578 .L0 
     /tmp/ccJsZ0pp.s:969    .text:000000000000057c .L0 
     /tmp/ccJsZ0pp.s:970    .text:000000000000057c .L0 
     /tmp/ccJsZ0pp.s:972    .text:0000000000000580 .L0 
     /tmp/ccJsZ0pp.s:975    .text:0000000000000584 .L0 
     /tmp/ccJsZ0pp.s:978    .text:0000000000000588 .L0 
     /tmp/ccJsZ0pp.s:980    .text:000000000000058c .L0 
     /tmp/ccJsZ0pp.s:986    .text:000000000000058c _ZN12kmem_cache_s3powEm
     /tmp/ccJsZ0pp.s:989    .text:000000000000058c .L0 
     /tmp/ccJsZ0pp.s:991    .text:000000000000058c .L0 
     /tmp/ccJsZ0pp.s:992    .text:0000000000000590 .L0 
     /tmp/ccJsZ0pp.s:994    .text:0000000000000594 .L0 
     /tmp/ccJsZ0pp.s:996    .text:0000000000000598 .L0 
     /tmp/ccJsZ0pp.s:1000   .text:000000000000059c .L0 
     /tmp/ccJsZ0pp.s:1002   .text:000000000000059c .L0 
     /tmp/ccJsZ0pp.s:1003   .text:000000000000059c .L0 
GAS LISTING /tmp/ccJsZ0pp.s 			page 68


     /tmp/ccJsZ0pp.s:1006   .text:00000000000005a0 .L0 
     /tmp/ccJsZ0pp.s:1011   .text:00000000000005a4 .L0 
     /tmp/ccJsZ0pp.s:1013   .text:00000000000005a8 .L0 
     /tmp/ccJsZ0pp.s:1014   .text:00000000000005a8 .L0 
     /tmp/ccJsZ0pp.s:1017   .text:00000000000005ac .L0 
     /tmp/ccJsZ0pp.s:1023   .text:00000000000005b4 .L0 
     /tmp/ccJsZ0pp.s:1024   .text:00000000000005b8 .L0 
     /tmp/ccJsZ0pp.s:1025   .text:00000000000005b8 .L0 
     /tmp/ccJsZ0pp.s:1027   .text:00000000000005bc .L0 
     /tmp/ccJsZ0pp.s:1029   .text:00000000000005c0 .L0 
     /tmp/ccJsZ0pp.s:1035   .text:00000000000005c0 _ZN12kmem_cache_s28is_small_buffer_size_correctEm
     /tmp/ccJsZ0pp.s:1038   .text:00000000000005c0 .L0 
     /tmp/ccJsZ0pp.s:1040   .text:00000000000005c0 .L0 
     /tmp/ccJsZ0pp.s:1041   .text:00000000000005c4 .L0 
     /tmp/ccJsZ0pp.s:1043   .text:00000000000005c8 .L0 
     /tmp/ccJsZ0pp.s:1045   .text:00000000000005cc .L0 
     /tmp/ccJsZ0pp.s:1048   .text:00000000000005cc .L0 
     /tmp/ccJsZ0pp.s:1049   .text:00000000000005cc .L0 
     /tmp/ccJsZ0pp.s:1050   .text:00000000000005cc .L0 
     /tmp/ccJsZ0pp.s:1052   .text:00000000000005d0 .L0 
     /tmp/ccJsZ0pp.s:1057   .text:00000000000005d8 .L0 
     /tmp/ccJsZ0pp.s:1061   .text:00000000000005dc .L0 
     /tmp/ccJsZ0pp.s:1062   .text:00000000000005dc .L0 
     /tmp/ccJsZ0pp.s:1064   .text:00000000000005e0 .L0 
     /tmp/ccJsZ0pp.s:1065   .text:00000000000005e0 .L0 
     /tmp/ccJsZ0pp.s:1068   .text:00000000000005e4 .L0 
     /tmp/ccJsZ0pp.s:1069   .text:00000000000005e4 .L0 
     /tmp/ccJsZ0pp.s:1072   .text:00000000000005e8 .L0 
     /tmp/ccJsZ0pp.s:1074   .text:00000000000005ec .L0 
     /tmp/ccJsZ0pp.s:1075   .text:00000000000005ec .L0 
     /tmp/ccJsZ0pp.s:1077   .text:00000000000005f0 .L0 
     /tmp/ccJsZ0pp.s:1081   .text:00000000000005f8 .L0 
     /tmp/ccJsZ0pp.s:1087   .text:0000000000000600 .L0 
     /tmp/ccJsZ0pp.s:1091   .text:0000000000000604 .L0 
     /tmp/ccJsZ0pp.s:1092   .text:0000000000000608 .L0 
     /tmp/ccJsZ0pp.s:1093   .text:0000000000000608 .L0 
     /tmp/ccJsZ0pp.s:1094   .text:0000000000000608 .L0 
     /tmp/ccJsZ0pp.s:1096   .text:000000000000060c .L0 
     /tmp/ccJsZ0pp.s:1100   .text:0000000000000610 .L0 
     /tmp/ccJsZ0pp.s:1102   .text:0000000000000610 .L0 
     /tmp/ccJsZ0pp.s:1105   .text:0000000000000618 .L0 
     /tmp/ccJsZ0pp.s:1111   .text:0000000000000618 _ZN12kmem_cache_s5kfreeEPKv
     /tmp/ccJsZ0pp.s:1114   .text:0000000000000618 .L0 
     /tmp/ccJsZ0pp.s:1116   .text:0000000000000618 .L0 
     /tmp/ccJsZ0pp.s:1117   .text:000000000000061c .L0 
     /tmp/ccJsZ0pp.s:1122   .text:000000000000062c .L0 
     /tmp/ccJsZ0pp.s:1123   .text:000000000000062c .L0 
     /tmp/ccJsZ0pp.s:1124   .text:000000000000062c .L0 
     /tmp/ccJsZ0pp.s:1125   .text:000000000000062c .L0 
     /tmp/ccJsZ0pp.s:1127   .text:0000000000000630 .L0 
     /tmp/ccJsZ0pp.s:1131   .text:0000000000000634 .L0 
     /tmp/ccJsZ0pp.s:1132   .text:0000000000000634 .L0 
     /tmp/ccJsZ0pp.s:1136   .text:000000000000063c .L0 
     /tmp/ccJsZ0pp.s:1138   .text:0000000000000640 .L0 
     /tmp/ccJsZ0pp.s:1139   .text:0000000000000640 .L0 
     /tmp/ccJsZ0pp.s:1144   .text:0000000000000650 .L0 
     /tmp/ccJsZ0pp.s:1146   .text:0000000000000654 .L0 
GAS LISTING /tmp/ccJsZ0pp.s 			page 69


     /tmp/ccJsZ0pp.s:1147   .text:0000000000000654 .L0 
     /tmp/ccJsZ0pp.s:1150   .text:0000000000000658 .L0 
     /tmp/ccJsZ0pp.s:1154   .text:000000000000065c .L0 
     /tmp/ccJsZ0pp.s:1157   .text:0000000000000660 .L0 
     /tmp/ccJsZ0pp.s:1158   .text:0000000000000664 .L0 
     /tmp/ccJsZ0pp.s:1160   .text:0000000000000668 .L0 
     /tmp/ccJsZ0pp.s:1161   .text:0000000000000668 .L0 
     /tmp/ccJsZ0pp.s:1163   .text:000000000000066c .L0 
     /tmp/ccJsZ0pp.s:1166   .text:0000000000000670 .L0 
     /tmp/ccJsZ0pp.s:1169   .text:0000000000000674 .L0 
     /tmp/ccJsZ0pp.s:1171   .text:0000000000000678 .L0 
     /tmp/ccJsZ0pp.s:1177   .text:0000000000000678 _ZN12kmem_cache_s18kmem_cache_destroyEm
     /tmp/ccJsZ0pp.s:1180   .text:0000000000000678 .L0 
     /tmp/ccJsZ0pp.s:1182   .text:0000000000000678 .L0 
     /tmp/ccJsZ0pp.s:1183   .text:000000000000067c .L0 
     /tmp/ccJsZ0pp.s:1190   .text:0000000000000694 .L0 
     /tmp/ccJsZ0pp.s:1191   .text:0000000000000694 .L0 
     /tmp/ccJsZ0pp.s:1192   .text:0000000000000694 .L0 
     /tmp/ccJsZ0pp.s:1193   .text:0000000000000694 .L0 
     /tmp/ccJsZ0pp.s:1194   .text:0000000000000694 .L0 
     /tmp/ccJsZ0pp.s:1195   .text:0000000000000694 .L0 
     /tmp/ccJsZ0pp.s:1197   .text:0000000000000698 .L0 
     /tmp/ccJsZ0pp.s:1202   .text:00000000000006a0 .L0 
     /tmp/ccJsZ0pp.s:1203   .text:00000000000006a0 .L0 
     /tmp/ccJsZ0pp.s:1211   .text:00000000000006a8 .L0 
     /tmp/ccJsZ0pp.s:1214   .text:00000000000006a8 .L0 
     /tmp/ccJsZ0pp.s:1215   .text:00000000000006a8 .L0 
     /tmp/ccJsZ0pp.s:1220   .text:00000000000006bc .L0 
     /tmp/ccJsZ0pp.s:1224   .text:00000000000006c0 .L0 
     /tmp/ccJsZ0pp.s:1225   .text:00000000000006c0 .L0 
     /tmp/ccJsZ0pp.s:1228   .text:00000000000006c4 .L0 
     /tmp/ccJsZ0pp.s:1229   .text:00000000000006c4 .L0 
     /tmp/ccJsZ0pp.s:1230   .text:00000000000006c4 .L0 
     /tmp/ccJsZ0pp.s:1235   .text:00000000000006c8 .L0 
     /tmp/ccJsZ0pp.s:1236   .text:00000000000006c8 .L0 
     /tmp/ccJsZ0pp.s:1237   .text:00000000000006c8 .L0 
     /tmp/ccJsZ0pp.s:1250   .text:00000000000006f4 .L0 
     /tmp/ccJsZ0pp.s:1251   .text:00000000000006f4 .L0 
     /tmp/ccJsZ0pp.s:1252   .text:00000000000006f4 .L0 
     /tmp/ccJsZ0pp.s:1260   .text:00000000000006fc .L0 
     /tmp/ccJsZ0pp.s:1267   .text:0000000000000718 .L0 
     /tmp/ccJsZ0pp.s:1271   .text:0000000000000718 .L0 
     /tmp/ccJsZ0pp.s:1272   .text:0000000000000718 .L0 
     /tmp/ccJsZ0pp.s:1277   .text:000000000000072c .L0 
     /tmp/ccJsZ0pp.s:1281   .text:0000000000000730 .L0 
     /tmp/ccJsZ0pp.s:1282   .text:0000000000000730 .L0 
     /tmp/ccJsZ0pp.s:1285   .text:0000000000000734 .L0 
     /tmp/ccJsZ0pp.s:1286   .text:0000000000000734 .L0 
     /tmp/ccJsZ0pp.s:1287   .text:0000000000000734 .L0 
     /tmp/ccJsZ0pp.s:1292   .text:0000000000000738 .L0 
     /tmp/ccJsZ0pp.s:1293   .text:0000000000000738 .L0 
     /tmp/ccJsZ0pp.s:1294   .text:0000000000000738 .L0 
     /tmp/ccJsZ0pp.s:1302   .text:0000000000000748 .L0 
     /tmp/ccJsZ0pp.s:1303   .text:0000000000000748 .L0 
     /tmp/ccJsZ0pp.s:1304   .text:0000000000000748 .L0 
     /tmp/ccJsZ0pp.s:1312   .text:0000000000000750 .L0 
     /tmp/ccJsZ0pp.s:1319   .text:000000000000076c .L0 
GAS LISTING /tmp/ccJsZ0pp.s 			page 70


     /tmp/ccJsZ0pp.s:1323   .text:000000000000076c .L0 
     /tmp/ccJsZ0pp.s:1324   .text:000000000000076c .L0 
     /tmp/ccJsZ0pp.s:1329   .text:0000000000000780 .L0 
     /tmp/ccJsZ0pp.s:1333   .text:0000000000000784 .L0 
     /tmp/ccJsZ0pp.s:1334   .text:0000000000000784 .L0 
     /tmp/ccJsZ0pp.s:1337   .text:0000000000000788 .L0 
     /tmp/ccJsZ0pp.s:1338   .text:0000000000000788 .L0 
     /tmp/ccJsZ0pp.s:1339   .text:0000000000000788 .L0 
     /tmp/ccJsZ0pp.s:1344   .text:000000000000078c .L0 
     /tmp/ccJsZ0pp.s:1345   .text:000000000000078c .L0 
     /tmp/ccJsZ0pp.s:1346   .text:000000000000078c .L0 
     /tmp/ccJsZ0pp.s:1354   .text:000000000000079c .L0 
     /tmp/ccJsZ0pp.s:1355   .text:000000000000079c .L0 
     /tmp/ccJsZ0pp.s:1363   .text:00000000000007a8 .L0 
     /tmp/ccJsZ0pp.s:1374   .text:00000000000007c8 .L0 
     /tmp/ccJsZ0pp.s:1375   .text:00000000000007c8 .L0 
     /tmp/ccJsZ0pp.s:1376   .text:00000000000007c8 .L0 
     /tmp/ccJsZ0pp.s:1378   .text:00000000000007cc .L0 
     /tmp/ccJsZ0pp.s:1382   .text:00000000000007d0 .L0 
     /tmp/ccJsZ0pp.s:1383   .text:00000000000007d0 .L0 
     /tmp/ccJsZ0pp.s:1385   .text:00000000000007d4 .L0 
     /tmp/ccJsZ0pp.s:1386   .text:00000000000007d4 .L0 
     /tmp/ccJsZ0pp.s:1388   .text:00000000000007d8 .L0 
     /tmp/ccJsZ0pp.s:1390   .text:00000000000007dc .L0 
     /tmp/ccJsZ0pp.s:1392   .text:00000000000007e0 .L0 
     /tmp/ccJsZ0pp.s:1393   .text:00000000000007e0 .L0 
     /tmp/ccJsZ0pp.s:1395   .text:00000000000007e4 .L0 
     /tmp/ccJsZ0pp.s:1397   .text:00000000000007e8 .L0 
     /tmp/ccJsZ0pp.s:1398   .text:00000000000007e8 .L0 
     /tmp/ccJsZ0pp.s:1403   .text:00000000000007ec .L0 
     /tmp/ccJsZ0pp.s:1404   .text:00000000000007ec .L0 
     /tmp/ccJsZ0pp.s:1405   .text:00000000000007ec .L0 
     /tmp/ccJsZ0pp.s:1410   .text:00000000000007f8 .L0 
     /tmp/ccJsZ0pp.s:1414   .text:00000000000007f8 .L0 
     /tmp/ccJsZ0pp.s:1415   .text:00000000000007f8 .L0 
     /tmp/ccJsZ0pp.s:1420   .text:000000000000080c .L0 
     /tmp/ccJsZ0pp.s:1421   .text:000000000000080c .L0 
     /tmp/ccJsZ0pp.s:1426   .text:0000000000000814 .L0 
     /tmp/ccJsZ0pp.s:1430   .text:0000000000000818 .L0 
     /tmp/ccJsZ0pp.s:1431   .text:000000000000081c .L0 
     /tmp/ccJsZ0pp.s:1433   .text:0000000000000820 .L0 
     /tmp/ccJsZ0pp.s:1434   .text:0000000000000820 .L0 
     /tmp/ccJsZ0pp.s:1436   .text:0000000000000824 .L0 
     /tmp/ccJsZ0pp.s:1439   .text:0000000000000828 .L0 
     /tmp/ccJsZ0pp.s:1441   .text:000000000000082c .L0 
     /tmp/ccJsZ0pp.s:1444   .text:0000000000000830 .L0 
     /tmp/ccJsZ0pp.s:1447   .text:0000000000000834 .L0 
     /tmp/ccJsZ0pp.s:1449   .text:0000000000000838 .L0 
     /tmp/ccJsZ0pp.s:1514   .text:0000000000000838 _ZN12kmem_cache_s15kmem_cache_infoEv
     /tmp/ccJsZ0pp.s:1517   .text:0000000000000838 .L0 
     /tmp/ccJsZ0pp.s:1519   .text:0000000000000838 .L0 
     /tmp/ccJsZ0pp.s:1520   .text:000000000000083c .L0 
     /tmp/ccJsZ0pp.s:1527   .text:0000000000000854 .L0 
     /tmp/ccJsZ0pp.s:1528   .text:0000000000000854 .L0 
     /tmp/ccJsZ0pp.s:1529   .text:0000000000000854 .L0 
     /tmp/ccJsZ0pp.s:1530   .text:0000000000000854 .L0 
     /tmp/ccJsZ0pp.s:1531   .text:0000000000000854 .L0 
GAS LISTING /tmp/ccJsZ0pp.s 			page 71


     /tmp/ccJsZ0pp.s:1532   .text:0000000000000854 .L0 
     /tmp/ccJsZ0pp.s:1534   .text:0000000000000858 .L0 
     /tmp/ccJsZ0pp.s:1537   .text:000000000000085c .L0 
     /tmp/ccJsZ0pp.s:1538   .text:000000000000085c .L0 
     /tmp/ccJsZ0pp.s:1543   .text:000000000000086c .L0 
     /tmp/ccJsZ0pp.s:1544   .text:000000000000086c .L0 
     /tmp/ccJsZ0pp.s:1548   .text:000000000000087c .L0 
     /tmp/ccJsZ0pp.s:1549   .text:000000000000087c .L0 
     /tmp/ccJsZ0pp.s:1553   .text:0000000000000888 .L0 
     /tmp/ccJsZ0pp.s:1554   .text:0000000000000888 .L0 
     /tmp/ccJsZ0pp.s:1558   .text:0000000000000898 .L0 
     /tmp/ccJsZ0pp.s:1559   .text:0000000000000898 .L0 
     /tmp/ccJsZ0pp.s:1563   .text:00000000000008a8 .L0 
     /tmp/ccJsZ0pp.s:1564   .text:00000000000008a8 .L0 
     /tmp/ccJsZ0pp.s:1570   .text:00000000000008bc .L0 
     /tmp/ccJsZ0pp.s:1571   .text:00000000000008bc .L0 
     /tmp/ccJsZ0pp.s:1575   .text:00000000000008cc .L0 
     /tmp/ccJsZ0pp.s:1576   .text:00000000000008cc .L0 
     /tmp/ccJsZ0pp.s:1578   .text:00000000000008d0 .L0 
     /tmp/ccJsZ0pp.s:1580   .text:00000000000008d4 .L0 
     /tmp/ccJsZ0pp.s:1582   .text:00000000000008d8 .L0 
     /tmp/ccJsZ0pp.s:1584   .text:00000000000008dc .L0 
     /tmp/ccJsZ0pp.s:1587   .text:00000000000008e0 .L0 
     /tmp/ccJsZ0pp.s:1588   .text:00000000000008e0 .L0 
     /tmp/ccJsZ0pp.s:1590   .text:00000000000008e4 .L0 
     /tmp/ccJsZ0pp.s:1592   .text:00000000000008e8 .L0 
     /tmp/ccJsZ0pp.s:1595   .text:00000000000008ec .L0 
     /tmp/ccJsZ0pp.s:1596   .text:00000000000008ec .L0 
     /tmp/ccJsZ0pp.s:1600   .text:00000000000008fc .L0 
     /tmp/ccJsZ0pp.s:1601   .text:00000000000008fc .L0 
     /tmp/ccJsZ0pp.s:1607   .text:0000000000000910 .L0 
     /tmp/ccJsZ0pp.s:1608   .text:0000000000000910 .L0 
     /tmp/ccJsZ0pp.s:1612   .text:0000000000000920 .L0 
     /tmp/ccJsZ0pp.s:1613   .text:0000000000000920 .L0 
     /tmp/ccJsZ0pp.s:1617   .text:0000000000000930 .L0 
     /tmp/ccJsZ0pp.s:1618   .text:0000000000000930 .L0 
     /tmp/ccJsZ0pp.s:1624   .text:0000000000000944 .L0 
     /tmp/ccJsZ0pp.s:1625   .text:0000000000000944 .L0 
     /tmp/ccJsZ0pp.s:1629   .text:0000000000000954 .L0 
     /tmp/ccJsZ0pp.s:1630   .text:0000000000000954 .L0 
     /tmp/ccJsZ0pp.s:1634   .text:0000000000000964 .L0 
     /tmp/ccJsZ0pp.s:1635   .text:0000000000000964 .L0 
     /tmp/ccJsZ0pp.s:1641   .text:0000000000000978 .L0 
     /tmp/ccJsZ0pp.s:1642   .text:0000000000000978 .L0 
     /tmp/ccJsZ0pp.s:1646   .text:0000000000000988 .L0 
     /tmp/ccJsZ0pp.s:1647   .text:0000000000000988 .L0 
     /tmp/ccJsZ0pp.s:1651   .text:0000000000000998 .L0 
     /tmp/ccJsZ0pp.s:1652   .text:0000000000000998 .L0 
     /tmp/ccJsZ0pp.s:1658   .text:00000000000009ac .L0 
     /tmp/ccJsZ0pp.s:1659   .text:00000000000009ac .L0 
     /tmp/ccJsZ0pp.s:1663   .text:00000000000009bc .L0 
     /tmp/ccJsZ0pp.s:1664   .text:00000000000009bc .L0 
     /tmp/ccJsZ0pp.s:1669   .text:00000000000009cc .L0 
     /tmp/ccJsZ0pp.s:1670   .text:00000000000009cc .L0 
     /tmp/ccJsZ0pp.s:1674   .text:00000000000009d0 .L0 
     /tmp/ccJsZ0pp.s:1679   .text:00000000000009d4 .L0 
     /tmp/ccJsZ0pp.s:1682   .text:00000000000009d4 .L0 
GAS LISTING /tmp/ccJsZ0pp.s 			page 72


     /tmp/ccJsZ0pp.s:1683   .text:00000000000009d4 .L0 
     /tmp/ccJsZ0pp.s:1689   .text:00000000000009e8 .L0 
     /tmp/ccJsZ0pp.s:1690   .text:00000000000009e8 .L0 
     /tmp/ccJsZ0pp.s:1694   .text:00000000000009f8 .L0 
     /tmp/ccJsZ0pp.s:1695   .text:00000000000009f8 .L0 
     /tmp/ccJsZ0pp.s:1698   .text:00000000000009fc .L0 
     /tmp/ccJsZ0pp.s:1702   .text:0000000000000a00 .L0 
     /tmp/ccJsZ0pp.s:1703   .text:0000000000000a00 .L0 
     /tmp/ccJsZ0pp.s:1707   .text:0000000000000a10 .L0 
     /tmp/ccJsZ0pp.s:1708   .text:0000000000000a10 .L0 
     /tmp/ccJsZ0pp.s:1713   .text:0000000000000a20 .L0 
     /tmp/ccJsZ0pp.s:1714   .text:0000000000000a20 .L0 
     /tmp/ccJsZ0pp.s:1718   .text:0000000000000a24 .L0 
     /tmp/ccJsZ0pp.s:1723   .text:0000000000000a28 .L0 
     /tmp/ccJsZ0pp.s:1726   .text:0000000000000a28 .L0 
     /tmp/ccJsZ0pp.s:1727   .text:0000000000000a28 .L0 
     /tmp/ccJsZ0pp.s:1733   .text:0000000000000a3c .L0 
     /tmp/ccJsZ0pp.s:1734   .text:0000000000000a3c .L0 
     /tmp/ccJsZ0pp.s:1738   .text:0000000000000a4c .L0 
     /tmp/ccJsZ0pp.s:1739   .text:0000000000000a4c .L0 
     /tmp/ccJsZ0pp.s:1742   .text:0000000000000a50 .L0 
     /tmp/ccJsZ0pp.s:1746   .text:0000000000000a54 .L0 
     /tmp/ccJsZ0pp.s:1747   .text:0000000000000a54 .L0 
     /tmp/ccJsZ0pp.s:1751   .text:0000000000000a64 .L0 
     /tmp/ccJsZ0pp.s:1752   .text:0000000000000a64 .L0 
     /tmp/ccJsZ0pp.s:1757   .text:0000000000000a74 .L0 
     /tmp/ccJsZ0pp.s:1758   .text:0000000000000a74 .L0 
     /tmp/ccJsZ0pp.s:1762   .text:0000000000000a78 .L0 
     /tmp/ccJsZ0pp.s:1767   .text:0000000000000a7c .L0 
     /tmp/ccJsZ0pp.s:1770   .text:0000000000000a7c .L0 
     /tmp/ccJsZ0pp.s:1771   .text:0000000000000a7c .L0 
     /tmp/ccJsZ0pp.s:1777   .text:0000000000000a90 .L0 
     /tmp/ccJsZ0pp.s:1778   .text:0000000000000a90 .L0 
     /tmp/ccJsZ0pp.s:1782   .text:0000000000000aa0 .L0 
     /tmp/ccJsZ0pp.s:1783   .text:0000000000000aa0 .L0 
     /tmp/ccJsZ0pp.s:1786   .text:0000000000000aa4 .L0 
     /tmp/ccJsZ0pp.s:1790   .text:0000000000000aa8 .L0 
     /tmp/ccJsZ0pp.s:1791   .text:0000000000000aa8 .L0 
     /tmp/ccJsZ0pp.s:1795   .text:0000000000000ab8 .L0 
     /tmp/ccJsZ0pp.s:1796   .text:0000000000000ab8 .L0 
     /tmp/ccJsZ0pp.s:1800   .text:0000000000000ac8 .L0 
     /tmp/ccJsZ0pp.s:1801   .text:0000000000000ac8 .L0 
     /tmp/ccJsZ0pp.s:1807   .text:0000000000000adc .L0 
     /tmp/ccJsZ0pp.s:1808   .text:0000000000000adc .L0 
     /tmp/ccJsZ0pp.s:1812   .text:0000000000000aec .L0 
     /tmp/ccJsZ0pp.s:1813   .text:0000000000000aec .L0 
     /tmp/ccJsZ0pp.s:1817   .text:0000000000000afc .L0 
     /tmp/ccJsZ0pp.s:1818   .text:0000000000000afc .L0 
     /tmp/ccJsZ0pp.s:1824   .text:0000000000000b10 .L0 
     /tmp/ccJsZ0pp.s:1825   .text:0000000000000b10 .L0 
     /tmp/ccJsZ0pp.s:1829   .text:0000000000000b20 .L0 
     /tmp/ccJsZ0pp.s:1830   .text:0000000000000b20 .L0 
     /tmp/ccJsZ0pp.s:1834   .text:0000000000000b30 .L0 
     /tmp/ccJsZ0pp.s:1835   .text:0000000000000b30 .L0 
     /tmp/ccJsZ0pp.s:1841   .text:0000000000000b44 .L0 
     /tmp/ccJsZ0pp.s:1842   .text:0000000000000b44 .L0 
     /tmp/ccJsZ0pp.s:1846   .text:0000000000000b54 .L0 
GAS LISTING /tmp/ccJsZ0pp.s 			page 73


     /tmp/ccJsZ0pp.s:1847   .text:0000000000000b54 .L0 
     /tmp/ccJsZ0pp.s:1850   .text:0000000000000b5c .L0 
     /tmp/ccJsZ0pp.s:1852   .text:0000000000000b60 .L0 
     /tmp/ccJsZ0pp.s:1854   .text:0000000000000b64 .L0 
     /tmp/ccJsZ0pp.s:1856   .text:0000000000000b68 .L0 
     /tmp/ccJsZ0pp.s:1859   .text:0000000000000b6c .L0 
     /tmp/ccJsZ0pp.s:1860   .text:0000000000000b6c .L0 
     /tmp/ccJsZ0pp.s:1863   .text:0000000000000b70 .L0 
     /tmp/ccJsZ0pp.s:1865   .text:0000000000000b74 .L0 
     /tmp/ccJsZ0pp.s:1867   .text:0000000000000b78 .L0 
     /tmp/ccJsZ0pp.s:1870   .text:0000000000000b7c .L0 
     /tmp/ccJsZ0pp.s:1871   .text:0000000000000b7c .L0 
     /tmp/ccJsZ0pp.s:1875   .text:0000000000000b8c .L0 
     /tmp/ccJsZ0pp.s:1876   .text:0000000000000b8c .L0 
     /tmp/ccJsZ0pp.s:1882   .text:0000000000000ba0 .L0 
     /tmp/ccJsZ0pp.s:1883   .text:0000000000000ba0 .L0 
     /tmp/ccJsZ0pp.s:1887   .text:0000000000000bb0 .L0 
     /tmp/ccJsZ0pp.s:1888   .text:0000000000000bb0 .L0 
     /tmp/ccJsZ0pp.s:1894   .text:0000000000000bc4 .L0 
     /tmp/ccJsZ0pp.s:1895   .text:0000000000000bc4 .L0 
     /tmp/ccJsZ0pp.s:1899   .text:0000000000000bd4 .L0 
     /tmp/ccJsZ0pp.s:1900   .text:0000000000000bd4 .L0 
     /tmp/ccJsZ0pp.s:1904   .text:0000000000000be4 .L0 
     /tmp/ccJsZ0pp.s:1905   .text:0000000000000be4 .L0 
     /tmp/ccJsZ0pp.s:1907   .text:0000000000000be8 .L0 
     /tmp/ccJsZ0pp.s:1909   .text:0000000000000bec .L0 
     /tmp/ccJsZ0pp.s:1915   .text:0000000000000c00 .L0 
     /tmp/ccJsZ0pp.s:1916   .text:0000000000000c00 .L0 
     /tmp/ccJsZ0pp.s:1920   .text:0000000000000c10 .L0 
     /tmp/ccJsZ0pp.s:1921   .text:0000000000000c10 .L0 
     /tmp/ccJsZ0pp.s:1923   .text:0000000000000c14 .L0 
     /tmp/ccJsZ0pp.s:1925   .text:0000000000000c18 .L0 
     /tmp/ccJsZ0pp.s:1928   .text:0000000000000c20 .L0 
     /tmp/ccJsZ0pp.s:1931   .text:0000000000000c24 .L0 
     /tmp/ccJsZ0pp.s:1932   .text:0000000000000c24 .L0 
     /tmp/ccJsZ0pp.s:1939   .text:0000000000000c38 .L0 
     /tmp/ccJsZ0pp.s:1940   .text:0000000000000c38 .L0 
     /tmp/ccJsZ0pp.s:1944   .text:0000000000000c48 .L0 
     /tmp/ccJsZ0pp.s:1945   .text:0000000000000c48 .L0 
     /tmp/ccJsZ0pp.s:1949   .text:0000000000000c58 .L0 
     /tmp/ccJsZ0pp.s:1950   .text:0000000000000c5c .L0 
     /tmp/ccJsZ0pp.s:1952   .text:0000000000000c60 .L0 
     /tmp/ccJsZ0pp.s:1953   .text:0000000000000c60 .L0 
     /tmp/ccJsZ0pp.s:1955   .text:0000000000000c64 .L0 
     /tmp/ccJsZ0pp.s:1958   .text:0000000000000c68 .L0 
     /tmp/ccJsZ0pp.s:1961   .text:0000000000000c6c .L0 
     /tmp/ccJsZ0pp.s:1964   .text:0000000000000c70 .L0 
     /tmp/ccJsZ0pp.s:1967   .text:0000000000000c74 .L0 
     /tmp/ccJsZ0pp.s:1969   .text:0000000000000c78 .L0 
     /tmp/ccJsZ0pp.s:1983   .text:0000000000000c78 _ZN12kmem_cache_s21print_info_all_cachesEv
     /tmp/ccJsZ0pp.s:1986   .text:0000000000000c78 .L0 
     /tmp/ccJsZ0pp.s:1987   .text:0000000000000c78 .L0 
     /tmp/ccJsZ0pp.s:1988   .text:0000000000000c7c .L0 
     /tmp/ccJsZ0pp.s:1992   .text:0000000000000c88 .L0 
     /tmp/ccJsZ0pp.s:1993   .text:0000000000000c88 .L0 
     /tmp/ccJsZ0pp.s:1994   .text:0000000000000c88 .L0 
     /tmp/ccJsZ0pp.s:1996   .text:0000000000000c8c .L0 
GAS LISTING /tmp/ccJsZ0pp.s 			page 74


     /tmp/ccJsZ0pp.s:1998   .text:0000000000000c8c .L0 
     /tmp/ccJsZ0pp.s:1999   .text:0000000000000c8c .L0 
     /tmp/ccJsZ0pp.s:2004   .text:0000000000000c9c .L0 
     /tmp/ccJsZ0pp.s:2005   .text:0000000000000c9c .L0 
     /tmp/ccJsZ0pp.s:2009   .text:0000000000000ca4 .L0 
     /tmp/ccJsZ0pp.s:2011   .text:0000000000000ca8 .L0 
     /tmp/ccJsZ0pp.s:2012   .text:0000000000000ca8 .L0 
     /tmp/ccJsZ0pp.s:2016   .text:0000000000000cb4 .L0 
     /tmp/ccJsZ0pp.s:2017   .text:0000000000000cb4 .L0 
     /tmp/ccJsZ0pp.s:2020   .text:0000000000000cb8 .L0 
     /tmp/ccJsZ0pp.s:2024   .text:0000000000000cbc .L0 
     /tmp/ccJsZ0pp.s:2025   .text:0000000000000cbc .L0 
     /tmp/ccJsZ0pp.s:2029   .text:0000000000000ccc .L0 
     /tmp/ccJsZ0pp.s:2030   .text:0000000000000cd0 .L0 
     /tmp/ccJsZ0pp.s:2032   .text:0000000000000cd4 .L0 
     /tmp/ccJsZ0pp.s:2033   .text:0000000000000cd4 .L0 
     /tmp/ccJsZ0pp.s:2035   .text:0000000000000cd8 .L0 
     /tmp/ccJsZ0pp.s:2038   .text:0000000000000cdc .L0 
     /tmp/ccJsZ0pp.s:2040   .text:0000000000000ce0 .L0 
     /tmp/ccJsZ0pp.s:2046   .text:0000000000000ce0 _ZN4Slab42return_first_free_object_and_rearange_listEii
     /tmp/ccJsZ0pp.s:2049   .text:0000000000000ce0 .L0 
     /tmp/ccJsZ0pp.s:2051   .text:0000000000000ce0 .L0 
     /tmp/ccJsZ0pp.s:2052   .text:0000000000000ce4 .L0 
     /tmp/ccJsZ0pp.s:2054   .text:0000000000000ce8 .L0 
     /tmp/ccJsZ0pp.s:2056   .text:0000000000000cec .L0 
     /tmp/ccJsZ0pp.s:2059   .text:0000000000000cec .L0 
     /tmp/ccJsZ0pp.s:2060   .text:0000000000000cec .L0 
     /tmp/ccJsZ0pp.s:2064   .text:0000000000000cf0 .L0 
     /tmp/ccJsZ0pp.s:2065   .text:0000000000000cf0 .L0 
     /tmp/ccJsZ0pp.s:2067   .text:0000000000000cf4 .L0 
     /tmp/ccJsZ0pp.s:2069   .text:0000000000000cf8 .L0 
     /tmp/ccJsZ0pp.s:2072   .text:0000000000000d00 .L0 
     /tmp/ccJsZ0pp.s:2074   .text:0000000000000d04 .L0 
     /tmp/ccJsZ0pp.s:2075   .text:0000000000000d04 .L0 
     /tmp/ccJsZ0pp.s:2078   .text:0000000000000d08 .L0 
     /tmp/ccJsZ0pp.s:2082   .text:0000000000000d0c .L0 
     /tmp/ccJsZ0pp.s:2084   .text:0000000000000d10 .L0 
     /tmp/ccJsZ0pp.s:2085   .text:0000000000000d10 .L0 
     /tmp/ccJsZ0pp.s:2087   .text:0000000000000d14 .L0 
     /tmp/ccJsZ0pp.s:2089   .text:0000000000000d18 .L0 
     /tmp/ccJsZ0pp.s:2092   .text:0000000000000d20 .L0 
     /tmp/ccJsZ0pp.s:2093   .text:0000000000000d20 .L0 
     /tmp/ccJsZ0pp.s:2096   .text:0000000000000d24 .L0 
     /tmp/ccJsZ0pp.s:2099   .text:0000000000000d28 .L0 
     /tmp/ccJsZ0pp.s:2102   .text:0000000000000d2c .L0 
     /tmp/ccJsZ0pp.s:2103   .text:0000000000000d30 .L0 
     /tmp/ccJsZ0pp.s:2104   .text:0000000000000d30 .L0 
     /tmp/ccJsZ0pp.s:2105   .text:0000000000000d30 .L0 
     /tmp/ccJsZ0pp.s:2107   .text:0000000000000d34 .L0 
     /tmp/ccJsZ0pp.s:2111   .text:0000000000000d38 .L0 
     /tmp/ccJsZ0pp.s:2113   .text:0000000000000d38 .L0 
     /tmp/ccJsZ0pp.s:2116   .text:0000000000000d40 .L0 
     /tmp/ccJsZ0pp.s:2122   .text:0000000000000d40 _ZN12kmem_cache_s16kmem_cache_allocEv
     /tmp/ccJsZ0pp.s:2125   .text:0000000000000d40 .L0 
     /tmp/ccJsZ0pp.s:2127   .text:0000000000000d40 .L0 
     /tmp/ccJsZ0pp.s:2128   .text:0000000000000d44 .L0 
     /tmp/ccJsZ0pp.s:2132   .text:0000000000000d50 .L0 
GAS LISTING /tmp/ccJsZ0pp.s 			page 75


     /tmp/ccJsZ0pp.s:2133   .text:0000000000000d50 .L0 
     /tmp/ccJsZ0pp.s:2134   .text:0000000000000d50 .L0 
     /tmp/ccJsZ0pp.s:2136   .text:0000000000000d54 .L0 
     /tmp/ccJsZ0pp.s:2140   .text:0000000000000d58 .L0 
     /tmp/ccJsZ0pp.s:2141   .text:0000000000000d58 .L0 
     /tmp/ccJsZ0pp.s:2143   .text:0000000000000d5c .L0 
     /tmp/ccJsZ0pp.s:2147   .text:0000000000000d60 .L0 
     /tmp/ccJsZ0pp.s:2148   .text:0000000000000d60 .L0 
     /tmp/ccJsZ0pp.s:2150   .text:0000000000000d64 .L0 
     /tmp/ccJsZ0pp.s:2153   .text:0000000000000d68 .L0 
     /tmp/ccJsZ0pp.s:2154   .text:0000000000000d68 .L0 
     /tmp/ccJsZ0pp.s:2161   .text:0000000000000d7c .L0 
     /tmp/ccJsZ0pp.s:2162   .text:0000000000000d7c .L0 
     /tmp/ccJsZ0pp.s:2164   .text:0000000000000d80 .L0 
     /tmp/ccJsZ0pp.s:2167   .text:0000000000000d88 .L0 
     /tmp/ccJsZ0pp.s:2168   .text:0000000000000d88 .L0 
     /tmp/ccJsZ0pp.s:2171   .text:0000000000000d8c .L0 
     /tmp/ccJsZ0pp.s:2172   .text:0000000000000d8c .L0 
     /tmp/ccJsZ0pp.s:2174   .text:0000000000000d90 .L0 
     /tmp/ccJsZ0pp.s:2179   .text:0000000000000d94 .L0 
     /tmp/ccJsZ0pp.s:2180   .text:0000000000000d94 .L0 
     /tmp/ccJsZ0pp.s:2182   .text:0000000000000d98 .L0 
     /tmp/ccJsZ0pp.s:2188   .text:0000000000000da0 .L0 
     /tmp/ccJsZ0pp.s:2189   .text:0000000000000da0 .L0 
     /tmp/ccJsZ0pp.s:2191   .text:0000000000000da4 .L0 
     /tmp/ccJsZ0pp.s:2193   .text:0000000000000da8 .L0 
     /tmp/ccJsZ0pp.s:2195   .text:0000000000000dac .L0 
     /tmp/ccJsZ0pp.s:2196   .text:0000000000000dac .L0 
     /tmp/ccJsZ0pp.s:2198   .text:0000000000000db0 .L0 
     /tmp/ccJsZ0pp.s:2199   .text:0000000000000db0 .L0 
     /tmp/ccJsZ0pp.s:2202   .text:0000000000000db4 .L0 
     /tmp/ccJsZ0pp.s:2205   .text:0000000000000dbc .L0 
     /tmp/ccJsZ0pp.s:2206   .text:0000000000000dbc .L0 
     /tmp/ccJsZ0pp.s:2208   .text:0000000000000dc0 .L0 
     /tmp/ccJsZ0pp.s:2215   .text:0000000000000dc8 .L0 
     /tmp/ccJsZ0pp.s:2216   .text:0000000000000dc8 .L0 
     /tmp/ccJsZ0pp.s:2217   .text:0000000000000dcc .L0 
     /tmp/ccJsZ0pp.s:2218   .text:0000000000000dcc .L0 
     /tmp/ccJsZ0pp.s:2220   .text:0000000000000dd0 .L0 
     /tmp/ccJsZ0pp.s:2221   .text:0000000000000dd0 .L0 
     /tmp/ccJsZ0pp.s:2223   .text:0000000000000dd4 .L0 
     /tmp/ccJsZ0pp.s:2226   .text:0000000000000dd8 .L0 
     /tmp/ccJsZ0pp.s:2230   .text:0000000000000ddc .L0 
     /tmp/ccJsZ0pp.s:2234   .text:0000000000000ddc .L0 
     /tmp/ccJsZ0pp.s:2235   .text:0000000000000ddc .L0 
     /tmp/ccJsZ0pp.s:2241   .text:0000000000000df0 .L0 
     /tmp/ccJsZ0pp.s:2242   .text:0000000000000df0 .L0 
     /tmp/ccJsZ0pp.s:2244   .text:0000000000000df4 .L0 
     /tmp/ccJsZ0pp.s:2247   .text:0000000000000dfc .L0 
     /tmp/ccJsZ0pp.s:2248   .text:0000000000000dfc .L0 
     /tmp/ccJsZ0pp.s:2253   .text:0000000000000e00 .L0 
     /tmp/ccJsZ0pp.s:2255   .text:0000000000000e04 .L0 
     /tmp/ccJsZ0pp.s:2262   .text:0000000000000e0c .L0 
     /tmp/ccJsZ0pp.s:2263   .text:0000000000000e0c .L0 
     /tmp/ccJsZ0pp.s:2268   .text:0000000000000e10 .L0 
     /tmp/ccJsZ0pp.s:2269   .text:0000000000000e10 .L0 
     /tmp/ccJsZ0pp.s:2274   .text:0000000000000e14 .L0 
GAS LISTING /tmp/ccJsZ0pp.s 			page 76


     /tmp/ccJsZ0pp.s:2276   .text:0000000000000e18 .L0 
     /tmp/ccJsZ0pp.s:2280   .text:0000000000000e1c .L0 
     /tmp/ccJsZ0pp.s:2281   .text:0000000000000e1c .L0 
     /tmp/ccJsZ0pp.s:2282   .text:0000000000000e1c .L0 
     /tmp/ccJsZ0pp.s:2284   .text:0000000000000e20 .L0 
     /tmp/ccJsZ0pp.s:2286   .text:0000000000000e24 .L0 
     /tmp/ccJsZ0pp.s:2287   .text:0000000000000e24 .L0 
     /tmp/ccJsZ0pp.s:2289   .text:0000000000000e28 .L0 
     /tmp/ccJsZ0pp.s:2291   .text:0000000000000e2c .L0 
     /tmp/ccJsZ0pp.s:2293   .text:0000000000000e30 .L0 
     /tmp/ccJsZ0pp.s:2294   .text:0000000000000e30 .L0 
     /tmp/ccJsZ0pp.s:2296   .text:0000000000000e34 .L0 
     /tmp/ccJsZ0pp.s:2297   .text:0000000000000e34 .L0 
     /tmp/ccJsZ0pp.s:2300   .text:0000000000000e38 .L0 
     /tmp/ccJsZ0pp.s:2303   .text:0000000000000e40 .L0 
     /tmp/ccJsZ0pp.s:2304   .text:0000000000000e40 .L0 
     /tmp/ccJsZ0pp.s:2306   .text:0000000000000e44 .L0 
     /tmp/ccJsZ0pp.s:2311   .text:0000000000000e4c .L0 
     /tmp/ccJsZ0pp.s:2312   .text:0000000000000e4c .L0 
     /tmp/ccJsZ0pp.s:2318   .text:0000000000000e50 .L0 
     /tmp/ccJsZ0pp.s:2319   .text:0000000000000e50 .L0 
     /tmp/ccJsZ0pp.s:2322   .text:0000000000000e58 .L0 
     /tmp/ccJsZ0pp.s:2323   .text:0000000000000e58 .L0 
     /tmp/ccJsZ0pp.s:2326   .text:0000000000000e60 .L0 
     /tmp/ccJsZ0pp.s:2327   .text:0000000000000e60 .L0 
     /tmp/ccJsZ0pp.s:2329   .text:0000000000000e68 .L0 
     /tmp/ccJsZ0pp.s:2335   .text:0000000000000e68 _ZN12kmem_cache_s7kmallocEm
     /tmp/ccJsZ0pp.s:2338   .text:0000000000000e68 .L0 
     /tmp/ccJsZ0pp.s:2340   .text:0000000000000e68 .L0 
     /tmp/ccJsZ0pp.s:2341   .text:0000000000000e6c .L0 
     /tmp/ccJsZ0pp.s:2346   .text:0000000000000e7c .L0 
     /tmp/ccJsZ0pp.s:2347   .text:0000000000000e7c .L0 
     /tmp/ccJsZ0pp.s:2348   .text:0000000000000e7c .L0 
     /tmp/ccJsZ0pp.s:2349   .text:0000000000000e7c .L0 
     /tmp/ccJsZ0pp.s:2351   .text:0000000000000e80 .L0 
     /tmp/ccJsZ0pp.s:2354   .text:0000000000000e84 .L0 
     /tmp/ccJsZ0pp.s:2355   .text:0000000000000e84 .L0 
     /tmp/ccJsZ0pp.s:2362   .text:0000000000000e94 .L0 
     /tmp/ccJsZ0pp.s:2363   .text:0000000000000e94 .L0 
     /tmp/ccJsZ0pp.s:2366   .text:0000000000000e9c .L0 
     /tmp/ccJsZ0pp.s:2367   .text:0000000000000e9c .L0 
     /tmp/ccJsZ0pp.s:2369   .text:0000000000000ea0 .L0 
     /tmp/ccJsZ0pp.s:2373   .text:0000000000000ea4 .L0 
     /tmp/ccJsZ0pp.s:2374   .text:0000000000000ea4 .L0 
     /tmp/ccJsZ0pp.s:2378   .text:0000000000000eac .L0 
     /tmp/ccJsZ0pp.s:2379   .text:0000000000000eac .L0 
     /tmp/ccJsZ0pp.s:2380   .text:0000000000000eb0 .L0 
     /tmp/ccJsZ0pp.s:2381   .text:0000000000000eb0 .L0 
     /tmp/ccJsZ0pp.s:2383   .text:0000000000000eb4 .L0 
     /tmp/ccJsZ0pp.s:2384   .text:0000000000000eb4 .L0 
     /tmp/ccJsZ0pp.s:2386   .text:0000000000000eb8 .L0 
     /tmp/ccJsZ0pp.s:2389   .text:0000000000000ebc .L0 
     /tmp/ccJsZ0pp.s:2392   .text:0000000000000ec0 .L0 
     /tmp/ccJsZ0pp.s:2396   .text:0000000000000ec4 .L0 
     /tmp/ccJsZ0pp.s:2398   .text:0000000000000ec4 .L0 
     /tmp/ccJsZ0pp.s:2399   .text:0000000000000ec4 .L0 
     /tmp/ccJsZ0pp.s:2407   .text:0000000000000edc .L0 
GAS LISTING /tmp/ccJsZ0pp.s 			page 77


     /tmp/ccJsZ0pp.s:2409   .text:0000000000000ee4 .L0 
     /tmp/ccJsZ0pp.s:2432   .bss:0000000000000000 _ZN12kmem_cache_s4headE
     /tmp/ccJsZ0pp.s:2429   .bss:0000000000000000 .LANCHOR0
     /tmp/ccJsZ0pp.s:2440   .text:0000000000000ee4 .L0 
     /tmp/ccJsZ0pp.s:62     .text:0000000000000044 .L0 
     /tmp/ccJsZ0pp.s:66     .text:0000000000000058 .L0 
     /tmp/ccJsZ0pp.s:75     .text:0000000000000064 .L0 
     /tmp/ccJsZ0pp.s:96     .text:0000000000000080 .L0 
     /tmp/ccJsZ0pp.s:176    .text:00000000000000f4 .L0 
     /tmp/ccJsZ0pp.s:192    .text:0000000000000110 .L0 
     /tmp/ccJsZ0pp.s:247    .text:0000000000000168 .L0 
     /tmp/ccJsZ0pp.s:251    .text:000000000000017c .L0 
     /tmp/ccJsZ0pp.s:371    .text:0000000000000228 .L0 
     /tmp/ccJsZ0pp.s:395    .text:0000000000000244 .L0 
     /tmp/ccJsZ0pp.s:407    .text:0000000000000258 .L0 
     /tmp/ccJsZ0pp.s:475    .text:00000000000002d0 .L0 
     /tmp/ccJsZ0pp.s:480    .text:00000000000002e4 .L0 
     /tmp/ccJsZ0pp.s:503    .text:000000000000030c .L0 
     /tmp/ccJsZ0pp.s:943    .text:0000000000000548 .L0 
     /tmp/ccJsZ0pp.s:1132   .text:0000000000000634 .L0 
     /tmp/ccJsZ0pp.s:1216   .text:00000000000006ac .L0 
     /tmp/ccJsZ0pp.s:1237   .text:00000000000006c8 .L0 
     /tmp/ccJsZ0pp.s:1239   .text:00000000000006d4 .L0 
     /tmp/ccJsZ0pp.s:1243   .text:00000000000006e8 .L0 
     /tmp/ccJsZ0pp.s:1260   .text:00000000000006fc .L0 
     /tmp/ccJsZ0pp.s:1264   .text:0000000000000710 .L0 
     /tmp/ccJsZ0pp.s:1273   .text:000000000000071c .L0 
     /tmp/ccJsZ0pp.s:1294   .text:0000000000000738 .L0 
     /tmp/ccJsZ0pp.s:1312   .text:0000000000000750 .L0 
     /tmp/ccJsZ0pp.s:1316   .text:0000000000000764 .L0 
     /tmp/ccJsZ0pp.s:1325   .text:0000000000000770 .L0 
     /tmp/ccJsZ0pp.s:1346   .text:000000000000078c .L0 
     /tmp/ccJsZ0pp.s:1355   .text:000000000000079c .L0 
     /tmp/ccJsZ0pp.s:1363   .text:00000000000007a8 .L0 
     /tmp/ccJsZ0pp.s:1367   .text:00000000000007bc .L0 
     /tmp/ccJsZ0pp.s:1405   .text:00000000000007ec .L0 
     /tmp/ccJsZ0pp.s:1416   .text:00000000000007fc .L0 
     /tmp/ccJsZ0pp.s:1454   .rodata.str1.8:0000000000000000 .LC0
     /tmp/ccJsZ0pp.s:1538   .text:000000000000085c .L0 
     /tmp/ccJsZ0pp.s:1457   .rodata.str1.8:0000000000000038 .LC1
     /tmp/ccJsZ0pp.s:1544   .text:000000000000086c .L0 
     /tmp/ccJsZ0pp.s:1460   .rodata.str1.8:0000000000000040 .LC2
     /tmp/ccJsZ0pp.s:1554   .text:0000000000000888 .L0 
     /tmp/ccJsZ0pp.s:1463   .rodata.str1.8:0000000000000048 .LC3
     /tmp/ccJsZ0pp.s:1559   .text:0000000000000898 .L0 
     /tmp/ccJsZ0pp.s:1571   .text:00000000000008bc .L0 
     /tmp/ccJsZ0pp.s:1466   .rodata.str1.8:0000000000000060 .LC4
     /tmp/ccJsZ0pp.s:1596   .text:00000000000008ec .L0 
     /tmp/ccJsZ0pp.s:1608   .text:0000000000000910 .L0 
     /tmp/ccJsZ0pp.s:1469   .rodata.str1.8:0000000000000080 .LC5
     /tmp/ccJsZ0pp.s:1613   .text:0000000000000920 .L0 
     /tmp/ccJsZ0pp.s:1625   .text:0000000000000944 .L0 
     /tmp/ccJsZ0pp.s:1472   .rodata.str1.8:0000000000000098 .LC6
     /tmp/ccJsZ0pp.s:1630   .text:0000000000000954 .L0 
     /tmp/ccJsZ0pp.s:1642   .text:0000000000000978 .L0 
     /tmp/ccJsZ0pp.s:1475   .rodata.str1.8:00000000000000c8 .LC7
     /tmp/ccJsZ0pp.s:1647   .text:0000000000000988 .L0 
GAS LISTING /tmp/ccJsZ0pp.s 			page 78


     /tmp/ccJsZ0pp.s:1659   .text:00000000000009ac .L0 
     /tmp/ccJsZ0pp.s:1478   .rodata.str1.8:00000000000000e8 .LC8
     /tmp/ccJsZ0pp.s:1664   .text:00000000000009bc .L0 
     /tmp/ccJsZ0pp.s:1481   .rodata.str1.8:00000000000000f8 .LC9
     /tmp/ccJsZ0pp.s:1690   .text:00000000000009e8 .L0 
     /tmp/ccJsZ0pp.s:1703   .text:0000000000000a00 .L0 
     /tmp/ccJsZ0pp.s:1484   .rodata.str1.8:0000000000000100 .LC10
     /tmp/ccJsZ0pp.s:1708   .text:0000000000000a10 .L0 
     /tmp/ccJsZ0pp.s:1734   .text:0000000000000a3c .L0 
     /tmp/ccJsZ0pp.s:1747   .text:0000000000000a54 .L0 
     /tmp/ccJsZ0pp.s:1487   .rodata.str1.8:0000000000000110 .LC11
     /tmp/ccJsZ0pp.s:1752   .text:0000000000000a64 .L0 
     /tmp/ccJsZ0pp.s:1778   .text:0000000000000a90 .L0 
     /tmp/ccJsZ0pp.s:1791   .text:0000000000000aa8 .L0 
     /tmp/ccJsZ0pp.s:1490   .rodata.str1.8:0000000000000118 .LC12
     /tmp/ccJsZ0pp.s:1796   .text:0000000000000ab8 .L0 
     /tmp/ccJsZ0pp.s:1808   .text:0000000000000adc .L0 
     /tmp/ccJsZ0pp.s:1493   .rodata.str1.8:0000000000000138 .LC13
     /tmp/ccJsZ0pp.s:1813   .text:0000000000000aec .L0 
     /tmp/ccJsZ0pp.s:1825   .text:0000000000000b10 .L0 
     /tmp/ccJsZ0pp.s:1496   .rodata.str1.8:0000000000000160 .LC14
     /tmp/ccJsZ0pp.s:1830   .text:0000000000000b20 .L0 
     /tmp/ccJsZ0pp.s:1842   .text:0000000000000b44 .L0 
     /tmp/ccJsZ0pp.s:1499   .rodata.str1.8:0000000000000180 .LC15
     /tmp/ccJsZ0pp.s:1871   .text:0000000000000b7c .L0 
     /tmp/ccJsZ0pp.s:1502   .rodata.str1.8:00000000000001a8 .LC16
     /tmp/ccJsZ0pp.s:1883   .text:0000000000000ba0 .L0 
     /tmp/ccJsZ0pp.s:1895   .text:0000000000000bc4 .L0 
     /tmp/ccJsZ0pp.s:1505   .rodata.str1.8:00000000000001b0 .LC17
     /tmp/ccJsZ0pp.s:1900   .text:0000000000000bd4 .L0 
     /tmp/ccJsZ0pp.s:1916   .text:0000000000000c00 .L0 
     /tmp/ccJsZ0pp.s:1940   .text:0000000000000c38 .L0 
     /tmp/ccJsZ0pp.s:1508   .rodata.str1.8:00000000000001d0 .LC18
     /tmp/ccJsZ0pp.s:1945   .text:0000000000000c48 .L0 
     /tmp/ccJsZ0pp.s:1974   .rodata.str1.8:0000000000000208 .LC19
     /tmp/ccJsZ0pp.s:1999   .text:0000000000000c8c .L0 
     /tmp/ccJsZ0pp.s:2005   .text:0000000000000c9c .L0 
     /tmp/ccJsZ0pp.s:1977   .rodata.str1.8:0000000000000230 .LC20
     /tmp/ccJsZ0pp.s:2025   .text:0000000000000cbc .L0 
     /tmp/ccJsZ0pp.s:47     .text:0000000000000038 .L8
     /tmp/ccJsZ0pp.s:81     .text:0000000000000078 .L6
     /tmp/ccJsZ0pp.s:123    .text:00000000000000b0 .L1
     /tmp/ccJsZ0pp.s:100    .text:0000000000000090 .L4
     /tmp/ccJsZ0pp.s:67     .text:0000000000000060 .L5
     /tmp/ccJsZ0pp.s:57     .text:0000000000000044 .L9
     /tmp/ccJsZ0pp.s:242    .text:0000000000000168 .L17
     /tmp/ccJsZ0pp.s:254    .text:0000000000000188 .L12
     /tmp/ccJsZ0pp.s:227    .text:0000000000000150 .L13
     /tmp/ccJsZ0pp.s:179    .text:0000000000000100 .L11
     /tmp/ccJsZ0pp.s:302    .text:00000000000001c0 .L14
     /tmp/ccJsZ0pp.s:278    .text:000000000000019c .L15
     /tmp/ccJsZ0pp.s:387    .text:0000000000000244 .L19
     /tmp/ccJsZ0pp.s:538    .text:0000000000000348 .L25
     /tmp/ccJsZ0pp.s:373    .text:0000000000000230 .L21
     /tmp/ccJsZ0pp.s:471    .text:00000000000002d0 .L27
     /tmp/ccJsZ0pp.s:483    .text:00000000000002f0 .L23
     /tmp/ccJsZ0pp.s:449    .text:00000000000002a8 .L24
GAS LISTING /tmp/ccJsZ0pp.s 			page 79


     /tmp/ccJsZ0pp.s:399    .text:0000000000000250 .L22
     /tmp/ccJsZ0pp.s:511    .text:0000000000000320 .L18
     /tmp/ccJsZ0pp.s:613    .text:0000000000000398 .L37
     /tmp/ccJsZ0pp.s:713    .text:0000000000000418 .L35
     /tmp/ccJsZ0pp.s:740    .text:0000000000000444 .L29
     /tmp/ccJsZ0pp.s:600    .text:0000000000000390 .L30
     /tmp/ccJsZ0pp.s:661    .text:00000000000003e0 .L31
     /tmp/ccJsZ0pp.s:672    .text:00000000000003f0 .L32
     /tmp/ccJsZ0pp.s:734    .text:000000000000043c .L33
     /tmp/ccJsZ0pp.s:586    .text:0000000000000384 .L34
     /tmp/ccJsZ0pp.s:896    .text:000000000000050c .L36
     /tmp/ccJsZ0pp.s:777    .text:0000000000000460 .L43
     /tmp/ccJsZ0pp.s:862    .text:00000000000004dc .L42
     /tmp/ccJsZ0pp.s:888    .text:0000000000000508 .L44
     /tmp/ccJsZ0pp.s:764    .text:0000000000000458 .L38
     /tmp/ccJsZ0pp.s:825    .text:00000000000004a8 .L39
     /tmp/ccJsZ0pp.s:836    .text:00000000000004b8 .L40
     /tmp/ccJsZ0pp.s:753    .text:000000000000044c .L41
     /tmp/ccJsZ0pp.s:962    .text:0000000000000570 .L46
     /tmp/ccJsZ0pp.s:945    .text:0000000000000550 .L48
     /tmp/ccJsZ0pp.s:1020   .text:00000000000005b4 .L50
     /tmp/ccJsZ0pp.s:1008   .text:00000000000005a4 .L52
     /tmp/ccJsZ0pp.s:1059   .text:00000000000005dc .L56
     /tmp/ccJsZ0pp.s:1085   .text:0000000000000600 .L57
     /tmp/ccJsZ0pp.s:1055   .text:00000000000005d8 .L58
     /tmp/ccJsZ0pp.s:1099   .text:0000000000000610 .L59
     /tmp/ccJsZ0pp.s:1089   .text:0000000000000604 .L55
     /tmp/ccJsZ0pp.s:1151   .text:000000000000065c .L64
     /tmp/ccJsZ0pp.s:1155   .text:0000000000000660 .L62
     /tmp/ccJsZ0pp.s:1134   .text:000000000000063c .L63
     /tmp/ccJsZ0pp.s:1222   .text:00000000000006c0 .L69
     /tmp/ccJsZ0pp.s:1246   .text:00000000000006f4 .L67
     /tmp/ccJsZ0pp.s:1207   .text:00000000000006a8 .L68
     /tmp/ccJsZ0pp.s:1279   .text:0000000000000730 .L72
     /tmp/ccJsZ0pp.s:1298   .text:0000000000000748 .L70
     /tmp/ccJsZ0pp.s:1265   .text:0000000000000718 .L71
     /tmp/ccJsZ0pp.s:1256   .text:00000000000006fc .L82
     /tmp/ccJsZ0pp.s:1331   .text:0000000000000784 .L75
     /tmp/ccJsZ0pp.s:1350   .text:000000000000079c .L73
     /tmp/ccJsZ0pp.s:1317   .text:000000000000076c .L74
     /tmp/ccJsZ0pp.s:1308   .text:0000000000000750 .L83
     /tmp/ccJsZ0pp.s:1380   .text:00000000000007d0 .L79
     /tmp/ccJsZ0pp.s:1408   .text:00000000000007f8 .L78
     /tmp/ccJsZ0pp.s:1424   .text:0000000000000814 .L80
     /tmp/ccJsZ0pp.s:1370   .text:00000000000007c8 .L77
     /tmp/ccJsZ0pp.s:1359   .text:00000000000007a8 .L84
     /tmp/ccJsZ0pp.s:1428   .text:0000000000000818 .L76
     /tmp/ccJsZ0pp.s:1699   .text:0000000000000a00 .L86
     /tmp/ccJsZ0pp.s:1672   .text:00000000000009d0 .L87
     /tmp/ccJsZ0pp.s:1743   .text:0000000000000a54 .L88
     /tmp/ccJsZ0pp.s:1716   .text:0000000000000a24 .L89
     /tmp/ccJsZ0pp.s:1787   .text:0000000000000aa8 .L90
     /tmp/ccJsZ0pp.s:1760   .text:0000000000000a78 .L91
     /tmp/ccJsZ0pp.s:2021   .text:0000000000000cbc .L94
     /tmp/ccJsZ0pp.s:2007   .text:0000000000000ca4 .L95
     /tmp/ccJsZ0pp.s:2080   .text:0000000000000d0c .L98
     /tmp/ccJsZ0pp.s:2062   .text:0000000000000cf0 .L99
GAS LISTING /tmp/ccJsZ0pp.s 			page 80


     /tmp/ccJsZ0pp.s:2110   .text:0000000000000d38 .L101
     /tmp/ccJsZ0pp.s:2100   .text:0000000000000d2c .L97
     /tmp/ccJsZ0pp.s:2229   .text:0000000000000ddc .L109
     /tmp/ccJsZ0pp.s:2314   .text:0000000000000e50 .L107
     /tmp/ccJsZ0pp.s:2212   .text:0000000000000dc8 .L103
     /tmp/ccJsZ0pp.s:2395   .text:0000000000000ec4 .L115
     /tmp/ccJsZ0pp.s:2371   .text:0000000000000ea4 .L111
     /tmp/ccJsZ0pp.s:2377   .text:0000000000000eac .L110
     /tmp/ccJsZ0pp.s:5208   .debug_abbrev:0000000000000000 .Ldebug_abbrev0
     /tmp/ccJsZ0pp.s:8063   .debug_str:00000000000007bb .LASF128
     /tmp/ccJsZ0pp.s:8051   .debug_str:000000000000075d .LASF129
     /tmp/ccJsZ0pp.s:7859   .debug_str:000000000000005d .LASF130
     /tmp/ccJsZ0pp.s:5      .text:0000000000000000 .Ltext0
     /tmp/ccJsZ0pp.s:2435   .text:0000000000000ee4 .Letext0
     /tmp/ccJsZ0pp.s:7849   .debug_line:0000000000000000 .Ldebug_line0
     /tmp/ccJsZ0pp.s:7951   .debug_str:00000000000003f2 .LASF0
     /tmp/ccJsZ0pp.s:7945   .debug_str:00000000000003d0 .LASF1
     /tmp/ccJsZ0pp.s:7961   .debug_str:0000000000000439 .LASF2
     /tmp/ccJsZ0pp.s:8015   .debug_str:000000000000063b .LASF3
     /tmp/ccJsZ0pp.s:8025   .debug_str:00000000000006ac .LASF4
     /tmp/ccJsZ0pp.s:7853   .debug_str:0000000000000024 .LASF5
     /tmp/ccJsZ0pp.s:7997   .debug_str:000000000000056f .LASF6
     /tmp/ccJsZ0pp.s:7955   .debug_str:0000000000000409 .LASF7
     /tmp/ccJsZ0pp.s:7923   .debug_str:000000000000030a .LASF8
     /tmp/ccJsZ0pp.s:7933   .debug_str:0000000000000372 .LASF9
     /tmp/ccJsZ0pp.s:7877   .debug_str:0000000000000133 .LASF10
     /tmp/ccJsZ0pp.s:8075   .debug_str:00000000000008c8 .LASF11
     /tmp/ccJsZ0pp.s:7913   .debug_str:00000000000002a8 .LASF12
     /tmp/ccJsZ0pp.s:7885   .debug_str:0000000000000179 .LASF13
     /tmp/ccJsZ0pp.s:7875   .debug_str:0000000000000123 .LASF14
     /tmp/ccJsZ0pp.s:8047   .debug_str:0000000000000747 .LASF15
     /tmp/ccJsZ0pp.s:7895   .debug_str:00000000000001e6 .LASF16
     /tmp/ccJsZ0pp.s:8039   .debug_str:000000000000071d .LASF17
     /tmp/ccJsZ0pp.s:7907   .debug_str:0000000000000276 .LASF28
     /tmp/ccJsZ0pp.s:8079   .debug_str:00000000000008e2 .LASF54
     /tmp/ccJsZ0pp.s:7879   .debug_str:0000000000000142 .LASF18
     /tmp/ccJsZ0pp.s:7959   .debug_str:0000000000000434 .LASF19
     /tmp/ccJsZ0pp.s:7857   .debug_str:0000000000000052 .LASF24
     /tmp/ccJsZ0pp.s:7993   .debug_str:0000000000000545 .LASF26
     /tmp/ccJsZ0pp.s:8049   .debug_str:0000000000000753 .LASF20
     /tmp/ccJsZ0pp.s:7985   .debug_str:00000000000004f8 .LASF22
     /tmp/ccJsZ0pp.s:8095   .debug_str:00000000000009c1 .LASF21
     /tmp/ccJsZ0pp.s:7925   .debug_str:000000000000031a .LASF23
     /tmp/ccJsZ0pp.s:7949   .debug_str:00000000000003e2 .LASF25
     /tmp/ccJsZ0pp.s:7989   .debug_str:000000000000051c .LASF27
     /tmp/ccJsZ0pp.s:7935   .debug_str:0000000000000380 .LASF29
     /tmp/ccJsZ0pp.s:7973   .debug_str:00000000000004a8 .LASF30
     /tmp/ccJsZ0pp.s:8089   .debug_str:0000000000000996 .LASF31
     /tmp/ccJsZ0pp.s:8111   .debug_str:0000000000000a7d .LASF32
     /tmp/ccJsZ0pp.s:7943   .debug_str:00000000000003c6 .LASF39
     /tmp/ccJsZ0pp.s:7979   .debug_str:00000000000004c1 .LASF51
     /tmp/ccJsZ0pp.s:8023   .debug_str:000000000000069e .LASF33
     /tmp/ccJsZ0pp.s:7929   .debug_str:000000000000034a .LASF34
     /tmp/ccJsZ0pp.s:7937   .debug_str:0000000000000395 .LASF35
     /tmp/ccJsZ0pp.s:8081   .debug_str:00000000000008ea .LASF36
     /tmp/ccJsZ0pp.s:7881   .debug_str:0000000000000147 .LASF37
     /tmp/ccJsZ0pp.s:8013   .debug_str:000000000000060c .LASF38
GAS LISTING /tmp/ccJsZ0pp.s 			page 81


     /tmp/ccJsZ0pp.s:7909   .debug_str:0000000000000282 .LASF96
     /tmp/ccJsZ0pp.s:8009   .debug_str:00000000000005ed .LASF131
     /tmp/ccJsZ0pp.s:8061   .debug_str:00000000000007b6 .LASF40
     /tmp/ccJsZ0pp.s:7965   .debug_str:0000000000000452 .LASF41
     /tmp/ccJsZ0pp.s:8069   .debug_str:0000000000000898 .LASF42
     /tmp/ccJsZ0pp.s:7995   .debug_str:0000000000000564 .LASF43
     /tmp/ccJsZ0pp.s:7921   .debug_str:00000000000002ed .LASF44
     /tmp/ccJsZ0pp.s:7899   .debug_str:000000000000020f .LASF45
     /tmp/ccJsZ0pp.s:7919   .debug_str:00000000000002c2 .LASF46
     /tmp/ccJsZ0pp.s:8005   .debug_str:00000000000005b0 .LASF47
     /tmp/ccJsZ0pp.s:7957   .debug_str:000000000000041c .LASF48
     /tmp/ccJsZ0pp.s:8087   .debug_str:0000000000000972 .LASF49
     /tmp/ccJsZ0pp.s:8107   .debug_str:0000000000000a49 .LASF50
     /tmp/ccJsZ0pp.s:7851   .debug_str:0000000000000000 .LASF52
     /tmp/ccJsZ0pp.s:7975   .debug_str:00000000000004b7 .LASF53
     /tmp/ccJsZ0pp.s:8035   .debug_str:000000000000070b .LASF55
     /tmp/ccJsZ0pp.s:8041   .debug_str:0000000000000733 .LASF132
     /tmp/ccJsZ0pp.s:7901   .debug_str:0000000000000238 .LASF56
     /tmp/ccJsZ0pp.s:7927   .debug_str:000000000000033c .LASF57
     /tmp/ccJsZ0pp.s:8073   .debug_str:00000000000008bd .LASF58
     /tmp/ccJsZ0pp.s:7911   .debug_str:0000000000000299 .LASF59
     /tmp/ccJsZ0pp.s:8003   .debug_str:000000000000059e .LASF60
     /tmp/ccJsZ0pp.s:8077   .debug_str:00000000000008d3 .LASF61
     /tmp/ccJsZ0pp.s:8011   .debug_str:0000000000000604 .LASF62
     /tmp/ccJsZ0pp.s:8059   .debug_str:00000000000007a7 .LASF63
     /tmp/ccJsZ0pp.s:7991   .debug_str:0000000000000540 .LASF64
     /tmp/ccJsZ0pp.s:7931   .debug_str:000000000000036d .LASF65
     /tmp/ccJsZ0pp.s:7953   .debug_str:0000000000000404 .LASF66
     /tmp/ccJsZ0pp.s:7889   .debug_str:000000000000019a .LASF67
     /tmp/ccJsZ0pp.s:8065   .debug_str:000000000000087f .LASF68
     /tmp/ccJsZ0pp.s:7987   .debug_str:0000000000000515 .LASF69
     /tmp/ccJsZ0pp.s:8055   .debug_str:0000000000000790 .LASF70
     /tmp/ccJsZ0pp.s:7883   .debug_str:0000000000000152 .LASF71
     /tmp/ccJsZ0pp.s:7887   .debug_str:0000000000000189 .LASF72
     /tmp/ccJsZ0pp.s:8053   .debug_str:000000000000076a .LASF73
     /tmp/ccJsZ0pp.s:7871   .debug_str:00000000000000f7 .LASF74
     /tmp/ccJsZ0pp.s:8103   .debug_str:0000000000000a16 .LASF75
     /tmp/ccJsZ0pp.s:7897   .debug_str:00000000000001fc .LASF76
     /tmp/ccJsZ0pp.s:7867   .debug_str:00000000000000ca .LASF77
     /tmp/ccJsZ0pp.s:8017   .debug_str:0000000000000649 .LASF78
     /tmp/ccJsZ0pp.s:7969   .debug_str:0000000000000474 .LASF79
     /tmp/ccJsZ0pp.s:7981   .debug_str:00000000000004de .LASF88
     /tmp/ccJsZ0pp.s:7893   .debug_str:00000000000001c6 .LASF90
     /tmp/ccJsZ0pp.s:7905   .debug_str:0000000000000264 .LASF80
     /tmp/ccJsZ0pp.s:8085   .debug_str:000000000000093f .LASF81
     /tmp/ccJsZ0pp.s:8093   .debug_str:00000000000009b9 .LASF82
     /tmp/ccJsZ0pp.s:7873   .debug_str:0000000000000107 .LASF83
     /tmp/ccJsZ0pp.s:7917   .debug_str:00000000000002bc .LASF84
     /tmp/ccJsZ0pp.s:8109   .debug_str:0000000000000a61 .LASF85
     /tmp/ccJsZ0pp.s:7891   .debug_str:00000000000001a9 .LASF86
     /tmp/ccJsZ0pp.s:8083   .debug_str:000000000000090d .LASF87
     /tmp/ccJsZ0pp.s:8091   .debug_str:00000000000009a3 .LASF89
     /tmp/ccJsZ0pp.s:8021   .debug_str:0000000000000673 .LASF91
     /tmp/ccJsZ0pp.s:8097   .debug_str:00000000000009cd .LASF92
     /tmp/ccJsZ0pp.s:8031   .debug_str:00000000000006da .LASF93
     /tmp/ccJsZ0pp.s:7863   .debug_str:0000000000000096 .LASF94
     /tmp/ccJsZ0pp.s:8099   .debug_str:00000000000009de .LASF95
GAS LISTING /tmp/ccJsZ0pp.s 			page 82


     /tmp/ccJsZ0pp.s:8071   .debug_str:00000000000008a5 .LASF97
     /tmp/ccJsZ0pp.s:8057   .debug_str:00000000000007a2 .LASF98
     /tmp/ccJsZ0pp.s:7967   .debug_str:000000000000045d .LASF99
     /tmp/ccJsZ0pp.s:7939   .debug_str:00000000000003a3 .LASF133
     /tmp/ccJsZ0pp.s:2047   .text:0000000000000ce0 .LFB59
     /tmp/ccJsZ0pp.s:2117   .text:0000000000000d40 .LFE59
     /tmp/ccJsZ0pp.s:7915   .debug_str:00000000000002b7 .LASF102
     /tmp/ccJsZ0pp.s:6442   .debug_loc:0000000000000000 .LLST69
     /tmp/ccJsZ0pp.s:8019   .debug_str:0000000000000659 .LASF100
     /tmp/ccJsZ0pp.s:7971   .debug_str:0000000000000499 .LASF101
     /tmp/ccJsZ0pp.s:6467   .debug_loc:0000000000000062 .LLST70
     /tmp/ccJsZ0pp.s:1984   .text:0000000000000c78 .LFB58
     /tmp/ccJsZ0pp.s:2041   .text:0000000000000ce0 .LFE58
     /tmp/ccJsZ0pp.s:2003   .text:0000000000000c9c .LBB127
     /tmp/ccJsZ0pp.s:2022   .text:0000000000000cbc .LBE127
     /tmp/ccJsZ0pp.s:6487   .debug_loc:00000000000000bf .LLST68
     /tmp/ccJsZ0pp.s:2014   .text:0000000000000cb4 .LVL240
     /tmp/ccJsZ0pp.s:2001   .text:0000000000000c9c .LVL238
     /tmp/ccJsZ0pp.s:2027   .text:0000000000000ccc .LVL242
     /tmp/ccJsZ0pp.s:1515   .text:0000000000000838 .LFB57
     /tmp/ccJsZ0pp.s:1970   .text:0000000000000c78 .LFE57
     /tmp/ccJsZ0pp.s:6494   .debug_loc:00000000000000e2 .LLST59
     /tmp/ccJsZ0pp.s:8105   .debug_str:0000000000000a3c .LASF103
     /tmp/ccJsZ0pp.s:6512   .debug_loc:000000000000012e .LLST60
     /tmp/ccJsZ0pp.s:8027   .debug_str:00000000000006b3 .LASF104
     /tmp/ccJsZ0pp.s:6519   .debug_loc:0000000000000151 .LLST61
     /tmp/ccJsZ0pp.s:8007   .debug_str:00000000000005e8 .LASF105
     /tmp/ccJsZ0pp.s:6526   .debug_loc:0000000000000174 .LLST62
     /tmp/ccJsZ0pp.s:8045   .debug_str:0000000000000741 .LASF106
     /tmp/ccJsZ0pp.s:6533   .debug_loc:0000000000000197 .LLST63
     /tmp/ccJsZ0pp.s:8033   .debug_str:0000000000000700 .LASF107
     /tmp/ccJsZ0pp.s:6540   .debug_loc:00000000000001ba .LLST64
     /tmp/ccJsZ0pp.s:1668   .text:00000000000009cc .LBB118
     /tmp/ccJsZ0pp.s:1700   .text:0000000000000a00 .LBE118
     /tmp/ccJsZ0pp.s:6564   .debug_loc:00000000000001fe .LLST65
     /tmp/ccJsZ0pp.s:1677   .text:00000000000009d4 .LBB119
     /tmp/ccJsZ0pp.s:1681   .text:00000000000009d4 .LBE119
     /tmp/ccJsZ0pp.s:1687   .text:00000000000009e8 .LVL191
     /tmp/ccJsZ0pp.s:1692   .text:00000000000009f8 .LVL192
     /tmp/ccJsZ0pp.s:1712   .text:0000000000000a20 .LBB121
     /tmp/ccJsZ0pp.s:1744   .text:0000000000000a54 .LBE121
     /tmp/ccJsZ0pp.s:6571   .debug_loc:0000000000000221 .LLST66
     /tmp/ccJsZ0pp.s:1721   .text:0000000000000a28 .LBB122
     /tmp/ccJsZ0pp.s:1725   .text:0000000000000a28 .LBE122
     /tmp/ccJsZ0pp.s:1731   .text:0000000000000a3c .LVL198
     /tmp/ccJsZ0pp.s:1736   .text:0000000000000a4c .LVL199
     /tmp/ccJsZ0pp.s:1756   .text:0000000000000a74 .LBB124
     /tmp/ccJsZ0pp.s:1788   .text:0000000000000aa8 .LBE124
     /tmp/ccJsZ0pp.s:6578   .debug_loc:0000000000000244 .LLST67
     /tmp/ccJsZ0pp.s:1765   .text:0000000000000a7c .LBB125
     /tmp/ccJsZ0pp.s:1769   .text:0000000000000a7c .LBE125
     /tmp/ccJsZ0pp.s:1775   .text:0000000000000a90 .LVL205
     /tmp/ccJsZ0pp.s:1780   .text:0000000000000aa0 .LVL206
     /tmp/ccJsZ0pp.s:1541   .text:000000000000086c .LVL167
     /tmp/ccJsZ0pp.s:1546   .text:000000000000087c .LVL168
     /tmp/ccJsZ0pp.s:1551   .text:0000000000000888 .LVL169
     /tmp/ccJsZ0pp.s:1556   .text:0000000000000898 .LVL170
GAS LISTING /tmp/ccJsZ0pp.s 			page 83


     /tmp/ccJsZ0pp.s:1561   .text:00000000000008a8 .LVL171
     /tmp/ccJsZ0pp.s:1568   .text:00000000000008bc .LVL172
     /tmp/ccJsZ0pp.s:1573   .text:00000000000008cc .LVL173
     /tmp/ccJsZ0pp.s:1598   .text:00000000000008fc .LVL176
     /tmp/ccJsZ0pp.s:1605   .text:0000000000000910 .LVL177
     /tmp/ccJsZ0pp.s:1610   .text:0000000000000920 .LVL178
     /tmp/ccJsZ0pp.s:1615   .text:0000000000000930 .LVL179
     /tmp/ccJsZ0pp.s:1622   .text:0000000000000944 .LVL180
     /tmp/ccJsZ0pp.s:1627   .text:0000000000000954 .LVL181
     /tmp/ccJsZ0pp.s:1632   .text:0000000000000964 .LVL182
     /tmp/ccJsZ0pp.s:1639   .text:0000000000000978 .LVL183
     /tmp/ccJsZ0pp.s:1644   .text:0000000000000988 .LVL184
     /tmp/ccJsZ0pp.s:1649   .text:0000000000000998 .LVL185
     /tmp/ccJsZ0pp.s:1656   .text:00000000000009ac .LVL186
     /tmp/ccJsZ0pp.s:1661   .text:00000000000009bc .LVL187
     /tmp/ccJsZ0pp.s:1666   .text:00000000000009cc .LVL188
     /tmp/ccJsZ0pp.s:1705   .text:0000000000000a10 .LVL194
     /tmp/ccJsZ0pp.s:1710   .text:0000000000000a20 .LVL195
     /tmp/ccJsZ0pp.s:1749   .text:0000000000000a64 .LVL201
     /tmp/ccJsZ0pp.s:1754   .text:0000000000000a74 .LVL202
     /tmp/ccJsZ0pp.s:1793   .text:0000000000000ab8 .LVL208
     /tmp/ccJsZ0pp.s:1798   .text:0000000000000ac8 .LVL209
     /tmp/ccJsZ0pp.s:1805   .text:0000000000000adc .LVL210
     /tmp/ccJsZ0pp.s:1810   .text:0000000000000aec .LVL211
     /tmp/ccJsZ0pp.s:1815   .text:0000000000000afc .LVL212
     /tmp/ccJsZ0pp.s:1822   .text:0000000000000b10 .LVL213
     /tmp/ccJsZ0pp.s:1827   .text:0000000000000b20 .LVL214
     /tmp/ccJsZ0pp.s:1832   .text:0000000000000b30 .LVL215
     /tmp/ccJsZ0pp.s:1839   .text:0000000000000b44 .LVL216
     /tmp/ccJsZ0pp.s:1844   .text:0000000000000b54 .LVL217
     /tmp/ccJsZ0pp.s:1873   .text:0000000000000b8c .LVL221
     /tmp/ccJsZ0pp.s:1880   .text:0000000000000ba0 .LVL222
     /tmp/ccJsZ0pp.s:1885   .text:0000000000000bb0 .LVL223
     /tmp/ccJsZ0pp.s:1892   .text:0000000000000bc4 .LVL224
     /tmp/ccJsZ0pp.s:1897   .text:0000000000000bd4 .LVL225
     /tmp/ccJsZ0pp.s:1902   .text:0000000000000be4 .LVL226
     /tmp/ccJsZ0pp.s:1913   .text:0000000000000c00 .LVL227
     /tmp/ccJsZ0pp.s:1918   .text:0000000000000c10 .LVL228
     /tmp/ccJsZ0pp.s:1937   .text:0000000000000c38 .LVL231
     /tmp/ccJsZ0pp.s:1942   .text:0000000000000c48 .LVL232
     /tmp/ccJsZ0pp.s:1947   .text:0000000000000c58 .LVL233
     /tmp/ccJsZ0pp.s:1178   .text:0000000000000678 .LFB56
     /tmp/ccJsZ0pp.s:1450   .text:0000000000000838 .LFE56
     /tmp/ccJsZ0pp.s:6585   .debug_loc:0000000000000267 .LLST45
     /tmp/ccJsZ0pp.s:7869   .debug_str:00000000000000f2 .LASF108
     /tmp/ccJsZ0pp.s:6603   .debug_loc:00000000000002b3 .LLST46
     /tmp/ccJsZ0pp.s:7861   .debug_str:0000000000000091 .LASF109
     /tmp/ccJsZ0pp.s:6621   .debug_loc:00000000000002ff .LLST47
     /tmp/ccJsZ0pp.s:6663   .debug_loc:00000000000003bd .LLST48
     /tmp/ccJsZ0pp.s:8113   .debug_str:0000000000000a8e .LASF110
     /tmp/ccJsZ0pp.s:6718   .debug_loc:00000000000004c4 .LLST49
     /tmp/ccJsZ0pp.s:7941   .debug_str:00000000000003bb .LASF111
     /tmp/ccJsZ0pp.s:6746   .debug_loc:0000000000000548 .LLST50
     /tmp/ccJsZ0pp.s:1208   .text:00000000000006a8 .LBB102
     /tmp/ccJsZ0pp.s:7771   .debug_ranges:0000000000000000 .Ldebug_ranges0
     /tmp/ccJsZ0pp.s:6766   .debug_loc:00000000000005a5 .LLST51
     /tmp/ccJsZ0pp.s:1241   .text:00000000000006e4 .LVL131
GAS LISTING /tmp/ccJsZ0pp.s 			page 84


     /tmp/ccJsZ0pp.s:1257   .text:00000000000006fc .LBB106
     /tmp/ccJsZ0pp.s:6774   .debug_loc:00000000000005c9 .LLST53
     /tmp/ccJsZ0pp.s:1262   .text:000000000000070c .LVL135
     /tmp/ccJsZ0pp.s:1309   .text:0000000000000750 .LBB110
     /tmp/ccJsZ0pp.s:6787   .debug_loc:0000000000000601 .LLST55
     /tmp/ccJsZ0pp.s:1314   .text:0000000000000760 .LVL144
     /tmp/ccJsZ0pp.s:1360   .text:00000000000007a8 .LBB114
     /tmp/ccJsZ0pp.s:6800   .debug_loc:0000000000000639 .LLST57
     /tmp/ccJsZ0pp.s:1365   .text:00000000000007b8 .LVL153
     /tmp/ccJsZ0pp.s:1218   .text:00000000000006bc .LVL127
     /tmp/ccJsZ0pp.s:1275   .text:000000000000072c .LVL137
     /tmp/ccJsZ0pp.s:1327   .text:0000000000000780 .LVL146
     /tmp/ccJsZ0pp.s:1418   .text:000000000000080c .LVL159
     /tmp/ccJsZ0pp.s:1112   .text:0000000000000618 .LFB55
     /tmp/ccJsZ0pp.s:1172   .text:0000000000000678 .LFE55
     /tmp/ccJsZ0pp.s:8037   .debug_str:0000000000000718 .LASF112
     /tmp/ccJsZ0pp.s:6813   .debug_loc:0000000000000671 .LLST43
     /tmp/ccJsZ0pp.s:1130   .text:0000000000000634 .LBB101
     /tmp/ccJsZ0pp.s:1152   .text:000000000000065c .LBE101
     /tmp/ccJsZ0pp.s:6831   .debug_loc:00000000000006bd .LLST44
     /tmp/ccJsZ0pp.s:1142   .text:0000000000000650 .LVL119
     /tmp/ccJsZ0pp.s:1036   .text:00000000000005c0 .LFB54
     /tmp/ccJsZ0pp.s:1106   .text:0000000000000618 .LFE54
     /tmp/ccJsZ0pp.s:6838   .debug_loc:00000000000006e0 .LLST40
     /tmp/ccJsZ0pp.s:6874   .debug_loc:000000000000076b .LLST41
     /tmp/ccJsZ0pp.s:7977   .debug_str:00000000000004bc .LASF113
     /tmp/ccJsZ0pp.s:6890   .debug_loc:00000000000007b5 .LLST42
     /tmp/ccJsZ0pp.s:987    .text:000000000000058c .LFB53
     /tmp/ccJsZ0pp.s:1030   .text:00000000000005c0 .LFE53
     /tmp/ccJsZ0pp.s:6918   .debug_loc:0000000000000838 .LLST37
     /tmp/ccJsZ0pp.s:6929   .debug_loc:000000000000086e .LLST38
     /tmp/ccJsZ0pp.s:6941   .debug_loc:00000000000008a5 .LLST39
     /tmp/ccJsZ0pp.s:923    .text:000000000000052c .LFB52
     /tmp/ccJsZ0pp.s:981    .text:000000000000058c .LFE52
     /tmp/ccJsZ0pp.s:6953   .debug_loc:00000000000008dc .LLST35
     /tmp/ccJsZ0pp.s:941    .text:0000000000000548 .LBB98
     /tmp/ccJsZ0pp.s:963    .text:0000000000000570 .LBE98
     /tmp/ccJsZ0pp.s:6971   .debug_loc:0000000000000928 .LLST36
     /tmp/ccJsZ0pp.s:953    .text:0000000000000564 .LVL96
     /tmp/ccJsZ0pp.s:2336   .text:0000000000000e68 .LFB51
     /tmp/ccJsZ0pp.s:2410   .text:0000000000000ee4 .LFE51
     /tmp/ccJsZ0pp.s:6982   .debug_loc:000000000000095e .LLST79
     /tmp/ccJsZ0pp.s:7004   .debug_loc:00000000000009bd .LLST80
     /tmp/ccJsZ0pp.s:7019   .debug_loc:0000000000000a06 .LLST81
     /tmp/ccJsZ0pp.s:7030   .debug_loc:0000000000000a3c .LLST82
     /tmp/ccJsZ0pp.s:7947   .debug_str:00000000000003dd .LASF134
     /tmp/ccJsZ0pp.s:2358   .text:0000000000000e90 .LVL274
     /tmp/ccJsZ0pp.s:2364   .text:0000000000000e9c .LVL276
     /tmp/ccJsZ0pp.s:2375   .text:0000000000000eac .LVL278
     /tmp/ccJsZ0pp.s:2405   .text:0000000000000edc .LVL283
     /tmp/ccJsZ0pp.s:552    .text:0000000000000350 .LFB50
     /tmp/ccJsZ0pp.s:917    .text:000000000000052c .LFE50
     /tmp/ccJsZ0pp.s:7051   .debug_loc:0000000000000a9a .LLST25
     /tmp/ccJsZ0pp.s:7101   .debug_loc:0000000000000b7e .LLST26
     /tmp/ccJsZ0pp.s:7151   .debug_loc:0000000000000c62 .LLST27
     /tmp/ccJsZ0pp.s:7188   .debug_loc:0000000000000d0c .LLST28
     /tmp/ccJsZ0pp.s:8043   .debug_str:0000000000000738 .LASF114
GAS LISTING /tmp/ccJsZ0pp.s 			page 85


     /tmp/ccJsZ0pp.s:7204   .debug_loc:0000000000000d56 .LLST29
     /tmp/ccJsZ0pp.s:8067   .debug_str:0000000000000887 .LASF115
     /tmp/ccJsZ0pp.s:7231   .debug_loc:0000000000000d9c .LLST30
     /tmp/ccJsZ0pp.s:681    .text:00000000000003fc .LBB77
     /tmp/ccJsZ0pp.s:691    .text:0000000000000408 .LBE77
     /tmp/ccJsZ0pp.s:7252   .debug_loc:0000000000000dfa .LLST31
     /tmp/ccJsZ0pp.s:660    .text:00000000000003e0 .LVL71
     /tmp/ccJsZ0pp.s:671    .text:00000000000003f0 .LVL72
     /tmp/ccJsZ0pp.s:747    .text:0000000000000444 .LBB88
     /tmp/ccJsZ0pp.s:892    .text:0000000000000508 .LBE88
     /tmp/ccJsZ0pp.s:7259   .debug_loc:0000000000000e1d .LLST32
     /tmp/ccJsZ0pp.s:7275   .debug_loc:0000000000000e67 .LLST33
     /tmp/ccJsZ0pp.s:845    .text:00000000000004c4 .LBB92
     /tmp/ccJsZ0pp.s:854    .text:00000000000004d0 .LBE92
     /tmp/ccJsZ0pp.s:7302   .debug_loc:0000000000000ead .LLST34
     /tmp/ccJsZ0pp.s:824    .text:00000000000004a8 .LVL86
     /tmp/ccJsZ0pp.s:835    .text:00000000000004b8 .LVL87
     /tmp/ccJsZ0pp.s:149    .text:00000000000000d0 .LFB49
     /tmp/ccJsZ0pp.s:336    .text:00000000000001f4 .LFE49
     /tmp/ccJsZ0pp.s:7309   .debug_loc:0000000000000ed0 .LLST8
     /tmp/ccJsZ0pp.s:7327   .debug_loc:0000000000000f1c .LLST9
     /tmp/ccJsZ0pp.s:7350   .debug_loc:0000000000000f7c .LLST10
     /tmp/ccJsZ0pp.s:223    .text:000000000000014c .LBB62
     /tmp/ccJsZ0pp.s:243    .text:0000000000000168 .LBE62
     /tmp/ccJsZ0pp.s:7363   .debug_loc:0000000000000fb4 .LLST13
     /tmp/ccJsZ0pp.s:271    .text:0000000000000194 .LBB65
     /tmp/ccJsZ0pp.s:303    .text:00000000000001c0 .LBE65
     /tmp/ccJsZ0pp.s:7379   .debug_loc:0000000000000ffe .LLST14
     /tmp/ccJsZ0pp.s:7391   .debug_loc:0000000000001035 .LLST15
     /tmp/ccJsZ0pp.s:290    .text:00000000000001b0 .LVL32
     /tmp/ccJsZ0pp.s:7398   .debug_loc:0000000000001058 .LLST7
     /tmp/ccJsZ0pp.s:172    .text:00000000000000f4 .LBB59
     /tmp/ccJsZ0pp.s:7416   .debug_loc:0000000000001095 .LLST11
     /tmp/ccJsZ0pp.s:249    .text:0000000000000178 .LVL26
     /tmp/ccJsZ0pp.s:194    .text:0000000000000120 .LVL18
     /tmp/ccJsZ0pp.s:2123   .text:0000000000000d40 .LFB48
     /tmp/ccJsZ0pp.s:2330   .text:0000000000000e68 .LFE48
     /tmp/ccJsZ0pp.s:7429   .debug_loc:00000000000010cd .LLST71
     /tmp/ccJsZ0pp.s:2232   .text:0000000000000ddc .LBB129
     /tmp/ccJsZ0pp.s:2315   .text:0000000000000e50 .LBE129
     /tmp/ccJsZ0pp.s:7451   .debug_loc:000000000000112c .LLST72
     /tmp/ccJsZ0pp.s:2277   .text:0000000000000e1c .LBB135
     /tmp/ccJsZ0pp.s:2308   .text:0000000000000e4c .LBE135
     /tmp/ccJsZ0pp.s:7458   .debug_loc:000000000000114f .LLST75
     /tmp/ccJsZ0pp.s:2250   .text:0000000000000e00 .LBB130
     /tmp/ccJsZ0pp.s:2259   .text:0000000000000e0c .LBE130
     /tmp/ccJsZ0pp.s:7470   .debug_loc:0000000000001186 .LLST73
     /tmp/ccJsZ0pp.s:2265   .text:0000000000000e10 .LBB133
     /tmp/ccJsZ0pp.s:2272   .text:0000000000000e14 .LBE133
     /tmp/ccJsZ0pp.s:7477   .debug_loc:00000000000011a9 .LLST74
     /tmp/ccJsZ0pp.s:2239   .text:0000000000000df0 .LVL263
     /tmp/ccJsZ0pp.s:2151   .text:0000000000000d68 .LBB137
     /tmp/ccJsZ0pp.s:2213   .text:0000000000000dc8 .LBE137
     /tmp/ccJsZ0pp.s:7484   .debug_loc:00000000000011cc .LLST76
     /tmp/ccJsZ0pp.s:7491   .debug_loc:00000000000011ef .LLST77
     /tmp/ccJsZ0pp.s:2177   .text:0000000000000d94 .LBB138
     /tmp/ccJsZ0pp.s:2186   .text:0000000000000da0 .LBE138
GAS LISTING /tmp/ccJsZ0pp.s 			page 86


     /tmp/ccJsZ0pp.s:7503   .debug_loc:0000000000001226 .LLST78
     /tmp/ccJsZ0pp.s:2159   .text:0000000000000d7c .LVL255
     /tmp/ccJsZ0pp.s:2320   .text:0000000000000e58 .LVL271
     /tmp/ccJsZ0pp.s:10     .text:0000000000000000 .LFB47
     /tmp/ccJsZ0pp.s:143    .text:00000000000000d0 .LFE47
     /tmp/ccJsZ0pp.s:7510   .debug_loc:0000000000001249 .LLST0
     /tmp/ccJsZ0pp.s:8121   .debug_str:0000000000000ad3 .LASF116
     /tmp/ccJsZ0pp.s:7528   .debug_loc:0000000000001295 .LLST1
     /tmp/ccJsZ0pp.s:7551   .debug_loc:0000000000001304 .LLST2
     /tmp/ccJsZ0pp.s:7562   .debug_loc:000000000000133a .LLST3
     /tmp/ccJsZ0pp.s:58     .text:0000000000000044 .LBB55
     /tmp/ccJsZ0pp.s:7573   .debug_loc:0000000000001370 .LLST4
     /tmp/ccJsZ0pp.s:64     .text:0000000000000054 .LVL6
     /tmp/ccJsZ0pp.s:77     .text:0000000000000074 .LVL8
     /tmp/ccJsZ0pp.s:342    .text:00000000000001f4 .LFB46
     /tmp/ccJsZ0pp.s:546    .text:0000000000000350 .LFE46
     /tmp/ccJsZ0pp.s:7586   .debug_loc:00000000000013a8 .LLST16
     /tmp/ccJsZ0pp.s:7616   .debug_loc:000000000000142d .LLST17
     /tmp/ccJsZ0pp.s:7646   .debug_loc:00000000000014b2 .LLST18
     /tmp/ccJsZ0pp.s:7676   .debug_loc:0000000000001537 .LLST19
     /tmp/ccJsZ0pp.s:7706   .debug_loc:00000000000015bc .LLST20
     /tmp/ccJsZ0pp.s:7865   .debug_str:00000000000000ab .LASF117
     /tmp/ccJsZ0pp.s:7717   .debug_loc:00000000000015f2 .LLST21
     /tmp/ccJsZ0pp.s:7734   .debug_loc:000000000000161f .LLST22
     /tmp/ccJsZ0pp.s:391    .text:0000000000000244 .LBB68
     /tmp/ccJsZ0pp.s:7745   .debug_loc:0000000000001655 .LLST23
     /tmp/ccJsZ0pp.s:478    .text:00000000000002e0 .LVL49
     /tmp/ccJsZ0pp.s:409    .text:0000000000000268 .LVL45
     /tmp/ccJsZ0pp.s:500    .text:000000000000030c .LVL52
     /tmp/ccJsZ0pp.s:7963   .debug_str:000000000000044c .LASF118
     /tmp/ccJsZ0pp.s:8119   .debug_str:0000000000000ac9 .LASF119
     /tmp/ccJsZ0pp.s:7855   .debug_str:000000000000002b .LASF135
     /tmp/ccJsZ0pp.s:8001   .debug_str:000000000000058b .LASF120
     /tmp/ccJsZ0pp.s:8101   .debug_str:0000000000000a0a .LASF122
     /tmp/ccJsZ0pp.s:8029   .debug_str:00000000000006cb .LASF121
     /tmp/ccJsZ0pp.s:7999   .debug_str:0000000000000582 .LASF123
     /tmp/ccJsZ0pp.s:8117   .debug_str:0000000000000ab0 .LASF124
     /tmp/ccJsZ0pp.s:7983   .debug_str:00000000000004e9 .LASF125
     /tmp/ccJsZ0pp.s:7903   .debug_str:0000000000000243 .LASF126
     /tmp/ccJsZ0pp.s:8115   .debug_str:0000000000000a94 .LASF127
     /tmp/ccJsZ0pp.s:2050   .text:0000000000000ce0 .LVL244
     /tmp/ccJsZ0pp.s:2094   .text:0000000000000d24 .LVL249
     /tmp/ccJsZ0pp.s:2109   .text:0000000000000d38 .LVL251
     /tmp/ccJsZ0pp.s:2114   .text:0000000000000d3c .LVL252
     /tmp/ccJsZ0pp.s:2058   .text:0000000000000cec .LVL245
     /tmp/ccJsZ0pp.s:2061   .text:0000000000000cf0 .LVL246
     /tmp/ccJsZ0pp.s:2076   .text:0000000000000d08 .LVL247
     /tmp/ccJsZ0pp.s:2079   .text:0000000000000d0c .LVL248
     /tmp/ccJsZ0pp.s:2097   .text:0000000000000d28 .LVL250
     /tmp/ccJsZ0pp.s:2006   .text:0000000000000ca4 .LVL239
     /tmp/ccJsZ0pp.s:2036   .text:0000000000000cd8 .LVL243
     /tmp/ccJsZ0pp.s:1518   .text:0000000000000838 .LVL165
     /tmp/ccJsZ0pp.s:1539   .text:0000000000000864 .LVL166
     /tmp/ccJsZ0pp.s:1959   .text:0000000000000c68 .LVL235
     /tmp/ccJsZ0pp.s:1585   .text:00000000000008e0 .LVL174
     /tmp/ccJsZ0pp.s:1962   .text:0000000000000c6c .LVL236
     /tmp/ccJsZ0pp.s:1593   .text:00000000000008ec .LVL175
GAS LISTING /tmp/ccJsZ0pp.s 			page 87


     /tmp/ccJsZ0pp.s:1671   .text:00000000000009d0 .LVL189
     /tmp/ccJsZ0pp.s:1857   .text:0000000000000b6c .LVL218
     /tmp/ccJsZ0pp.s:1965   .text:0000000000000c70 .LVL237
     /tmp/ccJsZ0pp.s:1868   .text:0000000000000b7c .LVL220
     /tmp/ccJsZ0pp.s:1956   .text:0000000000000c64 .LVL234
     /tmp/ccJsZ0pp.s:1929   .text:0000000000000c24 .LVL229
     /tmp/ccJsZ0pp.s:1935   .text:0000000000000c30 .LVL230
     /tmp/ccJsZ0pp.s:1715   .text:0000000000000a24 .LVL196
     /tmp/ccJsZ0pp.s:1759   .text:0000000000000a78 .LVL203
     /tmp/ccJsZ0pp.s:1861   .text:0000000000000b70 .LVL219
     /tmp/ccJsZ0pp.s:1181   .text:0000000000000678 .LVL123
     /tmp/ccJsZ0pp.s:1206   .text:00000000000006a8 .LVL126
     /tmp/ccJsZ0pp.s:1445   .text:0000000000000830 .LVL164
     /tmp/ccJsZ0pp.s:1442   .text:000000000000082c .LVL163
     /tmp/ccJsZ0pp.s:1201   .text:00000000000006a0 .LVL124
     /tmp/ccJsZ0pp.s:1221   .text:00000000000006c0 .LVL128
     /tmp/ccJsZ0pp.s:1227   .text:00000000000006c4 .LVL129
     /tmp/ccJsZ0pp.s:1245   .text:00000000000006f4 .LVL132
     /tmp/ccJsZ0pp.s:1255   .text:00000000000006fc .LVL134
     /tmp/ccJsZ0pp.s:1278   .text:0000000000000730 .LVL138
     /tmp/ccJsZ0pp.s:1284   .text:0000000000000734 .LVL139
     /tmp/ccJsZ0pp.s:1297   .text:0000000000000748 .LVL141
     /tmp/ccJsZ0pp.s:1307   .text:0000000000000750 .LVL143
     /tmp/ccJsZ0pp.s:1330   .text:0000000000000784 .LVL147
     /tmp/ccJsZ0pp.s:1336   .text:0000000000000788 .LVL148
     /tmp/ccJsZ0pp.s:1349   .text:000000000000079c .LVL150
     /tmp/ccJsZ0pp.s:1204   .text:00000000000006a4 .LVL125
     /tmp/ccJsZ0pp.s:1231   .text:00000000000006c8 .LVL130
     /tmp/ccJsZ0pp.s:1288   .text:0000000000000738 .LVL140
     /tmp/ccJsZ0pp.s:1340   .text:000000000000078c .LVL149
     /tmp/ccJsZ0pp.s:1358   .text:00000000000007a8 .LVL152
     /tmp/ccJsZ0pp.s:1356   .text:00000000000007a4 .LVL151
     /tmp/ccJsZ0pp.s:1369   .text:00000000000007c8 .LVL154
     /tmp/ccJsZ0pp.s:1379   .text:00000000000007d0 .LVL155
     /tmp/ccJsZ0pp.s:1406   .text:00000000000007f4 .LVL157
     /tmp/ccJsZ0pp.s:1423   .text:0000000000000814 .LVL160
     /tmp/ccJsZ0pp.s:1427   .text:0000000000000818 .LVL161
     /tmp/ccJsZ0pp.s:1437   .text:0000000000000824 .LVL162
     /tmp/ccJsZ0pp.s:1268   .text:0000000000000718 .LVL136
     /tmp/ccJsZ0pp.s:1320   .text:000000000000076c .LVL145
     /tmp/ccJsZ0pp.s:1400   .text:00000000000007ec .LVL156
     /tmp/ccJsZ0pp.s:1411   .text:00000000000007f8 .LVL158
     /tmp/ccJsZ0pp.s:1115   .text:0000000000000618 .LVL117
     /tmp/ccJsZ0pp.s:1133   .text:000000000000063c .LVL118
     /tmp/ccJsZ0pp.s:1167   .text:0000000000000670 .LVL122
     /tmp/ccJsZ0pp.s:1164   .text:000000000000066c .LVL121
     /tmp/ccJsZ0pp.s:1039   .text:00000000000005c0 .LVL105
     /tmp/ccJsZ0pp.s:1082   .text:00000000000005fc .LVL112
     /tmp/ccJsZ0pp.s:1084   .text:0000000000000600 .LVL113
     /tmp/ccJsZ0pp.s:1088   .text:0000000000000604 .LVL114
     /tmp/ccJsZ0pp.s:1098   .text:0000000000000610 .LVL115
     /tmp/ccJsZ0pp.s:1103   .text:0000000000000614 .LVL116
     /tmp/ccJsZ0pp.s:1047   .text:00000000000005cc .LVL106
     /tmp/ccJsZ0pp.s:1054   .text:00000000000005d8 .LVL107
     /tmp/ccJsZ0pp.s:1078   .text:00000000000005f4 .LVL111
     /tmp/ccJsZ0pp.s:1058   .text:00000000000005dc .LVL108
     /tmp/ccJsZ0pp.s:1070   .text:00000000000005e8 .LVL110
GAS LISTING /tmp/ccJsZ0pp.s 			page 88


     /tmp/ccJsZ0pp.s:990    .text:000000000000058c .LVL100
     /tmp/ccJsZ0pp.s:1007   .text:00000000000005a4 .LVL102
     /tmp/ccJsZ0pp.s:999    .text:000000000000059c .LVL101
     /tmp/ccJsZ0pp.s:926    .text:000000000000052c .LVL94
     /tmp/ccJsZ0pp.s:944    .text:0000000000000550 .LVL95
     /tmp/ccJsZ0pp.s:976    .text:0000000000000584 .LVL99
     /tmp/ccJsZ0pp.s:973    .text:0000000000000580 .LVL98
     /tmp/ccJsZ0pp.s:2339   .text:0000000000000e68 .LVL272
     /tmp/ccJsZ0pp.s:2356   .text:0000000000000e88 .LVL273
     /tmp/ccJsZ0pp.s:2387   .text:0000000000000eb8 .LVL279
     /tmp/ccJsZ0pp.s:2394   .text:0000000000000ec4 .LVL281
     /tmp/ccJsZ0pp.s:2360   .text:0000000000000e94 .LVL275
     /tmp/ccJsZ0pp.s:2390   .text:0000000000000ebc .LVL280
     /tmp/ccJsZ0pp.s:2370   .text:0000000000000ea4 .LVL277
     /tmp/ccJsZ0pp.s:2403   .text:0000000000000ed4 .LVL282
     /tmp/ccJsZ0pp.s:555    .text:0000000000000350 .LVL59
     /tmp/ccJsZ0pp.s:585    .text:0000000000000384 .LVL62
     /tmp/ccJsZ0pp.s:599    .text:0000000000000390 .LVL65
     /tmp/ccJsZ0pp.s:658    .text:00000000000003dc .LVL70
     /tmp/ccJsZ0pp.s:739    .text:0000000000000444 .LVL77
     /tmp/ccJsZ0pp.s:752    .text:000000000000044c .LVL79
     /tmp/ccJsZ0pp.s:763    .text:0000000000000458 .LVL80
     /tmp/ccJsZ0pp.s:822    .text:00000000000004a4 .LVL85
     /tmp/ccJsZ0pp.s:887    .text:0000000000000508 .LVL90
     /tmp/ccJsZ0pp.s:895    .text:000000000000050c .LVL91
     /tmp/ccJsZ0pp.s:912    .text:0000000000000524 .LVL93
     /tmp/ccJsZ0pp.s:909    .text:0000000000000520 .LVL92
     /tmp/ccJsZ0pp.s:575    .text:0000000000000378 .LVL60
     /tmp/ccJsZ0pp.s:612    .text:0000000000000398 .LVL66
     /tmp/ccJsZ0pp.s:776    .text:0000000000000460 .LVL81
     /tmp/ccJsZ0pp.s:580    .text:000000000000037c .LVL61
     /tmp/ccJsZ0pp.s:640    .text:00000000000003c4 .LVL67
     /tmp/ccJsZ0pp.s:646    .text:00000000000003cc .LVL68
     /tmp/ccJsZ0pp.s:649    .text:00000000000003d0 .LVL69
     /tmp/ccJsZ0pp.s:594    .text:0000000000000388 .LVL63
     /tmp/ccJsZ0pp.s:597    .text:000000000000038c .LVL64
     /tmp/ccJsZ0pp.s:689    .text:0000000000000408 .LVL74
     /tmp/ccJsZ0pp.s:709    .text:0000000000000414 .LVL75
     /tmp/ccJsZ0pp.s:712    .text:0000000000000418 .LVL76
     /tmp/ccJsZ0pp.s:680    .text:00000000000003fc .LVL73
     /tmp/ccJsZ0pp.s:750    .text:0000000000000448 .LVL78
     /tmp/ccJsZ0pp.s:804    .text:000000000000048c .LVL82
     /tmp/ccJsZ0pp.s:810    .text:0000000000000494 .LVL83
     /tmp/ccJsZ0pp.s:813    .text:0000000000000498 .LVL84
     /tmp/ccJsZ0pp.s:844    .text:00000000000004c4 .LVL88
     /tmp/ccJsZ0pp.s:852    .text:00000000000004d0 .LVL89
     /tmp/ccJsZ0pp.s:152    .text:00000000000000d0 .LVL15
     /tmp/ccJsZ0pp.s:178    .text:0000000000000100 .LVL17
     /tmp/ccJsZ0pp.s:324    .text:00000000000001e0 .LVL37
     /tmp/ccJsZ0pp.s:196    .text:0000000000000124 .LVL19
     /tmp/ccJsZ0pp.s:241    .text:0000000000000168 .LVL25
     /tmp/ccJsZ0pp.s:253    .text:0000000000000188 .LVL27
     /tmp/ccJsZ0pp.s:277    .text:000000000000019c .LVL31
     /tmp/ccJsZ0pp.s:331    .text:00000000000001ec .LVL38
     /tmp/ccJsZ0pp.s:221    .text:000000000000014c .LVL22
     /tmp/ccJsZ0pp.s:317    .text:00000000000001d4 .LVL36
     /tmp/ccJsZ0pp.s:226    .text:0000000000000150 .LVL23
GAS LISTING /tmp/ccJsZ0pp.s 			page 89


     /tmp/ccJsZ0pp.s:264    .text:0000000000000190 .LVL28
     /tmp/ccJsZ0pp.s:269    .text:0000000000000194 .LVL29
     /tmp/ccJsZ0pp.s:301    .text:00000000000001c0 .LVL35
     /tmp/ccJsZ0pp.s:274    .text:0000000000000198 .LVL30
     /tmp/ccJsZ0pp.s:214    .text:000000000000013c .LVL20
     /tmp/ccJsZ0pp.s:217    .text:0000000000000140 .LVL21
     /tmp/ccJsZ0pp.s:171    .text:00000000000000f4 .LVL16
     /tmp/ccJsZ0pp.s:2126   .text:0000000000000d40 .LVL253
     /tmp/ccJsZ0pp.s:2157   .text:0000000000000d74 .LVL254
     /tmp/ccJsZ0pp.s:2224   .text:0000000000000dd4 .LVL261
     /tmp/ccJsZ0pp.s:2228   .text:0000000000000ddc .LVL262
     /tmp/ccJsZ0pp.s:2313   .text:0000000000000e50 .LVL270
     /tmp/ccJsZ0pp.s:2279   .text:0000000000000e1c .LVL268
     /tmp/ccJsZ0pp.s:2298   .text:0000000000000e38 .LVL269
     /tmp/ccJsZ0pp.s:2249   .text:0000000000000e00 .LVL264
     /tmp/ccJsZ0pp.s:2257   .text:0000000000000e0c .LVL265
     /tmp/ccJsZ0pp.s:2264   .text:0000000000000e10 .LVL266
     /tmp/ccJsZ0pp.s:2270   .text:0000000000000e14 .LVL267
     /tmp/ccJsZ0pp.s:2211   .text:0000000000000dc8 .LVL260
     /tmp/ccJsZ0pp.s:2169   .text:0000000000000d8c .LVL256
     /tmp/ccJsZ0pp.s:2200   .text:0000000000000db4 .LVL259
     /tmp/ccJsZ0pp.s:2176   .text:0000000000000d94 .LVL257
     /tmp/ccJsZ0pp.s:2184   .text:0000000000000da0 .LVL258
     /tmp/ccJsZ0pp.s:14     .text:0000000000000000 .LVL0
     /tmp/ccJsZ0pp.s:54     .text:0000000000000040 .LVL4
     /tmp/ccJsZ0pp.s:136    .text:00000000000000c4 .LVL14
     /tmp/ccJsZ0pp.s:40     .text:0000000000000030 .LVL1
     /tmp/ccJsZ0pp.s:46     .text:0000000000000038 .LVL3
     /tmp/ccJsZ0pp.s:56     .text:0000000000000044 .LVL5
     /tmp/ccJsZ0pp.s:80     .text:0000000000000078 .LVL9
     /tmp/ccJsZ0pp.s:90     .text:0000000000000080 .LVL11
     /tmp/ccJsZ0pp.s:99     .text:0000000000000090 .LVL12
     /tmp/ccJsZ0pp.s:122    .text:00000000000000b0 .LVL13
     /tmp/ccJsZ0pp.s:86     .text:000000000000007c .LVL10
     /tmp/ccJsZ0pp.s:44     .text:0000000000000034 .LVL2
     /tmp/ccJsZ0pp.s:70     .text:0000000000000060 .LVL7
     /tmp/ccJsZ0pp.s:345    .text:00000000000001f4 .LVL39
     /tmp/ccJsZ0pp.s:398    .text:0000000000000250 .LVL44
     /tmp/ccJsZ0pp.s:470    .text:00000000000002d0 .LVL47
     /tmp/ccJsZ0pp.s:476    .text:00000000000002d8 .LVL48
     /tmp/ccJsZ0pp.s:527    .text:0000000000000338 .LVL55
     /tmp/ccJsZ0pp.s:537    .text:0000000000000348 .LVL58
     /tmp/ccJsZ0pp.s:524    .text:0000000000000334 .LVL54
     /tmp/ccJsZ0pp.s:533    .text:0000000000000340 .LVL57
     /tmp/ccJsZ0pp.s:530    .text:000000000000033c .LVL56
     /tmp/ccJsZ0pp.s:411    .text:000000000000026c .LVL46
     /tmp/ccJsZ0pp.s:482    .text:00000000000002f0 .LVL50
     /tmp/ccJsZ0pp.s:510    .text:0000000000000320 .LVL53
     /tmp/ccJsZ0pp.s:492    .text:00000000000002fc .LVL51
     /tmp/ccJsZ0pp.s:372    .text:0000000000000230 .LVL40
     /tmp/ccJsZ0pp.s:396    .text:000000000000024c .LVL43
     /tmp/ccJsZ0pp.s:390    .text:0000000000000244 .LVL42
     /tmp/ccJsZ0pp.s:2441   .debug_info:0000000000000000 .Ldebug_info0
     /tmp/ccJsZ0pp.s:72     .text:0000000000000060 .LBE55
     /tmp/ccJsZ0pp.s:92     .text:0000000000000080 .LBB58
     /tmp/ccJsZ0pp.s:102    .text:0000000000000090 .LBE58
     /tmp/ccJsZ0pp.s:183    .text:0000000000000100 .LBE59
GAS LISTING /tmp/ccJsZ0pp.s 			page 90


     /tmp/ccJsZ0pp.s:244    .text:0000000000000168 .LBB63
     /tmp/ccJsZ0pp.s:256    .text:0000000000000188 .LBE63
     /tmp/ccJsZ0pp.s:369    .text:0000000000000228 .LBB67
     /tmp/ccJsZ0pp.s:388    .text:0000000000000244 .LBE67
     /tmp/ccJsZ0pp.s:540    .text:0000000000000348 .LBB72
     /tmp/ccJsZ0pp.s:544    .text:0000000000000350 .LBE72
     /tmp/ccJsZ0pp.s:403    .text:0000000000000250 .LBE68
     /tmp/ccJsZ0pp.s:472    .text:00000000000002d0 .LBB71
     /tmp/ccJsZ0pp.s:485    .text:00000000000002f0 .LBE71
     /tmp/ccJsZ0pp.s:577    .text:0000000000000378 .LBB73
     /tmp/ccJsZ0pp.s:581    .text:000000000000037c .LBE73
     /tmp/ccJsZ0pp.s:587    .text:0000000000000384 .LBB86
     /tmp/ccJsZ0pp.s:696    .text:0000000000000408 .LBE86
     /tmp/ccJsZ0pp.s:698    .text:0000000000000408 .LBB87
     /tmp/ccJsZ0pp.s:744    .text:0000000000000444 .LBE87
     /tmp/ccJsZ0pp.s:590    .text:0000000000000384 .LBB76
     /tmp/ccJsZ0pp.s:601    .text:0000000000000390 .LBE76
     /tmp/ccJsZ0pp.s:630    .text:00000000000003b4 .LBB79
     /tmp/ccJsZ0pp.s:693    .text:0000000000000408 .LBE79
     /tmp/ccJsZ0pp.s:701    .text:0000000000000408 .LBB80
     /tmp/ccJsZ0pp.s:741    .text:0000000000000444 .LBE80
     /tmp/ccJsZ0pp.s:756    .text:000000000000044c .LBB91
     /tmp/ccJsZ0pp.s:765    .text:0000000000000458 .LBE91
     /tmp/ccJsZ0pp.s:794    .text:000000000000047c .LBB94
     /tmp/ccJsZ0pp.s:889    .text:0000000000000508 .LBE94
     /tmp/ccJsZ0pp.s:1001   .text:000000000000059c .LBB99
     /tmp/ccJsZ0pp.s:1004   .text:00000000000005a0 .LBE99
     /tmp/ccJsZ0pp.s:1009   .text:00000000000005a4 .LBB100
     /tmp/ccJsZ0pp.s:1021   .text:00000000000005b4 .LBE100
     /tmp/ccJsZ0pp.s:1213   .text:00000000000006a8 .LBE102
     /tmp/ccJsZ0pp.s:1233   .text:00000000000006c8 .LBB105
     /tmp/ccJsZ0pp.s:1248   .text:00000000000006f4 .LBE105
     /tmp/ccJsZ0pp.s:1270   .text:0000000000000718 .LBE106
     /tmp/ccJsZ0pp.s:1290   .text:0000000000000738 .LBB109
     /tmp/ccJsZ0pp.s:1300   .text:0000000000000748 .LBE109
     /tmp/ccJsZ0pp.s:1322   .text:000000000000076c .LBE110
     /tmp/ccJsZ0pp.s:1342   .text:000000000000078c .LBB113
     /tmp/ccJsZ0pp.s:1352   .text:000000000000079c .LBE113
     /tmp/ccJsZ0pp.s:1372   .text:00000000000007c8 .LBE114
     /tmp/ccJsZ0pp.s:1401   .text:00000000000007ec .LBB117
     /tmp/ccJsZ0pp.s:1413   .text:00000000000007f8 .LBE117

UNDEFINED SYMBOLS
_ZN11BuddySystemC1Ev
_ZN11BuddySystem9buddyFreeEm
_ZN11BuddySystem10buddyAllocEm
_Z14string_comparePKcS0_
_Z11printStringPKc
_Z8printIntiii
_Z27concatenate_int_to_char_ptri
