GAS LISTING /tmp/ccMn1XFx.s 			page 1


   1              		.file	"Slab.cpp"
   2              		.option pic
   3              		.option norelax
   4              		.text
   5              	.Ltext0:
   6              		.align	2
   7              		.globl	_ZN12kmem_cache_s17kmem_cache_shrinkEv
   9              	_ZN12kmem_cache_s17kmem_cache_shrinkEv:
  10              	.LFB49:
  11              		.file 1 "src/Slab.cpp"
   1:src/Slab.cpp  **** //
   2:src/Slab.cpp  **** // Created by os on 8/18/23.
   3:src/Slab.cpp  **** //
   4:src/Slab.cpp  **** #include "../h/Slab.h"
   5:src/Slab.cpp  **** #include "../test/printing.hpp"
   6:src/Slab.cpp  **** 
   7:src/Slab.cpp  **** kmem_cache_s* kmem_cache_s::head = nullptr;
   8:src/Slab.cpp  **** 
   9:src/Slab.cpp  **** void* kmem_cache_s::kmem_cache_create(const char *name, size_t size, void (*ctor)(void *), void (*d
  10:src/Slab.cpp  **** 
  11:src/Slab.cpp  ****     // check if name already exists in cache list
  12:src/Slab.cpp  ****     for(kmem_cache_s* curr = kmem_cache_s::head; curr; curr = curr->next){
  13:src/Slab.cpp  ****         if(curr->name == name){
  14:src/Slab.cpp  ****             return nullptr;
  15:src/Slab.cpp  ****         }
  16:src/Slab.cpp  ****     }
  17:src/Slab.cpp  **** 
  18:src/Slab.cpp  ****     // assign values
  19:src/Slab.cpp  ****     kmem_cache_s* tmp = (kmem_cache_s*)BuddySystem::getInstance().buddyAlloc(BLOCK_SIZE - sizeof(si
  20:src/Slab.cpp  ****     tmp->name = name;
  21:src/Slab.cpp  ****     tmp->objsize = size;
  22:src/Slab.cpp  ****     tmp->ctor = ctor;
  23:src/Slab.cpp  ****     tmp->dtor = dtor;
  24:src/Slab.cpp  **** 
  25:src/Slab.cpp  ****     // assign default values
  26:src/Slab.cpp  ****     tmp->slabs_full = tmp->slabs_partial = tmp->slabs_free = nullptr;
  27:src/Slab.cpp  ****     tmp->num_slabs_full = tmp->num_slabs_partial = tmp->num_slabs_free = tmp->num_active_obj = tmp-
  28:src/Slab.cpp  ****     tmp->growing = false;
  29:src/Slab.cpp  **** 
  30:src/Slab.cpp  ****     // calc how many blocks one slab should contain
  31:src/Slab.cpp  ****     tmp->size_in_blocks = 1;
  32:src/Slab.cpp  ****     while(tmp->size_in_blocks * BLOCK_SIZE < tmp->objsize * NUM_OF_OBJECTS_IN_SLAB + sizeof(Slab) +
  33:src/Slab.cpp  ****         tmp->size_in_blocks++;
  34:src/Slab.cpp  ****     }
  35:src/Slab.cpp  ****     // calc how many objects one slab can contain
  36:src/Slab.cpp  ****     int how_many_objects_into_one_slab = (int)(tmp->size_in_blocks * BLOCK_SIZE - sizeof(Slab) - si
  37:src/Slab.cpp  ****     tmp->num = how_many_objects_into_one_slab;
  38:src/Slab.cpp  **** 
  39:src/Slab.cpp  ****     // creating an empty slab
  40:src/Slab.cpp  ****     tmp->create_free_slab();
  41:src/Slab.cpp  **** 
  42:src/Slab.cpp  ****     // add new cache to cache chain
  43:src/Slab.cpp  ****     tmp->next = kmem_cache_s::head;
  44:src/Slab.cpp  ****     kmem_cache_s::head = tmp;
  45:src/Slab.cpp  **** 
  46:src/Slab.cpp  ****     return (void*)tmp;
  47:src/Slab.cpp  **** }
GAS LISTING /tmp/ccMn1XFx.s 			page 2


  48:src/Slab.cpp  **** 
  49:src/Slab.cpp  **** ///
  50:src/Slab.cpp  **** /// \return velicinu za koliko je smanjena memorija (u bajtovima)
  51:src/Slab.cpp  **** size_t kmem_cache_s::kmem_cache_shrink() {
  12              		.loc 1 51 42
  13              		.cfi_startproc
  14              	.LVL0:
  15 0000 130101FD 		addi	sp,sp,-48
  16              		.cfi_def_cfa_offset 48
  17 0004 23341102 		sd	ra,40(sp)
  18 0008 23308102 		sd	s0,32(sp)
  19 000c 233C9100 		sd	s1,24(sp)
  20 0010 23382101 		sd	s2,16(sp)
  21 0014 23343101 		sd	s3,8(sp)
  22 0018 23304101 		sd	s4,0(sp)
  23              		.cfi_offset 1, -8
  24              		.cfi_offset 8, -16
  25              		.cfi_offset 9, -24
  26              		.cfi_offset 18, -32
  27              		.cfi_offset 19, -40
  28              		.cfi_offset 20, -48
  29 001c 13040103 		addi	s0,sp,48
  30              		.cfi_def_cfa 8, 0
  31 0020 93090500 		mv	s3,a0
  52:src/Slab.cpp  ****     if(this->growing){
  32              		.loc 1 52 5
  33              		.loc 1 52 14 is_stmt 0
  34 0024 83470507 		lbu	a5,112(a0)
  35              		.loc 1 52 5
  36 0028 63980700 		bnez	a5,.L8
  53:src/Slab.cpp  ****         this->growing = false;
  54:src/Slab.cpp  ****         return 0;
  55:src/Slab.cpp  ****     }
  56:src/Slab.cpp  ****     Slab* curr = this->slabs_free, *prev;
  37              		.loc 1 56 5 is_stmt 1
  38              		.loc 1 56 11 is_stmt 0
  39 002c 83340501 		ld	s1,16(a0)
  40              	.LVL1:
  57:src/Slab.cpp  ****     int cnt = (int)this->num_slabs_free;
  41              		.loc 1 57 5 is_stmt 1
  42              		.loc 1 57 9 is_stmt 0
  43 0030 032A8502 		lw	s4,40(a0)
  44              	.LVL2:
  45 0034 6F004004 		j	.L6
  46              	.LVL3:
  47              	.L8:
  53:src/Slab.cpp  ****         this->growing = false;
  48              		.loc 1 53 9 is_stmt 1
  53:src/Slab.cpp  ****         this->growing = false;
  49              		.loc 1 53 23 is_stmt 0
  50 0038 23080506 		sb	zero,112(a0)
  54:src/Slab.cpp  ****     }
  51              		.loc 1 54 9 is_stmt 1
  54:src/Slab.cpp  ****     }
  52              		.loc 1 54 16 is_stmt 0
  53 003c 13050000 		li	a0,0
  54              	.LVL4:
GAS LISTING /tmp/ccMn1XFx.s 			page 3


  55 0040 6F000007 		j	.L1
  56              	.LVL5:
  57              	.L9:
  58              	.LBB55:
  59              	.LBB56:
  60              		.file 2 "src/../h/../h/Buddy.h"
   1:src/../h/../h/Buddy.h **** //
   2:src/../h/../h/Buddy.h **** // Created by os on 8/12/23.
   3:src/../h/../h/Buddy.h **** //
   4:src/../h/../h/Buddy.h **** 
   5:src/../h/../h/Buddy.h **** #ifndef PROJECT_BASE_V1_1_BUDDY_H
   6:src/../h/../h/Buddy.h **** #define PROJECT_BASE_V1_1_BUDDY_H
   7:src/../h/../h/Buddy.h **** 
   8:src/../h/../h/Buddy.h **** #include "../lib/hw.h"
   9:src/../h/../h/Buddy.h **** 
  10:src/../h/../h/Buddy.h **** class BuddySystem{
  11:src/../h/../h/Buddy.h **** public:
  12:src/../h/../h/Buddy.h **** 
  13:src/../h/../h/Buddy.h ****     void* buddyAlloc(size_t size);
  14:src/../h/../h/Buddy.h ****     void buddyFree(size_t addr);
  15:src/../h/../h/Buddy.h **** 
  16:src/../h/../h/Buddy.h ****     static BuddySystem& getInstance(void *space = nullptr, int block_num = 0){
  17:src/../h/../h/Buddy.h ****         static BuddySystem bs;
  61              		.loc 2 17 28
  62 0044 17050000 		lla	a0,_ZZN11BuddySystem11getInstanceEPviE2bs
  62      13050500 
  63 004c 97000000 		call	_ZN11BuddySystemC1Ev@plt
  63      E7800000 
  64              	.LVL6:
  65 0054 93071000 		li	a5,1
  66 0058 17070000 		sb	a5,_ZGVZN11BuddySystem11getInstanceEPviE2bs,a4
  66      2300F700 
  67              	.L5:
  18:src/../h/../h/Buddy.h ****         if(block_num != 0 && space != nullptr){
  68              		.loc 2 18 9 is_stmt 1
  19:src/../h/../h/Buddy.h ****             bs.buddyHeapStart = (size_t)space;
  20:src/../h/../h/Buddy.h ****             bs.buddyNumOfBlocks = block_num;
  21:src/../h/../h/Buddy.h ****             bs.initBuddy();
  22:src/../h/../h/Buddy.h ****         }
  23:src/../h/../h/Buddy.h ****         return bs;
  69              		.loc 2 23 9
  70              	.LVL7:
  71              	.LBE56:
  72              	.LBE55:
  58:src/Slab.cpp  ****     while(curr){
  59:src/Slab.cpp  ****         prev = curr;
  60:src/Slab.cpp  ****         curr = curr->next;
  61:src/Slab.cpp  ****         BuddySystem::getInstance().buddyFree((size_t)prev);
  73              		.loc 1 61 45 is_stmt 0
  74 0060 93850400 		mv	a1,s1
  75 0064 17050000 		lla	a0,_ZZN11BuddySystem11getInstanceEPviE2bs
  75      13050500 
  76 006c 97000000 		call	_ZN11BuddySystem9buddyFreeEm@plt
  76      E7800000 
  77              	.LVL8:
  60:src/Slab.cpp  ****         BuddySystem::getInstance().buddyFree((size_t)prev);
  78              		.loc 1 60 14
GAS LISTING /tmp/ccMn1XFx.s 			page 4


  79 0074 93040900 		mv	s1,s2
  80              	.LVL9:
  81              	.L6:
  58:src/Slab.cpp  ****     while(curr){
  82              		.loc 1 58 5 is_stmt 1
  58:src/Slab.cpp  ****     while(curr){
  83              		.loc 1 58 11
  84 0078 638C0400 		beqz	s1,.L4
  59:src/Slab.cpp  ****         curr = curr->next;
  85              		.loc 1 59 9
  86              	.LVL10:
  60:src/Slab.cpp  ****         BuddySystem::getInstance().buddyFree((size_t)prev);
  87              		.loc 1 60 9
  60:src/Slab.cpp  ****         BuddySystem::getInstance().buddyFree((size_t)prev);
  88              		.loc 1 60 14 is_stmt 0
  89 007c 03B98400 		ld	s2,8(s1)
  90              	.LVL11:
  91              		.loc 1 61 9 is_stmt 1
  92              	.LBB58:
  93              	.LBB57:
  17:src/../h/../h/Buddy.h ****         if(block_num != 0 && space != nullptr){
  94              		.loc 2 17 9
  17:src/../h/../h/Buddy.h ****         if(block_num != 0 && space != nullptr){
  95              		.loc 2 17 28 is_stmt 0
  96 0080 97070000 		lbu	a5,_ZGVZN11BuddySystem11getInstanceEPviE2bs
  96      83C70700 
  97 0088 E39C07FC 		bnez	a5,.L5
  98 008c 6FF09FFB 		j	.L9
  99              	.LVL12:
 100              	.L4:
 101              	.LBE57:
 102              	.LBE58:
  62:src/Slab.cpp  ****     }
  63:src/Slab.cpp  ****     this->slabs_free = nullptr;
 103              		.loc 1 63 5 is_stmt 1
 104              		.loc 1 63 22 is_stmt 0
 105 0090 23B80900 		sd	zero,16(s3)
  64:src/Slab.cpp  ****     this->num_slabs_free = 0;
 106              		.loc 1 64 5 is_stmt 1
 107              		.loc 1 64 26 is_stmt 0
 108 0094 23B40902 		sd	zero,40(s3)
  65:src/Slab.cpp  ****     this->growing = false;
 109              		.loc 1 65 5 is_stmt 1
 110              		.loc 1 65 19 is_stmt 0
 111 0098 23880906 		sb	zero,112(s3)
  66:src/Slab.cpp  ****     this->shrink++;
 112              		.loc 1 66 5 is_stmt 1
 113              		.loc 1 66 11 is_stmt 0
 114 009c 83B78907 		ld	a5,120(s3)
 115              		.loc 1 66 17
 116 00a0 93871700 		addi	a5,a5,1
 117 00a4 23BCF906 		sd	a5,120(s3)
  67:src/Slab.cpp  ****     return cnt * this->size_in_blocks;
 118              		.loc 1 67 5 is_stmt 1
 119              		.loc 1 67 24 is_stmt 0
 120 00a8 03B50904 		ld	a0,64(s3)
 121 00ac 3305AA02 		mul	a0,s4,a0
GAS LISTING /tmp/ccMn1XFx.s 			page 5


 122              	.LVL13:
 123              	.L1:
  68:src/Slab.cpp  **** }
 124              		.loc 1 68 1
 125 00b0 83308102 		ld	ra,40(sp)
 126              		.cfi_restore 1
 127 00b4 03340102 		ld	s0,32(sp)
 128              		.cfi_restore 8
 129              		.cfi_def_cfa 2, 48
 130 00b8 83348101 		ld	s1,24(sp)
 131              		.cfi_restore 9
 132 00bc 03390101 		ld	s2,16(sp)
 133              		.cfi_restore 18
 134 00c0 83398100 		ld	s3,8(sp)
 135              		.cfi_restore 19
 136              	.LVL14:
 137 00c4 033A0100 		ld	s4,0(sp)
 138              		.cfi_restore 20
 139 00c8 13010103 		addi	sp,sp,48
 140              		.cfi_def_cfa_offset 0
 141 00cc 67800000 		jr	ra
 142              		.cfi_endproc
 143              	.LFE49:
 145              		.align	2
 146              		.globl	_ZN12kmem_cache_s16create_free_slabEv
 148              	_ZN12kmem_cache_s16create_free_slabEv:
 149              	.LFB51:
  69:src/Slab.cpp  **** 
  70:src/Slab.cpp  **** void *kmem_cache_s::kmem_cache_alloc() {
  71:src/Slab.cpp  ****     if(num_slabs_partial != 0){
  72:src/Slab.cpp  ****         void* addr = this->slabs_partial->return_first_free_object_and_rearange_list(this->num, thi
  73:src/Slab.cpp  ****         this->num_active_obj++;
  74:src/Slab.cpp  ****         this->slabs_partial->increment_num_of_active();
  75:src/Slab.cpp  **** 
  76:src/Slab.cpp  ****         if(this->slabs_partial->get_number_of_active_objects() == this->num){
  77:src/Slab.cpp  ****             // move from partial to full
  78:src/Slab.cpp  ****             Slab* tmp = this->slabs_partial;
  79:src/Slab.cpp  ****             this->slabs_partial = this->slabs_partial->next;
  80:src/Slab.cpp  ****             tmp->next = this->slabs_full;
  81:src/Slab.cpp  ****             this->slabs_full = tmp;
  82:src/Slab.cpp  ****             this->num_slabs_partial--;
  83:src/Slab.cpp  ****             this->num_slabs_full++;
  84:src/Slab.cpp  ****         }
  85:src/Slab.cpp  ****         return addr;
  86:src/Slab.cpp  ****     }
  87:src/Slab.cpp  ****     else if(num_slabs_free != 0){
  88:src/Slab.cpp  ****         void* addr1 = this->slabs_free->return_first_free_object_and_rearange_list(this->num, this-
  89:src/Slab.cpp  ****         this->num_active_obj++;
  90:src/Slab.cpp  **** 
  91:src/Slab.cpp  ****         // move from free to partial
  92:src/Slab.cpp  ****         Slab* tmp = this->slabs_free;
  93:src/Slab.cpp  ****         this->slabs_free = this->slabs_free->next;
  94:src/Slab.cpp  ****         tmp->next = this->slabs_partial;
  95:src/Slab.cpp  ****         tmp->increment_num_of_active();
  96:src/Slab.cpp  ****         this->slabs_partial = tmp;
  97:src/Slab.cpp  ****         this->num_slabs_free--;
  98:src/Slab.cpp  ****         this->num_slabs_partial++;
GAS LISTING /tmp/ccMn1XFx.s 			page 6


  99:src/Slab.cpp  **** 
 100:src/Slab.cpp  ****         return addr1;
 101:src/Slab.cpp  ****     }
 102:src/Slab.cpp  ****     else{
 103:src/Slab.cpp  ****         // case if we need to expand cache
 104:src/Slab.cpp  ****         create_free_slab();
 105:src/Slab.cpp  ****         this->growing = true;
 106:src/Slab.cpp  ****         return nullptr;
 107:src/Slab.cpp  ****     }
 108:src/Slab.cpp  **** }
 109:src/Slab.cpp  **** 
 110:src/Slab.cpp  **** void kmem_cache_s::create_free_slab() {
 150              		.loc 1 110 39 is_stmt 1
 151              		.cfi_startproc
 152              	.LVL15:
 153 00d0 130101FD 		addi	sp,sp,-48
 154              		.cfi_def_cfa_offset 48
 155 00d4 23341102 		sd	ra,40(sp)
 156 00d8 23308102 		sd	s0,32(sp)
 157 00dc 233C9100 		sd	s1,24(sp)
 158 00e0 23382101 		sd	s2,16(sp)
 159 00e4 23343101 		sd	s3,8(sp)
 160 00e8 23304101 		sd	s4,0(sp)
 161              		.cfi_offset 1, -8
 162              		.cfi_offset 8, -16
 163              		.cfi_offset 9, -24
 164              		.cfi_offset 18, -32
 165              		.cfi_offset 19, -40
 166              		.cfi_offset 20, -48
 167 00ec 13040103 		addi	s0,sp,48
 168              		.cfi_def_cfa 8, 0
 169 00f0 93040500 		mv	s1,a0
 111:src/Slab.cpp  ****     Slab* tmp = (Slab*)(BuddySystem::getInstance().buddyAlloc(this->num * this->objsize + sizeof(Sl
 170              		.loc 1 111 5
 171              	.LVL16:
 172              	.LBB59:
 173              	.LBB60:
  17:src/../h/../h/Buddy.h ****         if(block_num != 0 && space != nullptr){
 174              		.loc 2 17 9
  17:src/../h/../h/Buddy.h ****         if(block_num != 0 && space != nullptr){
 175              		.loc 2 17 28 is_stmt 0
 176 00f4 97070000 		lbu	a5,_ZGVZN11BuddySystem11getInstanceEPviE2bs
 176      83C70700 
 177 00fc 63860706 		beqz	a5,.L17
 178              	.LVL17:
 179              	.L11:
  18:src/../h/../h/Buddy.h ****             bs.buddyHeapStart = (size_t)space;
 180              		.loc 2 18 9 is_stmt 1
 181              		.loc 2 23 9
 182              	.LBE60:
 183              	.LBE59:
 184              		.loc 1 111 69 is_stmt 0
 185 0100 83B58403 		ld	a1,56(s1)
 186              		.loc 1 111 81
 187 0104 83B70403 		ld	a5,48(s1)
 188              		.loc 1 111 73
 189 0108 B385F502 		mul	a1,a1,a5
GAS LISTING /tmp/ccMn1XFx.s 			page 7


 190              		.loc 1 111 62
 191 010c 93850502 		addi	a1,a1,32
 192 0110 17050000 		lla	a0,_ZZN11BuddySystem11getInstanceEPviE2bs
 192      13050500 
 193 0118 97000000 		call	_ZN11BuddySystem10buddyAllocEm@plt
 193      E7800000 
 194              	.LVL18:
 195 0120 130A0500 		mv	s4,a0
 196              	.LVL19:
 112:src/Slab.cpp  ****     tmp->num_active = 0;
 197              		.loc 1 112 5 is_stmt 1
 198              		.loc 1 112 21 is_stmt 0
 199 0124 23300500 		sd	zero,0(a0)
 113:src/Slab.cpp  ****     tmp->next = nullptr;
 200              		.loc 1 113 5 is_stmt 1
 201              		.loc 1 113 15 is_stmt 0
 202 0128 23340500 		sd	zero,8(a0)
 114:src/Slab.cpp  ****     this->slabs_free = tmp;
 203              		.loc 1 114 5 is_stmt 1
 204              		.loc 1 114 22 is_stmt 0
 205 012c 23B8A400 		sd	a0,16(s1)
 115:src/Slab.cpp  ****     tmp->first_addr = ((size_t)tmp + sizeof(Slab));
 206              		.loc 1 115 5 is_stmt 1
 207              		.loc 1 115 36 is_stmt 0
 208 0130 93070502 		addi	a5,a0,32
 209              		.loc 1 115 21
 210 0134 233CF500 		sd	a5,24(a0)
 116:src/Slab.cpp  ****     bool arr[this->num];
 211              		.loc 1 116 5 is_stmt 1
 212              		.loc 1 116 20 is_stmt 0
 213 0138 83B78403 		ld	a5,56(s1)
 214              	.LVL20:
 215              		.loc 1 116 10
 216 013c 9387F700 		addi	a5,a5,15
 217              	.LVL21:
 218 0140 93F707FF 		andi	a5,a5,-16
 219 0144 3301F140 		sub	sp,sp,a5
 220 0148 93060100 		mv	a3,sp
 221              	.LVL22:
 117:src/Slab.cpp  ****     for(size_t  i = 0; i < this->num; i++){
 222              		.loc 1 117 5 is_stmt 1
 223              	.LBB62:
 224              		.loc 1 117 17 is_stmt 0
 225 014c 93070000 		li	a5,0
 226              	.LVL23:
 227              	.L13:
 228              		.loc 1 117 26 is_stmt 1 discriminator 3
 229              		.loc 1 117 34 is_stmt 0 discriminator 3
 230 0150 03B78403 		ld	a4,56(s1)
 231              		.loc 1 117 26 discriminator 3
 232 0154 63FAE702 		bgeu	a5,a4,.L12
 118:src/Slab.cpp  ****         arr[i] = false;
 233              		.loc 1 118 9 is_stmt 1 discriminator 2
 234              		.loc 1 118 16 is_stmt 0 discriminator 2
 235 0158 3387F600 		add	a4,a3,a5
 236 015c 23000700 		sb	zero,0(a4)
 117:src/Slab.cpp  ****     for(size_t  i = 0; i < this->num; i++){
GAS LISTING /tmp/ccMn1XFx.s 			page 8


 237              		.loc 1 117 5 is_stmt 1 discriminator 2
 238 0160 93871700 		addi	a5,a5,1
 239              	.LVL24:
 240 0164 6FF0DFFE 		j	.L13
 241              	.LVL25:
 242              	.L17:
 243              	.LBE62:
 244              	.LBB63:
 245              	.LBB61:
  17:src/../h/../h/Buddy.h ****         if(block_num != 0 && space != nullptr){
 246              		.loc 2 17 28 is_stmt 0
 247 0168 17050000 		lla	a0,_ZZN11BuddySystem11getInstanceEPviE2bs
 247      13050500 
 248 0170 97000000 		call	_ZN11BuddySystemC1Ev@plt
 248      E7800000 
 249              	.LVL26:
 250 0178 93071000 		li	a5,1
 251 017c 17070000 		sb	a5,_ZGVZN11BuddySystem11getInstanceEPviE2bs,a4
 251      2300F700 
 252 0184 6FF0DFF7 		j	.L11
 253              	.LVL27:
 254              	.L12:
 255              	.LBE61:
 256              	.LBE63:
 119:src/Slab.cpp  ****     }
 120:src/Slab.cpp  ****     tmp->free_objects = arr;
 257              		.loc 1 120 5 is_stmt 1
 258              		.loc 1 120 23 is_stmt 0
 259 0188 2338DA00 		sd	a3,16(s4)
 121:src/Slab.cpp  **** 
 122:src/Slab.cpp  ****     // initialize slab if there is constructor
 123:src/Slab.cpp  ****     if(this->ctor != nullptr){
 260              		.loc 1 123 5 is_stmt 1
 261              	.LBB64:
 262              		.loc 1 123 14 is_stmt 0
 263 018c 83B78404 		ld	a5,72(s1)
 264              	.LVL28:
 265              		.loc 1 123 5
 266 0190 63880702 		beqz	a5,.L14
 267              	.LBE64:
 124:src/Slab.cpp  ****         for(size_t i = 0, addr = tmp->first_addr; i < this->num; i++, addr += this->objsize){
 268              		.loc 1 124 9 is_stmt 1
 269              	.LVL29:
 270              	.LBB66:
 271              	.LBB65:
 272              		.loc 1 124 27 is_stmt 0
 273 0194 83398A01 		ld	s3,24(s4)
 274              	.LVL30:
 275              		.loc 1 124 20
 276 0198 13090000 		li	s2,0
 277              	.LVL31:
 278              	.L15:
 279              		.loc 1 124 53 is_stmt 1 discriminator 1
 280              		.loc 1 124 61 is_stmt 0 discriminator 1
 281 019c 83B78403 		ld	a5,56(s1)
 282              		.loc 1 124 53 discriminator 1
 283 01a0 6370F902 		bgeu	s2,a5,.L14
GAS LISTING /tmp/ccMn1XFx.s 			page 9


 125:src/Slab.cpp  ****             this->ctor((void*)addr);
 284              		.loc 1 125 13 is_stmt 1
 285              		.loc 1 125 19 is_stmt 0
 286 01a4 83B78404 		ld	a5,72(s1)
 287              		.loc 1 125 23
 288 01a8 13850900 		mv	a0,s3
 289 01ac E7800700 		jalr	a5
 290              	.LVL32:
 124:src/Slab.cpp  ****         for(size_t i = 0, addr = tmp->first_addr; i < this->num; i++, addr += this->objsize){
 291              		.loc 1 124 9 is_stmt 1
 292 01b0 13091900 		addi	s2,s2,1
 293              	.LVL33:
 124:src/Slab.cpp  ****         for(size_t i = 0, addr = tmp->first_addr; i < this->num; i++, addr += this->objsize){
 294              		.loc 1 124 85 is_stmt 0
 295 01b4 83B70403 		ld	a5,48(s1)
 124:src/Slab.cpp  ****         for(size_t i = 0, addr = tmp->first_addr; i < this->num; i++, addr += this->objsize){
 296              		.loc 1 124 76
 297 01b8 B389F900 		add	s3,s3,a5
 298              	.LVL34:
 124:src/Slab.cpp  ****         for(size_t i = 0, addr = tmp->first_addr; i < this->num; i++, addr += this->objsize){
 299              		.loc 1 124 9
 300 01bc 6FF01FFE 		j	.L15
 301              	.LVL35:
 302              	.L14:
 303              	.LBE65:
 304              	.LBE66:
 126:src/Slab.cpp  ****         }
 127:src/Slab.cpp  ****     }
 128:src/Slab.cpp  **** 
 129:src/Slab.cpp  ****     // set free pointer and increment number of free slabs
 130:src/Slab.cpp  ****     this->slabs_free = tmp;
 305              		.loc 1 130 5 is_stmt 1
 306              		.loc 1 130 22 is_stmt 0
 307 01c0 23B84401 		sd	s4,16(s1)
 131:src/Slab.cpp  ****     this->num_slabs_free++;
 308              		.loc 1 131 5 is_stmt 1
 309              		.loc 1 131 11 is_stmt 0
 310 01c4 83B78402 		ld	a5,40(s1)
 311              		.loc 1 131 25
 312 01c8 93871700 		addi	a5,a5,1
 313 01cc 23B4F402 		sd	a5,40(s1)
 132:src/Slab.cpp  **** }
 314              		.loc 1 132 1
 315 01d0 130104FD 		addi	sp,s0,-48
 316              		.cfi_def_cfa 2, 48
 317              	.LVL36:
 318 01d4 83308102 		ld	ra,40(sp)
 319              		.cfi_restore 1
 320 01d8 03340102 		ld	s0,32(sp)
 321              		.cfi_restore 8
 322 01dc 83348101 		ld	s1,24(sp)
 323              		.cfi_restore 9
 324              	.LVL37:
 325 01e0 03390101 		ld	s2,16(sp)
 326              		.cfi_restore 18
 327 01e4 83398100 		ld	s3,8(sp)
 328              		.cfi_restore 19
GAS LISTING /tmp/ccMn1XFx.s 			page 10


 329 01e8 033A0100 		ld	s4,0(sp)
 330              		.cfi_restore 20
 331              	.LVL38:
 332 01ec 13010103 		addi	sp,sp,48
 333              		.cfi_def_cfa_offset 0
 334 01f0 67800000 		jr	ra
 335              		.cfi_endproc
 336              	.LFE51:
 338              		.align	2
 339              		.globl	_ZN12kmem_cache_s17kmem_cache_createEPKcmPFvPvES4_
 341              	_ZN12kmem_cache_s17kmem_cache_createEPKcmPFvPvES4_:
 342              	.LFB48:
   9:src/Slab.cpp  **** 
 343              		.loc 1 9 114 is_stmt 1
 344              		.cfi_startproc
 345              	.LVL39:
 346 01f4 130101FC 		addi	sp,sp,-64
 347              		.cfi_def_cfa_offset 64
 348 01f8 233C1102 		sd	ra,56(sp)
 349 01fc 23388102 		sd	s0,48(sp)
 350 0200 23349102 		sd	s1,40(sp)
 351 0204 23302103 		sd	s2,32(sp)
 352 0208 233C3101 		sd	s3,24(sp)
 353 020c 23384101 		sd	s4,16(sp)
 354 0210 23345101 		sd	s5,8(sp)
 355              		.cfi_offset 1, -8
 356              		.cfi_offset 8, -16
 357              		.cfi_offset 9, -24
 358              		.cfi_offset 18, -32
 359              		.cfi_offset 19, -40
 360              		.cfi_offset 20, -48
 361              		.cfi_offset 21, -56
 362 0214 13040104 		addi	s0,sp,64
 363              		.cfi_def_cfa 8, 0
 364 0218 93090500 		mv	s3,a0
 365 021c 13890500 		mv	s2,a1
 366 0220 930A0600 		mv	s5,a2
 367 0224 138A0600 		mv	s4,a3
  12:src/Slab.cpp  ****         if(curr->name == name){
 368              		.loc 1 12 5
 369              	.LBB67:
  12:src/Slab.cpp  ****         if(curr->name == name){
 370              		.loc 1 12 23 is_stmt 0
 371 0228 97070000 		ld	a5,.LANCHOR0
 371      83B70700 
 372              	.LVL40:
 373              	.L21:
  12:src/Slab.cpp  ****         if(curr->name == name){
 374              		.loc 1 12 50 is_stmt 1 discriminator 1
 375 0230 638A0700 		beqz	a5,.L19
  13:src/Slab.cpp  ****             return nullptr;
 376              		.loc 1 13 9
  13:src/Slab.cpp  ****             return nullptr;
 377              		.loc 1 13 18 is_stmt 0
 378 0234 03B78705 		ld	a4,88(a5)
  13:src/Slab.cpp  ****             return nullptr;
 379              		.loc 1 13 9
GAS LISTING /tmp/ccMn1XFx.s 			page 11


 380 0238 63083711 		beq	a4,s3,.L25
  12:src/Slab.cpp  ****         if(curr->name == name){
 381              		.loc 1 12 5 is_stmt 1 discriminator 2
  12:src/Slab.cpp  ****         if(curr->name == name){
 382              		.loc 1 12 61 is_stmt 0 discriminator 2
 383 023c 83B70706 		ld	a5,96(a5)
 384              	.LVL41:
  12:src/Slab.cpp  ****         if(curr->name == name){
 385              		.loc 1 12 5 discriminator 2
 386 0240 6FF01FFF 		j	.L21
 387              	.L19:
 388              	.LBE67:
  19:src/Slab.cpp  ****     tmp->name = name;
 389              		.loc 1 19 5 is_stmt 1
 390              	.LVL42:
 391              	.LBB68:
 392              	.LBB69:
  17:src/../h/../h/Buddy.h ****         if(block_num != 0 && space != nullptr){
 393              		.loc 2 17 9
  17:src/../h/../h/Buddy.h ****         if(block_num != 0 && space != nullptr){
 394              		.loc 2 17 28 is_stmt 0
 395 0244 97070000 		lbu	a5,_ZGVZN11BuddySystem11getInstanceEPviE2bs
 395      83C70700 
 396              	.LVL43:
 397 024c 63820708 		beqz	a5,.L27
 398              	.LVL44:
 399              	.L22:
  18:src/../h/../h/Buddy.h ****             bs.buddyHeapStart = (size_t)space;
 400              		.loc 2 18 9 is_stmt 1
 401              		.loc 2 23 9
 402              	.LBE69:
 403              	.LBE68:
  19:src/Slab.cpp  ****     tmp->name = name;
 404              		.loc 1 19 77 is_stmt 0
 405 0250 B7150000 		li	a1,4096
 406 0254 938585FF 		addi	a1,a1,-8
 407 0258 17050000 		lla	a0,_ZZN11BuddySystem11getInstanceEPviE2bs
 407      13050500 
 408 0260 97000000 		call	_ZN11BuddySystem10buddyAllocEm@plt
 408      E7800000 
 409              	.LVL45:
 410 0268 93040500 		mv	s1,a0
 411              	.LVL46:
  20:src/Slab.cpp  ****     tmp->objsize = size;
 412              		.loc 1 20 5 is_stmt 1
  20:src/Slab.cpp  ****     tmp->objsize = size;
 413              		.loc 1 20 15 is_stmt 0
 414 026c 233C3505 		sd	s3,88(a0)
  21:src/Slab.cpp  ****     tmp->ctor = ctor;
 415              		.loc 1 21 5 is_stmt 1
  21:src/Slab.cpp  ****     tmp->ctor = ctor;
 416              		.loc 1 21 18 is_stmt 0
 417 0270 23382503 		sd	s2,48(a0)
  22:src/Slab.cpp  ****     tmp->dtor = dtor;
 418              		.loc 1 22 5 is_stmt 1
  22:src/Slab.cpp  ****     tmp->dtor = dtor;
 419              		.loc 1 22 15 is_stmt 0
GAS LISTING /tmp/ccMn1XFx.s 			page 12


 420 0274 23345505 		sd	s5,72(a0)
  23:src/Slab.cpp  **** 
 421              		.loc 1 23 5 is_stmt 1
  23:src/Slab.cpp  **** 
 422              		.loc 1 23 15 is_stmt 0
 423 0278 23384505 		sd	s4,80(a0)
  26:src/Slab.cpp  ****     tmp->num_slabs_full = tmp->num_slabs_partial = tmp->num_slabs_free = tmp->num_active_obj = tmp-
 424              		.loc 1 26 5 is_stmt 1
  26:src/Slab.cpp  ****     tmp->num_slabs_full = tmp->num_slabs_partial = tmp->num_slabs_free = tmp->num_active_obj = tmp-
 425              		.loc 1 26 60 is_stmt 0
 426 027c 23380500 		sd	zero,16(a0)
  26:src/Slab.cpp  ****     tmp->num_slabs_full = tmp->num_slabs_partial = tmp->num_slabs_free = tmp->num_active_obj = tmp-
 427              		.loc 1 26 42
 428 0280 23340500 		sd	zero,8(a0)
  26:src/Slab.cpp  ****     tmp->num_slabs_full = tmp->num_slabs_partial = tmp->num_slabs_free = tmp->num_active_obj = tmp-
 429              		.loc 1 26 21
 430 0284 23300500 		sd	zero,0(a0)
  27:src/Slab.cpp  ****     tmp->growing = false;
 431              		.loc 1 27 5 is_stmt 1
  27:src/Slab.cpp  ****     tmp->growing = false;
 432              		.loc 1 27 108 is_stmt 0
 433 0288 233C0506 		sd	zero,120(a0)
  27:src/Slab.cpp  ****     tmp->growing = false;
 434              		.loc 1 27 94
 435 028c 23340506 		sd	zero,104(a0)
  27:src/Slab.cpp  ****     tmp->growing = false;
 436              		.loc 1 27 72
 437 0290 23340502 		sd	zero,40(a0)
  27:src/Slab.cpp  ****     tmp->growing = false;
 438              		.loc 1 27 50
 439 0294 23300502 		sd	zero,32(a0)
  27:src/Slab.cpp  ****     tmp->growing = false;
 440              		.loc 1 27 25
 441 0298 233C0500 		sd	zero,24(a0)
  28:src/Slab.cpp  **** 
 442              		.loc 1 28 5 is_stmt 1
  28:src/Slab.cpp  **** 
 443              		.loc 1 28 18 is_stmt 0
 444 029c 23080506 		sb	zero,112(a0)
  31:src/Slab.cpp  ****     while(tmp->size_in_blocks * BLOCK_SIZE < tmp->objsize * NUM_OF_OBJECTS_IN_SLAB + sizeof(Slab) +
 445              		.loc 1 31 5 is_stmt 1
  31:src/Slab.cpp  ****     while(tmp->size_in_blocks * BLOCK_SIZE < tmp->objsize * NUM_OF_OBJECTS_IN_SLAB + sizeof(Slab) +
 446              		.loc 1 31 25 is_stmt 0
 447 02a0 93071000 		li	a5,1
 448 02a4 2330F504 		sd	a5,64(a0)
 449              	.L24:
  32:src/Slab.cpp  ****         tmp->size_in_blocks++;
 450              		.loc 1 32 5 is_stmt 1
  32:src/Slab.cpp  ****         tmp->size_in_blocks++;
 451              		.loc 1 32 44
  32:src/Slab.cpp  ****         tmp->size_in_blocks++;
 452              		.loc 1 32 16 is_stmt 0
 453 02a8 03B70404 		ld	a4,64(s1)
  32:src/Slab.cpp  ****         tmp->size_in_blocks++;
 454              		.loc 1 32 31
 455 02ac 9316C700 		slli	a3,a4,12
  32:src/Slab.cpp  ****         tmp->size_in_blocks++;
GAS LISTING /tmp/ccMn1XFx.s 			page 13


 456              		.loc 1 32 59
 457 02b0 93172900 		slli	a5,s2,2
 458 02b4 B3872701 		add	a5,a5,s2
 459 02b8 93971700 		slli	a5,a5,1
  32:src/Slab.cpp  ****         tmp->size_in_blocks++;
 460              		.loc 1 32 99
 461 02bc 93878702 		addi	a5,a5,40
  32:src/Slab.cpp  ****         tmp->size_in_blocks++;
 462              		.loc 1 32 44
 463 02c0 63F8F602 		bgeu	a3,a5,.L23
  33:src/Slab.cpp  ****     }
 464              		.loc 1 33 9 is_stmt 1
  33:src/Slab.cpp  ****     }
 465              		.loc 1 33 28 is_stmt 0
 466 02c4 13071700 		addi	a4,a4,1
 467 02c8 23B0E404 		sd	a4,64(s1)
  32:src/Slab.cpp  ****         tmp->size_in_blocks++;
 468              		.loc 1 32 5
 469 02cc 6FF0DFFD 		j	.L24
 470              	.LVL47:
 471              	.L27:
 472              	.LBB71:
 473              	.LBB70:
  17:src/../h/../h/Buddy.h ****         if(block_num != 0 && space != nullptr){
 474              		.loc 2 17 28
 475 02d0 17050000 		lla	a0,_ZZN11BuddySystem11getInstanceEPviE2bs
 475      13050500 
 476              	.LVL48:
 477 02d8 97000000 		call	_ZN11BuddySystemC1Ev@plt
 477      E7800000 
 478              	.LVL49:
 479 02e0 93071000 		li	a5,1
 480 02e4 17070000 		sb	a5,_ZGVZN11BuddySystem11getInstanceEPviE2bs,a4
 480      2300F700 
 481 02ec 6FF05FF6 		j	.L22
 482              	.LVL50:
 483              	.L23:
 484              	.LBE70:
 485              	.LBE71:
  36:src/Slab.cpp  ****     tmp->num = how_many_objects_into_one_slab;
 486              		.loc 1 36 5 is_stmt 1
  36:src/Slab.cpp  ****     tmp->num = how_many_objects_into_one_slab;
 487              		.loc 1 36 96 is_stmt 0
 488 02f0 9B17C700 		slliw	a5,a4,12
 489 02f4 9B8787FD 		addiw	a5,a5,-40
  36:src/Slab.cpp  ****     tmp->num = how_many_objects_into_one_slab;
 490              		.loc 1 36 9
 491 02f8 BBC72703 		divw	a5,a5,s2
 492              	.LVL51:
  37:src/Slab.cpp  **** 
 493              		.loc 1 37 5 is_stmt 1
  37:src/Slab.cpp  **** 
 494              		.loc 1 37 14 is_stmt 0
 495 02fc 23BCF402 		sd	a5,56(s1)
  40:src/Slab.cpp  **** 
 496              		.loc 1 40 5 is_stmt 1
  40:src/Slab.cpp  **** 
GAS LISTING /tmp/ccMn1XFx.s 			page 14


 497              		.loc 1 40 26 is_stmt 0
 498 0300 13850400 		mv	a0,s1
 499 0304 97000000 		call	_ZN12kmem_cache_s16create_free_slabEv
 499      E7800000 
 500              	.LVL52:
  43:src/Slab.cpp  ****     kmem_cache_s::head = tmp;
 501              		.loc 1 43 5 is_stmt 1
  43:src/Slab.cpp  ****     kmem_cache_s::head = tmp;
 502              		.loc 1 43 15 is_stmt 0
 503 030c 97070000 		lla	a5,.LANCHOR0
 503      93870700 
 504 0314 03B70700 		ld	a4,0(a5)
 505 0318 23B0E406 		sd	a4,96(s1)
  44:src/Slab.cpp  **** 
 506              		.loc 1 44 5 is_stmt 1
  44:src/Slab.cpp  **** 
 507              		.loc 1 44 24 is_stmt 0
 508 031c 23B09700 		sd	s1,0(a5)
  46:src/Slab.cpp  **** }
 509              		.loc 1 46 5 is_stmt 1
 510              	.LVL53:
 511              	.L18:
  47:src/Slab.cpp  **** 
 512              		.loc 1 47 1 is_stmt 0
 513 0320 13850400 		mv	a0,s1
 514 0324 83308103 		ld	ra,56(sp)
 515              		.cfi_remember_state
 516              		.cfi_restore 1
 517 0328 03340103 		ld	s0,48(sp)
 518              		.cfi_restore 8
 519              		.cfi_def_cfa 2, 64
 520 032c 83348102 		ld	s1,40(sp)
 521              		.cfi_restore 9
 522 0330 03390102 		ld	s2,32(sp)
 523              		.cfi_restore 18
 524              	.LVL54:
 525 0334 83398101 		ld	s3,24(sp)
 526              		.cfi_restore 19
 527              	.LVL55:
 528 0338 033A0101 		ld	s4,16(sp)
 529              		.cfi_restore 20
 530              	.LVL56:
 531 033c 833A8100 		ld	s5,8(sp)
 532              		.cfi_restore 21
 533              	.LVL57:
 534 0340 13010104 		addi	sp,sp,64
 535              		.cfi_def_cfa_offset 0
 536 0344 67800000 		jr	ra
 537              	.LVL58:
 538              	.L25:
 539              		.cfi_restore_state
 540              	.LBB72:
  14:src/Slab.cpp  ****         }
 541              		.loc 1 14 20
 542 0348 93040000 		li	s1,0
 543 034c 6FF05FFD 		j	.L18
 544              	.LBE72:
GAS LISTING /tmp/ccMn1XFx.s 			page 15


 545              		.cfi_endproc
 546              	.LFE48:
 548              		.align	2
 549              		.globl	_ZN12kmem_cache_s15kmem_cache_freeEPv
 551              	_ZN12kmem_cache_s15kmem_cache_freeEPv:
 552              	.LFB52:
 133:src/Slab.cpp  **** 
 134:src/Slab.cpp  **** // returns -1 if object not found and 0 if removal is completed
 135:src/Slab.cpp  **** int kmem_cache_s::kmem_cache_free(void *objp) {
 553              		.loc 1 135 47 is_stmt 1
 554              		.cfi_startproc
 555              	.LVL59:
 556 0350 130101FD 		addi	sp,sp,-48
 557              		.cfi_def_cfa_offset 48
 558 0354 23341102 		sd	ra,40(sp)
 559 0358 23308102 		sd	s0,32(sp)
 560 035c 233C9100 		sd	s1,24(sp)
 561 0360 23382101 		sd	s2,16(sp)
 562 0364 23343101 		sd	s3,8(sp)
 563 0368 23304101 		sd	s4,0(sp)
 564              		.cfi_offset 1, -8
 565              		.cfi_offset 8, -16
 566              		.cfi_offset 9, -24
 567              		.cfi_offset 18, -32
 568              		.cfi_offset 19, -40
 569              		.cfi_offset 20, -48
 570 036c 13040103 		addi	s0,sp,48
 571              		.cfi_def_cfa 8, 0
 572 0370 130A0500 		mv	s4,a0
 573 0374 93890500 		mv	s3,a1
 136:src/Slab.cpp  ****     // check firstly in partial
 137:src/Slab.cpp  ****     Slab* prev = nullptr;
 574              		.loc 1 137 5
 575              	.LVL60:
 138:src/Slab.cpp  ****     for(Slab* tmp = this->slabs_partial; tmp; tmp = tmp->next){
 576              		.loc 1 138 5
 577              	.LBB73:
 578              		.loc 1 138 15 is_stmt 0
 579 0378 83348500 		ld	s1,8(a0)
 580              	.LVL61:
 581              	.LBE73:
 137:src/Slab.cpp  ****     for(Slab* tmp = this->slabs_partial; tmp; tmp = tmp->next){
 582              		.loc 1 137 11
 583 037c 13090000 		li	s2,0
 584 0380 6F008001 		j	.L37
 585              	.LVL62:
 586              	.L34:
 587              	.LBB86:
 588              	.LBB74:
 589              	.LBB75:
 590              	.LBB76:
 139:src/Slab.cpp  ****         if((size_t)objp > (size_t)tmp &&
 140:src/Slab.cpp  ****         (size_t)objp < (size_t)tmp + this->size_in_blocks * BLOCK_SIZE - sizeof(size_t)){
 141:src/Slab.cpp  ****             size_t position = (((size_t)objp - (size_t)tmp->first_addr)) / (size_t)this->objsize;
 142:src/Slab.cpp  ****             (tmp->free_objects)[position] = false;
 143:src/Slab.cpp  ****             if(this->dtor){
 144:src/Slab.cpp  ****                 this->dtor(objp);
GAS LISTING /tmp/ccMn1XFx.s 			page 16


 145:src/Slab.cpp  ****             }
 146:src/Slab.cpp  ****             if(this->ctor){
 147:src/Slab.cpp  ****                 this->ctor(objp);
 148:src/Slab.cpp  ****             }
 149:src/Slab.cpp  **** 
 150:src/Slab.cpp  ****             this->num_active_obj--;
 151:src/Slab.cpp  ****             tmp->decrement_num_of_active();
 152:src/Slab.cpp  ****             size_t number_of_active = tmp->get_number_of_active_objects();
 153:src/Slab.cpp  ****             if(number_of_active == 0){
 154:src/Slab.cpp  ****                 // move from partial to free
 155:src/Slab.cpp  ****                 if(prev)prev->next = tmp->next;
 156:src/Slab.cpp  ****                 else slabs_partial = tmp->next;
 591              		.loc 1 156 22 is_stmt 1
 592              		.loc 1 156 43 is_stmt 0
 593 0384 83B78400 		ld	a5,8(s1)
 594              	.LVL63:
 595              		.loc 1 156 36
 596 0388 2334FA00 		sd	a5,8(s4)
 597              	.LVL64:
 598 038c 6F00C008 		j	.L35
 599              	.LVL65:
 600              	.L30:
 601              	.LBE76:
 602              	.LBE75:
 157:src/Slab.cpp  ****                 tmp->next = this->slabs_free;
 158:src/Slab.cpp  ****                 this->slabs_free = tmp;
 159:src/Slab.cpp  ****                 this->num_slabs_partial--;
 160:src/Slab.cpp  ****                 this->num_slabs_free++;
 161:src/Slab.cpp  ****             }
 162:src/Slab.cpp  ****             return 0;
 163:src/Slab.cpp  ****         }
 164:src/Slab.cpp  ****         prev = tmp;
 603              		.loc 1 164 9 is_stmt 1 discriminator 2
 604              	.LBE74:
 138:src/Slab.cpp  ****         if((size_t)objp > (size_t)tmp &&
 605              		.loc 1 138 5 discriminator 2
 606              	.LBB83:
 607              		.loc 1 164 14 is_stmt 0 discriminator 2
 608 0390 13890400 		mv	s2,s1
 609              	.LBE83:
 138:src/Slab.cpp  ****         if((size_t)objp > (size_t)tmp &&
 610              		.loc 1 138 51 discriminator 2
 611 0394 83B48400 		ld	s1,8(s1)
 612              	.LVL66:
 613              	.L37:
 138:src/Slab.cpp  ****         if((size_t)objp > (size_t)tmp &&
 614              		.loc 1 138 42 is_stmt 1 discriminator 1
 615 0398 6386040A 		beqz	s1,.L29
 616              	.LBB84:
 139:src/Slab.cpp  ****         if((size_t)objp > (size_t)tmp &&
 617              		.loc 1 139 9
 618              	.LBB81:
 619 039c E3FA34FF 		bleu	s3,s1,.L30
 140:src/Slab.cpp  ****             size_t position = (((size_t)objp - (size_t)tmp->first_addr)) / (size_t)this->objsize;
 620              		.loc 1 140 44 is_stmt 0 discriminator 1
 621 03a0 83370A04 		ld	a5,64(s4)
 140:src/Slab.cpp  ****             size_t position = (((size_t)objp - (size_t)tmp->first_addr)) / (size_t)this->objsize;
GAS LISTING /tmp/ccMn1XFx.s 			page 17


 622              		.loc 1 140 59 discriminator 1
 623 03a4 9397C700 		slli	a5,a5,12
 140:src/Slab.cpp  ****             size_t position = (((size_t)objp - (size_t)tmp->first_addr)) / (size_t)this->objsize;
 624              		.loc 1 140 36 discriminator 1
 625 03a8 B387F400 		add	a5,s1,a5
 140:src/Slab.cpp  ****             size_t position = (((size_t)objp - (size_t)tmp->first_addr)) / (size_t)this->objsize;
 626              		.loc 1 140 72 discriminator 1
 627 03ac 938787FF 		addi	a5,a5,-8
 139:src/Slab.cpp  ****         (size_t)objp < (size_t)tmp + this->size_in_blocks * BLOCK_SIZE - sizeof(size_t)){
 628              		.loc 1 139 39 discriminator 1
 629 03b0 E3F0F9FE 		bgeu	s3,a5,.L30
 630              	.LBB79:
 141:src/Slab.cpp  ****             (tmp->free_objects)[position] = false;
 631              		.loc 1 141 13 is_stmt 1
 141:src/Slab.cpp  ****             (tmp->free_objects)[position] = false;
 632              		.loc 1 141 61 is_stmt 0
 633 03b4 83B78401 		ld	a5,24(s1)
 141:src/Slab.cpp  ****             (tmp->free_objects)[position] = false;
 634              		.loc 1 141 46
 635 03b8 3387F940 		sub	a4,s3,a5
 141:src/Slab.cpp  ****             (tmp->free_objects)[position] = false;
 636              		.loc 1 141 90
 637 03bc 83370A03 		ld	a5,48(s4)
 141:src/Slab.cpp  ****             (tmp->free_objects)[position] = false;
 638              		.loc 1 141 20
 639 03c0 3357F702 		divu	a4,a4,a5
 640              	.LVL67:
 142:src/Slab.cpp  ****             if(this->dtor){
 641              		.loc 1 142 13 is_stmt 1
 142:src/Slab.cpp  ****             if(this->dtor){
 642              		.loc 1 142 19 is_stmt 0
 643 03c4 83B70401 		ld	a5,16(s1)
 142:src/Slab.cpp  ****             if(this->dtor){
 644              		.loc 1 142 41
 645 03c8 3387E700 		add	a4,a5,a4
 646              	.LVL68:
 142:src/Slab.cpp  ****             if(this->dtor){
 647              		.loc 1 142 43
 648 03cc 23000700 		sb	zero,0(a4)
 649              	.LVL69:
 143:src/Slab.cpp  ****                 this->dtor(objp);
 650              		.loc 1 143 13 is_stmt 1
 143:src/Slab.cpp  ****                 this->dtor(objp);
 651              		.loc 1 143 22 is_stmt 0
 652 03d0 83370A05 		ld	a5,80(s4)
 143:src/Slab.cpp  ****                 this->dtor(objp);
 653              		.loc 1 143 13
 654 03d4 63860700 		beqz	a5,.L31
 144:src/Slab.cpp  ****             }
 655              		.loc 1 144 17 is_stmt 1
 144:src/Slab.cpp  ****             }
 656              		.loc 1 144 27 is_stmt 0
 657 03d8 13850900 		mv	a0,s3
 658              	.LVL70:
 659 03dc E7800700 		jalr	a5
 660              	.LVL71:
 661              	.L31:
GAS LISTING /tmp/ccMn1XFx.s 			page 18


 146:src/Slab.cpp  ****                 this->ctor(objp);
 662              		.loc 1 146 13 is_stmt 1
 146:src/Slab.cpp  ****                 this->ctor(objp);
 663              		.loc 1 146 22 is_stmt 0
 664 03e0 83378A04 		ld	a5,72(s4)
 146:src/Slab.cpp  ****                 this->ctor(objp);
 665              		.loc 1 146 13
 666 03e4 63860700 		beqz	a5,.L32
 147:src/Slab.cpp  ****             }
 667              		.loc 1 147 17 is_stmt 1
 147:src/Slab.cpp  ****             }
 668              		.loc 1 147 27 is_stmt 0
 669 03e8 13850900 		mv	a0,s3
 670 03ec E7800700 		jalr	a5
 671              	.LVL72:
 672              	.L32:
 150:src/Slab.cpp  ****             tmp->decrement_num_of_active();
 673              		.loc 1 150 13 is_stmt 1
 150:src/Slab.cpp  ****             tmp->decrement_num_of_active();
 674              		.loc 1 150 19 is_stmt 0
 675 03f0 83378A06 		ld	a5,104(s4)
 150:src/Slab.cpp  ****             tmp->decrement_num_of_active();
 676              		.loc 1 150 33
 677 03f4 9387F7FF 		addi	a5,a5,-1
 678 03f8 2334FA06 		sd	a5,104(s4)
 151:src/Slab.cpp  ****             size_t number_of_active = tmp->get_number_of_active_objects();
 679              		.loc 1 151 13 is_stmt 1
 680              	.LVL73:
 681              	.LBB77:
 682              	.LBB78:
 683              		.file 3 "src/../h/Slab.h"
   1:src/../h/Slab.h **** 
   2:src/../h/Slab.h **** #include "../lib/hw.h"
   3:src/../h/Slab.h **** #include "../h/Buddy.h"
   4:src/../h/Slab.h **** #include "../h/String.h"
   5:src/../h/Slab.h **** 
   6:src/../h/Slab.h **** class Slab{
   7:src/../h/Slab.h **** private:
   8:src/../h/Slab.h ****     size_t num_active = 0; // number of active objects in slab
   9:src/../h/Slab.h ****     Slab* next = nullptr; // next slab
  10:src/../h/Slab.h ****     bool *free_objects;
  11:src/../h/Slab.h ****     size_t first_addr;
  12:src/../h/Slab.h ****     friend struct kmem_cache_s;
  13:src/../h/Slab.h **** 
  14:src/../h/Slab.h **** public:
  15:src/../h/Slab.h ****     void clear_slab(int num_of_objects_in_slab, int objsize, void (*dtor)(void *));
  16:src/../h/Slab.h ****     size_t get_number_of_active_objects(){return num_active;}
  17:src/../h/Slab.h ****     void* return_first_free_object_and_rearange_list(int, int);
  18:src/../h/Slab.h ****     void increment_num_of_active(){num_active++;}
  19:src/../h/Slab.h ****     void decrement_num_of_active(){num_active--;}
 684              		.loc 3 19 36
 685 03fc 83B70400 		ld	a5,0(s1)
 686              		.loc 3 19 46 is_stmt 0
 687 0400 9387F7FF 		addi	a5,a5,-1
 688 0404 23B0F400 		sd	a5,0(s1)
 689              	.LVL74:
 690              	.LBE78:
GAS LISTING /tmp/ccMn1XFx.s 			page 19


 691              	.LBE77:
 152:src/Slab.cpp  ****             if(number_of_active == 0){
 692              		.loc 1 152 13 is_stmt 1
 693              	.LBE79:
 694              	.LBE81:
 695              	.LBE84:
 696              	.LBE86:
  16:src/../h/Slab.h ****     void* return_first_free_object_and_rearange_list(int, int);
 697              		.loc 3 16 43
 698              	.LBB87:
 699              	.LBB85:
 700              	.LBB82:
 701              	.LBB80:
 153:src/Slab.cpp  ****                 // move from partial to free
 702              		.loc 1 153 13
 703 0408 639A0702 		bnez	a5,.L33
 155:src/Slab.cpp  ****                 else slabs_partial = tmp->next;
 704              		.loc 1 155 17
 705 040c E30C09F6 		beqz	s2,.L34
 155:src/Slab.cpp  ****                 else slabs_partial = tmp->next;
 706              		.loc 1 155 25 discriminator 1
 155:src/Slab.cpp  ****                 else slabs_partial = tmp->next;
 707              		.loc 1 155 43 is_stmt 0 discriminator 1
 708 0410 83B78400 		ld	a5,8(s1)
 709              	.LVL75:
 155:src/Slab.cpp  ****                 else slabs_partial = tmp->next;
 710              		.loc 1 155 36 discriminator 1
 711 0414 2334F900 		sd	a5,8(s2)
 712              	.LVL76:
 713              	.L35:
 157:src/Slab.cpp  ****                 this->slabs_free = tmp;
 714              		.loc 1 157 17 is_stmt 1
 157:src/Slab.cpp  ****                 this->slabs_free = tmp;
 715              		.loc 1 157 35 is_stmt 0
 716 0418 83370A01 		ld	a5,16(s4)
 157:src/Slab.cpp  ****                 this->slabs_free = tmp;
 717              		.loc 1 157 27
 718 041c 23B4F400 		sd	a5,8(s1)
 158:src/Slab.cpp  ****                 this->num_slabs_partial--;
 719              		.loc 1 158 17 is_stmt 1
 158:src/Slab.cpp  ****                 this->num_slabs_partial--;
 720              		.loc 1 158 34 is_stmt 0
 721 0420 23389A00 		sd	s1,16(s4)
 159:src/Slab.cpp  ****                 this->num_slabs_free++;
 722              		.loc 1 159 17 is_stmt 1
 159:src/Slab.cpp  ****                 this->num_slabs_free++;
 723              		.loc 1 159 23 is_stmt 0
 724 0424 83370A02 		ld	a5,32(s4)
 159:src/Slab.cpp  ****                 this->num_slabs_free++;
 725              		.loc 1 159 40
 726 0428 9387F7FF 		addi	a5,a5,-1
 727 042c 2330FA02 		sd	a5,32(s4)
 160:src/Slab.cpp  ****             }
 728              		.loc 1 160 17 is_stmt 1
 160:src/Slab.cpp  ****             }
 729              		.loc 1 160 23 is_stmt 0
 730 0430 83378A02 		ld	a5,40(s4)
GAS LISTING /tmp/ccMn1XFx.s 			page 20


 160:src/Slab.cpp  ****             }
 731              		.loc 1 160 37
 732 0434 93871700 		addi	a5,a5,1
 733 0438 2334FA02 		sd	a5,40(s4)
 734              	.L33:
 162:src/Slab.cpp  ****         }
 735              		.loc 1 162 13 is_stmt 1
 162:src/Slab.cpp  ****         }
 736              		.loc 1 162 20 is_stmt 0
 737 043c 13050000 		li	a0,0
 738 0440 6F00C00C 		j	.L36
 739              	.LVL77:
 740              	.L29:
 741              	.LBE80:
 742              	.LBE82:
 743              	.LBE85:
 744              	.LBE87:
 165:src/Slab.cpp  ****     }
 166:src/Slab.cpp  ****     // check in full
 167:src/Slab.cpp  ****     prev = nullptr;
 745              		.loc 1 167 5 is_stmt 1
 168:src/Slab.cpp  ****     for(Slab* tmp = this->slabs_full; tmp; tmp = tmp->next){
 746              		.loc 1 168 5
 747              	.LBB88:
 748              		.loc 1 168 15 is_stmt 0
 749 0444 03390A00 		ld	s2,0(s4)
 750              	.LVL78:
 751 0448 6F008001 		j	.L43
 752              	.LVL79:
 753              	.L41:
 754              	.LBB89:
 755              	.LBB90:
 756              	.LBB91:
 169:src/Slab.cpp  ****         if((size_t)objp > (size_t)tmp &&
 170:src/Slab.cpp  ****            (size_t)objp < (size_t)tmp + this->size_in_blocks * BLOCK_SIZE - sizeof(size_t)){
 171:src/Slab.cpp  ****             size_t position = (((size_t)objp - (size_t)tmp->first_addr)) / (size_t)this->objsize;
 172:src/Slab.cpp  ****             (tmp->free_objects)[position] = false;
 173:src/Slab.cpp  ****             if(this->dtor){
 174:src/Slab.cpp  ****                 this->dtor(objp);
 175:src/Slab.cpp  ****             }
 176:src/Slab.cpp  ****             if(this->ctor){
 177:src/Slab.cpp  ****                 this->ctor(objp);
 178:src/Slab.cpp  ****             }
 179:src/Slab.cpp  ****             this->num_active_obj--;
 180:src/Slab.cpp  ****             tmp->decrement_num_of_active();
 181:src/Slab.cpp  **** 
 182:src/Slab.cpp  ****             // move from full to partial
 183:src/Slab.cpp  ****             if(prev)prev->next = tmp->next;
 184:src/Slab.cpp  ****             else slabs_full = tmp->next;
 757              		.loc 1 184 18 is_stmt 1
 758              		.loc 1 184 36 is_stmt 0
 759 044c 83378900 		ld	a5,8(s2)
 760              		.loc 1 184 29
 761 0450 2330FA00 		sd	a5,0(s4)
 762 0454 6F008008 		j	.L42
 763              	.LVL80:
 764              	.L38:
GAS LISTING /tmp/ccMn1XFx.s 			page 21


 765              	.LBE91:
 766              	.LBE90:
 185:src/Slab.cpp  ****             tmp->next = this->slabs_partial;
 186:src/Slab.cpp  ****             this->slabs_partial = tmp;
 187:src/Slab.cpp  ****             this->num_slabs_full--;
 188:src/Slab.cpp  ****             this->num_slabs_partial++;
 189:src/Slab.cpp  **** 
 190:src/Slab.cpp  ****             return 0;
 191:src/Slab.cpp  ****         }
 192:src/Slab.cpp  ****         prev = tmp;
 767              		.loc 1 192 9 is_stmt 1 discriminator 2
 768              	.LBE89:
 168:src/Slab.cpp  ****         if((size_t)objp > (size_t)tmp &&
 769              		.loc 1 168 5 discriminator 2
 770              	.LBB96:
 771              		.loc 1 192 14 is_stmt 0 discriminator 2
 772 0458 93040900 		mv	s1,s2
 773              	.LBE96:
 168:src/Slab.cpp  ****         if((size_t)objp > (size_t)tmp &&
 774              		.loc 1 168 48 discriminator 2
 775 045c 03398900 		ld	s2,8(s2)
 776              	.LVL81:
 777              	.L43:
 168:src/Slab.cpp  ****         if((size_t)objp > (size_t)tmp &&
 778              		.loc 1 168 39 is_stmt 1 discriminator 1
 779 0460 6304090A 		beqz	s2,.L44
 780              	.LBB97:
 169:src/Slab.cpp  ****         if((size_t)objp > (size_t)tmp &&
 781              		.loc 1 169 9
 782              	.LBB95:
 783 0464 E37A39FF 		bleu	s3,s2,.L38
 170:src/Slab.cpp  ****             size_t position = (((size_t)objp - (size_t)tmp->first_addr)) / (size_t)this->objsize;
 784              		.loc 1 170 47 is_stmt 0 discriminator 1
 785 0468 83370A04 		ld	a5,64(s4)
 170:src/Slab.cpp  ****             size_t position = (((size_t)objp - (size_t)tmp->first_addr)) / (size_t)this->objsize;
 786              		.loc 1 170 62 discriminator 1
 787 046c 9397C700 		slli	a5,a5,12
 170:src/Slab.cpp  ****             size_t position = (((size_t)objp - (size_t)tmp->first_addr)) / (size_t)this->objsize;
 788              		.loc 1 170 39 discriminator 1
 789 0470 B307F900 		add	a5,s2,a5
 170:src/Slab.cpp  ****             size_t position = (((size_t)objp - (size_t)tmp->first_addr)) / (size_t)this->objsize;
 790              		.loc 1 170 75 discriminator 1
 791 0474 938787FF 		addi	a5,a5,-8
 169:src/Slab.cpp  ****            (size_t)objp < (size_t)tmp + this->size_in_blocks * BLOCK_SIZE - sizeof(size_t)){
 792              		.loc 1 169 39 discriminator 1
 793 0478 E3F0F9FE 		bgeu	s3,a5,.L38
 794              	.LBB94:
 171:src/Slab.cpp  ****             (tmp->free_objects)[position] = false;
 795              		.loc 1 171 13 is_stmt 1
 171:src/Slab.cpp  ****             (tmp->free_objects)[position] = false;
 796              		.loc 1 171 61 is_stmt 0
 797 047c 83378901 		ld	a5,24(s2)
 171:src/Slab.cpp  ****             (tmp->free_objects)[position] = false;
 798              		.loc 1 171 46
 799 0480 3387F940 		sub	a4,s3,a5
 171:src/Slab.cpp  ****             (tmp->free_objects)[position] = false;
 800              		.loc 1 171 90
GAS LISTING /tmp/ccMn1XFx.s 			page 22


 801 0484 83370A03 		ld	a5,48(s4)
 171:src/Slab.cpp  ****             (tmp->free_objects)[position] = false;
 802              		.loc 1 171 20
 803 0488 3357F702 		divu	a4,a4,a5
 804              	.LVL82:
 172:src/Slab.cpp  ****             if(this->dtor){
 805              		.loc 1 172 13 is_stmt 1
 172:src/Slab.cpp  ****             if(this->dtor){
 806              		.loc 1 172 19 is_stmt 0
 807 048c 83370901 		ld	a5,16(s2)
 172:src/Slab.cpp  ****             if(this->dtor){
 808              		.loc 1 172 41
 809 0490 3387E700 		add	a4,a5,a4
 810              	.LVL83:
 172:src/Slab.cpp  ****             if(this->dtor){
 811              		.loc 1 172 43
 812 0494 23000700 		sb	zero,0(a4)
 813              	.LVL84:
 173:src/Slab.cpp  ****                 this->dtor(objp);
 814              		.loc 1 173 13 is_stmt 1
 173:src/Slab.cpp  ****                 this->dtor(objp);
 815              		.loc 1 173 22 is_stmt 0
 816 0498 83370A05 		ld	a5,80(s4)
 173:src/Slab.cpp  ****                 this->dtor(objp);
 817              		.loc 1 173 13
 818 049c 63860700 		beqz	a5,.L39
 174:src/Slab.cpp  ****             }
 819              		.loc 1 174 17 is_stmt 1
 174:src/Slab.cpp  ****             }
 820              		.loc 1 174 27 is_stmt 0
 821 04a0 13850900 		mv	a0,s3
 822              	.LVL85:
 823 04a4 E7800700 		jalr	a5
 824              	.LVL86:
 825              	.L39:
 176:src/Slab.cpp  ****                 this->ctor(objp);
 826              		.loc 1 176 13 is_stmt 1
 176:src/Slab.cpp  ****                 this->ctor(objp);
 827              		.loc 1 176 22 is_stmt 0
 828 04a8 83378A04 		ld	a5,72(s4)
 176:src/Slab.cpp  ****                 this->ctor(objp);
 829              		.loc 1 176 13
 830 04ac 63860700 		beqz	a5,.L40
 177:src/Slab.cpp  ****             }
 831              		.loc 1 177 17 is_stmt 1
 177:src/Slab.cpp  ****             }
 832              		.loc 1 177 27 is_stmt 0
 833 04b0 13850900 		mv	a0,s3
 834 04b4 E7800700 		jalr	a5
 835              	.LVL87:
 836              	.L40:
 179:src/Slab.cpp  ****             tmp->decrement_num_of_active();
 837              		.loc 1 179 13 is_stmt 1
 179:src/Slab.cpp  ****             tmp->decrement_num_of_active();
 838              		.loc 1 179 19 is_stmt 0
 839 04b8 83378A06 		ld	a5,104(s4)
 179:src/Slab.cpp  ****             tmp->decrement_num_of_active();
GAS LISTING /tmp/ccMn1XFx.s 			page 23


 840              		.loc 1 179 33
 841 04bc 9387F7FF 		addi	a5,a5,-1
 842 04c0 2334FA06 		sd	a5,104(s4)
 180:src/Slab.cpp  **** 
 843              		.loc 1 180 13 is_stmt 1
 844              	.LVL88:
 845              	.LBB92:
 846              	.LBB93:
 847              		.loc 3 19 36
 848 04c4 83370900 		ld	a5,0(s2)
 849              		.loc 3 19 46 is_stmt 0
 850 04c8 9387F7FF 		addi	a5,a5,-1
 851 04cc 2330F900 		sd	a5,0(s2)
 852              	.LVL89:
 853              	.LBE93:
 854              	.LBE92:
 183:src/Slab.cpp  ****             else slabs_full = tmp->next;
 855              		.loc 1 183 13 is_stmt 1
 856 04d0 E38E04F6 		beqz	s1,.L41
 183:src/Slab.cpp  ****             else slabs_full = tmp->next;
 857              		.loc 1 183 21 discriminator 1
 183:src/Slab.cpp  ****             else slabs_full = tmp->next;
 858              		.loc 1 183 39 is_stmt 0 discriminator 1
 859 04d4 83378900 		ld	a5,8(s2)
 183:src/Slab.cpp  ****             else slabs_full = tmp->next;
 860              		.loc 1 183 32 discriminator 1
 861 04d8 23B4F400 		sd	a5,8(s1)
 862              	.L42:
 185:src/Slab.cpp  ****             this->slabs_partial = tmp;
 863              		.loc 1 185 13 is_stmt 1
 185:src/Slab.cpp  ****             this->slabs_partial = tmp;
 864              		.loc 1 185 31 is_stmt 0
 865 04dc 83378A00 		ld	a5,8(s4)
 185:src/Slab.cpp  ****             this->slabs_partial = tmp;
 866              		.loc 1 185 23
 867 04e0 2334F900 		sd	a5,8(s2)
 186:src/Slab.cpp  ****             this->num_slabs_full--;
 868              		.loc 1 186 13 is_stmt 1
 186:src/Slab.cpp  ****             this->num_slabs_full--;
 869              		.loc 1 186 33 is_stmt 0
 870 04e4 23342A01 		sd	s2,8(s4)
 187:src/Slab.cpp  ****             this->num_slabs_partial++;
 871              		.loc 1 187 13 is_stmt 1
 187:src/Slab.cpp  ****             this->num_slabs_partial++;
 872              		.loc 1 187 19 is_stmt 0
 873 04e8 83378A01 		ld	a5,24(s4)
 187:src/Slab.cpp  ****             this->num_slabs_partial++;
 874              		.loc 1 187 33
 875 04ec 9387F7FF 		addi	a5,a5,-1
 876 04f0 233CFA00 		sd	a5,24(s4)
 188:src/Slab.cpp  **** 
 877              		.loc 1 188 13 is_stmt 1
 188:src/Slab.cpp  **** 
 878              		.loc 1 188 19 is_stmt 0
 879 04f4 83370A02 		ld	a5,32(s4)
 188:src/Slab.cpp  **** 
 880              		.loc 1 188 36
GAS LISTING /tmp/ccMn1XFx.s 			page 24


 881 04f8 93871700 		addi	a5,a5,1
 882 04fc 2330FA02 		sd	a5,32(s4)
 190:src/Slab.cpp  ****         }
 883              		.loc 1 190 13 is_stmt 1
 190:src/Slab.cpp  ****         }
 884              		.loc 1 190 20 is_stmt 0
 885 0500 13050000 		li	a0,0
 886 0504 6F008000 		j	.L36
 887              	.LVL90:
 888              	.L44:
 889              	.LBE94:
 890              	.LBE95:
 891              	.LBE97:
 892              	.LBE88:
 193:src/Slab.cpp  ****     }
 194:src/Slab.cpp  ****     return -1;
 893              		.loc 1 194 13
 894 0508 1305F0FF 		li	a0,-1
 895              	.LVL91:
 896              	.L36:
 195:src/Slab.cpp  **** }
 897              		.loc 1 195 1
 898 050c 83308102 		ld	ra,40(sp)
 899              		.cfi_restore 1
 900 0510 03340102 		ld	s0,32(sp)
 901              		.cfi_restore 8
 902              		.cfi_def_cfa 2, 48
 903 0514 83348101 		ld	s1,24(sp)
 904              		.cfi_restore 9
 905 0518 03390101 		ld	s2,16(sp)
 906              		.cfi_restore 18
 907 051c 83398100 		ld	s3,8(sp)
 908              		.cfi_restore 19
 909              	.LVL92:
 910 0520 033A0100 		ld	s4,0(sp)
 911              		.cfi_restore 20
 912              	.LVL93:
 913 0524 13010103 		addi	sp,sp,48
 914              		.cfi_def_cfa_offset 0
 915 0528 67800000 		jr	ra
 916              		.cfi_endproc
 917              	.LFE52:
 919              		.align	2
 920              		.globl	_ZN12kmem_cache_s20check_if_name_existsEPKc
 922              	_ZN12kmem_cache_s20check_if_name_existsEPKc:
 923              	.LFB54:
 196:src/Slab.cpp  **** 
 197:src/Slab.cpp  **** void *kmem_cache_s::kmalloc(size_t size) {
 198:src/Slab.cpp  ****     // kreiraj ime
 199:src/Slab.cpp  ****     const char* n = (const char*)concatenate_int_to_char_ptr((int)size);
 200:src/Slab.cpp  **** 
 201:src/Slab.cpp  ****     kmem_cache_s* tmp = check_if_name_exists(n);
 202:src/Slab.cpp  ****     kmem_cache_s* cache = nullptr;
 203:src/Slab.cpp  ****     if(tmp == nullptr){
 204:src/Slab.cpp  ****         // napravi novi
 205:src/Slab.cpp  ****         cache = (kmem_cache_s*)kmem_cache_create(n, size, nullptr, nullptr);
 206:src/Slab.cpp  ****         if(!cache)return nullptr;
GAS LISTING /tmp/ccMn1XFx.s 			page 25


 207:src/Slab.cpp  ****     }
 208:src/Slab.cpp  ****     // vrati element
 209:src/Slab.cpp  ****     void* elem = cache->kmem_cache_alloc();
 210:src/Slab.cpp  ****     return elem;
 211:src/Slab.cpp  **** }
 212:src/Slab.cpp  **** 
 213:src/Slab.cpp  **** // returns cache with given name, or nullptr if there is no such cache
 214:src/Slab.cpp  **** kmem_cache_s *kmem_cache_s::check_if_name_exists(const char* name) {
 924              		.loc 1 214 68 is_stmt 1
 925              		.cfi_startproc
 926              	.LVL94:
 927 052c 130101FE 		addi	sp,sp,-32
 928              		.cfi_def_cfa_offset 32
 929 0530 233C1100 		sd	ra,24(sp)
 930 0534 23388100 		sd	s0,16(sp)
 931 0538 23349100 		sd	s1,8(sp)
 932 053c 23302101 		sd	s2,0(sp)
 933              		.cfi_offset 1, -8
 934              		.cfi_offset 8, -16
 935              		.cfi_offset 9, -24
 936              		.cfi_offset 18, -32
 937 0540 13040102 		addi	s0,sp,32
 938              		.cfi_def_cfa 8, 0
 939 0544 13090500 		mv	s2,a0
 215:src/Slab.cpp  ****     for(kmem_cache_s* tmp = kmem_cache_s::head; tmp; tmp = tmp->next){
 940              		.loc 1 215 5
 941              	.LBB98:
 942              		.loc 1 215 23 is_stmt 0
 943 0548 97040000 		ld	s1,.LANCHOR0
 943      83B40400 
 944              	.LVL95:
 945              	.L48:
 946              		.loc 1 215 49 is_stmt 1 discriminator 1
 947 0550 63800402 		beqz	s1,.L46
 216:src/Slab.cpp  ****         if(string_compare(tmp->name, name)){
 948              		.loc 1 216 9
 949              		.loc 1 216 26 is_stmt 0
 950 0554 93050900 		mv	a1,s2
 951 0558 03B58405 		ld	a0,88(s1)
 952 055c 97000000 		call	_Z14string_comparePKcS0_@plt
 952      E7800000 
 953              	.LVL96:
 954              		.loc 1 216 9
 955 0564 63160500 		bnez	a0,.L46
 215:src/Slab.cpp  ****     for(kmem_cache_s* tmp = kmem_cache_s::head; tmp; tmp = tmp->next){
 956              		.loc 1 215 5 is_stmt 1 discriminator 2
 215:src/Slab.cpp  ****     for(kmem_cache_s* tmp = kmem_cache_s::head; tmp; tmp = tmp->next){
 957              		.loc 1 215 58 is_stmt 0 discriminator 2
 958 0568 83B40406 		ld	s1,96(s1)
 959              	.LVL97:
 215:src/Slab.cpp  ****     for(kmem_cache_s* tmp = kmem_cache_s::head; tmp; tmp = tmp->next){
 960              		.loc 1 215 5 discriminator 2
 961 056c 6FF05FFE 		j	.L48
 962              	.L46:
 963              	.LBE98:
 217:src/Slab.cpp  ****             return tmp;
 218:src/Slab.cpp  ****         }
GAS LISTING /tmp/ccMn1XFx.s 			page 26


 219:src/Slab.cpp  ****     }
 220:src/Slab.cpp  ****     return nullptr;
 221:src/Slab.cpp  **** }
 964              		.loc 1 221 1
 965 0570 13850400 		mv	a0,s1
 966 0574 83308101 		ld	ra,24(sp)
 967              		.cfi_restore 1
 968 0578 03340101 		ld	s0,16(sp)
 969              		.cfi_restore 8
 970              		.cfi_def_cfa 2, 32
 971 057c 83348100 		ld	s1,8(sp)
 972              		.cfi_restore 9
 973              	.LVL98:
 974 0580 03390100 		ld	s2,0(sp)
 975              		.cfi_restore 18
 976              	.LVL99:
 977 0584 13010102 		addi	sp,sp,32
 978              		.cfi_def_cfa_offset 0
 979 0588 67800000 		jr	ra
 980              		.cfi_endproc
 981              	.LFE54:
 983              		.align	2
 984              		.globl	_ZN12kmem_cache_s3powEm
 986              	_ZN12kmem_cache_s3powEm:
 987              	.LFB55:
 222:src/Slab.cpp  **** 
 223:src/Slab.cpp  **** size_t kmem_cache_s::pow(size_t deg){
 988              		.loc 1 223 37 is_stmt 1
 989              		.cfi_startproc
 990              	.LVL100:
 991 058c 130101FF 		addi	sp,sp,-16
 992              		.cfi_def_cfa_offset 16
 993 0590 23348100 		sd	s0,8(sp)
 994              		.cfi_offset 8, -8
 995 0594 13040101 		addi	s0,sp,16
 996              		.cfi_def_cfa 8, 0
 997 0598 13070500 		mv	a4,a0
 224:src/Slab.cpp  ****     size_t tmp = 1;
 998              		.loc 1 224 5
 999              	.LVL101:
 225:src/Slab.cpp  ****     for(size_t i = 0; i < deg; i++){
 1000              		.loc 1 225 5
 1001              	.LBB99:
 1002              		.loc 1 225 16 is_stmt 0
 1003 059c 93070000 		li	a5,0
 1004              	.LBE99:
 224:src/Slab.cpp  ****     size_t tmp = 1;
 1005              		.loc 1 224 12
 1006 05a0 13051000 		li	a0,1
 1007              	.LVL102:
 1008              	.L52:
 1009              	.LBB100:
 1010              		.loc 1 225 25 is_stmt 1 discriminator 3
 1011 05a4 63F8E700 		bgeu	a5,a4,.L50
 226:src/Slab.cpp  ****         tmp <<= 1;
 1012              		.loc 1 226 9 discriminator 2
 1013              		.loc 1 226 13 is_stmt 0 discriminator 2
GAS LISTING /tmp/ccMn1XFx.s 			page 27


 1014 05a8 13151500 		slli	a0,a0,1
 1015              	.LVL103:
 225:src/Slab.cpp  ****     for(size_t i = 0; i < deg; i++){
 1016              		.loc 1 225 5 is_stmt 1 discriminator 2
 1017 05ac 93871700 		addi	a5,a5,1
 1018              	.LVL104:
 1019 05b0 6FF05FFF 		j	.L52
 1020              	.L50:
 1021              	.LBE100:
 227:src/Slab.cpp  ****     }
 228:src/Slab.cpp  ****     return tmp;
 229:src/Slab.cpp  **** }
 1022              		.loc 1 229 1 is_stmt 0
 1023 05b4 03348100 		ld	s0,8(sp)
 1024              		.cfi_restore 8
 1025              		.cfi_def_cfa 2, 16
 1026 05b8 13010101 		addi	sp,sp,16
 1027              		.cfi_def_cfa_offset 0
 1028 05bc 67800000 		jr	ra
 1029              		.cfi_endproc
 1030              	.LFE55:
 1032              		.align	2
 1033              		.globl	_ZN12kmem_cache_s28is_small_buffer_size_correctEm
 1035              	_ZN12kmem_cache_s28is_small_buffer_size_correctEm:
 1036              	.LFB56:
 230:src/Slab.cpp  **** 
 231:src/Slab.cpp  **** bool kmem_cache_s::is_small_buffer_size_correct(size_t size) {
 1037              		.loc 1 231 62 is_stmt 1
 1038              		.cfi_startproc
 1039              	.LVL105:
 1040 05c0 130101FF 		addi	sp,sp,-16
 1041              		.cfi_def_cfa_offset 16
 1042 05c4 23348100 		sd	s0,8(sp)
 1043              		.cfi_offset 8, -8
 1044 05c8 13040101 		addi	s0,sp,16
 1045              		.cfi_def_cfa 8, 0
 232:src/Slab.cpp  ****     size_t num = 1;
 1046              		.loc 1 232 5
 1047              	.LVL106:
 233:src/Slab.cpp  ****     size_t iter = 0;
 1048              		.loc 1 233 5
 1049              		.loc 1 233 12 is_stmt 0
 1050 05cc 13070000 		li	a4,0
 232:src/Slab.cpp  ****     size_t num = 1;
 1051              		.loc 1 232 12
 1052 05d0 93071000 		li	a5,1
 1053 05d4 6F008000 		j	.L56
 1054              	.LVL107:
 1055              	.L58:
 234:src/Slab.cpp  ****     while(num < size){
 235:src/Slab.cpp  ****         num <<= 1;
 236:src/Slab.cpp  ****         iter++;
 1056              		.loc 1 236 13
 1057 05d8 13870600 		mv	a4,a3
 1058              	.LVL108:
 1059              	.L56:
 234:src/Slab.cpp  ****     while(num < size){
GAS LISTING /tmp/ccMn1XFx.s 			page 28


 1060              		.loc 1 234 5 is_stmt 1
 234:src/Slab.cpp  ****     while(num < size){
 1061              		.loc 1 234 15
 1062 05dc 63F2A702 		bgeu	a5,a0,.L57
 235:src/Slab.cpp  ****         iter++;
 1063              		.loc 1 235 9
 235:src/Slab.cpp  ****         iter++;
 1064              		.loc 1 235 13 is_stmt 0
 1065 05e0 93971700 		slli	a5,a5,1
 1066              	.LVL109:
 1067              		.loc 1 236 9 is_stmt 1
 1068              		.loc 1 236 13 is_stmt 0
 1069 05e4 93061700 		addi	a3,a4,1
 1070              	.LVL110:
 237:src/Slab.cpp  ****         if(num == size){
 1071              		.loc 1 237 9 is_stmt 1
 1072 05e8 E318F5FE 		bne	a0,a5,.L58
 238:src/Slab.cpp  ****             if(iter >= 5 && iter <= 17){
 1073              		.loc 1 238 13
 1074              		.loc 1 238 26 is_stmt 0
 1075 05ec 1307C7FF 		addi	a4,a4,-4
 1076              		.loc 1 238 13
 1077 05f0 9307C000 		li	a5,12
 1078              	.LVL111:
 1079 05f4 63EEE700 		bgtu	a4,a5,.L59
 239:src/Slab.cpp  ****                 return true;
 1080              		.loc 1 239 24
 1081 05f8 13051000 		li	a0,1
 1082              	.LVL112:
 1083 05fc 6F008000 		j	.L55
 1084              	.LVL113:
 1085              	.L57:
 240:src/Slab.cpp  ****             }
 241:src/Slab.cpp  ****             else return false;
 242:src/Slab.cpp  ****         }
 243:src/Slab.cpp  ****     }
 244:src/Slab.cpp  ****     return false;
 1086              		.loc 1 244 12
 1087 0600 13050000 		li	a0,0
 1088              	.LVL114:
 1089              	.L55:
 245:src/Slab.cpp  **** }
 1090              		.loc 1 245 1
 1091 0604 03348100 		ld	s0,8(sp)
 1092              		.cfi_remember_state
 1093              		.cfi_restore 8
 1094              		.cfi_def_cfa 2, 16
 1095 0608 13010101 		addi	sp,sp,16
 1096              		.cfi_def_cfa_offset 0
 1097 060c 67800000 		jr	ra
 1098              	.LVL115:
 1099              	.L59:
 1100              		.cfi_restore_state
 241:src/Slab.cpp  ****         }
 1101              		.loc 1 241 25
 1102 0610 13050000 		li	a0,0
 1103              	.LVL116:
GAS LISTING /tmp/ccMn1XFx.s 			page 29


 1104 0614 6FF01FFF 		j	.L55
 1105              		.cfi_endproc
 1106              	.LFE56:
 1108              		.align	2
 1109              		.globl	_ZN12kmem_cache_s5kfreeEPKv
 1111              	_ZN12kmem_cache_s5kfreeEPKv:
 1112              	.LFB57:
 246:src/Slab.cpp  **** 
 247:src/Slab.cpp  **** // returns 0 if delete is executed, -1 if not
 248:src/Slab.cpp  **** int kmem_cache_s::kfree(const void *objp) {
 1113              		.loc 1 248 43 is_stmt 1
 1114              		.cfi_startproc
 1115              	.LVL117:
 1116 0618 130101FE 		addi	sp,sp,-32
 1117              		.cfi_def_cfa_offset 32
 1118 061c 233C1100 		sd	ra,24(sp)
 1119 0620 23388100 		sd	s0,16(sp)
 1120 0624 23349100 		sd	s1,8(sp)
 1121 0628 23302101 		sd	s2,0(sp)
 1122              		.cfi_offset 1, -8
 1123              		.cfi_offset 8, -16
 1124              		.cfi_offset 9, -24
 1125              		.cfi_offset 18, -32
 1126 062c 13040102 		addi	s0,sp,32
 1127              		.cfi_def_cfa 8, 0
 1128 0630 13090500 		mv	s2,a0
 249:src/Slab.cpp  ****     for(kmem_cache_s* tmp = kmem_cache_s::head; tmp; tmp = tmp->next){
 1129              		.loc 1 249 5
 1130              	.LBB101:
 1131              		.loc 1 249 23 is_stmt 0
 1132 0634 97040000 		ld	s1,.LANCHOR0
 1132      83B40400 
 1133              	.LVL118:
 1134              	.L63:
 1135              		.loc 1 249 49 is_stmt 1 discriminator 1
 1136 063c 63800402 		beqz	s1,.L64
 250:src/Slab.cpp  ****         if(tmp->kmem_cache_free((void*)objp) == 0)return 0;
 1137              		.loc 1 250 9
 1138              		.loc 1 250 32 is_stmt 0
 1139 0640 93050900 		mv	a1,s2
 1140 0644 13850400 		mv	a0,s1
 1141 0648 97000000 		call	_ZN12kmem_cache_s15kmem_cache_freeEPv
 1141      E7800000 
 1142              	.LVL119:
 1143              		.loc 1 250 9
 1144 0650 63080500 		beqz	a0,.L62
 249:src/Slab.cpp  ****     for(kmem_cache_s* tmp = kmem_cache_s::head; tmp; tmp = tmp->next){
 1145              		.loc 1 249 5 is_stmt 1 discriminator 2
 249:src/Slab.cpp  ****     for(kmem_cache_s* tmp = kmem_cache_s::head; tmp; tmp = tmp->next){
 1146              		.loc 1 249 58 is_stmt 0 discriminator 2
 1147 0654 83B40406 		ld	s1,96(s1)
 1148              	.LVL120:
 249:src/Slab.cpp  ****     for(kmem_cache_s* tmp = kmem_cache_s::head; tmp; tmp = tmp->next){
 1149              		.loc 1 249 5 discriminator 2
 1150 0658 6FF05FFE 		j	.L63
 1151              	.L64:
 1152              	.LBE101:
GAS LISTING /tmp/ccMn1XFx.s 			page 30


 251:src/Slab.cpp  ****     }
 252:src/Slab.cpp  ****     // if not found return 1;
 253:src/Slab.cpp  ****     return -1;
 1153              		.loc 1 253 13
 1154 065c 1305F0FF 		li	a0,-1
 1155              	.L62:
 254:src/Slab.cpp  **** }
 1156              		.loc 1 254 1
 1157 0660 83308101 		ld	ra,24(sp)
 1158              		.cfi_restore 1
 1159 0664 03340101 		ld	s0,16(sp)
 1160              		.cfi_restore 8
 1161              		.cfi_def_cfa 2, 32
 1162 0668 83348100 		ld	s1,8(sp)
 1163              		.cfi_restore 9
 1164              	.LVL121:
 1165 066c 03390100 		ld	s2,0(sp)
 1166              		.cfi_restore 18
 1167              	.LVL122:
 1168 0670 13010102 		addi	sp,sp,32
 1169              		.cfi_def_cfa_offset 0
 1170 0674 67800000 		jr	ra
 1171              		.cfi_endproc
 1172              	.LFE57:
 1174              		.section	.rodata.str1.8,"aMS",@progbits,1
 1175              		.align	3
 1176              	.LC0:
 1177 0000 2D2D2D2D 		.string	"------------------- CACHE INFO -------------------\n"
 1177      2D2D2D2D 
 1177      2D2D2D2D 
 1177      2D2D2D2D 
 1177      2D2D2D20 
 1178 0034 00000000 		.align	3
 1179              	.LC1:
 1180 0038 496D653A 		.string	"Ime: "
 1180      2000
 1181 003e 0000     		.align	3
 1182              	.LC2:
 1183 0040 0A00     		.string	"\n"
 1184 0042 00000000 		.align	3
 1184      0000
 1185              	.LC3:
 1186 0048 56656C69 		.string	"Velicina objekta: "
 1186      63696E61 
 1186      206F626A 
 1186      656B7461 
 1186      3A2000
 1187 005b 00000000 		.align	3
 1187      00
 1188              	.LC4:
 1189 0060 56656C69 		.string	"Velicina kesa u blokovima: "
 1189      63696E61 
 1189      206B6573 
 1189      61207520 
 1189      626C6F6B 
 1190 007c 00000000 		.align	3
 1191              	.LC5:
GAS LISTING /tmp/ccMn1XFx.s 			page 31


 1192 0080 42726F6A 		.string	"Broj ploca u kesu: "
 1192      20706C6F 
 1192      63612075 
 1192      206B6573 
 1192      753A2000 
 1193 0094 00000000 		.align	3
 1194              	.LC6:
 1195 0098 42726F6A 		.string	"Broj objekata koji staju u jednu plocu: "
 1195      206F626A 
 1195      656B6174 
 1195      61206B6F 
 1195      6A692073 
 1196 00c1 00000000 		.align	3
 1196      000000
 1197              	.LC7:
 1198 00c8 42726F6A 		.string	"Broj aktivnih objekata u kesu: "
 1198      20616B74 
 1198      69766E69 
 1198      68206F62 
 1198      6A656B61 
 1199              		.align	3
 1200              	.LC8:
 1201 00e8 736C6F62 		.string	"slobodni: "
 1201      6F646E69 
 1201      3A2000
 1202 00f3 00000000 		.align	3
 1202      00
 1203              	.LC9:
 1204 00f8 2000     		.string	" "
 1205 00fa 00000000 		.align	3
 1205      0000
 1206              	.LC10:
 1207 0100 7A617072 		.string	"zaprljani: "
 1207      6C6A616E 
 1207      693A2000 
 1208 010c 00000000 		.align	3
 1209              	.LC11:
 1210 0110 70756E69 		.string	"puni: "
 1210      3A2000
 1211 0117 00       		.align	3
 1212              	.LC12:
 1213 0118 42726F6A 		.string	"Broj uspesnih smanjenja kesa: "
 1213      20757370 
 1213      65736E69 
 1213      6820736D 
 1213      616E6A65 
 1214 0137 00       		.align	3
 1215              	.LC13:
 1216 0138 56656C69 		.string	"Velicina metapodataka za kmem_cache_s: "
 1216      63696E61 
 1216      206D6574 
 1216      61706F64 
 1216      6174616B 
 1217              		.align	3
 1218              	.LC14:
 1219 0160 56656C69 		.string	"Velicina metapodataka za Slab: "
 1219      63696E61 
GAS LISTING /tmp/ccMn1XFx.s 			page 32


 1219      206D6574 
 1219      61706F64 
 1219      6174616B 
 1220              		.align	3
 1221              	.LC15:
 1222 0180 5265616C 		.string	"Realna iskoriscenost prostora: "
 1222      6E612069 
 1222      736B6F72 
 1222      69736365 
 1222      6E6F7374 
 1223              		.align	3
 1224              	.LC16:
 1225 01a0 2F00     		.string	"/"
 1226 01a2 00000000 		.align	3
 1226      0000
 1227              	.LC17:
 1228 01a8 4566656B 		.string	"Efektivna iskoriscenost prostora: "
 1228      7469766E 
 1228      61206973 
 1228      6B6F7269 
 1228      7363656E 
 1229 01cb 00000000 		.align	3
 1229      00
 1230              	.LC18:
 1231 01d0 2D2D2D2D 		.string	"----------------------- END ----------------------\n"
 1231      2D2D2D2D 
 1231      2D2D2D2D 
 1231      2D2D2D2D 
 1231      2D2D2D2D 
 1232              		.text
 1233              		.align	2
 1234              		.globl	_ZN12kmem_cache_s15kmem_cache_infoEv
 1236              	_ZN12kmem_cache_s15kmem_cache_infoEv:
 1237              	.LFB59:
 255:src/Slab.cpp  **** 
 256:src/Slab.cpp  **** ///
 257:src/Slab.cpp  **** /// \param addr - address of cache that we deleting
 258:src/Slab.cpp  **** /// \return 0 - if deleted all, -1 - if error ocurred
 259:src/Slab.cpp  **** int kmem_cache_s::kmem_cache_destroy(size_t addr) {
 260:src/Slab.cpp  ****     Slab *prev = nullptr, *tmp = this->slabs_full;
 261:src/Slab.cpp  ****     while (tmp) {
 262:src/Slab.cpp  ****         prev = tmp;
 263:src/Slab.cpp  ****         tmp = tmp->next;
 264:src/Slab.cpp  ****         prev->clear_slab((int)num, (int)objsize, dtor);
 265:src/Slab.cpp  ****         BuddySystem::getInstance().buddyFree((size_t)prev);
 266:src/Slab.cpp  ****     }
 267:src/Slab.cpp  ****     prev = nullptr; tmp = this->slabs_partial;
 268:src/Slab.cpp  ****     while (tmp) {
 269:src/Slab.cpp  ****         prev = tmp;
 270:src/Slab.cpp  ****         tmp = tmp->next;
 271:src/Slab.cpp  ****         prev->clear_slab((int)num, (int)objsize, dtor);
 272:src/Slab.cpp  ****         BuddySystem::getInstance().buddyFree((size_t)prev);
 273:src/Slab.cpp  ****     }
 274:src/Slab.cpp  ****     prev = nullptr; tmp = this->slabs_free;
 275:src/Slab.cpp  ****     while (tmp) {
 276:src/Slab.cpp  ****         prev = tmp;
 277:src/Slab.cpp  ****         tmp = tmp->next;
GAS LISTING /tmp/ccMn1XFx.s 			page 33


 278:src/Slab.cpp  ****         prev->clear_slab((int)num, (int)objsize, dtor);
 279:src/Slab.cpp  ****         BuddySystem::getInstance().buddyFree((size_t)prev);
 280:src/Slab.cpp  ****     }
 281:src/Slab.cpp  **** 
 282:src/Slab.cpp  ****     kmem_cache_s* cache = kmem_cache_s::head, *prev_cache = nullptr;
 283:src/Slab.cpp  ****     while(cache){
 284:src/Slab.cpp  ****         if((size_t)cache == addr){
 285:src/Slab.cpp  ****             if(prev_cache){
 286:src/Slab.cpp  ****                 prev_cache->next = cache->next;
 287:src/Slab.cpp  ****                 cache->next = nullptr;
 288:src/Slab.cpp  ****                 BuddySystem::getInstance().buddyFree((size_t)cache);
 289:src/Slab.cpp  ****                 return 0;
 290:src/Slab.cpp  ****             }
 291:src/Slab.cpp  ****         }
 292:src/Slab.cpp  ****         prev_cache = cache;
 293:src/Slab.cpp  ****         cache = cache->next;
 294:src/Slab.cpp  ****     }
 295:src/Slab.cpp  ****     return -1;
 296:src/Slab.cpp  **** }
 297:src/Slab.cpp  **** 
 298:src/Slab.cpp  **** void kmem_cache_s::kmem_cache_info() {
 1238              		.loc 1 298 38 is_stmt 1
 1239              		.cfi_startproc
 1240              	.LVL123:
 1241 0678 130101FD 		addi	sp,sp,-48
 1242              		.cfi_def_cfa_offset 48
 1243 067c 23341102 		sd	ra,40(sp)
 1244 0680 23308102 		sd	s0,32(sp)
 1245 0684 233C9100 		sd	s1,24(sp)
 1246 0688 23382101 		sd	s2,16(sp)
 1247 068c 23343101 		sd	s3,8(sp)
 1248 0690 23304101 		sd	s4,0(sp)
 1249              		.cfi_offset 1, -8
 1250              		.cfi_offset 8, -16
 1251              		.cfi_offset 9, -24
 1252              		.cfi_offset 18, -32
 1253              		.cfi_offset 19, -40
 1254              		.cfi_offset 20, -48
 1255 0694 13040103 		addi	s0,sp,48
 1256              		.cfi_def_cfa 8, 0
 1257 0698 13090500 		mv	s2,a0
 299:src/Slab.cpp  **** 
 300:src/Slab.cpp  ****     printString("------------------- CACHE INFO -------------------\n");
 1258              		.loc 1 300 5
 1259              		.loc 1 300 16 is_stmt 0
 1260 069c 17050000 		lla	a0,.LC0
 1260      13050500 
 1261              	.LVL124:
 1262 06a4 97000000 		call	_Z11printStringPKc@plt
 1262      E7800000 
 1263              	.LVL125:
 301:src/Slab.cpp  ****     // print name and object size
 302:src/Slab.cpp  ****     printString("Ime: ");
 1264              		.loc 1 302 5 is_stmt 1
 1265              		.loc 1 302 16 is_stmt 0
 1266 06ac 17050000 		lla	a0,.LC1
 1266      13050500 
GAS LISTING /tmp/ccMn1XFx.s 			page 34


 1267 06b4 97000000 		call	_Z11printStringPKc@plt
 1267      E7800000 
 1268              	.LVL126:
 303:src/Slab.cpp  ****     printString(name);
 1269              		.loc 1 303 5 is_stmt 1
 1270              		.loc 1 303 16 is_stmt 0
 1271 06bc 03358905 		ld	a0,88(s2)
 1272 06c0 97000000 		call	_Z11printStringPKc@plt
 1272      E7800000 
 1273              	.LVL127:
 304:src/Slab.cpp  ****     printString("\n");
 1274              		.loc 1 304 5 is_stmt 1
 1275              		.loc 1 304 16 is_stmt 0
 1276 06c8 17050000 		lla	a0,.LC2
 1276      13050500 
 1277 06d0 97000000 		call	_Z11printStringPKc@plt
 1277      E7800000 
 1278              	.LVL128:
 305:src/Slab.cpp  ****     printString("Velicina objekta: ");
 1279              		.loc 1 305 5 is_stmt 1
 1280              		.loc 1 305 16 is_stmt 0
 1281 06d8 17050000 		lla	a0,.LC3
 1281      13050500 
 1282 06e0 97000000 		call	_Z11printStringPKc@plt
 1282      E7800000 
 1283              	.LVL129:
 306:src/Slab.cpp  ****     printInt(objsize);
 1284              		.loc 1 306 5 is_stmt 1
 1285              		.loc 1 306 13 is_stmt 0
 1286 06e8 13060000 		li	a2,0
 1287 06ec 9305A000 		li	a1,10
 1288 06f0 03250903 		lw	a0,48(s2)
 1289 06f4 97000000 		call	_Z8printIntiii@plt
 1289      E7800000 
 1290              	.LVL130:
 307:src/Slab.cpp  ****     printString("\n");
 1291              		.loc 1 307 5 is_stmt 1
 1292              		.loc 1 307 16 is_stmt 0
 1293 06fc 17050000 		lla	a0,.LC2
 1293      13050500 
 1294 0704 97000000 		call	_Z11printStringPKc@plt
 1294      E7800000 
 1295              	.LVL131:
 308:src/Slab.cpp  **** 
 309:src/Slab.cpp  ****     // print size of cache (in blocks)
 310:src/Slab.cpp  ****     size_t num_of_slabs = num_slabs_full + num_slabs_partial + num_slabs_free;
 1296              		.loc 1 310 5 is_stmt 1
 1297              		.loc 1 310 27 is_stmt 0
 1298 070c 83398901 		ld	s3,24(s2)
 1299              		.loc 1 310 44
 1300 0710 83370902 		ld	a5,32(s2)
 1301              		.loc 1 310 42
 1302 0714 B389F900 		add	s3,s3,a5
 1303              		.loc 1 310 64
 1304 0718 03358902 		ld	a0,40(s2)
 1305              		.loc 1 310 12
 1306 071c B389A900 		add	s3,s3,a0
GAS LISTING /tmp/ccMn1XFx.s 			page 35


 1307              	.LVL132:
 311:src/Slab.cpp  ****     size_t size_of_cache_in_blocks = num_of_slabs * size_in_blocks + 1;
 1308              		.loc 1 311 5 is_stmt 1
 1309              		.loc 1 311 53 is_stmt 0
 1310 0720 83340904 		ld	s1,64(s2)
 1311              		.loc 1 311 51
 1312 0724 B3843403 		mul	s1,s1,s3
 1313              		.loc 1 311 12
 1314 0728 93841400 		addi	s1,s1,1
 1315              	.LVL133:
 312:src/Slab.cpp  ****     printString("Velicina kesa u blokovima: ");
 1316              		.loc 1 312 5 is_stmt 1
 1317              		.loc 1 312 16 is_stmt 0
 1318 072c 17050000 		lla	a0,.LC4
 1318      13050500 
 1319 0734 97000000 		call	_Z11printStringPKc@plt
 1319      E7800000 
 1320              	.LVL134:
 313:src/Slab.cpp  ****     printInt(size_of_cache_in_blocks);
 1321              		.loc 1 313 5 is_stmt 1
 1322              		.loc 1 313 13 is_stmt 0
 1323 073c 13060000 		li	a2,0
 1324 0740 9305A000 		li	a1,10
 1325 0744 1B850400 		sext.w	a0,s1
 1326 0748 97000000 		call	_Z8printIntiii@plt
 1326      E7800000 
 1327              	.LVL135:
 314:src/Slab.cpp  ****     printString("\n");
 1328              		.loc 1 314 5 is_stmt 1
 1329              		.loc 1 314 16 is_stmt 0
 1330 0750 17050000 		lla	a0,.LC2
 1330      13050500 
 1331 0758 97000000 		call	_Z11printStringPKc@plt
 1331      E7800000 
 1332              	.LVL136:
 315:src/Slab.cpp  **** 
 316:src/Slab.cpp  ****     // print number of slabs in cache
 317:src/Slab.cpp  ****     printString("Broj ploca u kesu: ");
 1333              		.loc 1 317 5 is_stmt 1
 1334              		.loc 1 317 16 is_stmt 0
 1335 0760 17050000 		lla	a0,.LC5
 1335      13050500 
 1336 0768 97000000 		call	_Z11printStringPKc@plt
 1336      E7800000 
 1337              	.LVL137:
 318:src/Slab.cpp  ****     printInt(num_of_slabs);
 1338              		.loc 1 318 5 is_stmt 1
 1339              		.loc 1 318 13 is_stmt 0
 1340 0770 13060000 		li	a2,0
 1341 0774 9305A000 		li	a1,10
 1342 0778 1B850900 		sext.w	a0,s3
 1343 077c 97000000 		call	_Z8printIntiii@plt
 1343      E7800000 
 1344              	.LVL138:
 319:src/Slab.cpp  ****     printString("\n");
 1345              		.loc 1 319 5 is_stmt 1
 1346              		.loc 1 319 16 is_stmt 0
GAS LISTING /tmp/ccMn1XFx.s 			page 36


 1347 0784 17050000 		lla	a0,.LC2
 1347      13050500 
 1348 078c 97000000 		call	_Z11printStringPKc@plt
 1348      E7800000 
 1349              	.LVL139:
 320:src/Slab.cpp  **** 
 321:src/Slab.cpp  ****     // number of objects in one slab
 322:src/Slab.cpp  ****     printString("Broj objekata koji staju u jednu plocu: ");
 1350              		.loc 1 322 5 is_stmt 1
 1351              		.loc 1 322 16 is_stmt 0
 1352 0794 17050000 		lla	a0,.LC6
 1352      13050500 
 1353 079c 97000000 		call	_Z11printStringPKc@plt
 1353      E7800000 
 1354              	.LVL140:
 323:src/Slab.cpp  ****     printInt(num);
 1355              		.loc 1 323 5 is_stmt 1
 1356              		.loc 1 323 13 is_stmt 0
 1357 07a4 13060000 		li	a2,0
 1358 07a8 9305A000 		li	a1,10
 1359 07ac 03258903 		lw	a0,56(s2)
 1360 07b0 97000000 		call	_Z8printIntiii@plt
 1360      E7800000 
 1361              	.LVL141:
 324:src/Slab.cpp  ****     printString("\n");
 1362              		.loc 1 324 5 is_stmt 1
 1363              		.loc 1 324 16 is_stmt 0
 1364 07b8 17050000 		lla	a0,.LC2
 1364      13050500 
 1365 07c0 97000000 		call	_Z11printStringPKc@plt
 1365      E7800000 
 1366              	.LVL142:
 325:src/Slab.cpp  **** 
 326:src/Slab.cpp  ****     // number of objects in one slab
 327:src/Slab.cpp  ****     printString("Broj aktivnih objekata u kesu: ");
 1367              		.loc 1 327 5 is_stmt 1
 1368              		.loc 1 327 16 is_stmt 0
 1369 07c8 17050000 		lla	a0,.LC7
 1369      13050500 
 1370 07d0 97000000 		call	_Z11printStringPKc@plt
 1370      E7800000 
 1371              	.LVL143:
 328:src/Slab.cpp  ****     printInt(num_active_obj);
 1372              		.loc 1 328 5 is_stmt 1
 1373              		.loc 1 328 13 is_stmt 0
 1374 07d8 13060000 		li	a2,0
 1375 07dc 9305A000 		li	a1,10
 1376 07e0 03258906 		lw	a0,104(s2)
 1377 07e4 97000000 		call	_Z8printIntiii@plt
 1377      E7800000 
 1378              	.LVL144:
 329:src/Slab.cpp  ****     printString("\n");
 1379              		.loc 1 329 5 is_stmt 1
 1380              		.loc 1 329 16 is_stmt 0
 1381 07ec 17050000 		lla	a0,.LC2
 1381      13050500 
 1382 07f4 97000000 		call	_Z11printStringPKc@plt
GAS LISTING /tmp/ccMn1XFx.s 			page 37


 1382      E7800000 
 1383              	.LVL145:
 330:src/Slab.cpp  **** 
 331:src/Slab.cpp  ****     // stanje u slabovima
 332:src/Slab.cpp  ****     printString("slobodni: ");
 1384              		.loc 1 332 5 is_stmt 1
 1385              		.loc 1 332 16 is_stmt 0
 1386 07fc 17050000 		lla	a0,.LC8
 1386      13050500 
 1387 0804 97000000 		call	_Z11printStringPKc@plt
 1387      E7800000 
 1388              	.LVL146:
 333:src/Slab.cpp  ****     for(Slab* tmp = slabs_free; tmp; tmp = tmp->next){
 1389              		.loc 1 333 5 is_stmt 1
 1390              	.LBB102:
 1391              		.loc 1 333 15 is_stmt 0
 1392 080c 83340901 		ld	s1,16(s2)
 1393              	.LVL147:
 1394              	.L68:
 1395              		.loc 1 333 33 is_stmt 1 discriminator 3
 1396 0810 63880402 		beqz	s1,.L67
 334:src/Slab.cpp  ****         printInt(tmp->get_number_of_active_objects());
 1397              		.loc 1 334 9
 1398              	.LVL148:
 1399              	.LBB103:
 1400              	.LBB104:
  16:src/../h/Slab.h ****     void* return_first_free_object_and_rearange_list(int, int);
 1401              		.loc 3 16 43
 1402              	.LBE104:
 1403              	.LBE103:
 1404              		.loc 1 334 17 is_stmt 0
 1405 0814 13060000 		li	a2,0
 1406 0818 9305A000 		li	a1,10
 1407 081c 03A50400 		lw	a0,0(s1)
 1408 0820 97000000 		call	_Z8printIntiii@plt
 1408      E7800000 
 1409              	.LVL149:
 335:src/Slab.cpp  ****         printString(" ");
 1410              		.loc 1 335 9 is_stmt 1
 1411              		.loc 1 335 20 is_stmt 0
 1412 0828 17050000 		lla	a0,.LC9
 1412      13050500 
 1413 0830 97000000 		call	_Z11printStringPKc@plt
 1413      E7800000 
 1414              	.LVL150:
 333:src/Slab.cpp  ****         printInt(tmp->get_number_of_active_objects());
 1415              		.loc 1 333 5 is_stmt 1
 333:src/Slab.cpp  ****         printInt(tmp->get_number_of_active_objects());
 1416              		.loc 1 333 42 is_stmt 0
 1417 0838 83B48400 		ld	s1,8(s1)
 1418              	.LVL151:
 333:src/Slab.cpp  ****         printInt(tmp->get_number_of_active_objects());
 1419              		.loc 1 333 5
 1420 083c 6FF05FFD 		j	.L68
 1421              	.L67:
 1422              	.LBE102:
 336:src/Slab.cpp  ****     }
GAS LISTING /tmp/ccMn1XFx.s 			page 38


 337:src/Slab.cpp  ****     printString("\n");
 1423              		.loc 1 337 5 is_stmt 1
 1424              		.loc 1 337 16 is_stmt 0
 1425 0840 17050000 		lla	a0,.LC2
 1425      13050500 
 1426 0848 97000000 		call	_Z11printStringPKc@plt
 1426      E7800000 
 1427              	.LVL152:
 338:src/Slab.cpp  ****     printString("zaprljani: ");
 1428              		.loc 1 338 5 is_stmt 1
 1429              		.loc 1 338 16 is_stmt 0
 1430 0850 17050000 		lla	a0,.LC10
 1430      13050500 
 1431 0858 97000000 		call	_Z11printStringPKc@plt
 1431      E7800000 
 1432              	.LVL153:
 339:src/Slab.cpp  ****     for(Slab* tmp = slabs_partial; tmp; tmp = tmp->next){
 1433              		.loc 1 339 5 is_stmt 1
 1434              	.LBB105:
 1435              		.loc 1 339 15 is_stmt 0
 1436 0860 83348900 		ld	s1,8(s2)
 1437              	.LVL154:
 1438              	.L70:
 1439              		.loc 1 339 36 is_stmt 1 discriminator 3
 1440 0864 63880402 		beqz	s1,.L69
 340:src/Slab.cpp  ****         printInt(tmp->get_number_of_active_objects());
 1441              		.loc 1 340 9
 1442              	.LVL155:
 1443              	.LBB106:
 1444              	.LBB107:
  16:src/../h/Slab.h ****     void* return_first_free_object_and_rearange_list(int, int);
 1445              		.loc 3 16 43
 1446              	.LBE107:
 1447              	.LBE106:
 1448              		.loc 1 340 17 is_stmt 0
 1449 0868 13060000 		li	a2,0
 1450 086c 9305A000 		li	a1,10
 1451 0870 03A50400 		lw	a0,0(s1)
 1452 0874 97000000 		call	_Z8printIntiii@plt
 1452      E7800000 
 1453              	.LVL156:
 341:src/Slab.cpp  ****         printString(" ");
 1454              		.loc 1 341 9 is_stmt 1
 1455              		.loc 1 341 20 is_stmt 0
 1456 087c 17050000 		lla	a0,.LC9
 1456      13050500 
 1457 0884 97000000 		call	_Z11printStringPKc@plt
 1457      E7800000 
 1458              	.LVL157:
 339:src/Slab.cpp  ****         printInt(tmp->get_number_of_active_objects());
 1459              		.loc 1 339 5 is_stmt 1
 339:src/Slab.cpp  ****         printInt(tmp->get_number_of_active_objects());
 1460              		.loc 1 339 45 is_stmt 0
 1461 088c 83B48400 		ld	s1,8(s1)
 1462              	.LVL158:
 339:src/Slab.cpp  ****         printInt(tmp->get_number_of_active_objects());
 1463              		.loc 1 339 5
GAS LISTING /tmp/ccMn1XFx.s 			page 39


 1464 0890 6FF05FFD 		j	.L70
 1465              	.L69:
 1466              	.LBE105:
 342:src/Slab.cpp  ****     }
 343:src/Slab.cpp  ****     printString("\n");
 1467              		.loc 1 343 5 is_stmt 1
 1468              		.loc 1 343 16 is_stmt 0
 1469 0894 17050000 		lla	a0,.LC2
 1469      13050500 
 1470 089c 97000000 		call	_Z11printStringPKc@plt
 1470      E7800000 
 1471              	.LVL159:
 344:src/Slab.cpp  ****     printString("puni: ");
 1472              		.loc 1 344 5 is_stmt 1
 1473              		.loc 1 344 16 is_stmt 0
 1474 08a4 17050000 		lla	a0,.LC11
 1474      13050500 
 1475 08ac 97000000 		call	_Z11printStringPKc@plt
 1475      E7800000 
 1476              	.LVL160:
 345:src/Slab.cpp  ****     for(Slab* tmp = slabs_full; tmp; tmp = tmp->next){
 1477              		.loc 1 345 5 is_stmt 1
 1478              	.LBB108:
 1479              		.loc 1 345 15 is_stmt 0
 1480 08b4 83340900 		ld	s1,0(s2)
 1481              	.LVL161:
 1482              	.L72:
 1483              		.loc 1 345 33 is_stmt 1 discriminator 3
 1484 08b8 63880402 		beqz	s1,.L71
 346:src/Slab.cpp  ****         printInt(tmp->get_number_of_active_objects());
 1485              		.loc 1 346 9
 1486              	.LVL162:
 1487              	.LBB109:
 1488              	.LBB110:
  16:src/../h/Slab.h ****     void* return_first_free_object_and_rearange_list(int, int);
 1489              		.loc 3 16 43
 1490              	.LBE110:
 1491              	.LBE109:
 1492              		.loc 1 346 17 is_stmt 0
 1493 08bc 13060000 		li	a2,0
 1494 08c0 9305A000 		li	a1,10
 1495 08c4 03A50400 		lw	a0,0(s1)
 1496 08c8 97000000 		call	_Z8printIntiii@plt
 1496      E7800000 
 1497              	.LVL163:
 347:src/Slab.cpp  ****         printString(" ");
 1498              		.loc 1 347 9 is_stmt 1
 1499              		.loc 1 347 20 is_stmt 0
 1500 08d0 17050000 		lla	a0,.LC9
 1500      13050500 
 1501 08d8 97000000 		call	_Z11printStringPKc@plt
 1501      E7800000 
 1502              	.LVL164:
 345:src/Slab.cpp  ****         printInt(tmp->get_number_of_active_objects());
 1503              		.loc 1 345 5 is_stmt 1
 345:src/Slab.cpp  ****         printInt(tmp->get_number_of_active_objects());
 1504              		.loc 1 345 42 is_stmt 0
GAS LISTING /tmp/ccMn1XFx.s 			page 40


 1505 08e0 83B48400 		ld	s1,8(s1)
 1506              	.LVL165:
 345:src/Slab.cpp  ****         printInt(tmp->get_number_of_active_objects());
 1507              		.loc 1 345 5
 1508 08e4 6FF05FFD 		j	.L72
 1509              	.L71:
 1510              	.LBE108:
 348:src/Slab.cpp  ****     }
 349:src/Slab.cpp  ****     printString("\n");
 1511              		.loc 1 349 5 is_stmt 1
 1512              		.loc 1 349 16 is_stmt 0
 1513 08e8 17050000 		lla	a0,.LC2
 1513      13050500 
 1514 08f0 97000000 		call	_Z11printStringPKc@plt
 1514      E7800000 
 1515              	.LVL166:
 350:src/Slab.cpp  **** 
 351:src/Slab.cpp  ****     // number of times cache shrank
 352:src/Slab.cpp  ****     printString("Broj uspesnih smanjenja kesa: ");
 1516              		.loc 1 352 5 is_stmt 1
 1517              		.loc 1 352 16 is_stmt 0
 1518 08f8 17050000 		lla	a0,.LC12
 1518      13050500 
 1519 0900 97000000 		call	_Z11printStringPKc@plt
 1519      E7800000 
 1520              	.LVL167:
 353:src/Slab.cpp  ****     printInt(shrink);
 1521              		.loc 1 353 5 is_stmt 1
 1522              		.loc 1 353 13 is_stmt 0
 1523 0908 13060000 		li	a2,0
 1524 090c 9305A000 		li	a1,10
 1525 0910 03258907 		lw	a0,120(s2)
 1526 0914 97000000 		call	_Z8printIntiii@plt
 1526      E7800000 
 1527              	.LVL168:
 354:src/Slab.cpp  ****     printString("\n");
 1528              		.loc 1 354 5 is_stmt 1
 1529              		.loc 1 354 16 is_stmt 0
 1530 091c 17050000 		lla	a0,.LC2
 1530      13050500 
 1531 0924 97000000 		call	_Z11printStringPKc@plt
 1531      E7800000 
 1532              	.LVL169:
 355:src/Slab.cpp  **** 
 356:src/Slab.cpp  ****     // metedata
 357:src/Slab.cpp  ****     printString("Velicina metapodataka za kmem_cache_s: ");
 1533              		.loc 1 357 5 is_stmt 1
 1534              		.loc 1 357 16 is_stmt 0
 1535 092c 17050000 		lla	a0,.LC13
 1535      13050500 
 1536 0934 97000000 		call	_Z11printStringPKc@plt
 1536      E7800000 
 1537              	.LVL170:
 358:src/Slab.cpp  ****     printInt(sizeof(kmem_cache_s));
 1538              		.loc 1 358 5 is_stmt 1
 1539              		.loc 1 358 13 is_stmt 0
 1540 093c 13060000 		li	a2,0
GAS LISTING /tmp/ccMn1XFx.s 			page 41


 1541 0940 9305A000 		li	a1,10
 1542 0944 13050008 		li	a0,128
 1543 0948 97000000 		call	_Z8printIntiii@plt
 1543      E7800000 
 1544              	.LVL171:
 359:src/Slab.cpp  ****     printString("\n");
 1545              		.loc 1 359 5 is_stmt 1
 1546              		.loc 1 359 16 is_stmt 0
 1547 0950 17050000 		lla	a0,.LC2
 1547      13050500 
 1548 0958 97000000 		call	_Z11printStringPKc@plt
 1548      E7800000 
 1549              	.LVL172:
 360:src/Slab.cpp  ****     printString("Velicina metapodataka za Slab: ");
 1550              		.loc 1 360 5 is_stmt 1
 1551              		.loc 1 360 16 is_stmt 0
 1552 0960 17050000 		lla	a0,.LC14
 1552      13050500 
 1553 0968 97000000 		call	_Z11printStringPKc@plt
 1553      E7800000 
 1554              	.LVL173:
 361:src/Slab.cpp  ****     printInt(sizeof(Slab));
 1555              		.loc 1 361 5 is_stmt 1
 1556              		.loc 1 361 13 is_stmt 0
 1557 0970 13060000 		li	a2,0
 1558 0974 9305A000 		li	a1,10
 1559 0978 13050002 		li	a0,32
 1560 097c 97000000 		call	_Z8printIntiii@plt
 1560      E7800000 
 1561              	.LVL174:
 362:src/Slab.cpp  ****     printString("\n");
 1562              		.loc 1 362 5 is_stmt 1
 1563              		.loc 1 362 16 is_stmt 0
 1564 0984 17050000 		lla	a0,.LC2
 1564      13050500 
 1565 098c 97000000 		call	_Z11printStringPKc@plt
 1565      E7800000 
 1566              	.LVL175:
 363:src/Slab.cpp  **** 
 364:src/Slab.cpp  ****     // percentage of fullfilment of cache
 365:src/Slab.cpp  ****     size_t neto = sizeof(kmem_cache_s) + num_of_slabs * sizeof(Slab) + num_active_obj * objsize;
 1567              		.loc 1 365 5 is_stmt 1
 1568              		.loc 1 365 40 is_stmt 0
 1569 0994 138A4900 		addi	s4,s3,4
 1570 0998 131A5A00 		slli	s4,s4,5
 1571              		.loc 1 365 72
 1572 099c 83378906 		ld	a5,104(s2)
 1573              		.loc 1 365 89
 1574 09a0 03370903 		ld	a4,48(s2)
 1575              		.loc 1 365 87
 1576 09a4 B387E702 		mul	a5,a5,a4
 1577              		.loc 1 365 12
 1578 09a8 330AFA00 		add	s4,s4,a5
 1579              	.LVL176:
 366:src/Slab.cpp  ****     size_t bruto = (1 + num_of_slabs * size_in_blocks) * BLOCK_SIZE;
 1580              		.loc 1 366 5 is_stmt 1
 1581              		.loc 1 366 40 is_stmt 0
GAS LISTING /tmp/ccMn1XFx.s 			page 42


 1582 09ac 83340904 		ld	s1,64(s2)
 1583              	.LVL177:
 1584              		.loc 1 366 38
 1585 09b0 B3843403 		mul	s1,s1,s3
 1586              		.loc 1 366 23
 1587 09b4 93841400 		addi	s1,s1,1
 1588              		.loc 1 366 12
 1589 09b8 9394C400 		slli	s1,s1,12
 1590              	.LVL178:
 367:src/Slab.cpp  **** 
 368:src/Slab.cpp  ****     printString("Realna iskoriscenost prostora: ");
 1591              		.loc 1 368 5 is_stmt 1
 1592              		.loc 1 368 16 is_stmt 0
 1593 09bc 17050000 		lla	a0,.LC15
 1593      13050500 
 1594 09c4 97000000 		call	_Z11printStringPKc@plt
 1594      E7800000 
 1595              	.LVL179:
 369:src/Slab.cpp  ****     printInt(neto);
 1596              		.loc 1 369 5 is_stmt 1
 1597              		.loc 1 369 13 is_stmt 0
 1598 09cc 13060000 		li	a2,0
 1599 09d0 9305A000 		li	a1,10
 1600 09d4 1B050A00 		sext.w	a0,s4
 1601 09d8 97000000 		call	_Z8printIntiii@plt
 1601      E7800000 
 1602              	.LVL180:
 370:src/Slab.cpp  ****     printString("/");
 1603              		.loc 1 370 5 is_stmt 1
 1604              		.loc 1 370 16 is_stmt 0
 1605 09e0 17050000 		lla	a0,.LC16
 1605      13050500 
 1606 09e8 97000000 		call	_Z11printStringPKc@plt
 1606      E7800000 
 1607              	.LVL181:
 371:src/Slab.cpp  ****     printInt(bruto);
 1608              		.loc 1 371 5 is_stmt 1
 1609              		.loc 1 371 13 is_stmt 0
 1610 09f0 13060000 		li	a2,0
 1611 09f4 9305A000 		li	a1,10
 1612 09f8 1B850400 		sext.w	a0,s1
 1613 09fc 97000000 		call	_Z8printIntiii@plt
 1613      E7800000 
 1614              	.LVL182:
 372:src/Slab.cpp  ****     printString("\n");
 1615              		.loc 1 372 5 is_stmt 1
 1616              		.loc 1 372 16 is_stmt 0
 1617 0a04 17050000 		lla	a0,.LC2
 1617      13050500 
 1618 0a0c 97000000 		call	_Z11printStringPKc@plt
 1618      E7800000 
 1619              	.LVL183:
 373:src/Slab.cpp  ****     printString("Efektivna iskoriscenost prostora: ");
 1620              		.loc 1 373 5 is_stmt 1
 1621              		.loc 1 373 16 is_stmt 0
 1622 0a14 17050000 		lla	a0,.LC17
 1622      13050500 
GAS LISTING /tmp/ccMn1XFx.s 			page 43


 1623 0a1c 97000000 		call	_Z11printStringPKc@plt
 1623      E7800000 
 1624              	.LVL184:
 374:src/Slab.cpp  ****     printInt(num_active_obj * objsize);
 1625              		.loc 1 374 5 is_stmt 1
 1626              		.loc 1 374 14 is_stmt 0
 1627 0a24 03358906 		ld	a0,104(s2)
 1628              		.loc 1 374 31
 1629 0a28 83370903 		ld	a5,48(s2)
 1630              		.loc 1 374 13
 1631 0a2c 13060000 		li	a2,0
 1632 0a30 9305A000 		li	a1,10
 1633 0a34 3B05F502 		mulw	a0,a0,a5
 1634 0a38 97000000 		call	_Z8printIntiii@plt
 1634      E7800000 
 1635              	.LVL185:
 375:src/Slab.cpp  ****     printString("/");
 1636              		.loc 1 375 5 is_stmt 1
 1637              		.loc 1 375 16 is_stmt 0
 1638 0a40 17050000 		lla	a0,.LC16
 1638      13050500 
 1639 0a48 97000000 		call	_Z11printStringPKc@plt
 1639      E7800000 
 1640              	.LVL186:
 376:src/Slab.cpp  ****     size_t real_bruto = num_of_slabs * size_in_blocks * BLOCK_SIZE - num_of_slabs * sizeof(Slab);
 1641              		.loc 1 376 5 is_stmt 1
 1642              		.loc 1 376 40 is_stmt 0
 1643 0a50 03350904 		ld	a0,64(s2)
 1644              		.loc 1 376 38
 1645 0a54 33053503 		mul	a0,a0,s3
 1646              		.loc 1 376 68
 1647 0a58 13157500 		slli	a0,a0,7
 1648 0a5c 33053541 		sub	a0,a0,s3
 1649              		.loc 1 376 12
 1650 0a60 13155500 		slli	a0,a0,5
 1651              	.LVL187:
 377:src/Slab.cpp  ****     printInt(real_bruto);
 1652              		.loc 1 377 5 is_stmt 1
 1653              		.loc 1 377 13 is_stmt 0
 1654 0a64 13060000 		li	a2,0
 1655 0a68 9305A000 		li	a1,10
 1656 0a6c 1B050500 		sext.w	a0,a0
 1657              	.LVL188:
 1658 0a70 97000000 		call	_Z8printIntiii@plt
 1658      E7800000 
 1659              	.LVL189:
 378:src/Slab.cpp  ****     printString("\n");
 1660              		.loc 1 378 5 is_stmt 1
 1661              		.loc 1 378 16 is_stmt 0
 1662 0a78 17050000 		lla	a0,.LC2
 1662      13050500 
 1663 0a80 97000000 		call	_Z11printStringPKc@plt
 1663      E7800000 
 1664              	.LVL190:
 379:src/Slab.cpp  **** 
 380:src/Slab.cpp  ****     printString("----------------------- END ----------------------\n");
 1665              		.loc 1 380 5 is_stmt 1
GAS LISTING /tmp/ccMn1XFx.s 			page 44


 1666              		.loc 1 380 16 is_stmt 0
 1667 0a88 17050000 		lla	a0,.LC18
 1667      13050500 
 1668 0a90 97000000 		call	_Z11printStringPKc@plt
 1668      E7800000 
 1669              	.LVL191:
 381:src/Slab.cpp  **** }
 1670              		.loc 1 381 1
 1671 0a98 83308102 		ld	ra,40(sp)
 1672              		.cfi_restore 1
 1673 0a9c 03340102 		ld	s0,32(sp)
 1674              		.cfi_restore 8
 1675              		.cfi_def_cfa 2, 48
 1676 0aa0 83348101 		ld	s1,24(sp)
 1677              		.cfi_restore 9
 1678              	.LVL192:
 1679 0aa4 03390101 		ld	s2,16(sp)
 1680              		.cfi_restore 18
 1681              	.LVL193:
 1682 0aa8 83398100 		ld	s3,8(sp)
 1683              		.cfi_restore 19
 1684              	.LVL194:
 1685 0aac 033A0100 		ld	s4,0(sp)
 1686              		.cfi_restore 20
 1687              	.LVL195:
 1688 0ab0 13010103 		addi	sp,sp,48
 1689              		.cfi_def_cfa_offset 0
 1690 0ab4 67800000 		jr	ra
 1691              		.cfi_endproc
 1692              	.LFE59:
 1694              		.section	.rodata.str1.8
 1695 0204 00000000 		.align	3
 1696              	.LC19:
 1697 0208 0A090909 		.string	"\n\t\t\t ### PRINT ALL CACHES ###\t\t\t\n"
 1697      20232323 
 1697      20505249 
 1697      4E542041 
 1697      4C4C2043 
 1698 022a 00000000 		.align	3
 1698      0000
 1699              	.LC20:
 1700 0230 09090909 		.string	"\t\t\t\t    ### END ###\t\t\t\n"
 1700      20202020 
 1700      23232320 
 1700      454E4420 
 1700      23232309 
 1701              		.text
 1702              		.align	2
 1703              		.globl	_ZN12kmem_cache_s21print_info_all_cachesEv
 1705              	_ZN12kmem_cache_s21print_info_all_cachesEv:
 1706              	.LFB60:
 382:src/Slab.cpp  **** 
 383:src/Slab.cpp  **** void kmem_cache_s::print_info_all_caches() {
 1707              		.loc 1 383 44 is_stmt 1
 1708              		.cfi_startproc
 1709 0ab8 130101FE 		addi	sp,sp,-32
 1710              		.cfi_def_cfa_offset 32
GAS LISTING /tmp/ccMn1XFx.s 			page 45


 1711 0abc 233C1100 		sd	ra,24(sp)
 1712 0ac0 23388100 		sd	s0,16(sp)
 1713 0ac4 23349100 		sd	s1,8(sp)
 1714              		.cfi_offset 1, -8
 1715              		.cfi_offset 8, -16
 1716              		.cfi_offset 9, -24
 1717 0ac8 13040102 		addi	s0,sp,32
 1718              		.cfi_def_cfa 8, 0
 384:src/Slab.cpp  ****     printString("\n\t\t\t ### PRINT ALL CACHES ###\t\t\t\n");
 1719              		.loc 1 384 5
 1720              		.loc 1 384 16 is_stmt 0
 1721 0acc 17050000 		lla	a0,.LC19
 1721      13050500 
 1722 0ad4 97000000 		call	_Z11printStringPKc@plt
 1722      E7800000 
 1723              	.LVL196:
 385:src/Slab.cpp  ****     for(kmem_cache_s* tmp = kmem_cache_s::head; tmp; tmp = tmp->next){
 1724              		.loc 1 385 5 is_stmt 1
 1725              	.LBB111:
 1726              		.loc 1 385 23 is_stmt 0
 1727 0adc 97040000 		ld	s1,.LANCHOR0
 1727      83B40400 
 1728              	.LVL197:
 1729              	.L76:
 1730              		.loc 1 385 49 is_stmt 1 discriminator 3
 1731 0ae4 638C0400 		beqz	s1,.L75
 386:src/Slab.cpp  ****         tmp->kmem_cache_info();
 1732              		.loc 1 386 9 discriminator 2
 1733              		.loc 1 386 29 is_stmt 0 discriminator 2
 1734 0ae8 13850400 		mv	a0,s1
 1735 0aec 97000000 		call	_ZN12kmem_cache_s15kmem_cache_infoEv
 1735      E7800000 
 1736              	.LVL198:
 385:src/Slab.cpp  ****     for(kmem_cache_s* tmp = kmem_cache_s::head; tmp; tmp = tmp->next){
 1737              		.loc 1 385 5 is_stmt 1 discriminator 2
 385:src/Slab.cpp  ****     for(kmem_cache_s* tmp = kmem_cache_s::head; tmp; tmp = tmp->next){
 1738              		.loc 1 385 58 is_stmt 0 discriminator 2
 1739 0af4 83B40406 		ld	s1,96(s1)
 1740              	.LVL199:
 385:src/Slab.cpp  ****     for(kmem_cache_s* tmp = kmem_cache_s::head; tmp; tmp = tmp->next){
 1741              		.loc 1 385 5 discriminator 2
 1742 0af8 6FF0DFFE 		j	.L76
 1743              	.L75:
 1744              	.LBE111:
 387:src/Slab.cpp  ****     }
 388:src/Slab.cpp  ****     printString("\t\t\t\t    ### END ###\t\t\t\n");
 1745              		.loc 1 388 5 is_stmt 1
 1746              		.loc 1 388 16 is_stmt 0
 1747 0afc 17050000 		lla	a0,.LC20
 1747      13050500 
 1748 0b04 97000000 		call	_Z11printStringPKc@plt
 1748      E7800000 
 1749              	.LVL200:
 389:src/Slab.cpp  **** }
 1750              		.loc 1 389 1
 1751 0b0c 83308101 		ld	ra,24(sp)
 1752              		.cfi_restore 1
GAS LISTING /tmp/ccMn1XFx.s 			page 46


 1753 0b10 03340101 		ld	s0,16(sp)
 1754              		.cfi_restore 8
 1755              		.cfi_def_cfa 2, 32
 1756 0b14 83348100 		ld	s1,8(sp)
 1757              		.cfi_restore 9
 1758              	.LVL201:
 1759 0b18 13010102 		addi	sp,sp,32
 1760              		.cfi_def_cfa_offset 0
 1761 0b1c 67800000 		jr	ra
 1762              		.cfi_endproc
 1763              	.LFE60:
 1765              		.align	2
 1766              		.globl	_ZN4Slab42return_first_free_object_and_rearange_listEii
 1768              	_ZN4Slab42return_first_free_object_and_rearange_listEii:
 1769              	.LFB61:
 390:src/Slab.cpp  **** 
 391:src/Slab.cpp  **** void *Slab::return_first_free_object_and_rearange_list(int number_of_objects_in_slab, int size_of_o
 1770              		.loc 1 391 107 is_stmt 1
 1771              		.cfi_startproc
 1772              	.LVL202:
 1773 0b20 130101FF 		addi	sp,sp,-16
 1774              		.cfi_def_cfa_offset 16
 1775 0b24 23348100 		sd	s0,8(sp)
 1776              		.cfi_offset 8, -8
 1777 0b28 13040101 		addi	s0,sp,16
 1778              		.cfi_def_cfa 8, 0
 392:src/Slab.cpp  ****     int i = 0;
 1779              		.loc 1 392 5
 1780              	.LVL203:
 1781              		.loc 1 392 9 is_stmt 0
 1782 0b2c 93070000 		li	a5,0
 1783              	.LVL204:
 1784              	.L80:
 393:src/Slab.cpp  ****     while(i < number_of_objects_in_slab && (this->free_objects)[i]){
 1785              		.loc 1 393 5 is_stmt 1
 1786              		.loc 1 393 41
 1787 0b30 63DEB700 		bge	a5,a1,.L79
 1788              		.loc 1 393 51 is_stmt 0 discriminator 1
 1789 0b34 03370501 		ld	a4,16(a0)
 1790              		.loc 1 393 66 discriminator 1
 1791 0b38 3307F700 		add	a4,a4,a5
 1792 0b3c 03470700 		lbu	a4,0(a4)
 1793              		.loc 1 393 41 discriminator 1
 1794 0b40 63060700 		beqz	a4,.L79
 394:src/Slab.cpp  ****         i++;
 1795              		.loc 1 394 9 is_stmt 1
 1796              		.loc 1 394 10 is_stmt 0
 1797 0b44 9B871700 		addiw	a5,a5,1
 1798              	.LVL205:
 393:src/Slab.cpp  ****     while(i < number_of_objects_in_slab && (this->free_objects)[i]){
 1799              		.loc 1 393 5
 1800 0b48 6FF09FFE 		j	.L80
 1801              	.LVL206:
 1802              	.L79:
 395:src/Slab.cpp  ****     }
 396:src/Slab.cpp  ****     if(i >= number_of_objects_in_slab)return nullptr; // nece se desiti ali postoji kao ogranicenje
 1803              		.loc 1 396 5 is_stmt 1
GAS LISTING /tmp/ccMn1XFx.s 			page 47


 1804 0b4c 63D6B702 		bge	a5,a1,.L82
 397:src/Slab.cpp  ****     (this->free_objects)[i] = true;
 1805              		.loc 1 397 5
 1806              		.loc 1 397 12 is_stmt 0
 1807 0b50 03370501 		ld	a4,16(a0)
 1808              		.loc 1 397 27
 1809 0b54 3307F700 		add	a4,a4,a5
 1810              		.loc 1 397 29
 1811 0b58 93061000 		li	a3,1
 1812 0b5c 2300D700 		sb	a3,0(a4)
 398:src/Slab.cpp  ****     return (void*)(this->first_addr + size_of_object * i);
 1813              		.loc 1 398 5 is_stmt 1
 1814              		.loc 1 398 26 is_stmt 0
 1815 0b60 03358501 		ld	a0,24(a0)
 1816              	.LVL207:
 1817              		.loc 1 398 54
 1818 0b64 BB87C702 		mulw	a5,a5,a2
 1819              	.LVL208:
 1820              		.loc 1 398 37
 1821 0b68 3305F500 		add	a0,a0,a5
 1822              	.L78:
 399:src/Slab.cpp  **** }
 1823              		.loc 1 399 1
 1824 0b6c 03348100 		ld	s0,8(sp)
 1825              		.cfi_remember_state
 1826              		.cfi_restore 8
 1827              		.cfi_def_cfa 2, 16
 1828 0b70 13010101 		addi	sp,sp,16
 1829              		.cfi_def_cfa_offset 0
 1830 0b74 67800000 		jr	ra
 1831              	.LVL209:
 1832              	.L82:
 1833              		.cfi_restore_state
 396:src/Slab.cpp  ****     (this->free_objects)[i] = true;
 1834              		.loc 1 396 46
 1835 0b78 13050000 		li	a0,0
 1836              	.LVL210:
 1837 0b7c 6FF01FFF 		j	.L78
 1838              		.cfi_endproc
 1839              	.LFE61:
 1841              		.align	2
 1842              		.globl	_ZN12kmem_cache_s16kmem_cache_allocEv
 1844              	_ZN12kmem_cache_s16kmem_cache_allocEv:
 1845              	.LFB50:
  70:src/Slab.cpp  ****     if(num_slabs_partial != 0){
 1846              		.loc 1 70 40 is_stmt 1
 1847              		.cfi_startproc
 1848              	.LVL211:
 1849 0b80 130101FE 		addi	sp,sp,-32
 1850              		.cfi_def_cfa_offset 32
 1851 0b84 233C1100 		sd	ra,24(sp)
 1852 0b88 23388100 		sd	s0,16(sp)
 1853 0b8c 23349100 		sd	s1,8(sp)
 1854              		.cfi_offset 1, -8
 1855              		.cfi_offset 8, -16
 1856              		.cfi_offset 9, -24
 1857 0b90 13040102 		addi	s0,sp,32
GAS LISTING /tmp/ccMn1XFx.s 			page 48


 1858              		.cfi_def_cfa 8, 0
 1859 0b94 93040500 		mv	s1,a0
  71:src/Slab.cpp  ****         void* addr = this->slabs_partial->return_first_free_object_and_rearange_list(this->num, thi
 1860              		.loc 1 71 5
 1861              	.LBB112:
  71:src/Slab.cpp  ****         void* addr = this->slabs_partial->return_first_free_object_and_rearange_list(this->num, thi
 1862              		.loc 1 71 8 is_stmt 0
 1863 0b98 83370502 		ld	a5,32(a0)
  71:src/Slab.cpp  ****         void* addr = this->slabs_partial->return_first_free_object_and_rearange_list(this->num, thi
 1864              		.loc 1 71 5
 1865 0b9c 639E0706 		bnez	a5,.L90
 1866              	.LBE112:
  87:src/Slab.cpp  ****         void* addr1 = this->slabs_free->return_first_free_object_and_rearange_list(this->num, this-
 1867              		.loc 1 87 10 is_stmt 1
 1868              	.LBB125:
 1869              	.LBB113:
  87:src/Slab.cpp  ****         void* addr1 = this->slabs_free->return_first_free_object_and_rearange_list(this->num, this-
 1870              		.loc 1 87 13 is_stmt 0
 1871 0ba0 83378502 		ld	a5,40(a0)
  87:src/Slab.cpp  ****         void* addr1 = this->slabs_free->return_first_free_object_and_rearange_list(this->num, this-
 1872              		.loc 1 87 10
 1873 0ba4 6382070E 		beqz	a5,.L88
 1874              	.LBB114:
  88:src/Slab.cpp  ****         this->num_active_obj++;
 1875              		.loc 1 88 9 is_stmt 1
  88:src/Slab.cpp  ****         this->num_active_obj++;
 1876              		.loc 1 88 83 is_stmt 0
 1877 0ba8 03260503 		lw	a2,48(a0)
 1878 0bac 83258503 		lw	a1,56(a0)
 1879 0bb0 03350501 		ld	a0,16(a0)
 1880              	.LVL212:
 1881 0bb4 97000000 		call	_ZN4Slab42return_first_free_object_and_rearange_listEii
 1881      E7800000 
 1882              	.LVL213:
  89:src/Slab.cpp  **** 
 1883              		.loc 1 89 9 is_stmt 1
  89:src/Slab.cpp  **** 
 1884              		.loc 1 89 15 is_stmt 0
 1885 0bbc 83B78406 		ld	a5,104(s1)
  89:src/Slab.cpp  **** 
 1886              		.loc 1 89 29
 1887 0bc0 93871700 		addi	a5,a5,1
 1888 0bc4 23B4F406 		sd	a5,104(s1)
  92:src/Slab.cpp  ****         this->slabs_free = this->slabs_free->next;
 1889              		.loc 1 92 9 is_stmt 1
  92:src/Slab.cpp  ****         this->slabs_free = this->slabs_free->next;
 1890              		.loc 1 92 15 is_stmt 0
 1891 0bc8 83B70401 		ld	a5,16(s1)
 1892              	.LVL214:
  93:src/Slab.cpp  ****         tmp->next = this->slabs_partial;
 1893              		.loc 1 93 9 is_stmt 1
  93:src/Slab.cpp  ****         tmp->next = this->slabs_partial;
 1894              		.loc 1 93 46 is_stmt 0
 1895 0bcc 03B78700 		ld	a4,8(a5)
  93:src/Slab.cpp  ****         tmp->next = this->slabs_partial;
 1896              		.loc 1 93 26
 1897 0bd0 23B8E400 		sd	a4,16(s1)
GAS LISTING /tmp/ccMn1XFx.s 			page 49


  94:src/Slab.cpp  ****         tmp->increment_num_of_active();
 1898              		.loc 1 94 9 is_stmt 1
  94:src/Slab.cpp  ****         tmp->increment_num_of_active();
 1899              		.loc 1 94 27 is_stmt 0
 1900 0bd4 03B78400 		ld	a4,8(s1)
  94:src/Slab.cpp  ****         tmp->increment_num_of_active();
 1901              		.loc 1 94 19
 1902 0bd8 23B4E700 		sd	a4,8(a5)
  95:src/Slab.cpp  ****         this->slabs_partial = tmp;
 1903              		.loc 1 95 9 is_stmt 1
 1904              	.LVL215:
 1905              	.LBB115:
 1906              	.LBB116:
  18:src/../h/Slab.h ****     void decrement_num_of_active(){num_active--;}
 1907              		.loc 3 18 36
 1908 0bdc 03B70700 		ld	a4,0(a5)
  18:src/../h/Slab.h ****     void decrement_num_of_active(){num_active--;}
 1909              		.loc 3 18 46 is_stmt 0
 1910 0be0 13071700 		addi	a4,a4,1
 1911 0be4 23B0E700 		sd	a4,0(a5)
 1912              	.LVL216:
 1913              	.LBE116:
 1914              	.LBE115:
  96:src/Slab.cpp  ****         this->num_slabs_free--;
 1915              		.loc 1 96 9 is_stmt 1
  96:src/Slab.cpp  ****         this->num_slabs_free--;
 1916              		.loc 1 96 29 is_stmt 0
 1917 0be8 23B4F400 		sd	a5,8(s1)
  97:src/Slab.cpp  ****         this->num_slabs_partial++;
 1918              		.loc 1 97 9 is_stmt 1
  97:src/Slab.cpp  ****         this->num_slabs_partial++;
 1919              		.loc 1 97 15 is_stmt 0
 1920 0bec 83B78402 		ld	a5,40(s1)
 1921              	.LVL217:
  97:src/Slab.cpp  ****         this->num_slabs_partial++;
 1922              		.loc 1 97 29
 1923 0bf0 9387F7FF 		addi	a5,a5,-1
 1924 0bf4 23B4F402 		sd	a5,40(s1)
  98:src/Slab.cpp  **** 
 1925              		.loc 1 98 9 is_stmt 1
  98:src/Slab.cpp  **** 
 1926              		.loc 1 98 15 is_stmt 0
 1927 0bf8 83B70402 		ld	a5,32(s1)
  98:src/Slab.cpp  **** 
 1928              		.loc 1 98 32
 1929 0bfc 93871700 		addi	a5,a5,1
 1930 0c00 23B0F402 		sd	a5,32(s1)
 100:src/Slab.cpp  ****     }
 1931              		.loc 1 100 9 is_stmt 1
 1932              	.LVL218:
 1933              	.L84:
 1934              	.LBE114:
 1935              	.LBE113:
 1936              	.LBE125:
 108:src/Slab.cpp  **** 
 1937              		.loc 1 108 1 is_stmt 0
 1938 0c04 83308101 		ld	ra,24(sp)
GAS LISTING /tmp/ccMn1XFx.s 			page 50


 1939              		.cfi_remember_state
 1940              		.cfi_restore 1
 1941 0c08 03340101 		ld	s0,16(sp)
 1942              		.cfi_restore 8
 1943              		.cfi_def_cfa 2, 32
 1944 0c0c 83348100 		ld	s1,8(sp)
 1945              		.cfi_restore 9
 1946              	.LVL219:
 1947 0c10 13010102 		addi	sp,sp,32
 1948              		.cfi_def_cfa_offset 0
 1949 0c14 67800000 		jr	ra
 1950              	.LVL220:
 1951              	.L90:
 1952              		.cfi_restore_state
 1953              	.LBB126:
 1954              	.LBB117:
  72:src/Slab.cpp  ****         this->num_active_obj++;
 1955              		.loc 1 72 9 is_stmt 1
  72:src/Slab.cpp  ****         this->num_active_obj++;
 1956              		.loc 1 72 85 is_stmt 0
 1957 0c18 03260503 		lw	a2,48(a0)
 1958 0c1c 83258503 		lw	a1,56(a0)
 1959 0c20 03358500 		ld	a0,8(a0)
 1960 0c24 97000000 		call	_ZN4Slab42return_first_free_object_and_rearange_listEii
 1960      E7800000 
 1961              	.LVL221:
  73:src/Slab.cpp  ****         this->slabs_partial->increment_num_of_active();
 1962              		.loc 1 73 9 is_stmt 1
  73:src/Slab.cpp  ****         this->slabs_partial->increment_num_of_active();
 1963              		.loc 1 73 15 is_stmt 0
 1964 0c2c 83B78406 		ld	a5,104(s1)
  73:src/Slab.cpp  ****         this->slabs_partial->increment_num_of_active();
 1965              		.loc 1 73 29
 1966 0c30 93871700 		addi	a5,a5,1
 1967 0c34 23B4F406 		sd	a5,104(s1)
  74:src/Slab.cpp  **** 
 1968              		.loc 1 74 9 is_stmt 1
  74:src/Slab.cpp  **** 
 1969              		.loc 1 74 15 is_stmt 0
 1970 0c38 03B78400 		ld	a4,8(s1)
 1971              	.LVL222:
 1972              	.LBB118:
 1973              	.LBB119:
  18:src/../h/Slab.h ****     void decrement_num_of_active(){num_active--;}
 1974              		.loc 3 18 36 is_stmt 1
 1975 0c3c 83370700 		ld	a5,0(a4)
  18:src/../h/Slab.h ****     void decrement_num_of_active(){num_active--;}
 1976              		.loc 3 18 46 is_stmt 0
 1977 0c40 93871700 		addi	a5,a5,1
 1978 0c44 2330F700 		sd	a5,0(a4)
 1979              	.LVL223:
 1980              	.LBE119:
 1981              	.LBE118:
  76:src/Slab.cpp  ****             // move from partial to full
 1982              		.loc 1 76 9 is_stmt 1
 1983              	.LBB120:
  76:src/Slab.cpp  ****             // move from partial to full
GAS LISTING /tmp/ccMn1XFx.s 			page 51


 1984              		.loc 1 76 18 is_stmt 0
 1985 0c48 83B78400 		ld	a5,8(s1)
 1986              	.LVL224:
 1987              	.LBB121:
 1988              	.LBB122:
  16:src/../h/Slab.h ****     void* return_first_free_object_and_rearange_list(int, int);
 1989              		.loc 3 16 43 is_stmt 1
  16:src/../h/Slab.h ****     void* return_first_free_object_and_rearange_list(int, int);
 1990              		.loc 3 16 50 is_stmt 0
 1991 0c4c 03B70700 		ld	a4,0(a5)
 1992              	.LVL225:
 1993              	.LBE122:
 1994              	.LBE121:
  76:src/Slab.cpp  ****             // move from partial to full
 1995              		.loc 1 76 73
 1996 0c50 83B68403 		ld	a3,56(s1)
  76:src/Slab.cpp  ****             // move from partial to full
 1997              		.loc 1 76 9
 1998 0c54 E398E6FA 		bne	a3,a4,.L84
 1999              	.LBB123:
  78:src/Slab.cpp  ****             this->slabs_partial = this->slabs_partial->next;
 2000              		.loc 1 78 13 is_stmt 1
 2001              	.LVL226:
  79:src/Slab.cpp  ****             tmp->next = this->slabs_full;
 2002              		.loc 1 79 13
  79:src/Slab.cpp  ****             tmp->next = this->slabs_full;
 2003              		.loc 1 79 56 is_stmt 0
 2004 0c58 03B78700 		ld	a4,8(a5)
  79:src/Slab.cpp  ****             tmp->next = this->slabs_full;
 2005              		.loc 1 79 33
 2006 0c5c 23B4E400 		sd	a4,8(s1)
  80:src/Slab.cpp  ****             this->slabs_full = tmp;
 2007              		.loc 1 80 13 is_stmt 1
  80:src/Slab.cpp  ****             this->slabs_full = tmp;
 2008              		.loc 1 80 31 is_stmt 0
 2009 0c60 03B70400 		ld	a4,0(s1)
  80:src/Slab.cpp  ****             this->slabs_full = tmp;
 2010              		.loc 1 80 23
 2011 0c64 23B4E700 		sd	a4,8(a5)
  81:src/Slab.cpp  ****             this->num_slabs_partial--;
 2012              		.loc 1 81 13 is_stmt 1
  81:src/Slab.cpp  ****             this->num_slabs_partial--;
 2013              		.loc 1 81 30 is_stmt 0
 2014 0c68 23B0F400 		sd	a5,0(s1)
  82:src/Slab.cpp  ****             this->num_slabs_full++;
 2015              		.loc 1 82 13 is_stmt 1
  82:src/Slab.cpp  ****             this->num_slabs_full++;
 2016              		.loc 1 82 19 is_stmt 0
 2017 0c6c 83B70402 		ld	a5,32(s1)
 2018              	.LVL227:
  82:src/Slab.cpp  ****             this->num_slabs_full++;
 2019              		.loc 1 82 36
 2020 0c70 9387F7FF 		addi	a5,a5,-1
 2021 0c74 23B0F402 		sd	a5,32(s1)
  83:src/Slab.cpp  ****         }
 2022              		.loc 1 83 13 is_stmt 1
  83:src/Slab.cpp  ****         }
GAS LISTING /tmp/ccMn1XFx.s 			page 52


 2023              		.loc 1 83 19 is_stmt 0
 2024 0c78 83B78401 		ld	a5,24(s1)
  83:src/Slab.cpp  ****         }
 2025              		.loc 1 83 33
 2026 0c7c 93871700 		addi	a5,a5,1
 2027 0c80 23BCF400 		sd	a5,24(s1)
 2028              	.LBE123:
 2029              	.LBE120:
  85:src/Slab.cpp  ****     }
 2030              		.loc 1 85 9 is_stmt 1
  85:src/Slab.cpp  ****     }
 2031              		.loc 1 85 16 is_stmt 0
 2032 0c84 6FF01FF8 		j	.L84
 2033              	.LVL228:
 2034              	.L88:
 2035              	.LBE117:
 2036              	.LBB124:
 104:src/Slab.cpp  ****         this->growing = true;
 2037              		.loc 1 104 9 is_stmt 1
 104:src/Slab.cpp  ****         this->growing = true;
 2038              		.loc 1 104 25 is_stmt 0
 2039 0c88 97000000 		call	_ZN12kmem_cache_s16create_free_slabEv
 2039      E7800000 
 2040              	.LVL229:
 105:src/Slab.cpp  ****         return nullptr;
 2041              		.loc 1 105 9 is_stmt 1
 105:src/Slab.cpp  ****         return nullptr;
 2042              		.loc 1 105 23 is_stmt 0
 2043 0c90 93071000 		li	a5,1
 2044 0c94 2388F406 		sb	a5,112(s1)
 106:src/Slab.cpp  ****     }
 2045              		.loc 1 106 9 is_stmt 1
 106:src/Slab.cpp  ****     }
 2046              		.loc 1 106 16 is_stmt 0
 2047 0c98 13050000 		li	a0,0
 2048 0c9c 6FF09FF6 		j	.L84
 2049              	.LBE124:
 2050              	.LBE126:
 2051              		.cfi_endproc
 2052              	.LFE50:
 2054              		.align	2
 2055              		.globl	_ZN12kmem_cache_s7kmallocEm
 2057              	_ZN12kmem_cache_s7kmallocEm:
 2058              	.LFB53:
 197:src/Slab.cpp  ****     // kreiraj ime
 2059              		.loc 1 197 42 is_stmt 1
 2060              		.cfi_startproc
 2061              	.LVL230:
 2062 0ca0 130101FE 		addi	sp,sp,-32
 2063              		.cfi_def_cfa_offset 32
 2064 0ca4 233C1100 		sd	ra,24(sp)
 2065 0ca8 23388100 		sd	s0,16(sp)
 2066 0cac 23349100 		sd	s1,8(sp)
 2067 0cb0 23302101 		sd	s2,0(sp)
 2068              		.cfi_offset 1, -8
 2069              		.cfi_offset 8, -16
 2070              		.cfi_offset 9, -24
GAS LISTING /tmp/ccMn1XFx.s 			page 53


 2071              		.cfi_offset 18, -32
 2072 0cb4 13040102 		addi	s0,sp,32
 2073              		.cfi_def_cfa 8, 0
 2074 0cb8 93040500 		mv	s1,a0
 199:src/Slab.cpp  **** 
 2075              		.loc 1 199 5
 199:src/Slab.cpp  **** 
 2076              		.loc 1 199 61 is_stmt 0
 2077 0cbc 1B050500 		sext.w	a0,a0
 2078              	.LVL231:
 2079 0cc0 97000000 		call	_Z27concatenate_int_to_char_ptri@plt
 2079      E7800000 
 2080              	.LVL232:
 2081 0cc8 13090500 		mv	s2,a0
 2082              	.LVL233:
 201:src/Slab.cpp  ****     kmem_cache_s* cache = nullptr;
 2083              		.loc 1 201 5 is_stmt 1
 201:src/Slab.cpp  ****     kmem_cache_s* cache = nullptr;
 2084              		.loc 1 201 45 is_stmt 0
 2085 0ccc 97000000 		call	_ZN12kmem_cache_s20check_if_name_existsEPKc
 2085      E7800000 
 2086              	.LVL234:
 202:src/Slab.cpp  ****     if(tmp == nullptr){
 2087              		.loc 1 202 5 is_stmt 1
 203:src/Slab.cpp  ****         // napravi novi
 2088              		.loc 1 203 5
 2089 0cd4 63040502 		beqz	a0,.L96
 202:src/Slab.cpp  ****     if(tmp == nullptr){
 2090              		.loc 1 202 19 is_stmt 0
 2091 0cd8 13050000 		li	a0,0
 2092              	.LVL235:
 2093              	.L92:
 209:src/Slab.cpp  ****     return elem;
 2094              		.loc 1 209 5 is_stmt 1
 209:src/Slab.cpp  ****     return elem;
 2095              		.loc 1 209 41 is_stmt 0
 2096 0cdc 97000000 		call	_ZN12kmem_cache_s16kmem_cache_allocEv
 2096      E7800000 
 2097              	.LVL236:
 210:src/Slab.cpp  **** }
 2098              		.loc 1 210 5 is_stmt 1
 2099              	.L91:
 211:src/Slab.cpp  **** 
 2100              		.loc 1 211 1 is_stmt 0
 2101 0ce4 83308101 		ld	ra,24(sp)
 2102              		.cfi_remember_state
 2103              		.cfi_restore 1
 2104 0ce8 03340101 		ld	s0,16(sp)
 2105              		.cfi_restore 8
 2106              		.cfi_def_cfa 2, 32
 2107 0cec 83348100 		ld	s1,8(sp)
 2108              		.cfi_restore 9
 2109              	.LVL237:
 2110 0cf0 03390100 		ld	s2,0(sp)
 2111              		.cfi_restore 18
 2112              	.LVL238:
 2113 0cf4 13010102 		addi	sp,sp,32
GAS LISTING /tmp/ccMn1XFx.s 			page 54


 2114              		.cfi_def_cfa_offset 0
 2115 0cf8 67800000 		jr	ra
 2116              	.LVL239:
 2117              	.L96:
 2118              		.cfi_restore_state
 205:src/Slab.cpp  ****         if(!cache)return nullptr;
 2119              		.loc 1 205 9 is_stmt 1
 205:src/Slab.cpp  ****         if(!cache)return nullptr;
 2120              		.loc 1 205 49 is_stmt 0
 2121 0cfc 93060000 		li	a3,0
 2122 0d00 13060000 		li	a2,0
 2123 0d04 93850400 		mv	a1,s1
 2124 0d08 13050900 		mv	a0,s2
 2125              	.LVL240:
 2126 0d0c 97000000 		call	_ZN12kmem_cache_s17kmem_cache_createEPKcmPFvPvES4_
 2126      E7800000 
 2127              	.LVL241:
 206:src/Slab.cpp  ****     }
 2128              		.loc 1 206 9 is_stmt 1
 2129 0d14 E31405FC 		bnez	a0,.L92
 2130 0d18 6FF0DFFC 		j	.L91
 2131              		.cfi_endproc
 2132              	.LFE53:
 2134              		.align	2
 2135              		.globl	_ZN4Slab10clear_slabEiiPFvPvE
 2137              	_ZN4Slab10clear_slabEiiPFvPvE:
 2138              	.LFB62:
 400:src/Slab.cpp  **** 
 401:src/Slab.cpp  **** void Slab::clear_slab(int num_of_objects_in_slab, int objsize, void (*dtor)(void *)) {
 2139              		.loc 1 401 86
 2140              		.cfi_startproc
 2141              	.LVL242:
 402:src/Slab.cpp  ****     if(dtor == nullptr)return;
 2142              		.loc 1 402 5
 2143 0d1c 63880608 		beqz	a3,.L102
 401:src/Slab.cpp  ****     if(dtor == nullptr)return;
 2144              		.loc 1 401 86 is_stmt 0
 2145 0d20 130101FC 		addi	sp,sp,-64
 2146              		.cfi_def_cfa_offset 64
 2147 0d24 233C1102 		sd	ra,56(sp)
 2148 0d28 23388102 		sd	s0,48(sp)
 2149 0d2c 23349102 		sd	s1,40(sp)
 2150 0d30 23302103 		sd	s2,32(sp)
 2151 0d34 233C3101 		sd	s3,24(sp)
 2152 0d38 23384101 		sd	s4,16(sp)
 2153 0d3c 23345101 		sd	s5,8(sp)
 2154              		.cfi_offset 1, -8
 2155              		.cfi_offset 8, -16
 2156              		.cfi_offset 9, -24
 2157              		.cfi_offset 18, -32
 2158              		.cfi_offset 19, -40
 2159              		.cfi_offset 20, -48
 2160              		.cfi_offset 21, -56
 2161 0d40 13040104 		addi	s0,sp,64
 2162              		.cfi_def_cfa 8, 0
 2163 0d44 13090500 		mv	s2,a0
 2164 0d48 93890500 		mv	s3,a1
GAS LISTING /tmp/ccMn1XFx.s 			page 55


 2165 0d4c 930A0600 		mv	s5,a2
 2166 0d50 138A0600 		mv	s4,a3
 2167              	.LBB127:
 403:src/Slab.cpp  ****     for(int i = 0; i < num_of_objects_in_slab; i++){
 2168              		.loc 1 403 13
 2169 0d54 93040000 		li	s1,0
 2170 0d58 6F008000 		j	.L100
 2171              	.LVL243:
 2172              	.L99:
 2173              		.loc 1 403 5 is_stmt 1 discriminator 2
 2174 0d5c 9B841400 		addiw	s1,s1,1
 2175              	.LVL244:
 2176              	.L100:
 2177              		.loc 1 403 22 discriminator 1
 2178 0d60 63D43403 		bge	s1,s3,.L97
 404:src/Slab.cpp  ****         if(this->free_objects[i]){
 2179              		.loc 1 404 9
 2180              		.loc 1 404 18 is_stmt 0
 2181 0d64 83370901 		ld	a5,16(s2)
 2182              		.loc 1 404 32
 2183 0d68 B3879700 		add	a5,a5,s1
 2184 0d6c 83C70700 		lbu	a5,0(a5)
 2185              		.loc 1 404 9
 2186 0d70 E38607FE 		beqz	a5,.L99
 405:src/Slab.cpp  ****             dtor((void*)(this->first_addr + i * objsize));
 2187              		.loc 1 405 13 is_stmt 1
 2188              		.loc 1 405 32 is_stmt 0
 2189 0d74 03358901 		ld	a0,24(s2)
 2190              		.loc 1 405 47
 2191 0d78 BB875403 		mulw	a5,s1,s5
 2192              		.loc 1 405 17
 2193 0d7c 3305F500 		add	a0,a0,a5
 2194 0d80 E7000A00 		jalr	s4
 2195              	.LVL245:
 2196 0d84 6FF09FFD 		j	.L99
 2197              	.L97:
 2198              	.LBE127:
 406:src/Slab.cpp  ****         }
 407:src/Slab.cpp  ****     }
 408:src/Slab.cpp  **** }
 2199              		.loc 1 408 1
 2200 0d88 83308103 		ld	ra,56(sp)
 2201              		.cfi_restore 1
 2202 0d8c 03340103 		ld	s0,48(sp)
 2203              		.cfi_restore 8
 2204              		.cfi_def_cfa 2, 64
 2205 0d90 83348102 		ld	s1,40(sp)
 2206              		.cfi_restore 9
 2207              	.LVL246:
 2208 0d94 03390102 		ld	s2,32(sp)
 2209              		.cfi_restore 18
 2210              	.LVL247:
 2211 0d98 83398101 		ld	s3,24(sp)
 2212              		.cfi_restore 19
 2213 0d9c 033A0101 		ld	s4,16(sp)
 2214              		.cfi_restore 20
 2215              	.LVL248:
GAS LISTING /tmp/ccMn1XFx.s 			page 56


 2216 0da0 833A8100 		ld	s5,8(sp)
 2217              		.cfi_restore 21
 2218 0da4 13010104 		addi	sp,sp,64
 2219              		.cfi_def_cfa_offset 0
 2220 0da8 67800000 		jr	ra
 2221              	.LVL249:
 2222              	.L102:
 2223 0dac 67800000 		ret
 2224              		.cfi_endproc
 2225              	.LFE62:
 2227              		.align	2
 2228              		.globl	_ZN12kmem_cache_s18kmem_cache_destroyEm
 2230              	_ZN12kmem_cache_s18kmem_cache_destroyEm:
 2231              	.LFB58:
 259:src/Slab.cpp  ****     Slab *prev = nullptr, *tmp = this->slabs_full;
 2232              		.loc 1 259 51 is_stmt 1
 2233              		.cfi_startproc
 2234              	.LVL250:
 2235 0db0 130101FD 		addi	sp,sp,-48
 2236              		.cfi_def_cfa_offset 48
 2237 0db4 23341102 		sd	ra,40(sp)
 2238 0db8 23308102 		sd	s0,32(sp)
 2239 0dbc 233C9100 		sd	s1,24(sp)
 2240 0dc0 23382101 		sd	s2,16(sp)
 2241 0dc4 23343101 		sd	s3,8(sp)
 2242 0dc8 23304101 		sd	s4,0(sp)
 2243              		.cfi_offset 1, -8
 2244              		.cfi_offset 8, -16
 2245              		.cfi_offset 9, -24
 2246              		.cfi_offset 18, -32
 2247              		.cfi_offset 19, -40
 2248              		.cfi_offset 20, -48
 2249 0dcc 13040103 		addi	s0,sp,48
 2250              		.cfi_def_cfa 8, 0
 2251 0dd0 93040500 		mv	s1,a0
 2252 0dd4 138A0500 		mv	s4,a1
 260:src/Slab.cpp  ****     while (tmp) {
 2253              		.loc 1 260 5
 2254              	.LVL251:
 260:src/Slab.cpp  ****     while (tmp) {
 2255              		.loc 1 260 28 is_stmt 0
 2256 0dd8 03390500 		ld	s2,0(a0)
 2257              	.LVL252:
 2258 0ddc 6F00C001 		j	.L108
 2259              	.LVL253:
 2260              	.L107:
 2261              	.LBB128:
 2262              	.LBB129:
  18:src/../h/../h/Buddy.h ****             bs.buddyHeapStart = (size_t)space;
 2263              		.loc 2 18 9 is_stmt 1
 2264              		.loc 2 23 9
 2265              	.LBE129:
 2266              	.LBE128:
 265:src/Slab.cpp  ****     }
 2267              		.loc 1 265 45 is_stmt 0
 2268 0de0 93050900 		mv	a1,s2
 2269 0de4 17050000 		lla	a0,_ZZN11BuddySystem11getInstanceEPviE2bs
GAS LISTING /tmp/ccMn1XFx.s 			page 57


 2269      13050500 
 2270 0dec 97000000 		call	_ZN11BuddySystem9buddyFreeEm@plt
 2270      E7800000 
 2271              	.LVL254:
 263:src/Slab.cpp  ****         prev->clear_slab((int)num, (int)objsize, dtor);
 2272              		.loc 1 263 13
 2273 0df4 13890900 		mv	s2,s3
 2274              	.LVL255:
 2275              	.L108:
 261:src/Slab.cpp  ****         prev = tmp;
 2276              		.loc 1 261 5 is_stmt 1
 261:src/Slab.cpp  ****         prev = tmp;
 2277              		.loc 1 261 12
 2278 0df8 63060904 		beqz	s2,.L106
 262:src/Slab.cpp  ****         tmp = tmp->next;
 2279              		.loc 1 262 9
 2280              	.LVL256:
 263:src/Slab.cpp  ****         prev->clear_slab((int)num, (int)objsize, dtor);
 2281              		.loc 1 263 9
 263:src/Slab.cpp  ****         prev->clear_slab((int)num, (int)objsize, dtor);
 2282              		.loc 1 263 13 is_stmt 0
 2283 0dfc 83398900 		ld	s3,8(s2)
 2284              	.LVL257:
 264:src/Slab.cpp  ****         BuddySystem::getInstance().buddyFree((size_t)prev);
 2285              		.loc 1 264 9 is_stmt 1
 264:src/Slab.cpp  ****         BuddySystem::getInstance().buddyFree((size_t)prev);
 2286              		.loc 1 264 25 is_stmt 0
 2287 0e00 83B60405 		ld	a3,80(s1)
 2288 0e04 03A60403 		lw	a2,48(s1)
 2289 0e08 83A58403 		lw	a1,56(s1)
 2290 0e0c 13050900 		mv	a0,s2
 2291 0e10 97000000 		call	_ZN4Slab10clear_slabEiiPFvPvE
 2291      E7800000 
 2292              	.LVL258:
 265:src/Slab.cpp  ****     }
 2293              		.loc 1 265 9 is_stmt 1
 2294              	.LBB131:
 2295              	.LBB130:
  17:src/../h/../h/Buddy.h ****         if(block_num != 0 && space != nullptr){
 2296              		.loc 2 17 9
  17:src/../h/../h/Buddy.h ****         if(block_num != 0 && space != nullptr){
 2297              		.loc 2 17 28 is_stmt 0
 2298 0e18 97070000 		lbu	a5,_ZGVZN11BuddySystem11getInstanceEPviE2bs
 2298      83C70700 
 2299 0e20 E39007FC 		bnez	a5,.L107
 2300 0e24 17050000 		lla	a0,_ZZN11BuddySystem11getInstanceEPviE2bs
 2300      13050500 
 2301 0e2c 97000000 		call	_ZN11BuddySystemC1Ev@plt
 2301      E7800000 
 2302              	.LVL259:
 2303 0e34 93071000 		li	a5,1
 2304 0e38 17070000 		sb	a5,_ZGVZN11BuddySystem11getInstanceEPviE2bs,a4
 2304      2300F700 
 2305 0e40 6FF01FFA 		j	.L107
 2306              	.LVL260:
 2307              	.L106:
 2308              	.LBE130:
GAS LISTING /tmp/ccMn1XFx.s 			page 58


 2309              	.LBE131:
 267:src/Slab.cpp  ****     while (tmp) {
 2310              		.loc 1 267 5 is_stmt 1
 267:src/Slab.cpp  ****     while (tmp) {
 2311              		.loc 1 267 21
 267:src/Slab.cpp  ****     while (tmp) {
 2312              		.loc 1 267 25 is_stmt 0
 2313 0e44 03B98400 		ld	s2,8(s1)
 2314              	.LVL261:
 2315 0e48 6F008003 		j	.L111
 2316              	.LVL262:
 2317              	.L121:
 2318              	.LBB132:
 2319              	.LBB133:
  17:src/../h/../h/Buddy.h ****         if(block_num != 0 && space != nullptr){
 2320              		.loc 2 17 28
 2321 0e4c 17050000 		lla	a0,_ZZN11BuddySystem11getInstanceEPviE2bs
 2321      13050500 
 2322 0e54 97000000 		call	_ZN11BuddySystemC1Ev@plt
 2322      E7800000 
 2323              	.LVL263:
 2324 0e5c 93071000 		li	a5,1
 2325 0e60 17070000 		sb	a5,_ZGVZN11BuddySystem11getInstanceEPviE2bs,a4
 2325      2300F700 
 2326              	.L110:
  18:src/../h/../h/Buddy.h ****             bs.buddyHeapStart = (size_t)space;
 2327              		.loc 2 18 9 is_stmt 1
 2328              		.loc 2 23 9
 2329              	.LVL264:
 2330              	.LBE133:
 2331              	.LBE132:
 272:src/Slab.cpp  ****     }
 2332              		.loc 1 272 45 is_stmt 0
 2333 0e68 93050900 		mv	a1,s2
 2334 0e6c 17050000 		lla	a0,_ZZN11BuddySystem11getInstanceEPviE2bs
 2334      13050500 
 2335 0e74 97000000 		call	_ZN11BuddySystem9buddyFreeEm@plt
 2335      E7800000 
 2336              	.LVL265:
 270:src/Slab.cpp  ****         prev->clear_slab((int)num, (int)objsize, dtor);
 2337              		.loc 1 270 13
 2338 0e7c 13890900 		mv	s2,s3
 2339              	.LVL266:
 2340              	.L111:
 268:src/Slab.cpp  ****         prev = tmp;
 2341              		.loc 1 268 5 is_stmt 1
 268:src/Slab.cpp  ****         prev = tmp;
 2342              		.loc 1 268 12
 2343 0e80 63080902 		beqz	s2,.L109
 269:src/Slab.cpp  ****         tmp = tmp->next;
 2344              		.loc 1 269 9
 2345              	.LVL267:
 270:src/Slab.cpp  ****         prev->clear_slab((int)num, (int)objsize, dtor);
 2346              		.loc 1 270 9
 270:src/Slab.cpp  ****         prev->clear_slab((int)num, (int)objsize, dtor);
 2347              		.loc 1 270 13 is_stmt 0
 2348 0e84 83398900 		ld	s3,8(s2)
GAS LISTING /tmp/ccMn1XFx.s 			page 59


 2349              	.LVL268:
 271:src/Slab.cpp  ****         BuddySystem::getInstance().buddyFree((size_t)prev);
 2350              		.loc 1 271 9 is_stmt 1
 271:src/Slab.cpp  ****         BuddySystem::getInstance().buddyFree((size_t)prev);
 2351              		.loc 1 271 25 is_stmt 0
 2352 0e88 83B60405 		ld	a3,80(s1)
 2353 0e8c 03A60403 		lw	a2,48(s1)
 2354 0e90 83A58403 		lw	a1,56(s1)
 2355 0e94 13050900 		mv	a0,s2
 2356 0e98 97000000 		call	_ZN4Slab10clear_slabEiiPFvPvE
 2356      E7800000 
 2357              	.LVL269:
 272:src/Slab.cpp  ****     }
 2358              		.loc 1 272 9 is_stmt 1
 2359              	.LBB135:
 2360              	.LBB134:
  17:src/../h/../h/Buddy.h ****         if(block_num != 0 && space != nullptr){
 2361              		.loc 2 17 9
  17:src/../h/../h/Buddy.h ****         if(block_num != 0 && space != nullptr){
 2362              		.loc 2 17 28 is_stmt 0
 2363 0ea0 97070000 		lbu	a5,_ZGVZN11BuddySystem11getInstanceEPviE2bs
 2363      83C70700 
 2364 0ea8 E39007FC 		bnez	a5,.L110
 2365 0eac 6FF01FFA 		j	.L121
 2366              	.LVL270:
 2367              	.L109:
 2368              	.LBE134:
 2369              	.LBE135:
 274:src/Slab.cpp  ****     while (tmp) {
 2370              		.loc 1 274 5 is_stmt 1
 274:src/Slab.cpp  ****     while (tmp) {
 2371              		.loc 1 274 21
 274:src/Slab.cpp  ****     while (tmp) {
 2372              		.loc 1 274 25 is_stmt 0
 2373 0eb0 03B90401 		ld	s2,16(s1)
 2374              	.LVL271:
 2375 0eb4 6F008003 		j	.L114
 2376              	.LVL272:
 2377              	.L122:
 2378              	.LBB136:
 2379              	.LBB137:
  17:src/../h/../h/Buddy.h ****         if(block_num != 0 && space != nullptr){
 2380              		.loc 2 17 28
 2381 0eb8 17050000 		lla	a0,_ZZN11BuddySystem11getInstanceEPviE2bs
 2381      13050500 
 2382 0ec0 97000000 		call	_ZN11BuddySystemC1Ev@plt
 2382      E7800000 
 2383              	.LVL273:
 2384 0ec8 93071000 		li	a5,1
 2385 0ecc 17070000 		sb	a5,_ZGVZN11BuddySystem11getInstanceEPviE2bs,a4
 2385      2300F700 
 2386              	.L113:
  18:src/../h/../h/Buddy.h ****             bs.buddyHeapStart = (size_t)space;
 2387              		.loc 2 18 9 is_stmt 1
 2388              		.loc 2 23 9
 2389              	.LVL274:
 2390              	.LBE137:
GAS LISTING /tmp/ccMn1XFx.s 			page 60


 2391              	.LBE136:
 279:src/Slab.cpp  ****     }
 2392              		.loc 1 279 45 is_stmt 0
 2393 0ed4 93050900 		mv	a1,s2
 2394 0ed8 17050000 		lla	a0,_ZZN11BuddySystem11getInstanceEPviE2bs
 2394      13050500 
 2395 0ee0 97000000 		call	_ZN11BuddySystem9buddyFreeEm@plt
 2395      E7800000 
 2396              	.LVL275:
 277:src/Slab.cpp  ****         prev->clear_slab((int)num, (int)objsize, dtor);
 2397              		.loc 1 277 13
 2398 0ee8 13890900 		mv	s2,s3
 2399              	.LVL276:
 2400              	.L114:
 275:src/Slab.cpp  ****         prev = tmp;
 2401              		.loc 1 275 5 is_stmt 1
 275:src/Slab.cpp  ****         prev = tmp;
 2402              		.loc 1 275 12
 2403 0eec 63080902 		beqz	s2,.L112
 276:src/Slab.cpp  ****         tmp = tmp->next;
 2404              		.loc 1 276 9
 2405              	.LVL277:
 277:src/Slab.cpp  ****         prev->clear_slab((int)num, (int)objsize, dtor);
 2406              		.loc 1 277 9
 277:src/Slab.cpp  ****         prev->clear_slab((int)num, (int)objsize, dtor);
 2407              		.loc 1 277 13 is_stmt 0
 2408 0ef0 83398900 		ld	s3,8(s2)
 2409              	.LVL278:
 278:src/Slab.cpp  ****         BuddySystem::getInstance().buddyFree((size_t)prev);
 2410              		.loc 1 278 9 is_stmt 1
 278:src/Slab.cpp  ****         BuddySystem::getInstance().buddyFree((size_t)prev);
 2411              		.loc 1 278 25 is_stmt 0
 2412 0ef4 83B60405 		ld	a3,80(s1)
 2413 0ef8 03A60403 		lw	a2,48(s1)
 2414 0efc 83A58403 		lw	a1,56(s1)
 2415 0f00 13050900 		mv	a0,s2
 2416 0f04 97000000 		call	_ZN4Slab10clear_slabEiiPFvPvE
 2416      E7800000 
 2417              	.LVL279:
 279:src/Slab.cpp  ****     }
 2418              		.loc 1 279 9 is_stmt 1
 2419              	.LBB139:
 2420              	.LBB138:
  17:src/../h/../h/Buddy.h ****         if(block_num != 0 && space != nullptr){
 2421              		.loc 2 17 9
  17:src/../h/../h/Buddy.h ****         if(block_num != 0 && space != nullptr){
 2422              		.loc 2 17 28 is_stmt 0
 2423 0f0c 97070000 		lbu	a5,_ZGVZN11BuddySystem11getInstanceEPviE2bs
 2423      83C70700 
 2424 0f14 E39007FC 		bnez	a5,.L113
 2425 0f18 6FF01FFA 		j	.L122
 2426              	.LVL280:
 2427              	.L112:
 2428              	.LBE138:
 2429              	.LBE139:
 282:src/Slab.cpp  ****     while(cache){
 2430              		.loc 1 282 5 is_stmt 1
GAS LISTING /tmp/ccMn1XFx.s 			page 61


 282:src/Slab.cpp  ****     while(cache){
 2431              		.loc 1 282 19 is_stmt 0
 2432 0f1c 97070000 		ld	a5,.LANCHOR0
 2432      83B70700 
 2433              	.LVL281:
 2434 0f24 6F00C002 		j	.L118
 2435              	.LVL282:
 2436              	.L123:
 2437              	.LBB140:
 2438              	.LBB141:
  17:src/../h/../h/Buddy.h ****         if(block_num != 0 && space != nullptr){
 2439              		.loc 2 17 28
 2440 0f28 17050000 		lla	a0,_ZZN11BuddySystem11getInstanceEPviE2bs
 2440      13050500 
 2441 0f30 97000000 		call	_ZN11BuddySystemC1Ev@plt
 2441      E7800000 
 2442              	.LVL283:
 2443 0f38 93071000 		li	a5,1
 2444 0f3c 17070000 		sb	a5,_ZGVZN11BuddySystem11getInstanceEPviE2bs,a4
 2444      2300F700 
 2445 0f44 6F004003 		j	.L117
 2446              	.LVL284:
 2447              	.L116:
 2448              	.LBE141:
 2449              	.LBE140:
 292:src/Slab.cpp  ****         cache = cache->next;
 2450              		.loc 1 292 9 is_stmt 1
 293:src/Slab.cpp  ****     }
 2451              		.loc 1 293 9
 292:src/Slab.cpp  ****         cache = cache->next;
 2452              		.loc 1 292 20 is_stmt 0
 2453 0f48 13890700 		mv	s2,a5
 293:src/Slab.cpp  ****     }
 2454              		.loc 1 293 15
 2455 0f4c 83B70706 		ld	a5,96(a5)
 2456              	.LVL285:
 2457              	.L118:
 283:src/Slab.cpp  ****         if((size_t)cache == addr){
 2458              		.loc 1 283 5 is_stmt 1
 283:src/Slab.cpp  ****         if((size_t)cache == addr){
 2459              		.loc 1 283 11
 2460 0f50 63820704 		beqz	a5,.L119
 284:src/Slab.cpp  ****             if(prev_cache){
 2461              		.loc 1 284 9
 284:src/Slab.cpp  ****             if(prev_cache){
 2462              		.loc 1 284 26 is_stmt 0
 2463 0f54 93840700 		mv	s1,a5
 284:src/Slab.cpp  ****             if(prev_cache){
 2464              		.loc 1 284 9
 2465 0f58 E39847FF 		bne	a5,s4,.L116
 285:src/Slab.cpp  ****                 prev_cache->next = cache->next;
 2466              		.loc 1 285 13 is_stmt 1
 2467 0f5c E30609FE 		beqz	s2,.L116
 286:src/Slab.cpp  ****                 cache->next = nullptr;
 2468              		.loc 1 286 17
 286:src/Slab.cpp  ****                 cache->next = nullptr;
 2469              		.loc 1 286 43 is_stmt 0
GAS LISTING /tmp/ccMn1XFx.s 			page 62


 2470 0f60 03B70706 		ld	a4,96(a5)
 286:src/Slab.cpp  ****                 cache->next = nullptr;
 2471              		.loc 1 286 34
 2472 0f64 2330E906 		sd	a4,96(s2)
 287:src/Slab.cpp  ****                 BuddySystem::getInstance().buddyFree((size_t)cache);
 2473              		.loc 1 287 17 is_stmt 1
 287:src/Slab.cpp  ****                 BuddySystem::getInstance().buddyFree((size_t)cache);
 2474              		.loc 1 287 29 is_stmt 0
 2475 0f68 23B00706 		sd	zero,96(a5)
 288:src/Slab.cpp  ****                 return 0;
 2476              		.loc 1 288 17 is_stmt 1
 2477              	.LVL286:
 2478              	.LBB143:
 2479              	.LBB142:
  17:src/../h/../h/Buddy.h ****         if(block_num != 0 && space != nullptr){
 2480              		.loc 2 17 9
  17:src/../h/../h/Buddy.h ****         if(block_num != 0 && space != nullptr){
 2481              		.loc 2 17 28 is_stmt 0
 2482 0f6c 97070000 		lbu	a5,_ZGVZN11BuddySystem11getInstanceEPviE2bs
 2482      83C70700 
 2483              	.LVL287:
 2484 0f74 E38A07FA 		beqz	a5,.L123
 2485              	.L117:
  18:src/../h/../h/Buddy.h ****             bs.buddyHeapStart = (size_t)space;
 2486              		.loc 2 18 9 is_stmt 1
 2487              		.loc 2 23 9
 2488              	.LVL288:
 2489              	.LBE142:
 2490              	.LBE143:
 288:src/Slab.cpp  ****                 return 0;
 2491              		.loc 1 288 53 is_stmt 0
 2492 0f78 93850400 		mv	a1,s1
 2493 0f7c 17050000 		lla	a0,_ZZN11BuddySystem11getInstanceEPviE2bs
 2493      13050500 
 2494 0f84 97000000 		call	_ZN11BuddySystem9buddyFreeEm@plt
 2494      E7800000 
 2495              	.LVL289:
 289:src/Slab.cpp  ****             }
 2496              		.loc 1 289 17 is_stmt 1
 289:src/Slab.cpp  ****             }
 2497              		.loc 1 289 24 is_stmt 0
 2498 0f8c 13050000 		li	a0,0
 2499 0f90 6F008000 		j	.L115
 2500              	.LVL290:
 2501              	.L119:
 295:src/Slab.cpp  **** }
 2502              		.loc 1 295 13
 2503 0f94 1305F0FF 		li	a0,-1
 2504              	.LVL291:
 2505              	.L115:
 296:src/Slab.cpp  **** 
 2506              		.loc 1 296 1
 2507 0f98 83308102 		ld	ra,40(sp)
 2508              		.cfi_restore 1
 2509 0f9c 03340102 		ld	s0,32(sp)
 2510              		.cfi_restore 8
 2511              		.cfi_def_cfa 2, 48
GAS LISTING /tmp/ccMn1XFx.s 			page 63


 2512 0fa0 83348101 		ld	s1,24(sp)
 2513              		.cfi_restore 9
 2514 0fa4 03390101 		ld	s2,16(sp)
 2515              		.cfi_restore 18
 2516              	.LVL292:
 2517 0fa8 83398100 		ld	s3,8(sp)
 2518              		.cfi_restore 19
 2519 0fac 033A0100 		ld	s4,0(sp)
 2520              		.cfi_restore 20
 2521              	.LVL293:
 2522 0fb0 13010103 		addi	sp,sp,48
 2523              		.cfi_def_cfa_offset 0
 2524 0fb4 67800000 		jr	ra
 2525              		.cfi_endproc
 2526              	.LFE58:
 2528              		.globl	_ZN12kmem_cache_s4headE
 2529              		.weak	_ZGVZN11BuddySystem11getInstanceEPviE2bs
 2530              		.section	.bss._ZGVZN11BuddySystem11getInstanceEPviE2bs,"awG",@nobits,_ZGVZN11BuddySystem11getInsta
 2531              		.align	3
 2534              	_ZGVZN11BuddySystem11getInstanceEPviE2bs:
 2535 0000 00000000 		.zero	8
 2535      00000000 
 2536              		.weak	_ZZN11BuddySystem11getInstanceEPviE2bs
 2537              		.section	.bss._ZZN11BuddySystem11getInstanceEPviE2bs,"awG",@nobits,_ZZN11BuddySystem11getInstanceE
 2538              		.align	3
 2541              	_ZZN11BuddySystem11getInstanceEPviE2bs:
 2542 0000 00000000 		.zero	344
 2542      00000000 
 2542      00000000 
 2542      00000000 
 2542      00000000 
 2543              		.bss
 2544              		.align	3
 2545              		.set	.LANCHOR0,. + 0
 2548              	_ZN12kmem_cache_s4headE:
 2549 0000 00000000 		.zero	8
 2549      00000000 
 2550              		.text
 2551              	.Letext0:
 2552              		.file 4 "src/../h/../lib/hw.h"
 2553              		.file 5 "src/../test/../h/syscall_c.h"
 2554              		.file 6 "src/../test/printing.hpp"
 2555              		.file 7 "src/../h/../h/String.h"
GAS LISTING /tmp/ccMn1XFx.s 			page 64


DEFINED SYMBOLS
                            *ABS*:0000000000000000 Slab.cpp
     /tmp/ccMn1XFx.s:9      .text:0000000000000000 _ZN12kmem_cache_s17kmem_cache_shrinkEv
     /tmp/ccMn1XFx.s:13     .text:0000000000000000 .L0 
     /tmp/ccMn1XFx.s:15     .text:0000000000000000 .L0 
     /tmp/ccMn1XFx.s:16     .text:0000000000000004 .L0 
     /tmp/ccMn1XFx.s:23     .text:000000000000001c .L0 
     /tmp/ccMn1XFx.s:24     .text:000000000000001c .L0 
     /tmp/ccMn1XFx.s:25     .text:000000000000001c .L0 
     /tmp/ccMn1XFx.s:26     .text:000000000000001c .L0 
     /tmp/ccMn1XFx.s:27     .text:000000000000001c .L0 
     /tmp/ccMn1XFx.s:28     .text:000000000000001c .L0 
     /tmp/ccMn1XFx.s:30     .text:0000000000000020 .L0 
     /tmp/ccMn1XFx.s:33     .text:0000000000000024 .L0 
     /tmp/ccMn1XFx.s:34     .text:0000000000000024 .L0 
     /tmp/ccMn1XFx.s:36     .text:0000000000000028 .L0 
     /tmp/ccMn1XFx.s:38     .text:000000000000002c .L0 
     /tmp/ccMn1XFx.s:39     .text:000000000000002c .L0 
     /tmp/ccMn1XFx.s:42     .text:0000000000000030 .L0 
     /tmp/ccMn1XFx.s:43     .text:0000000000000030 .L0 
     /tmp/ccMn1XFx.s:49     .text:0000000000000038 .L0 
     /tmp/ccMn1XFx.s:50     .text:0000000000000038 .L0 
     /tmp/ccMn1XFx.s:52     .text:000000000000003c .L0 
     /tmp/ccMn1XFx.s:53     .text:000000000000003c .L0 
     /tmp/ccMn1XFx.s:2541   .bss._ZZN11BuddySystem11getInstanceEPviE2bs:0000000000000000 _ZZN11BuddySystem11getInstanceEPviE2bs
     /tmp/ccMn1XFx.s:62     .text:0000000000000044 .L0 
     /tmp/ccMn1XFx.s:2534   .bss._ZGVZN11BuddySystem11getInstanceEPviE2bs:0000000000000000 _ZGVZN11BuddySystem11getInstanceEPviE2bs
     /tmp/ccMn1XFx.s:69     .text:0000000000000060 .L0 
     /tmp/ccMn1XFx.s:73     .text:0000000000000060 .L0 
     /tmp/ccMn1XFx.s:74     .text:0000000000000060 .L0 
     /tmp/ccMn1XFx.s:79     .text:0000000000000074 .L0 
     /tmp/ccMn1XFx.s:83     .text:0000000000000078 .L0 
     /tmp/ccMn1XFx.s:84     .text:0000000000000078 .L0 
     /tmp/ccMn1XFx.s:87     .text:000000000000007c .L0 
     /tmp/ccMn1XFx.s:88     .text:000000000000007c .L0 
     /tmp/ccMn1XFx.s:89     .text:000000000000007c .L0 
     /tmp/ccMn1XFx.s:94     .text:0000000000000080 .L0 
     /tmp/ccMn1XFx.s:95     .text:0000000000000080 .L0 
     /tmp/ccMn1XFx.s:96     .text:0000000000000080 .L0 
     /tmp/ccMn1XFx.s:104    .text:0000000000000090 .L0 
     /tmp/ccMn1XFx.s:105    .text:0000000000000090 .L0 
     /tmp/ccMn1XFx.s:107    .text:0000000000000094 .L0 
     /tmp/ccMn1XFx.s:108    .text:0000000000000094 .L0 
     /tmp/ccMn1XFx.s:110    .text:0000000000000098 .L0 
     /tmp/ccMn1XFx.s:111    .text:0000000000000098 .L0 
     /tmp/ccMn1XFx.s:113    .text:000000000000009c .L0 
     /tmp/ccMn1XFx.s:114    .text:000000000000009c .L0 
     /tmp/ccMn1XFx.s:116    .text:00000000000000a0 .L0 
     /tmp/ccMn1XFx.s:119    .text:00000000000000a8 .L0 
     /tmp/ccMn1XFx.s:120    .text:00000000000000a8 .L0 
     /tmp/ccMn1XFx.s:125    .text:00000000000000b0 .L0 
     /tmp/ccMn1XFx.s:126    .text:00000000000000b4 .L0 
     /tmp/ccMn1XFx.s:128    .text:00000000000000b8 .L0 
     /tmp/ccMn1XFx.s:129    .text:00000000000000b8 .L0 
     /tmp/ccMn1XFx.s:131    .text:00000000000000bc .L0 
     /tmp/ccMn1XFx.s:133    .text:00000000000000c0 .L0 
     /tmp/ccMn1XFx.s:135    .text:00000000000000c4 .L0 
GAS LISTING /tmp/ccMn1XFx.s 			page 65


     /tmp/ccMn1XFx.s:138    .text:00000000000000c8 .L0 
     /tmp/ccMn1XFx.s:140    .text:00000000000000cc .L0 
     /tmp/ccMn1XFx.s:142    .text:00000000000000d0 .L0 
     /tmp/ccMn1XFx.s:148    .text:00000000000000d0 _ZN12kmem_cache_s16create_free_slabEv
     /tmp/ccMn1XFx.s:151    .text:00000000000000d0 .L0 
     /tmp/ccMn1XFx.s:153    .text:00000000000000d0 .L0 
     /tmp/ccMn1XFx.s:154    .text:00000000000000d4 .L0 
     /tmp/ccMn1XFx.s:161    .text:00000000000000ec .L0 
     /tmp/ccMn1XFx.s:162    .text:00000000000000ec .L0 
     /tmp/ccMn1XFx.s:163    .text:00000000000000ec .L0 
     /tmp/ccMn1XFx.s:164    .text:00000000000000ec .L0 
     /tmp/ccMn1XFx.s:165    .text:00000000000000ec .L0 
     /tmp/ccMn1XFx.s:166    .text:00000000000000ec .L0 
     /tmp/ccMn1XFx.s:168    .text:00000000000000f0 .L0 
     /tmp/ccMn1XFx.s:174    .text:00000000000000f4 .L0 
     /tmp/ccMn1XFx.s:175    .text:00000000000000f4 .L0 
     /tmp/ccMn1XFx.s:176    .text:00000000000000f4 .L0 
     /tmp/ccMn1XFx.s:181    .text:0000000000000100 .L0 
     /tmp/ccMn1XFx.s:184    .text:0000000000000100 .L0 
     /tmp/ccMn1XFx.s:185    .text:0000000000000100 .L0 
     /tmp/ccMn1XFx.s:187    .text:0000000000000104 .L0 
     /tmp/ccMn1XFx.s:189    .text:0000000000000108 .L0 
     /tmp/ccMn1XFx.s:191    .text:000000000000010c .L0 
     /tmp/ccMn1XFx.s:198    .text:0000000000000124 .L0 
     /tmp/ccMn1XFx.s:199    .text:0000000000000124 .L0 
     /tmp/ccMn1XFx.s:201    .text:0000000000000128 .L0 
     /tmp/ccMn1XFx.s:202    .text:0000000000000128 .L0 
     /tmp/ccMn1XFx.s:204    .text:000000000000012c .L0 
     /tmp/ccMn1XFx.s:205    .text:000000000000012c .L0 
     /tmp/ccMn1XFx.s:207    .text:0000000000000130 .L0 
     /tmp/ccMn1XFx.s:208    .text:0000000000000130 .L0 
     /tmp/ccMn1XFx.s:210    .text:0000000000000134 .L0 
     /tmp/ccMn1XFx.s:212    .text:0000000000000138 .L0 
     /tmp/ccMn1XFx.s:213    .text:0000000000000138 .L0 
     /tmp/ccMn1XFx.s:216    .text:000000000000013c .L0 
     /tmp/ccMn1XFx.s:224    .text:000000000000014c .L0 
     /tmp/ccMn1XFx.s:225    .text:000000000000014c .L0 
     /tmp/ccMn1XFx.s:229    .text:0000000000000150 .L0 
     /tmp/ccMn1XFx.s:230    .text:0000000000000150 .L0 
     /tmp/ccMn1XFx.s:232    .text:0000000000000154 .L0 
     /tmp/ccMn1XFx.s:234    .text:0000000000000158 .L0 
     /tmp/ccMn1XFx.s:235    .text:0000000000000158 .L0 
     /tmp/ccMn1XFx.s:238    .text:0000000000000160 .L0 
     /tmp/ccMn1XFx.s:247    .text:0000000000000168 .L0 
     /tmp/ccMn1XFx.s:258    .text:0000000000000188 .L0 
     /tmp/ccMn1XFx.s:259    .text:0000000000000188 .L0 
     /tmp/ccMn1XFx.s:262    .text:000000000000018c .L0 
     /tmp/ccMn1XFx.s:263    .text:000000000000018c .L0 
     /tmp/ccMn1XFx.s:266    .text:0000000000000190 .L0 
     /tmp/ccMn1XFx.s:272    .text:0000000000000194 .L0 
     /tmp/ccMn1XFx.s:273    .text:0000000000000194 .L0 
     /tmp/ccMn1XFx.s:276    .text:0000000000000198 .L0 
     /tmp/ccMn1XFx.s:280    .text:000000000000019c .L0 
     /tmp/ccMn1XFx.s:281    .text:000000000000019c .L0 
     /tmp/ccMn1XFx.s:283    .text:00000000000001a0 .L0 
     /tmp/ccMn1XFx.s:285    .text:00000000000001a4 .L0 
     /tmp/ccMn1XFx.s:286    .text:00000000000001a4 .L0 
GAS LISTING /tmp/ccMn1XFx.s 			page 66


     /tmp/ccMn1XFx.s:288    .text:00000000000001a8 .L0 
     /tmp/ccMn1XFx.s:292    .text:00000000000001b0 .L0 
     /tmp/ccMn1XFx.s:295    .text:00000000000001b4 .L0 
     /tmp/ccMn1XFx.s:297    .text:00000000000001b8 .L0 
     /tmp/ccMn1XFx.s:300    .text:00000000000001bc .L0 
     /tmp/ccMn1XFx.s:306    .text:00000000000001c0 .L0 
     /tmp/ccMn1XFx.s:307    .text:00000000000001c0 .L0 
     /tmp/ccMn1XFx.s:309    .text:00000000000001c4 .L0 
     /tmp/ccMn1XFx.s:310    .text:00000000000001c4 .L0 
     /tmp/ccMn1XFx.s:312    .text:00000000000001c8 .L0 
     /tmp/ccMn1XFx.s:315    .text:00000000000001d0 .L0 
     /tmp/ccMn1XFx.s:316    .text:00000000000001d4 .L0 
     /tmp/ccMn1XFx.s:319    .text:00000000000001d8 .L0 
     /tmp/ccMn1XFx.s:321    .text:00000000000001dc .L0 
     /tmp/ccMn1XFx.s:323    .text:00000000000001e0 .L0 
     /tmp/ccMn1XFx.s:326    .text:00000000000001e4 .L0 
     /tmp/ccMn1XFx.s:328    .text:00000000000001e8 .L0 
     /tmp/ccMn1XFx.s:330    .text:00000000000001ec .L0 
     /tmp/ccMn1XFx.s:333    .text:00000000000001f0 .L0 
     /tmp/ccMn1XFx.s:335    .text:00000000000001f4 .L0 
     /tmp/ccMn1XFx.s:341    .text:00000000000001f4 _ZN12kmem_cache_s17kmem_cache_createEPKcmPFvPvES4_
     /tmp/ccMn1XFx.s:344    .text:00000000000001f4 .L0 
     /tmp/ccMn1XFx.s:346    .text:00000000000001f4 .L0 
     /tmp/ccMn1XFx.s:347    .text:00000000000001f8 .L0 
     /tmp/ccMn1XFx.s:355    .text:0000000000000214 .L0 
     /tmp/ccMn1XFx.s:356    .text:0000000000000214 .L0 
     /tmp/ccMn1XFx.s:357    .text:0000000000000214 .L0 
     /tmp/ccMn1XFx.s:358    .text:0000000000000214 .L0 
     /tmp/ccMn1XFx.s:359    .text:0000000000000214 .L0 
     /tmp/ccMn1XFx.s:360    .text:0000000000000214 .L0 
     /tmp/ccMn1XFx.s:361    .text:0000000000000214 .L0 
     /tmp/ccMn1XFx.s:363    .text:0000000000000218 .L0 
     /tmp/ccMn1XFx.s:370    .text:0000000000000228 .L0 
     /tmp/ccMn1XFx.s:371    .text:0000000000000228 .L0 
     /tmp/ccMn1XFx.s:375    .text:0000000000000230 .L0 
     /tmp/ccMn1XFx.s:377    .text:0000000000000234 .L0 
     /tmp/ccMn1XFx.s:378    .text:0000000000000234 .L0 
     /tmp/ccMn1XFx.s:380    .text:0000000000000238 .L0 
     /tmp/ccMn1XFx.s:382    .text:000000000000023c .L0 
     /tmp/ccMn1XFx.s:383    .text:000000000000023c .L0 
     /tmp/ccMn1XFx.s:386    .text:0000000000000240 .L0 
     /tmp/ccMn1XFx.s:393    .text:0000000000000244 .L0 
     /tmp/ccMn1XFx.s:394    .text:0000000000000244 .L0 
     /tmp/ccMn1XFx.s:395    .text:0000000000000244 .L0 
     /tmp/ccMn1XFx.s:401    .text:0000000000000250 .L0 
     /tmp/ccMn1XFx.s:404    .text:0000000000000250 .L0 
     /tmp/ccMn1XFx.s:405    .text:0000000000000250 .L0 
     /tmp/ccMn1XFx.s:413    .text:000000000000026c .L0 
     /tmp/ccMn1XFx.s:414    .text:000000000000026c .L0 
     /tmp/ccMn1XFx.s:416    .text:0000000000000270 .L0 
     /tmp/ccMn1XFx.s:417    .text:0000000000000270 .L0 
     /tmp/ccMn1XFx.s:419    .text:0000000000000274 .L0 
     /tmp/ccMn1XFx.s:420    .text:0000000000000274 .L0 
     /tmp/ccMn1XFx.s:422    .text:0000000000000278 .L0 
     /tmp/ccMn1XFx.s:423    .text:0000000000000278 .L0 
     /tmp/ccMn1XFx.s:425    .text:000000000000027c .L0 
     /tmp/ccMn1XFx.s:426    .text:000000000000027c .L0 
GAS LISTING /tmp/ccMn1XFx.s 			page 67


     /tmp/ccMn1XFx.s:428    .text:0000000000000280 .L0 
     /tmp/ccMn1XFx.s:430    .text:0000000000000284 .L0 
     /tmp/ccMn1XFx.s:432    .text:0000000000000288 .L0 
     /tmp/ccMn1XFx.s:433    .text:0000000000000288 .L0 
     /tmp/ccMn1XFx.s:435    .text:000000000000028c .L0 
     /tmp/ccMn1XFx.s:437    .text:0000000000000290 .L0 
     /tmp/ccMn1XFx.s:439    .text:0000000000000294 .L0 
     /tmp/ccMn1XFx.s:441    .text:0000000000000298 .L0 
     /tmp/ccMn1XFx.s:443    .text:000000000000029c .L0 
     /tmp/ccMn1XFx.s:444    .text:000000000000029c .L0 
     /tmp/ccMn1XFx.s:446    .text:00000000000002a0 .L0 
     /tmp/ccMn1XFx.s:447    .text:00000000000002a0 .L0 
     /tmp/ccMn1XFx.s:451    .text:00000000000002a8 .L0 
     /tmp/ccMn1XFx.s:452    .text:00000000000002a8 .L0 
     /tmp/ccMn1XFx.s:453    .text:00000000000002a8 .L0 
     /tmp/ccMn1XFx.s:455    .text:00000000000002ac .L0 
     /tmp/ccMn1XFx.s:457    .text:00000000000002b0 .L0 
     /tmp/ccMn1XFx.s:461    .text:00000000000002bc .L0 
     /tmp/ccMn1XFx.s:463    .text:00000000000002c0 .L0 
     /tmp/ccMn1XFx.s:465    .text:00000000000002c4 .L0 
     /tmp/ccMn1XFx.s:466    .text:00000000000002c4 .L0 
     /tmp/ccMn1XFx.s:469    .text:00000000000002cc .L0 
     /tmp/ccMn1XFx.s:475    .text:00000000000002d0 .L0 
     /tmp/ccMn1XFx.s:487    .text:00000000000002f0 .L0 
     /tmp/ccMn1XFx.s:488    .text:00000000000002f0 .L0 
     /tmp/ccMn1XFx.s:491    .text:00000000000002f8 .L0 
     /tmp/ccMn1XFx.s:494    .text:00000000000002fc .L0 
     /tmp/ccMn1XFx.s:495    .text:00000000000002fc .L0 
     /tmp/ccMn1XFx.s:497    .text:0000000000000300 .L0 
     /tmp/ccMn1XFx.s:498    .text:0000000000000300 .L0 
     /tmp/ccMn1XFx.s:502    .text:000000000000030c .L0 
     /tmp/ccMn1XFx.s:503    .text:000000000000030c .L0 
     /tmp/ccMn1XFx.s:507    .text:000000000000031c .L0 
     /tmp/ccMn1XFx.s:508    .text:000000000000031c .L0 
     /tmp/ccMn1XFx.s:512    .text:0000000000000320 .L0 
     /tmp/ccMn1XFx.s:513    .text:0000000000000320 .L0 
     /tmp/ccMn1XFx.s:515    .text:0000000000000328 .L0 
     /tmp/ccMn1XFx.s:516    .text:0000000000000328 .L0 
     /tmp/ccMn1XFx.s:518    .text:000000000000032c .L0 
     /tmp/ccMn1XFx.s:519    .text:000000000000032c .L0 
     /tmp/ccMn1XFx.s:521    .text:0000000000000330 .L0 
     /tmp/ccMn1XFx.s:523    .text:0000000000000334 .L0 
     /tmp/ccMn1XFx.s:526    .text:0000000000000338 .L0 
     /tmp/ccMn1XFx.s:529    .text:000000000000033c .L0 
     /tmp/ccMn1XFx.s:532    .text:0000000000000340 .L0 
     /tmp/ccMn1XFx.s:535    .text:0000000000000344 .L0 
     /tmp/ccMn1XFx.s:539    .text:0000000000000348 .L0 
     /tmp/ccMn1XFx.s:542    .text:0000000000000348 .L0 
     /tmp/ccMn1XFx.s:545    .text:0000000000000350 .L0 
     /tmp/ccMn1XFx.s:551    .text:0000000000000350 _ZN12kmem_cache_s15kmem_cache_freeEPv
     /tmp/ccMn1XFx.s:554    .text:0000000000000350 .L0 
     /tmp/ccMn1XFx.s:556    .text:0000000000000350 .L0 
     /tmp/ccMn1XFx.s:557    .text:0000000000000354 .L0 
     /tmp/ccMn1XFx.s:564    .text:000000000000036c .L0 
     /tmp/ccMn1XFx.s:565    .text:000000000000036c .L0 
     /tmp/ccMn1XFx.s:566    .text:000000000000036c .L0 
     /tmp/ccMn1XFx.s:567    .text:000000000000036c .L0 
GAS LISTING /tmp/ccMn1XFx.s 			page 68


     /tmp/ccMn1XFx.s:568    .text:000000000000036c .L0 
     /tmp/ccMn1XFx.s:569    .text:000000000000036c .L0 
     /tmp/ccMn1XFx.s:571    .text:0000000000000370 .L0 
     /tmp/ccMn1XFx.s:576    .text:0000000000000378 .L0 
     /tmp/ccMn1XFx.s:578    .text:0000000000000378 .L0 
     /tmp/ccMn1XFx.s:579    .text:0000000000000378 .L0 
     /tmp/ccMn1XFx.s:583    .text:000000000000037c .L0 
     /tmp/ccMn1XFx.s:592    .text:0000000000000384 .L0 
     /tmp/ccMn1XFx.s:593    .text:0000000000000384 .L0 
     /tmp/ccMn1XFx.s:596    .text:0000000000000388 .L0 
     /tmp/ccMn1XFx.s:605    .text:0000000000000390 .L0 
     /tmp/ccMn1XFx.s:607    .text:0000000000000390 .L0 
     /tmp/ccMn1XFx.s:608    .text:0000000000000390 .L0 
     /tmp/ccMn1XFx.s:611    .text:0000000000000394 .L0 
     /tmp/ccMn1XFx.s:615    .text:0000000000000398 .L0 
     /tmp/ccMn1XFx.s:619    .text:000000000000039c .L0 
     /tmp/ccMn1XFx.s:621    .text:00000000000003a0 .L0 
     /tmp/ccMn1XFx.s:623    .text:00000000000003a4 .L0 
     /tmp/ccMn1XFx.s:625    .text:00000000000003a8 .L0 
     /tmp/ccMn1XFx.s:627    .text:00000000000003ac .L0 
     /tmp/ccMn1XFx.s:629    .text:00000000000003b0 .L0 
     /tmp/ccMn1XFx.s:632    .text:00000000000003b4 .L0 
     /tmp/ccMn1XFx.s:633    .text:00000000000003b4 .L0 
     /tmp/ccMn1XFx.s:635    .text:00000000000003b8 .L0 
     /tmp/ccMn1XFx.s:637    .text:00000000000003bc .L0 
     /tmp/ccMn1XFx.s:639    .text:00000000000003c0 .L0 
     /tmp/ccMn1XFx.s:642    .text:00000000000003c4 .L0 
     /tmp/ccMn1XFx.s:643    .text:00000000000003c4 .L0 
     /tmp/ccMn1XFx.s:645    .text:00000000000003c8 .L0 
     /tmp/ccMn1XFx.s:648    .text:00000000000003cc .L0 
     /tmp/ccMn1XFx.s:651    .text:00000000000003d0 .L0 
     /tmp/ccMn1XFx.s:652    .text:00000000000003d0 .L0 
     /tmp/ccMn1XFx.s:654    .text:00000000000003d4 .L0 
     /tmp/ccMn1XFx.s:656    .text:00000000000003d8 .L0 
     /tmp/ccMn1XFx.s:657    .text:00000000000003d8 .L0 
     /tmp/ccMn1XFx.s:663    .text:00000000000003e0 .L0 
     /tmp/ccMn1XFx.s:664    .text:00000000000003e0 .L0 
     /tmp/ccMn1XFx.s:666    .text:00000000000003e4 .L0 
     /tmp/ccMn1XFx.s:668    .text:00000000000003e8 .L0 
     /tmp/ccMn1XFx.s:669    .text:00000000000003e8 .L0 
     /tmp/ccMn1XFx.s:674    .text:00000000000003f0 .L0 
     /tmp/ccMn1XFx.s:675    .text:00000000000003f0 .L0 
     /tmp/ccMn1XFx.s:677    .text:00000000000003f4 .L0 
     /tmp/ccMn1XFx.s:684    .text:00000000000003fc .L0 
     /tmp/ccMn1XFx.s:685    .text:00000000000003fc .L0 
     /tmp/ccMn1XFx.s:687    .text:0000000000000400 .L0 
     /tmp/ccMn1XFx.s:697    .text:0000000000000408 .L0 
     /tmp/ccMn1XFx.s:702    .text:0000000000000408 .L0 
     /tmp/ccMn1XFx.s:703    .text:0000000000000408 .L0 
     /tmp/ccMn1XFx.s:705    .text:000000000000040c .L0 
     /tmp/ccMn1XFx.s:707    .text:0000000000000410 .L0 
     /tmp/ccMn1XFx.s:708    .text:0000000000000410 .L0 
     /tmp/ccMn1XFx.s:711    .text:0000000000000414 .L0 
     /tmp/ccMn1XFx.s:715    .text:0000000000000418 .L0 
     /tmp/ccMn1XFx.s:716    .text:0000000000000418 .L0 
     /tmp/ccMn1XFx.s:718    .text:000000000000041c .L0 
     /tmp/ccMn1XFx.s:720    .text:0000000000000420 .L0 
GAS LISTING /tmp/ccMn1XFx.s 			page 69


     /tmp/ccMn1XFx.s:721    .text:0000000000000420 .L0 
     /tmp/ccMn1XFx.s:723    .text:0000000000000424 .L0 
     /tmp/ccMn1XFx.s:724    .text:0000000000000424 .L0 
     /tmp/ccMn1XFx.s:726    .text:0000000000000428 .L0 
     /tmp/ccMn1XFx.s:729    .text:0000000000000430 .L0 
     /tmp/ccMn1XFx.s:730    .text:0000000000000430 .L0 
     /tmp/ccMn1XFx.s:732    .text:0000000000000434 .L0 
     /tmp/ccMn1XFx.s:736    .text:000000000000043c .L0 
     /tmp/ccMn1XFx.s:737    .text:000000000000043c .L0 
     /tmp/ccMn1XFx.s:746    .text:0000000000000444 .L0 
     /tmp/ccMn1XFx.s:748    .text:0000000000000444 .L0 
     /tmp/ccMn1XFx.s:749    .text:0000000000000444 .L0 
     /tmp/ccMn1XFx.s:758    .text:000000000000044c .L0 
     /tmp/ccMn1XFx.s:759    .text:000000000000044c .L0 
     /tmp/ccMn1XFx.s:761    .text:0000000000000450 .L0 
     /tmp/ccMn1XFx.s:769    .text:0000000000000458 .L0 
     /tmp/ccMn1XFx.s:771    .text:0000000000000458 .L0 
     /tmp/ccMn1XFx.s:772    .text:0000000000000458 .L0 
     /tmp/ccMn1XFx.s:775    .text:000000000000045c .L0 
     /tmp/ccMn1XFx.s:779    .text:0000000000000460 .L0 
     /tmp/ccMn1XFx.s:783    .text:0000000000000464 .L0 
     /tmp/ccMn1XFx.s:785    .text:0000000000000468 .L0 
     /tmp/ccMn1XFx.s:787    .text:000000000000046c .L0 
     /tmp/ccMn1XFx.s:789    .text:0000000000000470 .L0 
     /tmp/ccMn1XFx.s:791    .text:0000000000000474 .L0 
     /tmp/ccMn1XFx.s:793    .text:0000000000000478 .L0 
     /tmp/ccMn1XFx.s:796    .text:000000000000047c .L0 
     /tmp/ccMn1XFx.s:797    .text:000000000000047c .L0 
     /tmp/ccMn1XFx.s:799    .text:0000000000000480 .L0 
     /tmp/ccMn1XFx.s:801    .text:0000000000000484 .L0 
     /tmp/ccMn1XFx.s:803    .text:0000000000000488 .L0 
     /tmp/ccMn1XFx.s:806    .text:000000000000048c .L0 
     /tmp/ccMn1XFx.s:807    .text:000000000000048c .L0 
     /tmp/ccMn1XFx.s:809    .text:0000000000000490 .L0 
     /tmp/ccMn1XFx.s:812    .text:0000000000000494 .L0 
     /tmp/ccMn1XFx.s:815    .text:0000000000000498 .L0 
     /tmp/ccMn1XFx.s:816    .text:0000000000000498 .L0 
     /tmp/ccMn1XFx.s:818    .text:000000000000049c .L0 
     /tmp/ccMn1XFx.s:820    .text:00000000000004a0 .L0 
     /tmp/ccMn1XFx.s:821    .text:00000000000004a0 .L0 
     /tmp/ccMn1XFx.s:827    .text:00000000000004a8 .L0 
     /tmp/ccMn1XFx.s:828    .text:00000000000004a8 .L0 
     /tmp/ccMn1XFx.s:830    .text:00000000000004ac .L0 
     /tmp/ccMn1XFx.s:832    .text:00000000000004b0 .L0 
     /tmp/ccMn1XFx.s:833    .text:00000000000004b0 .L0 
     /tmp/ccMn1XFx.s:838    .text:00000000000004b8 .L0 
     /tmp/ccMn1XFx.s:839    .text:00000000000004b8 .L0 
     /tmp/ccMn1XFx.s:841    .text:00000000000004bc .L0 
     /tmp/ccMn1XFx.s:847    .text:00000000000004c4 .L0 
     /tmp/ccMn1XFx.s:848    .text:00000000000004c4 .L0 
     /tmp/ccMn1XFx.s:850    .text:00000000000004c8 .L0 
     /tmp/ccMn1XFx.s:856    .text:00000000000004d0 .L0 
     /tmp/ccMn1XFx.s:858    .text:00000000000004d4 .L0 
     /tmp/ccMn1XFx.s:859    .text:00000000000004d4 .L0 
     /tmp/ccMn1XFx.s:861    .text:00000000000004d8 .L0 
     /tmp/ccMn1XFx.s:864    .text:00000000000004dc .L0 
     /tmp/ccMn1XFx.s:865    .text:00000000000004dc .L0 
GAS LISTING /tmp/ccMn1XFx.s 			page 70


     /tmp/ccMn1XFx.s:867    .text:00000000000004e0 .L0 
     /tmp/ccMn1XFx.s:869    .text:00000000000004e4 .L0 
     /tmp/ccMn1XFx.s:870    .text:00000000000004e4 .L0 
     /tmp/ccMn1XFx.s:872    .text:00000000000004e8 .L0 
     /tmp/ccMn1XFx.s:873    .text:00000000000004e8 .L0 
     /tmp/ccMn1XFx.s:875    .text:00000000000004ec .L0 
     /tmp/ccMn1XFx.s:878    .text:00000000000004f4 .L0 
     /tmp/ccMn1XFx.s:879    .text:00000000000004f4 .L0 
     /tmp/ccMn1XFx.s:881    .text:00000000000004f8 .L0 
     /tmp/ccMn1XFx.s:884    .text:0000000000000500 .L0 
     /tmp/ccMn1XFx.s:885    .text:0000000000000500 .L0 
     /tmp/ccMn1XFx.s:894    .text:0000000000000508 .L0 
     /tmp/ccMn1XFx.s:898    .text:000000000000050c .L0 
     /tmp/ccMn1XFx.s:899    .text:0000000000000510 .L0 
     /tmp/ccMn1XFx.s:901    .text:0000000000000514 .L0 
     /tmp/ccMn1XFx.s:902    .text:0000000000000514 .L0 
     /tmp/ccMn1XFx.s:904    .text:0000000000000518 .L0 
     /tmp/ccMn1XFx.s:906    .text:000000000000051c .L0 
     /tmp/ccMn1XFx.s:908    .text:0000000000000520 .L0 
     /tmp/ccMn1XFx.s:911    .text:0000000000000524 .L0 
     /tmp/ccMn1XFx.s:914    .text:0000000000000528 .L0 
     /tmp/ccMn1XFx.s:916    .text:000000000000052c .L0 
     /tmp/ccMn1XFx.s:922    .text:000000000000052c _ZN12kmem_cache_s20check_if_name_existsEPKc
     /tmp/ccMn1XFx.s:925    .text:000000000000052c .L0 
     /tmp/ccMn1XFx.s:927    .text:000000000000052c .L0 
     /tmp/ccMn1XFx.s:928    .text:0000000000000530 .L0 
     /tmp/ccMn1XFx.s:933    .text:0000000000000540 .L0 
     /tmp/ccMn1XFx.s:934    .text:0000000000000540 .L0 
     /tmp/ccMn1XFx.s:935    .text:0000000000000540 .L0 
     /tmp/ccMn1XFx.s:936    .text:0000000000000540 .L0 
     /tmp/ccMn1XFx.s:938    .text:0000000000000544 .L0 
     /tmp/ccMn1XFx.s:942    .text:0000000000000548 .L0 
     /tmp/ccMn1XFx.s:943    .text:0000000000000548 .L0 
     /tmp/ccMn1XFx.s:947    .text:0000000000000550 .L0 
     /tmp/ccMn1XFx.s:949    .text:0000000000000554 .L0 
     /tmp/ccMn1XFx.s:950    .text:0000000000000554 .L0 
     /tmp/ccMn1XFx.s:955    .text:0000000000000564 .L0 
     /tmp/ccMn1XFx.s:957    .text:0000000000000568 .L0 
     /tmp/ccMn1XFx.s:958    .text:0000000000000568 .L0 
     /tmp/ccMn1XFx.s:961    .text:000000000000056c .L0 
     /tmp/ccMn1XFx.s:965    .text:0000000000000570 .L0 
     /tmp/ccMn1XFx.s:967    .text:0000000000000578 .L0 
     /tmp/ccMn1XFx.s:969    .text:000000000000057c .L0 
     /tmp/ccMn1XFx.s:970    .text:000000000000057c .L0 
     /tmp/ccMn1XFx.s:972    .text:0000000000000580 .L0 
     /tmp/ccMn1XFx.s:975    .text:0000000000000584 .L0 
     /tmp/ccMn1XFx.s:978    .text:0000000000000588 .L0 
     /tmp/ccMn1XFx.s:980    .text:000000000000058c .L0 
     /tmp/ccMn1XFx.s:986    .text:000000000000058c _ZN12kmem_cache_s3powEm
     /tmp/ccMn1XFx.s:989    .text:000000000000058c .L0 
     /tmp/ccMn1XFx.s:991    .text:000000000000058c .L0 
     /tmp/ccMn1XFx.s:992    .text:0000000000000590 .L0 
     /tmp/ccMn1XFx.s:994    .text:0000000000000594 .L0 
     /tmp/ccMn1XFx.s:996    .text:0000000000000598 .L0 
     /tmp/ccMn1XFx.s:1000   .text:000000000000059c .L0 
     /tmp/ccMn1XFx.s:1002   .text:000000000000059c .L0 
     /tmp/ccMn1XFx.s:1003   .text:000000000000059c .L0 
GAS LISTING /tmp/ccMn1XFx.s 			page 71


     /tmp/ccMn1XFx.s:1006   .text:00000000000005a0 .L0 
     /tmp/ccMn1XFx.s:1011   .text:00000000000005a4 .L0 
     /tmp/ccMn1XFx.s:1013   .text:00000000000005a8 .L0 
     /tmp/ccMn1XFx.s:1014   .text:00000000000005a8 .L0 
     /tmp/ccMn1XFx.s:1017   .text:00000000000005ac .L0 
     /tmp/ccMn1XFx.s:1023   .text:00000000000005b4 .L0 
     /tmp/ccMn1XFx.s:1024   .text:00000000000005b8 .L0 
     /tmp/ccMn1XFx.s:1025   .text:00000000000005b8 .L0 
     /tmp/ccMn1XFx.s:1027   .text:00000000000005bc .L0 
     /tmp/ccMn1XFx.s:1029   .text:00000000000005c0 .L0 
     /tmp/ccMn1XFx.s:1035   .text:00000000000005c0 _ZN12kmem_cache_s28is_small_buffer_size_correctEm
     /tmp/ccMn1XFx.s:1038   .text:00000000000005c0 .L0 
     /tmp/ccMn1XFx.s:1040   .text:00000000000005c0 .L0 
     /tmp/ccMn1XFx.s:1041   .text:00000000000005c4 .L0 
     /tmp/ccMn1XFx.s:1043   .text:00000000000005c8 .L0 
     /tmp/ccMn1XFx.s:1045   .text:00000000000005cc .L0 
     /tmp/ccMn1XFx.s:1048   .text:00000000000005cc .L0 
     /tmp/ccMn1XFx.s:1049   .text:00000000000005cc .L0 
     /tmp/ccMn1XFx.s:1050   .text:00000000000005cc .L0 
     /tmp/ccMn1XFx.s:1052   .text:00000000000005d0 .L0 
     /tmp/ccMn1XFx.s:1057   .text:00000000000005d8 .L0 
     /tmp/ccMn1XFx.s:1061   .text:00000000000005dc .L0 
     /tmp/ccMn1XFx.s:1062   .text:00000000000005dc .L0 
     /tmp/ccMn1XFx.s:1064   .text:00000000000005e0 .L0 
     /tmp/ccMn1XFx.s:1065   .text:00000000000005e0 .L0 
     /tmp/ccMn1XFx.s:1068   .text:00000000000005e4 .L0 
     /tmp/ccMn1XFx.s:1069   .text:00000000000005e4 .L0 
     /tmp/ccMn1XFx.s:1072   .text:00000000000005e8 .L0 
     /tmp/ccMn1XFx.s:1074   .text:00000000000005ec .L0 
     /tmp/ccMn1XFx.s:1075   .text:00000000000005ec .L0 
     /tmp/ccMn1XFx.s:1077   .text:00000000000005f0 .L0 
     /tmp/ccMn1XFx.s:1081   .text:00000000000005f8 .L0 
     /tmp/ccMn1XFx.s:1087   .text:0000000000000600 .L0 
     /tmp/ccMn1XFx.s:1091   .text:0000000000000604 .L0 
     /tmp/ccMn1XFx.s:1092   .text:0000000000000608 .L0 
     /tmp/ccMn1XFx.s:1093   .text:0000000000000608 .L0 
     /tmp/ccMn1XFx.s:1094   .text:0000000000000608 .L0 
     /tmp/ccMn1XFx.s:1096   .text:000000000000060c .L0 
     /tmp/ccMn1XFx.s:1100   .text:0000000000000610 .L0 
     /tmp/ccMn1XFx.s:1102   .text:0000000000000610 .L0 
     /tmp/ccMn1XFx.s:1105   .text:0000000000000618 .L0 
     /tmp/ccMn1XFx.s:1111   .text:0000000000000618 _ZN12kmem_cache_s5kfreeEPKv
     /tmp/ccMn1XFx.s:1114   .text:0000000000000618 .L0 
     /tmp/ccMn1XFx.s:1116   .text:0000000000000618 .L0 
     /tmp/ccMn1XFx.s:1117   .text:000000000000061c .L0 
     /tmp/ccMn1XFx.s:1122   .text:000000000000062c .L0 
     /tmp/ccMn1XFx.s:1123   .text:000000000000062c .L0 
     /tmp/ccMn1XFx.s:1124   .text:000000000000062c .L0 
     /tmp/ccMn1XFx.s:1125   .text:000000000000062c .L0 
     /tmp/ccMn1XFx.s:1127   .text:0000000000000630 .L0 
     /tmp/ccMn1XFx.s:1131   .text:0000000000000634 .L0 
     /tmp/ccMn1XFx.s:1132   .text:0000000000000634 .L0 
     /tmp/ccMn1XFx.s:1136   .text:000000000000063c .L0 
     /tmp/ccMn1XFx.s:1138   .text:0000000000000640 .L0 
     /tmp/ccMn1XFx.s:1139   .text:0000000000000640 .L0 
     /tmp/ccMn1XFx.s:1144   .text:0000000000000650 .L0 
     /tmp/ccMn1XFx.s:1146   .text:0000000000000654 .L0 
GAS LISTING /tmp/ccMn1XFx.s 			page 72


     /tmp/ccMn1XFx.s:1147   .text:0000000000000654 .L0 
     /tmp/ccMn1XFx.s:1150   .text:0000000000000658 .L0 
     /tmp/ccMn1XFx.s:1154   .text:000000000000065c .L0 
     /tmp/ccMn1XFx.s:1157   .text:0000000000000660 .L0 
     /tmp/ccMn1XFx.s:1158   .text:0000000000000664 .L0 
     /tmp/ccMn1XFx.s:1160   .text:0000000000000668 .L0 
     /tmp/ccMn1XFx.s:1161   .text:0000000000000668 .L0 
     /tmp/ccMn1XFx.s:1163   .text:000000000000066c .L0 
     /tmp/ccMn1XFx.s:1166   .text:0000000000000670 .L0 
     /tmp/ccMn1XFx.s:1169   .text:0000000000000674 .L0 
     /tmp/ccMn1XFx.s:1171   .text:0000000000000678 .L0 
     /tmp/ccMn1XFx.s:1236   .text:0000000000000678 _ZN12kmem_cache_s15kmem_cache_infoEv
     /tmp/ccMn1XFx.s:1239   .text:0000000000000678 .L0 
     /tmp/ccMn1XFx.s:1241   .text:0000000000000678 .L0 
     /tmp/ccMn1XFx.s:1242   .text:000000000000067c .L0 
     /tmp/ccMn1XFx.s:1249   .text:0000000000000694 .L0 
     /tmp/ccMn1XFx.s:1250   .text:0000000000000694 .L0 
     /tmp/ccMn1XFx.s:1251   .text:0000000000000694 .L0 
     /tmp/ccMn1XFx.s:1252   .text:0000000000000694 .L0 
     /tmp/ccMn1XFx.s:1253   .text:0000000000000694 .L0 
     /tmp/ccMn1XFx.s:1254   .text:0000000000000694 .L0 
     /tmp/ccMn1XFx.s:1256   .text:0000000000000698 .L0 
     /tmp/ccMn1XFx.s:1259   .text:000000000000069c .L0 
     /tmp/ccMn1XFx.s:1260   .text:000000000000069c .L0 
     /tmp/ccMn1XFx.s:1265   .text:00000000000006ac .L0 
     /tmp/ccMn1XFx.s:1266   .text:00000000000006ac .L0 
     /tmp/ccMn1XFx.s:1270   .text:00000000000006bc .L0 
     /tmp/ccMn1XFx.s:1271   .text:00000000000006bc .L0 
     /tmp/ccMn1XFx.s:1275   .text:00000000000006c8 .L0 
     /tmp/ccMn1XFx.s:1276   .text:00000000000006c8 .L0 
     /tmp/ccMn1XFx.s:1280   .text:00000000000006d8 .L0 
     /tmp/ccMn1XFx.s:1281   .text:00000000000006d8 .L0 
     /tmp/ccMn1XFx.s:1285   .text:00000000000006e8 .L0 
     /tmp/ccMn1XFx.s:1286   .text:00000000000006e8 .L0 
     /tmp/ccMn1XFx.s:1292   .text:00000000000006fc .L0 
     /tmp/ccMn1XFx.s:1293   .text:00000000000006fc .L0 
     /tmp/ccMn1XFx.s:1297   .text:000000000000070c .L0 
     /tmp/ccMn1XFx.s:1298   .text:000000000000070c .L0 
     /tmp/ccMn1XFx.s:1300   .text:0000000000000710 .L0 
     /tmp/ccMn1XFx.s:1302   .text:0000000000000714 .L0 
     /tmp/ccMn1XFx.s:1304   .text:0000000000000718 .L0 
     /tmp/ccMn1XFx.s:1306   .text:000000000000071c .L0 
     /tmp/ccMn1XFx.s:1309   .text:0000000000000720 .L0 
     /tmp/ccMn1XFx.s:1310   .text:0000000000000720 .L0 
     /tmp/ccMn1XFx.s:1312   .text:0000000000000724 .L0 
     /tmp/ccMn1XFx.s:1314   .text:0000000000000728 .L0 
     /tmp/ccMn1XFx.s:1317   .text:000000000000072c .L0 
     /tmp/ccMn1XFx.s:1318   .text:000000000000072c .L0 
     /tmp/ccMn1XFx.s:1322   .text:000000000000073c .L0 
     /tmp/ccMn1XFx.s:1323   .text:000000000000073c .L0 
     /tmp/ccMn1XFx.s:1329   .text:0000000000000750 .L0 
     /tmp/ccMn1XFx.s:1330   .text:0000000000000750 .L0 
     /tmp/ccMn1XFx.s:1334   .text:0000000000000760 .L0 
     /tmp/ccMn1XFx.s:1335   .text:0000000000000760 .L0 
     /tmp/ccMn1XFx.s:1339   .text:0000000000000770 .L0 
     /tmp/ccMn1XFx.s:1340   .text:0000000000000770 .L0 
     /tmp/ccMn1XFx.s:1346   .text:0000000000000784 .L0 
GAS LISTING /tmp/ccMn1XFx.s 			page 73


     /tmp/ccMn1XFx.s:1347   .text:0000000000000784 .L0 
     /tmp/ccMn1XFx.s:1351   .text:0000000000000794 .L0 
     /tmp/ccMn1XFx.s:1352   .text:0000000000000794 .L0 
     /tmp/ccMn1XFx.s:1356   .text:00000000000007a4 .L0 
     /tmp/ccMn1XFx.s:1357   .text:00000000000007a4 .L0 
     /tmp/ccMn1XFx.s:1363   .text:00000000000007b8 .L0 
     /tmp/ccMn1XFx.s:1364   .text:00000000000007b8 .L0 
     /tmp/ccMn1XFx.s:1368   .text:00000000000007c8 .L0 
     /tmp/ccMn1XFx.s:1369   .text:00000000000007c8 .L0 
     /tmp/ccMn1XFx.s:1373   .text:00000000000007d8 .L0 
     /tmp/ccMn1XFx.s:1374   .text:00000000000007d8 .L0 
     /tmp/ccMn1XFx.s:1380   .text:00000000000007ec .L0 
     /tmp/ccMn1XFx.s:1381   .text:00000000000007ec .L0 
     /tmp/ccMn1XFx.s:1385   .text:00000000000007fc .L0 
     /tmp/ccMn1XFx.s:1386   .text:00000000000007fc .L0 
     /tmp/ccMn1XFx.s:1391   .text:000000000000080c .L0 
     /tmp/ccMn1XFx.s:1392   .text:000000000000080c .L0 
     /tmp/ccMn1XFx.s:1396   .text:0000000000000810 .L0 
     /tmp/ccMn1XFx.s:1401   .text:0000000000000814 .L0 
     /tmp/ccMn1XFx.s:1404   .text:0000000000000814 .L0 
     /tmp/ccMn1XFx.s:1405   .text:0000000000000814 .L0 
     /tmp/ccMn1XFx.s:1411   .text:0000000000000828 .L0 
     /tmp/ccMn1XFx.s:1412   .text:0000000000000828 .L0 
     /tmp/ccMn1XFx.s:1416   .text:0000000000000838 .L0 
     /tmp/ccMn1XFx.s:1417   .text:0000000000000838 .L0 
     /tmp/ccMn1XFx.s:1420   .text:000000000000083c .L0 
     /tmp/ccMn1XFx.s:1424   .text:0000000000000840 .L0 
     /tmp/ccMn1XFx.s:1425   .text:0000000000000840 .L0 
     /tmp/ccMn1XFx.s:1429   .text:0000000000000850 .L0 
     /tmp/ccMn1XFx.s:1430   .text:0000000000000850 .L0 
     /tmp/ccMn1XFx.s:1435   .text:0000000000000860 .L0 
     /tmp/ccMn1XFx.s:1436   .text:0000000000000860 .L0 
     /tmp/ccMn1XFx.s:1440   .text:0000000000000864 .L0 
     /tmp/ccMn1XFx.s:1445   .text:0000000000000868 .L0 
     /tmp/ccMn1XFx.s:1448   .text:0000000000000868 .L0 
     /tmp/ccMn1XFx.s:1449   .text:0000000000000868 .L0 
     /tmp/ccMn1XFx.s:1455   .text:000000000000087c .L0 
     /tmp/ccMn1XFx.s:1456   .text:000000000000087c .L0 
     /tmp/ccMn1XFx.s:1460   .text:000000000000088c .L0 
     /tmp/ccMn1XFx.s:1461   .text:000000000000088c .L0 
     /tmp/ccMn1XFx.s:1464   .text:0000000000000890 .L0 
     /tmp/ccMn1XFx.s:1468   .text:0000000000000894 .L0 
     /tmp/ccMn1XFx.s:1469   .text:0000000000000894 .L0 
     /tmp/ccMn1XFx.s:1473   .text:00000000000008a4 .L0 
     /tmp/ccMn1XFx.s:1474   .text:00000000000008a4 .L0 
     /tmp/ccMn1XFx.s:1479   .text:00000000000008b4 .L0 
     /tmp/ccMn1XFx.s:1480   .text:00000000000008b4 .L0 
     /tmp/ccMn1XFx.s:1484   .text:00000000000008b8 .L0 
     /tmp/ccMn1XFx.s:1489   .text:00000000000008bc .L0 
     /tmp/ccMn1XFx.s:1492   .text:00000000000008bc .L0 
     /tmp/ccMn1XFx.s:1493   .text:00000000000008bc .L0 
     /tmp/ccMn1XFx.s:1499   .text:00000000000008d0 .L0 
     /tmp/ccMn1XFx.s:1500   .text:00000000000008d0 .L0 
     /tmp/ccMn1XFx.s:1504   .text:00000000000008e0 .L0 
     /tmp/ccMn1XFx.s:1505   .text:00000000000008e0 .L0 
     /tmp/ccMn1XFx.s:1508   .text:00000000000008e4 .L0 
     /tmp/ccMn1XFx.s:1512   .text:00000000000008e8 .L0 
GAS LISTING /tmp/ccMn1XFx.s 			page 74


     /tmp/ccMn1XFx.s:1513   .text:00000000000008e8 .L0 
     /tmp/ccMn1XFx.s:1517   .text:00000000000008f8 .L0 
     /tmp/ccMn1XFx.s:1518   .text:00000000000008f8 .L0 
     /tmp/ccMn1XFx.s:1522   .text:0000000000000908 .L0 
     /tmp/ccMn1XFx.s:1523   .text:0000000000000908 .L0 
     /tmp/ccMn1XFx.s:1529   .text:000000000000091c .L0 
     /tmp/ccMn1XFx.s:1530   .text:000000000000091c .L0 
     /tmp/ccMn1XFx.s:1534   .text:000000000000092c .L0 
     /tmp/ccMn1XFx.s:1535   .text:000000000000092c .L0 
     /tmp/ccMn1XFx.s:1539   .text:000000000000093c .L0 
     /tmp/ccMn1XFx.s:1540   .text:000000000000093c .L0 
     /tmp/ccMn1XFx.s:1546   .text:0000000000000950 .L0 
     /tmp/ccMn1XFx.s:1547   .text:0000000000000950 .L0 
     /tmp/ccMn1XFx.s:1551   .text:0000000000000960 .L0 
     /tmp/ccMn1XFx.s:1552   .text:0000000000000960 .L0 
     /tmp/ccMn1XFx.s:1556   .text:0000000000000970 .L0 
     /tmp/ccMn1XFx.s:1557   .text:0000000000000970 .L0 
     /tmp/ccMn1XFx.s:1563   .text:0000000000000984 .L0 
     /tmp/ccMn1XFx.s:1564   .text:0000000000000984 .L0 
     /tmp/ccMn1XFx.s:1568   .text:0000000000000994 .L0 
     /tmp/ccMn1XFx.s:1569   .text:0000000000000994 .L0 
     /tmp/ccMn1XFx.s:1572   .text:000000000000099c .L0 
     /tmp/ccMn1XFx.s:1574   .text:00000000000009a0 .L0 
     /tmp/ccMn1XFx.s:1576   .text:00000000000009a4 .L0 
     /tmp/ccMn1XFx.s:1578   .text:00000000000009a8 .L0 
     /tmp/ccMn1XFx.s:1581   .text:00000000000009ac .L0 
     /tmp/ccMn1XFx.s:1582   .text:00000000000009ac .L0 
     /tmp/ccMn1XFx.s:1585   .text:00000000000009b0 .L0 
     /tmp/ccMn1XFx.s:1587   .text:00000000000009b4 .L0 
     /tmp/ccMn1XFx.s:1589   .text:00000000000009b8 .L0 
     /tmp/ccMn1XFx.s:1592   .text:00000000000009bc .L0 
     /tmp/ccMn1XFx.s:1593   .text:00000000000009bc .L0 
     /tmp/ccMn1XFx.s:1597   .text:00000000000009cc .L0 
     /tmp/ccMn1XFx.s:1598   .text:00000000000009cc .L0 
     /tmp/ccMn1XFx.s:1604   .text:00000000000009e0 .L0 
     /tmp/ccMn1XFx.s:1605   .text:00000000000009e0 .L0 
     /tmp/ccMn1XFx.s:1609   .text:00000000000009f0 .L0 
     /tmp/ccMn1XFx.s:1610   .text:00000000000009f0 .L0 
     /tmp/ccMn1XFx.s:1616   .text:0000000000000a04 .L0 
     /tmp/ccMn1XFx.s:1617   .text:0000000000000a04 .L0 
     /tmp/ccMn1XFx.s:1621   .text:0000000000000a14 .L0 
     /tmp/ccMn1XFx.s:1622   .text:0000000000000a14 .L0 
     /tmp/ccMn1XFx.s:1626   .text:0000000000000a24 .L0 
     /tmp/ccMn1XFx.s:1627   .text:0000000000000a24 .L0 
     /tmp/ccMn1XFx.s:1629   .text:0000000000000a28 .L0 
     /tmp/ccMn1XFx.s:1631   .text:0000000000000a2c .L0 
     /tmp/ccMn1XFx.s:1637   .text:0000000000000a40 .L0 
     /tmp/ccMn1XFx.s:1638   .text:0000000000000a40 .L0 
     /tmp/ccMn1XFx.s:1642   .text:0000000000000a50 .L0 
     /tmp/ccMn1XFx.s:1643   .text:0000000000000a50 .L0 
     /tmp/ccMn1XFx.s:1645   .text:0000000000000a54 .L0 
     /tmp/ccMn1XFx.s:1647   .text:0000000000000a58 .L0 
     /tmp/ccMn1XFx.s:1650   .text:0000000000000a60 .L0 
     /tmp/ccMn1XFx.s:1653   .text:0000000000000a64 .L0 
     /tmp/ccMn1XFx.s:1654   .text:0000000000000a64 .L0 
     /tmp/ccMn1XFx.s:1661   .text:0000000000000a78 .L0 
     /tmp/ccMn1XFx.s:1662   .text:0000000000000a78 .L0 
GAS LISTING /tmp/ccMn1XFx.s 			page 75


     /tmp/ccMn1XFx.s:1666   .text:0000000000000a88 .L0 
     /tmp/ccMn1XFx.s:1667   .text:0000000000000a88 .L0 
     /tmp/ccMn1XFx.s:1671   .text:0000000000000a98 .L0 
     /tmp/ccMn1XFx.s:1672   .text:0000000000000a9c .L0 
     /tmp/ccMn1XFx.s:1674   .text:0000000000000aa0 .L0 
     /tmp/ccMn1XFx.s:1675   .text:0000000000000aa0 .L0 
     /tmp/ccMn1XFx.s:1677   .text:0000000000000aa4 .L0 
     /tmp/ccMn1XFx.s:1680   .text:0000000000000aa8 .L0 
     /tmp/ccMn1XFx.s:1683   .text:0000000000000aac .L0 
     /tmp/ccMn1XFx.s:1686   .text:0000000000000ab0 .L0 
     /tmp/ccMn1XFx.s:1689   .text:0000000000000ab4 .L0 
     /tmp/ccMn1XFx.s:1691   .text:0000000000000ab8 .L0 
     /tmp/ccMn1XFx.s:1705   .text:0000000000000ab8 _ZN12kmem_cache_s21print_info_all_cachesEv
     /tmp/ccMn1XFx.s:1708   .text:0000000000000ab8 .L0 
     /tmp/ccMn1XFx.s:1709   .text:0000000000000ab8 .L0 
     /tmp/ccMn1XFx.s:1710   .text:0000000000000abc .L0 
     /tmp/ccMn1XFx.s:1714   .text:0000000000000ac8 .L0 
     /tmp/ccMn1XFx.s:1715   .text:0000000000000ac8 .L0 
     /tmp/ccMn1XFx.s:1716   .text:0000000000000ac8 .L0 
     /tmp/ccMn1XFx.s:1718   .text:0000000000000acc .L0 
     /tmp/ccMn1XFx.s:1720   .text:0000000000000acc .L0 
     /tmp/ccMn1XFx.s:1721   .text:0000000000000acc .L0 
     /tmp/ccMn1XFx.s:1726   .text:0000000000000adc .L0 
     /tmp/ccMn1XFx.s:1727   .text:0000000000000adc .L0 
     /tmp/ccMn1XFx.s:1731   .text:0000000000000ae4 .L0 
     /tmp/ccMn1XFx.s:1733   .text:0000000000000ae8 .L0 
     /tmp/ccMn1XFx.s:1734   .text:0000000000000ae8 .L0 
     /tmp/ccMn1XFx.s:1738   .text:0000000000000af4 .L0 
     /tmp/ccMn1XFx.s:1739   .text:0000000000000af4 .L0 
     /tmp/ccMn1XFx.s:1742   .text:0000000000000af8 .L0 
     /tmp/ccMn1XFx.s:1746   .text:0000000000000afc .L0 
     /tmp/ccMn1XFx.s:1747   .text:0000000000000afc .L0 
     /tmp/ccMn1XFx.s:1751   .text:0000000000000b0c .L0 
     /tmp/ccMn1XFx.s:1752   .text:0000000000000b10 .L0 
     /tmp/ccMn1XFx.s:1754   .text:0000000000000b14 .L0 
     /tmp/ccMn1XFx.s:1755   .text:0000000000000b14 .L0 
     /tmp/ccMn1XFx.s:1757   .text:0000000000000b18 .L0 
     /tmp/ccMn1XFx.s:1760   .text:0000000000000b1c .L0 
     /tmp/ccMn1XFx.s:1762   .text:0000000000000b20 .L0 
     /tmp/ccMn1XFx.s:1768   .text:0000000000000b20 _ZN4Slab42return_first_free_object_and_rearange_listEii
     /tmp/ccMn1XFx.s:1771   .text:0000000000000b20 .L0 
     /tmp/ccMn1XFx.s:1773   .text:0000000000000b20 .L0 
     /tmp/ccMn1XFx.s:1774   .text:0000000000000b24 .L0 
     /tmp/ccMn1XFx.s:1776   .text:0000000000000b28 .L0 
     /tmp/ccMn1XFx.s:1778   .text:0000000000000b2c .L0 
     /tmp/ccMn1XFx.s:1781   .text:0000000000000b2c .L0 
     /tmp/ccMn1XFx.s:1782   .text:0000000000000b2c .L0 
     /tmp/ccMn1XFx.s:1786   .text:0000000000000b30 .L0 
     /tmp/ccMn1XFx.s:1787   .text:0000000000000b30 .L0 
     /tmp/ccMn1XFx.s:1789   .text:0000000000000b34 .L0 
     /tmp/ccMn1XFx.s:1791   .text:0000000000000b38 .L0 
     /tmp/ccMn1XFx.s:1794   .text:0000000000000b40 .L0 
     /tmp/ccMn1XFx.s:1796   .text:0000000000000b44 .L0 
     /tmp/ccMn1XFx.s:1797   .text:0000000000000b44 .L0 
     /tmp/ccMn1XFx.s:1800   .text:0000000000000b48 .L0 
     /tmp/ccMn1XFx.s:1804   .text:0000000000000b4c .L0 
     /tmp/ccMn1XFx.s:1806   .text:0000000000000b50 .L0 
GAS LISTING /tmp/ccMn1XFx.s 			page 76


     /tmp/ccMn1XFx.s:1807   .text:0000000000000b50 .L0 
     /tmp/ccMn1XFx.s:1809   .text:0000000000000b54 .L0 
     /tmp/ccMn1XFx.s:1811   .text:0000000000000b58 .L0 
     /tmp/ccMn1XFx.s:1814   .text:0000000000000b60 .L0 
     /tmp/ccMn1XFx.s:1815   .text:0000000000000b60 .L0 
     /tmp/ccMn1XFx.s:1818   .text:0000000000000b64 .L0 
     /tmp/ccMn1XFx.s:1821   .text:0000000000000b68 .L0 
     /tmp/ccMn1XFx.s:1824   .text:0000000000000b6c .L0 
     /tmp/ccMn1XFx.s:1825   .text:0000000000000b70 .L0 
     /tmp/ccMn1XFx.s:1826   .text:0000000000000b70 .L0 
     /tmp/ccMn1XFx.s:1827   .text:0000000000000b70 .L0 
     /tmp/ccMn1XFx.s:1829   .text:0000000000000b74 .L0 
     /tmp/ccMn1XFx.s:1833   .text:0000000000000b78 .L0 
     /tmp/ccMn1XFx.s:1835   .text:0000000000000b78 .L0 
     /tmp/ccMn1XFx.s:1838   .text:0000000000000b80 .L0 
     /tmp/ccMn1XFx.s:1844   .text:0000000000000b80 _ZN12kmem_cache_s16kmem_cache_allocEv
     /tmp/ccMn1XFx.s:1847   .text:0000000000000b80 .L0 
     /tmp/ccMn1XFx.s:1849   .text:0000000000000b80 .L0 
     /tmp/ccMn1XFx.s:1850   .text:0000000000000b84 .L0 
     /tmp/ccMn1XFx.s:1854   .text:0000000000000b90 .L0 
     /tmp/ccMn1XFx.s:1855   .text:0000000000000b90 .L0 
     /tmp/ccMn1XFx.s:1856   .text:0000000000000b90 .L0 
     /tmp/ccMn1XFx.s:1858   .text:0000000000000b94 .L0 
     /tmp/ccMn1XFx.s:1862   .text:0000000000000b98 .L0 
     /tmp/ccMn1XFx.s:1863   .text:0000000000000b98 .L0 
     /tmp/ccMn1XFx.s:1865   .text:0000000000000b9c .L0 
     /tmp/ccMn1XFx.s:1870   .text:0000000000000ba0 .L0 
     /tmp/ccMn1XFx.s:1871   .text:0000000000000ba0 .L0 
     /tmp/ccMn1XFx.s:1873   .text:0000000000000ba4 .L0 
     /tmp/ccMn1XFx.s:1876   .text:0000000000000ba8 .L0 
     /tmp/ccMn1XFx.s:1877   .text:0000000000000ba8 .L0 
     /tmp/ccMn1XFx.s:1884   .text:0000000000000bbc .L0 
     /tmp/ccMn1XFx.s:1885   .text:0000000000000bbc .L0 
     /tmp/ccMn1XFx.s:1887   .text:0000000000000bc0 .L0 
     /tmp/ccMn1XFx.s:1890   .text:0000000000000bc8 .L0 
     /tmp/ccMn1XFx.s:1891   .text:0000000000000bc8 .L0 
     /tmp/ccMn1XFx.s:1894   .text:0000000000000bcc .L0 
     /tmp/ccMn1XFx.s:1895   .text:0000000000000bcc .L0 
     /tmp/ccMn1XFx.s:1897   .text:0000000000000bd0 .L0 
     /tmp/ccMn1XFx.s:1899   .text:0000000000000bd4 .L0 
     /tmp/ccMn1XFx.s:1900   .text:0000000000000bd4 .L0 
     /tmp/ccMn1XFx.s:1902   .text:0000000000000bd8 .L0 
     /tmp/ccMn1XFx.s:1907   .text:0000000000000bdc .L0 
     /tmp/ccMn1XFx.s:1908   .text:0000000000000bdc .L0 
     /tmp/ccMn1XFx.s:1910   .text:0000000000000be0 .L0 
     /tmp/ccMn1XFx.s:1916   .text:0000000000000be8 .L0 
     /tmp/ccMn1XFx.s:1917   .text:0000000000000be8 .L0 
     /tmp/ccMn1XFx.s:1919   .text:0000000000000bec .L0 
     /tmp/ccMn1XFx.s:1920   .text:0000000000000bec .L0 
     /tmp/ccMn1XFx.s:1923   .text:0000000000000bf0 .L0 
     /tmp/ccMn1XFx.s:1926   .text:0000000000000bf8 .L0 
     /tmp/ccMn1XFx.s:1927   .text:0000000000000bf8 .L0 
     /tmp/ccMn1XFx.s:1929   .text:0000000000000bfc .L0 
     /tmp/ccMn1XFx.s:1937   .text:0000000000000c04 .L0 
     /tmp/ccMn1XFx.s:1938   .text:0000000000000c04 .L0 
     /tmp/ccMn1XFx.s:1939   .text:0000000000000c08 .L0 
     /tmp/ccMn1XFx.s:1940   .text:0000000000000c08 .L0 
GAS LISTING /tmp/ccMn1XFx.s 			page 77


     /tmp/ccMn1XFx.s:1942   .text:0000000000000c0c .L0 
     /tmp/ccMn1XFx.s:1943   .text:0000000000000c0c .L0 
     /tmp/ccMn1XFx.s:1945   .text:0000000000000c10 .L0 
     /tmp/ccMn1XFx.s:1948   .text:0000000000000c14 .L0 
     /tmp/ccMn1XFx.s:1952   .text:0000000000000c18 .L0 
     /tmp/ccMn1XFx.s:1956   .text:0000000000000c18 .L0 
     /tmp/ccMn1XFx.s:1957   .text:0000000000000c18 .L0 
     /tmp/ccMn1XFx.s:1963   .text:0000000000000c2c .L0 
     /tmp/ccMn1XFx.s:1964   .text:0000000000000c2c .L0 
     /tmp/ccMn1XFx.s:1966   .text:0000000000000c30 .L0 
     /tmp/ccMn1XFx.s:1969   .text:0000000000000c38 .L0 
     /tmp/ccMn1XFx.s:1970   .text:0000000000000c38 .L0 
     /tmp/ccMn1XFx.s:1975   .text:0000000000000c3c .L0 
     /tmp/ccMn1XFx.s:1977   .text:0000000000000c40 .L0 
     /tmp/ccMn1XFx.s:1984   .text:0000000000000c48 .L0 
     /tmp/ccMn1XFx.s:1985   .text:0000000000000c48 .L0 
     /tmp/ccMn1XFx.s:1990   .text:0000000000000c4c .L0 
     /tmp/ccMn1XFx.s:1991   .text:0000000000000c4c .L0 
     /tmp/ccMn1XFx.s:1996   .text:0000000000000c50 .L0 
     /tmp/ccMn1XFx.s:1998   .text:0000000000000c54 .L0 
     /tmp/ccMn1XFx.s:2002   .text:0000000000000c58 .L0 
     /tmp/ccMn1XFx.s:2003   .text:0000000000000c58 .L0 
     /tmp/ccMn1XFx.s:2004   .text:0000000000000c58 .L0 
     /tmp/ccMn1XFx.s:2006   .text:0000000000000c5c .L0 
     /tmp/ccMn1XFx.s:2008   .text:0000000000000c60 .L0 
     /tmp/ccMn1XFx.s:2009   .text:0000000000000c60 .L0 
     /tmp/ccMn1XFx.s:2011   .text:0000000000000c64 .L0 
     /tmp/ccMn1XFx.s:2013   .text:0000000000000c68 .L0 
     /tmp/ccMn1XFx.s:2014   .text:0000000000000c68 .L0 
     /tmp/ccMn1XFx.s:2016   .text:0000000000000c6c .L0 
     /tmp/ccMn1XFx.s:2017   .text:0000000000000c6c .L0 
     /tmp/ccMn1XFx.s:2020   .text:0000000000000c70 .L0 
     /tmp/ccMn1XFx.s:2023   .text:0000000000000c78 .L0 
     /tmp/ccMn1XFx.s:2024   .text:0000000000000c78 .L0 
     /tmp/ccMn1XFx.s:2026   .text:0000000000000c7c .L0 
     /tmp/ccMn1XFx.s:2031   .text:0000000000000c84 .L0 
     /tmp/ccMn1XFx.s:2032   .text:0000000000000c84 .L0 
     /tmp/ccMn1XFx.s:2038   .text:0000000000000c88 .L0 
     /tmp/ccMn1XFx.s:2039   .text:0000000000000c88 .L0 
     /tmp/ccMn1XFx.s:2042   .text:0000000000000c90 .L0 
     /tmp/ccMn1XFx.s:2043   .text:0000000000000c90 .L0 
     /tmp/ccMn1XFx.s:2046   .text:0000000000000c98 .L0 
     /tmp/ccMn1XFx.s:2047   .text:0000000000000c98 .L0 
     /tmp/ccMn1XFx.s:2051   .text:0000000000000ca0 .L0 
     /tmp/ccMn1XFx.s:2057   .text:0000000000000ca0 _ZN12kmem_cache_s7kmallocEm
     /tmp/ccMn1XFx.s:2060   .text:0000000000000ca0 .L0 
     /tmp/ccMn1XFx.s:2062   .text:0000000000000ca0 .L0 
     /tmp/ccMn1XFx.s:2063   .text:0000000000000ca4 .L0 
     /tmp/ccMn1XFx.s:2068   .text:0000000000000cb4 .L0 
     /tmp/ccMn1XFx.s:2069   .text:0000000000000cb4 .L0 
     /tmp/ccMn1XFx.s:2070   .text:0000000000000cb4 .L0 
     /tmp/ccMn1XFx.s:2071   .text:0000000000000cb4 .L0 
     /tmp/ccMn1XFx.s:2073   .text:0000000000000cb8 .L0 
     /tmp/ccMn1XFx.s:2076   .text:0000000000000cbc .L0 
     /tmp/ccMn1XFx.s:2077   .text:0000000000000cbc .L0 
     /tmp/ccMn1XFx.s:2084   .text:0000000000000ccc .L0 
     /tmp/ccMn1XFx.s:2085   .text:0000000000000ccc .L0 
GAS LISTING /tmp/ccMn1XFx.s 			page 78


     /tmp/ccMn1XFx.s:2088   .text:0000000000000cd4 .L0 
     /tmp/ccMn1XFx.s:2089   .text:0000000000000cd4 .L0 
     /tmp/ccMn1XFx.s:2091   .text:0000000000000cd8 .L0 
     /tmp/ccMn1XFx.s:2095   .text:0000000000000cdc .L0 
     /tmp/ccMn1XFx.s:2096   .text:0000000000000cdc .L0 
     /tmp/ccMn1XFx.s:2100   .text:0000000000000ce4 .L0 
     /tmp/ccMn1XFx.s:2101   .text:0000000000000ce4 .L0 
     /tmp/ccMn1XFx.s:2102   .text:0000000000000ce8 .L0 
     /tmp/ccMn1XFx.s:2103   .text:0000000000000ce8 .L0 
     /tmp/ccMn1XFx.s:2105   .text:0000000000000cec .L0 
     /tmp/ccMn1XFx.s:2106   .text:0000000000000cec .L0 
     /tmp/ccMn1XFx.s:2108   .text:0000000000000cf0 .L0 
     /tmp/ccMn1XFx.s:2111   .text:0000000000000cf4 .L0 
     /tmp/ccMn1XFx.s:2114   .text:0000000000000cf8 .L0 
     /tmp/ccMn1XFx.s:2118   .text:0000000000000cfc .L0 
     /tmp/ccMn1XFx.s:2120   .text:0000000000000cfc .L0 
     /tmp/ccMn1XFx.s:2121   .text:0000000000000cfc .L0 
     /tmp/ccMn1XFx.s:2129   .text:0000000000000d14 .L0 
     /tmp/ccMn1XFx.s:2131   .text:0000000000000d1c .L0 
     /tmp/ccMn1XFx.s:2137   .text:0000000000000d1c _ZN4Slab10clear_slabEiiPFvPvE
     /tmp/ccMn1XFx.s:2140   .text:0000000000000d1c .L0 
     /tmp/ccMn1XFx.s:2142   .text:0000000000000d1c .L0 
     /tmp/ccMn1XFx.s:2143   .text:0000000000000d1c .L0 
     /tmp/ccMn1XFx.s:2145   .text:0000000000000d20 .L0 
     /tmp/ccMn1XFx.s:2146   .text:0000000000000d24 .L0 
     /tmp/ccMn1XFx.s:2154   .text:0000000000000d40 .L0 
     /tmp/ccMn1XFx.s:2155   .text:0000000000000d40 .L0 
     /tmp/ccMn1XFx.s:2156   .text:0000000000000d40 .L0 
     /tmp/ccMn1XFx.s:2157   .text:0000000000000d40 .L0 
     /tmp/ccMn1XFx.s:2158   .text:0000000000000d40 .L0 
     /tmp/ccMn1XFx.s:2159   .text:0000000000000d40 .L0 
     /tmp/ccMn1XFx.s:2160   .text:0000000000000d40 .L0 
     /tmp/ccMn1XFx.s:2162   .text:0000000000000d44 .L0 
     /tmp/ccMn1XFx.s:2169   .text:0000000000000d54 .L0 
     /tmp/ccMn1XFx.s:2174   .text:0000000000000d5c .L0 
     /tmp/ccMn1XFx.s:2178   .text:0000000000000d60 .L0 
     /tmp/ccMn1XFx.s:2180   .text:0000000000000d64 .L0 
     /tmp/ccMn1XFx.s:2181   .text:0000000000000d64 .L0 
     /tmp/ccMn1XFx.s:2183   .text:0000000000000d68 .L0 
     /tmp/ccMn1XFx.s:2186   .text:0000000000000d70 .L0 
     /tmp/ccMn1XFx.s:2188   .text:0000000000000d74 .L0 
     /tmp/ccMn1XFx.s:2189   .text:0000000000000d74 .L0 
     /tmp/ccMn1XFx.s:2191   .text:0000000000000d78 .L0 
     /tmp/ccMn1XFx.s:2193   .text:0000000000000d7c .L0 
     /tmp/ccMn1XFx.s:2200   .text:0000000000000d88 .L0 
     /tmp/ccMn1XFx.s:2201   .text:0000000000000d8c .L0 
     /tmp/ccMn1XFx.s:2203   .text:0000000000000d90 .L0 
     /tmp/ccMn1XFx.s:2204   .text:0000000000000d90 .L0 
     /tmp/ccMn1XFx.s:2206   .text:0000000000000d94 .L0 
     /tmp/ccMn1XFx.s:2209   .text:0000000000000d98 .L0 
     /tmp/ccMn1XFx.s:2212   .text:0000000000000d9c .L0 
     /tmp/ccMn1XFx.s:2214   .text:0000000000000da0 .L0 
     /tmp/ccMn1XFx.s:2217   .text:0000000000000da4 .L0 
     /tmp/ccMn1XFx.s:2219   .text:0000000000000da8 .L0 
     /tmp/ccMn1XFx.s:2224   .text:0000000000000db0 .L0 
     /tmp/ccMn1XFx.s:2230   .text:0000000000000db0 _ZN12kmem_cache_s18kmem_cache_destroyEm
     /tmp/ccMn1XFx.s:2233   .text:0000000000000db0 .L0 
GAS LISTING /tmp/ccMn1XFx.s 			page 79


     /tmp/ccMn1XFx.s:2235   .text:0000000000000db0 .L0 
     /tmp/ccMn1XFx.s:2236   .text:0000000000000db4 .L0 
     /tmp/ccMn1XFx.s:2243   .text:0000000000000dcc .L0 
     /tmp/ccMn1XFx.s:2244   .text:0000000000000dcc .L0 
     /tmp/ccMn1XFx.s:2245   .text:0000000000000dcc .L0 
     /tmp/ccMn1XFx.s:2246   .text:0000000000000dcc .L0 
     /tmp/ccMn1XFx.s:2247   .text:0000000000000dcc .L0 
     /tmp/ccMn1XFx.s:2248   .text:0000000000000dcc .L0 
     /tmp/ccMn1XFx.s:2250   .text:0000000000000dd0 .L0 
     /tmp/ccMn1XFx.s:2255   .text:0000000000000dd8 .L0 
     /tmp/ccMn1XFx.s:2256   .text:0000000000000dd8 .L0 
     /tmp/ccMn1XFx.s:2264   .text:0000000000000de0 .L0 
     /tmp/ccMn1XFx.s:2267   .text:0000000000000de0 .L0 
     /tmp/ccMn1XFx.s:2268   .text:0000000000000de0 .L0 
     /tmp/ccMn1XFx.s:2273   .text:0000000000000df4 .L0 
     /tmp/ccMn1XFx.s:2277   .text:0000000000000df8 .L0 
     /tmp/ccMn1XFx.s:2278   .text:0000000000000df8 .L0 
     /tmp/ccMn1XFx.s:2281   .text:0000000000000dfc .L0 
     /tmp/ccMn1XFx.s:2282   .text:0000000000000dfc .L0 
     /tmp/ccMn1XFx.s:2283   .text:0000000000000dfc .L0 
     /tmp/ccMn1XFx.s:2286   .text:0000000000000e00 .L0 
     /tmp/ccMn1XFx.s:2287   .text:0000000000000e00 .L0 
     /tmp/ccMn1XFx.s:2296   .text:0000000000000e18 .L0 
     /tmp/ccMn1XFx.s:2297   .text:0000000000000e18 .L0 
     /tmp/ccMn1XFx.s:2298   .text:0000000000000e18 .L0 
     /tmp/ccMn1XFx.s:2311   .text:0000000000000e44 .L0 
     /tmp/ccMn1XFx.s:2312   .text:0000000000000e44 .L0 
     /tmp/ccMn1XFx.s:2313   .text:0000000000000e44 .L0 
     /tmp/ccMn1XFx.s:2321   .text:0000000000000e4c .L0 
     /tmp/ccMn1XFx.s:2328   .text:0000000000000e68 .L0 
     /tmp/ccMn1XFx.s:2332   .text:0000000000000e68 .L0 
     /tmp/ccMn1XFx.s:2333   .text:0000000000000e68 .L0 
     /tmp/ccMn1XFx.s:2338   .text:0000000000000e7c .L0 
     /tmp/ccMn1XFx.s:2342   .text:0000000000000e80 .L0 
     /tmp/ccMn1XFx.s:2343   .text:0000000000000e80 .L0 
     /tmp/ccMn1XFx.s:2346   .text:0000000000000e84 .L0 
     /tmp/ccMn1XFx.s:2347   .text:0000000000000e84 .L0 
     /tmp/ccMn1XFx.s:2348   .text:0000000000000e84 .L0 
     /tmp/ccMn1XFx.s:2351   .text:0000000000000e88 .L0 
     /tmp/ccMn1XFx.s:2352   .text:0000000000000e88 .L0 
     /tmp/ccMn1XFx.s:2361   .text:0000000000000ea0 .L0 
     /tmp/ccMn1XFx.s:2362   .text:0000000000000ea0 .L0 
     /tmp/ccMn1XFx.s:2363   .text:0000000000000ea0 .L0 
     /tmp/ccMn1XFx.s:2371   .text:0000000000000eb0 .L0 
     /tmp/ccMn1XFx.s:2372   .text:0000000000000eb0 .L0 
     /tmp/ccMn1XFx.s:2373   .text:0000000000000eb0 .L0 
     /tmp/ccMn1XFx.s:2381   .text:0000000000000eb8 .L0 
     /tmp/ccMn1XFx.s:2388   .text:0000000000000ed4 .L0 
     /tmp/ccMn1XFx.s:2392   .text:0000000000000ed4 .L0 
     /tmp/ccMn1XFx.s:2393   .text:0000000000000ed4 .L0 
     /tmp/ccMn1XFx.s:2398   .text:0000000000000ee8 .L0 
     /tmp/ccMn1XFx.s:2402   .text:0000000000000eec .L0 
     /tmp/ccMn1XFx.s:2403   .text:0000000000000eec .L0 
     /tmp/ccMn1XFx.s:2406   .text:0000000000000ef0 .L0 
     /tmp/ccMn1XFx.s:2407   .text:0000000000000ef0 .L0 
     /tmp/ccMn1XFx.s:2408   .text:0000000000000ef0 .L0 
     /tmp/ccMn1XFx.s:2411   .text:0000000000000ef4 .L0 
GAS LISTING /tmp/ccMn1XFx.s 			page 80


     /tmp/ccMn1XFx.s:2412   .text:0000000000000ef4 .L0 
     /tmp/ccMn1XFx.s:2421   .text:0000000000000f0c .L0 
     /tmp/ccMn1XFx.s:2422   .text:0000000000000f0c .L0 
     /tmp/ccMn1XFx.s:2423   .text:0000000000000f0c .L0 
     /tmp/ccMn1XFx.s:2431   .text:0000000000000f1c .L0 
     /tmp/ccMn1XFx.s:2432   .text:0000000000000f1c .L0 
     /tmp/ccMn1XFx.s:2440   .text:0000000000000f28 .L0 
     /tmp/ccMn1XFx.s:2451   .text:0000000000000f48 .L0 
     /tmp/ccMn1XFx.s:2452   .text:0000000000000f48 .L0 
     /tmp/ccMn1XFx.s:2453   .text:0000000000000f48 .L0 
     /tmp/ccMn1XFx.s:2455   .text:0000000000000f4c .L0 
     /tmp/ccMn1XFx.s:2459   .text:0000000000000f50 .L0 
     /tmp/ccMn1XFx.s:2460   .text:0000000000000f50 .L0 
     /tmp/ccMn1XFx.s:2462   .text:0000000000000f54 .L0 
     /tmp/ccMn1XFx.s:2463   .text:0000000000000f54 .L0 
     /tmp/ccMn1XFx.s:2465   .text:0000000000000f58 .L0 
     /tmp/ccMn1XFx.s:2467   .text:0000000000000f5c .L0 
     /tmp/ccMn1XFx.s:2469   .text:0000000000000f60 .L0 
     /tmp/ccMn1XFx.s:2470   .text:0000000000000f60 .L0 
     /tmp/ccMn1XFx.s:2472   .text:0000000000000f64 .L0 
     /tmp/ccMn1XFx.s:2474   .text:0000000000000f68 .L0 
     /tmp/ccMn1XFx.s:2475   .text:0000000000000f68 .L0 
     /tmp/ccMn1XFx.s:2480   .text:0000000000000f6c .L0 
     /tmp/ccMn1XFx.s:2481   .text:0000000000000f6c .L0 
     /tmp/ccMn1XFx.s:2482   .text:0000000000000f6c .L0 
     /tmp/ccMn1XFx.s:2487   .text:0000000000000f78 .L0 
     /tmp/ccMn1XFx.s:2491   .text:0000000000000f78 .L0 
     /tmp/ccMn1XFx.s:2492   .text:0000000000000f78 .L0 
     /tmp/ccMn1XFx.s:2497   .text:0000000000000f8c .L0 
     /tmp/ccMn1XFx.s:2498   .text:0000000000000f8c .L0 
     /tmp/ccMn1XFx.s:2503   .text:0000000000000f94 .L0 
     /tmp/ccMn1XFx.s:2507   .text:0000000000000f98 .L0 
     /tmp/ccMn1XFx.s:2508   .text:0000000000000f9c .L0 
     /tmp/ccMn1XFx.s:2510   .text:0000000000000fa0 .L0 
     /tmp/ccMn1XFx.s:2511   .text:0000000000000fa0 .L0 
     /tmp/ccMn1XFx.s:2513   .text:0000000000000fa4 .L0 
     /tmp/ccMn1XFx.s:2515   .text:0000000000000fa8 .L0 
     /tmp/ccMn1XFx.s:2518   .text:0000000000000fac .L0 
     /tmp/ccMn1XFx.s:2520   .text:0000000000000fb0 .L0 
     /tmp/ccMn1XFx.s:2523   .text:0000000000000fb4 .L0 
     /tmp/ccMn1XFx.s:2525   .text:0000000000000fb8 .L0 
     /tmp/ccMn1XFx.s:2548   .bss:0000000000000000 _ZN12kmem_cache_s4headE
     /tmp/ccMn1XFx.s:2545   .bss:0000000000000000 .LANCHOR0
     /tmp/ccMn1XFx.s:2556   .text:0000000000000fb8 .L0 
     /tmp/ccMn1XFx.s:62     .text:0000000000000044 .L0 
     /tmp/ccMn1XFx.s:66     .text:0000000000000058 .L0 
     /tmp/ccMn1XFx.s:75     .text:0000000000000064 .L0 
     /tmp/ccMn1XFx.s:96     .text:0000000000000080 .L0 
     /tmp/ccMn1XFx.s:176    .text:00000000000000f4 .L0 
     /tmp/ccMn1XFx.s:192    .text:0000000000000110 .L0 
     /tmp/ccMn1XFx.s:247    .text:0000000000000168 .L0 
     /tmp/ccMn1XFx.s:251    .text:000000000000017c .L0 
     /tmp/ccMn1XFx.s:371    .text:0000000000000228 .L0 
     /tmp/ccMn1XFx.s:395    .text:0000000000000244 .L0 
     /tmp/ccMn1XFx.s:407    .text:0000000000000258 .L0 
     /tmp/ccMn1XFx.s:475    .text:00000000000002d0 .L0 
     /tmp/ccMn1XFx.s:480    .text:00000000000002e4 .L0 
GAS LISTING /tmp/ccMn1XFx.s 			page 81


     /tmp/ccMn1XFx.s:503    .text:000000000000030c .L0 
     /tmp/ccMn1XFx.s:943    .text:0000000000000548 .L0 
     /tmp/ccMn1XFx.s:1132   .text:0000000000000634 .L0 
     /tmp/ccMn1XFx.s:1176   .rodata.str1.8:0000000000000000 .LC0
     /tmp/ccMn1XFx.s:1260   .text:000000000000069c .L0 
     /tmp/ccMn1XFx.s:1179   .rodata.str1.8:0000000000000038 .LC1
     /tmp/ccMn1XFx.s:1266   .text:00000000000006ac .L0 
     /tmp/ccMn1XFx.s:1182   .rodata.str1.8:0000000000000040 .LC2
     /tmp/ccMn1XFx.s:1276   .text:00000000000006c8 .L0 
     /tmp/ccMn1XFx.s:1185   .rodata.str1.8:0000000000000048 .LC3
     /tmp/ccMn1XFx.s:1281   .text:00000000000006d8 .L0 
     /tmp/ccMn1XFx.s:1293   .text:00000000000006fc .L0 
     /tmp/ccMn1XFx.s:1188   .rodata.str1.8:0000000000000060 .LC4
     /tmp/ccMn1XFx.s:1318   .text:000000000000072c .L0 
     /tmp/ccMn1XFx.s:1330   .text:0000000000000750 .L0 
     /tmp/ccMn1XFx.s:1191   .rodata.str1.8:0000000000000080 .LC5
     /tmp/ccMn1XFx.s:1335   .text:0000000000000760 .L0 
     /tmp/ccMn1XFx.s:1347   .text:0000000000000784 .L0 
     /tmp/ccMn1XFx.s:1194   .rodata.str1.8:0000000000000098 .LC6
     /tmp/ccMn1XFx.s:1352   .text:0000000000000794 .L0 
     /tmp/ccMn1XFx.s:1364   .text:00000000000007b8 .L0 
     /tmp/ccMn1XFx.s:1197   .rodata.str1.8:00000000000000c8 .LC7
     /tmp/ccMn1XFx.s:1369   .text:00000000000007c8 .L0 
     /tmp/ccMn1XFx.s:1381   .text:00000000000007ec .L0 
     /tmp/ccMn1XFx.s:1200   .rodata.str1.8:00000000000000e8 .LC8
     /tmp/ccMn1XFx.s:1386   .text:00000000000007fc .L0 
     /tmp/ccMn1XFx.s:1203   .rodata.str1.8:00000000000000f8 .LC9
     /tmp/ccMn1XFx.s:1412   .text:0000000000000828 .L0 
     /tmp/ccMn1XFx.s:1425   .text:0000000000000840 .L0 
     /tmp/ccMn1XFx.s:1206   .rodata.str1.8:0000000000000100 .LC10
     /tmp/ccMn1XFx.s:1430   .text:0000000000000850 .L0 
     /tmp/ccMn1XFx.s:1456   .text:000000000000087c .L0 
     /tmp/ccMn1XFx.s:1469   .text:0000000000000894 .L0 
     /tmp/ccMn1XFx.s:1209   .rodata.str1.8:0000000000000110 .LC11
     /tmp/ccMn1XFx.s:1474   .text:00000000000008a4 .L0 
     /tmp/ccMn1XFx.s:1500   .text:00000000000008d0 .L0 
     /tmp/ccMn1XFx.s:1513   .text:00000000000008e8 .L0 
     /tmp/ccMn1XFx.s:1212   .rodata.str1.8:0000000000000118 .LC12
     /tmp/ccMn1XFx.s:1518   .text:00000000000008f8 .L0 
     /tmp/ccMn1XFx.s:1530   .text:000000000000091c .L0 
     /tmp/ccMn1XFx.s:1215   .rodata.str1.8:0000000000000138 .LC13
     /tmp/ccMn1XFx.s:1535   .text:000000000000092c .L0 
     /tmp/ccMn1XFx.s:1547   .text:0000000000000950 .L0 
     /tmp/ccMn1XFx.s:1218   .rodata.str1.8:0000000000000160 .LC14
     /tmp/ccMn1XFx.s:1552   .text:0000000000000960 .L0 
     /tmp/ccMn1XFx.s:1564   .text:0000000000000984 .L0 
     /tmp/ccMn1XFx.s:1221   .rodata.str1.8:0000000000000180 .LC15
     /tmp/ccMn1XFx.s:1593   .text:00000000000009bc .L0 
     /tmp/ccMn1XFx.s:1224   .rodata.str1.8:00000000000001a0 .LC16
     /tmp/ccMn1XFx.s:1605   .text:00000000000009e0 .L0 
     /tmp/ccMn1XFx.s:1617   .text:0000000000000a04 .L0 
     /tmp/ccMn1XFx.s:1227   .rodata.str1.8:00000000000001a8 .LC17
     /tmp/ccMn1XFx.s:1622   .text:0000000000000a14 .L0 
     /tmp/ccMn1XFx.s:1638   .text:0000000000000a40 .L0 
     /tmp/ccMn1XFx.s:1662   .text:0000000000000a78 .L0 
     /tmp/ccMn1XFx.s:1230   .rodata.str1.8:00000000000001d0 .LC18
     /tmp/ccMn1XFx.s:1667   .text:0000000000000a88 .L0 
GAS LISTING /tmp/ccMn1XFx.s 			page 82


     /tmp/ccMn1XFx.s:1696   .rodata.str1.8:0000000000000208 .LC19
     /tmp/ccMn1XFx.s:1721   .text:0000000000000acc .L0 
     /tmp/ccMn1XFx.s:1727   .text:0000000000000adc .L0 
     /tmp/ccMn1XFx.s:1699   .rodata.str1.8:0000000000000230 .LC20
     /tmp/ccMn1XFx.s:1747   .text:0000000000000afc .L0 
     /tmp/ccMn1XFx.s:2269   .text:0000000000000de4 .L0 
     /tmp/ccMn1XFx.s:2298   .text:0000000000000e18 .L0 
     /tmp/ccMn1XFx.s:2300   .text:0000000000000e24 .L0 
     /tmp/ccMn1XFx.s:2304   .text:0000000000000e38 .L0 
     /tmp/ccMn1XFx.s:2321   .text:0000000000000e4c .L0 
     /tmp/ccMn1XFx.s:2325   .text:0000000000000e60 .L0 
     /tmp/ccMn1XFx.s:2334   .text:0000000000000e6c .L0 
     /tmp/ccMn1XFx.s:2363   .text:0000000000000ea0 .L0 
     /tmp/ccMn1XFx.s:2381   .text:0000000000000eb8 .L0 
     /tmp/ccMn1XFx.s:2385   .text:0000000000000ecc .L0 
     /tmp/ccMn1XFx.s:2394   .text:0000000000000ed8 .L0 
     /tmp/ccMn1XFx.s:2423   .text:0000000000000f0c .L0 
     /tmp/ccMn1XFx.s:2432   .text:0000000000000f1c .L0 
     /tmp/ccMn1XFx.s:2440   .text:0000000000000f28 .L0 
     /tmp/ccMn1XFx.s:2444   .text:0000000000000f3c .L0 
     /tmp/ccMn1XFx.s:2482   .text:0000000000000f6c .L0 
     /tmp/ccMn1XFx.s:2493   .text:0000000000000f7c .L0 
     /tmp/ccMn1XFx.s:47     .text:0000000000000038 .L8
     /tmp/ccMn1XFx.s:81     .text:0000000000000078 .L6
     /tmp/ccMn1XFx.s:123    .text:00000000000000b0 .L1
     /tmp/ccMn1XFx.s:100    .text:0000000000000090 .L4
     /tmp/ccMn1XFx.s:67     .text:0000000000000060 .L5
     /tmp/ccMn1XFx.s:57     .text:0000000000000044 .L9
     /tmp/ccMn1XFx.s:242    .text:0000000000000168 .L17
     /tmp/ccMn1XFx.s:254    .text:0000000000000188 .L12
     /tmp/ccMn1XFx.s:227    .text:0000000000000150 .L13
     /tmp/ccMn1XFx.s:179    .text:0000000000000100 .L11
     /tmp/ccMn1XFx.s:302    .text:00000000000001c0 .L14
     /tmp/ccMn1XFx.s:278    .text:000000000000019c .L15
     /tmp/ccMn1XFx.s:387    .text:0000000000000244 .L19
     /tmp/ccMn1XFx.s:538    .text:0000000000000348 .L25
     /tmp/ccMn1XFx.s:373    .text:0000000000000230 .L21
     /tmp/ccMn1XFx.s:471    .text:00000000000002d0 .L27
     /tmp/ccMn1XFx.s:483    .text:00000000000002f0 .L23
     /tmp/ccMn1XFx.s:449    .text:00000000000002a8 .L24
     /tmp/ccMn1XFx.s:399    .text:0000000000000250 .L22
     /tmp/ccMn1XFx.s:511    .text:0000000000000320 .L18
     /tmp/ccMn1XFx.s:613    .text:0000000000000398 .L37
     /tmp/ccMn1XFx.s:713    .text:0000000000000418 .L35
     /tmp/ccMn1XFx.s:740    .text:0000000000000444 .L29
     /tmp/ccMn1XFx.s:600    .text:0000000000000390 .L30
     /tmp/ccMn1XFx.s:661    .text:00000000000003e0 .L31
     /tmp/ccMn1XFx.s:672    .text:00000000000003f0 .L32
     /tmp/ccMn1XFx.s:734    .text:000000000000043c .L33
     /tmp/ccMn1XFx.s:586    .text:0000000000000384 .L34
     /tmp/ccMn1XFx.s:896    .text:000000000000050c .L36
     /tmp/ccMn1XFx.s:777    .text:0000000000000460 .L43
     /tmp/ccMn1XFx.s:862    .text:00000000000004dc .L42
     /tmp/ccMn1XFx.s:888    .text:0000000000000508 .L44
     /tmp/ccMn1XFx.s:764    .text:0000000000000458 .L38
     /tmp/ccMn1XFx.s:825    .text:00000000000004a8 .L39
     /tmp/ccMn1XFx.s:836    .text:00000000000004b8 .L40
GAS LISTING /tmp/ccMn1XFx.s 			page 83


     /tmp/ccMn1XFx.s:753    .text:000000000000044c .L41
     /tmp/ccMn1XFx.s:962    .text:0000000000000570 .L46
     /tmp/ccMn1XFx.s:945    .text:0000000000000550 .L48
     /tmp/ccMn1XFx.s:1020   .text:00000000000005b4 .L50
     /tmp/ccMn1XFx.s:1008   .text:00000000000005a4 .L52
     /tmp/ccMn1XFx.s:1059   .text:00000000000005dc .L56
     /tmp/ccMn1XFx.s:1085   .text:0000000000000600 .L57
     /tmp/ccMn1XFx.s:1055   .text:00000000000005d8 .L58
     /tmp/ccMn1XFx.s:1099   .text:0000000000000610 .L59
     /tmp/ccMn1XFx.s:1089   .text:0000000000000604 .L55
     /tmp/ccMn1XFx.s:1151   .text:000000000000065c .L64
     /tmp/ccMn1XFx.s:1155   .text:0000000000000660 .L62
     /tmp/ccMn1XFx.s:1134   .text:000000000000063c .L63
     /tmp/ccMn1XFx.s:1421   .text:0000000000000840 .L67
     /tmp/ccMn1XFx.s:1394   .text:0000000000000810 .L68
     /tmp/ccMn1XFx.s:1465   .text:0000000000000894 .L69
     /tmp/ccMn1XFx.s:1438   .text:0000000000000864 .L70
     /tmp/ccMn1XFx.s:1509   .text:00000000000008e8 .L71
     /tmp/ccMn1XFx.s:1482   .text:00000000000008b8 .L72
     /tmp/ccMn1XFx.s:1743   .text:0000000000000afc .L75
     /tmp/ccMn1XFx.s:1729   .text:0000000000000ae4 .L76
     /tmp/ccMn1XFx.s:1802   .text:0000000000000b4c .L79
     /tmp/ccMn1XFx.s:1784   .text:0000000000000b30 .L80
     /tmp/ccMn1XFx.s:1832   .text:0000000000000b78 .L82
     /tmp/ccMn1XFx.s:1822   .text:0000000000000b6c .L78
     /tmp/ccMn1XFx.s:1951   .text:0000000000000c18 .L90
     /tmp/ccMn1XFx.s:2034   .text:0000000000000c88 .L88
     /tmp/ccMn1XFx.s:1933   .text:0000000000000c04 .L84
     /tmp/ccMn1XFx.s:2117   .text:0000000000000cfc .L96
     /tmp/ccMn1XFx.s:2093   .text:0000000000000cdc .L92
     /tmp/ccMn1XFx.s:2099   .text:0000000000000ce4 .L91
     /tmp/ccMn1XFx.s:2222   .text:0000000000000dac .L102
     /tmp/ccMn1XFx.s:2176   .text:0000000000000d60 .L100
     /tmp/ccMn1XFx.s:2197   .text:0000000000000d88 .L97
     /tmp/ccMn1XFx.s:2172   .text:0000000000000d5c .L99
     /tmp/ccMn1XFx.s:2275   .text:0000000000000df8 .L108
     /tmp/ccMn1XFx.s:2307   .text:0000000000000e44 .L106
     /tmp/ccMn1XFx.s:2260   .text:0000000000000de0 .L107
     /tmp/ccMn1XFx.s:2340   .text:0000000000000e80 .L111
     /tmp/ccMn1XFx.s:2367   .text:0000000000000eb0 .L109
     /tmp/ccMn1XFx.s:2326   .text:0000000000000e68 .L110
     /tmp/ccMn1XFx.s:2317   .text:0000000000000e4c .L121
     /tmp/ccMn1XFx.s:2400   .text:0000000000000eec .L114
     /tmp/ccMn1XFx.s:2427   .text:0000000000000f1c .L112
     /tmp/ccMn1XFx.s:2386   .text:0000000000000ed4 .L113
     /tmp/ccMn1XFx.s:2377   .text:0000000000000eb8 .L122
     /tmp/ccMn1XFx.s:2457   .text:0000000000000f50 .L118
     /tmp/ccMn1XFx.s:2485   .text:0000000000000f78 .L117
     /tmp/ccMn1XFx.s:2501   .text:0000000000000f94 .L119
     /tmp/ccMn1XFx.s:2447   .text:0000000000000f48 .L116
     /tmp/ccMn1XFx.s:2436   .text:0000000000000f28 .L123
     /tmp/ccMn1XFx.s:2505   .text:0000000000000f98 .L115
     /tmp/ccMn1XFx.s:5430   .debug_abbrev:0000000000000000 .Ldebug_abbrev0
     /tmp/ccMn1XFx.s:8401   .debug_str:00000000000007ee .LASF130
     /tmp/ccMn1XFx.s:8389   .debug_str:0000000000000790 .LASF131
     /tmp/ccMn1XFx.s:8193   .debug_str:000000000000005d .LASF132
     /tmp/ccMn1XFx.s:5      .text:0000000000000000 .Ltext0
GAS LISTING /tmp/ccMn1XFx.s 			page 84


     /tmp/ccMn1XFx.s:2551   .text:0000000000000fb8 .Letext0
     /tmp/ccMn1XFx.s:8183   .debug_line:0000000000000000 .Ldebug_line0
     /tmp/ccMn1XFx.s:8285   .debug_str:000000000000040a .LASF0
     /tmp/ccMn1XFx.s:8281   .debug_str:00000000000003f8 .LASF1
     /tmp/ccMn1XFx.s:8295   .debug_str:0000000000000451 .LASF2
     /tmp/ccMn1XFx.s:8353   .debug_str:000000000000066e .LASF3
     /tmp/ccMn1XFx.s:8363   .debug_str:00000000000006df .LASF4
     /tmp/ccMn1XFx.s:8187   .debug_str:0000000000000024 .LASF5
     /tmp/ccMn1XFx.s:8333   .debug_str:0000000000000596 .LASF6
     /tmp/ccMn1XFx.s:8289   .debug_str:0000000000000421 .LASF7
     /tmp/ccMn1XFx.s:8259   .debug_str:0000000000000332 .LASF8
     /tmp/ccMn1XFx.s:8269   .debug_str:000000000000039a .LASF9
     /tmp/ccMn1XFx.s:8211   .debug_str:0000000000000133 .LASF10
     /tmp/ccMn1XFx.s:8413   .debug_str:00000000000008fb .LASF11
     /tmp/ccMn1XFx.s:8247   .debug_str:00000000000002b7 .LASF12
     /tmp/ccMn1XFx.s:8221   .debug_str:00000000000001a8 .LASF13
     /tmp/ccMn1XFx.s:8209   .debug_str:0000000000000123 .LASF14
     /tmp/ccMn1XFx.s:8385   .debug_str:000000000000077a .LASF15
     /tmp/ccMn1XFx.s:8229   .debug_str:00000000000001f5 .LASF16
     /tmp/ccMn1XFx.s:8377   .debug_str:0000000000000750 .LASF17
     /tmp/ccMn1XFx.s:8241   .debug_str:0000000000000285 .LASF30
     /tmp/ccMn1XFx.s:8417   .debug_str:0000000000000915 .LASF58
     /tmp/ccMn1XFx.s:8213   .debug_str:0000000000000142 .LASF18
     /tmp/ccMn1XFx.s:8293   .debug_str:000000000000044c .LASF19
     /tmp/ccMn1XFx.s:8191   .debug_str:0000000000000052 .LASF24
     /tmp/ccMn1XFx.s:8327   .debug_str:000000000000053f .LASF26
     /tmp/ccMn1XFx.s:8387   .debug_str:0000000000000786 .LASF20
     /tmp/ccMn1XFx.s:8319   .debug_str:0000000000000510 .LASF22
     /tmp/ccMn1XFx.s:8435   .debug_str:0000000000000a0b .LASF21
     /tmp/ccMn1XFx.s:8261   .debug_str:0000000000000342 .LASF23
     /tmp/ccMn1XFx.s:8249   .debug_str:00000000000002c6 .LASF25
     /tmp/ccMn1XFx.s:8331   .debug_str:0000000000000569 .LASF27
     /tmp/ccMn1XFx.s:8439   .debug_str:0000000000000a28 .LASF28
     /tmp/ccMn1XFx.s:8219   .debug_str:0000000000000179 .LASF29
     /tmp/ccMn1XFx.s:8271   .debug_str:00000000000003a8 .LASF31
     /tmp/ccMn1XFx.s:8307   .debug_str:00000000000004c0 .LASF32
     /tmp/ccMn1XFx.s:8429   .debug_str:00000000000009e0 .LASF33
     /tmp/ccMn1XFx.s:8453   .debug_str:0000000000000af4 .LASF34
     /tmp/ccMn1XFx.s:8279   .debug_str:00000000000003ee .LASF41
     /tmp/ccMn1XFx.s:8315   .debug_str:00000000000004e4 .LASF55
     /tmp/ccMn1XFx.s:8361   .debug_str:00000000000006d1 .LASF35
     /tmp/ccMn1XFx.s:8265   .debug_str:0000000000000372 .LASF36
     /tmp/ccMn1XFx.s:8273   .debug_str:00000000000003bd .LASF37
     /tmp/ccMn1XFx.s:8419   .debug_str:000000000000091d .LASF38
     /tmp/ccMn1XFx.s:8215   .debug_str:0000000000000147 .LASF39
     /tmp/ccMn1XFx.s:8351   .debug_str:000000000000063f .LASF40
     /tmp/ccMn1XFx.s:8243   .debug_str:0000000000000291 .LASF96
     /tmp/ccMn1XFx.s:8347   .debug_str:0000000000000620 .LASF133
     /tmp/ccMn1XFx.s:8399   .debug_str:00000000000007e9 .LASF42
     /tmp/ccMn1XFx.s:8299   .debug_str:000000000000046a .LASF43
     /tmp/ccMn1XFx.s:8407   .debug_str:00000000000008cb .LASF44
     /tmp/ccMn1XFx.s:8329   .debug_str:000000000000055e .LASF45
     /tmp/ccMn1XFx.s:8313   .debug_str:00000000000004d9 .LASF46
     /tmp/ccMn1XFx.s:8443   .debug_str:0000000000000a6f .LASF47
     /tmp/ccMn1XFx.s:8257   .debug_str:0000000000000315 .LASF48
     /tmp/ccMn1XFx.s:8233   .debug_str:000000000000021e .LASF49
     /tmp/ccMn1XFx.s:8255   .debug_str:00000000000002ea .LASF50
GAS LISTING /tmp/ccMn1XFx.s 			page 85


     /tmp/ccMn1XFx.s:8341   .debug_str:00000000000005d7 .LASF51
     /tmp/ccMn1XFx.s:8291   .debug_str:0000000000000434 .LASF52
     /tmp/ccMn1XFx.s:8427   .debug_str:00000000000009bc .LASF53
     /tmp/ccMn1XFx.s:8449   .debug_str:0000000000000ac0 .LASF54
     /tmp/ccMn1XFx.s:8185   .debug_str:0000000000000000 .LASF56
     /tmp/ccMn1XFx.s:8309   .debug_str:00000000000004cf .LASF57
     /tmp/ccMn1XFx.s:8373   .debug_str:000000000000073e .LASF59
     /tmp/ccMn1XFx.s:8379   .debug_str:0000000000000766 .LASF134
     /tmp/ccMn1XFx.s:8235   .debug_str:0000000000000247 .LASF60
     /tmp/ccMn1XFx.s:8263   .debug_str:0000000000000364 .LASF61
     /tmp/ccMn1XFx.s:8411   .debug_str:00000000000008f0 .LASF62
     /tmp/ccMn1XFx.s:8245   .debug_str:00000000000002a8 .LASF63
     /tmp/ccMn1XFx.s:8339   .debug_str:00000000000005c5 .LASF64
     /tmp/ccMn1XFx.s:8415   .debug_str:0000000000000906 .LASF65
     /tmp/ccMn1XFx.s:8349   .debug_str:0000000000000637 .LASF66
     /tmp/ccMn1XFx.s:8397   .debug_str:00000000000007da .LASF67
     /tmp/ccMn1XFx.s:8323   .debug_str:0000000000000534 .LASF68
     /tmp/ccMn1XFx.s:8267   .debug_str:0000000000000395 .LASF69
     /tmp/ccMn1XFx.s:8287   .debug_str:000000000000041c .LASF70
     /tmp/ccMn1XFx.s:8225   .debug_str:00000000000001c9 .LASF71
     /tmp/ccMn1XFx.s:8403   .debug_str:00000000000008b2 .LASF72
     /tmp/ccMn1XFx.s:8321   .debug_str:000000000000052d .LASF73
     /tmp/ccMn1XFx.s:8393   .debug_str:00000000000007c3 .LASF74
     /tmp/ccMn1XFx.s:8217   .debug_str:0000000000000152 .LASF75
     /tmp/ccMn1XFx.s:8223   .debug_str:00000000000001b8 .LASF76
     /tmp/ccMn1XFx.s:8391   .debug_str:000000000000079d .LASF77
     /tmp/ccMn1XFx.s:8205   .debug_str:00000000000000f7 .LASF78
     /tmp/ccMn1XFx.s:8445   .debug_str:0000000000000a8d .LASF79
     /tmp/ccMn1XFx.s:8231   .debug_str:000000000000020b .LASF80
     /tmp/ccMn1XFx.s:8201   .debug_str:00000000000000ca .LASF81
     /tmp/ccMn1XFx.s:8355   .debug_str:000000000000067c .LASF82
     /tmp/ccMn1XFx.s:8303   .debug_str:000000000000048c .LASF83
     /tmp/ccMn1XFx.s:8239   .debug_str:0000000000000273 .LASF84
     /tmp/ccMn1XFx.s:8425   .debug_str:0000000000000989 .LASF85
     /tmp/ccMn1XFx.s:8433   .debug_str:0000000000000a03 .LASF86
     /tmp/ccMn1XFx.s:8207   .debug_str:0000000000000107 .LASF87
     /tmp/ccMn1XFx.s:8253   .debug_str:00000000000002e4 .LASF88
     /tmp/ccMn1XFx.s:8451   .debug_str:0000000000000ad8 .LASF89
     /tmp/ccMn1XFx.s:8227   .debug_str:00000000000001d8 .LASF90
     /tmp/ccMn1XFx.s:8423   .debug_str:0000000000000957 .LASF91
     /tmp/ccMn1XFx.s:8431   .debug_str:00000000000009ed .LASF135
     /tmp/ccMn1XFx.s:8359   .debug_str:00000000000006a6 .LASF136
     /tmp/ccMn1XFx.s:8437   .debug_str:0000000000000a17 .LASF92
     /tmp/ccMn1XFx.s:8369   .debug_str:000000000000070d .LASF93
     /tmp/ccMn1XFx.s:8197   .debug_str:0000000000000096 .LASF94
     /tmp/ccMn1XFx.s:8441   .debug_str:0000000000000a43 .LASF95
     /tmp/ccMn1XFx.s:8409   .debug_str:00000000000008d8 .LASF97
     /tmp/ccMn1XFx.s:8395   .debug_str:00000000000007d5 .LASF98
     /tmp/ccMn1XFx.s:8301   .debug_str:0000000000000475 .LASF99
     /tmp/ccMn1XFx.s:8275   .debug_str:00000000000003cb .LASF137
     /tmp/ccMn1XFx.s:2138   .text:0000000000000d1c .LFB62
     /tmp/ccMn1XFx.s:2225   .text:0000000000000db0 .LFE62
     /tmp/ccMn1XFx.s:8251   .debug_str:00000000000002df .LASF101
     /tmp/ccMn1XFx.s:6689   .debug_loc:0000000000000000 .LLST69
     /tmp/ccMn1XFx.s:8421   .debug_str:0000000000000940 .LASF100
     /tmp/ccMn1XFx.s:6711   .debug_loc:000000000000005f .LLST70
     /tmp/ccMn1XFx.s:6729   .debug_loc:00000000000000ab .LLST71
GAS LISTING /tmp/ccMn1XFx.s 			page 86


     /tmp/ccMn1XFx.s:6747   .debug_loc:00000000000000f7 .LLST72
     /tmp/ccMn1XFx.s:2167   .text:0000000000000d54 .LBB127
     /tmp/ccMn1XFx.s:2198   .text:0000000000000d88 .LBE127
     /tmp/ccMn1XFx.s:6769   .debug_loc:0000000000000156 .LLST73
     /tmp/ccMn1XFx.s:1769   .text:0000000000000b20 .LFB61
     /tmp/ccMn1XFx.s:1839   .text:0000000000000b80 .LFE61
     /tmp/ccMn1XFx.s:6776   .debug_loc:0000000000000179 .LLST55
     /tmp/ccMn1XFx.s:8357   .debug_str:000000000000068c .LASF102
     /tmp/ccMn1XFx.s:8305   .debug_str:00000000000004b1 .LASF103
     /tmp/ccMn1XFx.s:6801   .debug_loc:00000000000001db .LLST56
     /tmp/ccMn1XFx.s:1706   .text:0000000000000ab8 .LFB60
     /tmp/ccMn1XFx.s:1763   .text:0000000000000b20 .LFE60
     /tmp/ccMn1XFx.s:1725   .text:0000000000000adc .LBB111
     /tmp/ccMn1XFx.s:1744   .text:0000000000000afc .LBE111
     /tmp/ccMn1XFx.s:6821   .debug_loc:0000000000000238 .LLST54
     /tmp/ccMn1XFx.s:1736   .text:0000000000000af4 .LVL198
     /tmp/ccMn1XFx.s:1723   .text:0000000000000adc .LVL196
     /tmp/ccMn1XFx.s:1749   .text:0000000000000b0c .LVL200
     /tmp/ccMn1XFx.s:1237   .text:0000000000000678 .LFB59
     /tmp/ccMn1XFx.s:1692   .text:0000000000000ab8 .LFE59
     /tmp/ccMn1XFx.s:6828   .debug_loc:000000000000025b .LLST45
     /tmp/ccMn1XFx.s:8447   .debug_str:0000000000000ab3 .LASF104
     /tmp/ccMn1XFx.s:6846   .debug_loc:00000000000002a7 .LLST46
     /tmp/ccMn1XFx.s:8365   .debug_str:00000000000006e6 .LASF105
     /tmp/ccMn1XFx.s:6853   .debug_loc:00000000000002ca .LLST47
     /tmp/ccMn1XFx.s:8343   .debug_str:000000000000060f .LASF106
     /tmp/ccMn1XFx.s:6860   .debug_loc:00000000000002ed .LLST48
     /tmp/ccMn1XFx.s:8383   .debug_str:0000000000000774 .LASF107
     /tmp/ccMn1XFx.s:6867   .debug_loc:0000000000000310 .LLST49
     /tmp/ccMn1XFx.s:8371   .debug_str:0000000000000733 .LASF108
     /tmp/ccMn1XFx.s:6874   .debug_loc:0000000000000333 .LLST50
     /tmp/ccMn1XFx.s:1390   .text:000000000000080c .LBB102
     /tmp/ccMn1XFx.s:1422   .text:0000000000000840 .LBE102
     /tmp/ccMn1XFx.s:6898   .debug_loc:0000000000000377 .LLST51
     /tmp/ccMn1XFx.s:1399   .text:0000000000000814 .LBB103
     /tmp/ccMn1XFx.s:1403   .text:0000000000000814 .LBE103
     /tmp/ccMn1XFx.s:1409   .text:0000000000000828 .LVL149
     /tmp/ccMn1XFx.s:1414   .text:0000000000000838 .LVL150
     /tmp/ccMn1XFx.s:1434   .text:0000000000000860 .LBB105
     /tmp/ccMn1XFx.s:1466   .text:0000000000000894 .LBE105
     /tmp/ccMn1XFx.s:6905   .debug_loc:000000000000039a .LLST52
     /tmp/ccMn1XFx.s:1443   .text:0000000000000868 .LBB106
     /tmp/ccMn1XFx.s:1447   .text:0000000000000868 .LBE106
     /tmp/ccMn1XFx.s:1453   .text:000000000000087c .LVL156
     /tmp/ccMn1XFx.s:1458   .text:000000000000088c .LVL157
     /tmp/ccMn1XFx.s:1478   .text:00000000000008b4 .LBB108
     /tmp/ccMn1XFx.s:1510   .text:00000000000008e8 .LBE108
     /tmp/ccMn1XFx.s:6912   .debug_loc:00000000000003bd .LLST53
     /tmp/ccMn1XFx.s:1487   .text:00000000000008bc .LBB109
     /tmp/ccMn1XFx.s:1491   .text:00000000000008bc .LBE109
     /tmp/ccMn1XFx.s:1497   .text:00000000000008d0 .LVL163
     /tmp/ccMn1XFx.s:1502   .text:00000000000008e0 .LVL164
     /tmp/ccMn1XFx.s:1263   .text:00000000000006ac .LVL125
     /tmp/ccMn1XFx.s:1268   .text:00000000000006bc .LVL126
     /tmp/ccMn1XFx.s:1273   .text:00000000000006c8 .LVL127
     /tmp/ccMn1XFx.s:1278   .text:00000000000006d8 .LVL128
     /tmp/ccMn1XFx.s:1283   .text:00000000000006e8 .LVL129
GAS LISTING /tmp/ccMn1XFx.s 			page 87


     /tmp/ccMn1XFx.s:1290   .text:00000000000006fc .LVL130
     /tmp/ccMn1XFx.s:1295   .text:000000000000070c .LVL131
     /tmp/ccMn1XFx.s:1320   .text:000000000000073c .LVL134
     /tmp/ccMn1XFx.s:1327   .text:0000000000000750 .LVL135
     /tmp/ccMn1XFx.s:1332   .text:0000000000000760 .LVL136
     /tmp/ccMn1XFx.s:1337   .text:0000000000000770 .LVL137
     /tmp/ccMn1XFx.s:1344   .text:0000000000000784 .LVL138
     /tmp/ccMn1XFx.s:1349   .text:0000000000000794 .LVL139
     /tmp/ccMn1XFx.s:1354   .text:00000000000007a4 .LVL140
     /tmp/ccMn1XFx.s:1361   .text:00000000000007b8 .LVL141
     /tmp/ccMn1XFx.s:1366   .text:00000000000007c8 .LVL142
     /tmp/ccMn1XFx.s:1371   .text:00000000000007d8 .LVL143
     /tmp/ccMn1XFx.s:1378   .text:00000000000007ec .LVL144
     /tmp/ccMn1XFx.s:1383   .text:00000000000007fc .LVL145
     /tmp/ccMn1XFx.s:1388   .text:000000000000080c .LVL146
     /tmp/ccMn1XFx.s:1427   .text:0000000000000850 .LVL152
     /tmp/ccMn1XFx.s:1432   .text:0000000000000860 .LVL153
     /tmp/ccMn1XFx.s:1471   .text:00000000000008a4 .LVL159
     /tmp/ccMn1XFx.s:1476   .text:00000000000008b4 .LVL160
     /tmp/ccMn1XFx.s:1515   .text:00000000000008f8 .LVL166
     /tmp/ccMn1XFx.s:1520   .text:0000000000000908 .LVL167
     /tmp/ccMn1XFx.s:1527   .text:000000000000091c .LVL168
     /tmp/ccMn1XFx.s:1532   .text:000000000000092c .LVL169
     /tmp/ccMn1XFx.s:1537   .text:000000000000093c .LVL170
     /tmp/ccMn1XFx.s:1544   .text:0000000000000950 .LVL171
     /tmp/ccMn1XFx.s:1549   .text:0000000000000960 .LVL172
     /tmp/ccMn1XFx.s:1554   .text:0000000000000970 .LVL173
     /tmp/ccMn1XFx.s:1561   .text:0000000000000984 .LVL174
     /tmp/ccMn1XFx.s:1566   .text:0000000000000994 .LVL175
     /tmp/ccMn1XFx.s:1595   .text:00000000000009cc .LVL179
     /tmp/ccMn1XFx.s:1602   .text:00000000000009e0 .LVL180
     /tmp/ccMn1XFx.s:1607   .text:00000000000009f0 .LVL181
     /tmp/ccMn1XFx.s:1614   .text:0000000000000a04 .LVL182
     /tmp/ccMn1XFx.s:1619   .text:0000000000000a14 .LVL183
     /tmp/ccMn1XFx.s:1624   .text:0000000000000a24 .LVL184
     /tmp/ccMn1XFx.s:1635   .text:0000000000000a40 .LVL185
     /tmp/ccMn1XFx.s:1640   .text:0000000000000a50 .LVL186
     /tmp/ccMn1XFx.s:1659   .text:0000000000000a78 .LVL189
     /tmp/ccMn1XFx.s:1664   .text:0000000000000a88 .LVL190
     /tmp/ccMn1XFx.s:1669   .text:0000000000000a98 .LVL191
     /tmp/ccMn1XFx.s:2231   .text:0000000000000db0 .LFB58
     /tmp/ccMn1XFx.s:2526   .text:0000000000000fb8 .LFE58
     /tmp/ccMn1XFx.s:6919   .debug_loc:00000000000003e0 .LLST74
     /tmp/ccMn1XFx.s:8203   .debug_str:00000000000000f2 .LASF109
     /tmp/ccMn1XFx.s:6937   .debug_loc:000000000000042c .LLST75
     /tmp/ccMn1XFx.s:8195   .debug_str:0000000000000091 .LASF110
     /tmp/ccMn1XFx.s:6955   .debug_loc:0000000000000478 .LLST76
     /tmp/ccMn1XFx.s:6997   .debug_loc:0000000000000536 .LLST77
     /tmp/ccMn1XFx.s:8455   .debug_str:0000000000000b05 .LASF111
     /tmp/ccMn1XFx.s:7052   .debug_loc:000000000000063d .LLST78
     /tmp/ccMn1XFx.s:8277   .debug_str:00000000000003e3 .LASF112
     /tmp/ccMn1XFx.s:7080   .debug_loc:00000000000006c1 .LLST79
     /tmp/ccMn1XFx.s:2261   .text:0000000000000de0 .LBB128
     /tmp/ccMn1XFx.s:8105   .debug_ranges:0000000000000000 .Ldebug_ranges0
     /tmp/ccMn1XFx.s:7100   .debug_loc:000000000000071e .LLST80
     /tmp/ccMn1XFx.s:2302   .text:0000000000000e34 .LVL259
     /tmp/ccMn1XFx.s:2318   .text:0000000000000e4c .LBB132
GAS LISTING /tmp/ccMn1XFx.s 			page 88


     /tmp/ccMn1XFx.s:7108   .debug_loc:0000000000000742 .LLST82
     /tmp/ccMn1XFx.s:2323   .text:0000000000000e5c .LVL263
     /tmp/ccMn1XFx.s:2378   .text:0000000000000eb8 .LBB136
     /tmp/ccMn1XFx.s:7121   .debug_loc:000000000000077a .LLST84
     /tmp/ccMn1XFx.s:2383   .text:0000000000000ec8 .LVL273
     /tmp/ccMn1XFx.s:2437   .text:0000000000000f28 .LBB140
     /tmp/ccMn1XFx.s:7134   .debug_loc:00000000000007b2 .LLST86
     /tmp/ccMn1XFx.s:2442   .text:0000000000000f38 .LVL283
     /tmp/ccMn1XFx.s:2271   .text:0000000000000df4 .LVL254
     /tmp/ccMn1XFx.s:2292   .text:0000000000000e18 .LVL258
     /tmp/ccMn1XFx.s:2336   .text:0000000000000e7c .LVL265
     /tmp/ccMn1XFx.s:2357   .text:0000000000000ea0 .LVL269
     /tmp/ccMn1XFx.s:2396   .text:0000000000000ee8 .LVL275
     /tmp/ccMn1XFx.s:2417   .text:0000000000000f0c .LVL279
     /tmp/ccMn1XFx.s:2495   .text:0000000000000f8c .LVL289
     /tmp/ccMn1XFx.s:1112   .text:0000000000000618 .LFB57
     /tmp/ccMn1XFx.s:1172   .text:0000000000000678 .LFE57
     /tmp/ccMn1XFx.s:8375   .debug_str:000000000000074b .LASF113
     /tmp/ccMn1XFx.s:7147   .debug_loc:00000000000007ea .LLST43
     /tmp/ccMn1XFx.s:1130   .text:0000000000000634 .LBB101
     /tmp/ccMn1XFx.s:1152   .text:000000000000065c .LBE101
     /tmp/ccMn1XFx.s:7165   .debug_loc:0000000000000836 .LLST44
     /tmp/ccMn1XFx.s:1142   .text:0000000000000650 .LVL119
     /tmp/ccMn1XFx.s:1036   .text:00000000000005c0 .LFB56
     /tmp/ccMn1XFx.s:1106   .text:0000000000000618 .LFE56
     /tmp/ccMn1XFx.s:7172   .debug_loc:0000000000000859 .LLST40
     /tmp/ccMn1XFx.s:7208   .debug_loc:00000000000008e4 .LLST41
     /tmp/ccMn1XFx.s:8311   .debug_str:00000000000004d4 .LASF114
     /tmp/ccMn1XFx.s:7224   .debug_loc:000000000000092e .LLST42
     /tmp/ccMn1XFx.s:987    .text:000000000000058c .LFB55
     /tmp/ccMn1XFx.s:1030   .text:00000000000005c0 .LFE55
     /tmp/ccMn1XFx.s:7252   .debug_loc:00000000000009b1 .LLST37
     /tmp/ccMn1XFx.s:7263   .debug_loc:00000000000009e7 .LLST38
     /tmp/ccMn1XFx.s:7275   .debug_loc:0000000000000a1e .LLST39
     /tmp/ccMn1XFx.s:923    .text:000000000000052c .LFB54
     /tmp/ccMn1XFx.s:981    .text:000000000000058c .LFE54
     /tmp/ccMn1XFx.s:7287   .debug_loc:0000000000000a55 .LLST35
     /tmp/ccMn1XFx.s:941    .text:0000000000000548 .LBB98
     /tmp/ccMn1XFx.s:963    .text:0000000000000570 .LBE98
     /tmp/ccMn1XFx.s:7305   .debug_loc:0000000000000aa1 .LLST36
     /tmp/ccMn1XFx.s:953    .text:0000000000000564 .LVL96
     /tmp/ccMn1XFx.s:2058   .text:0000000000000ca0 .LFB53
     /tmp/ccMn1XFx.s:2132   .text:0000000000000d1c .LFE53
     /tmp/ccMn1XFx.s:7316   .debug_loc:0000000000000ad7 .LLST65
     /tmp/ccMn1XFx.s:7338   .debug_loc:0000000000000b36 .LLST66
     /tmp/ccMn1XFx.s:7353   .debug_loc:0000000000000b7f .LLST67
     /tmp/ccMn1XFx.s:7364   .debug_loc:0000000000000bb5 .LLST68
     /tmp/ccMn1XFx.s:8283   .debug_str:0000000000000405 .LASF138
     /tmp/ccMn1XFx.s:2080   .text:0000000000000cc8 .LVL232
     /tmp/ccMn1XFx.s:2086   .text:0000000000000cd4 .LVL234
     /tmp/ccMn1XFx.s:2097   .text:0000000000000ce4 .LVL236
     /tmp/ccMn1XFx.s:2127   .text:0000000000000d14 .LVL241
     /tmp/ccMn1XFx.s:552    .text:0000000000000350 .LFB52
     /tmp/ccMn1XFx.s:917    .text:000000000000052c .LFE52
     /tmp/ccMn1XFx.s:7385   .debug_loc:0000000000000c13 .LLST25
     /tmp/ccMn1XFx.s:7435   .debug_loc:0000000000000cf7 .LLST26
     /tmp/ccMn1XFx.s:7485   .debug_loc:0000000000000ddb .LLST27
GAS LISTING /tmp/ccMn1XFx.s 			page 89


     /tmp/ccMn1XFx.s:7522   .debug_loc:0000000000000e85 .LLST28
     /tmp/ccMn1XFx.s:8381   .debug_str:000000000000076b .LASF115
     /tmp/ccMn1XFx.s:7538   .debug_loc:0000000000000ecf .LLST29
     /tmp/ccMn1XFx.s:8405   .debug_str:00000000000008ba .LASF116
     /tmp/ccMn1XFx.s:7565   .debug_loc:0000000000000f15 .LLST30
     /tmp/ccMn1XFx.s:681    .text:00000000000003fc .LBB77
     /tmp/ccMn1XFx.s:691    .text:0000000000000408 .LBE77
     /tmp/ccMn1XFx.s:7586   .debug_loc:0000000000000f73 .LLST31
     /tmp/ccMn1XFx.s:660    .text:00000000000003e0 .LVL71
     /tmp/ccMn1XFx.s:671    .text:00000000000003f0 .LVL72
     /tmp/ccMn1XFx.s:747    .text:0000000000000444 .LBB88
     /tmp/ccMn1XFx.s:892    .text:0000000000000508 .LBE88
     /tmp/ccMn1XFx.s:7593   .debug_loc:0000000000000f96 .LLST32
     /tmp/ccMn1XFx.s:7609   .debug_loc:0000000000000fe0 .LLST33
     /tmp/ccMn1XFx.s:845    .text:00000000000004c4 .LBB92
     /tmp/ccMn1XFx.s:854    .text:00000000000004d0 .LBE92
     /tmp/ccMn1XFx.s:7636   .debug_loc:0000000000001026 .LLST34
     /tmp/ccMn1XFx.s:824    .text:00000000000004a8 .LVL86
     /tmp/ccMn1XFx.s:835    .text:00000000000004b8 .LVL87
     /tmp/ccMn1XFx.s:149    .text:00000000000000d0 .LFB51
     /tmp/ccMn1XFx.s:336    .text:00000000000001f4 .LFE51
     /tmp/ccMn1XFx.s:7643   .debug_loc:0000000000001049 .LLST8
     /tmp/ccMn1XFx.s:7661   .debug_loc:0000000000001095 .LLST9
     /tmp/ccMn1XFx.s:7684   .debug_loc:00000000000010f5 .LLST10
     /tmp/ccMn1XFx.s:223    .text:000000000000014c .LBB62
     /tmp/ccMn1XFx.s:243    .text:0000000000000168 .LBE62
     /tmp/ccMn1XFx.s:7697   .debug_loc:000000000000112d .LLST13
     /tmp/ccMn1XFx.s:271    .text:0000000000000194 .LBB65
     /tmp/ccMn1XFx.s:303    .text:00000000000001c0 .LBE65
     /tmp/ccMn1XFx.s:7713   .debug_loc:0000000000001177 .LLST14
     /tmp/ccMn1XFx.s:7725   .debug_loc:00000000000011ae .LLST15
     /tmp/ccMn1XFx.s:290    .text:00000000000001b0 .LVL32
     /tmp/ccMn1XFx.s:7732   .debug_loc:00000000000011d1 .LLST7
     /tmp/ccMn1XFx.s:172    .text:00000000000000f4 .LBB59
     /tmp/ccMn1XFx.s:7750   .debug_loc:000000000000120e .LLST11
     /tmp/ccMn1XFx.s:249    .text:0000000000000178 .LVL26
     /tmp/ccMn1XFx.s:194    .text:0000000000000120 .LVL18
     /tmp/ccMn1XFx.s:1845   .text:0000000000000b80 .LFB50
     /tmp/ccMn1XFx.s:2052   .text:0000000000000ca0 .LFE50
     /tmp/ccMn1XFx.s:7763   .debug_loc:0000000000001246 .LLST57
     /tmp/ccMn1XFx.s:1954   .text:0000000000000c18 .LBB117
     /tmp/ccMn1XFx.s:2035   .text:0000000000000c88 .LBE117
     /tmp/ccMn1XFx.s:7785   .debug_loc:00000000000012a5 .LLST61
     /tmp/ccMn1XFx.s:1999   .text:0000000000000c58 .LBB123
     /tmp/ccMn1XFx.s:2028   .text:0000000000000c84 .LBE123
     /tmp/ccMn1XFx.s:7792   .debug_loc:00000000000012c8 .LLST64
     /tmp/ccMn1XFx.s:1972   .text:0000000000000c3c .LBB118
     /tmp/ccMn1XFx.s:1981   .text:0000000000000c48 .LBE118
     /tmp/ccMn1XFx.s:7804   .debug_loc:00000000000012ff .LLST62
     /tmp/ccMn1XFx.s:1987   .text:0000000000000c4c .LBB121
     /tmp/ccMn1XFx.s:1994   .text:0000000000000c50 .LBE121
     /tmp/ccMn1XFx.s:7811   .debug_loc:0000000000001322 .LLST63
     /tmp/ccMn1XFx.s:1961   .text:0000000000000c2c .LVL221
     /tmp/ccMn1XFx.s:1874   .text:0000000000000ba8 .LBB114
     /tmp/ccMn1XFx.s:1934   .text:0000000000000c04 .LBE114
     /tmp/ccMn1XFx.s:8325   .debug_str:0000000000000539 .LASF117
     /tmp/ccMn1XFx.s:7818   .debug_loc:0000000000001345 .LLST58
GAS LISTING /tmp/ccMn1XFx.s 			page 90


     /tmp/ccMn1XFx.s:7825   .debug_loc:0000000000001368 .LLST59
     /tmp/ccMn1XFx.s:1905   .text:0000000000000bdc .LBB115
     /tmp/ccMn1XFx.s:1914   .text:0000000000000be8 .LBE115
     /tmp/ccMn1XFx.s:7837   .debug_loc:000000000000139f .LLST60
     /tmp/ccMn1XFx.s:1882   .text:0000000000000bbc .LVL213
     /tmp/ccMn1XFx.s:2040   .text:0000000000000c90 .LVL229
     /tmp/ccMn1XFx.s:10     .text:0000000000000000 .LFB49
     /tmp/ccMn1XFx.s:143    .text:00000000000000d0 .LFE49
     /tmp/ccMn1XFx.s:7844   .debug_loc:00000000000013c2 .LLST0
     /tmp/ccMn1XFx.s:8463   .debug_str:0000000000000b4a .LASF118
     /tmp/ccMn1XFx.s:7862   .debug_loc:000000000000140e .LLST1
     /tmp/ccMn1XFx.s:7885   .debug_loc:000000000000147d .LLST2
     /tmp/ccMn1XFx.s:7896   .debug_loc:00000000000014b3 .LLST3
     /tmp/ccMn1XFx.s:58     .text:0000000000000044 .LBB55
     /tmp/ccMn1XFx.s:7907   .debug_loc:00000000000014e9 .LLST4
     /tmp/ccMn1XFx.s:64     .text:0000000000000054 .LVL6
     /tmp/ccMn1XFx.s:77     .text:0000000000000074 .LVL8
     /tmp/ccMn1XFx.s:342    .text:00000000000001f4 .LFB48
     /tmp/ccMn1XFx.s:546    .text:0000000000000350 .LFE48
     /tmp/ccMn1XFx.s:7920   .debug_loc:0000000000001521 .LLST16
     /tmp/ccMn1XFx.s:7950   .debug_loc:00000000000015a6 .LLST17
     /tmp/ccMn1XFx.s:7980   .debug_loc:000000000000162b .LLST18
     /tmp/ccMn1XFx.s:8010   .debug_loc:00000000000016b0 .LLST19
     /tmp/ccMn1XFx.s:8040   .debug_loc:0000000000001735 .LLST20
     /tmp/ccMn1XFx.s:8199   .debug_str:00000000000000ab .LASF119
     /tmp/ccMn1XFx.s:8051   .debug_loc:000000000000176b .LLST21
     /tmp/ccMn1XFx.s:8068   .debug_loc:0000000000001798 .LLST22
     /tmp/ccMn1XFx.s:391    .text:0000000000000244 .LBB68
     /tmp/ccMn1XFx.s:8079   .debug_loc:00000000000017ce .LLST23
     /tmp/ccMn1XFx.s:478    .text:00000000000002e0 .LVL49
     /tmp/ccMn1XFx.s:409    .text:0000000000000268 .LVL45
     /tmp/ccMn1XFx.s:500    .text:000000000000030c .LVL52
     /tmp/ccMn1XFx.s:8297   .debug_str:0000000000000464 .LASF120
     /tmp/ccMn1XFx.s:8461   .debug_str:0000000000000b40 .LASF121
     /tmp/ccMn1XFx.s:8189   .debug_str:000000000000002b .LASF139
     /tmp/ccMn1XFx.s:8337   .debug_str:00000000000005b2 .LASF122
     /tmp/ccMn1XFx.s:8345   .debug_str:0000000000000614 .LASF124
     /tmp/ccMn1XFx.s:8367   .debug_str:00000000000006fe .LASF123
     /tmp/ccMn1XFx.s:8335   .debug_str:00000000000005a9 .LASF125
     /tmp/ccMn1XFx.s:8459   .debug_str:0000000000000b27 .LASF126
     /tmp/ccMn1XFx.s:8317   .debug_str:0000000000000501 .LASF127
     /tmp/ccMn1XFx.s:8237   .debug_str:0000000000000252 .LASF128
     /tmp/ccMn1XFx.s:8457   .debug_str:0000000000000b0b .LASF129
     /tmp/ccMn1XFx.s:2141   .text:0000000000000d1c .LVL242
     /tmp/ccMn1XFx.s:2171   .text:0000000000000d5c .LVL243
     /tmp/ccMn1XFx.s:2210   .text:0000000000000d98 .LVL247
     /tmp/ccMn1XFx.s:2221   .text:0000000000000dac .LVL249
     /tmp/ccMn1XFx.s:2215   .text:0000000000000da0 .LVL248
     /tmp/ccMn1XFx.s:2207   .text:0000000000000d94 .LVL246
     /tmp/ccMn1XFx.s:1772   .text:0000000000000b20 .LVL202
     /tmp/ccMn1XFx.s:1816   .text:0000000000000b64 .LVL207
     /tmp/ccMn1XFx.s:1831   .text:0000000000000b78 .LVL209
     /tmp/ccMn1XFx.s:1836   .text:0000000000000b7c .LVL210
     /tmp/ccMn1XFx.s:1780   .text:0000000000000b2c .LVL203
     /tmp/ccMn1XFx.s:1783   .text:0000000000000b30 .LVL204
     /tmp/ccMn1XFx.s:1798   .text:0000000000000b48 .LVL205
     /tmp/ccMn1XFx.s:1801   .text:0000000000000b4c .LVL206
GAS LISTING /tmp/ccMn1XFx.s 			page 91


     /tmp/ccMn1XFx.s:1819   .text:0000000000000b68 .LVL208
     /tmp/ccMn1XFx.s:1728   .text:0000000000000ae4 .LVL197
     /tmp/ccMn1XFx.s:1758   .text:0000000000000b18 .LVL201
     /tmp/ccMn1XFx.s:1240   .text:0000000000000678 .LVL123
     /tmp/ccMn1XFx.s:1261   .text:00000000000006a4 .LVL124
     /tmp/ccMn1XFx.s:1681   .text:0000000000000aa8 .LVL193
     /tmp/ccMn1XFx.s:1307   .text:0000000000000720 .LVL132
     /tmp/ccMn1XFx.s:1684   .text:0000000000000aac .LVL194
     /tmp/ccMn1XFx.s:1315   .text:000000000000072c .LVL133
     /tmp/ccMn1XFx.s:1393   .text:0000000000000810 .LVL147
     /tmp/ccMn1XFx.s:1579   .text:00000000000009ac .LVL176
     /tmp/ccMn1XFx.s:1687   .text:0000000000000ab0 .LVL195
     /tmp/ccMn1XFx.s:1590   .text:00000000000009bc .LVL178
     /tmp/ccMn1XFx.s:1678   .text:0000000000000aa4 .LVL192
     /tmp/ccMn1XFx.s:1651   .text:0000000000000a64 .LVL187
     /tmp/ccMn1XFx.s:1657   .text:0000000000000a70 .LVL188
     /tmp/ccMn1XFx.s:1437   .text:0000000000000864 .LVL154
     /tmp/ccMn1XFx.s:1481   .text:00000000000008b8 .LVL161
     /tmp/ccMn1XFx.s:1583   .text:00000000000009b0 .LVL177
     /tmp/ccMn1XFx.s:2234   .text:0000000000000db0 .LVL250
     /tmp/ccMn1XFx.s:2259   .text:0000000000000de0 .LVL253
     /tmp/ccMn1XFx.s:2435   .text:0000000000000f28 .LVL282
     /tmp/ccMn1XFx.s:2521   .text:0000000000000fb0 .LVL293
     /tmp/ccMn1XFx.s:2254   .text:0000000000000dd8 .LVL251
     /tmp/ccMn1XFx.s:2274   .text:0000000000000df8 .LVL255
     /tmp/ccMn1XFx.s:2280   .text:0000000000000dfc .LVL256
     /tmp/ccMn1XFx.s:2306   .text:0000000000000e44 .LVL260
     /tmp/ccMn1XFx.s:2316   .text:0000000000000e4c .LVL262
     /tmp/ccMn1XFx.s:2339   .text:0000000000000e80 .LVL266
     /tmp/ccMn1XFx.s:2345   .text:0000000000000e84 .LVL267
     /tmp/ccMn1XFx.s:2366   .text:0000000000000eb0 .LVL270
     /tmp/ccMn1XFx.s:2376   .text:0000000000000eb8 .LVL272
     /tmp/ccMn1XFx.s:2399   .text:0000000000000eec .LVL276
     /tmp/ccMn1XFx.s:2405   .text:0000000000000ef0 .LVL277
     /tmp/ccMn1XFx.s:2426   .text:0000000000000f1c .LVL280
     /tmp/ccMn1XFx.s:2257   .text:0000000000000ddc .LVL252
     /tmp/ccMn1XFx.s:2284   .text:0000000000000e00 .LVL257
     /tmp/ccMn1XFx.s:2349   .text:0000000000000e88 .LVL268
     /tmp/ccMn1XFx.s:2409   .text:0000000000000ef4 .LVL278
     /tmp/ccMn1XFx.s:2433   .text:0000000000000f24 .LVL281
     /tmp/ccMn1XFx.s:2446   .text:0000000000000f48 .LVL284
     /tmp/ccMn1XFx.s:2456   .text:0000000000000f50 .LVL285
     /tmp/ccMn1XFx.s:2483   .text:0000000000000f74 .LVL287
     /tmp/ccMn1XFx.s:2500   .text:0000000000000f94 .LVL290
     /tmp/ccMn1XFx.s:2504   .text:0000000000000f98 .LVL291
     /tmp/ccMn1XFx.s:2516   .text:0000000000000fa8 .LVL292
     /tmp/ccMn1XFx.s:2329   .text:0000000000000e68 .LVL264
     /tmp/ccMn1XFx.s:2389   .text:0000000000000ed4 .LVL274
     /tmp/ccMn1XFx.s:2477   .text:0000000000000f6c .LVL286
     /tmp/ccMn1XFx.s:2488   .text:0000000000000f78 .LVL288
     /tmp/ccMn1XFx.s:1115   .text:0000000000000618 .LVL117
     /tmp/ccMn1XFx.s:1133   .text:000000000000063c .LVL118
     /tmp/ccMn1XFx.s:1167   .text:0000000000000670 .LVL122
     /tmp/ccMn1XFx.s:1164   .text:000000000000066c .LVL121
     /tmp/ccMn1XFx.s:1039   .text:00000000000005c0 .LVL105
     /tmp/ccMn1XFx.s:1082   .text:00000000000005fc .LVL112
     /tmp/ccMn1XFx.s:1084   .text:0000000000000600 .LVL113
GAS LISTING /tmp/ccMn1XFx.s 			page 92


     /tmp/ccMn1XFx.s:1088   .text:0000000000000604 .LVL114
     /tmp/ccMn1XFx.s:1098   .text:0000000000000610 .LVL115
     /tmp/ccMn1XFx.s:1103   .text:0000000000000614 .LVL116
     /tmp/ccMn1XFx.s:1047   .text:00000000000005cc .LVL106
     /tmp/ccMn1XFx.s:1054   .text:00000000000005d8 .LVL107
     /tmp/ccMn1XFx.s:1078   .text:00000000000005f4 .LVL111
     /tmp/ccMn1XFx.s:1058   .text:00000000000005dc .LVL108
     /tmp/ccMn1XFx.s:1070   .text:00000000000005e8 .LVL110
     /tmp/ccMn1XFx.s:990    .text:000000000000058c .LVL100
     /tmp/ccMn1XFx.s:1007   .text:00000000000005a4 .LVL102
     /tmp/ccMn1XFx.s:999    .text:000000000000059c .LVL101
     /tmp/ccMn1XFx.s:926    .text:000000000000052c .LVL94
     /tmp/ccMn1XFx.s:944    .text:0000000000000550 .LVL95
     /tmp/ccMn1XFx.s:976    .text:0000000000000584 .LVL99
     /tmp/ccMn1XFx.s:973    .text:0000000000000580 .LVL98
     /tmp/ccMn1XFx.s:2061   .text:0000000000000ca0 .LVL230
     /tmp/ccMn1XFx.s:2078   .text:0000000000000cc0 .LVL231
     /tmp/ccMn1XFx.s:2109   .text:0000000000000cf0 .LVL237
     /tmp/ccMn1XFx.s:2116   .text:0000000000000cfc .LVL239
     /tmp/ccMn1XFx.s:2082   .text:0000000000000ccc .LVL233
     /tmp/ccMn1XFx.s:2112   .text:0000000000000cf4 .LVL238
     /tmp/ccMn1XFx.s:2092   .text:0000000000000cdc .LVL235
     /tmp/ccMn1XFx.s:2125   .text:0000000000000d0c .LVL240
     /tmp/ccMn1XFx.s:555    .text:0000000000000350 .LVL59
     /tmp/ccMn1XFx.s:585    .text:0000000000000384 .LVL62
     /tmp/ccMn1XFx.s:599    .text:0000000000000390 .LVL65
     /tmp/ccMn1XFx.s:658    .text:00000000000003dc .LVL70
     /tmp/ccMn1XFx.s:739    .text:0000000000000444 .LVL77
     /tmp/ccMn1XFx.s:752    .text:000000000000044c .LVL79
     /tmp/ccMn1XFx.s:763    .text:0000000000000458 .LVL80
     /tmp/ccMn1XFx.s:822    .text:00000000000004a4 .LVL85
     /tmp/ccMn1XFx.s:887    .text:0000000000000508 .LVL90
     /tmp/ccMn1XFx.s:895    .text:000000000000050c .LVL91
     /tmp/ccMn1XFx.s:912    .text:0000000000000524 .LVL93
     /tmp/ccMn1XFx.s:909    .text:0000000000000520 .LVL92
     /tmp/ccMn1XFx.s:575    .text:0000000000000378 .LVL60
     /tmp/ccMn1XFx.s:612    .text:0000000000000398 .LVL66
     /tmp/ccMn1XFx.s:776    .text:0000000000000460 .LVL81
     /tmp/ccMn1XFx.s:580    .text:000000000000037c .LVL61
     /tmp/ccMn1XFx.s:640    .text:00000000000003c4 .LVL67
     /tmp/ccMn1XFx.s:646    .text:00000000000003cc .LVL68
     /tmp/ccMn1XFx.s:649    .text:00000000000003d0 .LVL69
     /tmp/ccMn1XFx.s:594    .text:0000000000000388 .LVL63
     /tmp/ccMn1XFx.s:597    .text:000000000000038c .LVL64
     /tmp/ccMn1XFx.s:689    .text:0000000000000408 .LVL74
     /tmp/ccMn1XFx.s:709    .text:0000000000000414 .LVL75
     /tmp/ccMn1XFx.s:712    .text:0000000000000418 .LVL76
     /tmp/ccMn1XFx.s:680    .text:00000000000003fc .LVL73
     /tmp/ccMn1XFx.s:750    .text:0000000000000448 .LVL78
     /tmp/ccMn1XFx.s:804    .text:000000000000048c .LVL82
     /tmp/ccMn1XFx.s:810    .text:0000000000000494 .LVL83
     /tmp/ccMn1XFx.s:813    .text:0000000000000498 .LVL84
     /tmp/ccMn1XFx.s:844    .text:00000000000004c4 .LVL88
     /tmp/ccMn1XFx.s:852    .text:00000000000004d0 .LVL89
     /tmp/ccMn1XFx.s:152    .text:00000000000000d0 .LVL15
     /tmp/ccMn1XFx.s:178    .text:0000000000000100 .LVL17
     /tmp/ccMn1XFx.s:324    .text:00000000000001e0 .LVL37
GAS LISTING /tmp/ccMn1XFx.s 			page 93


     /tmp/ccMn1XFx.s:196    .text:0000000000000124 .LVL19
     /tmp/ccMn1XFx.s:241    .text:0000000000000168 .LVL25
     /tmp/ccMn1XFx.s:253    .text:0000000000000188 .LVL27
     /tmp/ccMn1XFx.s:277    .text:000000000000019c .LVL31
     /tmp/ccMn1XFx.s:331    .text:00000000000001ec .LVL38
     /tmp/ccMn1XFx.s:221    .text:000000000000014c .LVL22
     /tmp/ccMn1XFx.s:317    .text:00000000000001d4 .LVL36
     /tmp/ccMn1XFx.s:226    .text:0000000000000150 .LVL23
     /tmp/ccMn1XFx.s:264    .text:0000000000000190 .LVL28
     /tmp/ccMn1XFx.s:269    .text:0000000000000194 .LVL29
     /tmp/ccMn1XFx.s:301    .text:00000000000001c0 .LVL35
     /tmp/ccMn1XFx.s:274    .text:0000000000000198 .LVL30
     /tmp/ccMn1XFx.s:214    .text:000000000000013c .LVL20
     /tmp/ccMn1XFx.s:217    .text:0000000000000140 .LVL21
     /tmp/ccMn1XFx.s:171    .text:00000000000000f4 .LVL16
     /tmp/ccMn1XFx.s:1848   .text:0000000000000b80 .LVL211
     /tmp/ccMn1XFx.s:1880   .text:0000000000000bb4 .LVL212
     /tmp/ccMn1XFx.s:1946   .text:0000000000000c10 .LVL219
     /tmp/ccMn1XFx.s:1950   .text:0000000000000c18 .LVL220
     /tmp/ccMn1XFx.s:2033   .text:0000000000000c88 .LVL228
     /tmp/ccMn1XFx.s:2001   .text:0000000000000c58 .LVL226
     /tmp/ccMn1XFx.s:2018   .text:0000000000000c70 .LVL227
     /tmp/ccMn1XFx.s:1971   .text:0000000000000c3c .LVL222
     /tmp/ccMn1XFx.s:1979   .text:0000000000000c48 .LVL223
     /tmp/ccMn1XFx.s:1986   .text:0000000000000c4c .LVL224
     /tmp/ccMn1XFx.s:1992   .text:0000000000000c50 .LVL225
     /tmp/ccMn1XFx.s:1932   .text:0000000000000c04 .LVL218
     /tmp/ccMn1XFx.s:1892   .text:0000000000000bcc .LVL214
     /tmp/ccMn1XFx.s:1921   .text:0000000000000bf0 .LVL217
     /tmp/ccMn1XFx.s:1904   .text:0000000000000bdc .LVL215
     /tmp/ccMn1XFx.s:1912   .text:0000000000000be8 .LVL216
     /tmp/ccMn1XFx.s:14     .text:0000000000000000 .LVL0
     /tmp/ccMn1XFx.s:54     .text:0000000000000040 .LVL4
     /tmp/ccMn1XFx.s:136    .text:00000000000000c4 .LVL14
     /tmp/ccMn1XFx.s:40     .text:0000000000000030 .LVL1
     /tmp/ccMn1XFx.s:46     .text:0000000000000038 .LVL3
     /tmp/ccMn1XFx.s:56     .text:0000000000000044 .LVL5
     /tmp/ccMn1XFx.s:80     .text:0000000000000078 .LVL9
     /tmp/ccMn1XFx.s:90     .text:0000000000000080 .LVL11
     /tmp/ccMn1XFx.s:99     .text:0000000000000090 .LVL12
     /tmp/ccMn1XFx.s:122    .text:00000000000000b0 .LVL13
     /tmp/ccMn1XFx.s:86     .text:000000000000007c .LVL10
     /tmp/ccMn1XFx.s:44     .text:0000000000000034 .LVL2
     /tmp/ccMn1XFx.s:70     .text:0000000000000060 .LVL7
     /tmp/ccMn1XFx.s:345    .text:00000000000001f4 .LVL39
     /tmp/ccMn1XFx.s:398    .text:0000000000000250 .LVL44
     /tmp/ccMn1XFx.s:470    .text:00000000000002d0 .LVL47
     /tmp/ccMn1XFx.s:476    .text:00000000000002d8 .LVL48
     /tmp/ccMn1XFx.s:527    .text:0000000000000338 .LVL55
     /tmp/ccMn1XFx.s:537    .text:0000000000000348 .LVL58
     /tmp/ccMn1XFx.s:524    .text:0000000000000334 .LVL54
     /tmp/ccMn1XFx.s:533    .text:0000000000000340 .LVL57
     /tmp/ccMn1XFx.s:530    .text:000000000000033c .LVL56
     /tmp/ccMn1XFx.s:411    .text:000000000000026c .LVL46
     /tmp/ccMn1XFx.s:482    .text:00000000000002f0 .LVL50
     /tmp/ccMn1XFx.s:510    .text:0000000000000320 .LVL53
     /tmp/ccMn1XFx.s:492    .text:00000000000002fc .LVL51
GAS LISTING /tmp/ccMn1XFx.s 			page 94


     /tmp/ccMn1XFx.s:372    .text:0000000000000230 .LVL40
     /tmp/ccMn1XFx.s:396    .text:000000000000024c .LVL43
     /tmp/ccMn1XFx.s:390    .text:0000000000000244 .LVL42
     /tmp/ccMn1XFx.s:2557   .debug_info:0000000000000000 .Ldebug_info0
     /tmp/ccMn1XFx.s:72     .text:0000000000000060 .LBE55
     /tmp/ccMn1XFx.s:92     .text:0000000000000080 .LBB58
     /tmp/ccMn1XFx.s:102    .text:0000000000000090 .LBE58
     /tmp/ccMn1XFx.s:183    .text:0000000000000100 .LBE59
     /tmp/ccMn1XFx.s:244    .text:0000000000000168 .LBB63
     /tmp/ccMn1XFx.s:256    .text:0000000000000188 .LBE63
     /tmp/ccMn1XFx.s:369    .text:0000000000000228 .LBB67
     /tmp/ccMn1XFx.s:388    .text:0000000000000244 .LBE67
     /tmp/ccMn1XFx.s:540    .text:0000000000000348 .LBB72
     /tmp/ccMn1XFx.s:544    .text:0000000000000350 .LBE72
     /tmp/ccMn1XFx.s:403    .text:0000000000000250 .LBE68
     /tmp/ccMn1XFx.s:472    .text:00000000000002d0 .LBB71
     /tmp/ccMn1XFx.s:485    .text:00000000000002f0 .LBE71
     /tmp/ccMn1XFx.s:577    .text:0000000000000378 .LBB73
     /tmp/ccMn1XFx.s:581    .text:000000000000037c .LBE73
     /tmp/ccMn1XFx.s:587    .text:0000000000000384 .LBB86
     /tmp/ccMn1XFx.s:696    .text:0000000000000408 .LBE86
     /tmp/ccMn1XFx.s:698    .text:0000000000000408 .LBB87
     /tmp/ccMn1XFx.s:744    .text:0000000000000444 .LBE87
     /tmp/ccMn1XFx.s:590    .text:0000000000000384 .LBB76
     /tmp/ccMn1XFx.s:601    .text:0000000000000390 .LBE76
     /tmp/ccMn1XFx.s:630    .text:00000000000003b4 .LBB79
     /tmp/ccMn1XFx.s:693    .text:0000000000000408 .LBE79
     /tmp/ccMn1XFx.s:701    .text:0000000000000408 .LBB80
     /tmp/ccMn1XFx.s:741    .text:0000000000000444 .LBE80
     /tmp/ccMn1XFx.s:756    .text:000000000000044c .LBB91
     /tmp/ccMn1XFx.s:765    .text:0000000000000458 .LBE91
     /tmp/ccMn1XFx.s:794    .text:000000000000047c .LBB94
     /tmp/ccMn1XFx.s:889    .text:0000000000000508 .LBE94
     /tmp/ccMn1XFx.s:1001   .text:000000000000059c .LBB99
     /tmp/ccMn1XFx.s:1004   .text:00000000000005a0 .LBE99
     /tmp/ccMn1XFx.s:1009   .text:00000000000005a4 .LBB100
     /tmp/ccMn1XFx.s:1021   .text:00000000000005b4 .LBE100
     /tmp/ccMn1XFx.s:2266   .text:0000000000000de0 .LBE128
     /tmp/ccMn1XFx.s:2294   .text:0000000000000e18 .LBB131
     /tmp/ccMn1XFx.s:2309   .text:0000000000000e44 .LBE131
     /tmp/ccMn1XFx.s:2331   .text:0000000000000e68 .LBE132
     /tmp/ccMn1XFx.s:2359   .text:0000000000000ea0 .LBB135
     /tmp/ccMn1XFx.s:2369   .text:0000000000000eb0 .LBE135
     /tmp/ccMn1XFx.s:2391   .text:0000000000000ed4 .LBE136
     /tmp/ccMn1XFx.s:2419   .text:0000000000000f0c .LBB139
     /tmp/ccMn1XFx.s:2429   .text:0000000000000f1c .LBE139
     /tmp/ccMn1XFx.s:2449   .text:0000000000000f48 .LBE140
     /tmp/ccMn1XFx.s:2478   .text:0000000000000f6c .LBB143
     /tmp/ccMn1XFx.s:2490   .text:0000000000000f78 .LBE143

UNDEFINED SYMBOLS
_ZN11BuddySystemC1Ev
_ZN11BuddySystem9buddyFreeEm
_ZN11BuddySystem10buddyAllocEm
_Z14string_comparePKcS0_
_Z11printStringPKc
_Z8printIntiii
GAS LISTING /tmp/ccMn1XFx.s 			page 95


_Z27concatenate_int_to_char_ptri
