GAS LISTING /tmp/cc3TMrd5.s 			page 1


   1              		.file	"SlabI.cpp"
   2              		.option pic
   3              		.option norelax
   4              		.text
   5              	.Ltext0:
   6              		.align	2
   7              		.globl	_Z9kmem_initPvi
   9              	_Z9kmem_initPvi:
  10              	.LFB8:
  11              		.file 1 "src/SlabI.cpp"
   1:src/SlabI.cpp **** //
   2:src/SlabI.cpp **** // Created by os on 8/18/23.
   3:src/SlabI.cpp **** 
   4:src/SlabI.cpp **** #include "../h/SlabI.h"
   5:src/SlabI.cpp **** #include "../h/Buddy.h"
   6:src/SlabI.cpp **** #include "../h/Slab.h"
   7:src/SlabI.cpp **** 
   8:src/SlabI.cpp **** //
   9:src/SlabI.cpp **** void kmem_init(void *space, int block_num) {
  12              		.loc 1 9 44
  13              		.cfi_startproc
  14              	.LVL0:
  15 0000 130101FE 		addi	sp,sp,-32
  16              		.cfi_def_cfa_offset 32
  17 0004 233C1100 		sd	ra,24(sp)
  18 0008 23388100 		sd	s0,16(sp)
  19 000c 23349100 		sd	s1,8(sp)
  20 0010 23302101 		sd	s2,0(sp)
  21              		.cfi_offset 1, -8
  22              		.cfi_offset 8, -16
  23              		.cfi_offset 9, -24
  24              		.cfi_offset 18, -32
  25 0014 13040102 		addi	s0,sp,32
  26              		.cfi_def_cfa 8, 0
  27 0018 13090500 		mv	s2,a0
  28 001c 93840500 		mv	s1,a1
  10:src/SlabI.cpp ****     BuddySystem::getInstance(space, block_num);
  29              		.loc 1 10 5
  30              	.LVL1:
  31              	.LBB4:
  32              	.LBB5:
  33              		.file 2 "src/../h/Buddy.h"
   1:src/../h/Buddy.h **** //
   2:src/../h/Buddy.h **** // Created by os on 8/12/23.
   3:src/../h/Buddy.h **** //
   4:src/../h/Buddy.h **** 
   5:src/../h/Buddy.h **** #ifndef PROJECT_BASE_V1_1_BUDDY_H
   6:src/../h/Buddy.h **** #define PROJECT_BASE_V1_1_BUDDY_H
   7:src/../h/Buddy.h **** 
   8:src/../h/Buddy.h **** #include "../lib/hw.h"
   9:src/../h/Buddy.h **** 
  10:src/../h/Buddy.h **** class BuddySystem{
  11:src/../h/Buddy.h **** public:
  12:src/../h/Buddy.h **** 
  13:src/../h/Buddy.h ****     void* buddyAlloc(size_t size);
  14:src/../h/Buddy.h ****     void buddyFree(size_t addr);
  15:src/../h/Buddy.h **** 
GAS LISTING /tmp/cc3TMrd5.s 			page 2


  16:src/../h/Buddy.h ****     static BuddySystem& getInstance(void *space = nullptr, int block_num = 0){
  17:src/../h/Buddy.h ****         static BuddySystem bs;
  34              		.loc 2 17 9
  35              		.loc 2 17 28 is_stmt 0
  36 0020 97070000 		lbu	a5,_ZGVZN11BuddySystem11getInstanceEPviE2bs
  36      83C70700 
  37 0028 638E0702 		beqz	a5,.L5
  38              	.LVL2:
  39              	.L2:
  18:src/../h/Buddy.h ****         if(block_num != 0 && space != nullptr){
  40              		.loc 2 18 9 is_stmt 1
  41 002c 63800402 		beqz	s1,.L1
  42              		.loc 2 18 27 is_stmt 0
  43 0030 630E0900 		beqz	s2,.L1
  19:src/../h/Buddy.h ****             bs.buddyHeapStart = (size_t)space;
  44              		.loc 2 19 13 is_stmt 1
  45              		.loc 2 19 31 is_stmt 0
  46 0034 17050000 		lla	a0,_ZZN11BuddySystem11getInstanceEPviE2bs
  46      13050500 
  47 003c 23302515 		sd	s2,320(a0)
  20:src/../h/Buddy.h ****             bs.buddyNumOfBlocks = block_num;
  48              		.loc 2 20 13 is_stmt 1
  49              		.loc 2 20 33 is_stmt 0
  50 0040 23389514 		sd	s1,336(a0)
  21:src/../h/Buddy.h ****             bs.initBuddy();
  51              		.loc 2 21 13 is_stmt 1
  52              		.loc 2 21 25 is_stmt 0
  53 0044 97000000 		call	_ZN11BuddySystem9initBuddyEv@plt
  53      E7800000 
  54              	.LVL3:
  22:src/../h/Buddy.h ****         }
  23:src/../h/Buddy.h ****         return bs;
  55              		.loc 2 23 9 is_stmt 1
  56              	.L1:
  57              	.LBE5:
  58              	.LBE4:
  11:src/SlabI.cpp **** }
  59              		.loc 1 11 1 is_stmt 0
  60 004c 83308101 		ld	ra,24(sp)
  61              		.cfi_remember_state
  62              		.cfi_restore 1
  63 0050 03340101 		ld	s0,16(sp)
  64              		.cfi_restore 8
  65              		.cfi_def_cfa 2, 32
  66 0054 83348100 		ld	s1,8(sp)
  67              		.cfi_restore 9
  68 0058 03390100 		ld	s2,0(sp)
  69              		.cfi_restore 18
  70              	.LVL4:
  71 005c 13010102 		addi	sp,sp,32
  72              		.cfi_def_cfa_offset 0
  73 0060 67800000 		jr	ra
  74              	.LVL5:
  75              	.L5:
  76              		.cfi_restore_state
  77              	.LBB7:
  78              	.LBB6:
GAS LISTING /tmp/cc3TMrd5.s 			page 3


  17:src/../h/Buddy.h ****         if(block_num != 0 && space != nullptr){
  79              		.loc 2 17 28
  80 0064 17050000 		lla	a0,_ZZN11BuddySystem11getInstanceEPviE2bs
  80      13050500 
  81              	.LVL6:
  82 006c 97000000 		call	_ZN11BuddySystemC1Ev@plt
  82      E7800000 
  83              	.LVL7:
  84 0074 93071000 		li	a5,1
  85 0078 17070000 		sb	a5,_ZGVZN11BuddySystem11getInstanceEPviE2bs,a4
  85      2300F700 
  86 0080 6FF0DFFA 		j	.L2
  87              	.LBE6:
  88              	.LBE7:
  89              		.cfi_endproc
  90              	.LFE8:
  92              		.align	2
  93              		.globl	_Z17kmem_cache_createPKcmPFvPvES3_
  95              	_Z17kmem_cache_createPKcmPFvPvES3_:
  96              	.LFB9:
  12:src/SlabI.cpp **** 
  13:src/SlabI.cpp **** kmem_cache_t *kmem_cache_create(const char *name, size_t size, void (*ctor)(void *), void (*dtor)(v
  97              		.loc 1 13 108 is_stmt 1
  98              		.cfi_startproc
  99              	.LVL8:
 100 0084 130101FD 		addi	sp,sp,-48
 101              		.cfi_def_cfa_offset 48
 102 0088 23341102 		sd	ra,40(sp)
 103 008c 23308102 		sd	s0,32(sp)
 104 0090 233C9100 		sd	s1,24(sp)
 105 0094 23382101 		sd	s2,16(sp)
 106 0098 23343101 		sd	s3,8(sp)
 107 009c 23304101 		sd	s4,0(sp)
 108              		.cfi_offset 1, -8
 109              		.cfi_offset 8, -16
 110              		.cfi_offset 9, -24
 111              		.cfi_offset 18, -32
 112              		.cfi_offset 19, -40
 113              		.cfi_offset 20, -48
 114 00a0 13040103 		addi	s0,sp,48
 115              		.cfi_def_cfa 8, 0
 116 00a4 93040500 		mv	s1,a0
 117 00a8 13890500 		mv	s2,a1
 118 00ac 93090600 		mv	s3,a2
 119 00b0 138A0600 		mv	s4,a3
  14:src/SlabI.cpp ****     if(size_start(name)){
 120              		.loc 1 14 5
 121              		.loc 1 14 18 is_stmt 0
 122 00b4 97000000 		call	_Z10size_startPKc@plt
 122      E7800000 
 123              	.LVL9:
 124              		.loc 1 14 5
 125 00bc 631E0502 		bnez	a0,.L8
  15:src/SlabI.cpp ****         return nullptr;
  16:src/SlabI.cpp ****     }
  17:src/SlabI.cpp ****     kmem_cache_t* cache = (kmem_cache_t*)kmem_cache_s::kmem_cache_create(name, size, ctor, dtor);
 126              		.loc 1 17 5 is_stmt 1
GAS LISTING /tmp/cc3TMrd5.s 			page 4


 127              		.loc 1 17 73 is_stmt 0
 128 00c0 93060A00 		mv	a3,s4
 129 00c4 13860900 		mv	a2,s3
 130 00c8 93050900 		mv	a1,s2
 131 00cc 13850400 		mv	a0,s1
 132 00d0 97000000 		call	_ZN12kmem_cache_s17kmem_cache_createEPKcmPFvPvES4_@plt
 132      E7800000 
 133              	.LVL10:
  18:src/SlabI.cpp ****     if(cache == nullptr)return nullptr;
 134              		.loc 1 18 5 is_stmt 1
 135              	.L6:
  19:src/SlabI.cpp ****     return cache;
  20:src/SlabI.cpp **** }
 136              		.loc 1 20 1 is_stmt 0
 137 00d8 83308102 		ld	ra,40(sp)
 138              		.cfi_remember_state
 139              		.cfi_restore 1
 140 00dc 03340102 		ld	s0,32(sp)
 141              		.cfi_restore 8
 142              		.cfi_def_cfa 2, 48
 143 00e0 83348101 		ld	s1,24(sp)
 144              		.cfi_restore 9
 145              	.LVL11:
 146 00e4 03390101 		ld	s2,16(sp)
 147              		.cfi_restore 18
 148              	.LVL12:
 149 00e8 83398100 		ld	s3,8(sp)
 150              		.cfi_restore 19
 151              	.LVL13:
 152 00ec 033A0100 		ld	s4,0(sp)
 153              		.cfi_restore 20
 154              	.LVL14:
 155 00f0 13010103 		addi	sp,sp,48
 156              		.cfi_def_cfa_offset 0
 157 00f4 67800000 		jr	ra
 158              	.LVL15:
 159              	.L8:
 160              		.cfi_restore_state
  15:src/SlabI.cpp ****     }
 161              		.loc 1 15 16
 162 00f8 13050000 		li	a0,0
 163 00fc 6FF0DFFD 		j	.L6
 164              		.cfi_endproc
 165              	.LFE9:
 167              		.align	2
 168              		.globl	_Z17kmem_cache_shrinkP12kmem_cache_s
 170              	_Z17kmem_cache_shrinkP12kmem_cache_s:
 171              	.LFB10:
  21:src/SlabI.cpp **** 
  22:src/SlabI.cpp **** int kmem_cache_shrink(kmem_cache_t *cachep) {
 172              		.loc 1 22 45 is_stmt 1
 173              		.cfi_startproc
 174              	.LVL16:
 175 0100 130101FF 		addi	sp,sp,-16
 176              		.cfi_def_cfa_offset 16
 177 0104 23341100 		sd	ra,8(sp)
 178 0108 23308100 		sd	s0,0(sp)
GAS LISTING /tmp/cc3TMrd5.s 			page 5


 179              		.cfi_offset 1, -8
 180              		.cfi_offset 8, -16
 181 010c 13040101 		addi	s0,sp,16
 182              		.cfi_def_cfa 8, 0
  23:src/SlabI.cpp ****     return cachep->kmem_cache_shrink();
 183              		.loc 1 23 5
 184              		.loc 1 23 37 is_stmt 0
 185 0110 97000000 		call	_ZN12kmem_cache_s17kmem_cache_shrinkEv@plt
 185      E7800000 
 186              	.LVL17:
  24:src/SlabI.cpp **** }
 187              		.loc 1 24 1
 188 0118 1B050500 		sext.w	a0,a0
 189 011c 83308100 		ld	ra,8(sp)
 190              		.cfi_restore 1
 191 0120 03340100 		ld	s0,0(sp)
 192              		.cfi_restore 8
 193              		.cfi_def_cfa 2, 16
 194 0124 13010101 		addi	sp,sp,16
 195              		.cfi_def_cfa_offset 0
 196 0128 67800000 		jr	ra
 197              		.cfi_endproc
 198              	.LFE10:
 200              		.align	2
 201              		.globl	_Z16kmem_cache_allocP12kmem_cache_s
 203              	_Z16kmem_cache_allocP12kmem_cache_s:
 204              	.LFB11:
  25:src/SlabI.cpp **** 
  26:src/SlabI.cpp **** void *kmem_cache_alloc(kmem_cache_t *cachep) {
 205              		.loc 1 26 46 is_stmt 1
 206              		.cfi_startproc
 207              	.LVL18:
 208 012c 130101FE 		addi	sp,sp,-32
 209              		.cfi_def_cfa_offset 32
 210 0130 233C1100 		sd	ra,24(sp)
 211 0134 23388100 		sd	s0,16(sp)
 212 0138 23349100 		sd	s1,8(sp)
 213 013c 23302101 		sd	s2,0(sp)
 214              		.cfi_offset 1, -8
 215              		.cfi_offset 8, -16
 216              		.cfi_offset 9, -24
 217              		.cfi_offset 18, -32
 218 0140 13040102 		addi	s0,sp,32
 219              		.cfi_def_cfa 8, 0
 220 0144 13090500 		mv	s2,a0
  27:src/SlabI.cpp ****     for(int i = 0; i < 2; i++){
 221              		.loc 1 27 5
 222              	.LVL19:
 223              	.LBB8:
 224              		.loc 1 27 13 is_stmt 0
 225 0148 93040000 		li	s1,0
 226              	.LVL20:
 227              	.L14:
 228              		.loc 1 27 22 is_stmt 1 discriminator 1
 229 014c 93071000 		li	a5,1
 230 0150 63CE9700 		bgt	s1,a5,.L15
 231              	.LBB9:
GAS LISTING /tmp/cc3TMrd5.s 			page 6


  28:src/SlabI.cpp ****         void* tmp = cachep->kmem_cache_alloc();
 232              		.loc 1 28 9
 233              		.loc 1 28 45 is_stmt 0
 234 0154 13050900 		mv	a0,s2
 235 0158 97000000 		call	_ZN12kmem_cache_s16kmem_cache_allocEv@plt
 235      E7800000 
 236              	.LVL21:
  29:src/SlabI.cpp ****         if(tmp != nullptr)return tmp;
 237              		.loc 1 29 9 is_stmt 1
 238 0160 63180500 		bnez	a0,.L12
 239              	.LBE9:
  27:src/SlabI.cpp ****     for(int i = 0; i < 2; i++){
 240              		.loc 1 27 5 discriminator 2
 241 0164 9B841400 		addiw	s1,s1,1
 242              	.LVL22:
 243 0168 6FF05FFE 		j	.L14
 244              	.LVL23:
 245              	.L15:
 246              	.LBE8:
  30:src/SlabI.cpp ****     }
  31:src/SlabI.cpp ****     // not enough memory, or exception triggered
  32:src/SlabI.cpp ****     return nullptr;
 247              		.loc 1 32 12 is_stmt 0
 248 016c 13050000 		li	a0,0
 249              	.L12:
  33:src/SlabI.cpp **** }
 250              		.loc 1 33 1
 251 0170 83308101 		ld	ra,24(sp)
 252              		.cfi_restore 1
 253 0174 03340101 		ld	s0,16(sp)
 254              		.cfi_restore 8
 255              		.cfi_def_cfa 2, 32
 256 0178 83348100 		ld	s1,8(sp)
 257              		.cfi_restore 9
 258              	.LVL24:
 259 017c 03390100 		ld	s2,0(sp)
 260              		.cfi_restore 18
 261              	.LVL25:
 262 0180 13010102 		addi	sp,sp,32
 263              		.cfi_def_cfa_offset 0
 264 0184 67800000 		jr	ra
 265              		.cfi_endproc
 266              	.LFE11:
 268              		.align	2
 269              		.globl	_Z15kmem_cache_freeP12kmem_cache_sPv
 271              	_Z15kmem_cache_freeP12kmem_cache_sPv:
 272              	.LFB12:
  34:src/SlabI.cpp **** 
  35:src/SlabI.cpp **** int kmem_cache_free(kmem_cache_t *cachep, void *objp) {
 273              		.loc 1 35 55 is_stmt 1
 274              		.cfi_startproc
 275              	.LVL26:
 276 0188 130101FF 		addi	sp,sp,-16
 277              		.cfi_def_cfa_offset 16
 278 018c 23341100 		sd	ra,8(sp)
 279 0190 23308100 		sd	s0,0(sp)
 280              		.cfi_offset 1, -8
GAS LISTING /tmp/cc3TMrd5.s 			page 7


 281              		.cfi_offset 8, -16
 282 0194 13040101 		addi	s0,sp,16
 283              		.cfi_def_cfa 8, 0
  36:src/SlabI.cpp ****     return cachep->kmem_cache_free(objp);
 284              		.loc 1 36 5
 285              		.loc 1 36 35 is_stmt 0
 286 0198 97000000 		call	_ZN12kmem_cache_s15kmem_cache_freeEPv@plt
 286      E7800000 
 287              	.LVL27:
  37:src/SlabI.cpp **** }
 288              		.loc 1 37 1
 289 01a0 83308100 		ld	ra,8(sp)
 290              		.cfi_restore 1
 291 01a4 03340100 		ld	s0,0(sp)
 292              		.cfi_restore 8
 293              		.cfi_def_cfa 2, 16
 294 01a8 13010101 		addi	sp,sp,16
 295              		.cfi_def_cfa_offset 0
 296 01ac 67800000 		jr	ra
 297              		.cfi_endproc
 298              	.LFE12:
 300              		.align	2
 301              		.globl	_Z7kmallocm
 303              	_Z7kmallocm:
 304              	.LFB13:
  38:src/SlabI.cpp **** 
  39:src/SlabI.cpp **** void *kmalloc(size_t size) {
 305              		.loc 1 39 28 is_stmt 1
 306              		.cfi_startproc
 307              	.LVL28:
 308 01b0 130101FF 		addi	sp,sp,-16
 309              		.cfi_def_cfa_offset 16
 310 01b4 23341100 		sd	ra,8(sp)
 311 01b8 23308100 		sd	s0,0(sp)
 312              		.cfi_offset 1, -8
 313              		.cfi_offset 8, -16
 314 01bc 13040101 		addi	s0,sp,16
 315              		.cfi_def_cfa 8, 0
  40:src/SlabI.cpp ****     int ret = kmem_cache_t::is_small_buffer_size_correct(size);
 316              		.loc 1 40 5
 317              		.loc 1 40 57 is_stmt 0
 318 01c0 97000000 		call	_ZN12kmem_cache_s28is_small_buffer_size_correctEm@plt
 318      E7800000 
 319              	.LVL29:
  41:src/SlabI.cpp ****     if(!ret)return nullptr;
 320              		.loc 1 41 5 is_stmt 1
 321 01c8 630E0500 		beqz	a0,.L21
  42:src/SlabI.cpp ****     return kmem_cache_t::kmalloc(ret);
 322              		.loc 1 42 5
 323              		.loc 1 42 33 is_stmt 0
 324 01cc 97000000 		call	_ZN12kmem_cache_s7kmallocEm@plt
 324      E7800000 
 325              	.LVL30:
 326              	.L19:
  43:src/SlabI.cpp **** }
 327              		.loc 1 43 1
 328 01d4 83308100 		ld	ra,8(sp)
GAS LISTING /tmp/cc3TMrd5.s 			page 8


 329              		.cfi_remember_state
 330              		.cfi_restore 1
 331 01d8 03340100 		ld	s0,0(sp)
 332              		.cfi_restore 8
 333              		.cfi_def_cfa 2, 16
 334 01dc 13010101 		addi	sp,sp,16
 335              		.cfi_def_cfa_offset 0
 336 01e0 67800000 		jr	ra
 337              	.LVL31:
 338              	.L21:
 339              		.cfi_restore_state
  41:src/SlabI.cpp ****     if(!ret)return nullptr;
 340              		.loc 1 41 20
 341 01e4 13050000 		li	a0,0
 342              	.LVL32:
 343 01e8 6FF0DFFE 		j	.L19
 344              		.cfi_endproc
 345              	.LFE13:
 347              		.align	2
 348              		.globl	_Z5kfreePKv
 350              	_Z5kfreePKv:
 351              	.LFB14:
  44:src/SlabI.cpp **** 
  45:src/SlabI.cpp **** void kfree(const void *objp) {
 352              		.loc 1 45 30 is_stmt 1
 353              		.cfi_startproc
 354              	.LVL33:
 355 01ec 130101FF 		addi	sp,sp,-16
 356              		.cfi_def_cfa_offset 16
 357 01f0 23341100 		sd	ra,8(sp)
 358 01f4 23308100 		sd	s0,0(sp)
 359              		.cfi_offset 1, -8
 360              		.cfi_offset 8, -16
 361 01f8 13040101 		addi	s0,sp,16
 362              		.cfi_def_cfa 8, 0
  46:src/SlabI.cpp ****     kmem_cache_t::kfree(objp);
 363              		.loc 1 46 5
 364              		.loc 1 46 24 is_stmt 0
 365 01fc 97000000 		call	_ZN12kmem_cache_s5kfreeEPKv@plt
 365      E7800000 
 366              	.LVL34:
  47:src/SlabI.cpp **** }
 367              		.loc 1 47 1
 368 0204 83308100 		ld	ra,8(sp)
 369              		.cfi_restore 1
 370 0208 03340100 		ld	s0,0(sp)
 371              		.cfi_restore 8
 372              		.cfi_def_cfa 2, 16
 373 020c 13010101 		addi	sp,sp,16
 374              		.cfi_def_cfa_offset 0
 375 0210 67800000 		jr	ra
 376              		.cfi_endproc
 377              	.LFE14:
 379              		.align	2
 380              		.globl	_Z18kmem_cache_destroyP12kmem_cache_s
 382              	_Z18kmem_cache_destroyP12kmem_cache_s:
 383              	.LFB15:
GAS LISTING /tmp/cc3TMrd5.s 			page 9


  48:src/SlabI.cpp **** 
  49:src/SlabI.cpp **** void kmem_cache_destroy(kmem_cache_t *cachep) {
 384              		.loc 1 49 47 is_stmt 1
 385              		.cfi_startproc
 386              	.LVL35:
 387 0214 130101FF 		addi	sp,sp,-16
 388              		.cfi_def_cfa_offset 16
 389 0218 23341100 		sd	ra,8(sp)
 390 021c 23308100 		sd	s0,0(sp)
 391              		.cfi_offset 1, -8
 392              		.cfi_offset 8, -16
 393 0220 13040101 		addi	s0,sp,16
 394              		.cfi_def_cfa 8, 0
 395 0224 93050500 		mv	a1,a0
  50:src/SlabI.cpp ****     cachep->kmem_cache_destroy((size_t)cachep);
 396              		.loc 1 50 5
 397              		.loc 1 50 31 is_stmt 0
 398 0228 97000000 		call	_ZN12kmem_cache_s18kmem_cache_destroyEm@plt
 398      E7800000 
 399              	.LVL36:
  51:src/SlabI.cpp **** }
 400              		.loc 1 51 1
 401 0230 83308100 		ld	ra,8(sp)
 402              		.cfi_restore 1
 403 0234 03340100 		ld	s0,0(sp)
 404              		.cfi_restore 8
 405              		.cfi_def_cfa 2, 16
 406 0238 13010101 		addi	sp,sp,16
 407              		.cfi_def_cfa_offset 0
 408 023c 67800000 		jr	ra
 409              		.cfi_endproc
 410              	.LFE15:
 412              		.align	2
 413              		.globl	_Z15kmem_cache_infoP12kmem_cache_s
 415              	_Z15kmem_cache_infoP12kmem_cache_s:
 416              	.LFB16:
  52:src/SlabI.cpp **** 
  53:src/SlabI.cpp **** void kmem_cache_info(kmem_cache_t *cachep) {
 417              		.loc 1 53 44 is_stmt 1
 418              		.cfi_startproc
 419              	.LVL37:
 420 0240 130101FF 		addi	sp,sp,-16
 421              		.cfi_def_cfa_offset 16
 422 0244 23341100 		sd	ra,8(sp)
 423 0248 23308100 		sd	s0,0(sp)
 424              		.cfi_offset 1, -8
 425              		.cfi_offset 8, -16
 426 024c 13040101 		addi	s0,sp,16
 427              		.cfi_def_cfa 8, 0
  54:src/SlabI.cpp ****     cachep->kmem_cache_info();
 428              		.loc 1 54 5
 429              		.loc 1 54 28 is_stmt 0
 430 0250 97000000 		call	_ZN12kmem_cache_s15kmem_cache_infoEv@plt
 430      E7800000 
 431              	.LVL38:
  55:src/SlabI.cpp **** }
 432              		.loc 1 55 1
GAS LISTING /tmp/cc3TMrd5.s 			page 10


 433 0258 83308100 		ld	ra,8(sp)
 434              		.cfi_restore 1
 435 025c 03340100 		ld	s0,0(sp)
 436              		.cfi_restore 8
 437              		.cfi_def_cfa 2, 16
 438 0260 13010101 		addi	sp,sp,16
 439              		.cfi_def_cfa_offset 0
 440 0264 67800000 		jr	ra
 441              		.cfi_endproc
 442              	.LFE16:
 444              		.align	2
 445              		.globl	_Z16print_all_cachesv
 447              	_Z16print_all_cachesv:
 448              	.LFB17:
  56:src/SlabI.cpp **** 
  57:src/SlabI.cpp **** void print_all_caches() {
 449              		.loc 1 57 25 is_stmt 1
 450              		.cfi_startproc
 451 0268 130101FF 		addi	sp,sp,-16
 452              		.cfi_def_cfa_offset 16
 453 026c 23341100 		sd	ra,8(sp)
 454 0270 23308100 		sd	s0,0(sp)
 455              		.cfi_offset 1, -8
 456              		.cfi_offset 8, -16
 457 0274 13040101 		addi	s0,sp,16
 458              		.cfi_def_cfa 8, 0
  58:src/SlabI.cpp ****     kmem_cache_t::print_info_all_caches();
 459              		.loc 1 58 5
 460              		.loc 1 58 40 is_stmt 0
 461 0278 97000000 		call	_ZN12kmem_cache_s21print_info_all_cachesEv@plt
 461      E7800000 
 462              	.LVL39:
  59:src/SlabI.cpp **** }
 463              		.loc 1 59 1
 464 0280 83308100 		ld	ra,8(sp)
 465              		.cfi_restore 1
 466 0284 03340100 		ld	s0,0(sp)
 467              		.cfi_restore 8
 468              		.cfi_def_cfa 2, 16
 469 0288 13010101 		addi	sp,sp,16
 470              		.cfi_def_cfa_offset 0
 471 028c 67800000 		jr	ra
 472              		.cfi_endproc
 473              	.LFE17:
 475              		.weak	_ZGVZN11BuddySystem11getInstanceEPviE2bs
 476              		.section	.bss._ZGVZN11BuddySystem11getInstanceEPviE2bs,"awG",@nobits,_ZGVZN11BuddySystem11getInsta
 477              		.align	3
 480              	_ZGVZN11BuddySystem11getInstanceEPviE2bs:
 481 0000 00000000 		.zero	8
 481      00000000 
 482              		.weak	_ZZN11BuddySystem11getInstanceEPviE2bs
 483              		.section	.bss._ZZN11BuddySystem11getInstanceEPviE2bs,"awG",@nobits,_ZZN11BuddySystem11getInstanceE
 484              		.align	3
 487              	_ZZN11BuddySystem11getInstanceEPviE2bs:
 488 0000 00000000 		.zero	344
 488      00000000 
 488      00000000 
GAS LISTING /tmp/cc3TMrd5.s 			page 11


 488      00000000 
 488      00000000 
 489              		.text
 490              	.Letext0:
 491              		.file 3 "src/../h/../lib/hw.h"
 492              		.file 4 "src/../h/SlabI.h"
 493              		.file 5 "src/../h/Slab.h"
 494              		.file 6 "src/../h/../h/String.h"
GAS LISTING /tmp/cc3TMrd5.s 			page 12

