GAS LISTING /tmp/ccIZG4nD.s 			page 1


   1              		.file	"SlabI.cpp"
   2              		.option pic
   3              		.option norelax
   4              		.text
   5              	.Ltext0:
   6              		.align	2
   7              		.globl	_Z9kmem_initPvi
   9              	_Z9kmem_initPvi:
  10              	.LFB7:
  11              		.file 1 "src/SlabI.cpp"
   1:src/SlabI.cpp **** //
   2:src/SlabI.cpp **** // Created by os on 8/18/23.
   3:src/SlabI.cpp **** 
   4:src/SlabI.cpp **** #include "../h/SlabI.h"
   5:src/SlabI.cpp **** #include "../h/Buddy.h"
   6:src/SlabI.cpp **** #include "../h/Slab.h"
   7:src/SlabI.cpp **** 
   8:src/SlabI.cpp **** //
   9:src/SlabI.cpp **** void kmem_init(void *space, int block_num) {
  12              		.loc 1 9 44
  13              		.cfi_startproc
  14              	.LVL0:
  15 0000 130101FE 		addi	sp,sp,-32
  16              		.cfi_def_cfa_offset 32
  17 0004 233C1100 		sd	ra,24(sp)
  18 0008 23388100 		sd	s0,16(sp)
  19 000c 23349100 		sd	s1,8(sp)
  20 0010 23302101 		sd	s2,0(sp)
  21              		.cfi_offset 1, -8
  22              		.cfi_offset 8, -16
  23              		.cfi_offset 9, -24
  24              		.cfi_offset 18, -32
  25 0014 13040102 		addi	s0,sp,32
  26              		.cfi_def_cfa 8, 0
  27 0018 13090500 		mv	s2,a0
  28 001c 93840500 		mv	s1,a1
  10:src/SlabI.cpp ****     BuddySystem::getInstance(space, block_num);
  29              		.loc 1 10 5
  30              	.LVL1:
  31              	.LBB4:
  32              	.LBB5:
  33              		.file 2 "src/../h/Buddy.h"
   1:src/../h/Buddy.h **** //
   2:src/../h/Buddy.h **** // Created by os on 8/12/23.
   3:src/../h/Buddy.h **** //
   4:src/../h/Buddy.h **** 
   5:src/../h/Buddy.h **** #ifndef PROJECT_BASE_V1_1_BUDDY_H
   6:src/../h/Buddy.h **** #define PROJECT_BASE_V1_1_BUDDY_H
   7:src/../h/Buddy.h **** 
   8:src/../h/Buddy.h **** #include "../lib/hw.h"
   9:src/../h/Buddy.h **** 
  10:src/../h/Buddy.h **** class BuddySystem{
  11:src/../h/Buddy.h **** public:
  12:src/../h/Buddy.h **** 
  13:src/../h/Buddy.h ****     void* buddyAlloc(size_t size);
  14:src/../h/Buddy.h ****     void buddyFree(size_t addr);
  15:src/../h/Buddy.h **** 
GAS LISTING /tmp/ccIZG4nD.s 			page 2


  16:src/../h/Buddy.h ****     static BuddySystem& getInstance(void *space = nullptr, int block_num = 0){
  17:src/../h/Buddy.h ****         static BuddySystem bs;
  34              		.loc 2 17 9
  35              		.loc 2 17 28 is_stmt 0
  36 0020 97070000 		lbu	a5,_ZGVZN11BuddySystem11getInstanceEPviE2bs
  36      83C70700 
  37 0028 638E0702 		beqz	a5,.L5
  38              	.LVL2:
  39              	.L2:
  18:src/../h/Buddy.h ****         if(block_num != 0 && space != nullptr){
  40              		.loc 2 18 9 is_stmt 1
  41 002c 63800402 		beqz	s1,.L1
  42              		.loc 2 18 27 is_stmt 0
  43 0030 630E0900 		beqz	s2,.L1
  19:src/../h/Buddy.h ****             bs.buddyHeapStart = (size_t)space;
  44              		.loc 2 19 13 is_stmt 1
  45              		.loc 2 19 31 is_stmt 0
  46 0034 17050000 		lla	a0,_ZZN11BuddySystem11getInstanceEPviE2bs
  46      13050500 
  47 003c 23302515 		sd	s2,320(a0)
  20:src/../h/Buddy.h ****             bs.buddyNumOfBlocks = block_num;
  48              		.loc 2 20 13 is_stmt 1
  49              		.loc 2 20 33 is_stmt 0
  50 0040 23389514 		sd	s1,336(a0)
  21:src/../h/Buddy.h ****             bs.initBuddy();
  51              		.loc 2 21 13 is_stmt 1
  52              		.loc 2 21 25 is_stmt 0
  53 0044 97000000 		call	_ZN11BuddySystem9initBuddyEv@plt
  53      E7800000 
  54              	.LVL3:
  22:src/../h/Buddy.h ****         }
  23:src/../h/Buddy.h ****         return bs;
  55              		.loc 2 23 9 is_stmt 1
  56              	.L1:
  57              	.LBE5:
  58              	.LBE4:
  11:src/SlabI.cpp **** }
  59              		.loc 1 11 1 is_stmt 0
  60 004c 83308101 		ld	ra,24(sp)
  61              		.cfi_remember_state
  62              		.cfi_restore 1
  63 0050 03340101 		ld	s0,16(sp)
  64              		.cfi_restore 8
  65              		.cfi_def_cfa 2, 32
  66 0054 83348100 		ld	s1,8(sp)
  67              		.cfi_restore 9
  68 0058 03390100 		ld	s2,0(sp)
  69              		.cfi_restore 18
  70              	.LVL4:
  71 005c 13010102 		addi	sp,sp,32
  72              		.cfi_def_cfa_offset 0
  73 0060 67800000 		jr	ra
  74              	.LVL5:
  75              	.L5:
  76              		.cfi_restore_state
  77              	.LBB7:
  78              	.LBB6:
GAS LISTING /tmp/ccIZG4nD.s 			page 3


  17:src/../h/Buddy.h ****         if(block_num != 0 && space != nullptr){
  79              		.loc 2 17 28
  80 0064 17050000 		lla	a0,_ZZN11BuddySystem11getInstanceEPviE2bs
  80      13050500 
  81              	.LVL6:
  82 006c 97000000 		call	_ZN11BuddySystemC1Ev@plt
  82      E7800000 
  83              	.LVL7:
  84 0074 93071000 		li	a5,1
  85 0078 17070000 		sb	a5,_ZGVZN11BuddySystem11getInstanceEPviE2bs,a4
  85      2300F700 
  86 0080 6FF0DFFA 		j	.L2
  87              	.LBE6:
  88              	.LBE7:
  89              		.cfi_endproc
  90              	.LFE7:
  92              		.align	2
  93              		.globl	_Z17kmem_cache_createPKcmPFvPvES3_
  95              	_Z17kmem_cache_createPKcmPFvPvES3_:
  96              	.LFB8:
  12:src/SlabI.cpp **** 
  13:src/SlabI.cpp **** kmem_cache_t *kmem_cache_create(const char *name, size_t size, void (*ctor)(void *), void (*dtor)(v
  97              		.loc 1 13 108 is_stmt 1
  98              		.cfi_startproc
  99              	.LVL8:
 100 0084 130101FD 		addi	sp,sp,-48
 101              		.cfi_def_cfa_offset 48
 102 0088 23341102 		sd	ra,40(sp)
 103 008c 23308102 		sd	s0,32(sp)
 104 0090 233C9100 		sd	s1,24(sp)
 105 0094 23382101 		sd	s2,16(sp)
 106 0098 23343101 		sd	s3,8(sp)
 107 009c 23304101 		sd	s4,0(sp)
 108              		.cfi_offset 1, -8
 109              		.cfi_offset 8, -16
 110              		.cfi_offset 9, -24
 111              		.cfi_offset 18, -32
 112              		.cfi_offset 19, -40
 113              		.cfi_offset 20, -48
 114 00a0 13040103 		addi	s0,sp,48
 115              		.cfi_def_cfa 8, 0
 116 00a4 93040500 		mv	s1,a0
 117 00a8 13890500 		mv	s2,a1
 118 00ac 93090600 		mv	s3,a2
 119 00b0 138A0600 		mv	s4,a3
  14:src/SlabI.cpp ****     if(size_start(name)){
 120              		.loc 1 14 5
 121              		.loc 1 14 18 is_stmt 0
 122 00b4 97000000 		call	_Z10size_startPKc@plt
 122      E7800000 
 123              	.LVL9:
 124              		.loc 1 14 5
 125 00bc 631E0502 		bnez	a0,.L8
  15:src/SlabI.cpp ****         return nullptr;
  16:src/SlabI.cpp ****     }
  17:src/SlabI.cpp ****     return (kmem_cache_t*)kmem_cache_s::kmem_cache_create(name, size, ctor, dtor);
 126              		.loc 1 17 5 is_stmt 1
GAS LISTING /tmp/ccIZG4nD.s 			page 4


 127              		.loc 1 17 58 is_stmt 0
 128 00c0 93060A00 		mv	a3,s4
 129 00c4 13860900 		mv	a2,s3
 130 00c8 93050900 		mv	a1,s2
 131 00cc 13850400 		mv	a0,s1
 132 00d0 97000000 		call	_ZN12kmem_cache_s17kmem_cache_createEPKcmPFvPvES4_@plt
 132      E7800000 
 133              	.LVL10:
 134              	.L6:
  18:src/SlabI.cpp **** }
 135              		.loc 1 18 1
 136 00d8 83308102 		ld	ra,40(sp)
 137              		.cfi_remember_state
 138              		.cfi_restore 1
 139 00dc 03340102 		ld	s0,32(sp)
 140              		.cfi_restore 8
 141              		.cfi_def_cfa 2, 48
 142 00e0 83348101 		ld	s1,24(sp)
 143              		.cfi_restore 9
 144              	.LVL11:
 145 00e4 03390101 		ld	s2,16(sp)
 146              		.cfi_restore 18
 147              	.LVL12:
 148 00e8 83398100 		ld	s3,8(sp)
 149              		.cfi_restore 19
 150              	.LVL13:
 151 00ec 033A0100 		ld	s4,0(sp)
 152              		.cfi_restore 20
 153              	.LVL14:
 154 00f0 13010103 		addi	sp,sp,48
 155              		.cfi_def_cfa_offset 0
 156 00f4 67800000 		jr	ra
 157              	.LVL15:
 158              	.L8:
 159              		.cfi_restore_state
  15:src/SlabI.cpp ****         return nullptr;
 160              		.loc 1 15 16
 161 00f8 13050000 		li	a0,0
 162 00fc 6FF0DFFD 		j	.L6
 163              		.cfi_endproc
 164              	.LFE8:
 166              		.align	2
 167              		.globl	_Z17kmem_cache_shrinkP12kmem_cache_s
 169              	_Z17kmem_cache_shrinkP12kmem_cache_s:
 170              	.LFB9:
  19:src/SlabI.cpp **** 
  20:src/SlabI.cpp **** int kmem_cache_shrink(kmem_cache_t *cachep) {
 171              		.loc 1 20 45 is_stmt 1
 172              		.cfi_startproc
 173              	.LVL16:
 174 0100 130101FF 		addi	sp,sp,-16
 175              		.cfi_def_cfa_offset 16
 176 0104 23341100 		sd	ra,8(sp)
 177 0108 23308100 		sd	s0,0(sp)
 178              		.cfi_offset 1, -8
 179              		.cfi_offset 8, -16
 180 010c 13040101 		addi	s0,sp,16
GAS LISTING /tmp/ccIZG4nD.s 			page 5


 181              		.cfi_def_cfa 8, 0
  21:src/SlabI.cpp ****     return cachep->kmem_cache_shrink();
 182              		.loc 1 21 5
 183              		.loc 1 21 37 is_stmt 0
 184 0110 97000000 		call	_ZN12kmem_cache_s17kmem_cache_shrinkEv@plt
 184      E7800000 
 185              	.LVL17:
  22:src/SlabI.cpp **** }
 186              		.loc 1 22 1
 187 0118 1B050500 		sext.w	a0,a0
 188 011c 83308100 		ld	ra,8(sp)
 189              		.cfi_restore 1
 190 0120 03340100 		ld	s0,0(sp)
 191              		.cfi_restore 8
 192              		.cfi_def_cfa 2, 16
 193 0124 13010101 		addi	sp,sp,16
 194              		.cfi_def_cfa_offset 0
 195 0128 67800000 		jr	ra
 196              		.cfi_endproc
 197              	.LFE9:
 199              		.align	2
 200              		.globl	_Z16kmem_cache_allocP12kmem_cache_s
 202              	_Z16kmem_cache_allocP12kmem_cache_s:
 203              	.LFB10:
  23:src/SlabI.cpp **** 
  24:src/SlabI.cpp **** void *kmem_cache_alloc(kmem_cache_t *cachep) {
 204              		.loc 1 24 46 is_stmt 1
 205              		.cfi_startproc
 206              	.LVL18:
 207 012c 130101FE 		addi	sp,sp,-32
 208              		.cfi_def_cfa_offset 32
 209 0130 233C1100 		sd	ra,24(sp)
 210 0134 23388100 		sd	s0,16(sp)
 211 0138 23349100 		sd	s1,8(sp)
 212 013c 23302101 		sd	s2,0(sp)
 213              		.cfi_offset 1, -8
 214              		.cfi_offset 8, -16
 215              		.cfi_offset 9, -24
 216              		.cfi_offset 18, -32
 217 0140 13040102 		addi	s0,sp,32
 218              		.cfi_def_cfa 8, 0
 219 0144 13090500 		mv	s2,a0
  25:src/SlabI.cpp ****     for(int i = 0; i < 2; i++){
 220              		.loc 1 25 5
 221              	.LVL19:
 222              	.LBB8:
 223              		.loc 1 25 13 is_stmt 0
 224 0148 93040000 		li	s1,0
 225              	.LVL20:
 226              	.L14:
 227              		.loc 1 25 22 is_stmt 1 discriminator 1
 228 014c 93071000 		li	a5,1
 229 0150 63CE9700 		bgt	s1,a5,.L15
 230              	.LBB9:
  26:src/SlabI.cpp ****         void* tmp = cachep->kmem_cache_alloc();
 231              		.loc 1 26 9
 232              		.loc 1 26 45 is_stmt 0
GAS LISTING /tmp/ccIZG4nD.s 			page 6


 233 0154 13050900 		mv	a0,s2
 234 0158 97000000 		call	_ZN12kmem_cache_s16kmem_cache_allocEv@plt
 234      E7800000 
 235              	.LVL21:
  27:src/SlabI.cpp ****         if(tmp != nullptr)return tmp;
 236              		.loc 1 27 9 is_stmt 1
 237 0160 63180500 		bnez	a0,.L12
 238              	.LBE9:
  25:src/SlabI.cpp ****     for(int i = 0; i < 2; i++){
 239              		.loc 1 25 5 discriminator 2
 240 0164 9B841400 		addiw	s1,s1,1
 241              	.LVL22:
 242 0168 6FF05FFE 		j	.L14
 243              	.LVL23:
 244              	.L15:
 245              	.LBE8:
  28:src/SlabI.cpp ****     }
  29:src/SlabI.cpp ****     // not enough memory, or exception triggered
  30:src/SlabI.cpp ****     return nullptr;
 246              		.loc 1 30 12 is_stmt 0
 247 016c 13050000 		li	a0,0
 248              	.L12:
  31:src/SlabI.cpp **** }
 249              		.loc 1 31 1
 250 0170 83308101 		ld	ra,24(sp)
 251              		.cfi_restore 1
 252 0174 03340101 		ld	s0,16(sp)
 253              		.cfi_restore 8
 254              		.cfi_def_cfa 2, 32
 255 0178 83348100 		ld	s1,8(sp)
 256              		.cfi_restore 9
 257              	.LVL24:
 258 017c 03390100 		ld	s2,0(sp)
 259              		.cfi_restore 18
 260              	.LVL25:
 261 0180 13010102 		addi	sp,sp,32
 262              		.cfi_def_cfa_offset 0
 263 0184 67800000 		jr	ra
 264              		.cfi_endproc
 265              	.LFE10:
 267              		.align	2
 268              		.globl	_Z15kmem_cache_freeP12kmem_cache_sPv
 270              	_Z15kmem_cache_freeP12kmem_cache_sPv:
 271              	.LFB11:
  32:src/SlabI.cpp **** 
  33:src/SlabI.cpp **** void kmem_cache_free(kmem_cache_t *cachep, void *objp) {
 272              		.loc 1 33 56 is_stmt 1
 273              		.cfi_startproc
 274              	.LVL26:
 275 0188 130101FF 		addi	sp,sp,-16
 276              		.cfi_def_cfa_offset 16
 277 018c 23341100 		sd	ra,8(sp)
 278 0190 23308100 		sd	s0,0(sp)
 279              		.cfi_offset 1, -8
 280              		.cfi_offset 8, -16
 281 0194 13040101 		addi	s0,sp,16
 282              		.cfi_def_cfa 8, 0
GAS LISTING /tmp/ccIZG4nD.s 			page 7


  34:src/SlabI.cpp ****     cachep->kmem_cache_free(objp);
 283              		.loc 1 34 5
 284              		.loc 1 34 28 is_stmt 0
 285 0198 97000000 		call	_ZN12kmem_cache_s15kmem_cache_freeEPv@plt
 285      E7800000 
 286              	.LVL27:
  35:src/SlabI.cpp **** }
 287              		.loc 1 35 1
 288 01a0 83308100 		ld	ra,8(sp)
 289              		.cfi_restore 1
 290 01a4 03340100 		ld	s0,0(sp)
 291              		.cfi_restore 8
 292              		.cfi_def_cfa 2, 16
 293 01a8 13010101 		addi	sp,sp,16
 294              		.cfi_def_cfa_offset 0
 295 01ac 67800000 		jr	ra
 296              		.cfi_endproc
 297              	.LFE11:
 299              		.align	2
 300              		.globl	_Z7kmallocm
 302              	_Z7kmallocm:
 303              	.LFB12:
  36:src/SlabI.cpp **** 
  37:src/SlabI.cpp **** void *kmalloc(size_t size) {
 304              		.loc 1 37 28 is_stmt 1
 305              		.cfi_startproc
 306              	.LVL28:
 307 01b0 130101FE 		addi	sp,sp,-32
 308              		.cfi_def_cfa_offset 32
 309 01b4 233C1100 		sd	ra,24(sp)
 310 01b8 23388100 		sd	s0,16(sp)
 311 01bc 23349100 		sd	s1,8(sp)
 312              		.cfi_offset 1, -8
 313              		.cfi_offset 8, -16
 314              		.cfi_offset 9, -24
 315 01c0 13040102 		addi	s0,sp,32
 316              		.cfi_def_cfa 8, 0
 317 01c4 93040500 		mv	s1,a0
  38:src/SlabI.cpp ****     if(!kmem_cache_t::is_small_buffer_size_correct(size))return nullptr;
 318              		.loc 1 38 5
 319              		.loc 1 38 51 is_stmt 0
 320 01c8 97000000 		call	_ZN12kmem_cache_s28is_small_buffer_size_correctEm@plt
 320      E7800000 
 321              	.LVL29:
 322              		.loc 1 38 5
 323 01d0 63020502 		beqz	a0,.L21
  39:src/SlabI.cpp ****     return kmem_cache_t::kmalloc(size);
 324              		.loc 1 39 5 is_stmt 1
 325              		.loc 1 39 33 is_stmt 0
 326 01d4 13850400 		mv	a0,s1
 327 01d8 97000000 		call	_ZN12kmem_cache_s7kmallocEm@plt
 327      E7800000 
 328              	.LVL30:
 329              	.L19:
  40:src/SlabI.cpp **** }
 330              		.loc 1 40 1
 331 01e0 83308101 		ld	ra,24(sp)
GAS LISTING /tmp/ccIZG4nD.s 			page 8


 332              		.cfi_remember_state
 333              		.cfi_restore 1
 334 01e4 03340101 		ld	s0,16(sp)
 335              		.cfi_restore 8
 336              		.cfi_def_cfa 2, 32
 337 01e8 83348100 		ld	s1,8(sp)
 338              		.cfi_restore 9
 339              	.LVL31:
 340 01ec 13010102 		addi	sp,sp,32
 341              		.cfi_def_cfa_offset 0
 342 01f0 67800000 		jr	ra
 343              	.LVL32:
 344              	.L21:
 345              		.cfi_restore_state
  38:src/SlabI.cpp ****     if(!kmem_cache_t::is_small_buffer_size_correct(size))return nullptr;
 346              		.loc 1 38 65
 347 01f4 13050000 		li	a0,0
 348 01f8 6FF09FFE 		j	.L19
 349              		.cfi_endproc
 350              	.LFE12:
 352              		.align	2
 353              		.globl	_Z5kfreePKv
 355              	_Z5kfreePKv:
 356              	.LFB13:
  41:src/SlabI.cpp **** 
  42:src/SlabI.cpp **** void kfree(const void *objp) {
 357              		.loc 1 42 30 is_stmt 1
 358              		.cfi_startproc
 359              	.LVL33:
 360 01fc 130101FF 		addi	sp,sp,-16
 361              		.cfi_def_cfa_offset 16
 362 0200 23341100 		sd	ra,8(sp)
 363 0204 23308100 		sd	s0,0(sp)
 364              		.cfi_offset 1, -8
 365              		.cfi_offset 8, -16
 366 0208 13040101 		addi	s0,sp,16
 367              		.cfi_def_cfa 8, 0
  43:src/SlabI.cpp ****     kmem_cache_t::kfree(objp);
 368              		.loc 1 43 5
 369              		.loc 1 43 24 is_stmt 0
 370 020c 97000000 		call	_ZN12kmem_cache_s5kfreeEPKv@plt
 370      E7800000 
 371              	.LVL34:
  44:src/SlabI.cpp **** }
 372              		.loc 1 44 1
 373 0214 83308100 		ld	ra,8(sp)
 374              		.cfi_restore 1
 375 0218 03340100 		ld	s0,0(sp)
 376              		.cfi_restore 8
 377              		.cfi_def_cfa 2, 16
 378 021c 13010101 		addi	sp,sp,16
 379              		.cfi_def_cfa_offset 0
 380 0220 67800000 		jr	ra
 381              		.cfi_endproc
 382              	.LFE13:
 384              		.align	2
 385              		.globl	_Z18kmem_cache_destroyP12kmem_cache_s
GAS LISTING /tmp/ccIZG4nD.s 			page 9


 387              	_Z18kmem_cache_destroyP12kmem_cache_s:
 388              	.LFB14:
  45:src/SlabI.cpp **** 
  46:src/SlabI.cpp **** void kmem_cache_destroy(kmem_cache_t *cachep) {
 389              		.loc 1 46 47 is_stmt 1
 390              		.cfi_startproc
 391              	.LVL35:
 392 0224 130101FF 		addi	sp,sp,-16
 393              		.cfi_def_cfa_offset 16
 394 0228 23341100 		sd	ra,8(sp)
 395 022c 23308100 		sd	s0,0(sp)
 396              		.cfi_offset 1, -8
 397              		.cfi_offset 8, -16
 398 0230 13040101 		addi	s0,sp,16
 399              		.cfi_def_cfa 8, 0
 400 0234 93050500 		mv	a1,a0
  47:src/SlabI.cpp ****     cachep->kmem_cache_destroy((size_t)cachep);
 401              		.loc 1 47 5
 402              		.loc 1 47 31 is_stmt 0
 403 0238 97000000 		call	_ZN12kmem_cache_s18kmem_cache_destroyEm@plt
 403      E7800000 
 404              	.LVL36:
  48:src/SlabI.cpp **** }
 405              		.loc 1 48 1
 406 0240 83308100 		ld	ra,8(sp)
 407              		.cfi_restore 1
 408 0244 03340100 		ld	s0,0(sp)
 409              		.cfi_restore 8
 410              		.cfi_def_cfa 2, 16
 411 0248 13010101 		addi	sp,sp,16
 412              		.cfi_def_cfa_offset 0
 413 024c 67800000 		jr	ra
 414              		.cfi_endproc
 415              	.LFE14:
 417              		.align	2
 418              		.globl	_Z15kmem_cache_infoP12kmem_cache_s
 420              	_Z15kmem_cache_infoP12kmem_cache_s:
 421              	.LFB15:
  49:src/SlabI.cpp **** 
  50:src/SlabI.cpp **** void kmem_cache_info(kmem_cache_t *cachep) {
 422              		.loc 1 50 44 is_stmt 1
 423              		.cfi_startproc
 424              	.LVL37:
 425 0250 130101FF 		addi	sp,sp,-16
 426              		.cfi_def_cfa_offset 16
 427 0254 23341100 		sd	ra,8(sp)
 428 0258 23308100 		sd	s0,0(sp)
 429              		.cfi_offset 1, -8
 430              		.cfi_offset 8, -16
 431 025c 13040101 		addi	s0,sp,16
 432              		.cfi_def_cfa 8, 0
  51:src/SlabI.cpp ****     cachep->kmem_cache_info();
 433              		.loc 1 51 5
 434              		.loc 1 51 28 is_stmt 0
 435 0260 97000000 		call	_ZN12kmem_cache_s15kmem_cache_infoEv@plt
 435      E7800000 
 436              	.LVL38:
GAS LISTING /tmp/ccIZG4nD.s 			page 10


  52:src/SlabI.cpp **** }
 437              		.loc 1 52 1
 438 0268 83308100 		ld	ra,8(sp)
 439              		.cfi_restore 1
 440 026c 03340100 		ld	s0,0(sp)
 441              		.cfi_restore 8
 442              		.cfi_def_cfa 2, 16
 443 0270 13010101 		addi	sp,sp,16
 444              		.cfi_def_cfa_offset 0
 445 0274 67800000 		jr	ra
 446              		.cfi_endproc
 447              	.LFE15:
 449              		.align	2
 450              		.globl	_Z16print_all_cachesv
 452              	_Z16print_all_cachesv:
 453              	.LFB16:
  53:src/SlabI.cpp **** 
  54:src/SlabI.cpp **** void print_all_caches() {
 454              		.loc 1 54 25 is_stmt 1
 455              		.cfi_startproc
 456 0278 130101FF 		addi	sp,sp,-16
 457              		.cfi_def_cfa_offset 16
 458 027c 23341100 		sd	ra,8(sp)
 459 0280 23308100 		sd	s0,0(sp)
 460              		.cfi_offset 1, -8
 461              		.cfi_offset 8, -16
 462 0284 13040101 		addi	s0,sp,16
 463              		.cfi_def_cfa 8, 0
  55:src/SlabI.cpp ****     kmem_cache_t::print_info_all_caches();
 464              		.loc 1 55 5
 465              		.loc 1 55 40 is_stmt 0
 466 0288 97000000 		call	_ZN12kmem_cache_s21print_info_all_cachesEv@plt
 466      E7800000 
 467              	.LVL39:
  56:src/SlabI.cpp **** }
 468              		.loc 1 56 1
 469 0290 83308100 		ld	ra,8(sp)
 470              		.cfi_restore 1
 471 0294 03340100 		ld	s0,0(sp)
 472              		.cfi_restore 8
 473              		.cfi_def_cfa 2, 16
 474 0298 13010101 		addi	sp,sp,16
 475              		.cfi_def_cfa_offset 0
 476 029c 67800000 		jr	ra
 477              		.cfi_endproc
 478              	.LFE16:
 480              		.weak	_ZGVZN11BuddySystem11getInstanceEPviE2bs
 481              		.section	.bss._ZGVZN11BuddySystem11getInstanceEPviE2bs,"awG",@nobits,_ZGVZN11BuddySystem11getInsta
 482              		.align	3
 485              	_ZGVZN11BuddySystem11getInstanceEPviE2bs:
 486 0000 00000000 		.zero	8
 486      00000000 
 487              		.weak	_ZZN11BuddySystem11getInstanceEPviE2bs
 488              		.section	.bss._ZZN11BuddySystem11getInstanceEPviE2bs,"awG",@nobits,_ZZN11BuddySystem11getInstanceE
 489              		.align	3
 492              	_ZZN11BuddySystem11getInstanceEPviE2bs:
 493 0000 00000000 		.zero	344
GAS LISTING /tmp/ccIZG4nD.s 			page 11


 493      00000000 
 493      00000000 
 493      00000000 
 493      00000000 
 494              		.text
 495              	.Letext0:
 496              		.file 3 "src/../h/../lib/hw.h"
 497              		.file 4 "src/../h/SlabI.h"
 498              		.file 5 "src/../h/Slab.h"
 499              		.file 6 "src/../h/../h/String.h"
GAS LISTING /tmp/ccIZG4nD.s 			page 12


DEFINED SYMBOLS
                            *ABS*:0000000000000000 SlabI.cpp
     /tmp/ccIZG4nD.s:9      .text:0000000000000000 _Z9kmem_initPvi
     /tmp/ccIZG4nD.s:13     .text:0000000000000000 .L0 
     /tmp/ccIZG4nD.s:15     .text:0000000000000000 .L0 
     /tmp/ccIZG4nD.s:16     .text:0000000000000004 .L0 
     /tmp/ccIZG4nD.s:21     .text:0000000000000014 .L0 
     /tmp/ccIZG4nD.s:22     .text:0000000000000014 .L0 
     /tmp/ccIZG4nD.s:23     .text:0000000000000014 .L0 
     /tmp/ccIZG4nD.s:24     .text:0000000000000014 .L0 
     /tmp/ccIZG4nD.s:26     .text:0000000000000018 .L0 
     /tmp/ccIZG4nD.s:34     .text:0000000000000020 .L0 
     /tmp/ccIZG4nD.s:35     .text:0000000000000020 .L0 
     /tmp/ccIZG4nD.s:485    .bss._ZGVZN11BuddySystem11getInstanceEPviE2bs:0000000000000000 _ZGVZN11BuddySystem11getInstanceEPviE2bs
     /tmp/ccIZG4nD.s:36     .text:0000000000000020 .L0 
     /tmp/ccIZG4nD.s:41     .text:000000000000002c .L0 
     /tmp/ccIZG4nD.s:43     .text:0000000000000030 .L0 
     /tmp/ccIZG4nD.s:45     .text:0000000000000034 .L0 
     /tmp/ccIZG4nD.s:492    .bss._ZZN11BuddySystem11getInstanceEPviE2bs:0000000000000000 _ZZN11BuddySystem11getInstanceEPviE2bs
     /tmp/ccIZG4nD.s:46     .text:0000000000000034 .L0 
     /tmp/ccIZG4nD.s:49     .text:0000000000000040 .L0 
     /tmp/ccIZG4nD.s:50     .text:0000000000000040 .L0 
     /tmp/ccIZG4nD.s:52     .text:0000000000000044 .L0 
     /tmp/ccIZG4nD.s:53     .text:0000000000000044 .L0 
     /tmp/ccIZG4nD.s:59     .text:000000000000004c .L0 
     /tmp/ccIZG4nD.s:60     .text:000000000000004c .L0 
     /tmp/ccIZG4nD.s:61     .text:0000000000000050 .L0 
     /tmp/ccIZG4nD.s:62     .text:0000000000000050 .L0 
     /tmp/ccIZG4nD.s:64     .text:0000000000000054 .L0 
     /tmp/ccIZG4nD.s:65     .text:0000000000000054 .L0 
     /tmp/ccIZG4nD.s:67     .text:0000000000000058 .L0 
     /tmp/ccIZG4nD.s:69     .text:000000000000005c .L0 
     /tmp/ccIZG4nD.s:72     .text:0000000000000060 .L0 
     /tmp/ccIZG4nD.s:76     .text:0000000000000064 .L0 
     /tmp/ccIZG4nD.s:80     .text:0000000000000064 .L0 
     /tmp/ccIZG4nD.s:89     .text:0000000000000084 .L0 
     /tmp/ccIZG4nD.s:95     .text:0000000000000084 _Z17kmem_cache_createPKcmPFvPvES3_
     /tmp/ccIZG4nD.s:98     .text:0000000000000084 .L0 
     /tmp/ccIZG4nD.s:100    .text:0000000000000084 .L0 
     /tmp/ccIZG4nD.s:101    .text:0000000000000088 .L0 
     /tmp/ccIZG4nD.s:108    .text:00000000000000a0 .L0 
     /tmp/ccIZG4nD.s:109    .text:00000000000000a0 .L0 
     /tmp/ccIZG4nD.s:110    .text:00000000000000a0 .L0 
     /tmp/ccIZG4nD.s:111    .text:00000000000000a0 .L0 
     /tmp/ccIZG4nD.s:112    .text:00000000000000a0 .L0 
     /tmp/ccIZG4nD.s:113    .text:00000000000000a0 .L0 
     /tmp/ccIZG4nD.s:115    .text:00000000000000a4 .L0 
     /tmp/ccIZG4nD.s:121    .text:00000000000000b4 .L0 
     /tmp/ccIZG4nD.s:122    .text:00000000000000b4 .L0 
     /tmp/ccIZG4nD.s:125    .text:00000000000000bc .L0 
     /tmp/ccIZG4nD.s:127    .text:00000000000000c0 .L0 
     /tmp/ccIZG4nD.s:128    .text:00000000000000c0 .L0 
     /tmp/ccIZG4nD.s:136    .text:00000000000000d8 .L0 
     /tmp/ccIZG4nD.s:137    .text:00000000000000dc .L0 
     /tmp/ccIZG4nD.s:138    .text:00000000000000dc .L0 
     /tmp/ccIZG4nD.s:140    .text:00000000000000e0 .L0 
     /tmp/ccIZG4nD.s:141    .text:00000000000000e0 .L0 
GAS LISTING /tmp/ccIZG4nD.s 			page 13


     /tmp/ccIZG4nD.s:143    .text:00000000000000e4 .L0 
     /tmp/ccIZG4nD.s:146    .text:00000000000000e8 .L0 
     /tmp/ccIZG4nD.s:149    .text:00000000000000ec .L0 
     /tmp/ccIZG4nD.s:152    .text:00000000000000f0 .L0 
     /tmp/ccIZG4nD.s:155    .text:00000000000000f4 .L0 
     /tmp/ccIZG4nD.s:159    .text:00000000000000f8 .L0 
     /tmp/ccIZG4nD.s:161    .text:00000000000000f8 .L0 
     /tmp/ccIZG4nD.s:163    .text:0000000000000100 .L0 
     /tmp/ccIZG4nD.s:169    .text:0000000000000100 _Z17kmem_cache_shrinkP12kmem_cache_s
     /tmp/ccIZG4nD.s:172    .text:0000000000000100 .L0 
     /tmp/ccIZG4nD.s:174    .text:0000000000000100 .L0 
     /tmp/ccIZG4nD.s:175    .text:0000000000000104 .L0 
     /tmp/ccIZG4nD.s:178    .text:000000000000010c .L0 
     /tmp/ccIZG4nD.s:179    .text:000000000000010c .L0 
     /tmp/ccIZG4nD.s:181    .text:0000000000000110 .L0 
     /tmp/ccIZG4nD.s:183    .text:0000000000000110 .L0 
     /tmp/ccIZG4nD.s:184    .text:0000000000000110 .L0 
     /tmp/ccIZG4nD.s:187    .text:0000000000000118 .L0 
     /tmp/ccIZG4nD.s:189    .text:0000000000000120 .L0 
     /tmp/ccIZG4nD.s:191    .text:0000000000000124 .L0 
     /tmp/ccIZG4nD.s:192    .text:0000000000000124 .L0 
     /tmp/ccIZG4nD.s:194    .text:0000000000000128 .L0 
     /tmp/ccIZG4nD.s:196    .text:000000000000012c .L0 
     /tmp/ccIZG4nD.s:202    .text:000000000000012c _Z16kmem_cache_allocP12kmem_cache_s
     /tmp/ccIZG4nD.s:205    .text:000000000000012c .L0 
     /tmp/ccIZG4nD.s:207    .text:000000000000012c .L0 
     /tmp/ccIZG4nD.s:208    .text:0000000000000130 .L0 
     /tmp/ccIZG4nD.s:213    .text:0000000000000140 .L0 
     /tmp/ccIZG4nD.s:214    .text:0000000000000140 .L0 
     /tmp/ccIZG4nD.s:215    .text:0000000000000140 .L0 
     /tmp/ccIZG4nD.s:216    .text:0000000000000140 .L0 
     /tmp/ccIZG4nD.s:218    .text:0000000000000144 .L0 
     /tmp/ccIZG4nD.s:223    .text:0000000000000148 .L0 
     /tmp/ccIZG4nD.s:224    .text:0000000000000148 .L0 
     /tmp/ccIZG4nD.s:228    .text:000000000000014c .L0 
     /tmp/ccIZG4nD.s:232    .text:0000000000000154 .L0 
     /tmp/ccIZG4nD.s:233    .text:0000000000000154 .L0 
     /tmp/ccIZG4nD.s:237    .text:0000000000000160 .L0 
     /tmp/ccIZG4nD.s:240    .text:0000000000000164 .L0 
     /tmp/ccIZG4nD.s:247    .text:000000000000016c .L0 
     /tmp/ccIZG4nD.s:250    .text:0000000000000170 .L0 
     /tmp/ccIZG4nD.s:251    .text:0000000000000174 .L0 
     /tmp/ccIZG4nD.s:253    .text:0000000000000178 .L0 
     /tmp/ccIZG4nD.s:254    .text:0000000000000178 .L0 
     /tmp/ccIZG4nD.s:256    .text:000000000000017c .L0 
     /tmp/ccIZG4nD.s:259    .text:0000000000000180 .L0 
     /tmp/ccIZG4nD.s:262    .text:0000000000000184 .L0 
     /tmp/ccIZG4nD.s:264    .text:0000000000000188 .L0 
     /tmp/ccIZG4nD.s:270    .text:0000000000000188 _Z15kmem_cache_freeP12kmem_cache_sPv
     /tmp/ccIZG4nD.s:273    .text:0000000000000188 .L0 
     /tmp/ccIZG4nD.s:275    .text:0000000000000188 .L0 
     /tmp/ccIZG4nD.s:276    .text:000000000000018c .L0 
     /tmp/ccIZG4nD.s:279    .text:0000000000000194 .L0 
     /tmp/ccIZG4nD.s:280    .text:0000000000000194 .L0 
     /tmp/ccIZG4nD.s:282    .text:0000000000000198 .L0 
     /tmp/ccIZG4nD.s:284    .text:0000000000000198 .L0 
     /tmp/ccIZG4nD.s:285    .text:0000000000000198 .L0 
GAS LISTING /tmp/ccIZG4nD.s 			page 14


     /tmp/ccIZG4nD.s:288    .text:00000000000001a0 .L0 
     /tmp/ccIZG4nD.s:289    .text:00000000000001a4 .L0 
     /tmp/ccIZG4nD.s:291    .text:00000000000001a8 .L0 
     /tmp/ccIZG4nD.s:292    .text:00000000000001a8 .L0 
     /tmp/ccIZG4nD.s:294    .text:00000000000001ac .L0 
     /tmp/ccIZG4nD.s:296    .text:00000000000001b0 .L0 
     /tmp/ccIZG4nD.s:302    .text:00000000000001b0 _Z7kmallocm
     /tmp/ccIZG4nD.s:305    .text:00000000000001b0 .L0 
     /tmp/ccIZG4nD.s:307    .text:00000000000001b0 .L0 
     /tmp/ccIZG4nD.s:308    .text:00000000000001b4 .L0 
     /tmp/ccIZG4nD.s:312    .text:00000000000001c0 .L0 
     /tmp/ccIZG4nD.s:313    .text:00000000000001c0 .L0 
     /tmp/ccIZG4nD.s:314    .text:00000000000001c0 .L0 
     /tmp/ccIZG4nD.s:316    .text:00000000000001c4 .L0 
     /tmp/ccIZG4nD.s:319    .text:00000000000001c8 .L0 
     /tmp/ccIZG4nD.s:320    .text:00000000000001c8 .L0 
     /tmp/ccIZG4nD.s:323    .text:00000000000001d0 .L0 
     /tmp/ccIZG4nD.s:325    .text:00000000000001d4 .L0 
     /tmp/ccIZG4nD.s:326    .text:00000000000001d4 .L0 
     /tmp/ccIZG4nD.s:331    .text:00000000000001e0 .L0 
     /tmp/ccIZG4nD.s:332    .text:00000000000001e4 .L0 
     /tmp/ccIZG4nD.s:333    .text:00000000000001e4 .L0 
     /tmp/ccIZG4nD.s:335    .text:00000000000001e8 .L0 
     /tmp/ccIZG4nD.s:336    .text:00000000000001e8 .L0 
     /tmp/ccIZG4nD.s:338    .text:00000000000001ec .L0 
     /tmp/ccIZG4nD.s:341    .text:00000000000001f0 .L0 
     /tmp/ccIZG4nD.s:345    .text:00000000000001f4 .L0 
     /tmp/ccIZG4nD.s:347    .text:00000000000001f4 .L0 
     /tmp/ccIZG4nD.s:349    .text:00000000000001fc .L0 
     /tmp/ccIZG4nD.s:355    .text:00000000000001fc _Z5kfreePKv
     /tmp/ccIZG4nD.s:358    .text:00000000000001fc .L0 
     /tmp/ccIZG4nD.s:360    .text:00000000000001fc .L0 
     /tmp/ccIZG4nD.s:361    .text:0000000000000200 .L0 
     /tmp/ccIZG4nD.s:364    .text:0000000000000208 .L0 
     /tmp/ccIZG4nD.s:365    .text:0000000000000208 .L0 
     /tmp/ccIZG4nD.s:367    .text:000000000000020c .L0 
     /tmp/ccIZG4nD.s:369    .text:000000000000020c .L0 
     /tmp/ccIZG4nD.s:370    .text:000000000000020c .L0 
     /tmp/ccIZG4nD.s:373    .text:0000000000000214 .L0 
     /tmp/ccIZG4nD.s:374    .text:0000000000000218 .L0 
     /tmp/ccIZG4nD.s:376    .text:000000000000021c .L0 
     /tmp/ccIZG4nD.s:377    .text:000000000000021c .L0 
     /tmp/ccIZG4nD.s:379    .text:0000000000000220 .L0 
     /tmp/ccIZG4nD.s:381    .text:0000000000000224 .L0 
     /tmp/ccIZG4nD.s:387    .text:0000000000000224 _Z18kmem_cache_destroyP12kmem_cache_s
     /tmp/ccIZG4nD.s:390    .text:0000000000000224 .L0 
     /tmp/ccIZG4nD.s:392    .text:0000000000000224 .L0 
     /tmp/ccIZG4nD.s:393    .text:0000000000000228 .L0 
     /tmp/ccIZG4nD.s:396    .text:0000000000000230 .L0 
     /tmp/ccIZG4nD.s:397    .text:0000000000000230 .L0 
     /tmp/ccIZG4nD.s:399    .text:0000000000000234 .L0 
     /tmp/ccIZG4nD.s:402    .text:0000000000000238 .L0 
     /tmp/ccIZG4nD.s:403    .text:0000000000000238 .L0 
     /tmp/ccIZG4nD.s:406    .text:0000000000000240 .L0 
     /tmp/ccIZG4nD.s:407    .text:0000000000000244 .L0 
     /tmp/ccIZG4nD.s:409    .text:0000000000000248 .L0 
     /tmp/ccIZG4nD.s:410    .text:0000000000000248 .L0 
GAS LISTING /tmp/ccIZG4nD.s 			page 15


     /tmp/ccIZG4nD.s:412    .text:000000000000024c .L0 
     /tmp/ccIZG4nD.s:414    .text:0000000000000250 .L0 
     /tmp/ccIZG4nD.s:420    .text:0000000000000250 _Z15kmem_cache_infoP12kmem_cache_s
     /tmp/ccIZG4nD.s:423    .text:0000000000000250 .L0 
     /tmp/ccIZG4nD.s:425    .text:0000000000000250 .L0 
     /tmp/ccIZG4nD.s:426    .text:0000000000000254 .L0 
     /tmp/ccIZG4nD.s:429    .text:000000000000025c .L0 
     /tmp/ccIZG4nD.s:430    .text:000000000000025c .L0 
     /tmp/ccIZG4nD.s:432    .text:0000000000000260 .L0 
     /tmp/ccIZG4nD.s:434    .text:0000000000000260 .L0 
     /tmp/ccIZG4nD.s:435    .text:0000000000000260 .L0 
     /tmp/ccIZG4nD.s:438    .text:0000000000000268 .L0 
     /tmp/ccIZG4nD.s:439    .text:000000000000026c .L0 
     /tmp/ccIZG4nD.s:441    .text:0000000000000270 .L0 
     /tmp/ccIZG4nD.s:442    .text:0000000000000270 .L0 
     /tmp/ccIZG4nD.s:444    .text:0000000000000274 .L0 
     /tmp/ccIZG4nD.s:446    .text:0000000000000278 .L0 
     /tmp/ccIZG4nD.s:452    .text:0000000000000278 _Z16print_all_cachesv
     /tmp/ccIZG4nD.s:455    .text:0000000000000278 .L0 
     /tmp/ccIZG4nD.s:456    .text:0000000000000278 .L0 
     /tmp/ccIZG4nD.s:457    .text:000000000000027c .L0 
     /tmp/ccIZG4nD.s:460    .text:0000000000000284 .L0 
     /tmp/ccIZG4nD.s:461    .text:0000000000000284 .L0 
     /tmp/ccIZG4nD.s:463    .text:0000000000000288 .L0 
     /tmp/ccIZG4nD.s:465    .text:0000000000000288 .L0 
     /tmp/ccIZG4nD.s:466    .text:0000000000000288 .L0 
     /tmp/ccIZG4nD.s:469    .text:0000000000000290 .L0 
     /tmp/ccIZG4nD.s:470    .text:0000000000000294 .L0 
     /tmp/ccIZG4nD.s:472    .text:0000000000000298 .L0 
     /tmp/ccIZG4nD.s:473    .text:0000000000000298 .L0 
     /tmp/ccIZG4nD.s:475    .text:000000000000029c .L0 
     /tmp/ccIZG4nD.s:477    .text:00000000000002a0 .L0 
     /tmp/ccIZG4nD.s:500    .text:00000000000002a0 .L0 
     /tmp/ccIZG4nD.s:36     .text:0000000000000020 .L0 
     /tmp/ccIZG4nD.s:46     .text:0000000000000034 .L0 
     /tmp/ccIZG4nD.s:80     .text:0000000000000064 .L0 
     /tmp/ccIZG4nD.s:85     .text:0000000000000078 .L0 
     /tmp/ccIZG4nD.s:75     .text:0000000000000064 .L5
     /tmp/ccIZG4nD.s:56     .text:000000000000004c .L1
     /tmp/ccIZG4nD.s:39     .text:000000000000002c .L2
     /tmp/ccIZG4nD.s:158    .text:00000000000000f8 .L8
     /tmp/ccIZG4nD.s:134    .text:00000000000000d8 .L6
     /tmp/ccIZG4nD.s:244    .text:000000000000016c .L15
     /tmp/ccIZG4nD.s:248    .text:0000000000000170 .L12
     /tmp/ccIZG4nD.s:226    .text:000000000000014c .L14
     /tmp/ccIZG4nD.s:344    .text:00000000000001f4 .L21
     /tmp/ccIZG4nD.s:329    .text:00000000000001e0 .L19
     /tmp/ccIZG4nD.s:1732   .debug_abbrev:0000000000000000 .Ldebug_abbrev0
     /tmp/ccIZG4nD.s:3087   .debug_str:0000000000000845 .LASF113
     /tmp/ccIZG4nD.s:2887   .debug_str:0000000000000017 .LASF114
     /tmp/ccIZG4nD.s:2961   .debug_str:00000000000002f7 .LASF115
     /tmp/ccIZG4nD.s:5      .text:0000000000000000 .Ltext0
     /tmp/ccIZG4nD.s:495    .text:00000000000002a0 .Letext0
     /tmp/ccIZG4nD.s:2881   .debug_line:0000000000000000 .Ldebug_line0
     /tmp/ccIZG4nD.s:3025   .debug_str:00000000000005c8 .LASF0
     /tmp/ccIZG4nD.s:3037   .debug_str:0000000000000663 .LASF1
     /tmp/ccIZG4nD.s:3005   .debug_str:00000000000004e0 .LASF2
GAS LISTING /tmp/ccIZG4nD.s 			page 16


     /tmp/ccIZG4nD.s:2975   .debug_str:00000000000003a3 .LASF4
     /tmp/ccIZG4nD.s:3071   .debug_str:00000000000007be .LASF3
     /tmp/ccIZG4nD.s:2905   .debug_str:00000000000000a0 .LASF5
     /tmp/ccIZG4nD.s:3041   .debug_str:0000000000000687 .LASF6
     /tmp/ccIZG4nD.s:3023   .debug_str:00000000000005b5 .LASF7
     /tmp/ccIZG4nD.s:3099   .debug_str:000000000000094c .LASF8
     /tmp/ccIZG4nD.s:2959   .debug_str:00000000000002e9 .LASF9
     /tmp/ccIZG4nD.s:3053   .debug_str:00000000000006f5 .LASF10
     /tmp/ccIZG4nD.s:2919   .debug_str:0000000000000148 .LASF11
     /tmp/ccIZG4nD.s:3091   .debug_str:0000000000000915 .LASF12
     /tmp/ccIZG4nD.s:2909   .debug_str:00000000000000cc .LASF13
     /tmp/ccIZG4nD.s:2893   .debug_str:0000000000000042 .LASF14
     /tmp/ccIZG4nD.s:2921   .debug_str:0000000000000153 .LASF15
     /tmp/ccIZG4nD.s:3069   .debug_str:00000000000007a8 .LASF16
     /tmp/ccIZG4nD.s:2931   .debug_str:000000000000018a .LASF17
     /tmp/ccIZG4nD.s:3105   .debug_str:000000000000097e .LASF18
     /tmp/ccIZG4nD.s:3103   .debug_str:0000000000000971 .LASF56
     /tmp/ccIZG4nD.s:2935   .debug_str:00000000000001c6 .LASF116
     /tmp/ccIZG4nD.s:3007   .debug_str:00000000000004ee .LASF19
     /tmp/ccIZG4nD.s:2901   .debug_str:0000000000000083 .LASF20
     /tmp/ccIZG4nD.s:3113   .debug_str:00000000000009e3 .LASF21
     /tmp/ccIZG4nD.s:2903   .debug_str:0000000000000091 .LASF22
     /tmp/ccIZG4nD.s:2987   .debug_str:00000000000003ff .LASF23
     /tmp/ccIZG4nD.s:3021   .debug_str:00000000000005a6 .LASF24
     /tmp/ccIZG4nD.s:2967   .debug_str:0000000000000371 .LASF25
     /tmp/ccIZG4nD.s:2899   .debug_str:0000000000000074 .LASF26
     /tmp/ccIZG4nD.s:3125   .debug_str:0000000000000a69 .LASF27
     /tmp/ccIZG4nD.s:2939   .debug_str:00000000000001ef .LASF28
     /tmp/ccIZG4nD.s:2991   .debug_str:0000000000000437 .LASF29
     /tmp/ccIZG4nD.s:3121   .debug_str:0000000000000a2c .LASF30
     /tmp/ccIZG4nD.s:3051   .debug_str:00000000000006e6 .LASF31
     /tmp/ccIZG4nD.s:3009   .debug_str:00000000000004f9 .LASF32
     /tmp/ccIZG4nD.s:2927   .debug_str:000000000000017c .LASF33
     /tmp/ccIZG4nD.s:2891   .debug_str:0000000000000030 .LASF34
     /tmp/ccIZG4nD.s:3061   .debug_str:000000000000074e .LASF36
     /tmp/ccIZG4nD.s:3047   .debug_str:00000000000006c5 .LASF35
     /tmp/ccIZG4nD.s:3017   .debug_str:000000000000054e .LASF37
     /tmp/ccIZG4nD.s:2911   .debug_str:00000000000000dc .LASF38
     /tmp/ccIZG4nD.s:2989   .debug_str:0000000000000411 .LASF39
     /tmp/ccIZG4nD.s:2969   .debug_str:0000000000000379 .LASF40
     /tmp/ccIZG4nD.s:3115   .debug_str:00000000000009ee .LASF41
     /tmp/ccIZG4nD.s:3049   .debug_str:00000000000006d6 .LASF42
     /tmp/ccIZG4nD.s:3107   .debug_str:000000000000098b .LASF44
     /tmp/ccIZG4nD.s:2945   .debug_str:0000000000000229 .LASF43
     /tmp/ccIZG4nD.s:3057   .debug_str:000000000000070f .LASF45
     /tmp/ccIZG4nD.s:3097   .debug_str:0000000000000944 .LASF46
     /tmp/ccIZG4nD.s:2949   .debug_str:0000000000000252 .LASF47
     /tmp/ccIZG4nD.s:2925   .debug_str:0000000000000176 .LASF48
     /tmp/ccIZG4nD.s:3065   .debug_str:0000000000000780 .LASF49
     /tmp/ccIZG4nD.s:3027   .debug_str:00000000000005d5 .LASF50
     /tmp/ccIZG4nD.s:3019   .debug_str:0000000000000574 .LASF51
     /tmp/ccIZG4nD.s:2979   .debug_str:00000000000003b9 .LASF117
     /tmp/ccIZG4nD.s:2941   .debug_str:00000000000001f4 .LASF118
     /tmp/ccIZG4nD.s:3119   .debug_str:0000000000000a1b .LASF52
     /tmp/ccIZG4nD.s:3045   .debug_str:000000000000069f .LASF53
     /tmp/ccIZG4nD.s:2983   .debug_str:00000000000003d4 .LASF54
     /tmp/ccIZG4nD.s:2953   .debug_str:0000000000000276 .LASF55
GAS LISTING /tmp/ccIZG4nD.s 			page 17


     /tmp/ccIZG4nD.s:2993   .debug_str:000000000000043c .LASF80
     /tmp/ccIZG4nD.s:3011   .debug_str:0000000000000501 .LASF67
     /tmp/ccIZG4nD.s:2951   .debug_str:000000000000026e .LASF57
     /tmp/ccIZG4nD.s:3081   .debug_str:0000000000000813 .LASF58
     /tmp/ccIZG4nD.s:3075   .debug_str:00000000000007ed .LASF63
     /tmp/ccIZG4nD.s:3013   .debug_str:000000000000050d .LASF65
     /tmp/ccIZG4nD.s:3085   .debug_str:000000000000083b .LASF59
     /tmp/ccIZG4nD.s:3073   .debug_str:00000000000007d0 .LASF60
     /tmp/ccIZG4nD.s:3089   .debug_str:0000000000000909 .LASF61
     /tmp/ccIZG4nD.s:3015   .debug_str:000000000000052c .LASF62
     /tmp/ccIZG4nD.s:3077   .debug_str:00000000000007f8 .LASF64
     /tmp/ccIZG4nD.s:3127   .debug_str:0000000000000a6e .LASF66
     /tmp/ccIZG4nD.s:3101   .debug_str:000000000000095c .LASF68
     /tmp/ccIZG4nD.s:2977   .debug_str:00000000000003aa .LASF69
     /tmp/ccIZG4nD.s:2971   .debug_str:000000000000038c .LASF70
     /tmp/ccIZG4nD.s:3039   .debug_str:0000000000000676 .LASF71
     /tmp/ccIZG4nD.s:3111   .debug_str:00000000000009d9 .LASF72
     /tmp/ccIZG4nD.s:2895   .debug_str:0000000000000052 .LASF73
     /tmp/ccIZG4nD.s:2997   .debug_str:000000000000046b .LASF74
     /tmp/ccIZG4nD.s:3083   .debug_str:0000000000000818 .LASF75
     /tmp/ccIZG4nD.s:3093   .debug_str:0000000000000924 .LASF76
     /tmp/ccIZG4nD.s:2955   .debug_str:00000000000002a2 .LASF77
     /tmp/ccIZG4nD.s:3063   .debug_str:0000000000000775 .LASF78
     /tmp/ccIZG4nD.s:3003   .debug_str:00000000000004b1 .LASF79
     /tmp/ccIZG4nD.s:2947   .debug_str:000000000000023b .LASF81
     /tmp/ccIZG4nD.s:2923   .debug_str:000000000000015f .LASF119
     /tmp/ccIZG4nD.s:3117   .debug_str:0000000000000a16 .LASF82
     /tmp/ccIZG4nD.s:2889   .debug_str:0000000000000025 .LASF83
     /tmp/ccIZG4nD.s:2999   .debug_str:0000000000000479 .LASF84
     /tmp/ccIZG4nD.s:3079   .debug_str:0000000000000808 .LASF85
     /tmp/ccIZG4nD.s:3035   .debug_str:0000000000000646 .LASF86
     /tmp/ccIZG4nD.s:3109   .debug_str:00000000000009b0 .LASF87
     /tmp/ccIZG4nD.s:3001   .debug_str:0000000000000486 .LASF88
     /tmp/ccIZG4nD.s:3123   .debug_str:0000000000000a31 .LASF89
     /tmp/ccIZG4nD.s:3033   .debug_str:000000000000062e .LASF90
     /tmp/ccIZG4nD.s:2937   .debug_str:00000000000001cb .LASF91
     /tmp/ccIZG4nD.s:3031   .debug_str:0000000000000616 .LASF92
     /tmp/ccIZG4nD.s:2957   .debug_str:00000000000002c5 .LASF93
     /tmp/ccIZG4nD.s:2897   .debug_str:000000000000006f .LASF94
     /tmp/ccIZG4nD.s:3043   .debug_str:000000000000069a .LASF95
     /tmp/ccIZG4nD.s:2995   .debug_str:0000000000000454 .LASF96
     /tmp/ccIZG4nD.s:2885   .debug_str:0000000000000006 .LASF97
     /tmp/ccIZG4nD.s:2985   .debug_str:00000000000003e9 .LASF98
     /tmp/ccIZG4nD.s:453    .text:0000000000000278 .LFB16
     /tmp/ccIZG4nD.s:478    .text:00000000000002a0 .LFE16
     /tmp/ccIZG4nD.s:467    .text:0000000000000290 .LVL39
     /tmp/ccIZG4nD.s:2965   .debug_str:000000000000034e .LASF99
     /tmp/ccIZG4nD.s:421    .text:0000000000000250 .LFB15
     /tmp/ccIZG4nD.s:447    .text:0000000000000278 .LFE15
     /tmp/ccIZG4nD.s:2929   .debug_str:0000000000000183 .LASF101
     /tmp/ccIZG4nD.s:2544   .debug_loc:0000000000000000 .LLST17
     /tmp/ccIZG4nD.s:436    .text:0000000000000268 .LVL38
     /tmp/ccIZG4nD.s:2933   .debug_str:00000000000001a0 .LASF100
     /tmp/ccIZG4nD.s:388    .text:0000000000000224 .LFB14
     /tmp/ccIZG4nD.s:415    .text:0000000000000250 .LFE14
     /tmp/ccIZG4nD.s:2558   .debug_loc:0000000000000039 .LLST16
     /tmp/ccIZG4nD.s:404    .text:0000000000000240 .LVL36
GAS LISTING /tmp/ccIZG4nD.s 			page 18


     /tmp/ccIZG4nD.s:3059   .debug_str:0000000000000742 .LASF102
     /tmp/ccIZG4nD.s:356    .text:00000000000001fc .LFB13
     /tmp/ccIZG4nD.s:382    .text:0000000000000224 .LFE13
     /tmp/ccIZG4nD.s:2981   .debug_str:00000000000003cf .LASF103
     /tmp/ccIZG4nD.s:2572   .debug_loc:0000000000000072 .LLST15
     /tmp/ccIZG4nD.s:371    .text:0000000000000214 .LVL34
     /tmp/ccIZG4nD.s:3067   .debug_str:000000000000079c .LASF105
     /tmp/ccIZG4nD.s:303    .text:00000000000001b0 .LFB12
     /tmp/ccIZG4nD.s:350    .text:00000000000001fc .LFE12
     /tmp/ccIZG4nD.s:2586   .debug_loc:00000000000000ab .LLST14
     /tmp/ccIZG4nD.s:321    .text:00000000000001d0 .LVL29
     /tmp/ccIZG4nD.s:328    .text:00000000000001e0 .LVL30
     /tmp/ccIZG4nD.s:2917   .debug_str:0000000000000123 .LASF104
     /tmp/ccIZG4nD.s:271    .text:0000000000000188 .LFB11
     /tmp/ccIZG4nD.s:297    .text:00000000000001b0 .LFE11
     /tmp/ccIZG4nD.s:2608   .debug_loc:000000000000010a .LLST12
     /tmp/ccIZG4nD.s:2622   .debug_loc:0000000000000143 .LLST13
     /tmp/ccIZG4nD.s:286    .text:00000000000001a0 .LVL27
     /tmp/ccIZG4nD.s:3029   .debug_str:00000000000005f2 .LASF106
     /tmp/ccIZG4nD.s:203    .text:000000000000012c .LFB10
     /tmp/ccIZG4nD.s:265    .text:0000000000000188 .LFE10
     /tmp/ccIZG4nD.s:2636   .debug_loc:000000000000017c .LLST9
     /tmp/ccIZG4nD.s:222    .text:0000000000000148 .LBB8
     /tmp/ccIZG4nD.s:245    .text:000000000000016c .LBE8
     /tmp/ccIZG4nD.s:2654   .debug_loc:00000000000001c8 .LLST10
     /tmp/ccIZG4nD.s:230    .text:0000000000000154 .LBB9
     /tmp/ccIZG4nD.s:238    .text:0000000000000164 .LBE9
     /tmp/ccIZG4nD.s:2670   .debug_loc:0000000000000212 .LLST11
     /tmp/ccIZG4nD.s:235    .text:0000000000000160 .LVL21
     /tmp/ccIZG4nD.s:2907   .debug_str:00000000000000a7 .LASF107
     /tmp/ccIZG4nD.s:170    .text:0000000000000100 .LFB9
     /tmp/ccIZG4nD.s:197    .text:000000000000012c .LFE9
     /tmp/ccIZG4nD.s:2677   .debug_loc:0000000000000235 .LLST8
     /tmp/ccIZG4nD.s:185    .text:0000000000000118 .LVL17
     /tmp/ccIZG4nD.s:2963   .debug_str:000000000000032b .LASF108
     /tmp/ccIZG4nD.s:96     .text:0000000000000084 .LFB8
     /tmp/ccIZG4nD.s:164    .text:0000000000000100 .LFE8
     /tmp/ccIZG4nD.s:2691   .debug_loc:000000000000026e .LLST4
     /tmp/ccIZG4nD.s:2713   .debug_loc:00000000000002cd .LLST5
     /tmp/ccIZG4nD.s:2735   .debug_loc:000000000000032c .LLST6
     /tmp/ccIZG4nD.s:2757   .debug_loc:000000000000038b .LLST7
     /tmp/ccIZG4nD.s:123    .text:00000000000000bc .LVL9
     /tmp/ccIZG4nD.s:133    .text:00000000000000d8 .LVL10
     /tmp/ccIZG4nD.s:2943   .debug_str:000000000000021f .LASF109
     /tmp/ccIZG4nD.s:2913   .debug_str:00000000000000ec .LASF110
     /tmp/ccIZG4nD.s:10     .text:0000000000000000 .LFB7
     /tmp/ccIZG4nD.s:90     .text:0000000000000084 .LFE7
     /tmp/ccIZG4nD.s:2883   .debug_str:0000000000000000 .LASF111
     /tmp/ccIZG4nD.s:2779   .debug_loc:00000000000003ea .LLST0
     /tmp/ccIZG4nD.s:2973   .debug_str:0000000000000399 .LASF112
     /tmp/ccIZG4nD.s:2805   .debug_loc:000000000000045c .LLST1
     /tmp/ccIZG4nD.s:31     .text:0000000000000020 .LBB4
     /tmp/ccIZG4nD.s:2873   .debug_ranges:0000000000000000 .Ldebug_ranges0
     /tmp/ccIZG4nD.s:2830   .debug_loc:00000000000004be .LLST2
     /tmp/ccIZG4nD.s:2841   .debug_loc:00000000000004f4 .LLST3
     /tmp/ccIZG4nD.s:54     .text:000000000000004c .LVL3
     /tmp/ccIZG4nD.s:83     .text:0000000000000074 .LVL7
GAS LISTING /tmp/ccIZG4nD.s 			page 19


     /tmp/ccIZG4nD.s:2915   .debug_str:00000000000000fc .LASF120
     /tmp/ccIZG4nD.s:3095   .debug_str:0000000000000932 .LASF121
     /tmp/ccIZG4nD.s:3055   .debug_str:0000000000000704 .LASF122
     /tmp/ccIZG4nD.s:424    .text:0000000000000250 .LVL37
     /tmp/ccIZG4nD.s:391    .text:0000000000000224 .LVL35
     /tmp/ccIZG4nD.s:359    .text:00000000000001fc .LVL33
     /tmp/ccIZG4nD.s:306    .text:00000000000001b0 .LVL28
     /tmp/ccIZG4nD.s:339    .text:00000000000001ec .LVL31
     /tmp/ccIZG4nD.s:343    .text:00000000000001f4 .LVL32
     /tmp/ccIZG4nD.s:274    .text:0000000000000188 .LVL26
     /tmp/ccIZG4nD.s:206    .text:000000000000012c .LVL18
     /tmp/ccIZG4nD.s:225    .text:000000000000014c .LVL20
     /tmp/ccIZG4nD.s:260    .text:0000000000000180 .LVL25
     /tmp/ccIZG4nD.s:221    .text:0000000000000148 .LVL19
     /tmp/ccIZG4nD.s:241    .text:0000000000000168 .LVL22
     /tmp/ccIZG4nD.s:243    .text:000000000000016c .LVL23
     /tmp/ccIZG4nD.s:257    .text:000000000000017c .LVL24
     /tmp/ccIZG4nD.s:173    .text:0000000000000100 .LVL16
     /tmp/ccIZG4nD.s:99     .text:0000000000000084 .LVL8
     /tmp/ccIZG4nD.s:144    .text:00000000000000e4 .LVL11
     /tmp/ccIZG4nD.s:157    .text:00000000000000f8 .LVL15
     /tmp/ccIZG4nD.s:147    .text:00000000000000e8 .LVL12
     /tmp/ccIZG4nD.s:150    .text:00000000000000ec .LVL13
     /tmp/ccIZG4nD.s:153    .text:00000000000000f0 .LVL14
     /tmp/ccIZG4nD.s:14     .text:0000000000000000 .LVL0
     /tmp/ccIZG4nD.s:38     .text:000000000000002c .LVL2
     /tmp/ccIZG4nD.s:70     .text:000000000000005c .LVL4
     /tmp/ccIZG4nD.s:74     .text:0000000000000064 .LVL5
     /tmp/ccIZG4nD.s:81     .text:000000000000006c .LVL6
     /tmp/ccIZG4nD.s:30     .text:0000000000000020 .LVL1
     /tmp/ccIZG4nD.s:501    .debug_info:0000000000000000 .Ldebug_info0
     /tmp/ccIZG4nD.s:58     .text:000000000000004c .LBE4
     /tmp/ccIZG4nD.s:77     .text:0000000000000064 .LBB7
     /tmp/ccIZG4nD.s:88     .text:0000000000000084 .LBE7

UNDEFINED SYMBOLS
_ZN11BuddySystem9initBuddyEv
_ZN11BuddySystemC1Ev
_Z10size_startPKc
_ZN12kmem_cache_s17kmem_cache_createEPKcmPFvPvES4_
_ZN12kmem_cache_s17kmem_cache_shrinkEv
_ZN12kmem_cache_s16kmem_cache_allocEv
_ZN12kmem_cache_s15kmem_cache_freeEPv
_ZN12kmem_cache_s28is_small_buffer_size_correctEm
_ZN12kmem_cache_s7kmallocEm
_ZN12kmem_cache_s5kfreeEPKv
_ZN12kmem_cache_s18kmem_cache_destroyEm
_ZN12kmem_cache_s15kmem_cache_infoEv
_ZN12kmem_cache_s21print_info_all_cachesEv
