GAS LISTING /tmp/ccIKkRbi.s 			page 1


   1              		.file	"Slab.cpp"
   2              		.option pic
   3              		.option norelax
   4              		.text
   5              	.Ltext0:
   6              		.align	2
   7              		.globl	_ZN12kmem_cache_s16create_free_slabEv
   9              	_ZN12kmem_cache_s16create_free_slabEv:
  10              	.LFB51:
  11              		.file 1 "src/Slab.cpp"
   1:src/Slab.cpp  **** //
   2:src/Slab.cpp  **** // Created by os on 8/18/23.
   3:src/Slab.cpp  **** //
   4:src/Slab.cpp  **** #include "../h/Slab.h"
   5:src/Slab.cpp  **** #include "../test/printing.hpp"
   6:src/Slab.cpp  **** 
   7:src/Slab.cpp  **** kmem_cache_s* kmem_cache_s::head = nullptr;
   8:src/Slab.cpp  **** 
   9:src/Slab.cpp  **** void* kmem_cache_s::kmem_cache_create(const char *name, size_t size, void (*ctor)(void *), void (*d
  10:src/Slab.cpp  **** 
  11:src/Slab.cpp  ****     // check if name already exists in cache list
  12:src/Slab.cpp  ****     for(kmem_cache_s* curr = kmem_cache_s::head; curr; curr = curr->next){
  13:src/Slab.cpp  ****         if(curr->name == name){
  14:src/Slab.cpp  ****             return nullptr;
  15:src/Slab.cpp  ****         }
  16:src/Slab.cpp  ****     }
  17:src/Slab.cpp  **** 
  18:src/Slab.cpp  ****     // assign values
  19:src/Slab.cpp  ****     kmem_cache_s* tmp = (kmem_cache_s*)BuddySystem::getInstance().buddyAlloc(BLOCK_SIZE - sizeof(si
  20:src/Slab.cpp  ****     tmp->name = name;
  21:src/Slab.cpp  ****     tmp->objsize = size;
  22:src/Slab.cpp  ****     tmp->ctor = ctor;
  23:src/Slab.cpp  ****     tmp->dtor = dtor;
  24:src/Slab.cpp  **** 
  25:src/Slab.cpp  ****     // assign default values
  26:src/Slab.cpp  ****     tmp->slabs_full = tmp->slabs_partial = tmp->slabs_free = nullptr;
  27:src/Slab.cpp  ****     tmp->num_slabs_full = tmp->num_slabs_partial = tmp->num_slabs_free = tmp->num_active_obj = tmp-
  28:src/Slab.cpp  ****     tmp->growing = false;
  29:src/Slab.cpp  **** 
  30:src/Slab.cpp  ****     // calc how many blocks one slab should contain
  31:src/Slab.cpp  ****     tmp->size_in_blocks = 1;
  32:src/Slab.cpp  ****     size_t min_size_of_objects = tmp->objsize * NUM_OF_OBJECTS_IN_SLAB;
  33:src/Slab.cpp  ****     size_t min_size_of_arr = 2 * sizeof(size_t);
  34:src/Slab.cpp  ****     // min requirements
  35:src/Slab.cpp  ****     while(tmp->size_in_blocks * BLOCK_SIZE < sizeof(size_t)*2 + sizeof(Slab) + min_size_of_arr + mi
  36:src/Slab.cpp  ****         tmp->size_in_blocks++;
  37:src/Slab.cpp  ****     }
  38:src/Slab.cpp  **** 
  39:src/Slab.cpp  ****     // calc how many objects one slab can contain
  40:src/Slab.cpp  ****     int how_many_objects_into_one_slab = 10;
  41:src/Slab.cpp  ****     int current_size_of_arr = 2;
  42:src/Slab.cpp  ****     while(how_many_objects_into_one_slab * tmp->objsize <=
  43:src/Slab.cpp  ****             (int)(tmp->size_in_blocks * BLOCK_SIZE - sizeof(size_t)*2 - sizeof(Slab) - current_size
  44:src/Slab.cpp  ****         if(++how_many_objects_into_one_slab % 8 == 0){
  45:src/Slab.cpp  ****             current_size_of_arr++;
  46:src/Slab.cpp  ****         }
  47:src/Slab.cpp  ****     }
GAS LISTING /tmp/ccIKkRbi.s 			page 2


  48:src/Slab.cpp  ****     tmp->num = how_many_objects_into_one_slab;
  49:src/Slab.cpp  ****     tmp->size_of_arr = current_size_of_arr;
  50:src/Slab.cpp  **** 
  51:src/Slab.cpp  ****     // creating an empty slab
  52:src/Slab.cpp  ****     tmp->create_free_slab();
  53:src/Slab.cpp  **** 
  54:src/Slab.cpp  ****     // add new cache to cache chain
  55:src/Slab.cpp  ****     tmp->next = kmem_cache_s::head;
  56:src/Slab.cpp  ****     kmem_cache_s::head = tmp;
  57:src/Slab.cpp  **** 
  58:src/Slab.cpp  ****     return (void*)tmp;
  59:src/Slab.cpp  **** }
  60:src/Slab.cpp  **** 
  61:src/Slab.cpp  **** ///
  62:src/Slab.cpp  **** /// \return velicinu za koliko je smanjena memorija (u bajtovima)
  63:src/Slab.cpp  **** size_t kmem_cache_s::kmem_cache_shrink() {
  64:src/Slab.cpp  ****     if(this->growing){
  65:src/Slab.cpp  ****         this->growing = false;
  66:src/Slab.cpp  ****         return 0;
  67:src/Slab.cpp  ****     }
  68:src/Slab.cpp  ****     Slab* curr = this->slabs_free, *prev;
  69:src/Slab.cpp  ****     int cnt = (int)this->num_slabs_free;
  70:src/Slab.cpp  ****     while(curr){
  71:src/Slab.cpp  ****         prev = curr;
  72:src/Slab.cpp  ****         curr = curr->next;
  73:src/Slab.cpp  ****         prev->clear_slab(num, objsize, dtor);
  74:src/Slab.cpp  ****         BuddySystem::getInstance().buddyFree((size_t)prev);
  75:src/Slab.cpp  ****     }
  76:src/Slab.cpp  ****     this->slabs_free = nullptr;
  77:src/Slab.cpp  ****     this->num_slabs_free = 0;
  78:src/Slab.cpp  ****     this->growing = false;
  79:src/Slab.cpp  ****     this->shrink++;
  80:src/Slab.cpp  ****     return cnt * this->size_in_blocks;
  81:src/Slab.cpp  **** }
  82:src/Slab.cpp  **** 
  83:src/Slab.cpp  **** void *kmem_cache_s::kmem_cache_alloc() {
  84:src/Slab.cpp  ****     if(num_slabs_partial != 0){
  85:src/Slab.cpp  ****         void* addr = this->slabs_partial->return_first_free_object_and_rearange_list(this->num, thi
  86:src/Slab.cpp  ****         this->num_active_obj++;
  87:src/Slab.cpp  ****         this->slabs_partial->increment_num_of_active();
  88:src/Slab.cpp  **** 
  89:src/Slab.cpp  ****         if(this->slabs_partial->get_number_of_active_objects() == this->num){
  90:src/Slab.cpp  ****             // move from partial to full
  91:src/Slab.cpp  ****             Slab* tmp = this->slabs_partial;
  92:src/Slab.cpp  ****             this->slabs_partial = this->slabs_partial->next;
  93:src/Slab.cpp  ****             tmp->next = this->slabs_full;
  94:src/Slab.cpp  ****             this->slabs_full = tmp;
  95:src/Slab.cpp  ****             this->num_slabs_partial--;
  96:src/Slab.cpp  ****             this->num_slabs_full++;
  97:src/Slab.cpp  ****         }
  98:src/Slab.cpp  ****         return addr;
  99:src/Slab.cpp  ****     }
 100:src/Slab.cpp  ****     else if(num_slabs_free != 0){
 101:src/Slab.cpp  ****         void* addr1 = this->slabs_free->return_first_free_object_and_rearange_list(this->num, this-
 102:src/Slab.cpp  ****         this->num_active_obj++;
 103:src/Slab.cpp  **** 
 104:src/Slab.cpp  ****         // move from free to partial
GAS LISTING /tmp/ccIKkRbi.s 			page 3


 105:src/Slab.cpp  ****         Slab* tmp = this->slabs_free;
 106:src/Slab.cpp  ****         this->slabs_free = this->slabs_free->next;
 107:src/Slab.cpp  ****         tmp->next = this->slabs_partial;
 108:src/Slab.cpp  ****         tmp->increment_num_of_active();
 109:src/Slab.cpp  ****         this->slabs_partial = tmp;
 110:src/Slab.cpp  ****         this->num_slabs_free--;
 111:src/Slab.cpp  ****         this->num_slabs_partial++;
 112:src/Slab.cpp  **** 
 113:src/Slab.cpp  ****         return addr1;
 114:src/Slab.cpp  ****     }
 115:src/Slab.cpp  ****     else{
 116:src/Slab.cpp  ****         // case if we need to expand cache
 117:src/Slab.cpp  ****         create_free_slab();
 118:src/Slab.cpp  ****         this->growing = true;
 119:src/Slab.cpp  ****         return nullptr;
 120:src/Slab.cpp  ****     }
 121:src/Slab.cpp  **** }
 122:src/Slab.cpp  **** 
 123:src/Slab.cpp  **** void kmem_cache_s::create_free_slab() {
  12              		.loc 1 123 39
  13              		.cfi_startproc
  14              	.LVL0:
  15 0000 130101FD 		addi	sp,sp,-48
  16              		.cfi_def_cfa_offset 48
  17 0004 23341102 		sd	ra,40(sp)
  18 0008 23308102 		sd	s0,32(sp)
  19 000c 233C9100 		sd	s1,24(sp)
  20 0010 23382101 		sd	s2,16(sp)
  21 0014 23343101 		sd	s3,8(sp)
  22 0018 23304101 		sd	s4,0(sp)
  23              		.cfi_offset 1, -8
  24              		.cfi_offset 8, -16
  25              		.cfi_offset 9, -24
  26              		.cfi_offset 18, -32
  27              		.cfi_offset 19, -40
  28              		.cfi_offset 20, -48
  29 001c 13040103 		addi	s0,sp,48
  30              		.cfi_def_cfa 8, 0
  31 0020 93040500 		mv	s1,a0
 124:src/Slab.cpp  ****     Slab* tmp = (Slab*)(BuddySystem::getInstance().buddyAlloc(this->num * this->objsize + sizeof(Sl
  32              		.loc 1 124 5
  33              	.LVL1:
  34              	.LBB55:
  35              	.LBB56:
  36              		.file 2 "src/../h/../h/Buddy.h"
   1:src/../h/../h/Buddy.h **** //
   2:src/../h/../h/Buddy.h **** // Created by os on 8/12/23.
   3:src/../h/../h/Buddy.h **** //
   4:src/../h/../h/Buddy.h **** 
   5:src/../h/../h/Buddy.h **** #ifndef PROJECT_BASE_V1_1_BUDDY_H
   6:src/../h/../h/Buddy.h **** #define PROJECT_BASE_V1_1_BUDDY_H
   7:src/../h/../h/Buddy.h **** 
   8:src/../h/../h/Buddy.h **** #include "../lib/hw.h"
   9:src/../h/../h/Buddy.h **** 
  10:src/../h/../h/Buddy.h **** class BuddySystem{
  11:src/../h/../h/Buddy.h **** public:
  12:src/../h/../h/Buddy.h **** 
GAS LISTING /tmp/ccIKkRbi.s 			page 4


  13:src/../h/../h/Buddy.h ****     void* buddyAlloc(size_t size);
  14:src/../h/../h/Buddy.h ****     void buddyFree(size_t addr);
  15:src/../h/../h/Buddy.h **** 
  16:src/../h/../h/Buddy.h ****     static BuddySystem& getInstance(void *space = nullptr, int block_num = 0){
  17:src/../h/../h/Buddy.h ****         static BuddySystem bs;
  37              		.loc 2 17 9
  38              		.loc 2 17 28 is_stmt 0
  39 0024 97070000 		lbu	a5,_ZGVZN11BuddySystem11getInstanceEPviE2bs
  39      83C70700 
  40 002c 63880706 		beqz	a5,.L8
  41              	.LVL2:
  42              	.L2:
  18:src/../h/../h/Buddy.h ****         if(block_num != 0 && space != nullptr){
  43              		.loc 2 18 9 is_stmt 1
  19:src/../h/../h/Buddy.h ****             bs.buddyHeapStart = (size_t)space;
  20:src/../h/../h/Buddy.h ****             bs.buddyNumOfBlocks = block_num;
  21:src/../h/../h/Buddy.h ****             bs.initBuddy();
  22:src/../h/../h/Buddy.h ****         }
  23:src/../h/../h/Buddy.h ****         return bs;
  44              		.loc 2 23 9
  45              	.LBE56:
  46              	.LBE55:
  47              		.loc 1 124 81 is_stmt 0
  48 0030 83B50403 		ld	a1,48(s1)
  49              		.loc 1 124 69
  50 0034 83B78403 		ld	a5,56(s1)
  51              		.loc 1 124 104
  52 0038 93851500 		addi	a1,a1,1
  53 003c B385F502 		mul	a1,a1,a5
  54              		.loc 1 124 62
  55 0040 93858501 		addi	a1,a1,24
  56 0044 17050000 		lla	a0,_ZZN11BuddySystem11getInstanceEPviE2bs
  56      13050500 
  57 004c 97000000 		call	_ZN11BuddySystem10buddyAllocEm@plt
  57      E7800000 
  58              	.LVL3:
  59 0054 130A0500 		mv	s4,a0
  60              	.LVL4:
 125:src/Slab.cpp  ****     tmp->num_active = 0;
  61              		.loc 1 125 5 is_stmt 1
  62              		.loc 1 125 21 is_stmt 0
  63 0058 23300500 		sd	zero,0(a0)
 126:src/Slab.cpp  ****     tmp->next = nullptr;
  64              		.loc 1 126 5 is_stmt 1
  65              		.loc 1 126 15 is_stmt 0
  66 005c 23340500 		sd	zero,8(a0)
 127:src/Slab.cpp  ****     this->slabs_free = tmp;
  67              		.loc 1 127 5 is_stmt 1
  68              		.loc 1 127 22 is_stmt 0
  69 0060 23B8A400 		sd	a0,16(s1)
 128:src/Slab.cpp  ****     tmp->first_addr = ((size_t)tmp + sizeof(Slab) + this->size_of_arr * sizeof(size_t));
  70              		.loc 1 128 5 is_stmt 1
  71              		.loc 1 128 59 is_stmt 0
  72 0064 03B90404 		ld	s2,64(s1)
  73              		.loc 1 128 71
  74 0068 13193900 		slli	s2,s2,3
  75              		.loc 1 128 51
GAS LISTING /tmp/ccIKkRbi.s 			page 5


  76 006c 33092501 		add	s2,a0,s2
  77 0070 13098901 		addi	s2,s2,24
  78              		.loc 1 128 21
  79 0074 23382501 		sd	s2,16(a0)
 129:src/Slab.cpp  **** 
 130:src/Slab.cpp  ****     for(size_t  i = 0; i < this->size_of_arr; i++){
  80              		.loc 1 130 5 is_stmt 1
  81              	.LVL5:
  82              	.LBB58:
  83              		.loc 1 130 17 is_stmt 0
  84 0078 13070000 		li	a4,0
  85              	.LVL6:
  86              	.L4:
  87              		.loc 1 130 26 is_stmt 1 discriminator 3
  88              		.loc 1 130 34 is_stmt 0 discriminator 3
  89 007c 83B70404 		ld	a5,64(s1)
  90              		.loc 1 130 26 discriminator 3
  91 0080 637EF702 		bleu	a5,a4,.L3
 131:src/Slab.cpp  ****         tmp->free_objects[i] = 0;
  92              		.loc 1 131 9 is_stmt 1 discriminator 2
  93              		.loc 1 131 30 is_stmt 0 discriminator 2
  94 0084 93072700 		addi	a5,a4,2
  95 0088 93973700 		slli	a5,a5,3
  96 008c B307FA00 		add	a5,s4,a5
  97 0090 23B40700 		sd	zero,8(a5)
 130:src/Slab.cpp  ****         tmp->free_objects[i] = 0;
  98              		.loc 1 130 5 is_stmt 1 discriminator 2
  99 0094 13071700 		addi	a4,a4,1
 100              	.LVL7:
 101 0098 6FF05FFE 		j	.L4
 102              	.LVL8:
 103              	.L8:
 104              	.LBE58:
 105              	.LBB59:
 106              	.LBB57:
  17:src/../h/../h/Buddy.h ****         if(block_num != 0 && space != nullptr){
 107              		.loc 2 17 28 is_stmt 0
 108 009c 17050000 		lla	a0,_ZZN11BuddySystem11getInstanceEPviE2bs
 108      13050500 
 109 00a4 97000000 		call	_ZN11BuddySystemC1Ev@plt
 109      E7800000 
 110              	.LVL9:
 111 00ac 93071000 		li	a5,1
 112 00b0 17070000 		sb	a5,_ZGVZN11BuddySystem11getInstanceEPviE2bs,a4
 112      2300F700 
 113 00b8 6FF09FF7 		j	.L2
 114              	.LVL10:
 115              	.L3:
 116              	.LBE57:
 117              	.LBE59:
 132:src/Slab.cpp  ****     }
 133:src/Slab.cpp  **** 
 134:src/Slab.cpp  ****     // initialize slab if there is constructor
 135:src/Slab.cpp  ****     if(this->ctor != nullptr){
 118              		.loc 1 135 5 is_stmt 1
 119              	.LBB60:
 120              		.loc 1 135 14 is_stmt 0
GAS LISTING /tmp/ccIKkRbi.s 			page 6


 121 00bc 83B70405 		ld	a5,80(s1)
 122              		.loc 1 135 5
 123 00c0 63860702 		beqz	a5,.L5
 124              	.LBB61:
 136:src/Slab.cpp  ****         for(size_t i = 0, addr = tmp->first_addr; i < this->num; i++, addr += this->objsize){
 125              		.loc 1 136 20
 126 00c4 93090000 		li	s3,0
 127              	.LVL11:
 128              	.L6:
 129              		.loc 1 136 53 is_stmt 1 discriminator 3
 130              		.loc 1 136 61 is_stmt 0 discriminator 3
 131 00c8 83B78403 		ld	a5,56(s1)
 132              		.loc 1 136 53 discriminator 3
 133 00cc 63F0F902 		bleu	a5,s3,.L5
 137:src/Slab.cpp  ****             this->ctor((void*)addr);
 134              		.loc 1 137 13 is_stmt 1 discriminator 2
 135              		.loc 1 137 19 is_stmt 0 discriminator 2
 136 00d0 83B70405 		ld	a5,80(s1)
 137              		.loc 1 137 23 discriminator 2
 138 00d4 13050900 		mv	a0,s2
 139 00d8 E7800700 		jalr	a5
 140              	.LVL12:
 136:src/Slab.cpp  ****         for(size_t i = 0, addr = tmp->first_addr; i < this->num; i++, addr += this->objsize){
 141              		.loc 1 136 9 is_stmt 1 discriminator 2
 142 00dc 93891900 		addi	s3,s3,1
 143              	.LVL13:
 136:src/Slab.cpp  ****         for(size_t i = 0, addr = tmp->first_addr; i < this->num; i++, addr += this->objsize){
 144              		.loc 1 136 85 is_stmt 0 discriminator 2
 145 00e0 83B70403 		ld	a5,48(s1)
 136:src/Slab.cpp  ****         for(size_t i = 0, addr = tmp->first_addr; i < this->num; i++, addr += this->objsize){
 146              		.loc 1 136 76 discriminator 2
 147 00e4 3309F900 		add	s2,s2,a5
 148              	.LVL14:
 136:src/Slab.cpp  ****         for(size_t i = 0, addr = tmp->first_addr; i < this->num; i++, addr += this->objsize){
 149              		.loc 1 136 9 discriminator 2
 150 00e8 6FF01FFE 		j	.L6
 151              	.LVL15:
 152              	.L5:
 153              	.LBE61:
 154              	.LBE60:
 138:src/Slab.cpp  ****         }
 139:src/Slab.cpp  ****     }
 140:src/Slab.cpp  **** 
 141:src/Slab.cpp  ****     // set free pointer and increment number of free slabs
 142:src/Slab.cpp  ****     this->slabs_free = tmp;
 155              		.loc 1 142 5 is_stmt 1
 156              		.loc 1 142 22 is_stmt 0
 157 00ec 23B84401 		sd	s4,16(s1)
 143:src/Slab.cpp  ****     this->num_slabs_free++;
 158              		.loc 1 143 5 is_stmt 1
 159              		.loc 1 143 11 is_stmt 0
 160 00f0 83B78402 		ld	a5,40(s1)
 161              		.loc 1 143 25
 162 00f4 93871700 		addi	a5,a5,1
 163 00f8 23B4F402 		sd	a5,40(s1)
 144:src/Slab.cpp  **** }
 164              		.loc 1 144 1
GAS LISTING /tmp/ccIKkRbi.s 			page 7


 165 00fc 83308102 		ld	ra,40(sp)
 166              		.cfi_restore 1
 167 0100 03340102 		ld	s0,32(sp)
 168              		.cfi_restore 8
 169              		.cfi_def_cfa 2, 48
 170 0104 83348101 		ld	s1,24(sp)
 171              		.cfi_restore 9
 172              	.LVL16:
 173 0108 03390101 		ld	s2,16(sp)
 174              		.cfi_restore 18
 175 010c 83398100 		ld	s3,8(sp)
 176              		.cfi_restore 19
 177 0110 033A0100 		ld	s4,0(sp)
 178              		.cfi_restore 20
 179              	.LVL17:
 180 0114 13010103 		addi	sp,sp,48
 181              		.cfi_def_cfa_offset 0
 182 0118 67800000 		jr	ra
 183              		.cfi_endproc
 184              	.LFE51:
 186              		.align	2
 187              		.globl	_ZN12kmem_cache_s17kmem_cache_createEPKcmPFvPvES4_
 189              	_ZN12kmem_cache_s17kmem_cache_createEPKcmPFvPvES4_:
 190              	.LFB48:
   9:src/Slab.cpp  **** 
 191              		.loc 1 9 114 is_stmt 1
 192              		.cfi_startproc
 193              	.LVL18:
 194 011c 130101FC 		addi	sp,sp,-64
 195              		.cfi_def_cfa_offset 64
 196 0120 233C1102 		sd	ra,56(sp)
 197 0124 23388102 		sd	s0,48(sp)
 198 0128 23349102 		sd	s1,40(sp)
 199 012c 23302103 		sd	s2,32(sp)
 200 0130 233C3101 		sd	s3,24(sp)
 201 0134 23384101 		sd	s4,16(sp)
 202 0138 23345101 		sd	s5,8(sp)
 203              		.cfi_offset 1, -8
 204              		.cfi_offset 8, -16
 205              		.cfi_offset 9, -24
 206              		.cfi_offset 18, -32
 207              		.cfi_offset 19, -40
 208              		.cfi_offset 20, -48
 209              		.cfi_offset 21, -56
 210 013c 13040104 		addi	s0,sp,64
 211              		.cfi_def_cfa 8, 0
 212 0140 93090500 		mv	s3,a0
 213 0144 13890500 		mv	s2,a1
 214 0148 930A0600 		mv	s5,a2
 215 014c 138A0600 		mv	s4,a3
  12:src/Slab.cpp  ****         if(curr->name == name){
 216              		.loc 1 12 5
 217              	.LBB62:
  12:src/Slab.cpp  ****         if(curr->name == name){
 218              		.loc 1 12 23 is_stmt 0
 219 0150 97070000 		ld	a5,.LANCHOR0
 219      83B70700 
GAS LISTING /tmp/ccIKkRbi.s 			page 8


 220              	.LVL19:
 221              	.L12:
  12:src/Slab.cpp  ****         if(curr->name == name){
 222              		.loc 1 12 50 is_stmt 1 discriminator 1
 223 0158 638A0700 		beqz	a5,.L10
  13:src/Slab.cpp  ****             return nullptr;
 224              		.loc 1 13 9
  13:src/Slab.cpp  ****             return nullptr;
 225              		.loc 1 13 18 is_stmt 0
 226 015c 03B70706 		ld	a4,96(a5)
  13:src/Slab.cpp  ****             return nullptr;
 227              		.loc 1 13 9
 228 0160 63043715 		beq	a4,s3,.L18
  12:src/Slab.cpp  ****         if(curr->name == name){
 229              		.loc 1 12 5 is_stmt 1 discriminator 2
  12:src/Slab.cpp  ****         if(curr->name == name){
 230              		.loc 1 12 61 is_stmt 0 discriminator 2
 231 0164 83B78706 		ld	a5,104(a5)
 232              	.LVL20:
  12:src/Slab.cpp  ****         if(curr->name == name){
 233              		.loc 1 12 5 discriminator 2
 234 0168 6FF01FFF 		j	.L12
 235              	.L10:
 236              	.LBE62:
  19:src/Slab.cpp  ****     tmp->name = name;
 237              		.loc 1 19 5 is_stmt 1
 238              	.LVL21:
 239              	.LBB63:
 240              	.LBB64:
  17:src/../h/../h/Buddy.h ****         if(block_num != 0 && space != nullptr){
 241              		.loc 2 17 9
  17:src/../h/../h/Buddy.h ****         if(block_num != 0 && space != nullptr){
 242              		.loc 2 17 28 is_stmt 0
 243 016c 97070000 		lbu	a5,_ZGVZN11BuddySystem11getInstanceEPviE2bs
 243      83C70700 
 244              	.LVL22:
 245 0174 63820708 		beqz	a5,.L21
 246              	.LVL23:
 247              	.L13:
  18:src/../h/../h/Buddy.h ****             bs.buddyHeapStart = (size_t)space;
 248              		.loc 2 18 9 is_stmt 1
 249              		.loc 2 23 9
 250              	.LBE64:
 251              	.LBE63:
  19:src/Slab.cpp  ****     tmp->name = name;
 252              		.loc 1 19 77 is_stmt 0
 253 0178 B7150000 		li	a1,4096
 254 017c 938585FF 		addi	a1,a1,-8
 255 0180 17050000 		lla	a0,_ZZN11BuddySystem11getInstanceEPviE2bs
 255      13050500 
 256 0188 97000000 		call	_ZN11BuddySystem10buddyAllocEm@plt
 256      E7800000 
 257              	.LVL24:
 258 0190 93040500 		mv	s1,a0
 259              	.LVL25:
  20:src/Slab.cpp  ****     tmp->objsize = size;
 260              		.loc 1 20 5 is_stmt 1
GAS LISTING /tmp/ccIKkRbi.s 			page 9


  20:src/Slab.cpp  ****     tmp->objsize = size;
 261              		.loc 1 20 15 is_stmt 0
 262 0194 23303507 		sd	s3,96(a0)
  21:src/Slab.cpp  ****     tmp->ctor = ctor;
 263              		.loc 1 21 5 is_stmt 1
  21:src/Slab.cpp  ****     tmp->ctor = ctor;
 264              		.loc 1 21 18 is_stmt 0
 265 0198 23382503 		sd	s2,48(a0)
  22:src/Slab.cpp  ****     tmp->dtor = dtor;
 266              		.loc 1 22 5 is_stmt 1
  22:src/Slab.cpp  ****     tmp->dtor = dtor;
 267              		.loc 1 22 15 is_stmt 0
 268 019c 23385505 		sd	s5,80(a0)
  23:src/Slab.cpp  **** 
 269              		.loc 1 23 5 is_stmt 1
  23:src/Slab.cpp  **** 
 270              		.loc 1 23 15 is_stmt 0
 271 01a0 233C4505 		sd	s4,88(a0)
  26:src/Slab.cpp  ****     tmp->num_slabs_full = tmp->num_slabs_partial = tmp->num_slabs_free = tmp->num_active_obj = tmp-
 272              		.loc 1 26 5 is_stmt 1
  26:src/Slab.cpp  ****     tmp->num_slabs_full = tmp->num_slabs_partial = tmp->num_slabs_free = tmp->num_active_obj = tmp-
 273              		.loc 1 26 60 is_stmt 0
 274 01a4 23380500 		sd	zero,16(a0)
  26:src/Slab.cpp  ****     tmp->num_slabs_full = tmp->num_slabs_partial = tmp->num_slabs_free = tmp->num_active_obj = tmp-
 275              		.loc 1 26 42
 276 01a8 23340500 		sd	zero,8(a0)
  26:src/Slab.cpp  ****     tmp->num_slabs_full = tmp->num_slabs_partial = tmp->num_slabs_free = tmp->num_active_obj = tmp-
 277              		.loc 1 26 21
 278 01ac 23300500 		sd	zero,0(a0)
  27:src/Slab.cpp  ****     tmp->growing = false;
 279              		.loc 1 27 5 is_stmt 1
  27:src/Slab.cpp  ****     tmp->growing = false;
 280              		.loc 1 27 108 is_stmt 0
 281 01b0 23300508 		sd	zero,128(a0)
  27:src/Slab.cpp  ****     tmp->growing = false;
 282              		.loc 1 27 94
 283 01b4 23380506 		sd	zero,112(a0)
  27:src/Slab.cpp  ****     tmp->growing = false;
 284              		.loc 1 27 72
 285 01b8 23340502 		sd	zero,40(a0)
  27:src/Slab.cpp  ****     tmp->growing = false;
 286              		.loc 1 27 50
 287 01bc 23300502 		sd	zero,32(a0)
  27:src/Slab.cpp  ****     tmp->growing = false;
 288              		.loc 1 27 25
 289 01c0 233C0500 		sd	zero,24(a0)
  28:src/Slab.cpp  **** 
 290              		.loc 1 28 5 is_stmt 1
  28:src/Slab.cpp  **** 
 291              		.loc 1 28 18 is_stmt 0
 292 01c4 230C0506 		sb	zero,120(a0)
  31:src/Slab.cpp  ****     size_t min_size_of_objects = tmp->objsize * NUM_OF_OBJECTS_IN_SLAB;
 293              		.loc 1 31 5 is_stmt 1
  31:src/Slab.cpp  ****     size_t min_size_of_objects = tmp->objsize * NUM_OF_OBJECTS_IN_SLAB;
 294              		.loc 1 31 25 is_stmt 0
 295 01c8 93071000 		li	a5,1
 296 01cc 2334F504 		sd	a5,72(a0)
GAS LISTING /tmp/ccIKkRbi.s 			page 10


  32:src/Slab.cpp  ****     size_t min_size_of_arr = 2 * sizeof(size_t);
 297              		.loc 1 32 5 is_stmt 1
  32:src/Slab.cpp  ****     size_t min_size_of_arr = 2 * sizeof(size_t);
 298              		.loc 1 32 12 is_stmt 0
 299 01d0 13162900 		slli	a2,s2,2
 300 01d4 33062601 		add	a2,a2,s2
 301 01d8 13161600 		slli	a2,a2,1
 302              	.LVL26:
  33:src/Slab.cpp  ****     // min requirements
 303              		.loc 1 33 5 is_stmt 1
 304              	.L15:
  35:src/Slab.cpp  ****         tmp->size_in_blocks++;
 305              		.loc 1 35 5
  35:src/Slab.cpp  ****         tmp->size_in_blocks++;
 306              		.loc 1 35 44
  35:src/Slab.cpp  ****         tmp->size_in_blocks++;
 307              		.loc 1 35 16 is_stmt 0
 308 01dc 03B78404 		ld	a4,72(s1)
  35:src/Slab.cpp  ****         tmp->size_in_blocks++;
 309              		.loc 1 35 31
 310 01e0 9316C700 		slli	a3,a4,12
  35:src/Slab.cpp  ****         tmp->size_in_blocks++;
 311              		.loc 1 35 96
 312 01e4 93078603 		addi	a5,a2,56
  35:src/Slab.cpp  ****         tmp->size_in_blocks++;
 313              		.loc 1 35 44
 314 01e8 63F8F602 		bgeu	a3,a5,.L19
  36:src/Slab.cpp  ****     }
 315              		.loc 1 36 9 is_stmt 1
  36:src/Slab.cpp  ****     }
 316              		.loc 1 36 28 is_stmt 0
 317 01ec 13071700 		addi	a4,a4,1
 318 01f0 23B4E404 		sd	a4,72(s1)
  35:src/Slab.cpp  ****         tmp->size_in_blocks++;
 319              		.loc 1 35 5
 320 01f4 6FF09FFE 		j	.L15
 321              	.LVL27:
 322              	.L21:
 323              	.LBB66:
 324              	.LBB65:
  17:src/../h/../h/Buddy.h ****         if(block_num != 0 && space != nullptr){
 325              		.loc 2 17 28
 326 01f8 17050000 		lla	a0,_ZZN11BuddySystem11getInstanceEPviE2bs
 326      13050500 
 327              	.LVL28:
 328 0200 97000000 		call	_ZN11BuddySystemC1Ev@plt
 328      E7800000 
 329              	.LVL29:
 330 0208 93071000 		li	a5,1
 331 020c 17070000 		sb	a5,_ZGVZN11BuddySystem11getInstanceEPviE2bs,a4
 331      2300F700 
 332 0214 6FF05FF6 		j	.L13
 333              	.LVL30:
 334              	.L19:
 335              	.LBE65:
 336              	.LBE66:
  41:src/Slab.cpp  ****     while(how_many_objects_into_one_slab * tmp->objsize <=
GAS LISTING /tmp/ccIKkRbi.s 			page 11


 337              		.loc 1 41 9
 338 0218 13052000 		li	a0,2
  40:src/Slab.cpp  ****     int current_size_of_arr = 2;
 339              		.loc 1 40 9
 340 021c 9305A000 		li	a1,10
 341              	.LVL31:
 342              	.L14:
  42:src/Slab.cpp  ****             (int)(tmp->size_in_blocks * BLOCK_SIZE - sizeof(size_t)*2 - sizeof(Slab) - current_size
 343              		.loc 1 42 5 is_stmt 1
  42:src/Slab.cpp  ****             (int)(tmp->size_in_blocks * BLOCK_SIZE - sizeof(size_t)*2 - sizeof(Slab) - current_size
 344              		.loc 1 42 57
  42:src/Slab.cpp  ****             (int)(tmp->size_in_blocks * BLOCK_SIZE - sizeof(size_t)*2 - sizeof(Slab) - current_size
 345              		.loc 1 42 42 is_stmt 0
 346 0220 B3862503 		mul	a3,a1,s2
  43:src/Slab.cpp  ****         if(++how_many_objects_into_one_slab % 8 == 0){
 347              		.loc 1 43 86
 348 0224 93179700 		slli	a5,a4,9
 349 0228 B387A740 		sub	a5,a5,a0
 350 022c 37060020 		li	a2,536870912
 351 0230 1B06B6FF 		addiw	a2,a2,-5
 352 0234 BB87C700 		addw	a5,a5,a2
 353 0238 9B973700 		slliw	a5,a5,3
  42:src/Slab.cpp  ****             (int)(tmp->size_in_blocks * BLOCK_SIZE - sizeof(size_t)*2 - sizeof(Slab) - current_size
 354              		.loc 1 42 57
 355 023c 63EED700 		bgtu	a3,a5,.L16
  44:src/Slab.cpp  ****             current_size_of_arr++;
 356              		.loc 1 44 9 is_stmt 1
  44:src/Slab.cpp  ****             current_size_of_arr++;
 357              		.loc 1 44 49 is_stmt 0
 358 0240 9B871500 		addiw	a5,a1,1
 359 0244 9B850700 		sext.w	a1,a5
 360              	.LVL32:
 361 0248 93F77700 		andi	a5,a5,7
 362              	.LVL33:
  44:src/Slab.cpp  ****             current_size_of_arr++;
 363              		.loc 1 44 9
 364 024c E39A07FC 		bnez	a5,.L14
  45:src/Slab.cpp  ****         }
 365              		.loc 1 45 13 is_stmt 1
  45:src/Slab.cpp  ****         }
 366              		.loc 1 45 32 is_stmt 0
 367 0250 1B051500 		addiw	a0,a0,1
 368              	.LVL34:
 369 0254 6FF0DFFC 		j	.L14
 370              	.LVL35:
 371              	.L16:
  48:src/Slab.cpp  ****     tmp->size_of_arr = current_size_of_arr;
 372              		.loc 1 48 5 is_stmt 1
  48:src/Slab.cpp  ****     tmp->size_of_arr = current_size_of_arr;
 373              		.loc 1 48 14 is_stmt 0
 374 0258 23BCB402 		sd	a1,56(s1)
  49:src/Slab.cpp  **** 
 375              		.loc 1 49 5 is_stmt 1
  49:src/Slab.cpp  **** 
 376              		.loc 1 49 22 is_stmt 0
 377 025c 23B0A404 		sd	a0,64(s1)
  52:src/Slab.cpp  **** 
GAS LISTING /tmp/ccIKkRbi.s 			page 12


 378              		.loc 1 52 5 is_stmt 1
  52:src/Slab.cpp  **** 
 379              		.loc 1 52 26 is_stmt 0
 380 0260 13850400 		mv	a0,s1
 381              	.LVL36:
 382 0264 97000000 		call	_ZN12kmem_cache_s16create_free_slabEv
 382      E7800000 
 383              	.LVL37:
  55:src/Slab.cpp  ****     kmem_cache_s::head = tmp;
 384              		.loc 1 55 5 is_stmt 1
  55:src/Slab.cpp  ****     kmem_cache_s::head = tmp;
 385              		.loc 1 55 15 is_stmt 0
 386 026c 97070000 		lla	a5,.LANCHOR0
 386      93870700 
 387 0274 03B70700 		ld	a4,0(a5)
 388 0278 23B4E406 		sd	a4,104(s1)
  56:src/Slab.cpp  **** 
 389              		.loc 1 56 5 is_stmt 1
  56:src/Slab.cpp  **** 
 390              		.loc 1 56 24 is_stmt 0
 391 027c 23B09700 		sd	s1,0(a5)
  58:src/Slab.cpp  **** }
 392              		.loc 1 58 5 is_stmt 1
 393              	.LVL38:
 394              	.L9:
  59:src/Slab.cpp  **** 
 395              		.loc 1 59 1 is_stmt 0
 396 0280 13850400 		mv	a0,s1
 397 0284 83308103 		ld	ra,56(sp)
 398              		.cfi_remember_state
 399              		.cfi_restore 1
 400 0288 03340103 		ld	s0,48(sp)
 401              		.cfi_restore 8
 402              		.cfi_def_cfa 2, 64
 403 028c 83348102 		ld	s1,40(sp)
 404              		.cfi_restore 9
 405 0290 03390102 		ld	s2,32(sp)
 406              		.cfi_restore 18
 407              	.LVL39:
 408 0294 83398101 		ld	s3,24(sp)
 409              		.cfi_restore 19
 410              	.LVL40:
 411 0298 033A0101 		ld	s4,16(sp)
 412              		.cfi_restore 20
 413              	.LVL41:
 414 029c 833A8100 		ld	s5,8(sp)
 415              		.cfi_restore 21
 416              	.LVL42:
 417 02a0 13010104 		addi	sp,sp,64
 418              		.cfi_def_cfa_offset 0
 419 02a4 67800000 		jr	ra
 420              	.LVL43:
 421              	.L18:
 422              		.cfi_restore_state
 423              	.LBB67:
  14:src/Slab.cpp  ****         }
 424              		.loc 1 14 20
GAS LISTING /tmp/ccIKkRbi.s 			page 13


 425 02a8 93040000 		li	s1,0
 426 02ac 6FF05FFD 		j	.L9
 427              	.LBE67:
 428              		.cfi_endproc
 429              	.LFE48:
 431              		.align	2
 432              		.globl	_ZN4Slab8set_maskEib
 434              	_ZN4Slab8set_maskEib:
 435              	.LFB52:
 145:src/Slab.cpp  **** 
 146:src/Slab.cpp  **** void Slab::set_mask(int position,  bool flag){
 436              		.loc 1 146 46 is_stmt 1
 437              		.cfi_startproc
 438              	.LVL44:
 439 02b0 130101FF 		addi	sp,sp,-16
 440              		.cfi_def_cfa_offset 16
 441 02b4 23348100 		sd	s0,8(sp)
 442              		.cfi_offset 8, -8
 443 02b8 13040101 		addi	s0,sp,16
 444              		.cfi_def_cfa 8, 0
 147:src/Slab.cpp  ****     int pos = position / sizeof(size_t);
 445              		.loc 1 147 5
 446              		.loc 1 147 9 is_stmt 0
 447 02bc 13D83540 		srai	a6,a1,3
 448              	.LVL45:
 148:src/Slab.cpp  ****     int relative_pos = position % sizeof(size_t);
 449              		.loc 1 148 5 is_stmt 1
 450              		.loc 1 148 9 is_stmt 0
 451 02c0 93F57500 		andi	a1,a1,7
 452              	.LVL46:
 149:src/Slab.cpp  ****     size_t mask = 1;
 453              		.loc 1 149 5 is_stmt 1
 150:src/Slab.cpp  ****     for(int i = 0; i < sizeof(size_t) - relative_pos - 1; i++){
 454              		.loc 1 150 5
 455              	.LBB68:
 456              		.loc 1 150 13 is_stmt 0
 457 02c4 13070000 		li	a4,0
 458              	.LBE68:
 149:src/Slab.cpp  ****     size_t mask = 1;
 459              		.loc 1 149 12
 460 02c8 93061000 		li	a3,1
 461              	.LVL47:
 462              	.L24:
 463              	.LBB69:
 464              		.loc 1 150 22 is_stmt 1 discriminator 3
 465              		.loc 1 150 54 is_stmt 0 discriminator 3
 466 02cc 93077000 		li	a5,7
 467 02d0 B387B740 		sub	a5,a5,a1
 468              		.loc 1 150 22 discriminator 3
 469 02d4 6378F700 		bgeu	a4,a5,.L23
 151:src/Slab.cpp  ****         mask <<= 1;
 470              		.loc 1 151 9 is_stmt 1 discriminator 2
 471              		.loc 1 151 14 is_stmt 0 discriminator 2
 472 02d8 93961600 		slli	a3,a3,1
 473              	.LVL48:
 150:src/Slab.cpp  ****     for(int i = 0; i < sizeof(size_t) - relative_pos - 1; i++){
 474              		.loc 1 150 5 is_stmt 1 discriminator 2
GAS LISTING /tmp/ccIKkRbi.s 			page 14


 475 02dc 1B071700 		addiw	a4,a4,1
 476              	.LVL49:
 477 02e0 6FF0DFFE 		j	.L24
 478              	.LVL50:
 479              	.L23:
 480              	.LBE69:
 152:src/Slab.cpp  ****     }
 153:src/Slab.cpp  ****     if(flag){
 481              		.loc 1 153 5
 482 02e4 63040602 		beqz	a2,.L25
 154:src/Slab.cpp  ****         // setujemo bit na jedan
 155:src/Slab.cpp  ****         this->free_objects[pos] |= mask;
 483              		.loc 1 155 9
 484              		.loc 1 155 33 is_stmt 0
 485 02e8 13082800 		addi	a6,a6,2
 486              	.LVL51:
 487 02ec 13183800 		slli	a6,a6,3
 488              	.LVL52:
 489 02f0 33050501 		add	a0,a0,a6
 490              	.LVL53:
 491 02f4 83378500 		ld	a5,8(a0)
 492 02f8 B3E6D700 		or	a3,a5,a3
 493              	.LVL54:
 494 02fc 2334D500 		sd	a3,8(a0)
 495              	.L22:
 156:src/Slab.cpp  ****     }else{
 157:src/Slab.cpp  ****         // setujemo bit na nula
 158:src/Slab.cpp  ****         mask = ~mask;
 159:src/Slab.cpp  ****         this->free_objects[pos] &= mask;
 160:src/Slab.cpp  ****     }
 161:src/Slab.cpp  ****     return;
 162:src/Slab.cpp  **** }
 496              		.loc 1 162 1
 497 0300 03348100 		ld	s0,8(sp)
 498              		.cfi_remember_state
 499              		.cfi_restore 8
 500              		.cfi_def_cfa 2, 16
 501 0304 13010101 		addi	sp,sp,16
 502              		.cfi_def_cfa_offset 0
 503 0308 67800000 		jr	ra
 504              	.LVL55:
 505              	.L25:
 506              		.cfi_restore_state
 158:src/Slab.cpp  ****         this->free_objects[pos] &= mask;
 507              		.loc 1 158 9 is_stmt 1
 158:src/Slab.cpp  ****         this->free_objects[pos] &= mask;
 508              		.loc 1 158 14 is_stmt 0
 509 030c 93C6F6FF 		not	a3,a3
 510              	.LVL56:
 159:src/Slab.cpp  ****     }
 511              		.loc 1 159 9 is_stmt 1
 159:src/Slab.cpp  ****     }
 512              		.loc 1 159 33 is_stmt 0
 513 0310 13082800 		addi	a6,a6,2
 514              	.LVL57:
 515 0314 13183800 		slli	a6,a6,3
 516              	.LVL58:
GAS LISTING /tmp/ccIKkRbi.s 			page 15


 517 0318 33050501 		add	a0,a0,a6
 518              	.LVL59:
 519 031c 83378500 		ld	a5,8(a0)
 520 0320 B3F6D700 		and	a3,a5,a3
 521              	.LVL60:
 522 0324 2334D500 		sd	a3,8(a0)
 161:src/Slab.cpp  **** }
 523              		.loc 1 161 5 is_stmt 1
 524 0328 6FF09FFD 		j	.L22
 525              		.cfi_endproc
 526              	.LFE52:
 528              		.align	2
 529              		.globl	_ZN4Slab9is_activeEi
 531              	_ZN4Slab9is_activeEi:
 532              	.LFB53:
 163:src/Slab.cpp  **** 
 164:src/Slab.cpp  **** bool Slab::is_active(int position){
 533              		.loc 1 164 35
 534              		.cfi_startproc
 535              	.LVL61:
 536 032c 130101FF 		addi	sp,sp,-16
 537              		.cfi_def_cfa_offset 16
 538 0330 23348100 		sd	s0,8(sp)
 539              		.cfi_offset 8, -8
 540 0334 13040101 		addi	s0,sp,16
 541              		.cfi_def_cfa 8, 0
 165:src/Slab.cpp  ****     int pos = position / sizeof(size_t);
 542              		.loc 1 165 5
 543              		.loc 1 165 9 is_stmt 0
 544 0338 13D63540 		srai	a2,a1,3
 545              	.LVL62:
 166:src/Slab.cpp  ****     int relative_pos = position % sizeof(size_t);
 546              		.loc 1 166 5 is_stmt 1
 547              		.loc 1 166 9 is_stmt 0
 548 033c 93F57500 		andi	a1,a1,7
 549              	.LVL63:
 167:src/Slab.cpp  ****     size_t mask = 1;
 550              		.loc 1 167 5 is_stmt 1
 168:src/Slab.cpp  ****     for(int i = 0; i < sizeof(size_t) - relative_pos - 1; i++){
 551              		.loc 1 168 5
 552              	.LBB70:
 553              		.loc 1 168 13 is_stmt 0
 554 0340 13070000 		li	a4,0
 555              	.LBE70:
 167:src/Slab.cpp  ****     size_t mask = 1;
 556              		.loc 1 167 12
 557 0344 93061000 		li	a3,1
 558              	.LVL64:
 559              	.L30:
 560              	.LBB71:
 561              		.loc 1 168 22 is_stmt 1 discriminator 3
 562              		.loc 1 168 54 is_stmt 0 discriminator 3
 563 0348 93077000 		li	a5,7
 564 034c B387B740 		sub	a5,a5,a1
 565              		.loc 1 168 22 discriminator 3
 566 0350 6378F700 		bgeu	a4,a5,.L29
 169:src/Slab.cpp  ****         mask <<= 1;
GAS LISTING /tmp/ccIKkRbi.s 			page 16


 567              		.loc 1 169 9 is_stmt 1 discriminator 2
 568              		.loc 1 169 14 is_stmt 0 discriminator 2
 569 0354 93961600 		slli	a3,a3,1
 570              	.LVL65:
 168:src/Slab.cpp  ****     for(int i = 0; i < sizeof(size_t) - relative_pos - 1; i++){
 571              		.loc 1 168 5 is_stmt 1 discriminator 2
 572 0358 1B071700 		addiw	a4,a4,1
 573              	.LVL66:
 574 035c 6FF0DFFE 		j	.L30
 575              	.LVL67:
 576              	.L29:
 577              	.LBE71:
 170:src/Slab.cpp  ****     }
 171:src/Slab.cpp  ****     return this->free_objects[pos] & mask;
 578              		.loc 1 171 5
 579              		.loc 1 171 34 is_stmt 0
 580 0360 93072600 		addi	a5,a2,2
 581 0364 93973700 		slli	a5,a5,3
 582 0368 3305F500 		add	a0,a0,a5
 583              	.LVL68:
 584 036c 03358500 		ld	a0,8(a0)
 585              		.loc 1 171 36
 586 0370 3375D500 		and	a0,a0,a3
 172:src/Slab.cpp  **** }
 587              		.loc 1 172 1
 588 0374 3335A000 		snez	a0,a0
 589 0378 03348100 		ld	s0,8(sp)
 590              		.cfi_restore 8
 591              		.cfi_def_cfa 2, 16
 592 037c 13010101 		addi	sp,sp,16
 593              		.cfi_def_cfa_offset 0
 594 0380 67800000 		jr	ra
 595              		.cfi_endproc
 596              	.LFE53:
 598              		.align	2
 599              		.globl	_ZN12kmem_cache_s15kmem_cache_freeEPv
 601              	_ZN12kmem_cache_s15kmem_cache_freeEPv:
 602              	.LFB54:
 173:src/Slab.cpp  **** 
 174:src/Slab.cpp  **** // returns -1 if object not found and 0 if removal is completed
 175:src/Slab.cpp  **** int kmem_cache_s::kmem_cache_free(void *objp) {
 603              		.loc 1 175 47 is_stmt 1
 604              		.cfi_startproc
 605              	.LVL69:
 606 0384 130101FD 		addi	sp,sp,-48
 607              		.cfi_def_cfa_offset 48
 608 0388 23341102 		sd	ra,40(sp)
 609 038c 23308102 		sd	s0,32(sp)
 610 0390 233C9100 		sd	s1,24(sp)
 611 0394 23382101 		sd	s2,16(sp)
 612 0398 23343101 		sd	s3,8(sp)
 613 039c 23304101 		sd	s4,0(sp)
 614              		.cfi_offset 1, -8
 615              		.cfi_offset 8, -16
 616              		.cfi_offset 9, -24
 617              		.cfi_offset 18, -32
 618              		.cfi_offset 19, -40
GAS LISTING /tmp/ccIKkRbi.s 			page 17


 619              		.cfi_offset 20, -48
 620 03a0 13040103 		addi	s0,sp,48
 621              		.cfi_def_cfa 8, 0
 622 03a4 130A0500 		mv	s4,a0
 623 03a8 93890500 		mv	s3,a1
 176:src/Slab.cpp  ****     // check firstly in partial
 177:src/Slab.cpp  ****     Slab* prev = nullptr;
 624              		.loc 1 177 5
 625              	.LVL70:
 178:src/Slab.cpp  ****     for(Slab* tmp = this->slabs_partial; tmp; tmp = tmp->next){
 626              		.loc 1 178 5
 627              	.LBB72:
 628              		.loc 1 178 15 is_stmt 0
 629 03ac 83348500 		ld	s1,8(a0)
 630              	.LVL71:
 631              	.LBE72:
 177:src/Slab.cpp  ****     for(Slab* tmp = this->slabs_partial; tmp; tmp = tmp->next){
 632              		.loc 1 177 11
 633 03b0 13090000 		li	s2,0
 634 03b4 6F008001 		j	.L41
 635              	.LVL72:
 636              	.L38:
 637              	.LBB85:
 638              	.LBB73:
 639              	.LBB74:
 640              	.LBB75:
 179:src/Slab.cpp  ****         if((size_t)objp > (size_t)tmp &&
 180:src/Slab.cpp  ****         (size_t)objp < (size_t)tmp + this->size_in_blocks * BLOCK_SIZE - sizeof(size_t)){
 181:src/Slab.cpp  ****             size_t position = (((size_t)objp - (size_t)tmp->first_addr)) / (size_t)this->objsize;
 182:src/Slab.cpp  ****             tmp->set_mask(position, false);
 183:src/Slab.cpp  ****             if(this->dtor){
 184:src/Slab.cpp  ****                 this->dtor(objp);
 185:src/Slab.cpp  ****             }
 186:src/Slab.cpp  ****             if(this->ctor){
 187:src/Slab.cpp  ****                 this->ctor(objp);
 188:src/Slab.cpp  ****             }
 189:src/Slab.cpp  **** 
 190:src/Slab.cpp  ****             this->num_active_obj--;
 191:src/Slab.cpp  ****             tmp->decrement_num_of_active();
 192:src/Slab.cpp  ****             size_t number_of_active = tmp->get_number_of_active_objects();
 193:src/Slab.cpp  ****             if(number_of_active == 0){
 194:src/Slab.cpp  ****                 // move from partial to free
 195:src/Slab.cpp  ****                 if(prev)prev->next = tmp->next;
 196:src/Slab.cpp  ****                 else slabs_partial = tmp->next;
 641              		.loc 1 196 22 is_stmt 1
 642              		.loc 1 196 43 is_stmt 0
 643 03b8 83B78400 		ld	a5,8(s1)
 644              	.LVL73:
 645              		.loc 1 196 36
 646 03bc 2334FA00 		sd	a5,8(s4)
 647              	.LVL74:
 648 03c0 6F004009 		j	.L39
 649              	.LVL75:
 650              	.L34:
 651              	.LBE75:
 652              	.LBE74:
 197:src/Slab.cpp  ****                 tmp->next = this->slabs_free;
GAS LISTING /tmp/ccIKkRbi.s 			page 18


 198:src/Slab.cpp  ****                 this->slabs_free = tmp;
 199:src/Slab.cpp  ****                 this->num_slabs_partial--;
 200:src/Slab.cpp  ****                 this->num_slabs_free++;
 201:src/Slab.cpp  ****             }
 202:src/Slab.cpp  ****             return 0;
 203:src/Slab.cpp  ****         }
 204:src/Slab.cpp  ****         prev = tmp;
 653              		.loc 1 204 9 is_stmt 1 discriminator 2
 654              	.LBE73:
 178:src/Slab.cpp  ****         if((size_t)objp > (size_t)tmp &&
 655              		.loc 1 178 5 discriminator 2
 656              	.LBB82:
 657              		.loc 1 204 14 is_stmt 0 discriminator 2
 658 03c4 13890400 		mv	s2,s1
 659              	.LBE82:
 178:src/Slab.cpp  ****         if((size_t)objp > (size_t)tmp &&
 660              		.loc 1 178 51 discriminator 2
 661 03c8 83B48400 		ld	s1,8(s1)
 662              	.LVL76:
 663              	.L41:
 178:src/Slab.cpp  ****         if((size_t)objp > (size_t)tmp &&
 664              		.loc 1 178 42 is_stmt 1 discriminator 1
 665 03cc 638A040A 		beqz	s1,.L33
 666              	.LBB83:
 179:src/Slab.cpp  ****         if((size_t)objp > (size_t)tmp &&
 667              		.loc 1 179 9
 668              	.LBB80:
 669 03d0 E3FA34FF 		bleu	s3,s1,.L34
 180:src/Slab.cpp  ****             size_t position = (((size_t)objp - (size_t)tmp->first_addr)) / (size_t)this->objsize;
 670              		.loc 1 180 44 is_stmt 0 discriminator 1
 671 03d4 83378A04 		ld	a5,72(s4)
 180:src/Slab.cpp  ****             size_t position = (((size_t)objp - (size_t)tmp->first_addr)) / (size_t)this->objsize;
 672              		.loc 1 180 59 discriminator 1
 673 03d8 9397C700 		slli	a5,a5,12
 180:src/Slab.cpp  ****             size_t position = (((size_t)objp - (size_t)tmp->first_addr)) / (size_t)this->objsize;
 674              		.loc 1 180 36 discriminator 1
 675 03dc B387F400 		add	a5,s1,a5
 180:src/Slab.cpp  ****             size_t position = (((size_t)objp - (size_t)tmp->first_addr)) / (size_t)this->objsize;
 676              		.loc 1 180 72 discriminator 1
 677 03e0 938787FF 		addi	a5,a5,-8
 179:src/Slab.cpp  ****         (size_t)objp < (size_t)tmp + this->size_in_blocks * BLOCK_SIZE - sizeof(size_t)){
 678              		.loc 1 179 39 discriminator 1
 679 03e4 E3F0F9FE 		bgeu	s3,a5,.L34
 680              	.LBB78:
 181:src/Slab.cpp  ****             tmp->set_mask(position, false);
 681              		.loc 1 181 13 is_stmt 1
 181:src/Slab.cpp  ****             tmp->set_mask(position, false);
 682              		.loc 1 181 61 is_stmt 0
 683 03e8 83B50401 		ld	a1,16(s1)
 684              	.LVL77:
 181:src/Slab.cpp  ****             tmp->set_mask(position, false);
 685              		.loc 1 181 46
 686 03ec 3387B940 		sub	a4,s3,a1
 181:src/Slab.cpp  ****             tmp->set_mask(position, false);
 687              		.loc 1 181 90
 688 03f0 83350A03 		ld	a1,48(s4)
 181:src/Slab.cpp  ****             tmp->set_mask(position, false);
GAS LISTING /tmp/ccIKkRbi.s 			page 19


 689              		.loc 1 181 20
 690 03f4 B355B702 		divu	a1,a4,a1
 691              	.LVL78:
 182:src/Slab.cpp  ****             if(this->dtor){
 692              		.loc 1 182 13 is_stmt 1
 182:src/Slab.cpp  ****             if(this->dtor){
 693              		.loc 1 182 26 is_stmt 0
 694 03f8 13060000 		li	a2,0
 695 03fc 9B850500 		sext.w	a1,a1
 696              	.LVL79:
 697 0400 13850400 		mv	a0,s1
 698              	.LVL80:
 699 0404 97000000 		call	_ZN4Slab8set_maskEib
 699      E7800000 
 700              	.LVL81:
 183:src/Slab.cpp  ****                 this->dtor(objp);
 701              		.loc 1 183 13 is_stmt 1
 183:src/Slab.cpp  ****                 this->dtor(objp);
 702              		.loc 1 183 22 is_stmt 0
 703 040c 83378A05 		ld	a5,88(s4)
 183:src/Slab.cpp  ****                 this->dtor(objp);
 704              		.loc 1 183 13
 705 0410 63860700 		beqz	a5,.L35
 184:src/Slab.cpp  ****             }
 706              		.loc 1 184 17 is_stmt 1
 184:src/Slab.cpp  ****             }
 707              		.loc 1 184 27 is_stmt 0
 708 0414 13850900 		mv	a0,s3
 709 0418 E7800700 		jalr	a5
 710              	.LVL82:
 711              	.L35:
 186:src/Slab.cpp  ****                 this->ctor(objp);
 712              		.loc 1 186 13 is_stmt 1
 186:src/Slab.cpp  ****                 this->ctor(objp);
 713              		.loc 1 186 22 is_stmt 0
 714 041c 83370A05 		ld	a5,80(s4)
 186:src/Slab.cpp  ****                 this->ctor(objp);
 715              		.loc 1 186 13
 716 0420 63860700 		beqz	a5,.L36
 187:src/Slab.cpp  ****             }
 717              		.loc 1 187 17 is_stmt 1
 187:src/Slab.cpp  ****             }
 718              		.loc 1 187 27 is_stmt 0
 719 0424 13850900 		mv	a0,s3
 720 0428 E7800700 		jalr	a5
 721              	.LVL83:
 722              	.L36:
 190:src/Slab.cpp  ****             tmp->decrement_num_of_active();
 723              		.loc 1 190 13 is_stmt 1
 190:src/Slab.cpp  ****             tmp->decrement_num_of_active();
 724              		.loc 1 190 19 is_stmt 0
 725 042c 83370A07 		ld	a5,112(s4)
 190:src/Slab.cpp  ****             tmp->decrement_num_of_active();
 726              		.loc 1 190 33
 727 0430 9387F7FF 		addi	a5,a5,-1
 728 0434 2338FA06 		sd	a5,112(s4)
 191:src/Slab.cpp  ****             size_t number_of_active = tmp->get_number_of_active_objects();
GAS LISTING /tmp/ccIKkRbi.s 			page 20


 729              		.loc 1 191 13 is_stmt 1
 730              	.LVL84:
 731              	.LBB76:
 732              	.LBB77:
 733              		.file 3 "src/../h/Slab.h"
   1:src/../h/Slab.h **** 
   2:src/../h/Slab.h **** #include "../lib/hw.h"
   3:src/../h/Slab.h **** #include "../h/Buddy.h"
   4:src/../h/Slab.h **** #include "../h/String.h"
   5:src/../h/Slab.h **** 
   6:src/../h/Slab.h **** struct Slab{
   7:src/../h/Slab.h **** private:
   8:src/../h/Slab.h ****     friend struct kmem_cache_s;
   9:src/../h/Slab.h ****     size_t num_active = 0; // number of active objects in slab
  10:src/../h/Slab.h ****     Slab* next = nullptr; // next slab
  11:src/../h/Slab.h ****     size_t first_addr;
  12:src/../h/Slab.h ****     size_t free_objects[];
  13:src/../h/Slab.h **** 
  14:src/../h/Slab.h **** public:
  15:src/../h/Slab.h ****     void clear_slab(int num_of_objects_in_slab, int objsize, void (*dtor)(void *));
  16:src/../h/Slab.h ****     size_t get_number_of_active_objects(){return num_active;}
  17:src/../h/Slab.h ****     void* return_first_free_object_and_rearange_list(int, int);
  18:src/../h/Slab.h ****     void increment_num_of_active(){num_active++;}
  19:src/../h/Slab.h ****     void decrement_num_of_active(){num_active--;}
 734              		.loc 3 19 36
 735 0438 83B70400 		ld	a5,0(s1)
 736              		.loc 3 19 46 is_stmt 0
 737 043c 9387F7FF 		addi	a5,a5,-1
 738 0440 23B0F400 		sd	a5,0(s1)
 739              	.LVL85:
 740              	.LBE77:
 741              	.LBE76:
 192:src/Slab.cpp  ****             if(number_of_active == 0){
 742              		.loc 1 192 13 is_stmt 1
 743              	.LBE78:
 744              	.LBE80:
 745              	.LBE83:
 746              	.LBE85:
  16:src/../h/Slab.h ****     void* return_first_free_object_and_rearange_list(int, int);
 747              		.loc 3 16 43
 748              	.LBB86:
 749              	.LBB84:
 750              	.LBB81:
 751              	.LBB79:
 193:src/Slab.cpp  ****                 // move from partial to free
 752              		.loc 1 193 13
 753 0444 639A0702 		bnez	a5,.L37
 195:src/Slab.cpp  ****                 else slabs_partial = tmp->next;
 754              		.loc 1 195 17
 755 0448 E30809F6 		beqz	s2,.L38
 195:src/Slab.cpp  ****                 else slabs_partial = tmp->next;
 756              		.loc 1 195 25 discriminator 1
 195:src/Slab.cpp  ****                 else slabs_partial = tmp->next;
 757              		.loc 1 195 43 is_stmt 0 discriminator 1
 758 044c 83B78400 		ld	a5,8(s1)
 759              	.LVL86:
 195:src/Slab.cpp  ****                 else slabs_partial = tmp->next;
GAS LISTING /tmp/ccIKkRbi.s 			page 21


 760              		.loc 1 195 36 discriminator 1
 761 0450 2334F900 		sd	a5,8(s2)
 762              	.LVL87:
 763              	.L39:
 197:src/Slab.cpp  ****                 this->slabs_free = tmp;
 764              		.loc 1 197 17 is_stmt 1
 197:src/Slab.cpp  ****                 this->slabs_free = tmp;
 765              		.loc 1 197 35 is_stmt 0
 766 0454 83370A01 		ld	a5,16(s4)
 197:src/Slab.cpp  ****                 this->slabs_free = tmp;
 767              		.loc 1 197 27
 768 0458 23B4F400 		sd	a5,8(s1)
 198:src/Slab.cpp  ****                 this->num_slabs_partial--;
 769              		.loc 1 198 17 is_stmt 1
 198:src/Slab.cpp  ****                 this->num_slabs_partial--;
 770              		.loc 1 198 34 is_stmt 0
 771 045c 23389A00 		sd	s1,16(s4)
 199:src/Slab.cpp  ****                 this->num_slabs_free++;
 772              		.loc 1 199 17 is_stmt 1
 199:src/Slab.cpp  ****                 this->num_slabs_free++;
 773              		.loc 1 199 23 is_stmt 0
 774 0460 83370A02 		ld	a5,32(s4)
 199:src/Slab.cpp  ****                 this->num_slabs_free++;
 775              		.loc 1 199 40
 776 0464 9387F7FF 		addi	a5,a5,-1
 777 0468 2330FA02 		sd	a5,32(s4)
 200:src/Slab.cpp  ****             }
 778              		.loc 1 200 17 is_stmt 1
 200:src/Slab.cpp  ****             }
 779              		.loc 1 200 23 is_stmt 0
 780 046c 83378A02 		ld	a5,40(s4)
 200:src/Slab.cpp  ****             }
 781              		.loc 1 200 37
 782 0470 93871700 		addi	a5,a5,1
 783 0474 2334FA02 		sd	a5,40(s4)
 784              	.L37:
 202:src/Slab.cpp  ****         }
 785              		.loc 1 202 13 is_stmt 1
 202:src/Slab.cpp  ****         }
 786              		.loc 1 202 20 is_stmt 0
 787 0478 13050000 		li	a0,0
 788 047c 6F00400D 		j	.L40
 789              	.LVL88:
 790              	.L33:
 791              	.LBE79:
 792              	.LBE81:
 793              	.LBE84:
 794              	.LBE86:
 205:src/Slab.cpp  ****     }
 206:src/Slab.cpp  ****     // check in full
 207:src/Slab.cpp  ****     prev = nullptr;
 795              		.loc 1 207 5 is_stmt 1
 208:src/Slab.cpp  ****     for(Slab* tmp = this->slabs_full; tmp; tmp = tmp->next){
 796              		.loc 1 208 5
 797              	.LBB87:
 798              		.loc 1 208 15 is_stmt 0
 799 0480 03390A00 		ld	s2,0(s4)
GAS LISTING /tmp/ccIKkRbi.s 			page 22


 800              	.LVL89:
 801 0484 6F008001 		j	.L47
 802              	.LVL90:
 803              	.L45:
 804              	.LBB88:
 805              	.LBB89:
 806              	.LBB90:
 209:src/Slab.cpp  ****         if((size_t)objp > (size_t)tmp &&
 210:src/Slab.cpp  ****            (size_t)objp < (size_t)tmp + this->size_in_blocks * BLOCK_SIZE - sizeof(size_t)){
 211:src/Slab.cpp  ****             size_t position = (((size_t)objp - (size_t)tmp->first_addr)) / (size_t)this->objsize;
 212:src/Slab.cpp  ****             tmp->set_mask(position, false);
 213:src/Slab.cpp  ****             if(this->dtor){
 214:src/Slab.cpp  ****                 this->dtor(objp);
 215:src/Slab.cpp  ****             }
 216:src/Slab.cpp  ****             if(this->ctor){
 217:src/Slab.cpp  ****                 this->ctor(objp);
 218:src/Slab.cpp  ****             }
 219:src/Slab.cpp  ****             this->num_active_obj--;
 220:src/Slab.cpp  ****             tmp->decrement_num_of_active();
 221:src/Slab.cpp  **** 
 222:src/Slab.cpp  ****             // move from full to partial
 223:src/Slab.cpp  ****             if(prev)prev->next = tmp->next;
 224:src/Slab.cpp  ****             else slabs_full = tmp->next;
 807              		.loc 1 224 18 is_stmt 1
 808              		.loc 1 224 36 is_stmt 0
 809 0488 83378900 		ld	a5,8(s2)
 810              		.loc 1 224 29
 811 048c 2330FA00 		sd	a5,0(s4)
 812 0490 6F000009 		j	.L46
 813              	.LVL91:
 814              	.L42:
 815              	.LBE90:
 816              	.LBE89:
 225:src/Slab.cpp  ****             tmp->next = this->slabs_partial;
 226:src/Slab.cpp  ****             this->slabs_partial = tmp;
 227:src/Slab.cpp  ****             this->num_slabs_full--;
 228:src/Slab.cpp  ****             this->num_slabs_partial++;
 229:src/Slab.cpp  **** 
 230:src/Slab.cpp  ****             return 0;
 231:src/Slab.cpp  ****         }
 232:src/Slab.cpp  ****         prev = tmp;
 817              		.loc 1 232 9 is_stmt 1 discriminator 2
 818              	.LBE88:
 208:src/Slab.cpp  ****         if((size_t)objp > (size_t)tmp &&
 819              		.loc 1 208 5 discriminator 2
 820              	.LBB95:
 821              		.loc 1 232 14 is_stmt 0 discriminator 2
 822 0494 93040900 		mv	s1,s2
 823              	.LBE95:
 208:src/Slab.cpp  ****         if((size_t)objp > (size_t)tmp &&
 824              		.loc 1 208 48 discriminator 2
 825 0498 03398900 		ld	s2,8(s2)
 826              	.LVL92:
 827              	.L47:
 208:src/Slab.cpp  ****         if((size_t)objp > (size_t)tmp &&
 828              		.loc 1 208 39 is_stmt 1 discriminator 1
 829 049c 6308090A 		beqz	s2,.L48
GAS LISTING /tmp/ccIKkRbi.s 			page 23


 830              	.LBB96:
 209:src/Slab.cpp  ****         if((size_t)objp > (size_t)tmp &&
 831              		.loc 1 209 9
 832              	.LBB94:
 833 04a0 E37A39FF 		bleu	s3,s2,.L42
 210:src/Slab.cpp  ****             size_t position = (((size_t)objp - (size_t)tmp->first_addr)) / (size_t)this->objsize;
 834              		.loc 1 210 47 is_stmt 0 discriminator 1
 835 04a4 83378A04 		ld	a5,72(s4)
 210:src/Slab.cpp  ****             size_t position = (((size_t)objp - (size_t)tmp->first_addr)) / (size_t)this->objsize;
 836              		.loc 1 210 62 discriminator 1
 837 04a8 9397C700 		slli	a5,a5,12
 210:src/Slab.cpp  ****             size_t position = (((size_t)objp - (size_t)tmp->first_addr)) / (size_t)this->objsize;
 838              		.loc 1 210 39 discriminator 1
 839 04ac B307F900 		add	a5,s2,a5
 210:src/Slab.cpp  ****             size_t position = (((size_t)objp - (size_t)tmp->first_addr)) / (size_t)this->objsize;
 840              		.loc 1 210 75 discriminator 1
 841 04b0 938787FF 		addi	a5,a5,-8
 209:src/Slab.cpp  ****            (size_t)objp < (size_t)tmp + this->size_in_blocks * BLOCK_SIZE - sizeof(size_t)){
 842              		.loc 1 209 39 discriminator 1
 843 04b4 E3F0F9FE 		bgeu	s3,a5,.L42
 844              	.LBB93:
 211:src/Slab.cpp  ****             tmp->set_mask(position, false);
 845              		.loc 1 211 13 is_stmt 1
 211:src/Slab.cpp  ****             tmp->set_mask(position, false);
 846              		.loc 1 211 61 is_stmt 0
 847 04b8 83350901 		ld	a1,16(s2)
 848              	.LVL93:
 211:src/Slab.cpp  ****             tmp->set_mask(position, false);
 849              		.loc 1 211 46
 850 04bc 3387B940 		sub	a4,s3,a1
 211:src/Slab.cpp  ****             tmp->set_mask(position, false);
 851              		.loc 1 211 90
 852 04c0 83350A03 		ld	a1,48(s4)
 211:src/Slab.cpp  ****             tmp->set_mask(position, false);
 853              		.loc 1 211 20
 854 04c4 B355B702 		divu	a1,a4,a1
 855              	.LVL94:
 212:src/Slab.cpp  ****             if(this->dtor){
 856              		.loc 1 212 13 is_stmt 1
 212:src/Slab.cpp  ****             if(this->dtor){
 857              		.loc 1 212 26 is_stmt 0
 858 04c8 13060000 		li	a2,0
 859 04cc 9B850500 		sext.w	a1,a1
 860              	.LVL95:
 861 04d0 13050900 		mv	a0,s2
 862              	.LVL96:
 863 04d4 97000000 		call	_ZN4Slab8set_maskEib
 863      E7800000 
 864              	.LVL97:
 213:src/Slab.cpp  ****                 this->dtor(objp);
 865              		.loc 1 213 13 is_stmt 1
 213:src/Slab.cpp  ****                 this->dtor(objp);
 866              		.loc 1 213 22 is_stmt 0
 867 04dc 83378A05 		ld	a5,88(s4)
 213:src/Slab.cpp  ****                 this->dtor(objp);
 868              		.loc 1 213 13
 869 04e0 63860700 		beqz	a5,.L43
GAS LISTING /tmp/ccIKkRbi.s 			page 24


 214:src/Slab.cpp  ****             }
 870              		.loc 1 214 17 is_stmt 1
 214:src/Slab.cpp  ****             }
 871              		.loc 1 214 27 is_stmt 0
 872 04e4 13850900 		mv	a0,s3
 873 04e8 E7800700 		jalr	a5
 874              	.LVL98:
 875              	.L43:
 216:src/Slab.cpp  ****                 this->ctor(objp);
 876              		.loc 1 216 13 is_stmt 1
 216:src/Slab.cpp  ****                 this->ctor(objp);
 877              		.loc 1 216 22 is_stmt 0
 878 04ec 83370A05 		ld	a5,80(s4)
 216:src/Slab.cpp  ****                 this->ctor(objp);
 879              		.loc 1 216 13
 880 04f0 63860700 		beqz	a5,.L44
 217:src/Slab.cpp  ****             }
 881              		.loc 1 217 17 is_stmt 1
 217:src/Slab.cpp  ****             }
 882              		.loc 1 217 27 is_stmt 0
 883 04f4 13850900 		mv	a0,s3
 884 04f8 E7800700 		jalr	a5
 885              	.LVL99:
 886              	.L44:
 219:src/Slab.cpp  ****             tmp->decrement_num_of_active();
 887              		.loc 1 219 13 is_stmt 1
 219:src/Slab.cpp  ****             tmp->decrement_num_of_active();
 888              		.loc 1 219 19 is_stmt 0
 889 04fc 83370A07 		ld	a5,112(s4)
 219:src/Slab.cpp  ****             tmp->decrement_num_of_active();
 890              		.loc 1 219 33
 891 0500 9387F7FF 		addi	a5,a5,-1
 892 0504 2338FA06 		sd	a5,112(s4)
 220:src/Slab.cpp  **** 
 893              		.loc 1 220 13 is_stmt 1
 894              	.LVL100:
 895              	.LBB91:
 896              	.LBB92:
 897              		.loc 3 19 36
 898 0508 83370900 		ld	a5,0(s2)
 899              		.loc 3 19 46 is_stmt 0
 900 050c 9387F7FF 		addi	a5,a5,-1
 901 0510 2330F900 		sd	a5,0(s2)
 902              	.LVL101:
 903              	.LBE92:
 904              	.LBE91:
 223:src/Slab.cpp  ****             else slabs_full = tmp->next;
 905              		.loc 1 223 13 is_stmt 1
 906 0514 E38A04F6 		beqz	s1,.L45
 223:src/Slab.cpp  ****             else slabs_full = tmp->next;
 907              		.loc 1 223 21 discriminator 1
 223:src/Slab.cpp  ****             else slabs_full = tmp->next;
 908              		.loc 1 223 39 is_stmt 0 discriminator 1
 909 0518 83378900 		ld	a5,8(s2)
 223:src/Slab.cpp  ****             else slabs_full = tmp->next;
 910              		.loc 1 223 32 discriminator 1
 911 051c 23B4F400 		sd	a5,8(s1)
GAS LISTING /tmp/ccIKkRbi.s 			page 25


 912              	.L46:
 225:src/Slab.cpp  ****             this->slabs_partial = tmp;
 913              		.loc 1 225 13 is_stmt 1
 225:src/Slab.cpp  ****             this->slabs_partial = tmp;
 914              		.loc 1 225 31 is_stmt 0
 915 0520 83378A00 		ld	a5,8(s4)
 225:src/Slab.cpp  ****             this->slabs_partial = tmp;
 916              		.loc 1 225 23
 917 0524 2334F900 		sd	a5,8(s2)
 226:src/Slab.cpp  ****             this->num_slabs_full--;
 918              		.loc 1 226 13 is_stmt 1
 226:src/Slab.cpp  ****             this->num_slabs_full--;
 919              		.loc 1 226 33 is_stmt 0
 920 0528 23342A01 		sd	s2,8(s4)
 227:src/Slab.cpp  ****             this->num_slabs_partial++;
 921              		.loc 1 227 13 is_stmt 1
 227:src/Slab.cpp  ****             this->num_slabs_partial++;
 922              		.loc 1 227 19 is_stmt 0
 923 052c 83378A01 		ld	a5,24(s4)
 227:src/Slab.cpp  ****             this->num_slabs_partial++;
 924              		.loc 1 227 33
 925 0530 9387F7FF 		addi	a5,a5,-1
 926 0534 233CFA00 		sd	a5,24(s4)
 228:src/Slab.cpp  **** 
 927              		.loc 1 228 13 is_stmt 1
 228:src/Slab.cpp  **** 
 928              		.loc 1 228 19 is_stmt 0
 929 0538 83370A02 		ld	a5,32(s4)
 228:src/Slab.cpp  **** 
 930              		.loc 1 228 36
 931 053c 93871700 		addi	a5,a5,1
 932 0540 2330FA02 		sd	a5,32(s4)
 230:src/Slab.cpp  ****         }
 933              		.loc 1 230 13 is_stmt 1
 230:src/Slab.cpp  ****         }
 934              		.loc 1 230 20 is_stmt 0
 935 0544 13050000 		li	a0,0
 936 0548 6F008000 		j	.L40
 937              	.LVL102:
 938              	.L48:
 939              	.LBE93:
 940              	.LBE94:
 941              	.LBE96:
 942              	.LBE87:
 233:src/Slab.cpp  ****     }
 234:src/Slab.cpp  ****     return -1;
 943              		.loc 1 234 13
 944 054c 1305F0FF 		li	a0,-1
 945              	.LVL103:
 946              	.L40:
 235:src/Slab.cpp  **** }
 947              		.loc 1 235 1
 948 0550 83308102 		ld	ra,40(sp)
 949              		.cfi_restore 1
 950 0554 03340102 		ld	s0,32(sp)
 951              		.cfi_restore 8
 952              		.cfi_def_cfa 2, 48
GAS LISTING /tmp/ccIKkRbi.s 			page 26


 953 0558 83348101 		ld	s1,24(sp)
 954              		.cfi_restore 9
 955 055c 03390101 		ld	s2,16(sp)
 956              		.cfi_restore 18
 957 0560 83398100 		ld	s3,8(sp)
 958              		.cfi_restore 19
 959              	.LVL104:
 960 0564 033A0100 		ld	s4,0(sp)
 961              		.cfi_restore 20
 962              	.LVL105:
 963 0568 13010103 		addi	sp,sp,48
 964              		.cfi_def_cfa_offset 0
 965 056c 67800000 		jr	ra
 966              		.cfi_endproc
 967              	.LFE54:
 969              		.align	2
 970              		.globl	_ZN12kmem_cache_s20check_if_name_existsEPKc
 972              	_ZN12kmem_cache_s20check_if_name_existsEPKc:
 973              	.LFB56:
 236:src/Slab.cpp  **** 
 237:src/Slab.cpp  **** void *kmem_cache_s::kmalloc(size_t size) {
 238:src/Slab.cpp  ****     // kreiraj ime
 239:src/Slab.cpp  ****     const char* n = (const char*)concatenate_int_to_char_ptr((int)size);
 240:src/Slab.cpp  **** 
 241:src/Slab.cpp  ****     kmem_cache_s* tmp = check_if_name_exists(n);
 242:src/Slab.cpp  ****     kmem_cache_s* cache = nullptr;
 243:src/Slab.cpp  ****     if(tmp == nullptr){
 244:src/Slab.cpp  ****         // napravi novi
 245:src/Slab.cpp  ****         cache = (kmem_cache_s*)kmem_cache_create(n, size, nullptr, nullptr);
 246:src/Slab.cpp  ****         if(!cache)return nullptr;
 247:src/Slab.cpp  ****     }
 248:src/Slab.cpp  ****     // vrati element
 249:src/Slab.cpp  ****     void* elem = cache->kmem_cache_alloc();
 250:src/Slab.cpp  ****     return elem;
 251:src/Slab.cpp  **** }
 252:src/Slab.cpp  **** 
 253:src/Slab.cpp  **** // returns cache with given name, or nullptr if there is no such cache
 254:src/Slab.cpp  **** kmem_cache_s *kmem_cache_s::check_if_name_exists(const char* name) {
 974              		.loc 1 254 68 is_stmt 1
 975              		.cfi_startproc
 976              	.LVL106:
 977 0570 130101FE 		addi	sp,sp,-32
 978              		.cfi_def_cfa_offset 32
 979 0574 233C1100 		sd	ra,24(sp)
 980 0578 23388100 		sd	s0,16(sp)
 981 057c 23349100 		sd	s1,8(sp)
 982 0580 23302101 		sd	s2,0(sp)
 983              		.cfi_offset 1, -8
 984              		.cfi_offset 8, -16
 985              		.cfi_offset 9, -24
 986              		.cfi_offset 18, -32
 987 0584 13040102 		addi	s0,sp,32
 988              		.cfi_def_cfa 8, 0
 989 0588 13090500 		mv	s2,a0
 255:src/Slab.cpp  ****     for(kmem_cache_s* tmp = kmem_cache_s::head; tmp; tmp = tmp->next){
 990              		.loc 1 255 5
 991              	.LBB97:
GAS LISTING /tmp/ccIKkRbi.s 			page 27


 992              		.loc 1 255 23 is_stmt 0
 993 058c 97040000 		ld	s1,.LANCHOR0
 993      83B40400 
 994              	.LVL107:
 995              	.L52:
 996              		.loc 1 255 49 is_stmt 1 discriminator 1
 997 0594 63800402 		beqz	s1,.L50
 256:src/Slab.cpp  ****         if(string_compare(tmp->name, name)){
 998              		.loc 1 256 9
 999              		.loc 1 256 26 is_stmt 0
 1000 0598 93050900 		mv	a1,s2
 1001 059c 03B50406 		ld	a0,96(s1)
 1002 05a0 97000000 		call	_Z14string_comparePKcS0_@plt
 1002      E7800000 
 1003              	.LVL108:
 1004              		.loc 1 256 9
 1005 05a8 63160500 		bnez	a0,.L50
 255:src/Slab.cpp  ****     for(kmem_cache_s* tmp = kmem_cache_s::head; tmp; tmp = tmp->next){
 1006              		.loc 1 255 5 is_stmt 1 discriminator 2
 255:src/Slab.cpp  ****     for(kmem_cache_s* tmp = kmem_cache_s::head; tmp; tmp = tmp->next){
 1007              		.loc 1 255 58 is_stmt 0 discriminator 2
 1008 05ac 83B48406 		ld	s1,104(s1)
 1009              	.LVL109:
 255:src/Slab.cpp  ****     for(kmem_cache_s* tmp = kmem_cache_s::head; tmp; tmp = tmp->next){
 1010              		.loc 1 255 5 discriminator 2
 1011 05b0 6FF05FFE 		j	.L52
 1012              	.L50:
 1013              	.LBE97:
 257:src/Slab.cpp  ****             return tmp;
 258:src/Slab.cpp  ****         }
 259:src/Slab.cpp  ****     }
 260:src/Slab.cpp  ****     return nullptr;
 261:src/Slab.cpp  **** }
 1014              		.loc 1 261 1
 1015 05b4 13850400 		mv	a0,s1
 1016 05b8 83308101 		ld	ra,24(sp)
 1017              		.cfi_restore 1
 1018 05bc 03340101 		ld	s0,16(sp)
 1019              		.cfi_restore 8
 1020              		.cfi_def_cfa 2, 32
 1021 05c0 83348100 		ld	s1,8(sp)
 1022              		.cfi_restore 9
 1023              	.LVL110:
 1024 05c4 03390100 		ld	s2,0(sp)
 1025              		.cfi_restore 18
 1026              	.LVL111:
 1027 05c8 13010102 		addi	sp,sp,32
 1028              		.cfi_def_cfa_offset 0
 1029 05cc 67800000 		jr	ra
 1030              		.cfi_endproc
 1031              	.LFE56:
 1033              		.align	2
 1034              		.globl	_ZN12kmem_cache_s3powEm
 1036              	_ZN12kmem_cache_s3powEm:
 1037              	.LFB57:
 262:src/Slab.cpp  **** 
 263:src/Slab.cpp  **** size_t kmem_cache_s::pow(size_t deg){
GAS LISTING /tmp/ccIKkRbi.s 			page 28


 1038              		.loc 1 263 37 is_stmt 1
 1039              		.cfi_startproc
 1040              	.LVL112:
 1041 05d0 130101FF 		addi	sp,sp,-16
 1042              		.cfi_def_cfa_offset 16
 1043 05d4 23348100 		sd	s0,8(sp)
 1044              		.cfi_offset 8, -8
 1045 05d8 13040101 		addi	s0,sp,16
 1046              		.cfi_def_cfa 8, 0
 1047 05dc 13070500 		mv	a4,a0
 264:src/Slab.cpp  ****     size_t tmp = 1;
 1048              		.loc 1 264 5
 1049              	.LVL113:
 265:src/Slab.cpp  ****     for(size_t i = 0; i < deg; i++){
 1050              		.loc 1 265 5
 1051              	.LBB98:
 1052              		.loc 1 265 16 is_stmt 0
 1053 05e0 93070000 		li	a5,0
 1054              	.LBE98:
 264:src/Slab.cpp  ****     size_t tmp = 1;
 1055              		.loc 1 264 12
 1056 05e4 13051000 		li	a0,1
 1057              	.LVL114:
 1058              	.L56:
 1059              	.LBB99:
 1060              		.loc 1 265 25 is_stmt 1 discriminator 3
 1061 05e8 63F8E700 		bgeu	a5,a4,.L54
 266:src/Slab.cpp  ****         tmp <<= 1;
 1062              		.loc 1 266 9 discriminator 2
 1063              		.loc 1 266 13 is_stmt 0 discriminator 2
 1064 05ec 13151500 		slli	a0,a0,1
 1065              	.LVL115:
 265:src/Slab.cpp  ****     for(size_t i = 0; i < deg; i++){
 1066              		.loc 1 265 5 is_stmt 1 discriminator 2
 1067 05f0 93871700 		addi	a5,a5,1
 1068              	.LVL116:
 1069 05f4 6FF05FFF 		j	.L56
 1070              	.L54:
 1071              	.LBE99:
 267:src/Slab.cpp  ****     }
 268:src/Slab.cpp  ****     return tmp;
 269:src/Slab.cpp  **** }
 1072              		.loc 1 269 1 is_stmt 0
 1073 05f8 03348100 		ld	s0,8(sp)
 1074              		.cfi_restore 8
 1075              		.cfi_def_cfa 2, 16
 1076 05fc 13010101 		addi	sp,sp,16
 1077              		.cfi_def_cfa_offset 0
 1078 0600 67800000 		jr	ra
 1079              		.cfi_endproc
 1080              	.LFE57:
 1082              		.align	2
 1083              		.globl	_ZN12kmem_cache_s28is_small_buffer_size_correctEm
 1085              	_ZN12kmem_cache_s28is_small_buffer_size_correctEm:
 1086              	.LFB58:
 270:src/Slab.cpp  **** 
 271:src/Slab.cpp  **** int kmem_cache_s::is_small_buffer_size_correct(size_t size) {
GAS LISTING /tmp/ccIKkRbi.s 			page 29


 1087              		.loc 1 271 61 is_stmt 1
 1088              		.cfi_startproc
 1089              	.LVL117:
 1090 0604 130101FE 		addi	sp,sp,-32
 1091              		.cfi_def_cfa_offset 32
 1092 0608 233C1100 		sd	ra,24(sp)
 1093 060c 23388100 		sd	s0,16(sp)
 1094 0610 23349100 		sd	s1,8(sp)
 1095              		.cfi_offset 1, -8
 1096              		.cfi_offset 8, -16
 1097              		.cfi_offset 9, -24
 1098 0614 13040102 		addi	s0,sp,32
 1099              		.cfi_def_cfa 8, 0
 1100 0618 93040500 		mv	s1,a0
 272:src/Slab.cpp  ****     int deg = 5;
 1101              		.loc 1 272 5
 1102              	.LVL118:
 273:src/Slab.cpp  ****     size_t val = pow(deg);
 1103              		.loc 1 273 5
 1104              		.loc 1 273 21 is_stmt 0
 1105 061c 13055000 		li	a0,5
 1106              	.LVL119:
 1107 0620 97000000 		call	_ZN12kmem_cache_s3powEm
 1107      E7800000 
 1108              	.LVL120:
 272:src/Slab.cpp  ****     int deg = 5;
 1109              		.loc 1 272 9
 1110 0628 93075000 		li	a5,5
 1111              	.LVL121:
 1112              	.L60:
 274:src/Slab.cpp  ****     while(size > val){
 1113              		.loc 1 274 5 is_stmt 1
 1114              		.loc 1 274 16
 1115 062c 63789500 		bgeu	a0,s1,.L59
 275:src/Slab.cpp  ****         deg++;
 1116              		.loc 1 275 9
 1117              		.loc 1 275 12 is_stmt 0
 1118 0630 9B871700 		addiw	a5,a5,1
 1119              	.LVL122:
 276:src/Slab.cpp  ****         val <<= 1;
 1120              		.loc 1 276 9 is_stmt 1
 1121              		.loc 1 276 13 is_stmt 0
 1122 0634 13151500 		slli	a0,a0,1
 1123              	.LVL123:
 274:src/Slab.cpp  ****     while(size > val){
 1124              		.loc 1 274 5
 1125 0638 6FF05FFF 		j	.L60
 1126              	.LVL124:
 1127              	.L59:
 277:src/Slab.cpp  ****     }
 278:src/Slab.cpp  ****     if(deg > 17)return 0;
 1128              		.loc 1 278 5 is_stmt 1
 1129 063c 13071001 		li	a4,17
 1130 0640 634EF700 		bgt	a5,a4,.L62
 279:src/Slab.cpp  ****     return (int)val;
 1131              		.loc 1 279 5
 1132              		.loc 1 279 17 is_stmt 0
GAS LISTING /tmp/ccIKkRbi.s 			page 30


 1133 0644 1B050500 		sext.w	a0,a0
 1134              	.LVL125:
 1135              	.L61:
 280:src/Slab.cpp  **** }
 1136              		.loc 1 280 1
 1137 0648 83308101 		ld	ra,24(sp)
 1138              		.cfi_remember_state
 1139              		.cfi_restore 1
 1140 064c 03340101 		ld	s0,16(sp)
 1141              		.cfi_restore 8
 1142              		.cfi_def_cfa 2, 32
 1143 0650 83348100 		ld	s1,8(sp)
 1144              		.cfi_restore 9
 1145              	.LVL126:
 1146 0654 13010102 		addi	sp,sp,32
 1147              		.cfi_def_cfa_offset 0
 1148 0658 67800000 		jr	ra
 1149              	.LVL127:
 1150              	.L62:
 1151              		.cfi_restore_state
 278:src/Slab.cpp  ****     return (int)val;
 1152              		.loc 1 278 24
 1153 065c 13050000 		li	a0,0
 1154              	.LVL128:
 1155 0660 6FF09FFE 		j	.L61
 1156              		.cfi_endproc
 1157              	.LFE58:
 1159              		.align	2
 1160              		.globl	_ZN12kmem_cache_s5kfreeEPKv
 1162              	_ZN12kmem_cache_s5kfreeEPKv:
 1163              	.LFB59:
 281:src/Slab.cpp  **** 
 282:src/Slab.cpp  **** // returns 0 if delete is executed, -1 if not
 283:src/Slab.cpp  **** int kmem_cache_s::kfree(const void *objp) {
 1164              		.loc 1 283 43 is_stmt 1
 1165              		.cfi_startproc
 1166              	.LVL129:
 1167 0664 130101FE 		addi	sp,sp,-32
 1168              		.cfi_def_cfa_offset 32
 1169 0668 233C1100 		sd	ra,24(sp)
 1170 066c 23388100 		sd	s0,16(sp)
 1171 0670 23349100 		sd	s1,8(sp)
 1172 0674 23302101 		sd	s2,0(sp)
 1173              		.cfi_offset 1, -8
 1174              		.cfi_offset 8, -16
 1175              		.cfi_offset 9, -24
 1176              		.cfi_offset 18, -32
 1177 0678 13040102 		addi	s0,sp,32
 1178              		.cfi_def_cfa 8, 0
 1179 067c 13090500 		mv	s2,a0
 284:src/Slab.cpp  ****     for(kmem_cache_s* tmp = kmem_cache_s::head; tmp; tmp = tmp->next){
 1180              		.loc 1 284 5
 1181              	.LBB100:
 1182              		.loc 1 284 23 is_stmt 0
 1183 0680 97040000 		ld	s1,.LANCHOR0
 1183      83B40400 
 1184              	.LVL130:
GAS LISTING /tmp/ccIKkRbi.s 			page 31


 1185              	.L66:
 1186              		.loc 1 284 49 is_stmt 1 discriminator 1
 1187 0688 63800402 		beqz	s1,.L67
 285:src/Slab.cpp  ****         if(tmp->kmem_cache_free((void*)objp) == 0)return 0;
 1188              		.loc 1 285 9
 1189              		.loc 1 285 32 is_stmt 0
 1190 068c 93050900 		mv	a1,s2
 1191 0690 13850400 		mv	a0,s1
 1192 0694 97000000 		call	_ZN12kmem_cache_s15kmem_cache_freeEPv
 1192      E7800000 
 1193              	.LVL131:
 1194              		.loc 1 285 9
 1195 069c 63080500 		beqz	a0,.L65
 284:src/Slab.cpp  ****     for(kmem_cache_s* tmp = kmem_cache_s::head; tmp; tmp = tmp->next){
 1196              		.loc 1 284 5 is_stmt 1 discriminator 2
 284:src/Slab.cpp  ****     for(kmem_cache_s* tmp = kmem_cache_s::head; tmp; tmp = tmp->next){
 1197              		.loc 1 284 58 is_stmt 0 discriminator 2
 1198 06a0 83B48406 		ld	s1,104(s1)
 1199              	.LVL132:
 284:src/Slab.cpp  ****     for(kmem_cache_s* tmp = kmem_cache_s::head; tmp; tmp = tmp->next){
 1200              		.loc 1 284 5 discriminator 2
 1201 06a4 6FF05FFE 		j	.L66
 1202              	.L67:
 1203              	.LBE100:
 286:src/Slab.cpp  ****     }
 287:src/Slab.cpp  ****     // if not found return 1;
 288:src/Slab.cpp  ****     return -1;
 1204              		.loc 1 288 13
 1205 06a8 1305F0FF 		li	a0,-1
 1206              	.L65:
 289:src/Slab.cpp  **** }
 1207              		.loc 1 289 1
 1208 06ac 83308101 		ld	ra,24(sp)
 1209              		.cfi_restore 1
 1210 06b0 03340101 		ld	s0,16(sp)
 1211              		.cfi_restore 8
 1212              		.cfi_def_cfa 2, 32
 1213 06b4 83348100 		ld	s1,8(sp)
 1214              		.cfi_restore 9
 1215              	.LVL133:
 1216 06b8 03390100 		ld	s2,0(sp)
 1217              		.cfi_restore 18
 1218              	.LVL134:
 1219 06bc 13010102 		addi	sp,sp,32
 1220              		.cfi_def_cfa_offset 0
 1221 06c0 67800000 		jr	ra
 1222              		.cfi_endproc
 1223              	.LFE59:
 1225              		.section	.rodata.str1.8,"aMS",@progbits,1
 1226              		.align	3
 1227              	.LC0:
 1228 0000 2D2D2D2D 		.string	"------------------- CACHE INFO -------------------\n"
 1228      2D2D2D2D 
 1228      2D2D2D2D 
 1228      2D2D2D2D 
 1228      2D2D2D20 
 1229 0034 00000000 		.align	3
GAS LISTING /tmp/ccIKkRbi.s 			page 32


 1230              	.LC1:
 1231 0038 496D653A 		.string	"Ime: "
 1231      2000
 1232 003e 0000     		.align	3
 1233              	.LC2:
 1234 0040 0A00     		.string	"\n"
 1235 0042 00000000 		.align	3
 1235      0000
 1236              	.LC3:
 1237 0048 56656C69 		.string	"Velicina objekta: "
 1237      63696E61 
 1237      206F626A 
 1237      656B7461 
 1237      3A2000
 1238 005b 00000000 		.align	3
 1238      00
 1239              	.LC4:
 1240 0060 56656C69 		.string	"Velicina kesa u blokovima: "
 1240      63696E61 
 1240      206B6573 
 1240      61207520 
 1240      626C6F6B 
 1241 007c 00000000 		.align	3
 1242              	.LC5:
 1243 0080 42726F6A 		.string	"Broj ploca u kesu: "
 1243      20706C6F 
 1243      63612075 
 1243      206B6573 
 1243      753A2000 
 1244 0094 00000000 		.align	3
 1245              	.LC6:
 1246 0098 42726F6A 		.string	"Broj objekata koji staju u jednu plocu: "
 1246      206F626A 
 1246      656B6174 
 1246      61206B6F 
 1246      6A692073 
 1247 00c1 00000000 		.align	3
 1247      000000
 1248              	.LC7:
 1249 00c8 42726F6A 		.string	"Broj aktivnih objekata u kesu: "
 1249      20616B74 
 1249      69766E69 
 1249      68206F62 
 1249      6A656B61 
 1250              		.align	3
 1251              	.LC8:
 1252 00e8 736C6F62 		.string	"slobodni: "
 1252      6F646E69 
 1252      3A2000
 1253 00f3 00000000 		.align	3
 1253      00
 1254              	.LC9:
 1255 00f8 2000     		.string	" "
 1256 00fa 00000000 		.align	3
 1256      0000
 1257              	.LC10:
 1258 0100 7A617072 		.string	"zaprljani: "
GAS LISTING /tmp/ccIKkRbi.s 			page 33


 1258      6C6A616E 
 1258      693A2000 
 1259 010c 00000000 		.align	3
 1260              	.LC11:
 1261 0110 70756E69 		.string	"puni: "
 1261      3A2000
 1262 0117 00       		.align	3
 1263              	.LC12:
 1264 0118 42726F6A 		.string	"Broj uspesnih smanjenja kesa: "
 1264      20757370 
 1264      65736E69 
 1264      6820736D 
 1264      616E6A65 
 1265 0137 00       		.align	3
 1266              	.LC13:
 1267 0138 56656C69 		.string	"Velicina metapodataka za kmem_cache_s: "
 1267      63696E61 
 1267      206D6574 
 1267      61706F64 
 1267      6174616B 
 1268              		.align	3
 1269              	.LC14:
 1270 0160 56656C69 		.string	"Velicina metapodataka za Slab: "
 1270      63696E61 
 1270      206D6574 
 1270      61706F64 
 1270      6174616B 
 1271              		.align	3
 1272              	.LC15:
 1273 0180 5265616C 		.string	"Realna iskoriscenost prostora: "
 1273      6E612069 
 1273      736B6F72 
 1273      69736365 
 1273      6E6F7374 
 1274              		.align	3
 1275              	.LC16:
 1276 01a0 2F00     		.string	"/"
 1277 01a2 00000000 		.align	3
 1277      0000
 1278              	.LC17:
 1279 01a8 4566656B 		.string	"Efektivna iskoriscenost prostora: "
 1279      7469766E 
 1279      61206973 
 1279      6B6F7269 
 1279      7363656E 
 1280 01cb 00000000 		.align	3
 1280      00
 1281              	.LC18:
 1282 01d0 2D2D2D2D 		.string	"----------------------- END ----------------------\n"
 1282      2D2D2D2D 
 1282      2D2D2D2D 
 1282      2D2D2D2D 
 1282      2D2D2D2D 
 1283              		.text
 1284              		.align	2
 1285              		.globl	_ZN12kmem_cache_s15kmem_cache_infoEv
 1287              	_ZN12kmem_cache_s15kmem_cache_infoEv:
GAS LISTING /tmp/ccIKkRbi.s 			page 34


 1288              	.LFB61:
 290:src/Slab.cpp  **** 
 291:src/Slab.cpp  **** ///
 292:src/Slab.cpp  **** /// \param addr - address of cache that we deleting
 293:src/Slab.cpp  **** /// \return 0 - if deleted all, -1 - if error ocurred
 294:src/Slab.cpp  **** int kmem_cache_s::kmem_cache_destroy(size_t addr) {
 295:src/Slab.cpp  ****     Slab *prev = nullptr, *tmp = this->slabs_full;
 296:src/Slab.cpp  ****     while (tmp) {
 297:src/Slab.cpp  ****         prev = tmp;
 298:src/Slab.cpp  ****         tmp = tmp->next;
 299:src/Slab.cpp  ****         prev->clear_slab((int)num, (int)objsize, dtor);
 300:src/Slab.cpp  ****         BuddySystem::getInstance().buddyFree((size_t)prev);
 301:src/Slab.cpp  ****     }
 302:src/Slab.cpp  ****     prev = nullptr; tmp = this->slabs_partial;
 303:src/Slab.cpp  ****     while (tmp) {
 304:src/Slab.cpp  ****         prev = tmp;
 305:src/Slab.cpp  ****         tmp = tmp->next;
 306:src/Slab.cpp  ****         prev->clear_slab((int)num, (int)objsize, dtor);
 307:src/Slab.cpp  ****         BuddySystem::getInstance().buddyFree((size_t)prev);
 308:src/Slab.cpp  ****     }
 309:src/Slab.cpp  ****     prev = nullptr; tmp = this->slabs_free;
 310:src/Slab.cpp  ****     while (tmp) {
 311:src/Slab.cpp  ****         prev = tmp;
 312:src/Slab.cpp  ****         tmp = tmp->next;
 313:src/Slab.cpp  ****         prev->clear_slab((int)num, (int)objsize, dtor);
 314:src/Slab.cpp  ****         BuddySystem::getInstance().buddyFree((size_t)prev);
 315:src/Slab.cpp  ****     }
 316:src/Slab.cpp  **** 
 317:src/Slab.cpp  ****     kmem_cache_s* cache = kmem_cache_s::head, *prev_cache = nullptr;
 318:src/Slab.cpp  ****     while(cache){
 319:src/Slab.cpp  ****         if((size_t)cache == addr){
 320:src/Slab.cpp  ****             if(prev_cache){
 321:src/Slab.cpp  ****                 prev_cache->next = cache->next;
 322:src/Slab.cpp  ****                 cache->next = nullptr;
 323:src/Slab.cpp  ****                 BuddySystem::getInstance().buddyFree((size_t)cache);
 324:src/Slab.cpp  ****                 return 0;
 325:src/Slab.cpp  ****             }
 326:src/Slab.cpp  ****         }
 327:src/Slab.cpp  ****         prev_cache = cache;
 328:src/Slab.cpp  ****         cache = cache->next;
 329:src/Slab.cpp  ****     }
 330:src/Slab.cpp  ****     return -1;
 331:src/Slab.cpp  **** }
 332:src/Slab.cpp  **** 
 333:src/Slab.cpp  **** void kmem_cache_s::kmem_cache_info() {
 1289              		.loc 1 333 38 is_stmt 1
 1290              		.cfi_startproc
 1291              	.LVL135:
 1292 06c4 130101FD 		addi	sp,sp,-48
 1293              		.cfi_def_cfa_offset 48
 1294 06c8 23341102 		sd	ra,40(sp)
 1295 06cc 23308102 		sd	s0,32(sp)
 1296 06d0 233C9100 		sd	s1,24(sp)
 1297 06d4 23382101 		sd	s2,16(sp)
 1298 06d8 23343101 		sd	s3,8(sp)
 1299 06dc 23304101 		sd	s4,0(sp)
 1300              		.cfi_offset 1, -8
GAS LISTING /tmp/ccIKkRbi.s 			page 35


 1301              		.cfi_offset 8, -16
 1302              		.cfi_offset 9, -24
 1303              		.cfi_offset 18, -32
 1304              		.cfi_offset 19, -40
 1305              		.cfi_offset 20, -48
 1306 06e0 13040103 		addi	s0,sp,48
 1307              		.cfi_def_cfa 8, 0
 1308 06e4 13090500 		mv	s2,a0
 334:src/Slab.cpp  **** 
 335:src/Slab.cpp  ****     printString("------------------- CACHE INFO -------------------\n");
 1309              		.loc 1 335 5
 1310              		.loc 1 335 16 is_stmt 0
 1311 06e8 17050000 		lla	a0,.LC0
 1311      13050500 
 1312              	.LVL136:
 1313 06f0 97000000 		call	_Z11printStringPKc@plt
 1313      E7800000 
 1314              	.LVL137:
 336:src/Slab.cpp  ****     // print name and object size
 337:src/Slab.cpp  ****     printString("Ime: ");
 1315              		.loc 1 337 5 is_stmt 1
 1316              		.loc 1 337 16 is_stmt 0
 1317 06f8 17050000 		lla	a0,.LC1
 1317      13050500 
 1318 0700 97000000 		call	_Z11printStringPKc@plt
 1318      E7800000 
 1319              	.LVL138:
 338:src/Slab.cpp  ****     printString(name);
 1320              		.loc 1 338 5 is_stmt 1
 1321              		.loc 1 338 16 is_stmt 0
 1322 0708 03350906 		ld	a0,96(s2)
 1323 070c 97000000 		call	_Z11printStringPKc@plt
 1323      E7800000 
 1324              	.LVL139:
 339:src/Slab.cpp  ****     printString("\n");
 1325              		.loc 1 339 5 is_stmt 1
 1326              		.loc 1 339 16 is_stmt 0
 1327 0714 17050000 		lla	a0,.LC2
 1327      13050500 
 1328 071c 97000000 		call	_Z11printStringPKc@plt
 1328      E7800000 
 1329              	.LVL140:
 340:src/Slab.cpp  ****     printString("Velicina objekta: ");
 1330              		.loc 1 340 5 is_stmt 1
 1331              		.loc 1 340 16 is_stmt 0
 1332 0724 17050000 		lla	a0,.LC3
 1332      13050500 
 1333 072c 97000000 		call	_Z11printStringPKc@plt
 1333      E7800000 
 1334              	.LVL141:
 341:src/Slab.cpp  ****     printInt(objsize);
 1335              		.loc 1 341 5 is_stmt 1
 1336              		.loc 1 341 13 is_stmt 0
 1337 0734 13060000 		li	a2,0
 1338 0738 9305A000 		li	a1,10
 1339 073c 03250903 		lw	a0,48(s2)
 1340 0740 97000000 		call	_Z8printIntiii@plt
GAS LISTING /tmp/ccIKkRbi.s 			page 36


 1340      E7800000 
 1341              	.LVL142:
 342:src/Slab.cpp  ****     printString("\n");
 1342              		.loc 1 342 5 is_stmt 1
 1343              		.loc 1 342 16 is_stmt 0
 1344 0748 17050000 		lla	a0,.LC2
 1344      13050500 
 1345 0750 97000000 		call	_Z11printStringPKc@plt
 1345      E7800000 
 1346              	.LVL143:
 343:src/Slab.cpp  **** 
 344:src/Slab.cpp  ****     // print size of cache (in blocks)
 345:src/Slab.cpp  ****     size_t num_of_slabs = num_slabs_full + num_slabs_partial + num_slabs_free;
 1347              		.loc 1 345 5 is_stmt 1
 1348              		.loc 1 345 27 is_stmt 0
 1349 0758 83398901 		ld	s3,24(s2)
 1350              		.loc 1 345 44
 1351 075c 83370902 		ld	a5,32(s2)
 1352              		.loc 1 345 42
 1353 0760 B389F900 		add	s3,s3,a5
 1354              		.loc 1 345 64
 1355 0764 03358902 		ld	a0,40(s2)
 1356              		.loc 1 345 12
 1357 0768 B389A900 		add	s3,s3,a0
 1358              	.LVL144:
 346:src/Slab.cpp  ****     size_t size_of_cache_in_blocks = num_of_slabs * size_in_blocks + 1;
 1359              		.loc 1 346 5 is_stmt 1
 1360              		.loc 1 346 53 is_stmt 0
 1361 076c 83348904 		ld	s1,72(s2)
 1362              		.loc 1 346 51
 1363 0770 B3843403 		mul	s1,s1,s3
 1364              		.loc 1 346 12
 1365 0774 93841400 		addi	s1,s1,1
 1366              	.LVL145:
 347:src/Slab.cpp  ****     printString("Velicina kesa u blokovima: ");
 1367              		.loc 1 347 5 is_stmt 1
 1368              		.loc 1 347 16 is_stmt 0
 1369 0778 17050000 		lla	a0,.LC4
 1369      13050500 
 1370 0780 97000000 		call	_Z11printStringPKc@plt
 1370      E7800000 
 1371              	.LVL146:
 348:src/Slab.cpp  ****     printInt(size_of_cache_in_blocks);
 1372              		.loc 1 348 5 is_stmt 1
 1373              		.loc 1 348 13 is_stmt 0
 1374 0788 13060000 		li	a2,0
 1375 078c 9305A000 		li	a1,10
 1376 0790 1B850400 		sext.w	a0,s1
 1377 0794 97000000 		call	_Z8printIntiii@plt
 1377      E7800000 
 1378              	.LVL147:
 349:src/Slab.cpp  ****     printString("\n");
 1379              		.loc 1 349 5 is_stmt 1
 1380              		.loc 1 349 16 is_stmt 0
 1381 079c 17050000 		lla	a0,.LC2
 1381      13050500 
 1382 07a4 97000000 		call	_Z11printStringPKc@plt
GAS LISTING /tmp/ccIKkRbi.s 			page 37


 1382      E7800000 
 1383              	.LVL148:
 350:src/Slab.cpp  **** 
 351:src/Slab.cpp  ****     // print number of slabs in cache
 352:src/Slab.cpp  ****     printString("Broj ploca u kesu: ");
 1384              		.loc 1 352 5 is_stmt 1
 1385              		.loc 1 352 16 is_stmt 0
 1386 07ac 17050000 		lla	a0,.LC5
 1386      13050500 
 1387 07b4 97000000 		call	_Z11printStringPKc@plt
 1387      E7800000 
 1388              	.LVL149:
 353:src/Slab.cpp  ****     printInt(num_of_slabs);
 1389              		.loc 1 353 5 is_stmt 1
 1390              		.loc 1 353 13 is_stmt 0
 1391 07bc 13060000 		li	a2,0
 1392 07c0 9305A000 		li	a1,10
 1393 07c4 1B850900 		sext.w	a0,s3
 1394 07c8 97000000 		call	_Z8printIntiii@plt
 1394      E7800000 
 1395              	.LVL150:
 354:src/Slab.cpp  ****     printString("\n");
 1396              		.loc 1 354 5 is_stmt 1
 1397              		.loc 1 354 16 is_stmt 0
 1398 07d0 17050000 		lla	a0,.LC2
 1398      13050500 
 1399 07d8 97000000 		call	_Z11printStringPKc@plt
 1399      E7800000 
 1400              	.LVL151:
 355:src/Slab.cpp  **** 
 356:src/Slab.cpp  ****     // number of objects in one slab
 357:src/Slab.cpp  ****     printString("Broj objekata koji staju u jednu plocu: ");
 1401              		.loc 1 357 5 is_stmt 1
 1402              		.loc 1 357 16 is_stmt 0
 1403 07e0 17050000 		lla	a0,.LC6
 1403      13050500 
 1404 07e8 97000000 		call	_Z11printStringPKc@plt
 1404      E7800000 
 1405              	.LVL152:
 358:src/Slab.cpp  ****     printInt(num);
 1406              		.loc 1 358 5 is_stmt 1
 1407              		.loc 1 358 13 is_stmt 0
 1408 07f0 13060000 		li	a2,0
 1409 07f4 9305A000 		li	a1,10
 1410 07f8 03258903 		lw	a0,56(s2)
 1411 07fc 97000000 		call	_Z8printIntiii@plt
 1411      E7800000 
 1412              	.LVL153:
 359:src/Slab.cpp  ****     printString("\n");
 1413              		.loc 1 359 5 is_stmt 1
 1414              		.loc 1 359 16 is_stmt 0
 1415 0804 17050000 		lla	a0,.LC2
 1415      13050500 
 1416 080c 97000000 		call	_Z11printStringPKc@plt
 1416      E7800000 
 1417              	.LVL154:
 360:src/Slab.cpp  **** 
GAS LISTING /tmp/ccIKkRbi.s 			page 38


 361:src/Slab.cpp  ****     // number of objects in one slab
 362:src/Slab.cpp  ****     printString("Broj aktivnih objekata u kesu: ");
 1418              		.loc 1 362 5 is_stmt 1
 1419              		.loc 1 362 16 is_stmt 0
 1420 0814 17050000 		lla	a0,.LC7
 1420      13050500 
 1421 081c 97000000 		call	_Z11printStringPKc@plt
 1421      E7800000 
 1422              	.LVL155:
 363:src/Slab.cpp  ****     printInt(num_active_obj);
 1423              		.loc 1 363 5 is_stmt 1
 1424              		.loc 1 363 13 is_stmt 0
 1425 0824 13060000 		li	a2,0
 1426 0828 9305A000 		li	a1,10
 1427 082c 03250907 		lw	a0,112(s2)
 1428 0830 97000000 		call	_Z8printIntiii@plt
 1428      E7800000 
 1429              	.LVL156:
 364:src/Slab.cpp  ****     printString("\n");
 1430              		.loc 1 364 5 is_stmt 1
 1431              		.loc 1 364 16 is_stmt 0
 1432 0838 17050000 		lla	a0,.LC2
 1432      13050500 
 1433 0840 97000000 		call	_Z11printStringPKc@plt
 1433      E7800000 
 1434              	.LVL157:
 365:src/Slab.cpp  **** 
 366:src/Slab.cpp  ****     // stanje u slabovima
 367:src/Slab.cpp  ****     printString("slobodni: ");
 1435              		.loc 1 367 5 is_stmt 1
 1436              		.loc 1 367 16 is_stmt 0
 1437 0848 17050000 		lla	a0,.LC8
 1437      13050500 
 1438 0850 97000000 		call	_Z11printStringPKc@plt
 1438      E7800000 
 1439              	.LVL158:
 368:src/Slab.cpp  ****     for(Slab* tmp = slabs_free; tmp; tmp = tmp->next){
 1440              		.loc 1 368 5 is_stmt 1
 1441              	.LBB101:
 1442              		.loc 1 368 15 is_stmt 0
 1443 0858 83340901 		ld	s1,16(s2)
 1444              	.LVL159:
 1445              	.L71:
 1446              		.loc 1 368 33 is_stmt 1 discriminator 3
 1447 085c 63880402 		beqz	s1,.L70
 369:src/Slab.cpp  ****         printInt(tmp->get_number_of_active_objects());
 1448              		.loc 1 369 9
 1449              	.LVL160:
 1450              	.LBB102:
 1451              	.LBB103:
  16:src/../h/Slab.h ****     void* return_first_free_object_and_rearange_list(int, int);
 1452              		.loc 3 16 43
 1453              	.LBE103:
 1454              	.LBE102:
 1455              		.loc 1 369 17 is_stmt 0
 1456 0860 13060000 		li	a2,0
 1457 0864 9305A000 		li	a1,10
GAS LISTING /tmp/ccIKkRbi.s 			page 39


 1458 0868 03A50400 		lw	a0,0(s1)
 1459 086c 97000000 		call	_Z8printIntiii@plt
 1459      E7800000 
 1460              	.LVL161:
 370:src/Slab.cpp  ****         printString(" ");
 1461              		.loc 1 370 9 is_stmt 1
 1462              		.loc 1 370 20 is_stmt 0
 1463 0874 17050000 		lla	a0,.LC9
 1463      13050500 
 1464 087c 97000000 		call	_Z11printStringPKc@plt
 1464      E7800000 
 1465              	.LVL162:
 368:src/Slab.cpp  ****         printInt(tmp->get_number_of_active_objects());
 1466              		.loc 1 368 5 is_stmt 1
 368:src/Slab.cpp  ****         printInt(tmp->get_number_of_active_objects());
 1467              		.loc 1 368 42 is_stmt 0
 1468 0884 83B48400 		ld	s1,8(s1)
 1469              	.LVL163:
 368:src/Slab.cpp  ****         printInt(tmp->get_number_of_active_objects());
 1470              		.loc 1 368 5
 1471 0888 6FF05FFD 		j	.L71
 1472              	.L70:
 1473              	.LBE101:
 371:src/Slab.cpp  ****     }
 372:src/Slab.cpp  ****     printString("\n");
 1474              		.loc 1 372 5 is_stmt 1
 1475              		.loc 1 372 16 is_stmt 0
 1476 088c 17050000 		lla	a0,.LC2
 1476      13050500 
 1477 0894 97000000 		call	_Z11printStringPKc@plt
 1477      E7800000 
 1478              	.LVL164:
 373:src/Slab.cpp  ****     printString("zaprljani: ");
 1479              		.loc 1 373 5 is_stmt 1
 1480              		.loc 1 373 16 is_stmt 0
 1481 089c 17050000 		lla	a0,.LC10
 1481      13050500 
 1482 08a4 97000000 		call	_Z11printStringPKc@plt
 1482      E7800000 
 1483              	.LVL165:
 374:src/Slab.cpp  ****     for(Slab* tmp = slabs_partial; tmp; tmp = tmp->next){
 1484              		.loc 1 374 5 is_stmt 1
 1485              	.LBB104:
 1486              		.loc 1 374 15 is_stmt 0
 1487 08ac 83348900 		ld	s1,8(s2)
 1488              	.LVL166:
 1489              	.L73:
 1490              		.loc 1 374 36 is_stmt 1 discriminator 3
 1491 08b0 63880402 		beqz	s1,.L72
 375:src/Slab.cpp  ****         printInt(tmp->get_number_of_active_objects());
 1492              		.loc 1 375 9
 1493              	.LVL167:
 1494              	.LBB105:
 1495              	.LBB106:
  16:src/../h/Slab.h ****     void* return_first_free_object_and_rearange_list(int, int);
 1496              		.loc 3 16 43
 1497              	.LBE106:
GAS LISTING /tmp/ccIKkRbi.s 			page 40


 1498              	.LBE105:
 1499              		.loc 1 375 17 is_stmt 0
 1500 08b4 13060000 		li	a2,0
 1501 08b8 9305A000 		li	a1,10
 1502 08bc 03A50400 		lw	a0,0(s1)
 1503 08c0 97000000 		call	_Z8printIntiii@plt
 1503      E7800000 
 1504              	.LVL168:
 376:src/Slab.cpp  ****         printString(" ");
 1505              		.loc 1 376 9 is_stmt 1
 1506              		.loc 1 376 20 is_stmt 0
 1507 08c8 17050000 		lla	a0,.LC9
 1507      13050500 
 1508 08d0 97000000 		call	_Z11printStringPKc@plt
 1508      E7800000 
 1509              	.LVL169:
 374:src/Slab.cpp  ****         printInt(tmp->get_number_of_active_objects());
 1510              		.loc 1 374 5 is_stmt 1
 374:src/Slab.cpp  ****         printInt(tmp->get_number_of_active_objects());
 1511              		.loc 1 374 45 is_stmt 0
 1512 08d8 83B48400 		ld	s1,8(s1)
 1513              	.LVL170:
 374:src/Slab.cpp  ****         printInt(tmp->get_number_of_active_objects());
 1514              		.loc 1 374 5
 1515 08dc 6FF05FFD 		j	.L73
 1516              	.L72:
 1517              	.LBE104:
 377:src/Slab.cpp  ****     }
 378:src/Slab.cpp  ****     printString("\n");
 1518              		.loc 1 378 5 is_stmt 1
 1519              		.loc 1 378 16 is_stmt 0
 1520 08e0 17050000 		lla	a0,.LC2
 1520      13050500 
 1521 08e8 97000000 		call	_Z11printStringPKc@plt
 1521      E7800000 
 1522              	.LVL171:
 379:src/Slab.cpp  ****     printString("puni: ");
 1523              		.loc 1 379 5 is_stmt 1
 1524              		.loc 1 379 16 is_stmt 0
 1525 08f0 17050000 		lla	a0,.LC11
 1525      13050500 
 1526 08f8 97000000 		call	_Z11printStringPKc@plt
 1526      E7800000 
 1527              	.LVL172:
 380:src/Slab.cpp  ****     for(Slab* tmp = slabs_full; tmp; tmp = tmp->next){
 1528              		.loc 1 380 5 is_stmt 1
 1529              	.LBB107:
 1530              		.loc 1 380 15 is_stmt 0
 1531 0900 83340900 		ld	s1,0(s2)
 1532              	.LVL173:
 1533              	.L75:
 1534              		.loc 1 380 33 is_stmt 1 discriminator 3
 1535 0904 63880402 		beqz	s1,.L74
 381:src/Slab.cpp  ****         printInt(tmp->get_number_of_active_objects());
 1536              		.loc 1 381 9
 1537              	.LVL174:
 1538              	.LBB108:
GAS LISTING /tmp/ccIKkRbi.s 			page 41


 1539              	.LBB109:
  16:src/../h/Slab.h ****     void* return_first_free_object_and_rearange_list(int, int);
 1540              		.loc 3 16 43
 1541              	.LBE109:
 1542              	.LBE108:
 1543              		.loc 1 381 17 is_stmt 0
 1544 0908 13060000 		li	a2,0
 1545 090c 9305A000 		li	a1,10
 1546 0910 03A50400 		lw	a0,0(s1)
 1547 0914 97000000 		call	_Z8printIntiii@plt
 1547      E7800000 
 1548              	.LVL175:
 382:src/Slab.cpp  ****         printString(" ");
 1549              		.loc 1 382 9 is_stmt 1
 1550              		.loc 1 382 20 is_stmt 0
 1551 091c 17050000 		lla	a0,.LC9
 1551      13050500 
 1552 0924 97000000 		call	_Z11printStringPKc@plt
 1552      E7800000 
 1553              	.LVL176:
 380:src/Slab.cpp  ****         printInt(tmp->get_number_of_active_objects());
 1554              		.loc 1 380 5 is_stmt 1
 380:src/Slab.cpp  ****         printInt(tmp->get_number_of_active_objects());
 1555              		.loc 1 380 42 is_stmt 0
 1556 092c 83B48400 		ld	s1,8(s1)
 1557              	.LVL177:
 380:src/Slab.cpp  ****         printInt(tmp->get_number_of_active_objects());
 1558              		.loc 1 380 5
 1559 0930 6FF05FFD 		j	.L75
 1560              	.L74:
 1561              	.LBE107:
 383:src/Slab.cpp  ****     }
 384:src/Slab.cpp  ****     printString("\n");
 1562              		.loc 1 384 5 is_stmt 1
 1563              		.loc 1 384 16 is_stmt 0
 1564 0934 17050000 		lla	a0,.LC2
 1564      13050500 
 1565 093c 97000000 		call	_Z11printStringPKc@plt
 1565      E7800000 
 1566              	.LVL178:
 385:src/Slab.cpp  **** 
 386:src/Slab.cpp  ****     // number of times cache shrank
 387:src/Slab.cpp  ****     printString("Broj uspesnih smanjenja kesa: ");
 1567              		.loc 1 387 5 is_stmt 1
 1568              		.loc 1 387 16 is_stmt 0
 1569 0944 17050000 		lla	a0,.LC12
 1569      13050500 
 1570 094c 97000000 		call	_Z11printStringPKc@plt
 1570      E7800000 
 1571              	.LVL179:
 388:src/Slab.cpp  ****     printInt(shrink);
 1572              		.loc 1 388 5 is_stmt 1
 1573              		.loc 1 388 13 is_stmt 0
 1574 0954 13060000 		li	a2,0
 1575 0958 9305A000 		li	a1,10
 1576 095c 03250908 		lw	a0,128(s2)
 1577 0960 97000000 		call	_Z8printIntiii@plt
GAS LISTING /tmp/ccIKkRbi.s 			page 42


 1577      E7800000 
 1578              	.LVL180:
 389:src/Slab.cpp  ****     printString("\n");
 1579              		.loc 1 389 5 is_stmt 1
 1580              		.loc 1 389 16 is_stmt 0
 1581 0968 17050000 		lla	a0,.LC2
 1581      13050500 
 1582 0970 97000000 		call	_Z11printStringPKc@plt
 1582      E7800000 
 1583              	.LVL181:
 390:src/Slab.cpp  **** 
 391:src/Slab.cpp  ****     // metedata
 392:src/Slab.cpp  ****     printString("Velicina metapodataka za kmem_cache_s: ");
 1584              		.loc 1 392 5 is_stmt 1
 1585              		.loc 1 392 16 is_stmt 0
 1586 0978 17050000 		lla	a0,.LC13
 1586      13050500 
 1587 0980 97000000 		call	_Z11printStringPKc@plt
 1587      E7800000 
 1588              	.LVL182:
 393:src/Slab.cpp  ****     printInt(sizeof(kmem_cache_s));
 1589              		.loc 1 393 5 is_stmt 1
 1590              		.loc 1 393 13 is_stmt 0
 1591 0988 13060000 		li	a2,0
 1592 098c 9305A000 		li	a1,10
 1593 0990 13058008 		li	a0,136
 1594 0994 97000000 		call	_Z8printIntiii@plt
 1594      E7800000 
 1595              	.LVL183:
 394:src/Slab.cpp  ****     printString("\n");
 1596              		.loc 1 394 5 is_stmt 1
 1597              		.loc 1 394 16 is_stmt 0
 1598 099c 17050000 		lla	a0,.LC2
 1598      13050500 
 1599 09a4 97000000 		call	_Z11printStringPKc@plt
 1599      E7800000 
 1600              	.LVL184:
 395:src/Slab.cpp  ****     printString("Velicina metapodataka za Slab: ");
 1601              		.loc 1 395 5 is_stmt 1
 1602              		.loc 1 395 16 is_stmt 0
 1603 09ac 17050000 		lla	a0,.LC14
 1603      13050500 
 1604 09b4 97000000 		call	_Z11printStringPKc@plt
 1604      E7800000 
 1605              	.LVL185:
 396:src/Slab.cpp  ****     size_t size_of_slab = sizeof(Slab) + this->size_of_arr * sizeof(size_t) + sizeof(size_t);
 1606              		.loc 1 396 5 is_stmt 1
 1607              		.loc 1 396 48 is_stmt 0
 1608 09bc 83340904 		ld	s1,64(s2)
 1609              	.LVL186:
 1610              		.loc 1 396 77
 1611 09c0 93844400 		addi	s1,s1,4
 1612              		.loc 1 396 12
 1613 09c4 93943400 		slli	s1,s1,3
 1614              	.LVL187:
 397:src/Slab.cpp  ****     printInt(size_of_slab);
 1615              		.loc 1 397 5 is_stmt 1
GAS LISTING /tmp/ccIKkRbi.s 			page 43


 1616              		.loc 1 397 13 is_stmt 0
 1617 09c8 13060000 		li	a2,0
 1618 09cc 9305A000 		li	a1,10
 1619 09d0 1B850400 		sext.w	a0,s1
 1620 09d4 97000000 		call	_Z8printIntiii@plt
 1620      E7800000 
 1621              	.LVL188:
 398:src/Slab.cpp  ****     printString("\n");
 1622              		.loc 1 398 5 is_stmt 1
 1623              		.loc 1 398 16 is_stmt 0
 1624 09dc 17050000 		lla	a0,.LC2
 1624      13050500 
 1625 09e4 97000000 		call	_Z11printStringPKc@plt
 1625      E7800000 
 1626              	.LVL189:
 399:src/Slab.cpp  **** 
 400:src/Slab.cpp  ****     // percentage of fullfilment of cache
 401:src/Slab.cpp  ****     size_t neto = sizeof(kmem_cache_s) + num_of_slabs * size_of_slab + num_active_obj * objsize;
 1627              		.loc 1 401 5 is_stmt 1
 1628              		.loc 1 401 55 is_stmt 0
 1629 09ec B3849902 		mul	s1,s3,s1
 1630              	.LVL190:
 1631              		.loc 1 401 72
 1632 09f0 83370907 		ld	a5,112(s2)
 1633              		.loc 1 401 89
 1634 09f4 03370903 		ld	a4,48(s2)
 1635              		.loc 1 401 87
 1636 09f8 B387E702 		mul	a5,a5,a4
 1637              		.loc 1 401 70
 1638 09fc B384F400 		add	s1,s1,a5
 1639              		.loc 1 401 12
 1640 0a00 93848408 		addi	s1,s1,136
 1641              	.LVL191:
 402:src/Slab.cpp  ****     size_t bruto = (1 + num_of_slabs * size_in_blocks) * BLOCK_SIZE;
 1642              		.loc 1 402 5 is_stmt 1
 1643              		.loc 1 402 40 is_stmt 0
 1644 0a04 033A8904 		ld	s4,72(s2)
 1645              		.loc 1 402 38
 1646 0a08 330A3A03 		mul	s4,s4,s3
 1647              		.loc 1 402 23
 1648 0a0c 130A1A00 		addi	s4,s4,1
 1649              		.loc 1 402 12
 1650 0a10 131ACA00 		slli	s4,s4,12
 1651              	.LVL192:
 403:src/Slab.cpp  **** 
 404:src/Slab.cpp  ****     printString("Realna iskoriscenost prostora: ");
 1652              		.loc 1 404 5 is_stmt 1
 1653              		.loc 1 404 16 is_stmt 0
 1654 0a14 17050000 		lla	a0,.LC15
 1654      13050500 
 1655 0a1c 97000000 		call	_Z11printStringPKc@plt
 1655      E7800000 
 1656              	.LVL193:
 405:src/Slab.cpp  ****     printInt(neto);
 1657              		.loc 1 405 5 is_stmt 1
 1658              		.loc 1 405 13 is_stmt 0
 1659 0a24 13060000 		li	a2,0
GAS LISTING /tmp/ccIKkRbi.s 			page 44


 1660 0a28 9305A000 		li	a1,10
 1661 0a2c 1B850400 		sext.w	a0,s1
 1662 0a30 97000000 		call	_Z8printIntiii@plt
 1662      E7800000 
 1663              	.LVL194:
 406:src/Slab.cpp  ****     printString("/");
 1664              		.loc 1 406 5 is_stmt 1
 1665              		.loc 1 406 16 is_stmt 0
 1666 0a38 17050000 		lla	a0,.LC16
 1666      13050500 
 1667 0a40 97000000 		call	_Z11printStringPKc@plt
 1667      E7800000 
 1668              	.LVL195:
 407:src/Slab.cpp  ****     printInt(bruto);
 1669              		.loc 1 407 5 is_stmt 1
 1670              		.loc 1 407 13 is_stmt 0
 1671 0a48 13060000 		li	a2,0
 1672 0a4c 9305A000 		li	a1,10
 1673 0a50 1B050A00 		sext.w	a0,s4
 1674 0a54 97000000 		call	_Z8printIntiii@plt
 1674      E7800000 
 1675              	.LVL196:
 408:src/Slab.cpp  ****     printString("\n");
 1676              		.loc 1 408 5 is_stmt 1
 1677              		.loc 1 408 16 is_stmt 0
 1678 0a5c 17050000 		lla	a0,.LC2
 1678      13050500 
 1679 0a64 97000000 		call	_Z11printStringPKc@plt
 1679      E7800000 
 1680              	.LVL197:
 409:src/Slab.cpp  ****     printString("Efektivna iskoriscenost prostora: ");
 1681              		.loc 1 409 5 is_stmt 1
 1682              		.loc 1 409 16 is_stmt 0
 1683 0a6c 17050000 		lla	a0,.LC17
 1683      13050500 
 1684 0a74 97000000 		call	_Z11printStringPKc@plt
 1684      E7800000 
 1685              	.LVL198:
 410:src/Slab.cpp  ****     printInt(num_active_obj * objsize);
 1686              		.loc 1 410 5 is_stmt 1
 1687              		.loc 1 410 14 is_stmt 0
 1688 0a7c 03350907 		ld	a0,112(s2)
 1689              		.loc 1 410 31
 1690 0a80 83370903 		ld	a5,48(s2)
 1691              		.loc 1 410 13
 1692 0a84 13060000 		li	a2,0
 1693 0a88 9305A000 		li	a1,10
 1694 0a8c 3B05F502 		mulw	a0,a0,a5
 1695 0a90 97000000 		call	_Z8printIntiii@plt
 1695      E7800000 
 1696              	.LVL199:
 411:src/Slab.cpp  ****     printString("/");
 1697              		.loc 1 411 5 is_stmt 1
 1698              		.loc 1 411 16 is_stmt 0
 1699 0a98 17050000 		lla	a0,.LC16
 1699      13050500 
 1700 0aa0 97000000 		call	_Z11printStringPKc@plt
GAS LISTING /tmp/ccIKkRbi.s 			page 45


 1700      E7800000 
 1701              	.LVL200:
 412:src/Slab.cpp  ****     size_t real_bruto = num_of_slabs * size_in_blocks * BLOCK_SIZE - num_of_slabs * sizeof(Slab);
 1702              		.loc 1 412 5 is_stmt 1
 1703              		.loc 1 412 40 is_stmt 0
 1704 0aa8 03358904 		ld	a0,72(s2)
 1705              		.loc 1 412 38
 1706 0aac 33053503 		mul	a0,a0,s3
 1707              		.loc 1 412 55
 1708 0ab0 1315C500 		slli	a0,a0,12
 1709              		.loc 1 412 83
 1710 0ab4 93971900 		slli	a5,s3,1
 1711 0ab8 B3893701 		add	s3,a5,s3
 1712              	.LVL201:
 1713 0abc 93993900 		slli	s3,s3,3
 1714              	.LVL202:
 413:src/Slab.cpp  ****     printInt(real_bruto);
 1715              		.loc 1 413 5 is_stmt 1
 1716              		.loc 1 413 13 is_stmt 0
 1717 0ac0 13060000 		li	a2,0
 1718 0ac4 9305A000 		li	a1,10
 1719 0ac8 3B053541 		subw	a0,a0,s3
 1720              	.LVL203:
 1721 0acc 97000000 		call	_Z8printIntiii@plt
 1721      E7800000 
 1722              	.LVL204:
 414:src/Slab.cpp  ****     printString("\n");
 1723              		.loc 1 414 5 is_stmt 1
 1724              		.loc 1 414 16 is_stmt 0
 1725 0ad4 17050000 		lla	a0,.LC2
 1725      13050500 
 1726 0adc 97000000 		call	_Z11printStringPKc@plt
 1726      E7800000 
 1727              	.LVL205:
 415:src/Slab.cpp  **** 
 416:src/Slab.cpp  ****     printString("----------------------- END ----------------------\n");
 1728              		.loc 1 416 5 is_stmt 1
 1729              		.loc 1 416 16 is_stmt 0
 1730 0ae4 17050000 		lla	a0,.LC18
 1730      13050500 
 1731 0aec 97000000 		call	_Z11printStringPKc@plt
 1731      E7800000 
 1732              	.LVL206:
 417:src/Slab.cpp  **** }
 1733              		.loc 1 417 1
 1734 0af4 83308102 		ld	ra,40(sp)
 1735              		.cfi_restore 1
 1736 0af8 03340102 		ld	s0,32(sp)
 1737              		.cfi_restore 8
 1738              		.cfi_def_cfa 2, 48
 1739 0afc 83348101 		ld	s1,24(sp)
 1740              		.cfi_restore 9
 1741              	.LVL207:
 1742 0b00 03390101 		ld	s2,16(sp)
 1743              		.cfi_restore 18
 1744              	.LVL208:
 1745 0b04 83398100 		ld	s3,8(sp)
GAS LISTING /tmp/ccIKkRbi.s 			page 46


 1746              		.cfi_restore 19
 1747 0b08 033A0100 		ld	s4,0(sp)
 1748              		.cfi_restore 20
 1749              	.LVL209:
 1750 0b0c 13010103 		addi	sp,sp,48
 1751              		.cfi_def_cfa_offset 0
 1752 0b10 67800000 		jr	ra
 1753              		.cfi_endproc
 1754              	.LFE61:
 1756              		.section	.rodata.str1.8
 1757 0204 00000000 		.align	3
 1758              	.LC19:
 1759 0208 0A090909 		.string	"\n\t\t\t ### PRINT ALL CACHES ###\t\t\t\n"
 1759      20232323 
 1759      20505249 
 1759      4E542041 
 1759      4C4C2043 
 1760 022a 00000000 		.align	3
 1760      0000
 1761              	.LC20:
 1762 0230 09090909 		.string	"\t\t\t\t    ### END ###\t\t\t\n"
 1762      20202020 
 1762      23232320 
 1762      454E4420 
 1762      23232309 
 1763              		.text
 1764              		.align	2
 1765              		.globl	_ZN12kmem_cache_s21print_info_all_cachesEv
 1767              	_ZN12kmem_cache_s21print_info_all_cachesEv:
 1768              	.LFB62:
 418:src/Slab.cpp  **** 
 419:src/Slab.cpp  **** void kmem_cache_s::print_info_all_caches() {
 1769              		.loc 1 419 44 is_stmt 1
 1770              		.cfi_startproc
 1771 0b14 130101FE 		addi	sp,sp,-32
 1772              		.cfi_def_cfa_offset 32
 1773 0b18 233C1100 		sd	ra,24(sp)
 1774 0b1c 23388100 		sd	s0,16(sp)
 1775 0b20 23349100 		sd	s1,8(sp)
 1776              		.cfi_offset 1, -8
 1777              		.cfi_offset 8, -16
 1778              		.cfi_offset 9, -24
 1779 0b24 13040102 		addi	s0,sp,32
 1780              		.cfi_def_cfa 8, 0
 420:src/Slab.cpp  ****     printString("\n\t\t\t ### PRINT ALL CACHES ###\t\t\t\n");
 1781              		.loc 1 420 5
 1782              		.loc 1 420 16 is_stmt 0
 1783 0b28 17050000 		lla	a0,.LC19
 1783      13050500 
 1784 0b30 97000000 		call	_Z11printStringPKc@plt
 1784      E7800000 
 1785              	.LVL210:
 421:src/Slab.cpp  ****     for(kmem_cache_s* tmp = kmem_cache_s::head; tmp; tmp = tmp->next){
 1786              		.loc 1 421 5 is_stmt 1
 1787              	.LBB110:
 1788              		.loc 1 421 23 is_stmt 0
 1789 0b38 97040000 		ld	s1,.LANCHOR0
GAS LISTING /tmp/ccIKkRbi.s 			page 47


 1789      83B40400 
 1790              	.LVL211:
 1791              	.L79:
 1792              		.loc 1 421 49 is_stmt 1 discriminator 3
 1793 0b40 638C0400 		beqz	s1,.L78
 422:src/Slab.cpp  ****         tmp->kmem_cache_info();
 1794              		.loc 1 422 9 discriminator 2
 1795              		.loc 1 422 29 is_stmt 0 discriminator 2
 1796 0b44 13850400 		mv	a0,s1
 1797 0b48 97000000 		call	_ZN12kmem_cache_s15kmem_cache_infoEv
 1797      E7800000 
 1798              	.LVL212:
 421:src/Slab.cpp  ****     for(kmem_cache_s* tmp = kmem_cache_s::head; tmp; tmp = tmp->next){
 1799              		.loc 1 421 5 is_stmt 1 discriminator 2
 421:src/Slab.cpp  ****     for(kmem_cache_s* tmp = kmem_cache_s::head; tmp; tmp = tmp->next){
 1800              		.loc 1 421 58 is_stmt 0 discriminator 2
 1801 0b50 83B48406 		ld	s1,104(s1)
 1802              	.LVL213:
 421:src/Slab.cpp  ****     for(kmem_cache_s* tmp = kmem_cache_s::head; tmp; tmp = tmp->next){
 1803              		.loc 1 421 5 discriminator 2
 1804 0b54 6FF0DFFE 		j	.L79
 1805              	.L78:
 1806              	.LBE110:
 423:src/Slab.cpp  ****     }
 424:src/Slab.cpp  ****     printString("\t\t\t\t    ### END ###\t\t\t\n");
 1807              		.loc 1 424 5 is_stmt 1
 1808              		.loc 1 424 16 is_stmt 0
 1809 0b58 17050000 		lla	a0,.LC20
 1809      13050500 
 1810 0b60 97000000 		call	_Z11printStringPKc@plt
 1810      E7800000 
 1811              	.LVL214:
 425:src/Slab.cpp  **** }
 1812              		.loc 1 425 1
 1813 0b68 83308101 		ld	ra,24(sp)
 1814              		.cfi_restore 1
 1815 0b6c 03340101 		ld	s0,16(sp)
 1816              		.cfi_restore 8
 1817              		.cfi_def_cfa 2, 32
 1818 0b70 83348100 		ld	s1,8(sp)
 1819              		.cfi_restore 9
 1820              	.LVL215:
 1821 0b74 13010102 		addi	sp,sp,32
 1822              		.cfi_def_cfa_offset 0
 1823 0b78 67800000 		jr	ra
 1824              		.cfi_endproc
 1825              	.LFE62:
 1827              		.align	2
 1828              		.globl	_ZN4Slab42return_first_free_object_and_rearange_listEii
 1830              	_ZN4Slab42return_first_free_object_and_rearange_listEii:
 1831              	.LFB63:
 426:src/Slab.cpp  **** 
 427:src/Slab.cpp  **** void *Slab::return_first_free_object_and_rearange_list(int number_of_objects_in_slab, int size_of_o
 1832              		.loc 1 427 107 is_stmt 1
 1833              		.cfi_startproc
 1834              	.LVL216:
 1835 0b7c 130101FD 		addi	sp,sp,-48
GAS LISTING /tmp/ccIKkRbi.s 			page 48


 1836              		.cfi_def_cfa_offset 48
 1837 0b80 23341102 		sd	ra,40(sp)
 1838 0b84 23308102 		sd	s0,32(sp)
 1839 0b88 233C9100 		sd	s1,24(sp)
 1840 0b8c 23382101 		sd	s2,16(sp)
 1841 0b90 23343101 		sd	s3,8(sp)
 1842 0b94 23304101 		sd	s4,0(sp)
 1843              		.cfi_offset 1, -8
 1844              		.cfi_offset 8, -16
 1845              		.cfi_offset 9, -24
 1846              		.cfi_offset 18, -32
 1847              		.cfi_offset 19, -40
 1848              		.cfi_offset 20, -48
 1849 0b98 13040103 		addi	s0,sp,48
 1850              		.cfi_def_cfa 8, 0
 1851 0b9c 93090500 		mv	s3,a0
 1852 0ba0 13890500 		mv	s2,a1
 1853 0ba4 130A0600 		mv	s4,a2
 428:src/Slab.cpp  ****     int i = 0;
 1854              		.loc 1 428 5
 1855              	.LVL217:
 1856              		.loc 1 428 9 is_stmt 0
 1857 0ba8 93040000 		li	s1,0
 1858              	.LVL218:
 1859              	.L83:
 429:src/Slab.cpp  ****     while(i < number_of_objects_in_slab && this->is_active(i)){
 1860              		.loc 1 429 5 is_stmt 1
 1861              		.loc 1 429 41
 1862 0bac 63D02403 		bge	s1,s2,.L82
 1863              		.loc 1 429 59 is_stmt 0 discriminator 1
 1864 0bb0 93850400 		mv	a1,s1
 1865 0bb4 13850900 		mv	a0,s3
 1866 0bb8 97000000 		call	_ZN4Slab9is_activeEi
 1866      E7800000 
 1867              	.LVL219:
 1868              		.loc 1 429 41 discriminator 1
 1869 0bc0 63060500 		beqz	a0,.L82
 430:src/Slab.cpp  ****         i++;
 1870              		.loc 1 430 9 is_stmt 1
 1871              		.loc 1 430 10 is_stmt 0
 1872 0bc4 9B841400 		addiw	s1,s1,1
 1873              	.LVL220:
 429:src/Slab.cpp  ****     while(i < number_of_objects_in_slab && this->is_active(i)){
 1874              		.loc 1 429 5
 1875 0bc8 6FF05FFE 		j	.L83
 1876              	.LVL221:
 1877              	.L82:
 431:src/Slab.cpp  ****     }
 432:src/Slab.cpp  ****     if(i >= number_of_objects_in_slab)return nullptr; // nece se desiti ali postoji kao ogranicenje
 1878              		.loc 1 432 5 is_stmt 1 discriminator 4
 1879 0bcc 63D22405 		bge	s1,s2,.L85
 433:src/Slab.cpp  ****     this->set_mask(i, true);
 1880              		.loc 1 433 5
 1881              		.loc 1 433 19 is_stmt 0
 1882 0bd0 13061000 		li	a2,1
 1883 0bd4 93850400 		mv	a1,s1
 1884 0bd8 13850900 		mv	a0,s3
GAS LISTING /tmp/ccIKkRbi.s 			page 49


 1885 0bdc 97000000 		call	_ZN4Slab8set_maskEib
 1885      E7800000 
 1886              	.LVL222:
 434:src/Slab.cpp  ****     return (void*)(this->first_addr + size_of_object * i);
 1887              		.loc 1 434 5 is_stmt 1
 1888              		.loc 1 434 26 is_stmt 0
 1889 0be4 03B50901 		ld	a0,16(s3)
 1890              		.loc 1 434 54
 1891 0be8 BB844403 		mulw	s1,s1,s4
 1892              	.LVL223:
 1893              		.loc 1 434 37
 1894 0bec 33059500 		add	a0,a0,s1
 1895              	.L81:
 435:src/Slab.cpp  **** }
 1896              		.loc 1 435 1
 1897 0bf0 83308102 		ld	ra,40(sp)
 1898              		.cfi_remember_state
 1899              		.cfi_restore 1
 1900 0bf4 03340102 		ld	s0,32(sp)
 1901              		.cfi_restore 8
 1902              		.cfi_def_cfa 2, 48
 1903 0bf8 83348101 		ld	s1,24(sp)
 1904              		.cfi_restore 9
 1905 0bfc 03390101 		ld	s2,16(sp)
 1906              		.cfi_restore 18
 1907 0c00 83398100 		ld	s3,8(sp)
 1908              		.cfi_restore 19
 1909              	.LVL224:
 1910 0c04 033A0100 		ld	s4,0(sp)
 1911              		.cfi_restore 20
 1912 0c08 13010103 		addi	sp,sp,48
 1913              		.cfi_def_cfa_offset 0
 1914 0c0c 67800000 		jr	ra
 1915              	.LVL225:
 1916              	.L85:
 1917              		.cfi_restore_state
 432:src/Slab.cpp  ****     this->set_mask(i, true);
 1918              		.loc 1 432 46
 1919 0c10 13050000 		li	a0,0
 1920 0c14 6FF0DFFD 		j	.L81
 1921              		.cfi_endproc
 1922              	.LFE63:
 1924              		.align	2
 1925              		.globl	_ZN12kmem_cache_s16kmem_cache_allocEv
 1927              	_ZN12kmem_cache_s16kmem_cache_allocEv:
 1928              	.LFB50:
  83:src/Slab.cpp  ****     if(num_slabs_partial != 0){
 1929              		.loc 1 83 40 is_stmt 1
 1930              		.cfi_startproc
 1931              	.LVL226:
 1932 0c18 130101FE 		addi	sp,sp,-32
 1933              		.cfi_def_cfa_offset 32
 1934 0c1c 233C1100 		sd	ra,24(sp)
 1935 0c20 23388100 		sd	s0,16(sp)
 1936 0c24 23349100 		sd	s1,8(sp)
 1937              		.cfi_offset 1, -8
 1938              		.cfi_offset 8, -16
GAS LISTING /tmp/ccIKkRbi.s 			page 50


 1939              		.cfi_offset 9, -24
 1940 0c28 13040102 		addi	s0,sp,32
 1941              		.cfi_def_cfa 8, 0
 1942 0c2c 93040500 		mv	s1,a0
  84:src/Slab.cpp  ****         void* addr = this->slabs_partial->return_first_free_object_and_rearange_list(this->num, thi
 1943              		.loc 1 84 5
 1944              	.LBB111:
  84:src/Slab.cpp  ****         void* addr = this->slabs_partial->return_first_free_object_and_rearange_list(this->num, thi
 1945              		.loc 1 84 8 is_stmt 0
 1946 0c30 83370502 		ld	a5,32(a0)
  84:src/Slab.cpp  ****         void* addr = this->slabs_partial->return_first_free_object_and_rearange_list(this->num, thi
 1947              		.loc 1 84 5
 1948 0c34 639E0706 		bnez	a5,.L93
 1949              	.LBE111:
 100:src/Slab.cpp  ****         void* addr1 = this->slabs_free->return_first_free_object_and_rearange_list(this->num, this-
 1950              		.loc 1 100 10 is_stmt 1
 1951              	.LBB124:
 1952              	.LBB112:
 100:src/Slab.cpp  ****         void* addr1 = this->slabs_free->return_first_free_object_and_rearange_list(this->num, this-
 1953              		.loc 1 100 13 is_stmt 0
 1954 0c38 83378502 		ld	a5,40(a0)
 100:src/Slab.cpp  ****         void* addr1 = this->slabs_free->return_first_free_object_and_rearange_list(this->num, this-
 1955              		.loc 1 100 10
 1956 0c3c 6382070E 		beqz	a5,.L91
 1957              	.LBB113:
 101:src/Slab.cpp  ****         this->num_active_obj++;
 1958              		.loc 1 101 9 is_stmt 1
 101:src/Slab.cpp  ****         this->num_active_obj++;
 1959              		.loc 1 101 83 is_stmt 0
 1960 0c40 03260503 		lw	a2,48(a0)
 1961 0c44 83258503 		lw	a1,56(a0)
 1962 0c48 03350501 		ld	a0,16(a0)
 1963              	.LVL227:
 1964 0c4c 97000000 		call	_ZN4Slab42return_first_free_object_and_rearange_listEii
 1964      E7800000 
 1965              	.LVL228:
 102:src/Slab.cpp  **** 
 1966              		.loc 1 102 9 is_stmt 1
 102:src/Slab.cpp  **** 
 1967              		.loc 1 102 15 is_stmt 0
 1968 0c54 83B70407 		ld	a5,112(s1)
 102:src/Slab.cpp  **** 
 1969              		.loc 1 102 29
 1970 0c58 93871700 		addi	a5,a5,1
 1971 0c5c 23B8F406 		sd	a5,112(s1)
 105:src/Slab.cpp  ****         this->slabs_free = this->slabs_free->next;
 1972              		.loc 1 105 9 is_stmt 1
 105:src/Slab.cpp  ****         this->slabs_free = this->slabs_free->next;
 1973              		.loc 1 105 15 is_stmt 0
 1974 0c60 83B70401 		ld	a5,16(s1)
 1975              	.LVL229:
 106:src/Slab.cpp  ****         tmp->next = this->slabs_partial;
 1976              		.loc 1 106 9 is_stmt 1
 106:src/Slab.cpp  ****         tmp->next = this->slabs_partial;
 1977              		.loc 1 106 46 is_stmt 0
 1978 0c64 03B78700 		ld	a4,8(a5)
 106:src/Slab.cpp  ****         tmp->next = this->slabs_partial;
GAS LISTING /tmp/ccIKkRbi.s 			page 51


 1979              		.loc 1 106 26
 1980 0c68 23B8E400 		sd	a4,16(s1)
 107:src/Slab.cpp  ****         tmp->increment_num_of_active();
 1981              		.loc 1 107 9 is_stmt 1
 107:src/Slab.cpp  ****         tmp->increment_num_of_active();
 1982              		.loc 1 107 27 is_stmt 0
 1983 0c6c 03B78400 		ld	a4,8(s1)
 107:src/Slab.cpp  ****         tmp->increment_num_of_active();
 1984              		.loc 1 107 19
 1985 0c70 23B4E700 		sd	a4,8(a5)
 108:src/Slab.cpp  ****         this->slabs_partial = tmp;
 1986              		.loc 1 108 9 is_stmt 1
 1987              	.LVL230:
 1988              	.LBB114:
 1989              	.LBB115:
  18:src/../h/Slab.h ****     void decrement_num_of_active(){num_active--;}
 1990              		.loc 3 18 36
 1991 0c74 03B70700 		ld	a4,0(a5)
  18:src/../h/Slab.h ****     void decrement_num_of_active(){num_active--;}
 1992              		.loc 3 18 46 is_stmt 0
 1993 0c78 13071700 		addi	a4,a4,1
 1994 0c7c 23B0E700 		sd	a4,0(a5)
 1995              	.LVL231:
 1996              	.LBE115:
 1997              	.LBE114:
 109:src/Slab.cpp  ****         this->num_slabs_free--;
 1998              		.loc 1 109 9 is_stmt 1
 109:src/Slab.cpp  ****         this->num_slabs_free--;
 1999              		.loc 1 109 29 is_stmt 0
 2000 0c80 23B4F400 		sd	a5,8(s1)
 110:src/Slab.cpp  ****         this->num_slabs_partial++;
 2001              		.loc 1 110 9 is_stmt 1
 110:src/Slab.cpp  ****         this->num_slabs_partial++;
 2002              		.loc 1 110 15 is_stmt 0
 2003 0c84 83B78402 		ld	a5,40(s1)
 2004              	.LVL232:
 110:src/Slab.cpp  ****         this->num_slabs_partial++;
 2005              		.loc 1 110 29
 2006 0c88 9387F7FF 		addi	a5,a5,-1
 2007 0c8c 23B4F402 		sd	a5,40(s1)
 111:src/Slab.cpp  **** 
 2008              		.loc 1 111 9 is_stmt 1
 111:src/Slab.cpp  **** 
 2009              		.loc 1 111 15 is_stmt 0
 2010 0c90 83B70402 		ld	a5,32(s1)
 111:src/Slab.cpp  **** 
 2011              		.loc 1 111 32
 2012 0c94 93871700 		addi	a5,a5,1
 2013 0c98 23B0F402 		sd	a5,32(s1)
 113:src/Slab.cpp  ****     }
 2014              		.loc 1 113 9 is_stmt 1
 2015              	.LVL233:
 2016              	.L87:
 2017              	.LBE113:
 2018              	.LBE112:
 2019              	.LBE124:
 121:src/Slab.cpp  **** 
GAS LISTING /tmp/ccIKkRbi.s 			page 52


 2020              		.loc 1 121 1 is_stmt 0
 2021 0c9c 83308101 		ld	ra,24(sp)
 2022              		.cfi_remember_state
 2023              		.cfi_restore 1
 2024 0ca0 03340101 		ld	s0,16(sp)
 2025              		.cfi_restore 8
 2026              		.cfi_def_cfa 2, 32
 2027 0ca4 83348100 		ld	s1,8(sp)
 2028              		.cfi_restore 9
 2029              	.LVL234:
 2030 0ca8 13010102 		addi	sp,sp,32
 2031              		.cfi_def_cfa_offset 0
 2032 0cac 67800000 		jr	ra
 2033              	.LVL235:
 2034              	.L93:
 2035              		.cfi_restore_state
 2036              	.LBB125:
 2037              	.LBB116:
  85:src/Slab.cpp  ****         this->num_active_obj++;
 2038              		.loc 1 85 9 is_stmt 1
  85:src/Slab.cpp  ****         this->num_active_obj++;
 2039              		.loc 1 85 85 is_stmt 0
 2040 0cb0 03260503 		lw	a2,48(a0)
 2041 0cb4 83258503 		lw	a1,56(a0)
 2042 0cb8 03358500 		ld	a0,8(a0)
 2043 0cbc 97000000 		call	_ZN4Slab42return_first_free_object_and_rearange_listEii
 2043      E7800000 
 2044              	.LVL236:
  86:src/Slab.cpp  ****         this->slabs_partial->increment_num_of_active();
 2045              		.loc 1 86 9 is_stmt 1
  86:src/Slab.cpp  ****         this->slabs_partial->increment_num_of_active();
 2046              		.loc 1 86 15 is_stmt 0
 2047 0cc4 83B70407 		ld	a5,112(s1)
  86:src/Slab.cpp  ****         this->slabs_partial->increment_num_of_active();
 2048              		.loc 1 86 29
 2049 0cc8 93871700 		addi	a5,a5,1
 2050 0ccc 23B8F406 		sd	a5,112(s1)
  87:src/Slab.cpp  **** 
 2051              		.loc 1 87 9 is_stmt 1
  87:src/Slab.cpp  **** 
 2052              		.loc 1 87 15 is_stmt 0
 2053 0cd0 03B78400 		ld	a4,8(s1)
 2054              	.LVL237:
 2055              	.LBB117:
 2056              	.LBB118:
  18:src/../h/Slab.h ****     void decrement_num_of_active(){num_active--;}
 2057              		.loc 3 18 36 is_stmt 1
 2058 0cd4 83370700 		ld	a5,0(a4)
  18:src/../h/Slab.h ****     void decrement_num_of_active(){num_active--;}
 2059              		.loc 3 18 46 is_stmt 0
 2060 0cd8 93871700 		addi	a5,a5,1
 2061 0cdc 2330F700 		sd	a5,0(a4)
 2062              	.LVL238:
 2063              	.LBE118:
 2064              	.LBE117:
  89:src/Slab.cpp  ****             // move from partial to full
 2065              		.loc 1 89 9 is_stmt 1
GAS LISTING /tmp/ccIKkRbi.s 			page 53


 2066              	.LBB119:
  89:src/Slab.cpp  ****             // move from partial to full
 2067              		.loc 1 89 18 is_stmt 0
 2068 0ce0 83B78400 		ld	a5,8(s1)
 2069              	.LVL239:
 2070              	.LBB120:
 2071              	.LBB121:
  16:src/../h/Slab.h ****     void* return_first_free_object_and_rearange_list(int, int);
 2072              		.loc 3 16 43 is_stmt 1
  16:src/../h/Slab.h ****     void* return_first_free_object_and_rearange_list(int, int);
 2073              		.loc 3 16 50 is_stmt 0
 2074 0ce4 03B70700 		ld	a4,0(a5)
 2075              	.LVL240:
 2076              	.LBE121:
 2077              	.LBE120:
  89:src/Slab.cpp  ****             // move from partial to full
 2078              		.loc 1 89 73
 2079 0ce8 83B68403 		ld	a3,56(s1)
  89:src/Slab.cpp  ****             // move from partial to full
 2080              		.loc 1 89 9
 2081 0cec E398E6FA 		bne	a3,a4,.L87
 2082              	.LBB122:
  91:src/Slab.cpp  ****             this->slabs_partial = this->slabs_partial->next;
 2083              		.loc 1 91 13 is_stmt 1
 2084              	.LVL241:
  92:src/Slab.cpp  ****             tmp->next = this->slabs_full;
 2085              		.loc 1 92 13
  92:src/Slab.cpp  ****             tmp->next = this->slabs_full;
 2086              		.loc 1 92 56 is_stmt 0
 2087 0cf0 03B78700 		ld	a4,8(a5)
  92:src/Slab.cpp  ****             tmp->next = this->slabs_full;
 2088              		.loc 1 92 33
 2089 0cf4 23B4E400 		sd	a4,8(s1)
  93:src/Slab.cpp  ****             this->slabs_full = tmp;
 2090              		.loc 1 93 13 is_stmt 1
  93:src/Slab.cpp  ****             this->slabs_full = tmp;
 2091              		.loc 1 93 31 is_stmt 0
 2092 0cf8 03B70400 		ld	a4,0(s1)
  93:src/Slab.cpp  ****             this->slabs_full = tmp;
 2093              		.loc 1 93 23
 2094 0cfc 23B4E700 		sd	a4,8(a5)
  94:src/Slab.cpp  ****             this->num_slabs_partial--;
 2095              		.loc 1 94 13 is_stmt 1
  94:src/Slab.cpp  ****             this->num_slabs_partial--;
 2096              		.loc 1 94 30 is_stmt 0
 2097 0d00 23B0F400 		sd	a5,0(s1)
  95:src/Slab.cpp  ****             this->num_slabs_full++;
 2098              		.loc 1 95 13 is_stmt 1
  95:src/Slab.cpp  ****             this->num_slabs_full++;
 2099              		.loc 1 95 19 is_stmt 0
 2100 0d04 83B70402 		ld	a5,32(s1)
 2101              	.LVL242:
  95:src/Slab.cpp  ****             this->num_slabs_full++;
 2102              		.loc 1 95 36
 2103 0d08 9387F7FF 		addi	a5,a5,-1
 2104 0d0c 23B0F402 		sd	a5,32(s1)
  96:src/Slab.cpp  ****         }
GAS LISTING /tmp/ccIKkRbi.s 			page 54


 2105              		.loc 1 96 13 is_stmt 1
  96:src/Slab.cpp  ****         }
 2106              		.loc 1 96 19 is_stmt 0
 2107 0d10 83B78401 		ld	a5,24(s1)
  96:src/Slab.cpp  ****         }
 2108              		.loc 1 96 33
 2109 0d14 93871700 		addi	a5,a5,1
 2110 0d18 23BCF400 		sd	a5,24(s1)
 2111              	.LBE122:
 2112              	.LBE119:
  98:src/Slab.cpp  ****     }
 2113              		.loc 1 98 9 is_stmt 1
  98:src/Slab.cpp  ****     }
 2114              		.loc 1 98 16 is_stmt 0
 2115 0d1c 6FF01FF8 		j	.L87
 2116              	.LVL243:
 2117              	.L91:
 2118              	.LBE116:
 2119              	.LBB123:
 117:src/Slab.cpp  ****         this->growing = true;
 2120              		.loc 1 117 9 is_stmt 1
 117:src/Slab.cpp  ****         this->growing = true;
 2121              		.loc 1 117 25 is_stmt 0
 2122 0d20 97000000 		call	_ZN12kmem_cache_s16create_free_slabEv
 2122      E7800000 
 2123              	.LVL244:
 118:src/Slab.cpp  ****         return nullptr;
 2124              		.loc 1 118 9 is_stmt 1
 118:src/Slab.cpp  ****         return nullptr;
 2125              		.loc 1 118 23 is_stmt 0
 2126 0d28 93071000 		li	a5,1
 2127 0d2c 238CF406 		sb	a5,120(s1)
 119:src/Slab.cpp  ****     }
 2128              		.loc 1 119 9 is_stmt 1
 119:src/Slab.cpp  ****     }
 2129              		.loc 1 119 16 is_stmt 0
 2130 0d30 13050000 		li	a0,0
 2131 0d34 6FF09FF6 		j	.L87
 2132              	.LBE123:
 2133              	.LBE125:
 2134              		.cfi_endproc
 2135              	.LFE50:
 2137              		.align	2
 2138              		.globl	_ZN12kmem_cache_s7kmallocEm
 2140              	_ZN12kmem_cache_s7kmallocEm:
 2141              	.LFB55:
 237:src/Slab.cpp  ****     // kreiraj ime
 2142              		.loc 1 237 42 is_stmt 1
 2143              		.cfi_startproc
 2144              	.LVL245:
 2145 0d38 130101FE 		addi	sp,sp,-32
 2146              		.cfi_def_cfa_offset 32
 2147 0d3c 233C1100 		sd	ra,24(sp)
 2148 0d40 23388100 		sd	s0,16(sp)
 2149 0d44 23349100 		sd	s1,8(sp)
 2150 0d48 23302101 		sd	s2,0(sp)
 2151              		.cfi_offset 1, -8
GAS LISTING /tmp/ccIKkRbi.s 			page 55


 2152              		.cfi_offset 8, -16
 2153              		.cfi_offset 9, -24
 2154              		.cfi_offset 18, -32
 2155 0d4c 13040102 		addi	s0,sp,32
 2156              		.cfi_def_cfa 8, 0
 2157 0d50 93040500 		mv	s1,a0
 239:src/Slab.cpp  **** 
 2158              		.loc 1 239 5
 239:src/Slab.cpp  **** 
 2159              		.loc 1 239 61 is_stmt 0
 2160 0d54 1B050500 		sext.w	a0,a0
 2161              	.LVL246:
 2162 0d58 97000000 		call	_Z27concatenate_int_to_char_ptri@plt
 2162      E7800000 
 2163              	.LVL247:
 2164 0d60 13090500 		mv	s2,a0
 2165              	.LVL248:
 241:src/Slab.cpp  ****     kmem_cache_s* cache = nullptr;
 2166              		.loc 1 241 5 is_stmt 1
 241:src/Slab.cpp  ****     kmem_cache_s* cache = nullptr;
 2167              		.loc 1 241 45 is_stmt 0
 2168 0d64 97000000 		call	_ZN12kmem_cache_s20check_if_name_existsEPKc
 2168      E7800000 
 2169              	.LVL249:
 242:src/Slab.cpp  ****     if(tmp == nullptr){
 2170              		.loc 1 242 5 is_stmt 1
 243:src/Slab.cpp  ****         // napravi novi
 2171              		.loc 1 243 5
 2172 0d6c 63040502 		beqz	a0,.L99
 242:src/Slab.cpp  ****     if(tmp == nullptr){
 2173              		.loc 1 242 19 is_stmt 0
 2174 0d70 13050000 		li	a0,0
 2175              	.LVL250:
 2176              	.L95:
 249:src/Slab.cpp  ****     return elem;
 2177              		.loc 1 249 5 is_stmt 1
 249:src/Slab.cpp  ****     return elem;
 2178              		.loc 1 249 41 is_stmt 0
 2179 0d74 97000000 		call	_ZN12kmem_cache_s16kmem_cache_allocEv
 2179      E7800000 
 2180              	.LVL251:
 250:src/Slab.cpp  **** }
 2181              		.loc 1 250 5 is_stmt 1
 2182              	.L94:
 251:src/Slab.cpp  **** 
 2183              		.loc 1 251 1 is_stmt 0
 2184 0d7c 83308101 		ld	ra,24(sp)
 2185              		.cfi_remember_state
 2186              		.cfi_restore 1
 2187 0d80 03340101 		ld	s0,16(sp)
 2188              		.cfi_restore 8
 2189              		.cfi_def_cfa 2, 32
 2190 0d84 83348100 		ld	s1,8(sp)
 2191              		.cfi_restore 9
 2192              	.LVL252:
 2193 0d88 03390100 		ld	s2,0(sp)
 2194              		.cfi_restore 18
GAS LISTING /tmp/ccIKkRbi.s 			page 56


 2195              	.LVL253:
 2196 0d8c 13010102 		addi	sp,sp,32
 2197              		.cfi_def_cfa_offset 0
 2198 0d90 67800000 		jr	ra
 2199              	.LVL254:
 2200              	.L99:
 2201              		.cfi_restore_state
 245:src/Slab.cpp  ****         if(!cache)return nullptr;
 2202              		.loc 1 245 9 is_stmt 1
 245:src/Slab.cpp  ****         if(!cache)return nullptr;
 2203              		.loc 1 245 49 is_stmt 0
 2204 0d94 93060000 		li	a3,0
 2205 0d98 13060000 		li	a2,0
 2206 0d9c 93850400 		mv	a1,s1
 2207 0da0 13050900 		mv	a0,s2
 2208              	.LVL255:
 2209 0da4 97000000 		call	_ZN12kmem_cache_s17kmem_cache_createEPKcmPFvPvES4_
 2209      E7800000 
 2210              	.LVL256:
 246:src/Slab.cpp  ****     }
 2211              		.loc 1 246 9 is_stmt 1
 2212 0dac E31405FC 		bnez	a0,.L95
 2213 0db0 6FF0DFFC 		j	.L94
 2214              		.cfi_endproc
 2215              	.LFE55:
 2217              		.align	2
 2218              		.globl	_ZN4Slab10clear_slabEiiPFvPvE
 2220              	_ZN4Slab10clear_slabEiiPFvPvE:
 2221              	.LFB64:
 436:src/Slab.cpp  **** 
 437:src/Slab.cpp  **** void Slab::clear_slab(int num_of_objects_in_slab, int objsize, void (*dtor)(void *)) {
 2222              		.loc 1 437 86
 2223              		.cfi_startproc
 2224              	.LVL257:
 438:src/Slab.cpp  ****     if(dtor == nullptr)return;
 2225              		.loc 1 438 5
 2226 0db4 638A0608 		beqz	a3,.L105
 437:src/Slab.cpp  ****     if(dtor == nullptr)return;
 2227              		.loc 1 437 86 is_stmt 0
 2228 0db8 130101FC 		addi	sp,sp,-64
 2229              		.cfi_def_cfa_offset 64
 2230 0dbc 233C1102 		sd	ra,56(sp)
 2231 0dc0 23388102 		sd	s0,48(sp)
 2232 0dc4 23349102 		sd	s1,40(sp)
 2233 0dc8 23302103 		sd	s2,32(sp)
 2234 0dcc 233C3101 		sd	s3,24(sp)
 2235 0dd0 23384101 		sd	s4,16(sp)
 2236 0dd4 23345101 		sd	s5,8(sp)
 2237              		.cfi_offset 1, -8
 2238              		.cfi_offset 8, -16
 2239              		.cfi_offset 9, -24
 2240              		.cfi_offset 18, -32
 2241              		.cfi_offset 19, -40
 2242              		.cfi_offset 20, -48
 2243              		.cfi_offset 21, -56
 2244 0dd8 13040104 		addi	s0,sp,64
 2245              		.cfi_def_cfa 8, 0
GAS LISTING /tmp/ccIKkRbi.s 			page 57


 2246 0ddc 13090500 		mv	s2,a0
 2247 0de0 93890500 		mv	s3,a1
 2248 0de4 930A0600 		mv	s5,a2
 2249 0de8 138A0600 		mv	s4,a3
 2250              	.LBB126:
 439:src/Slab.cpp  ****     for(int i = 0; i < num_of_objects_in_slab; i++){
 2251              		.loc 1 439 13
 2252 0dec 93040000 		li	s1,0
 2253 0df0 6F008000 		j	.L103
 2254              	.LVL258:
 2255              	.L102:
 2256              		.loc 1 439 5 is_stmt 1 discriminator 2
 2257 0df4 9B841400 		addiw	s1,s1,1
 2258              	.LVL259:
 2259              	.L103:
 2260              		.loc 1 439 22 discriminator 1
 2261 0df8 63D63403 		bge	s1,s3,.L100
 440:src/Slab.cpp  ****         if(this->is_active(i)){
 2262              		.loc 1 440 9
 2263              		.loc 1 440 27 is_stmt 0
 2264 0dfc 93850400 		mv	a1,s1
 2265 0e00 13050900 		mv	a0,s2
 2266 0e04 97000000 		call	_ZN4Slab9is_activeEi
 2266      E7800000 
 2267              	.LVL260:
 2268              		.loc 1 440 9
 2269 0e0c E30405FE 		beqz	a0,.L102
 441:src/Slab.cpp  ****             dtor((void*)(this->first_addr + i * objsize));
 2270              		.loc 1 441 13 is_stmt 1
 2271              		.loc 1 441 32 is_stmt 0
 2272 0e10 03350901 		ld	a0,16(s2)
 2273              		.loc 1 441 47
 2274 0e14 BB875403 		mulw	a5,s1,s5
 2275              		.loc 1 441 17
 2276 0e18 3305F500 		add	a0,a0,a5
 2277 0e1c E7000A00 		jalr	s4
 2278              	.LVL261:
 2279 0e20 6FF05FFD 		j	.L102
 2280              	.L100:
 2281              	.LBE126:
 442:src/Slab.cpp  ****         }
 443:src/Slab.cpp  ****     }
 444:src/Slab.cpp  **** }
 2282              		.loc 1 444 1
 2283 0e24 83308103 		ld	ra,56(sp)
 2284              		.cfi_restore 1
 2285 0e28 03340103 		ld	s0,48(sp)
 2286              		.cfi_restore 8
 2287              		.cfi_def_cfa 2, 64
 2288 0e2c 83348102 		ld	s1,40(sp)
 2289              		.cfi_restore 9
 2290              	.LVL262:
 2291 0e30 03390102 		ld	s2,32(sp)
 2292              		.cfi_restore 18
 2293              	.LVL263:
 2294 0e34 83398101 		ld	s3,24(sp)
 2295              		.cfi_restore 19
GAS LISTING /tmp/ccIKkRbi.s 			page 58


 2296 0e38 033A0101 		ld	s4,16(sp)
 2297              		.cfi_restore 20
 2298              	.LVL264:
 2299 0e3c 833A8100 		ld	s5,8(sp)
 2300              		.cfi_restore 21
 2301 0e40 13010104 		addi	sp,sp,64
 2302              		.cfi_def_cfa_offset 0
 2303 0e44 67800000 		jr	ra
 2304              	.LVL265:
 2305              	.L105:
 2306 0e48 67800000 		ret
 2307              		.cfi_endproc
 2308              	.LFE64:
 2310              		.align	2
 2311              		.globl	_ZN12kmem_cache_s17kmem_cache_shrinkEv
 2313              	_ZN12kmem_cache_s17kmem_cache_shrinkEv:
 2314              	.LFB49:
  63:src/Slab.cpp  ****     if(this->growing){
 2315              		.loc 1 63 42 is_stmt 1
 2316              		.cfi_startproc
 2317              	.LVL266:
 2318 0e4c 130101FD 		addi	sp,sp,-48
 2319              		.cfi_def_cfa_offset 48
 2320 0e50 23341102 		sd	ra,40(sp)
 2321 0e54 23308102 		sd	s0,32(sp)
 2322 0e58 233C9100 		sd	s1,24(sp)
 2323 0e5c 23382101 		sd	s2,16(sp)
 2324 0e60 23343101 		sd	s3,8(sp)
 2325 0e64 23304101 		sd	s4,0(sp)
 2326              		.cfi_offset 1, -8
 2327              		.cfi_offset 8, -16
 2328              		.cfi_offset 9, -24
 2329              		.cfi_offset 18, -32
 2330              		.cfi_offset 19, -40
 2331              		.cfi_offset 20, -48
 2332 0e68 13040103 		addi	s0,sp,48
 2333              		.cfi_def_cfa 8, 0
 2334 0e6c 13090500 		mv	s2,a0
  64:src/Slab.cpp  ****         this->growing = false;
 2335              		.loc 1 64 5
  64:src/Slab.cpp  ****         this->growing = false;
 2336              		.loc 1 64 14 is_stmt 0
 2337 0e70 83478507 		lbu	a5,120(a0)
  64:src/Slab.cpp  ****         this->growing = false;
 2338              		.loc 1 64 5
 2339 0e74 63980700 		bnez	a5,.L115
  68:src/Slab.cpp  ****     int cnt = (int)this->num_slabs_free;
 2340              		.loc 1 68 5 is_stmt 1
  68:src/Slab.cpp  ****     int cnt = (int)this->num_slabs_free;
 2341              		.loc 1 68 11 is_stmt 0
 2342 0e78 83340501 		ld	s1,16(a0)
 2343              	.LVL267:
  69:src/Slab.cpp  ****     while(curr){
 2344              		.loc 1 69 5 is_stmt 1
  69:src/Slab.cpp  ****     while(curr){
 2345              		.loc 1 69 9 is_stmt 0
 2346 0e7c 032A8502 		lw	s4,40(a0)
GAS LISTING /tmp/ccIKkRbi.s 			page 59


 2347              	.LVL268:
 2348 0e80 6F004004 		j	.L113
 2349              	.LVL269:
 2350              	.L115:
  65:src/Slab.cpp  ****         return 0;
 2351              		.loc 1 65 9 is_stmt 1
  65:src/Slab.cpp  ****         return 0;
 2352              		.loc 1 65 23 is_stmt 0
 2353 0e84 230C0506 		sb	zero,120(a0)
  66:src/Slab.cpp  ****     }
 2354              		.loc 1 66 9 is_stmt 1
  66:src/Slab.cpp  ****     }
 2355              		.loc 1 66 16 is_stmt 0
 2356 0e88 13050000 		li	a0,0
 2357              	.LVL270:
 2358 0e8c 6F008008 		j	.L108
 2359              	.LVL271:
 2360              	.L116:
 2361              	.LBB127:
 2362              	.LBB128:
  17:src/../h/../h/Buddy.h ****         if(block_num != 0 && space != nullptr){
 2363              		.loc 2 17 28
 2364 0e90 17050000 		lla	a0,_ZZN11BuddySystem11getInstanceEPviE2bs
 2364      13050500 
 2365 0e98 97000000 		call	_ZN11BuddySystemC1Ev@plt
 2365      E7800000 
 2366              	.LVL272:
 2367 0ea0 93071000 		li	a5,1
 2368 0ea4 17070000 		sb	a5,_ZGVZN11BuddySystem11getInstanceEPviE2bs,a4
 2368      2300F700 
 2369              	.L112:
  18:src/../h/../h/Buddy.h ****             bs.buddyHeapStart = (size_t)space;
 2370              		.loc 2 18 9 is_stmt 1
 2371              		.loc 2 23 9
 2372              	.LVL273:
 2373              	.LBE128:
 2374              	.LBE127:
  74:src/Slab.cpp  ****     }
 2375              		.loc 1 74 45 is_stmt 0
 2376 0eac 93850400 		mv	a1,s1
 2377 0eb0 17050000 		lla	a0,_ZZN11BuddySystem11getInstanceEPviE2bs
 2377      13050500 
 2378 0eb8 97000000 		call	_ZN11BuddySystem9buddyFreeEm@plt
 2378      E7800000 
 2379              	.LVL274:
  72:src/Slab.cpp  ****         prev->clear_slab(num, objsize, dtor);
 2380              		.loc 1 72 14
 2381 0ec0 93840900 		mv	s1,s3
 2382              	.LVL275:
 2383              	.L113:
  70:src/Slab.cpp  ****         prev = curr;
 2384              		.loc 1 70 5 is_stmt 1
  70:src/Slab.cpp  ****         prev = curr;
 2385              		.loc 1 70 11
 2386 0ec4 63880402 		beqz	s1,.L111
  71:src/Slab.cpp  ****         curr = curr->next;
 2387              		.loc 1 71 9
GAS LISTING /tmp/ccIKkRbi.s 			page 60


 2388              	.LVL276:
  72:src/Slab.cpp  ****         prev->clear_slab(num, objsize, dtor);
 2389              		.loc 1 72 9
  72:src/Slab.cpp  ****         prev->clear_slab(num, objsize, dtor);
 2390              		.loc 1 72 14 is_stmt 0
 2391 0ec8 83B98400 		ld	s3,8(s1)
 2392              	.LVL277:
  73:src/Slab.cpp  ****         BuddySystem::getInstance().buddyFree((size_t)prev);
 2393              		.loc 1 73 9 is_stmt 1
  73:src/Slab.cpp  ****         BuddySystem::getInstance().buddyFree((size_t)prev);
 2394              		.loc 1 73 25 is_stmt 0
 2395 0ecc 83368905 		ld	a3,88(s2)
 2396 0ed0 03260903 		lw	a2,48(s2)
 2397 0ed4 83258903 		lw	a1,56(s2)
 2398 0ed8 13850400 		mv	a0,s1
 2399 0edc 97000000 		call	_ZN4Slab10clear_slabEiiPFvPvE
 2399      E7800000 
 2400              	.LVL278:
  74:src/Slab.cpp  ****     }
 2401              		.loc 1 74 9 is_stmt 1
 2402              	.LBB130:
 2403              	.LBB129:
  17:src/../h/../h/Buddy.h ****         if(block_num != 0 && space != nullptr){
 2404              		.loc 2 17 9
  17:src/../h/../h/Buddy.h ****         if(block_num != 0 && space != nullptr){
 2405              		.loc 2 17 28 is_stmt 0
 2406 0ee4 97070000 		lbu	a5,_ZGVZN11BuddySystem11getInstanceEPviE2bs
 2406      83C70700 
 2407 0eec E39007FC 		bnez	a5,.L112
 2408 0ef0 6FF01FFA 		j	.L116
 2409              	.LVL279:
 2410              	.L111:
 2411              	.LBE129:
 2412              	.LBE130:
  76:src/Slab.cpp  ****     this->num_slabs_free = 0;
 2413              		.loc 1 76 5 is_stmt 1
  76:src/Slab.cpp  ****     this->num_slabs_free = 0;
 2414              		.loc 1 76 22 is_stmt 0
 2415 0ef4 23380900 		sd	zero,16(s2)
  77:src/Slab.cpp  ****     this->growing = false;
 2416              		.loc 1 77 5 is_stmt 1
  77:src/Slab.cpp  ****     this->growing = false;
 2417              		.loc 1 77 26 is_stmt 0
 2418 0ef8 23340902 		sd	zero,40(s2)
  78:src/Slab.cpp  ****     this->shrink++;
 2419              		.loc 1 78 5 is_stmt 1
  78:src/Slab.cpp  ****     this->shrink++;
 2420              		.loc 1 78 19 is_stmt 0
 2421 0efc 230C0906 		sb	zero,120(s2)
  79:src/Slab.cpp  ****     return cnt * this->size_in_blocks;
 2422              		.loc 1 79 5 is_stmt 1
  79:src/Slab.cpp  ****     return cnt * this->size_in_blocks;
 2423              		.loc 1 79 11 is_stmt 0
 2424 0f00 83370908 		ld	a5,128(s2)
  79:src/Slab.cpp  ****     return cnt * this->size_in_blocks;
 2425              		.loc 1 79 17
 2426 0f04 93871700 		addi	a5,a5,1
GAS LISTING /tmp/ccIKkRbi.s 			page 61


 2427 0f08 2330F908 		sd	a5,128(s2)
  80:src/Slab.cpp  **** }
 2428              		.loc 1 80 5 is_stmt 1
  80:src/Slab.cpp  **** }
 2429              		.loc 1 80 24 is_stmt 0
 2430 0f0c 03358904 		ld	a0,72(s2)
 2431 0f10 3305AA02 		mul	a0,s4,a0
 2432              	.LVL280:
 2433              	.L108:
  81:src/Slab.cpp  **** 
 2434              		.loc 1 81 1
 2435 0f14 83308102 		ld	ra,40(sp)
 2436              		.cfi_restore 1
 2437 0f18 03340102 		ld	s0,32(sp)
 2438              		.cfi_restore 8
 2439              		.cfi_def_cfa 2, 48
 2440 0f1c 83348101 		ld	s1,24(sp)
 2441              		.cfi_restore 9
 2442 0f20 03390101 		ld	s2,16(sp)
 2443              		.cfi_restore 18
 2444              	.LVL281:
 2445 0f24 83398100 		ld	s3,8(sp)
 2446              		.cfi_restore 19
 2447 0f28 033A0100 		ld	s4,0(sp)
 2448              		.cfi_restore 20
 2449 0f2c 13010103 		addi	sp,sp,48
 2450              		.cfi_def_cfa_offset 0
 2451 0f30 67800000 		jr	ra
 2452              		.cfi_endproc
 2453              	.LFE49:
 2455              		.align	2
 2456              		.globl	_ZN12kmem_cache_s18kmem_cache_destroyEm
 2458              	_ZN12kmem_cache_s18kmem_cache_destroyEm:
 2459              	.LFB60:
 294:src/Slab.cpp  ****     Slab *prev = nullptr, *tmp = this->slabs_full;
 2460              		.loc 1 294 51 is_stmt 1
 2461              		.cfi_startproc
 2462              	.LVL282:
 2463 0f34 130101FD 		addi	sp,sp,-48
 2464              		.cfi_def_cfa_offset 48
 2465 0f38 23341102 		sd	ra,40(sp)
 2466 0f3c 23308102 		sd	s0,32(sp)
 2467 0f40 233C9100 		sd	s1,24(sp)
 2468 0f44 23382101 		sd	s2,16(sp)
 2469 0f48 23343101 		sd	s3,8(sp)
 2470 0f4c 23304101 		sd	s4,0(sp)
 2471              		.cfi_offset 1, -8
 2472              		.cfi_offset 8, -16
 2473              		.cfi_offset 9, -24
 2474              		.cfi_offset 18, -32
 2475              		.cfi_offset 19, -40
 2476              		.cfi_offset 20, -48
 2477 0f50 13040103 		addi	s0,sp,48
 2478              		.cfi_def_cfa 8, 0
 2479 0f54 93040500 		mv	s1,a0
 2480 0f58 138A0500 		mv	s4,a1
 295:src/Slab.cpp  ****     while (tmp) {
GAS LISTING /tmp/ccIKkRbi.s 			page 62


 2481              		.loc 1 295 5
 2482              	.LVL283:
 295:src/Slab.cpp  ****     while (tmp) {
 2483              		.loc 1 295 28 is_stmt 0
 2484 0f5c 03390500 		ld	s2,0(a0)
 2485              	.LVL284:
 2486 0f60 6F00C001 		j	.L120
 2487              	.LVL285:
 2488              	.L119:
 2489              	.LBB131:
 2490              	.LBB132:
  18:src/../h/../h/Buddy.h ****             bs.buddyHeapStart = (size_t)space;
 2491              		.loc 2 18 9 is_stmt 1
 2492              		.loc 2 23 9
 2493              	.LBE132:
 2494              	.LBE131:
 300:src/Slab.cpp  ****     }
 2495              		.loc 1 300 45 is_stmt 0
 2496 0f64 93050900 		mv	a1,s2
 2497 0f68 17050000 		lla	a0,_ZZN11BuddySystem11getInstanceEPviE2bs
 2497      13050500 
 2498 0f70 97000000 		call	_ZN11BuddySystem9buddyFreeEm@plt
 2498      E7800000 
 2499              	.LVL286:
 298:src/Slab.cpp  ****         prev->clear_slab((int)num, (int)objsize, dtor);
 2500              		.loc 1 298 13
 2501 0f78 13890900 		mv	s2,s3
 2502              	.LVL287:
 2503              	.L120:
 296:src/Slab.cpp  ****         prev = tmp;
 2504              		.loc 1 296 5 is_stmt 1
 296:src/Slab.cpp  ****         prev = tmp;
 2505              		.loc 1 296 12
 2506 0f7c 63060904 		beqz	s2,.L118
 297:src/Slab.cpp  ****         tmp = tmp->next;
 2507              		.loc 1 297 9
 2508              	.LVL288:
 298:src/Slab.cpp  ****         prev->clear_slab((int)num, (int)objsize, dtor);
 2509              		.loc 1 298 9
 298:src/Slab.cpp  ****         prev->clear_slab((int)num, (int)objsize, dtor);
 2510              		.loc 1 298 13 is_stmt 0
 2511 0f80 83398900 		ld	s3,8(s2)
 2512              	.LVL289:
 299:src/Slab.cpp  ****         BuddySystem::getInstance().buddyFree((size_t)prev);
 2513              		.loc 1 299 9 is_stmt 1
 299:src/Slab.cpp  ****         BuddySystem::getInstance().buddyFree((size_t)prev);
 2514              		.loc 1 299 25 is_stmt 0
 2515 0f84 83B68405 		ld	a3,88(s1)
 2516 0f88 03A60403 		lw	a2,48(s1)
 2517 0f8c 83A58403 		lw	a1,56(s1)
 2518 0f90 13050900 		mv	a0,s2
 2519 0f94 97000000 		call	_ZN4Slab10clear_slabEiiPFvPvE
 2519      E7800000 
 2520              	.LVL290:
 300:src/Slab.cpp  ****     }
 2521              		.loc 1 300 9 is_stmt 1
 2522              	.LBB134:
GAS LISTING /tmp/ccIKkRbi.s 			page 63


 2523              	.LBB133:
  17:src/../h/../h/Buddy.h ****         if(block_num != 0 && space != nullptr){
 2524              		.loc 2 17 9
  17:src/../h/../h/Buddy.h ****         if(block_num != 0 && space != nullptr){
 2525              		.loc 2 17 28 is_stmt 0
 2526 0f9c 97070000 		lbu	a5,_ZGVZN11BuddySystem11getInstanceEPviE2bs
 2526      83C70700 
 2527 0fa4 E39007FC 		bnez	a5,.L119
 2528 0fa8 17050000 		lla	a0,_ZZN11BuddySystem11getInstanceEPviE2bs
 2528      13050500 
 2529 0fb0 97000000 		call	_ZN11BuddySystemC1Ev@plt
 2529      E7800000 
 2530              	.LVL291:
 2531 0fb8 93071000 		li	a5,1
 2532 0fbc 17070000 		sb	a5,_ZGVZN11BuddySystem11getInstanceEPviE2bs,a4
 2532      2300F700 
 2533 0fc4 6FF01FFA 		j	.L119
 2534              	.LVL292:
 2535              	.L118:
 2536              	.LBE133:
 2537              	.LBE134:
 302:src/Slab.cpp  ****     while (tmp) {
 2538              		.loc 1 302 5 is_stmt 1
 302:src/Slab.cpp  ****     while (tmp) {
 2539              		.loc 1 302 21
 302:src/Slab.cpp  ****     while (tmp) {
 2540              		.loc 1 302 25 is_stmt 0
 2541 0fc8 03B98400 		ld	s2,8(s1)
 2542              	.LVL293:
 2543 0fcc 6F008003 		j	.L123
 2544              	.LVL294:
 2545              	.L133:
 2546              	.LBB135:
 2547              	.LBB136:
  17:src/../h/../h/Buddy.h ****         if(block_num != 0 && space != nullptr){
 2548              		.loc 2 17 28
 2549 0fd0 17050000 		lla	a0,_ZZN11BuddySystem11getInstanceEPviE2bs
 2549      13050500 
 2550 0fd8 97000000 		call	_ZN11BuddySystemC1Ev@plt
 2550      E7800000 
 2551              	.LVL295:
 2552 0fe0 93071000 		li	a5,1
 2553 0fe4 17070000 		sb	a5,_ZGVZN11BuddySystem11getInstanceEPviE2bs,a4
 2553      2300F700 
 2554              	.L122:
  18:src/../h/../h/Buddy.h ****             bs.buddyHeapStart = (size_t)space;
 2555              		.loc 2 18 9 is_stmt 1
 2556              		.loc 2 23 9
 2557              	.LVL296:
 2558              	.LBE136:
 2559              	.LBE135:
 307:src/Slab.cpp  ****     }
 2560              		.loc 1 307 45 is_stmt 0
 2561 0fec 93050900 		mv	a1,s2
 2562 0ff0 17050000 		lla	a0,_ZZN11BuddySystem11getInstanceEPviE2bs
 2562      13050500 
 2563 0ff8 97000000 		call	_ZN11BuddySystem9buddyFreeEm@plt
GAS LISTING /tmp/ccIKkRbi.s 			page 64


 2563      E7800000 
 2564              	.LVL297:
 305:src/Slab.cpp  ****         prev->clear_slab((int)num, (int)objsize, dtor);
 2565              		.loc 1 305 13
 2566 1000 13890900 		mv	s2,s3
 2567              	.LVL298:
 2568              	.L123:
 303:src/Slab.cpp  ****         prev = tmp;
 2569              		.loc 1 303 5 is_stmt 1
 303:src/Slab.cpp  ****         prev = tmp;
 2570              		.loc 1 303 12
 2571 1004 63080902 		beqz	s2,.L121
 304:src/Slab.cpp  ****         tmp = tmp->next;
 2572              		.loc 1 304 9
 2573              	.LVL299:
 305:src/Slab.cpp  ****         prev->clear_slab((int)num, (int)objsize, dtor);
 2574              		.loc 1 305 9
 305:src/Slab.cpp  ****         prev->clear_slab((int)num, (int)objsize, dtor);
 2575              		.loc 1 305 13 is_stmt 0
 2576 1008 83398900 		ld	s3,8(s2)
 2577              	.LVL300:
 306:src/Slab.cpp  ****         BuddySystem::getInstance().buddyFree((size_t)prev);
 2578              		.loc 1 306 9 is_stmt 1
 306:src/Slab.cpp  ****         BuddySystem::getInstance().buddyFree((size_t)prev);
 2579              		.loc 1 306 25 is_stmt 0
 2580 100c 83B68405 		ld	a3,88(s1)
 2581 1010 03A60403 		lw	a2,48(s1)
 2582 1014 83A58403 		lw	a1,56(s1)
 2583 1018 13050900 		mv	a0,s2
 2584 101c 97000000 		call	_ZN4Slab10clear_slabEiiPFvPvE
 2584      E7800000 
 2585              	.LVL301:
 307:src/Slab.cpp  ****     }
 2586              		.loc 1 307 9 is_stmt 1
 2587              	.LBB138:
 2588              	.LBB137:
  17:src/../h/../h/Buddy.h ****         if(block_num != 0 && space != nullptr){
 2589              		.loc 2 17 9
  17:src/../h/../h/Buddy.h ****         if(block_num != 0 && space != nullptr){
 2590              		.loc 2 17 28 is_stmt 0
 2591 1024 97070000 		lbu	a5,_ZGVZN11BuddySystem11getInstanceEPviE2bs
 2591      83C70700 
 2592 102c E39007FC 		bnez	a5,.L122
 2593 1030 6FF01FFA 		j	.L133
 2594              	.LVL302:
 2595              	.L121:
 2596              	.LBE137:
 2597              	.LBE138:
 309:src/Slab.cpp  ****     while (tmp) {
 2598              		.loc 1 309 5 is_stmt 1
 309:src/Slab.cpp  ****     while (tmp) {
 2599              		.loc 1 309 21
 309:src/Slab.cpp  ****     while (tmp) {
 2600              		.loc 1 309 25 is_stmt 0
 2601 1034 03B90401 		ld	s2,16(s1)
 2602              	.LVL303:
 2603 1038 6F008003 		j	.L126
GAS LISTING /tmp/ccIKkRbi.s 			page 65


 2604              	.LVL304:
 2605              	.L134:
 2606              	.LBB139:
 2607              	.LBB140:
  17:src/../h/../h/Buddy.h ****         if(block_num != 0 && space != nullptr){
 2608              		.loc 2 17 28
 2609 103c 17050000 		lla	a0,_ZZN11BuddySystem11getInstanceEPviE2bs
 2609      13050500 
 2610 1044 97000000 		call	_ZN11BuddySystemC1Ev@plt
 2610      E7800000 
 2611              	.LVL305:
 2612 104c 93071000 		li	a5,1
 2613 1050 17070000 		sb	a5,_ZGVZN11BuddySystem11getInstanceEPviE2bs,a4
 2613      2300F700 
 2614              	.L125:
  18:src/../h/../h/Buddy.h ****             bs.buddyHeapStart = (size_t)space;
 2615              		.loc 2 18 9 is_stmt 1
 2616              		.loc 2 23 9
 2617              	.LVL306:
 2618              	.LBE140:
 2619              	.LBE139:
 314:src/Slab.cpp  ****     }
 2620              		.loc 1 314 45 is_stmt 0
 2621 1058 93050900 		mv	a1,s2
 2622 105c 17050000 		lla	a0,_ZZN11BuddySystem11getInstanceEPviE2bs
 2622      13050500 
 2623 1064 97000000 		call	_ZN11BuddySystem9buddyFreeEm@plt
 2623      E7800000 
 2624              	.LVL307:
 312:src/Slab.cpp  ****         prev->clear_slab((int)num, (int)objsize, dtor);
 2625              		.loc 1 312 13
 2626 106c 13890900 		mv	s2,s3
 2627              	.LVL308:
 2628              	.L126:
 310:src/Slab.cpp  ****         prev = tmp;
 2629              		.loc 1 310 5 is_stmt 1
 310:src/Slab.cpp  ****         prev = tmp;
 2630              		.loc 1 310 12
 2631 1070 63080902 		beqz	s2,.L124
 311:src/Slab.cpp  ****         tmp = tmp->next;
 2632              		.loc 1 311 9
 2633              	.LVL309:
 312:src/Slab.cpp  ****         prev->clear_slab((int)num, (int)objsize, dtor);
 2634              		.loc 1 312 9
 312:src/Slab.cpp  ****         prev->clear_slab((int)num, (int)objsize, dtor);
 2635              		.loc 1 312 13 is_stmt 0
 2636 1074 83398900 		ld	s3,8(s2)
 2637              	.LVL310:
 313:src/Slab.cpp  ****         BuddySystem::getInstance().buddyFree((size_t)prev);
 2638              		.loc 1 313 9 is_stmt 1
 313:src/Slab.cpp  ****         BuddySystem::getInstance().buddyFree((size_t)prev);
 2639              		.loc 1 313 25 is_stmt 0
 2640 1078 83B68405 		ld	a3,88(s1)
 2641 107c 03A60403 		lw	a2,48(s1)
 2642 1080 83A58403 		lw	a1,56(s1)
 2643 1084 13050900 		mv	a0,s2
 2644 1088 97000000 		call	_ZN4Slab10clear_slabEiiPFvPvE
GAS LISTING /tmp/ccIKkRbi.s 			page 66


 2644      E7800000 
 2645              	.LVL311:
 314:src/Slab.cpp  ****     }
 2646              		.loc 1 314 9 is_stmt 1
 2647              	.LBB142:
 2648              	.LBB141:
  17:src/../h/../h/Buddy.h ****         if(block_num != 0 && space != nullptr){
 2649              		.loc 2 17 9
  17:src/../h/../h/Buddy.h ****         if(block_num != 0 && space != nullptr){
 2650              		.loc 2 17 28 is_stmt 0
 2651 1090 97070000 		lbu	a5,_ZGVZN11BuddySystem11getInstanceEPviE2bs
 2651      83C70700 
 2652 1098 E39007FC 		bnez	a5,.L125
 2653 109c 6FF01FFA 		j	.L134
 2654              	.LVL312:
 2655              	.L124:
 2656              	.LBE141:
 2657              	.LBE142:
 317:src/Slab.cpp  ****     while(cache){
 2658              		.loc 1 317 5 is_stmt 1
 317:src/Slab.cpp  ****     while(cache){
 2659              		.loc 1 317 19 is_stmt 0
 2660 10a0 97070000 		ld	a5,.LANCHOR0
 2660      83B70700 
 2661              	.LVL313:
 2662 10a8 6F00C002 		j	.L130
 2663              	.LVL314:
 2664              	.L135:
 2665              	.LBB143:
 2666              	.LBB144:
  17:src/../h/../h/Buddy.h ****         if(block_num != 0 && space != nullptr){
 2667              		.loc 2 17 28
 2668 10ac 17050000 		lla	a0,_ZZN11BuddySystem11getInstanceEPviE2bs
 2668      13050500 
 2669 10b4 97000000 		call	_ZN11BuddySystemC1Ev@plt
 2669      E7800000 
 2670              	.LVL315:
 2671 10bc 93071000 		li	a5,1
 2672 10c0 17070000 		sb	a5,_ZGVZN11BuddySystem11getInstanceEPviE2bs,a4
 2672      2300F700 
 2673 10c8 6F004003 		j	.L129
 2674              	.LVL316:
 2675              	.L128:
 2676              	.LBE144:
 2677              	.LBE143:
 327:src/Slab.cpp  ****         cache = cache->next;
 2678              		.loc 1 327 9 is_stmt 1
 328:src/Slab.cpp  ****     }
 2679              		.loc 1 328 9
 327:src/Slab.cpp  ****         cache = cache->next;
 2680              		.loc 1 327 20 is_stmt 0
 2681 10cc 13890700 		mv	s2,a5
 328:src/Slab.cpp  ****     }
 2682              		.loc 1 328 15
 2683 10d0 83B78706 		ld	a5,104(a5)
 2684              	.LVL317:
 2685              	.L130:
GAS LISTING /tmp/ccIKkRbi.s 			page 67


 318:src/Slab.cpp  ****         if((size_t)cache == addr){
 2686              		.loc 1 318 5 is_stmt 1
 318:src/Slab.cpp  ****         if((size_t)cache == addr){
 2687              		.loc 1 318 11
 2688 10d4 63820704 		beqz	a5,.L131
 319:src/Slab.cpp  ****             if(prev_cache){
 2689              		.loc 1 319 9
 319:src/Slab.cpp  ****             if(prev_cache){
 2690              		.loc 1 319 26 is_stmt 0
 2691 10d8 93840700 		mv	s1,a5
 319:src/Slab.cpp  ****             if(prev_cache){
 2692              		.loc 1 319 9
 2693 10dc E39847FF 		bne	a5,s4,.L128
 320:src/Slab.cpp  ****                 prev_cache->next = cache->next;
 2694              		.loc 1 320 13 is_stmt 1
 2695 10e0 E30609FE 		beqz	s2,.L128
 321:src/Slab.cpp  ****                 cache->next = nullptr;
 2696              		.loc 1 321 17
 321:src/Slab.cpp  ****                 cache->next = nullptr;
 2697              		.loc 1 321 43 is_stmt 0
 2698 10e4 03B78706 		ld	a4,104(a5)
 321:src/Slab.cpp  ****                 cache->next = nullptr;
 2699              		.loc 1 321 34
 2700 10e8 2334E906 		sd	a4,104(s2)
 322:src/Slab.cpp  ****                 BuddySystem::getInstance().buddyFree((size_t)cache);
 2701              		.loc 1 322 17 is_stmt 1
 322:src/Slab.cpp  ****                 BuddySystem::getInstance().buddyFree((size_t)cache);
 2702              		.loc 1 322 29 is_stmt 0
 2703 10ec 23B40706 		sd	zero,104(a5)
 323:src/Slab.cpp  ****                 return 0;
 2704              		.loc 1 323 17 is_stmt 1
 2705              	.LVL318:
 2706              	.LBB146:
 2707              	.LBB145:
  17:src/../h/../h/Buddy.h ****         if(block_num != 0 && space != nullptr){
 2708              		.loc 2 17 9
  17:src/../h/../h/Buddy.h ****         if(block_num != 0 && space != nullptr){
 2709              		.loc 2 17 28 is_stmt 0
 2710 10f0 97070000 		lbu	a5,_ZGVZN11BuddySystem11getInstanceEPviE2bs
 2710      83C70700 
 2711              	.LVL319:
 2712 10f8 E38A07FA 		beqz	a5,.L135
 2713              	.L129:
  18:src/../h/../h/Buddy.h ****             bs.buddyHeapStart = (size_t)space;
 2714              		.loc 2 18 9 is_stmt 1
 2715              		.loc 2 23 9
 2716              	.LVL320:
 2717              	.LBE145:
 2718              	.LBE146:
 323:src/Slab.cpp  ****                 return 0;
 2719              		.loc 1 323 53 is_stmt 0
 2720 10fc 93850400 		mv	a1,s1
 2721 1100 17050000 		lla	a0,_ZZN11BuddySystem11getInstanceEPviE2bs
 2721      13050500 
 2722 1108 97000000 		call	_ZN11BuddySystem9buddyFreeEm@plt
 2722      E7800000 
 2723              	.LVL321:
GAS LISTING /tmp/ccIKkRbi.s 			page 68


 324:src/Slab.cpp  ****             }
 2724              		.loc 1 324 17 is_stmt 1
 324:src/Slab.cpp  ****             }
 2725              		.loc 1 324 24 is_stmt 0
 2726 1110 13050000 		li	a0,0
 2727 1114 6F008000 		j	.L127
 2728              	.LVL322:
 2729              	.L131:
 330:src/Slab.cpp  **** }
 2730              		.loc 1 330 13
 2731 1118 1305F0FF 		li	a0,-1
 2732              	.LVL323:
 2733              	.L127:
 331:src/Slab.cpp  **** 
 2734              		.loc 1 331 1
 2735 111c 83308102 		ld	ra,40(sp)
 2736              		.cfi_restore 1
 2737 1120 03340102 		ld	s0,32(sp)
 2738              		.cfi_restore 8
 2739              		.cfi_def_cfa 2, 48
 2740 1124 83348101 		ld	s1,24(sp)
 2741              		.cfi_restore 9
 2742 1128 03390101 		ld	s2,16(sp)
 2743              		.cfi_restore 18
 2744              	.LVL324:
 2745 112c 83398100 		ld	s3,8(sp)
 2746              		.cfi_restore 19
 2747 1130 033A0100 		ld	s4,0(sp)
 2748              		.cfi_restore 20
 2749              	.LVL325:
 2750 1134 13010103 		addi	sp,sp,48
 2751              		.cfi_def_cfa_offset 0
 2752 1138 67800000 		jr	ra
 2753              		.cfi_endproc
 2754              	.LFE60:
 2756              		.globl	_ZN12kmem_cache_s4headE
 2757              		.weak	_ZGVZN11BuddySystem11getInstanceEPviE2bs
 2758              		.section	.bss._ZGVZN11BuddySystem11getInstanceEPviE2bs,"awG",@nobits,_ZGVZN11BuddySystem11getInsta
 2759              		.align	3
 2762              	_ZGVZN11BuddySystem11getInstanceEPviE2bs:
 2763 0000 00000000 		.zero	8
 2763      00000000 
 2764              		.weak	_ZZN11BuddySystem11getInstanceEPviE2bs
 2765              		.section	.bss._ZZN11BuddySystem11getInstanceEPviE2bs,"awG",@nobits,_ZZN11BuddySystem11getInstanceE
 2766              		.align	3
 2769              	_ZZN11BuddySystem11getInstanceEPviE2bs:
 2770 0000 00000000 		.zero	344
 2770      00000000 
 2770      00000000 
 2770      00000000 
 2770      00000000 
 2771              		.bss
 2772              		.align	3
 2773              		.set	.LANCHOR0,. + 0
 2776              	_ZN12kmem_cache_s4headE:
 2777 0000 00000000 		.zero	8
 2777      00000000 
GAS LISTING /tmp/ccIKkRbi.s 			page 69


 2778              		.text
 2779              	.Letext0:
 2780              		.file 4 "src/../h/../lib/hw.h"
 2781              		.file 5 "src/../test/../h/syscall_c.h"
 2782              		.file 6 "src/../test/printing.hpp"
 2783              		.file 7 "src/../h/../h/String.h"
GAS LISTING /tmp/ccIKkRbi.s 			page 70

