GAS LISTING /tmp/ccuk26uq.s 			page 1


   1              		.file	"Slab.cpp"
   2              		.option pic
   3              		.option norelax
   4              		.text
   5              	.Ltext0:
   6              		.align	2
   7              		.globl	_ZN12kmem_cache_s16create_free_slabEv
   9              	_ZN12kmem_cache_s16create_free_slabEv:
  10              	.LFB51:
  11              		.file 1 "src/Slab.cpp"
   1:src/Slab.cpp  **** //
   2:src/Slab.cpp  **** // Created by os on 8/18/23.
   3:src/Slab.cpp  **** //
   4:src/Slab.cpp  **** #include "../h/Slab.h"
   5:src/Slab.cpp  **** #include "../test/printing.hpp"
   6:src/Slab.cpp  **** 
   7:src/Slab.cpp  **** kmem_cache_s* kmem_cache_s::head = nullptr;
   8:src/Slab.cpp  **** 
   9:src/Slab.cpp  **** void* kmem_cache_s::kmem_cache_create(const char *name, size_t size, void (*ctor)(void *), void (*d
  10:src/Slab.cpp  **** 
  11:src/Slab.cpp  ****     // check if name already exists in cache list
  12:src/Slab.cpp  ****     for(kmem_cache_s* curr = kmem_cache_s::head; curr; curr = curr->next){
  13:src/Slab.cpp  ****         if(curr->name == name){
  14:src/Slab.cpp  ****             return nullptr;
  15:src/Slab.cpp  ****         }
  16:src/Slab.cpp  ****     }
  17:src/Slab.cpp  **** 
  18:src/Slab.cpp  ****     // assign values
  19:src/Slab.cpp  ****     kmem_cache_s* tmp = (kmem_cache_s*)BuddySystem::getInstance().buddyAlloc(BLOCK_SIZE - sizeof(si
  20:src/Slab.cpp  ****     tmp->name = name;
  21:src/Slab.cpp  ****     tmp->objsize = size;
  22:src/Slab.cpp  ****     tmp->ctor = ctor;
  23:src/Slab.cpp  ****     tmp->dtor = dtor;
  24:src/Slab.cpp  **** 
  25:src/Slab.cpp  ****     // assign default values
  26:src/Slab.cpp  ****     tmp->slabs_full = tmp->slabs_partial = tmp->slabs_free = nullptr;
  27:src/Slab.cpp  ****     tmp->num_slabs_full = tmp->num_slabs_partial = tmp->num_slabs_free = tmp->num_active_obj = tmp-
  28:src/Slab.cpp  ****     tmp->growing = false;
  29:src/Slab.cpp  **** 
  30:src/Slab.cpp  ****     // calc how many blocks one slab should contain
  31:src/Slab.cpp  ****     tmp->size_in_blocks = 1;
  32:src/Slab.cpp  ****     size_t min_size_of_objects = tmp->objsize * NUM_OF_OBJECTS_IN_SLAB;
  33:src/Slab.cpp  ****     size_t min_size_of_arr = 2 * sizeof(size_t);
  34:src/Slab.cpp  ****     // min requirements
  35:src/Slab.cpp  ****     while(tmp->size_in_blocks * BLOCK_SIZE < sizeof(size_t)*2 + sizeof(Slab) + min_size_of_arr + mi
  36:src/Slab.cpp  ****         tmp->size_in_blocks++;
  37:src/Slab.cpp  ****     }
  38:src/Slab.cpp  **** 
  39:src/Slab.cpp  ****     // calc how many objects one slab can contain
  40:src/Slab.cpp  ****     int how_many_objects_into_one_slab = 10;
  41:src/Slab.cpp  ****     int current_size_of_arr = 2;
  42:src/Slab.cpp  ****     while((how_many_objects_into_one_slab + 1) * tmp->objsize <=
  43:src/Slab.cpp  ****             (int)(tmp->size_in_blocks * BLOCK_SIZE - sizeof(size_t)*2 - sizeof(Slab) - current_size
  44:src/Slab.cpp  ****         if(++how_many_objects_into_one_slab % 8 == 0){
  45:src/Slab.cpp  ****             current_size_of_arr++;
  46:src/Slab.cpp  ****         }
  47:src/Slab.cpp  ****     }
GAS LISTING /tmp/ccuk26uq.s 			page 2


  48:src/Slab.cpp  ****     tmp->num = how_many_objects_into_one_slab;
  49:src/Slab.cpp  ****     tmp->size_of_arr = current_size_of_arr;
  50:src/Slab.cpp  **** 
  51:src/Slab.cpp  ****     // creating an empty slab
  52:src/Slab.cpp  ****     tmp->create_free_slab();
  53:src/Slab.cpp  **** 
  54:src/Slab.cpp  ****     // add new cache to cache chain
  55:src/Slab.cpp  ****     tmp->next = kmem_cache_s::head;
  56:src/Slab.cpp  ****     kmem_cache_s::head = tmp;
  57:src/Slab.cpp  **** 
  58:src/Slab.cpp  ****     return (void*)tmp;
  59:src/Slab.cpp  **** }
  60:src/Slab.cpp  **** 
  61:src/Slab.cpp  **** ///
  62:src/Slab.cpp  **** /// \return velicinu za koliko je smanjena memorija (u bajtovima)
  63:src/Slab.cpp  **** size_t kmem_cache_s::kmem_cache_shrink() {
  64:src/Slab.cpp  ****     if(this->growing){
  65:src/Slab.cpp  ****         this->growing = false;
  66:src/Slab.cpp  ****         return 0;
  67:src/Slab.cpp  ****     }
  68:src/Slab.cpp  ****     Slab* curr = this->slabs_free, *prev;
  69:src/Slab.cpp  ****     int cnt = (int)this->num_slabs_free;
  70:src/Slab.cpp  ****     while(curr){
  71:src/Slab.cpp  ****         prev = curr;
  72:src/Slab.cpp  ****         curr = curr->next;
  73:src/Slab.cpp  ****         prev->clear_slab(num, objsize, dtor);
  74:src/Slab.cpp  ****         BuddySystem::getInstance().buddyFree((size_t)prev);
  75:src/Slab.cpp  ****     }
  76:src/Slab.cpp  ****     this->slabs_free = nullptr;
  77:src/Slab.cpp  ****     this->num_slabs_free = 0;
  78:src/Slab.cpp  ****     this->growing = false;
  79:src/Slab.cpp  ****     this->shrink++;
  80:src/Slab.cpp  ****     return cnt * this->size_in_blocks;
  81:src/Slab.cpp  **** }
  82:src/Slab.cpp  **** 
  83:src/Slab.cpp  **** void *kmem_cache_s::kmem_cache_alloc() {
  84:src/Slab.cpp  ****     if(num_slabs_partial != 0){
  85:src/Slab.cpp  ****         void* addr = this->slabs_partial->return_first_free_object_and_rearange_list(this->num, thi
  86:src/Slab.cpp  ****         this->num_active_obj++;
  87:src/Slab.cpp  ****         this->slabs_partial->increment_num_of_active();
  88:src/Slab.cpp  **** 
  89:src/Slab.cpp  ****         if(this->slabs_partial->get_number_of_active_objects() == this->num){
  90:src/Slab.cpp  ****             // move from partial to full
  91:src/Slab.cpp  ****             Slab* tmp = this->slabs_partial;
  92:src/Slab.cpp  ****             this->slabs_partial = this->slabs_partial->next;
  93:src/Slab.cpp  ****             tmp->next = this->slabs_full;
  94:src/Slab.cpp  ****             this->slabs_full = tmp;
  95:src/Slab.cpp  ****             this->num_slabs_partial--;
  96:src/Slab.cpp  ****             this->num_slabs_full++;
  97:src/Slab.cpp  ****         }
  98:src/Slab.cpp  ****         return addr;
  99:src/Slab.cpp  ****     }
 100:src/Slab.cpp  ****     else if(num_slabs_free != 0){
 101:src/Slab.cpp  ****         void* addr1 = this->slabs_free->return_first_free_object_and_rearange_list(this->num, this-
 102:src/Slab.cpp  ****         this->num_active_obj++;
 103:src/Slab.cpp  **** 
 104:src/Slab.cpp  ****         // move from free to partial
GAS LISTING /tmp/ccuk26uq.s 			page 3


 105:src/Slab.cpp  ****         Slab* tmp = this->slabs_free;
 106:src/Slab.cpp  ****         this->slabs_free = this->slabs_free->next;
 107:src/Slab.cpp  ****         tmp->next = this->slabs_partial;
 108:src/Slab.cpp  ****         tmp->increment_num_of_active();
 109:src/Slab.cpp  ****         this->slabs_partial = tmp;
 110:src/Slab.cpp  ****         this->num_slabs_free--;
 111:src/Slab.cpp  ****         this->num_slabs_partial++;
 112:src/Slab.cpp  **** 
 113:src/Slab.cpp  ****         return addr1;
 114:src/Slab.cpp  ****     }
 115:src/Slab.cpp  ****     else{
 116:src/Slab.cpp  ****         // case if we need to expand cache
 117:src/Slab.cpp  ****         create_free_slab();
 118:src/Slab.cpp  ****         this->growing = true;
 119:src/Slab.cpp  ****         return nullptr;
 120:src/Slab.cpp  ****     }
 121:src/Slab.cpp  **** }
 122:src/Slab.cpp  **** 
 123:src/Slab.cpp  **** void kmem_cache_s::create_free_slab() {
  12              		.loc 1 123 39
  13              		.cfi_startproc
  14              	.LVL0:
  15 0000 130101FD 		addi	sp,sp,-48
  16              		.cfi_def_cfa_offset 48
  17 0004 23341102 		sd	ra,40(sp)
  18 0008 23308102 		sd	s0,32(sp)
  19 000c 233C9100 		sd	s1,24(sp)
  20 0010 23382101 		sd	s2,16(sp)
  21 0014 23343101 		sd	s3,8(sp)
  22 0018 23304101 		sd	s4,0(sp)
  23              		.cfi_offset 1, -8
  24              		.cfi_offset 8, -16
  25              		.cfi_offset 9, -24
  26              		.cfi_offset 18, -32
  27              		.cfi_offset 19, -40
  28              		.cfi_offset 20, -48
  29 001c 13040103 		addi	s0,sp,48
  30              		.cfi_def_cfa 8, 0
  31 0020 93040500 		mv	s1,a0
 124:src/Slab.cpp  ****     Slab* tmp = (Slab*)(BuddySystem::getInstance().buddyAlloc(this->num * this->objsize + sizeof(Sl
  32              		.loc 1 124 5
  33              	.LVL1:
  34              	.LBB56:
  35              	.LBB57:
  36              		.file 2 "src/../h/../h/Buddy.h"
   1:src/../h/../h/Buddy.h **** //
   2:src/../h/../h/Buddy.h **** // Created by os on 8/12/23.
   3:src/../h/../h/Buddy.h **** //
   4:src/../h/../h/Buddy.h **** 
   5:src/../h/../h/Buddy.h **** #ifndef PROJECT_BASE_V1_1_BUDDY_H
   6:src/../h/../h/Buddy.h **** #define PROJECT_BASE_V1_1_BUDDY_H
   7:src/../h/../h/Buddy.h **** 
   8:src/../h/../h/Buddy.h **** #include "../lib/hw.h"
   9:src/../h/../h/Buddy.h **** 
  10:src/../h/../h/Buddy.h **** class BuddySystem{
  11:src/../h/../h/Buddy.h **** public:
  12:src/../h/../h/Buddy.h **** 
GAS LISTING /tmp/ccuk26uq.s 			page 4


  13:src/../h/../h/Buddy.h ****     void* buddyAlloc(size_t size);
  14:src/../h/../h/Buddy.h ****     void buddyFree(size_t addr);
  15:src/../h/../h/Buddy.h **** 
  16:src/../h/../h/Buddy.h ****     static BuddySystem& getInstance(void *space = nullptr, int block_num = 0){
  17:src/../h/../h/Buddy.h ****         static BuddySystem bs;
  37              		.loc 2 17 9
  38              		.loc 2 17 28 is_stmt 0
  39 0024 97070000 		lbu	a5,_ZGVZN11BuddySystem11getInstanceEPviE2bs
  39      83C70700 
  40 002c 63880706 		beqz	a5,.L8
  41              	.LVL2:
  42              	.L2:
  18:src/../h/../h/Buddy.h ****         if(block_num != 0 && space != nullptr){
  43              		.loc 2 18 9 is_stmt 1
  19:src/../h/../h/Buddy.h ****             bs.buddyHeapStart = (size_t)space;
  20:src/../h/../h/Buddy.h ****             bs.buddyNumOfBlocks = block_num;
  21:src/../h/../h/Buddy.h ****             bs.initBuddy();
  22:src/../h/../h/Buddy.h ****         }
  23:src/../h/../h/Buddy.h ****         return bs;
  44              		.loc 2 23 9
  45              	.LBE57:
  46              	.LBE56:
  47              		.loc 1 124 81 is_stmt 0
  48 0030 83B50403 		ld	a1,48(s1)
  49              		.loc 1 124 69
  50 0034 83B78403 		ld	a5,56(s1)
  51              		.loc 1 124 104
  52 0038 93851500 		addi	a1,a1,1
  53 003c B385F502 		mul	a1,a1,a5
  54              		.loc 1 124 62
  55 0040 93858501 		addi	a1,a1,24
  56 0044 17050000 		lla	a0,_ZZN11BuddySystem11getInstanceEPviE2bs
  56      13050500 
  57 004c 97000000 		call	_ZN11BuddySystem10buddyAllocEm@plt
  57      E7800000 
  58              	.LVL3:
  59 0054 130A0500 		mv	s4,a0
  60              	.LVL4:
 125:src/Slab.cpp  ****     tmp->num_active = 0;
  61              		.loc 1 125 5 is_stmt 1
  62              		.loc 1 125 21 is_stmt 0
  63 0058 23300500 		sd	zero,0(a0)
 126:src/Slab.cpp  ****     tmp->next = nullptr;
  64              		.loc 1 126 5 is_stmt 1
  65              		.loc 1 126 15 is_stmt 0
  66 005c 23340500 		sd	zero,8(a0)
 127:src/Slab.cpp  ****     this->slabs_free = tmp;
  67              		.loc 1 127 5 is_stmt 1
  68              		.loc 1 127 22 is_stmt 0
  69 0060 23B8A400 		sd	a0,16(s1)
 128:src/Slab.cpp  ****     tmp->first_addr = ((size_t)tmp + sizeof(Slab) + this->size_of_arr * sizeof(size_t));
  70              		.loc 1 128 5 is_stmt 1
  71              		.loc 1 128 59 is_stmt 0
  72 0064 03B90404 		ld	s2,64(s1)
  73              		.loc 1 128 71
  74 0068 13193900 		slli	s2,s2,3
  75              		.loc 1 128 51
GAS LISTING /tmp/ccuk26uq.s 			page 5


  76 006c 33092501 		add	s2,a0,s2
  77 0070 13098901 		addi	s2,s2,24
  78              		.loc 1 128 21
  79 0074 23382501 		sd	s2,16(a0)
 129:src/Slab.cpp  **** 
 130:src/Slab.cpp  ****     for(size_t  i = 0; i < this->size_of_arr; i++){
  80              		.loc 1 130 5 is_stmt 1
  81              	.LVL5:
  82              	.LBB59:
  83              		.loc 1 130 17 is_stmt 0
  84 0078 13070000 		li	a4,0
  85              	.LVL6:
  86              	.L4:
  87              		.loc 1 130 26 is_stmt 1 discriminator 3
  88              		.loc 1 130 34 is_stmt 0 discriminator 3
  89 007c 83B70404 		ld	a5,64(s1)
  90              		.loc 1 130 26 discriminator 3
  91 0080 637EF702 		bleu	a5,a4,.L3
 131:src/Slab.cpp  ****         tmp->free_objects[i] = 0;
  92              		.loc 1 131 9 is_stmt 1 discriminator 2
  93              		.loc 1 131 30 is_stmt 0 discriminator 2
  94 0084 93072700 		addi	a5,a4,2
  95 0088 93973700 		slli	a5,a5,3
  96 008c B307FA00 		add	a5,s4,a5
  97 0090 23B40700 		sd	zero,8(a5)
 130:src/Slab.cpp  ****         tmp->free_objects[i] = 0;
  98              		.loc 1 130 5 is_stmt 1 discriminator 2
  99 0094 13071700 		addi	a4,a4,1
 100              	.LVL7:
 101 0098 6FF05FFE 		j	.L4
 102              	.LVL8:
 103              	.L8:
 104              	.LBE59:
 105              	.LBB60:
 106              	.LBB58:
  17:src/../h/../h/Buddy.h ****         if(block_num != 0 && space != nullptr){
 107              		.loc 2 17 28 is_stmt 0
 108 009c 17050000 		lla	a0,_ZZN11BuddySystem11getInstanceEPviE2bs
 108      13050500 
 109 00a4 97000000 		call	_ZN11BuddySystemC1Ev@plt
 109      E7800000 
 110              	.LVL9:
 111 00ac 93071000 		li	a5,1
 112 00b0 17070000 		sb	a5,_ZGVZN11BuddySystem11getInstanceEPviE2bs,a4
 112      2300F700 
 113 00b8 6FF09FF7 		j	.L2
 114              	.LVL10:
 115              	.L3:
 116              	.LBE58:
 117              	.LBE60:
 132:src/Slab.cpp  ****     }
 133:src/Slab.cpp  **** 
 134:src/Slab.cpp  ****     // initialize slab if there is constructor
 135:src/Slab.cpp  ****     if(this->ctor != nullptr){
 118              		.loc 1 135 5 is_stmt 1
 119              	.LBB61:
 120              		.loc 1 135 14 is_stmt 0
GAS LISTING /tmp/ccuk26uq.s 			page 6


 121 00bc 83B70405 		ld	a5,80(s1)
 122              		.loc 1 135 5
 123 00c0 63860702 		beqz	a5,.L5
 124              	.LBB62:
 125              	.LBB63:
 136:src/Slab.cpp  ****         size_t addr = tmp->first_addr;
 137:src/Slab.cpp  ****         for(size_t i = 0; i < this->num; i++){
 126              		.loc 1 137 20
 127 00c4 93090000 		li	s3,0
 128              	.LVL11:
 129              	.L6:
 130              		.loc 1 137 29 is_stmt 1 discriminator 3
 131              		.loc 1 137 37 is_stmt 0 discriminator 3
 132 00c8 83B78403 		ld	a5,56(s1)
 133              		.loc 1 137 29 discriminator 3
 134 00cc 63F0F902 		bleu	a5,s3,.L5
 138:src/Slab.cpp  ****             this->ctor((void*)addr);
 135              		.loc 1 138 13 is_stmt 1 discriminator 2
 136              		.loc 1 138 19 is_stmt 0 discriminator 2
 137 00d0 83B70405 		ld	a5,80(s1)
 138              		.loc 1 138 23 discriminator 2
 139 00d4 13050900 		mv	a0,s2
 140 00d8 E7800700 		jalr	a5
 141              	.LVL12:
 139:src/Slab.cpp  ****             addr += objsize;
 142              		.loc 1 139 13 is_stmt 1 discriminator 2
 143              		.loc 1 139 21 is_stmt 0 discriminator 2
 144 00dc 83B70403 		ld	a5,48(s1)
 145              		.loc 1 139 18 discriminator 2
 146 00e0 3309F900 		add	s2,s2,a5
 147              	.LVL13:
 137:src/Slab.cpp  ****             this->ctor((void*)addr);
 148              		.loc 1 137 9 is_stmt 1 discriminator 2
 149 00e4 93891900 		addi	s3,s3,1
 150              	.LVL14:
 151 00e8 6FF01FFE 		j	.L6
 152              	.LVL15:
 153              	.L5:
 154              	.LBE63:
 155              	.LBE62:
 156              	.LBE61:
 140:src/Slab.cpp  ****         }
 141:src/Slab.cpp  ****     }
 142:src/Slab.cpp  **** 
 143:src/Slab.cpp  ****     // set free pointer and increment number of free slabs
 144:src/Slab.cpp  ****     this->slabs_free = tmp;
 157              		.loc 1 144 5
 158              		.loc 1 144 22 is_stmt 0
 159 00ec 23B84401 		sd	s4,16(s1)
 145:src/Slab.cpp  ****     this->num_slabs_free++;
 160              		.loc 1 145 5 is_stmt 1
 161              		.loc 1 145 11 is_stmt 0
 162 00f0 83B78402 		ld	a5,40(s1)
 163              		.loc 1 145 25
 164 00f4 93871700 		addi	a5,a5,1
 165 00f8 23B4F402 		sd	a5,40(s1)
 146:src/Slab.cpp  **** }
GAS LISTING /tmp/ccuk26uq.s 			page 7


 166              		.loc 1 146 1
 167 00fc 83308102 		ld	ra,40(sp)
 168              		.cfi_restore 1
 169 0100 03340102 		ld	s0,32(sp)
 170              		.cfi_restore 8
 171              		.cfi_def_cfa 2, 48
 172 0104 83348101 		ld	s1,24(sp)
 173              		.cfi_restore 9
 174              	.LVL16:
 175 0108 03390101 		ld	s2,16(sp)
 176              		.cfi_restore 18
 177 010c 83398100 		ld	s3,8(sp)
 178              		.cfi_restore 19
 179 0110 033A0100 		ld	s4,0(sp)
 180              		.cfi_restore 20
 181              	.LVL17:
 182 0114 13010103 		addi	sp,sp,48
 183              		.cfi_def_cfa_offset 0
 184 0118 67800000 		jr	ra
 185              		.cfi_endproc
 186              	.LFE51:
 188              		.align	2
 189              		.globl	_ZN12kmem_cache_s17kmem_cache_createEPKcmPFvPvES4_
 191              	_ZN12kmem_cache_s17kmem_cache_createEPKcmPFvPvES4_:
 192              	.LFB48:
   9:src/Slab.cpp  **** 
 193              		.loc 1 9 114 is_stmt 1
 194              		.cfi_startproc
 195              	.LVL18:
 196 011c 130101FC 		addi	sp,sp,-64
 197              		.cfi_def_cfa_offset 64
 198 0120 233C1102 		sd	ra,56(sp)
 199 0124 23388102 		sd	s0,48(sp)
 200 0128 23349102 		sd	s1,40(sp)
 201 012c 23302103 		sd	s2,32(sp)
 202 0130 233C3101 		sd	s3,24(sp)
 203 0134 23384101 		sd	s4,16(sp)
 204 0138 23345101 		sd	s5,8(sp)
 205              		.cfi_offset 1, -8
 206              		.cfi_offset 8, -16
 207              		.cfi_offset 9, -24
 208              		.cfi_offset 18, -32
 209              		.cfi_offset 19, -40
 210              		.cfi_offset 20, -48
 211              		.cfi_offset 21, -56
 212 013c 13040104 		addi	s0,sp,64
 213              		.cfi_def_cfa 8, 0
 214 0140 93090500 		mv	s3,a0
 215 0144 13890500 		mv	s2,a1
 216 0148 930A0600 		mv	s5,a2
 217 014c 138A0600 		mv	s4,a3
  12:src/Slab.cpp  ****         if(curr->name == name){
 218              		.loc 1 12 5
 219              	.LBB64:
  12:src/Slab.cpp  ****         if(curr->name == name){
 220              		.loc 1 12 23 is_stmt 0
 221 0150 97070000 		ld	a5,.LANCHOR0
GAS LISTING /tmp/ccuk26uq.s 			page 8


 221      83B70700 
 222              	.LVL19:
 223              	.L12:
  12:src/Slab.cpp  ****         if(curr->name == name){
 224              		.loc 1 12 50 is_stmt 1 discriminator 1
 225 0158 638A0700 		beqz	a5,.L10
  13:src/Slab.cpp  ****             return nullptr;
 226              		.loc 1 13 9
  13:src/Slab.cpp  ****             return nullptr;
 227              		.loc 1 13 18 is_stmt 0
 228 015c 03B70706 		ld	a4,96(a5)
  13:src/Slab.cpp  ****             return nullptr;
 229              		.loc 1 13 9
 230 0160 63083715 		beq	a4,s3,.L18
  12:src/Slab.cpp  ****         if(curr->name == name){
 231              		.loc 1 12 5 is_stmt 1 discriminator 2
  12:src/Slab.cpp  ****         if(curr->name == name){
 232              		.loc 1 12 61 is_stmt 0 discriminator 2
 233 0164 83B78706 		ld	a5,104(a5)
 234              	.LVL20:
  12:src/Slab.cpp  ****         if(curr->name == name){
 235              		.loc 1 12 5 discriminator 2
 236 0168 6FF01FFF 		j	.L12
 237              	.L10:
 238              	.LBE64:
  19:src/Slab.cpp  ****     tmp->name = name;
 239              		.loc 1 19 5 is_stmt 1
 240              	.LVL21:
 241              	.LBB65:
 242              	.LBB66:
  17:src/../h/../h/Buddy.h ****         if(block_num != 0 && space != nullptr){
 243              		.loc 2 17 9
  17:src/../h/../h/Buddy.h ****         if(block_num != 0 && space != nullptr){
 244              		.loc 2 17 28 is_stmt 0
 245 016c 97070000 		lbu	a5,_ZGVZN11BuddySystem11getInstanceEPviE2bs
 245      83C70700 
 246              	.LVL22:
 247 0174 63820708 		beqz	a5,.L21
 248              	.LVL23:
 249              	.L13:
  18:src/../h/../h/Buddy.h ****             bs.buddyHeapStart = (size_t)space;
 250              		.loc 2 18 9 is_stmt 1
 251              		.loc 2 23 9
 252              	.LBE66:
 253              	.LBE65:
  19:src/Slab.cpp  ****     tmp->name = name;
 254              		.loc 1 19 77 is_stmt 0
 255 0178 B7150000 		li	a1,4096
 256 017c 938585FF 		addi	a1,a1,-8
 257 0180 17050000 		lla	a0,_ZZN11BuddySystem11getInstanceEPviE2bs
 257      13050500 
 258 0188 97000000 		call	_ZN11BuddySystem10buddyAllocEm@plt
 258      E7800000 
 259              	.LVL24:
 260 0190 93040500 		mv	s1,a0
 261              	.LVL25:
  20:src/Slab.cpp  ****     tmp->objsize = size;
GAS LISTING /tmp/ccuk26uq.s 			page 9


 262              		.loc 1 20 5 is_stmt 1
  20:src/Slab.cpp  ****     tmp->objsize = size;
 263              		.loc 1 20 15 is_stmt 0
 264 0194 23303507 		sd	s3,96(a0)
  21:src/Slab.cpp  ****     tmp->ctor = ctor;
 265              		.loc 1 21 5 is_stmt 1
  21:src/Slab.cpp  ****     tmp->ctor = ctor;
 266              		.loc 1 21 18 is_stmt 0
 267 0198 23382503 		sd	s2,48(a0)
  22:src/Slab.cpp  ****     tmp->dtor = dtor;
 268              		.loc 1 22 5 is_stmt 1
  22:src/Slab.cpp  ****     tmp->dtor = dtor;
 269              		.loc 1 22 15 is_stmt 0
 270 019c 23385505 		sd	s5,80(a0)
  23:src/Slab.cpp  **** 
 271              		.loc 1 23 5 is_stmt 1
  23:src/Slab.cpp  **** 
 272              		.loc 1 23 15 is_stmt 0
 273 01a0 233C4505 		sd	s4,88(a0)
  26:src/Slab.cpp  ****     tmp->num_slabs_full = tmp->num_slabs_partial = tmp->num_slabs_free = tmp->num_active_obj = tmp-
 274              		.loc 1 26 5 is_stmt 1
  26:src/Slab.cpp  ****     tmp->num_slabs_full = tmp->num_slabs_partial = tmp->num_slabs_free = tmp->num_active_obj = tmp-
 275              		.loc 1 26 60 is_stmt 0
 276 01a4 23380500 		sd	zero,16(a0)
  26:src/Slab.cpp  ****     tmp->num_slabs_full = tmp->num_slabs_partial = tmp->num_slabs_free = tmp->num_active_obj = tmp-
 277              		.loc 1 26 42
 278 01a8 23340500 		sd	zero,8(a0)
  26:src/Slab.cpp  ****     tmp->num_slabs_full = tmp->num_slabs_partial = tmp->num_slabs_free = tmp->num_active_obj = tmp-
 279              		.loc 1 26 21
 280 01ac 23300500 		sd	zero,0(a0)
  27:src/Slab.cpp  ****     tmp->growing = false;
 281              		.loc 1 27 5 is_stmt 1
  27:src/Slab.cpp  ****     tmp->growing = false;
 282              		.loc 1 27 108 is_stmt 0
 283 01b0 23300508 		sd	zero,128(a0)
  27:src/Slab.cpp  ****     tmp->growing = false;
 284              		.loc 1 27 94
 285 01b4 23380506 		sd	zero,112(a0)
  27:src/Slab.cpp  ****     tmp->growing = false;
 286              		.loc 1 27 72
 287 01b8 23340502 		sd	zero,40(a0)
  27:src/Slab.cpp  ****     tmp->growing = false;
 288              		.loc 1 27 50
 289 01bc 23300502 		sd	zero,32(a0)
  27:src/Slab.cpp  ****     tmp->growing = false;
 290              		.loc 1 27 25
 291 01c0 233C0500 		sd	zero,24(a0)
  28:src/Slab.cpp  **** 
 292              		.loc 1 28 5 is_stmt 1
  28:src/Slab.cpp  **** 
 293              		.loc 1 28 18 is_stmt 0
 294 01c4 230C0506 		sb	zero,120(a0)
  31:src/Slab.cpp  ****     size_t min_size_of_objects = tmp->objsize * NUM_OF_OBJECTS_IN_SLAB;
 295              		.loc 1 31 5 is_stmt 1
  31:src/Slab.cpp  ****     size_t min_size_of_objects = tmp->objsize * NUM_OF_OBJECTS_IN_SLAB;
 296              		.loc 1 31 25 is_stmt 0
 297 01c8 93071000 		li	a5,1
GAS LISTING /tmp/ccuk26uq.s 			page 10


 298 01cc 2334F504 		sd	a5,72(a0)
  32:src/Slab.cpp  ****     size_t min_size_of_arr = 2 * sizeof(size_t);
 299              		.loc 1 32 5 is_stmt 1
  32:src/Slab.cpp  ****     size_t min_size_of_arr = 2 * sizeof(size_t);
 300              		.loc 1 32 12 is_stmt 0
 301 01d0 13162900 		slli	a2,s2,2
 302 01d4 33062601 		add	a2,a2,s2
 303 01d8 13161600 		slli	a2,a2,1
 304              	.LVL26:
  33:src/Slab.cpp  ****     // min requirements
 305              		.loc 1 33 5 is_stmt 1
 306              	.L15:
  35:src/Slab.cpp  ****         tmp->size_in_blocks++;
 307              		.loc 1 35 5
  35:src/Slab.cpp  ****         tmp->size_in_blocks++;
 308              		.loc 1 35 44
  35:src/Slab.cpp  ****         tmp->size_in_blocks++;
 309              		.loc 1 35 16 is_stmt 0
 310 01dc 03B78404 		ld	a4,72(s1)
  35:src/Slab.cpp  ****         tmp->size_in_blocks++;
 311              		.loc 1 35 31
 312 01e0 9316C700 		slli	a3,a4,12
  35:src/Slab.cpp  ****         tmp->size_in_blocks++;
 313              		.loc 1 35 96
 314 01e4 93078603 		addi	a5,a2,56
  35:src/Slab.cpp  ****         tmp->size_in_blocks++;
 315              		.loc 1 35 44
 316 01e8 63F6F606 		bgeu	a3,a5,.L19
  36:src/Slab.cpp  ****     }
 317              		.loc 1 36 9 is_stmt 1
  36:src/Slab.cpp  ****     }
 318              		.loc 1 36 28 is_stmt 0
 319 01ec 13071700 		addi	a4,a4,1
 320 01f0 23B4E404 		sd	a4,72(s1)
  35:src/Slab.cpp  ****         tmp->size_in_blocks++;
 321              		.loc 1 35 5
 322 01f4 6FF09FFE 		j	.L15
 323              	.LVL27:
 324              	.L21:
 325              	.LBB68:
 326              	.LBB67:
  17:src/../h/../h/Buddy.h ****         if(block_num != 0 && space != nullptr){
 327              		.loc 2 17 28
 328 01f8 17050000 		lla	a0,_ZZN11BuddySystem11getInstanceEPviE2bs
 328      13050500 
 329              	.LVL28:
 330 0200 97000000 		call	_ZN11BuddySystemC1Ev@plt
 330      E7800000 
 331              	.LVL29:
 332 0208 93071000 		li	a5,1
 333 020c 17070000 		sb	a5,_ZGVZN11BuddySystem11getInstanceEPviE2bs,a4
 333      2300F700 
 334 0214 6FF05FF6 		j	.L13
 335              	.LVL30:
 336              	.L17:
 337              	.LBE67:
 338              	.LBE68:
GAS LISTING /tmp/ccuk26uq.s 			page 11


   9:src/Slab.cpp  **** 
 339              		.loc 1 9 114
 340 0218 13080500 		mv	a6,a0
 341              	.LVL31:
 342              	.L14:
  42:src/Slab.cpp  ****             (int)(tmp->size_in_blocks * BLOCK_SIZE - sizeof(size_t)*2 - sizeof(Slab) - current_size
 343              		.loc 1 42 5 is_stmt 1
  42:src/Slab.cpp  ****             (int)(tmp->size_in_blocks * BLOCK_SIZE - sizeof(size_t)*2 - sizeof(Slab) - current_size
 344              		.loc 1 42 63
  42:src/Slab.cpp  ****             (int)(tmp->size_in_blocks * BLOCK_SIZE - sizeof(size_t)*2 - sizeof(Slab) - current_size
 345              		.loc 1 42 43 is_stmt 0
 346 021c 9B061800 		addiw	a3,a6,1
 347 0220 1B850600 		sext.w	a0,a3
  42:src/Slab.cpp  ****             (int)(tmp->size_in_blocks * BLOCK_SIZE - sizeof(size_t)*2 - sizeof(Slab) - current_size
 348              		.loc 1 42 48
 349 0224 B3082503 		mul	a7,a0,s2
  43:src/Slab.cpp  ****         if(++how_many_objects_into_one_slab % 8 == 0){
 350              		.loc 1 43 86
 351 0228 93179700 		slli	a5,a4,9
 352 022c B387B740 		sub	a5,a5,a1
 353 0230 37060020 		li	a2,536870912
 354 0234 1B06B6FF 		addiw	a2,a2,-5
 355 0238 BB87C700 		addw	a5,a5,a2
 356 023c 9B973700 		slliw	a5,a5,3
  42:src/Slab.cpp  ****             (int)(tmp->size_in_blocks * BLOCK_SIZE - sizeof(size_t)*2 - sizeof(Slab) - current_size
 357              		.loc 1 42 63
 358 0240 63E01703 		bgtu	a7,a5,.L16
  44:src/Slab.cpp  ****             current_size_of_arr++;
 359              		.loc 1 44 9 is_stmt 1
 360              	.LVL32:
  44:src/Slab.cpp  ****             current_size_of_arr++;
 361              		.loc 1 44 49 is_stmt 0
 362 0244 93F67600 		andi	a3,a3,7
 363              	.LVL33:
  44:src/Slab.cpp  ****             current_size_of_arr++;
 364              		.loc 1 44 9
 365 0248 E39806FC 		bnez	a3,.L17
  45:src/Slab.cpp  ****         }
 366              		.loc 1 45 13 is_stmt 1
  45:src/Slab.cpp  ****         }
 367              		.loc 1 45 32 is_stmt 0
 368 024c 9B851500 		addiw	a1,a1,1
 369              	.LVL34:
 370 0250 6FF09FFC 		j	.L17
 371              	.LVL35:
 372              	.L19:
  41:src/Slab.cpp  ****     while((how_many_objects_into_one_slab + 1) * tmp->objsize <=
 373              		.loc 1 41 9
 374 0254 93052000 		li	a1,2
  40:src/Slab.cpp  ****     int current_size_of_arr = 2;
 375              		.loc 1 40 9
 376 0258 1308A000 		li	a6,10
 377 025c 6FF01FFC 		j	.L14
 378              	.LVL36:
 379              	.L16:
  48:src/Slab.cpp  ****     tmp->size_of_arr = current_size_of_arr;
 380              		.loc 1 48 5 is_stmt 1
GAS LISTING /tmp/ccuk26uq.s 			page 12


  48:src/Slab.cpp  ****     tmp->size_of_arr = current_size_of_arr;
 381              		.loc 1 48 14 is_stmt 0
 382 0260 23BC0403 		sd	a6,56(s1)
  49:src/Slab.cpp  **** 
 383              		.loc 1 49 5 is_stmt 1
  49:src/Slab.cpp  **** 
 384              		.loc 1 49 22 is_stmt 0
 385 0264 23B0B404 		sd	a1,64(s1)
  52:src/Slab.cpp  **** 
 386              		.loc 1 52 5 is_stmt 1
  52:src/Slab.cpp  **** 
 387              		.loc 1 52 26 is_stmt 0
 388 0268 13850400 		mv	a0,s1
 389 026c 97000000 		call	_ZN12kmem_cache_s16create_free_slabEv
 389      E7800000 
 390              	.LVL37:
  55:src/Slab.cpp  ****     kmem_cache_s::head = tmp;
 391              		.loc 1 55 5 is_stmt 1
  55:src/Slab.cpp  ****     kmem_cache_s::head = tmp;
 392              		.loc 1 55 15 is_stmt 0
 393 0274 97070000 		lla	a5,.LANCHOR0
 393      93870700 
 394 027c 03B70700 		ld	a4,0(a5)
 395 0280 23B4E406 		sd	a4,104(s1)
  56:src/Slab.cpp  **** 
 396              		.loc 1 56 5 is_stmt 1
  56:src/Slab.cpp  **** 
 397              		.loc 1 56 24 is_stmt 0
 398 0284 23B09700 		sd	s1,0(a5)
  58:src/Slab.cpp  **** }
 399              		.loc 1 58 5 is_stmt 1
 400              	.LVL38:
 401              	.L9:
  59:src/Slab.cpp  **** 
 402              		.loc 1 59 1 is_stmt 0
 403 0288 13850400 		mv	a0,s1
 404 028c 83308103 		ld	ra,56(sp)
 405              		.cfi_remember_state
 406              		.cfi_restore 1
 407 0290 03340103 		ld	s0,48(sp)
 408              		.cfi_restore 8
 409              		.cfi_def_cfa 2, 64
 410 0294 83348102 		ld	s1,40(sp)
 411              		.cfi_restore 9
 412 0298 03390102 		ld	s2,32(sp)
 413              		.cfi_restore 18
 414              	.LVL39:
 415 029c 83398101 		ld	s3,24(sp)
 416              		.cfi_restore 19
 417              	.LVL40:
 418 02a0 033A0101 		ld	s4,16(sp)
 419              		.cfi_restore 20
 420              	.LVL41:
 421 02a4 833A8100 		ld	s5,8(sp)
 422              		.cfi_restore 21
 423              	.LVL42:
 424 02a8 13010104 		addi	sp,sp,64
GAS LISTING /tmp/ccuk26uq.s 			page 13


 425              		.cfi_def_cfa_offset 0
 426 02ac 67800000 		jr	ra
 427              	.LVL43:
 428              	.L18:
 429              		.cfi_restore_state
 430              	.LBB69:
  14:src/Slab.cpp  ****         }
 431              		.loc 1 14 20
 432 02b0 93040000 		li	s1,0
 433 02b4 6FF05FFD 		j	.L9
 434              	.LBE69:
 435              		.cfi_endproc
 436              	.LFE48:
 438              		.align	2
 439              		.globl	_ZN4Slab8set_maskEib
 441              	_ZN4Slab8set_maskEib:
 442              	.LFB52:
 147:src/Slab.cpp  **** 
 148:src/Slab.cpp  **** void Slab::set_mask(int position,  bool flag){
 443              		.loc 1 148 46 is_stmt 1
 444              		.cfi_startproc
 445              	.LVL44:
 446 02b8 130101FF 		addi	sp,sp,-16
 447              		.cfi_def_cfa_offset 16
 448 02bc 23348100 		sd	s0,8(sp)
 449              		.cfi_offset 8, -8
 450 02c0 13040101 		addi	s0,sp,16
 451              		.cfi_def_cfa 8, 0
 149:src/Slab.cpp  ****     int pos = position / sizeof(size_t);
 452              		.loc 1 149 5
 453              		.loc 1 149 9 is_stmt 0
 454 02c4 13D83540 		srai	a6,a1,3
 455              	.LVL45:
 150:src/Slab.cpp  ****     int relative_pos = position % sizeof(size_t);
 456              		.loc 1 150 5 is_stmt 1
 457              		.loc 1 150 9 is_stmt 0
 458 02c8 93F57500 		andi	a1,a1,7
 459              	.LVL46:
 151:src/Slab.cpp  ****     size_t mask = 1;
 460              		.loc 1 151 5 is_stmt 1
 152:src/Slab.cpp  ****     for(int i = 0; i < sizeof(size_t) - relative_pos - 1; i++){
 461              		.loc 1 152 5
 462              	.LBB70:
 463              		.loc 1 152 13 is_stmt 0
 464 02cc 13070000 		li	a4,0
 465              	.LBE70:
 151:src/Slab.cpp  ****     size_t mask = 1;
 466              		.loc 1 151 12
 467 02d0 93061000 		li	a3,1
 468              	.LVL47:
 469              	.L24:
 470              	.LBB71:
 471              		.loc 1 152 22 is_stmt 1 discriminator 3
 472              		.loc 1 152 54 is_stmt 0 discriminator 3
 473 02d4 93077000 		li	a5,7
 474 02d8 B387B740 		sub	a5,a5,a1
 475              		.loc 1 152 22 discriminator 3
GAS LISTING /tmp/ccuk26uq.s 			page 14


 476 02dc 6378F700 		bgeu	a4,a5,.L23
 153:src/Slab.cpp  ****         mask <<= 1;
 477              		.loc 1 153 9 is_stmt 1 discriminator 2
 478              		.loc 1 153 14 is_stmt 0 discriminator 2
 479 02e0 93961600 		slli	a3,a3,1
 480              	.LVL48:
 152:src/Slab.cpp  ****     for(int i = 0; i < sizeof(size_t) - relative_pos - 1; i++){
 481              		.loc 1 152 5 is_stmt 1 discriminator 2
 482 02e4 1B071700 		addiw	a4,a4,1
 483              	.LVL49:
 484 02e8 6FF0DFFE 		j	.L24
 485              	.LVL50:
 486              	.L23:
 487              	.LBE71:
 154:src/Slab.cpp  ****     }
 155:src/Slab.cpp  ****     if(flag){
 488              		.loc 1 155 5
 489 02ec 63040602 		beqz	a2,.L25
 156:src/Slab.cpp  ****         // setujemo bit na jedan
 157:src/Slab.cpp  ****         this->free_objects[pos] |= mask;
 490              		.loc 1 157 9
 491              		.loc 1 157 33 is_stmt 0
 492 02f0 13082800 		addi	a6,a6,2
 493              	.LVL51:
 494 02f4 13183800 		slli	a6,a6,3
 495              	.LVL52:
 496 02f8 33050501 		add	a0,a0,a6
 497              	.LVL53:
 498 02fc 83378500 		ld	a5,8(a0)
 499 0300 B3E6D700 		or	a3,a5,a3
 500              	.LVL54:
 501 0304 2334D500 		sd	a3,8(a0)
 502              	.L22:
 158:src/Slab.cpp  ****     }else{
 159:src/Slab.cpp  ****         // setujemo bit na nula
 160:src/Slab.cpp  ****         mask = ~mask;
 161:src/Slab.cpp  ****         this->free_objects[pos] &= mask;
 162:src/Slab.cpp  ****     }
 163:src/Slab.cpp  ****     return;
 164:src/Slab.cpp  **** }
 503              		.loc 1 164 1
 504 0308 03348100 		ld	s0,8(sp)
 505              		.cfi_remember_state
 506              		.cfi_restore 8
 507              		.cfi_def_cfa 2, 16
 508 030c 13010101 		addi	sp,sp,16
 509              		.cfi_def_cfa_offset 0
 510 0310 67800000 		jr	ra
 511              	.LVL55:
 512              	.L25:
 513              		.cfi_restore_state
 160:src/Slab.cpp  ****         this->free_objects[pos] &= mask;
 514              		.loc 1 160 9 is_stmt 1
 160:src/Slab.cpp  ****         this->free_objects[pos] &= mask;
 515              		.loc 1 160 14 is_stmt 0
 516 0314 93C6F6FF 		not	a3,a3
 517              	.LVL56:
GAS LISTING /tmp/ccuk26uq.s 			page 15


 161:src/Slab.cpp  ****     }
 518              		.loc 1 161 9 is_stmt 1
 161:src/Slab.cpp  ****     }
 519              		.loc 1 161 33 is_stmt 0
 520 0318 13082800 		addi	a6,a6,2
 521              	.LVL57:
 522 031c 13183800 		slli	a6,a6,3
 523              	.LVL58:
 524 0320 33050501 		add	a0,a0,a6
 525              	.LVL59:
 526 0324 83378500 		ld	a5,8(a0)
 527 0328 B3F6D700 		and	a3,a5,a3
 528              	.LVL60:
 529 032c 2334D500 		sd	a3,8(a0)
 163:src/Slab.cpp  **** }
 530              		.loc 1 163 5 is_stmt 1
 531 0330 6FF09FFD 		j	.L22
 532              		.cfi_endproc
 533              	.LFE52:
 535              		.align	2
 536              		.globl	_ZN4Slab9is_activeEi
 538              	_ZN4Slab9is_activeEi:
 539              	.LFB53:
 165:src/Slab.cpp  **** 
 166:src/Slab.cpp  **** bool Slab::is_active(int position){
 540              		.loc 1 166 35
 541              		.cfi_startproc
 542              	.LVL61:
 543 0334 130101FF 		addi	sp,sp,-16
 544              		.cfi_def_cfa_offset 16
 545 0338 23348100 		sd	s0,8(sp)
 546              		.cfi_offset 8, -8
 547 033c 13040101 		addi	s0,sp,16
 548              		.cfi_def_cfa 8, 0
 167:src/Slab.cpp  ****     int pos = position / sizeof(size_t);
 549              		.loc 1 167 5
 550              		.loc 1 167 9 is_stmt 0
 551 0340 13D63540 		srai	a2,a1,3
 552              	.LVL62:
 168:src/Slab.cpp  ****     int relative_pos = position % sizeof(size_t);
 553              		.loc 1 168 5 is_stmt 1
 554              		.loc 1 168 9 is_stmt 0
 555 0344 93F57500 		andi	a1,a1,7
 556              	.LVL63:
 169:src/Slab.cpp  ****     size_t mask = 1;
 557              		.loc 1 169 5 is_stmt 1
 170:src/Slab.cpp  ****     for(int i = 0; i < sizeof(size_t) - relative_pos - 1; i++){
 558              		.loc 1 170 5
 559              	.LBB72:
 560              		.loc 1 170 13 is_stmt 0
 561 0348 13070000 		li	a4,0
 562              	.LBE72:
 169:src/Slab.cpp  ****     size_t mask = 1;
 563              		.loc 1 169 12
 564 034c 93061000 		li	a3,1
 565              	.LVL64:
 566              	.L30:
GAS LISTING /tmp/ccuk26uq.s 			page 16


 567              	.LBB73:
 568              		.loc 1 170 22 is_stmt 1 discriminator 3
 569              		.loc 1 170 54 is_stmt 0 discriminator 3
 570 0350 93077000 		li	a5,7
 571 0354 B387B740 		sub	a5,a5,a1
 572              		.loc 1 170 22 discriminator 3
 573 0358 6378F700 		bgeu	a4,a5,.L29
 171:src/Slab.cpp  ****         mask <<= 1;
 574              		.loc 1 171 9 is_stmt 1 discriminator 2
 575              		.loc 1 171 14 is_stmt 0 discriminator 2
 576 035c 93961600 		slli	a3,a3,1
 577              	.LVL65:
 170:src/Slab.cpp  ****     for(int i = 0; i < sizeof(size_t) - relative_pos - 1; i++){
 578              		.loc 1 170 5 is_stmt 1 discriminator 2
 579 0360 1B071700 		addiw	a4,a4,1
 580              	.LVL66:
 581 0364 6FF0DFFE 		j	.L30
 582              	.LVL67:
 583              	.L29:
 584              	.LBE73:
 172:src/Slab.cpp  ****     }
 173:src/Slab.cpp  ****     return this->free_objects[pos] & mask;
 585              		.loc 1 173 5
 586              		.loc 1 173 34 is_stmt 0
 587 0368 93072600 		addi	a5,a2,2
 588 036c 93973700 		slli	a5,a5,3
 589 0370 3305F500 		add	a0,a0,a5
 590              	.LVL68:
 591 0374 03358500 		ld	a0,8(a0)
 592              		.loc 1 173 36
 593 0378 3375D500 		and	a0,a0,a3
 174:src/Slab.cpp  **** }
 594              		.loc 1 174 1
 595 037c 3335A000 		snez	a0,a0
 596 0380 03348100 		ld	s0,8(sp)
 597              		.cfi_restore 8
 598              		.cfi_def_cfa 2, 16
 599 0384 13010101 		addi	sp,sp,16
 600              		.cfi_def_cfa_offset 0
 601 0388 67800000 		jr	ra
 602              		.cfi_endproc
 603              	.LFE53:
 605              		.align	2
 606              		.globl	_ZN12kmem_cache_s15kmem_cache_freeEPv
 608              	_ZN12kmem_cache_s15kmem_cache_freeEPv:
 609              	.LFB54:
 175:src/Slab.cpp  **** 
 176:src/Slab.cpp  **** // returns -1 if object not found and 0 if removal is completed
 177:src/Slab.cpp  **** int kmem_cache_s::kmem_cache_free(void *objp) {
 610              		.loc 1 177 47 is_stmt 1
 611              		.cfi_startproc
 612              	.LVL69:
 613 038c 130101FD 		addi	sp,sp,-48
 614              		.cfi_def_cfa_offset 48
 615 0390 23341102 		sd	ra,40(sp)
 616 0394 23308102 		sd	s0,32(sp)
 617 0398 233C9100 		sd	s1,24(sp)
GAS LISTING /tmp/ccuk26uq.s 			page 17


 618 039c 23382101 		sd	s2,16(sp)
 619 03a0 23343101 		sd	s3,8(sp)
 620 03a4 23304101 		sd	s4,0(sp)
 621              		.cfi_offset 1, -8
 622              		.cfi_offset 8, -16
 623              		.cfi_offset 9, -24
 624              		.cfi_offset 18, -32
 625              		.cfi_offset 19, -40
 626              		.cfi_offset 20, -48
 627 03a8 13040103 		addi	s0,sp,48
 628              		.cfi_def_cfa 8, 0
 629 03ac 130A0500 		mv	s4,a0
 630 03b0 93890500 		mv	s3,a1
 178:src/Slab.cpp  ****     // check firstly in partial
 179:src/Slab.cpp  ****     Slab* prev = nullptr;
 631              		.loc 1 179 5
 632              	.LVL70:
 180:src/Slab.cpp  ****     for(Slab* tmp = this->slabs_partial; tmp; tmp = tmp->next){
 633              		.loc 1 180 5
 634              	.LBB74:
 635              		.loc 1 180 15 is_stmt 0
 636 03b4 83348500 		ld	s1,8(a0)
 637              	.LVL71:
 638              	.LBE74:
 179:src/Slab.cpp  ****     for(Slab* tmp = this->slabs_partial; tmp; tmp = tmp->next){
 639              		.loc 1 179 11
 640 03b8 13090000 		li	s2,0
 641 03bc 6F008001 		j	.L41
 642              	.LVL72:
 643              	.L38:
 644              	.LBB87:
 645              	.LBB75:
 646              	.LBB76:
 647              	.LBB77:
 181:src/Slab.cpp  ****         if((size_t)objp > (size_t)tmp &&
 182:src/Slab.cpp  ****         (size_t)objp < (size_t)tmp + this->size_in_blocks * BLOCK_SIZE - sizeof(size_t)){
 183:src/Slab.cpp  ****             size_t position = (((size_t)objp - (size_t)tmp->first_addr)) / (size_t)this->objsize;
 184:src/Slab.cpp  ****             tmp->set_mask(position, false);
 185:src/Slab.cpp  ****             if(this->dtor){
 186:src/Slab.cpp  ****                 this->dtor(objp);
 187:src/Slab.cpp  ****             }
 188:src/Slab.cpp  ****             if(this->ctor){
 189:src/Slab.cpp  ****                 this->ctor(objp);
 190:src/Slab.cpp  ****             }
 191:src/Slab.cpp  **** 
 192:src/Slab.cpp  ****             this->num_active_obj--;
 193:src/Slab.cpp  ****             tmp->decrement_num_of_active();
 194:src/Slab.cpp  ****             size_t number_of_active = tmp->get_number_of_active_objects();
 195:src/Slab.cpp  ****             if(number_of_active == 0){
 196:src/Slab.cpp  ****                 // move from partial to free
 197:src/Slab.cpp  ****                 if(prev)prev->next = tmp->next;
 198:src/Slab.cpp  ****                 else slabs_partial = tmp->next;
 648              		.loc 1 198 22 is_stmt 1
 649              		.loc 1 198 43 is_stmt 0
 650 03c0 83B78400 		ld	a5,8(s1)
 651              	.LVL73:
 652              		.loc 1 198 36
GAS LISTING /tmp/ccuk26uq.s 			page 18


 653 03c4 2334FA00 		sd	a5,8(s4)
 654              	.LVL74:
 655 03c8 6F004009 		j	.L39
 656              	.LVL75:
 657              	.L34:
 658              	.LBE77:
 659              	.LBE76:
 199:src/Slab.cpp  ****                 tmp->next = this->slabs_free;
 200:src/Slab.cpp  ****                 this->slabs_free = tmp;
 201:src/Slab.cpp  ****                 this->num_slabs_partial--;
 202:src/Slab.cpp  ****                 this->num_slabs_free++;
 203:src/Slab.cpp  ****             }
 204:src/Slab.cpp  ****             return 0;
 205:src/Slab.cpp  ****         }
 206:src/Slab.cpp  ****         prev = tmp;
 660              		.loc 1 206 9 is_stmt 1 discriminator 2
 661              	.LBE75:
 180:src/Slab.cpp  ****         if((size_t)objp > (size_t)tmp &&
 662              		.loc 1 180 5 discriminator 2
 663              	.LBB84:
 664              		.loc 1 206 14 is_stmt 0 discriminator 2
 665 03cc 13890400 		mv	s2,s1
 666              	.LBE84:
 180:src/Slab.cpp  ****         if((size_t)objp > (size_t)tmp &&
 667              		.loc 1 180 51 discriminator 2
 668 03d0 83B48400 		ld	s1,8(s1)
 669              	.LVL76:
 670              	.L41:
 180:src/Slab.cpp  ****         if((size_t)objp > (size_t)tmp &&
 671              		.loc 1 180 42 is_stmt 1 discriminator 1
 672 03d4 638A040A 		beqz	s1,.L33
 673              	.LBB85:
 181:src/Slab.cpp  ****         if((size_t)objp > (size_t)tmp &&
 674              		.loc 1 181 9
 675              	.LBB82:
 676 03d8 E3FA34FF 		bleu	s3,s1,.L34
 182:src/Slab.cpp  ****             size_t position = (((size_t)objp - (size_t)tmp->first_addr)) / (size_t)this->objsize;
 677              		.loc 1 182 44 is_stmt 0 discriminator 1
 678 03dc 83378A04 		ld	a5,72(s4)
 182:src/Slab.cpp  ****             size_t position = (((size_t)objp - (size_t)tmp->first_addr)) / (size_t)this->objsize;
 679              		.loc 1 182 59 discriminator 1
 680 03e0 9397C700 		slli	a5,a5,12
 182:src/Slab.cpp  ****             size_t position = (((size_t)objp - (size_t)tmp->first_addr)) / (size_t)this->objsize;
 681              		.loc 1 182 36 discriminator 1
 682 03e4 B387F400 		add	a5,s1,a5
 182:src/Slab.cpp  ****             size_t position = (((size_t)objp - (size_t)tmp->first_addr)) / (size_t)this->objsize;
 683              		.loc 1 182 72 discriminator 1
 684 03e8 938787FF 		addi	a5,a5,-8
 181:src/Slab.cpp  ****         (size_t)objp < (size_t)tmp + this->size_in_blocks * BLOCK_SIZE - sizeof(size_t)){
 685              		.loc 1 181 39 discriminator 1
 686 03ec E3F0F9FE 		bgeu	s3,a5,.L34
 687              	.LBB80:
 183:src/Slab.cpp  ****             tmp->set_mask(position, false);
 688              		.loc 1 183 13 is_stmt 1
 183:src/Slab.cpp  ****             tmp->set_mask(position, false);
 689              		.loc 1 183 61 is_stmt 0
 690 03f0 83B50401 		ld	a1,16(s1)
GAS LISTING /tmp/ccuk26uq.s 			page 19


 691              	.LVL77:
 183:src/Slab.cpp  ****             tmp->set_mask(position, false);
 692              		.loc 1 183 46
 693 03f4 3387B940 		sub	a4,s3,a1
 183:src/Slab.cpp  ****             tmp->set_mask(position, false);
 694              		.loc 1 183 90
 695 03f8 83350A03 		ld	a1,48(s4)
 183:src/Slab.cpp  ****             tmp->set_mask(position, false);
 696              		.loc 1 183 20
 697 03fc B355B702 		divu	a1,a4,a1
 698              	.LVL78:
 184:src/Slab.cpp  ****             if(this->dtor){
 699              		.loc 1 184 13 is_stmt 1
 184:src/Slab.cpp  ****             if(this->dtor){
 700              		.loc 1 184 26 is_stmt 0
 701 0400 13060000 		li	a2,0
 702 0404 9B850500 		sext.w	a1,a1
 703              	.LVL79:
 704 0408 13850400 		mv	a0,s1
 705              	.LVL80:
 706 040c 97000000 		call	_ZN4Slab8set_maskEib
 706      E7800000 
 707              	.LVL81:
 185:src/Slab.cpp  ****                 this->dtor(objp);
 708              		.loc 1 185 13 is_stmt 1
 185:src/Slab.cpp  ****                 this->dtor(objp);
 709              		.loc 1 185 22 is_stmt 0
 710 0414 83378A05 		ld	a5,88(s4)
 185:src/Slab.cpp  ****                 this->dtor(objp);
 711              		.loc 1 185 13
 712 0418 63860700 		beqz	a5,.L35
 186:src/Slab.cpp  ****             }
 713              		.loc 1 186 17 is_stmt 1
 186:src/Slab.cpp  ****             }
 714              		.loc 1 186 27 is_stmt 0
 715 041c 13850900 		mv	a0,s3
 716 0420 E7800700 		jalr	a5
 717              	.LVL82:
 718              	.L35:
 188:src/Slab.cpp  ****                 this->ctor(objp);
 719              		.loc 1 188 13 is_stmt 1
 188:src/Slab.cpp  ****                 this->ctor(objp);
 720              		.loc 1 188 22 is_stmt 0
 721 0424 83370A05 		ld	a5,80(s4)
 188:src/Slab.cpp  ****                 this->ctor(objp);
 722              		.loc 1 188 13
 723 0428 63860700 		beqz	a5,.L36
 189:src/Slab.cpp  ****             }
 724              		.loc 1 189 17 is_stmt 1
 189:src/Slab.cpp  ****             }
 725              		.loc 1 189 27 is_stmt 0
 726 042c 13850900 		mv	a0,s3
 727 0430 E7800700 		jalr	a5
 728              	.LVL83:
 729              	.L36:
 192:src/Slab.cpp  ****             tmp->decrement_num_of_active();
 730              		.loc 1 192 13 is_stmt 1
GAS LISTING /tmp/ccuk26uq.s 			page 20


 192:src/Slab.cpp  ****             tmp->decrement_num_of_active();
 731              		.loc 1 192 19 is_stmt 0
 732 0434 83370A07 		ld	a5,112(s4)
 192:src/Slab.cpp  ****             tmp->decrement_num_of_active();
 733              		.loc 1 192 33
 734 0438 9387F7FF 		addi	a5,a5,-1
 735 043c 2338FA06 		sd	a5,112(s4)
 193:src/Slab.cpp  ****             size_t number_of_active = tmp->get_number_of_active_objects();
 736              		.loc 1 193 13 is_stmt 1
 737              	.LVL84:
 738              	.LBB78:
 739              	.LBB79:
 740              		.file 3 "src/../h/Slab.h"
   1:src/../h/Slab.h **** 
   2:src/../h/Slab.h **** #include "../lib/hw.h"
   3:src/../h/Slab.h **** #include "../h/Buddy.h"
   4:src/../h/Slab.h **** #include "../h/String.h"
   5:src/../h/Slab.h **** 
   6:src/../h/Slab.h **** struct Slab{
   7:src/../h/Slab.h **** private:
   8:src/../h/Slab.h ****     friend struct kmem_cache_s;
   9:src/../h/Slab.h ****     size_t num_active = 0; // number of active objects in slab
  10:src/../h/Slab.h ****     Slab* next = nullptr; // next slab
  11:src/../h/Slab.h ****     size_t first_addr;
  12:src/../h/Slab.h ****     size_t free_objects[];
  13:src/../h/Slab.h **** 
  14:src/../h/Slab.h **** public:
  15:src/../h/Slab.h ****     void clear_slab(int num_of_objects_in_slab, int objsize, void (*dtor)(void *));
  16:src/../h/Slab.h ****     size_t get_number_of_active_objects(){return num_active;}
  17:src/../h/Slab.h ****     void* return_first_free_object_and_rearange_list(int, int);
  18:src/../h/Slab.h ****     void increment_num_of_active(){num_active++;}
  19:src/../h/Slab.h ****     void decrement_num_of_active(){num_active--;}
 741              		.loc 3 19 36
 742 0440 83B70400 		ld	a5,0(s1)
 743              		.loc 3 19 46 is_stmt 0
 744 0444 9387F7FF 		addi	a5,a5,-1
 745 0448 23B0F400 		sd	a5,0(s1)
 746              	.LVL85:
 747              	.LBE79:
 748              	.LBE78:
 194:src/Slab.cpp  ****             if(number_of_active == 0){
 749              		.loc 1 194 13 is_stmt 1
 750              	.LBE80:
 751              	.LBE82:
 752              	.LBE85:
 753              	.LBE87:
  16:src/../h/Slab.h ****     void* return_first_free_object_and_rearange_list(int, int);
 754              		.loc 3 16 43
 755              	.LBB88:
 756              	.LBB86:
 757              	.LBB83:
 758              	.LBB81:
 195:src/Slab.cpp  ****                 // move from partial to free
 759              		.loc 1 195 13
 760 044c 639A0702 		bnez	a5,.L37
 197:src/Slab.cpp  ****                 else slabs_partial = tmp->next;
 761              		.loc 1 197 17
GAS LISTING /tmp/ccuk26uq.s 			page 21


 762 0450 E30809F6 		beqz	s2,.L38
 197:src/Slab.cpp  ****                 else slabs_partial = tmp->next;
 763              		.loc 1 197 25 discriminator 1
 197:src/Slab.cpp  ****                 else slabs_partial = tmp->next;
 764              		.loc 1 197 43 is_stmt 0 discriminator 1
 765 0454 83B78400 		ld	a5,8(s1)
 766              	.LVL86:
 197:src/Slab.cpp  ****                 else slabs_partial = tmp->next;
 767              		.loc 1 197 36 discriminator 1
 768 0458 2334F900 		sd	a5,8(s2)
 769              	.LVL87:
 770              	.L39:
 199:src/Slab.cpp  ****                 this->slabs_free = tmp;
 771              		.loc 1 199 17 is_stmt 1
 199:src/Slab.cpp  ****                 this->slabs_free = tmp;
 772              		.loc 1 199 35 is_stmt 0
 773 045c 83370A01 		ld	a5,16(s4)
 199:src/Slab.cpp  ****                 this->slabs_free = tmp;
 774              		.loc 1 199 27
 775 0460 23B4F400 		sd	a5,8(s1)
 200:src/Slab.cpp  ****                 this->num_slabs_partial--;
 776              		.loc 1 200 17 is_stmt 1
 200:src/Slab.cpp  ****                 this->num_slabs_partial--;
 777              		.loc 1 200 34 is_stmt 0
 778 0464 23389A00 		sd	s1,16(s4)
 201:src/Slab.cpp  ****                 this->num_slabs_free++;
 779              		.loc 1 201 17 is_stmt 1
 201:src/Slab.cpp  ****                 this->num_slabs_free++;
 780              		.loc 1 201 23 is_stmt 0
 781 0468 83370A02 		ld	a5,32(s4)
 201:src/Slab.cpp  ****                 this->num_slabs_free++;
 782              		.loc 1 201 40
 783 046c 9387F7FF 		addi	a5,a5,-1
 784 0470 2330FA02 		sd	a5,32(s4)
 202:src/Slab.cpp  ****             }
 785              		.loc 1 202 17 is_stmt 1
 202:src/Slab.cpp  ****             }
 786              		.loc 1 202 23 is_stmt 0
 787 0474 83378A02 		ld	a5,40(s4)
 202:src/Slab.cpp  ****             }
 788              		.loc 1 202 37
 789 0478 93871700 		addi	a5,a5,1
 790 047c 2334FA02 		sd	a5,40(s4)
 791              	.L37:
 204:src/Slab.cpp  ****         }
 792              		.loc 1 204 13 is_stmt 1
 204:src/Slab.cpp  ****         }
 793              		.loc 1 204 20 is_stmt 0
 794 0480 13050000 		li	a0,0
 795 0484 6F00400D 		j	.L40
 796              	.LVL88:
 797              	.L33:
 798              	.LBE81:
 799              	.LBE83:
 800              	.LBE86:
 801              	.LBE88:
 207:src/Slab.cpp  ****     }
GAS LISTING /tmp/ccuk26uq.s 			page 22


 208:src/Slab.cpp  ****     // check in full
 209:src/Slab.cpp  ****     prev = nullptr;
 802              		.loc 1 209 5 is_stmt 1
 210:src/Slab.cpp  ****     for(Slab* tmp = this->slabs_full; tmp; tmp = tmp->next){
 803              		.loc 1 210 5
 804              	.LBB89:
 805              		.loc 1 210 15 is_stmt 0
 806 0488 03390A00 		ld	s2,0(s4)
 807              	.LVL89:
 808 048c 6F008001 		j	.L47
 809              	.LVL90:
 810              	.L45:
 811              	.LBB90:
 812              	.LBB91:
 813              	.LBB92:
 211:src/Slab.cpp  ****         if((size_t)objp > (size_t)tmp &&
 212:src/Slab.cpp  ****            (size_t)objp < (size_t)tmp + this->size_in_blocks * BLOCK_SIZE - sizeof(size_t)){
 213:src/Slab.cpp  ****             size_t position = (((size_t)objp - (size_t)tmp->first_addr)) / (size_t)this->objsize;
 214:src/Slab.cpp  ****             tmp->set_mask(position, false);
 215:src/Slab.cpp  ****             if(this->dtor){
 216:src/Slab.cpp  ****                 this->dtor(objp);
 217:src/Slab.cpp  ****             }
 218:src/Slab.cpp  ****             if(this->ctor){
 219:src/Slab.cpp  ****                 this->ctor(objp);
 220:src/Slab.cpp  ****             }
 221:src/Slab.cpp  ****             this->num_active_obj--;
 222:src/Slab.cpp  ****             tmp->decrement_num_of_active();
 223:src/Slab.cpp  **** 
 224:src/Slab.cpp  ****             // move from full to partial
 225:src/Slab.cpp  ****             if(prev)prev->next = tmp->next;
 226:src/Slab.cpp  ****             else slabs_full = tmp->next;
 814              		.loc 1 226 18 is_stmt 1
 815              		.loc 1 226 36 is_stmt 0
 816 0490 83378900 		ld	a5,8(s2)
 817              		.loc 1 226 29
 818 0494 2330FA00 		sd	a5,0(s4)
 819 0498 6F000009 		j	.L46
 820              	.LVL91:
 821              	.L42:
 822              	.LBE92:
 823              	.LBE91:
 227:src/Slab.cpp  ****             tmp->next = this->slabs_partial;
 228:src/Slab.cpp  ****             this->slabs_partial = tmp;
 229:src/Slab.cpp  ****             this->num_slabs_full--;
 230:src/Slab.cpp  ****             this->num_slabs_partial++;
 231:src/Slab.cpp  **** 
 232:src/Slab.cpp  ****             return 0;
 233:src/Slab.cpp  ****         }
 234:src/Slab.cpp  ****         prev = tmp;
 824              		.loc 1 234 9 is_stmt 1 discriminator 2
 825              	.LBE90:
 210:src/Slab.cpp  ****         if((size_t)objp > (size_t)tmp &&
 826              		.loc 1 210 5 discriminator 2
 827              	.LBB97:
 828              		.loc 1 234 14 is_stmt 0 discriminator 2
 829 049c 93040900 		mv	s1,s2
 830              	.LBE97:
GAS LISTING /tmp/ccuk26uq.s 			page 23


 210:src/Slab.cpp  ****         if((size_t)objp > (size_t)tmp &&
 831              		.loc 1 210 48 discriminator 2
 832 04a0 03398900 		ld	s2,8(s2)
 833              	.LVL92:
 834              	.L47:
 210:src/Slab.cpp  ****         if((size_t)objp > (size_t)tmp &&
 835              		.loc 1 210 39 is_stmt 1 discriminator 1
 836 04a4 6308090A 		beqz	s2,.L48
 837              	.LBB98:
 211:src/Slab.cpp  ****         if((size_t)objp > (size_t)tmp &&
 838              		.loc 1 211 9
 839              	.LBB96:
 840 04a8 E37A39FF 		bleu	s3,s2,.L42
 212:src/Slab.cpp  ****             size_t position = (((size_t)objp - (size_t)tmp->first_addr)) / (size_t)this->objsize;
 841              		.loc 1 212 47 is_stmt 0 discriminator 1
 842 04ac 83378A04 		ld	a5,72(s4)
 212:src/Slab.cpp  ****             size_t position = (((size_t)objp - (size_t)tmp->first_addr)) / (size_t)this->objsize;
 843              		.loc 1 212 62 discriminator 1
 844 04b0 9397C700 		slli	a5,a5,12
 212:src/Slab.cpp  ****             size_t position = (((size_t)objp - (size_t)tmp->first_addr)) / (size_t)this->objsize;
 845              		.loc 1 212 39 discriminator 1
 846 04b4 B307F900 		add	a5,s2,a5
 212:src/Slab.cpp  ****             size_t position = (((size_t)objp - (size_t)tmp->first_addr)) / (size_t)this->objsize;
 847              		.loc 1 212 75 discriminator 1
 848 04b8 938787FF 		addi	a5,a5,-8
 211:src/Slab.cpp  ****            (size_t)objp < (size_t)tmp + this->size_in_blocks * BLOCK_SIZE - sizeof(size_t)){
 849              		.loc 1 211 39 discriminator 1
 850 04bc E3F0F9FE 		bgeu	s3,a5,.L42
 851              	.LBB95:
 213:src/Slab.cpp  ****             tmp->set_mask(position, false);
 852              		.loc 1 213 13 is_stmt 1
 213:src/Slab.cpp  ****             tmp->set_mask(position, false);
 853              		.loc 1 213 61 is_stmt 0
 854 04c0 83350901 		ld	a1,16(s2)
 855              	.LVL93:
 213:src/Slab.cpp  ****             tmp->set_mask(position, false);
 856              		.loc 1 213 46
 857 04c4 3387B940 		sub	a4,s3,a1
 213:src/Slab.cpp  ****             tmp->set_mask(position, false);
 858              		.loc 1 213 90
 859 04c8 83350A03 		ld	a1,48(s4)
 213:src/Slab.cpp  ****             tmp->set_mask(position, false);
 860              		.loc 1 213 20
 861 04cc B355B702 		divu	a1,a4,a1
 862              	.LVL94:
 214:src/Slab.cpp  ****             if(this->dtor){
 863              		.loc 1 214 13 is_stmt 1
 214:src/Slab.cpp  ****             if(this->dtor){
 864              		.loc 1 214 26 is_stmt 0
 865 04d0 13060000 		li	a2,0
 866 04d4 9B850500 		sext.w	a1,a1
 867              	.LVL95:
 868 04d8 13050900 		mv	a0,s2
 869              	.LVL96:
 870 04dc 97000000 		call	_ZN4Slab8set_maskEib
 870      E7800000 
 871              	.LVL97:
GAS LISTING /tmp/ccuk26uq.s 			page 24


 215:src/Slab.cpp  ****                 this->dtor(objp);
 872              		.loc 1 215 13 is_stmt 1
 215:src/Slab.cpp  ****                 this->dtor(objp);
 873              		.loc 1 215 22 is_stmt 0
 874 04e4 83378A05 		ld	a5,88(s4)
 215:src/Slab.cpp  ****                 this->dtor(objp);
 875              		.loc 1 215 13
 876 04e8 63860700 		beqz	a5,.L43
 216:src/Slab.cpp  ****             }
 877              		.loc 1 216 17 is_stmt 1
 216:src/Slab.cpp  ****             }
 878              		.loc 1 216 27 is_stmt 0
 879 04ec 13850900 		mv	a0,s3
 880 04f0 E7800700 		jalr	a5
 881              	.LVL98:
 882              	.L43:
 218:src/Slab.cpp  ****                 this->ctor(objp);
 883              		.loc 1 218 13 is_stmt 1
 218:src/Slab.cpp  ****                 this->ctor(objp);
 884              		.loc 1 218 22 is_stmt 0
 885 04f4 83370A05 		ld	a5,80(s4)
 218:src/Slab.cpp  ****                 this->ctor(objp);
 886              		.loc 1 218 13
 887 04f8 63860700 		beqz	a5,.L44
 219:src/Slab.cpp  ****             }
 888              		.loc 1 219 17 is_stmt 1
 219:src/Slab.cpp  ****             }
 889              		.loc 1 219 27 is_stmt 0
 890 04fc 13850900 		mv	a0,s3
 891 0500 E7800700 		jalr	a5
 892              	.LVL99:
 893              	.L44:
 221:src/Slab.cpp  ****             tmp->decrement_num_of_active();
 894              		.loc 1 221 13 is_stmt 1
 221:src/Slab.cpp  ****             tmp->decrement_num_of_active();
 895              		.loc 1 221 19 is_stmt 0
 896 0504 83370A07 		ld	a5,112(s4)
 221:src/Slab.cpp  ****             tmp->decrement_num_of_active();
 897              		.loc 1 221 33
 898 0508 9387F7FF 		addi	a5,a5,-1
 899 050c 2338FA06 		sd	a5,112(s4)
 222:src/Slab.cpp  **** 
 900              		.loc 1 222 13 is_stmt 1
 901              	.LVL100:
 902              	.LBB93:
 903              	.LBB94:
 904              		.loc 3 19 36
 905 0510 83370900 		ld	a5,0(s2)
 906              		.loc 3 19 46 is_stmt 0
 907 0514 9387F7FF 		addi	a5,a5,-1
 908 0518 2330F900 		sd	a5,0(s2)
 909              	.LVL101:
 910              	.LBE94:
 911              	.LBE93:
 225:src/Slab.cpp  ****             else slabs_full = tmp->next;
 912              		.loc 1 225 13 is_stmt 1
 913 051c E38A04F6 		beqz	s1,.L45
GAS LISTING /tmp/ccuk26uq.s 			page 25


 225:src/Slab.cpp  ****             else slabs_full = tmp->next;
 914              		.loc 1 225 21 discriminator 1
 225:src/Slab.cpp  ****             else slabs_full = tmp->next;
 915              		.loc 1 225 39 is_stmt 0 discriminator 1
 916 0520 83378900 		ld	a5,8(s2)
 225:src/Slab.cpp  ****             else slabs_full = tmp->next;
 917              		.loc 1 225 32 discriminator 1
 918 0524 23B4F400 		sd	a5,8(s1)
 919              	.L46:
 227:src/Slab.cpp  ****             this->slabs_partial = tmp;
 920              		.loc 1 227 13 is_stmt 1
 227:src/Slab.cpp  ****             this->slabs_partial = tmp;
 921              		.loc 1 227 31 is_stmt 0
 922 0528 83378A00 		ld	a5,8(s4)
 227:src/Slab.cpp  ****             this->slabs_partial = tmp;
 923              		.loc 1 227 23
 924 052c 2334F900 		sd	a5,8(s2)
 228:src/Slab.cpp  ****             this->num_slabs_full--;
 925              		.loc 1 228 13 is_stmt 1
 228:src/Slab.cpp  ****             this->num_slabs_full--;
 926              		.loc 1 228 33 is_stmt 0
 927 0530 23342A01 		sd	s2,8(s4)
 229:src/Slab.cpp  ****             this->num_slabs_partial++;
 928              		.loc 1 229 13 is_stmt 1
 229:src/Slab.cpp  ****             this->num_slabs_partial++;
 929              		.loc 1 229 19 is_stmt 0
 930 0534 83378A01 		ld	a5,24(s4)
 229:src/Slab.cpp  ****             this->num_slabs_partial++;
 931              		.loc 1 229 33
 932 0538 9387F7FF 		addi	a5,a5,-1
 933 053c 233CFA00 		sd	a5,24(s4)
 230:src/Slab.cpp  **** 
 934              		.loc 1 230 13 is_stmt 1
 230:src/Slab.cpp  **** 
 935              		.loc 1 230 19 is_stmt 0
 936 0540 83370A02 		ld	a5,32(s4)
 230:src/Slab.cpp  **** 
 937              		.loc 1 230 36
 938 0544 93871700 		addi	a5,a5,1
 939 0548 2330FA02 		sd	a5,32(s4)
 232:src/Slab.cpp  ****         }
 940              		.loc 1 232 13 is_stmt 1
 232:src/Slab.cpp  ****         }
 941              		.loc 1 232 20 is_stmt 0
 942 054c 13050000 		li	a0,0
 943 0550 6F008000 		j	.L40
 944              	.LVL102:
 945              	.L48:
 946              	.LBE95:
 947              	.LBE96:
 948              	.LBE98:
 949              	.LBE89:
 235:src/Slab.cpp  ****     }
 236:src/Slab.cpp  ****     return -1;
 950              		.loc 1 236 13
 951 0554 1305F0FF 		li	a0,-1
 952              	.LVL103:
GAS LISTING /tmp/ccuk26uq.s 			page 26


 953              	.L40:
 237:src/Slab.cpp  **** }
 954              		.loc 1 237 1
 955 0558 83308102 		ld	ra,40(sp)
 956              		.cfi_restore 1
 957 055c 03340102 		ld	s0,32(sp)
 958              		.cfi_restore 8
 959              		.cfi_def_cfa 2, 48
 960 0560 83348101 		ld	s1,24(sp)
 961              		.cfi_restore 9
 962 0564 03390101 		ld	s2,16(sp)
 963              		.cfi_restore 18
 964 0568 83398100 		ld	s3,8(sp)
 965              		.cfi_restore 19
 966              	.LVL104:
 967 056c 033A0100 		ld	s4,0(sp)
 968              		.cfi_restore 20
 969              	.LVL105:
 970 0570 13010103 		addi	sp,sp,48
 971              		.cfi_def_cfa_offset 0
 972 0574 67800000 		jr	ra
 973              		.cfi_endproc
 974              	.LFE54:
 976              		.align	2
 977              		.globl	_ZN12kmem_cache_s20check_if_name_existsEPKc
 979              	_ZN12kmem_cache_s20check_if_name_existsEPKc:
 980              	.LFB56:
 238:src/Slab.cpp  **** 
 239:src/Slab.cpp  **** void *kmem_cache_s::kmalloc(size_t size) {
 240:src/Slab.cpp  ****     // kreiraj ime
 241:src/Slab.cpp  ****     const char* n = (const char*)concatenate_int_to_char_ptr((int)size);
 242:src/Slab.cpp  **** 
 243:src/Slab.cpp  ****     kmem_cache_s* tmp = check_if_name_exists(n);
 244:src/Slab.cpp  ****     if(tmp == nullptr){
 245:src/Slab.cpp  ****         // napravi novi
 246:src/Slab.cpp  ****         tmp = (kmem_cache_s*)kmem_cache_create(n, size, nullptr, nullptr);
 247:src/Slab.cpp  ****         if(!tmp)return nullptr;
 248:src/Slab.cpp  ****     }
 249:src/Slab.cpp  ****     // vrati element
 250:src/Slab.cpp  ****     void* elem = tmp->kmem_cache_alloc();
 251:src/Slab.cpp  ****     return elem;
 252:src/Slab.cpp  **** }
 253:src/Slab.cpp  **** 
 254:src/Slab.cpp  **** // returns cache with given name, or nullptr if there is no such cache
 255:src/Slab.cpp  **** kmem_cache_s *kmem_cache_s::check_if_name_exists(const char* name) {
 981              		.loc 1 255 68 is_stmt 1
 982              		.cfi_startproc
 983              	.LVL106:
 984 0578 130101FE 		addi	sp,sp,-32
 985              		.cfi_def_cfa_offset 32
 986 057c 233C1100 		sd	ra,24(sp)
 987 0580 23388100 		sd	s0,16(sp)
 988 0584 23349100 		sd	s1,8(sp)
 989 0588 23302101 		sd	s2,0(sp)
 990              		.cfi_offset 1, -8
 991              		.cfi_offset 8, -16
 992              		.cfi_offset 9, -24
GAS LISTING /tmp/ccuk26uq.s 			page 27


 993              		.cfi_offset 18, -32
 994 058c 13040102 		addi	s0,sp,32
 995              		.cfi_def_cfa 8, 0
 996 0590 13090500 		mv	s2,a0
 256:src/Slab.cpp  ****     for(kmem_cache_s* tmp = kmem_cache_s::head; tmp; tmp = tmp->next){
 997              		.loc 1 256 5
 998              	.LBB99:
 999              		.loc 1 256 23 is_stmt 0
 1000 0594 97040000 		ld	s1,.LANCHOR0
 1000      83B40400 
 1001              	.LVL107:
 1002              	.L52:
 1003              		.loc 1 256 49 is_stmt 1 discriminator 1
 1004 059c 63800402 		beqz	s1,.L50
 257:src/Slab.cpp  ****         if(string_compare(tmp->name, name)){
 1005              		.loc 1 257 9
 1006              		.loc 1 257 26 is_stmt 0
 1007 05a0 93050900 		mv	a1,s2
 1008 05a4 03B50406 		ld	a0,96(s1)
 1009 05a8 97000000 		call	_Z14string_comparePKcS0_@plt
 1009      E7800000 
 1010              	.LVL108:
 1011              		.loc 1 257 9
 1012 05b0 63160500 		bnez	a0,.L50
 256:src/Slab.cpp  ****     for(kmem_cache_s* tmp = kmem_cache_s::head; tmp; tmp = tmp->next){
 1013              		.loc 1 256 5 is_stmt 1 discriminator 2
 256:src/Slab.cpp  ****     for(kmem_cache_s* tmp = kmem_cache_s::head; tmp; tmp = tmp->next){
 1014              		.loc 1 256 58 is_stmt 0 discriminator 2
 1015 05b4 83B48406 		ld	s1,104(s1)
 1016              	.LVL109:
 256:src/Slab.cpp  ****     for(kmem_cache_s* tmp = kmem_cache_s::head; tmp; tmp = tmp->next){
 1017              		.loc 1 256 5 discriminator 2
 1018 05b8 6FF05FFE 		j	.L52
 1019              	.L50:
 1020              	.LBE99:
 258:src/Slab.cpp  ****             return tmp;
 259:src/Slab.cpp  ****         }
 260:src/Slab.cpp  ****     }
 261:src/Slab.cpp  ****     return nullptr;
 262:src/Slab.cpp  **** }
 1021              		.loc 1 262 1
 1022 05bc 13850400 		mv	a0,s1
 1023 05c0 83308101 		ld	ra,24(sp)
 1024              		.cfi_restore 1
 1025 05c4 03340101 		ld	s0,16(sp)
 1026              		.cfi_restore 8
 1027              		.cfi_def_cfa 2, 32
 1028 05c8 83348100 		ld	s1,8(sp)
 1029              		.cfi_restore 9
 1030              	.LVL110:
 1031 05cc 03390100 		ld	s2,0(sp)
 1032              		.cfi_restore 18
 1033              	.LVL111:
 1034 05d0 13010102 		addi	sp,sp,32
 1035              		.cfi_def_cfa_offset 0
 1036 05d4 67800000 		jr	ra
 1037              		.cfi_endproc
GAS LISTING /tmp/ccuk26uq.s 			page 28


 1038              	.LFE56:
 1040              		.align	2
 1041              		.globl	_ZN12kmem_cache_s3powEm
 1043              	_ZN12kmem_cache_s3powEm:
 1044              	.LFB57:
 263:src/Slab.cpp  **** 
 264:src/Slab.cpp  **** size_t kmem_cache_s::pow(size_t deg){
 1045              		.loc 1 264 37 is_stmt 1
 1046              		.cfi_startproc
 1047              	.LVL112:
 1048 05d8 130101FF 		addi	sp,sp,-16
 1049              		.cfi_def_cfa_offset 16
 1050 05dc 23348100 		sd	s0,8(sp)
 1051              		.cfi_offset 8, -8
 1052 05e0 13040101 		addi	s0,sp,16
 1053              		.cfi_def_cfa 8, 0
 1054 05e4 13070500 		mv	a4,a0
 265:src/Slab.cpp  ****     size_t tmp = 1;
 1055              		.loc 1 265 5
 1056              	.LVL113:
 266:src/Slab.cpp  ****     for(size_t i = 0; i < deg; i++){
 1057              		.loc 1 266 5
 1058              	.LBB100:
 1059              		.loc 1 266 16 is_stmt 0
 1060 05e8 93070000 		li	a5,0
 1061              	.LBE100:
 265:src/Slab.cpp  ****     size_t tmp = 1;
 1062              		.loc 1 265 12
 1063 05ec 13051000 		li	a0,1
 1064              	.LVL114:
 1065              	.L56:
 1066              	.LBB101:
 1067              		.loc 1 266 25 is_stmt 1 discriminator 3
 1068 05f0 63F8E700 		bgeu	a5,a4,.L54
 267:src/Slab.cpp  ****         tmp <<= 1;
 1069              		.loc 1 267 9 discriminator 2
 1070              		.loc 1 267 13 is_stmt 0 discriminator 2
 1071 05f4 13151500 		slli	a0,a0,1
 1072              	.LVL115:
 266:src/Slab.cpp  ****     for(size_t i = 0; i < deg; i++){
 1073              		.loc 1 266 5 is_stmt 1 discriminator 2
 1074 05f8 93871700 		addi	a5,a5,1
 1075              	.LVL116:
 1076 05fc 6FF05FFF 		j	.L56
 1077              	.L54:
 1078              	.LBE101:
 268:src/Slab.cpp  ****     }
 269:src/Slab.cpp  ****     return tmp;
 270:src/Slab.cpp  **** }
 1079              		.loc 1 270 1 is_stmt 0
 1080 0600 03348100 		ld	s0,8(sp)
 1081              		.cfi_restore 8
 1082              		.cfi_def_cfa 2, 16
 1083 0604 13010101 		addi	sp,sp,16
 1084              		.cfi_def_cfa_offset 0
 1085 0608 67800000 		jr	ra
 1086              		.cfi_endproc
GAS LISTING /tmp/ccuk26uq.s 			page 29


 1087              	.LFE57:
 1089              		.align	2
 1090              		.globl	_ZN12kmem_cache_s28is_small_buffer_size_correctEm
 1092              	_ZN12kmem_cache_s28is_small_buffer_size_correctEm:
 1093              	.LFB58:
 271:src/Slab.cpp  **** 
 272:src/Slab.cpp  **** int kmem_cache_s::is_small_buffer_size_correct(size_t size) {
 1094              		.loc 1 272 61 is_stmt 1
 1095              		.cfi_startproc
 1096              	.LVL117:
 1097 060c 130101FE 		addi	sp,sp,-32
 1098              		.cfi_def_cfa_offset 32
 1099 0610 233C1100 		sd	ra,24(sp)
 1100 0614 23388100 		sd	s0,16(sp)
 1101 0618 23349100 		sd	s1,8(sp)
 1102              		.cfi_offset 1, -8
 1103              		.cfi_offset 8, -16
 1104              		.cfi_offset 9, -24
 1105 061c 13040102 		addi	s0,sp,32
 1106              		.cfi_def_cfa 8, 0
 1107 0620 93040500 		mv	s1,a0
 273:src/Slab.cpp  ****     int deg = 5;
 1108              		.loc 1 273 5
 1109              	.LVL118:
 274:src/Slab.cpp  ****     size_t val = pow(deg);
 1110              		.loc 1 274 5
 1111              		.loc 1 274 21 is_stmt 0
 1112 0624 13055000 		li	a0,5
 1113              	.LVL119:
 1114 0628 97000000 		call	_ZN12kmem_cache_s3powEm
 1114      E7800000 
 1115              	.LVL120:
 273:src/Slab.cpp  ****     int deg = 5;
 1116              		.loc 1 273 9
 1117 0630 93075000 		li	a5,5
 1118              	.LVL121:
 1119              	.L60:
 275:src/Slab.cpp  ****     while(size > val){
 1120              		.loc 1 275 5 is_stmt 1
 1121              		.loc 1 275 16
 1122 0634 63789500 		bgeu	a0,s1,.L59
 276:src/Slab.cpp  ****         deg++;
 1123              		.loc 1 276 9
 1124              		.loc 1 276 12 is_stmt 0
 1125 0638 9B871700 		addiw	a5,a5,1
 1126              	.LVL122:
 277:src/Slab.cpp  ****         val <<= 1;
 1127              		.loc 1 277 9 is_stmt 1
 1128              		.loc 1 277 13 is_stmt 0
 1129 063c 13151500 		slli	a0,a0,1
 1130              	.LVL123:
 275:src/Slab.cpp  ****     while(size > val){
 1131              		.loc 1 275 5
 1132 0640 6FF05FFF 		j	.L60
 1133              	.LVL124:
 1134              	.L59:
 278:src/Slab.cpp  ****     }
GAS LISTING /tmp/ccuk26uq.s 			page 30


 279:src/Slab.cpp  ****     if(deg > 17)return 0;
 1135              		.loc 1 279 5 is_stmt 1
 1136 0644 13071001 		li	a4,17
 1137 0648 634EF700 		bgt	a5,a4,.L62
 280:src/Slab.cpp  ****     return (int)val;
 1138              		.loc 1 280 5
 1139              		.loc 1 280 17 is_stmt 0
 1140 064c 1B050500 		sext.w	a0,a0
 1141              	.LVL125:
 1142              	.L61:
 281:src/Slab.cpp  **** }
 1143              		.loc 1 281 1
 1144 0650 83308101 		ld	ra,24(sp)
 1145              		.cfi_remember_state
 1146              		.cfi_restore 1
 1147 0654 03340101 		ld	s0,16(sp)
 1148              		.cfi_restore 8
 1149              		.cfi_def_cfa 2, 32
 1150 0658 83348100 		ld	s1,8(sp)
 1151              		.cfi_restore 9
 1152              	.LVL126:
 1153 065c 13010102 		addi	sp,sp,32
 1154              		.cfi_def_cfa_offset 0
 1155 0660 67800000 		jr	ra
 1156              	.LVL127:
 1157              	.L62:
 1158              		.cfi_restore_state
 279:src/Slab.cpp  ****     return (int)val;
 1159              		.loc 1 279 24
 1160 0664 13050000 		li	a0,0
 1161              	.LVL128:
 1162 0668 6FF09FFE 		j	.L61
 1163              		.cfi_endproc
 1164              	.LFE58:
 1166              		.align	2
 1167              		.globl	_ZN12kmem_cache_s5kfreeEPKv
 1169              	_ZN12kmem_cache_s5kfreeEPKv:
 1170              	.LFB59:
 282:src/Slab.cpp  **** 
 283:src/Slab.cpp  **** // returns 0 if delete is executed, -1 if not
 284:src/Slab.cpp  **** int kmem_cache_s::kfree(const void *objp) {
 1171              		.loc 1 284 43 is_stmt 1
 1172              		.cfi_startproc
 1173              	.LVL129:
 1174 066c 130101FE 		addi	sp,sp,-32
 1175              		.cfi_def_cfa_offset 32
 1176 0670 233C1100 		sd	ra,24(sp)
 1177 0674 23388100 		sd	s0,16(sp)
 1178 0678 23349100 		sd	s1,8(sp)
 1179 067c 23302101 		sd	s2,0(sp)
 1180              		.cfi_offset 1, -8
 1181              		.cfi_offset 8, -16
 1182              		.cfi_offset 9, -24
 1183              		.cfi_offset 18, -32
 1184 0680 13040102 		addi	s0,sp,32
 1185              		.cfi_def_cfa 8, 0
 1186 0684 13090500 		mv	s2,a0
GAS LISTING /tmp/ccuk26uq.s 			page 31


 285:src/Slab.cpp  ****     for(kmem_cache_s* tmp = kmem_cache_s::head; tmp; tmp = tmp->next){
 1187              		.loc 1 285 5
 1188              	.LBB102:
 1189              		.loc 1 285 23 is_stmt 0
 1190 0688 97040000 		ld	s1,.LANCHOR0
 1190      83B40400 
 1191              	.LVL130:
 1192              	.L66:
 1193              		.loc 1 285 49 is_stmt 1 discriminator 1
 1194 0690 63800402 		beqz	s1,.L67
 286:src/Slab.cpp  ****         if(tmp->kmem_cache_free((void*)objp) == 0)return 0;
 1195              		.loc 1 286 9
 1196              		.loc 1 286 32 is_stmt 0
 1197 0694 93050900 		mv	a1,s2
 1198 0698 13850400 		mv	a0,s1
 1199 069c 97000000 		call	_ZN12kmem_cache_s15kmem_cache_freeEPv
 1199      E7800000 
 1200              	.LVL131:
 1201              		.loc 1 286 9
 1202 06a4 63080500 		beqz	a0,.L65
 285:src/Slab.cpp  ****     for(kmem_cache_s* tmp = kmem_cache_s::head; tmp; tmp = tmp->next){
 1203              		.loc 1 285 5 is_stmt 1 discriminator 2
 285:src/Slab.cpp  ****     for(kmem_cache_s* tmp = kmem_cache_s::head; tmp; tmp = tmp->next){
 1204              		.loc 1 285 58 is_stmt 0 discriminator 2
 1205 06a8 83B48406 		ld	s1,104(s1)
 1206              	.LVL132:
 285:src/Slab.cpp  ****     for(kmem_cache_s* tmp = kmem_cache_s::head; tmp; tmp = tmp->next){
 1207              		.loc 1 285 5 discriminator 2
 1208 06ac 6FF05FFE 		j	.L66
 1209              	.L67:
 1210              	.LBE102:
 287:src/Slab.cpp  ****     }
 288:src/Slab.cpp  ****     // if not found return 1;
 289:src/Slab.cpp  ****     return -1;
 1211              		.loc 1 289 13
 1212 06b0 1305F0FF 		li	a0,-1
 1213              	.L65:
 290:src/Slab.cpp  **** }
 1214              		.loc 1 290 1
 1215 06b4 83308101 		ld	ra,24(sp)
 1216              		.cfi_restore 1
 1217 06b8 03340101 		ld	s0,16(sp)
 1218              		.cfi_restore 8
 1219              		.cfi_def_cfa 2, 32
 1220 06bc 83348100 		ld	s1,8(sp)
 1221              		.cfi_restore 9
 1222              	.LVL133:
 1223 06c0 03390100 		ld	s2,0(sp)
 1224              		.cfi_restore 18
 1225              	.LVL134:
 1226 06c4 13010102 		addi	sp,sp,32
 1227              		.cfi_def_cfa_offset 0
 1228 06c8 67800000 		jr	ra
 1229              		.cfi_endproc
 1230              	.LFE59:
 1232              		.section	.rodata.str1.8,"aMS",@progbits,1
 1233              		.align	3
GAS LISTING /tmp/ccuk26uq.s 			page 32


 1234              	.LC0:
 1235 0000 2D2D2D2D 		.string	"------------------- CACHE INFO -------------------\n"
 1235      2D2D2D2D 
 1235      2D2D2D2D 
 1235      2D2D2D2D 
 1235      2D2D2D20 
 1236 0034 00000000 		.align	3
 1237              	.LC1:
 1238 0038 496D653A 		.string	"Ime: "
 1238      2000
 1239 003e 0000     		.align	3
 1240              	.LC2:
 1241 0040 0A00     		.string	"\n"
 1242 0042 00000000 		.align	3
 1242      0000
 1243              	.LC3:
 1244 0048 56656C69 		.string	"Velicina objekta: "
 1244      63696E61 
 1244      206F626A 
 1244      656B7461 
 1244      3A2000
 1245 005b 00000000 		.align	3
 1245      00
 1246              	.LC4:
 1247 0060 56656C69 		.string	"Velicina kesa u blokovima: "
 1247      63696E61 
 1247      206B6573 
 1247      61207520 
 1247      626C6F6B 
 1248 007c 00000000 		.align	3
 1249              	.LC5:
 1250 0080 42726F6A 		.string	"Broj ploca u kesu: "
 1250      20706C6F 
 1250      63612075 
 1250      206B6573 
 1250      753A2000 
 1251 0094 00000000 		.align	3
 1252              	.LC6:
 1253 0098 42726F6A 		.string	"Broj objekata koji staju u jednu plocu: "
 1253      206F626A 
 1253      656B6174 
 1253      61206B6F 
 1253      6A692073 
 1254 00c1 00000000 		.align	3
 1254      000000
 1255              	.LC7:
 1256 00c8 42726F6A 		.string	"Broj aktivnih objekata u kesu: "
 1256      20616B74 
 1256      69766E69 
 1256      68206F62 
 1256      6A656B61 
 1257              		.align	3
 1258              	.LC8:
 1259 00e8 736C6F62 		.string	"slobodni: "
 1259      6F646E69 
 1259      3A2000
 1260 00f3 00000000 		.align	3
GAS LISTING /tmp/ccuk26uq.s 			page 33


 1260      00
 1261              	.LC9:
 1262 00f8 2000     		.string	" "
 1263 00fa 00000000 		.align	3
 1263      0000
 1264              	.LC10:
 1265 0100 7A617072 		.string	"zaprljani: "
 1265      6C6A616E 
 1265      693A2000 
 1266 010c 00000000 		.align	3
 1267              	.LC11:
 1268 0110 70756E69 		.string	"puni: "
 1268      3A2000
 1269 0117 00       		.align	3
 1270              	.LC12:
 1271 0118 42726F6A 		.string	"Broj uspesnih smanjenja kesa: "
 1271      20757370 
 1271      65736E69 
 1271      6820736D 
 1271      616E6A65 
 1272 0137 00       		.align	3
 1273              	.LC13:
 1274 0138 56656C69 		.string	"Velicina metapodataka za kmem_cache_s: "
 1274      63696E61 
 1274      206D6574 
 1274      61706F64 
 1274      6174616B 
 1275              		.align	3
 1276              	.LC14:
 1277 0160 56656C69 		.string	"Velicina metapodataka za Slab: "
 1277      63696E61 
 1277      206D6574 
 1277      61706F64 
 1277      6174616B 
 1278              		.align	3
 1279              	.LC15:
 1280 0180 5265616C 		.string	"Realna iskoriscenost prostora: "
 1280      6E612069 
 1280      736B6F72 
 1280      69736365 
 1280      6E6F7374 
 1281              		.align	3
 1282              	.LC16:
 1283 01a0 2F00     		.string	"/"
 1284 01a2 00000000 		.align	3
 1284      0000
 1285              	.LC17:
 1286 01a8 4566656B 		.string	"Efektivna iskoriscenost prostora: "
 1286      7469766E 
 1286      61206973 
 1286      6B6F7269 
 1286      7363656E 
 1287 01cb 00000000 		.align	3
 1287      00
 1288              	.LC18:
 1289 01d0 2D2D2D2D 		.string	"----------------------- END ----------------------\n"
 1289      2D2D2D2D 
GAS LISTING /tmp/ccuk26uq.s 			page 34


 1289      2D2D2D2D 
 1289      2D2D2D2D 
 1289      2D2D2D2D 
 1290              		.text
 1291              		.align	2
 1292              		.globl	_ZN12kmem_cache_s15kmem_cache_infoEv
 1294              	_ZN12kmem_cache_s15kmem_cache_infoEv:
 1295              	.LFB61:
 291:src/Slab.cpp  **** 
 292:src/Slab.cpp  **** ///
 293:src/Slab.cpp  **** /// \param addr - address of cache that we deleting
 294:src/Slab.cpp  **** /// \return 0 - if deleted all, -1 - if error ocurred
 295:src/Slab.cpp  **** int kmem_cache_s::kmem_cache_destroy(size_t addr) {
 296:src/Slab.cpp  ****     Slab *prev = nullptr, *tmp = this->slabs_full;
 297:src/Slab.cpp  ****     while (tmp) {
 298:src/Slab.cpp  ****         prev = tmp;
 299:src/Slab.cpp  ****         tmp = tmp->next;
 300:src/Slab.cpp  ****         prev->clear_slab((int)num, (int)objsize, dtor);
 301:src/Slab.cpp  ****         BuddySystem::getInstance().buddyFree((size_t)prev);
 302:src/Slab.cpp  ****     }
 303:src/Slab.cpp  ****     prev = nullptr; tmp = this->slabs_partial;
 304:src/Slab.cpp  ****     while (tmp) {
 305:src/Slab.cpp  ****         prev = tmp;
 306:src/Slab.cpp  ****         tmp = tmp->next;
 307:src/Slab.cpp  ****         prev->clear_slab((int)num, (int)objsize, dtor);
 308:src/Slab.cpp  ****         BuddySystem::getInstance().buddyFree((size_t)prev);
 309:src/Slab.cpp  ****     }
 310:src/Slab.cpp  ****     prev = nullptr; tmp = this->slabs_free;
 311:src/Slab.cpp  ****     while (tmp) {
 312:src/Slab.cpp  ****         prev = tmp;
 313:src/Slab.cpp  ****         tmp = tmp->next;
 314:src/Slab.cpp  ****         prev->clear_slab((int)num, (int)objsize, dtor);
 315:src/Slab.cpp  ****         BuddySystem::getInstance().buddyFree((size_t)prev);
 316:src/Slab.cpp  ****     }
 317:src/Slab.cpp  **** 
 318:src/Slab.cpp  ****     kmem_cache_s* cache = kmem_cache_s::head, *prev_cache = nullptr;
 319:src/Slab.cpp  ****     while(cache){
 320:src/Slab.cpp  ****         if((size_t)cache == addr){
 321:src/Slab.cpp  ****             if(prev_cache){
 322:src/Slab.cpp  ****                 prev_cache->next = cache->next;
 323:src/Slab.cpp  ****                 cache->next = nullptr;
 324:src/Slab.cpp  ****                 BuddySystem::getInstance().buddyFree((size_t)cache);
 325:src/Slab.cpp  ****                 return 0;
 326:src/Slab.cpp  ****             }
 327:src/Slab.cpp  ****         }
 328:src/Slab.cpp  ****         prev_cache = cache;
 329:src/Slab.cpp  ****         cache = cache->next;
 330:src/Slab.cpp  ****     }
 331:src/Slab.cpp  ****     return -1;
 332:src/Slab.cpp  **** }
 333:src/Slab.cpp  **** 
 334:src/Slab.cpp  **** void kmem_cache_s::kmem_cache_info() {
 1296              		.loc 1 334 38 is_stmt 1
 1297              		.cfi_startproc
 1298              	.LVL135:
 1299 06cc 130101FD 		addi	sp,sp,-48
 1300              		.cfi_def_cfa_offset 48
GAS LISTING /tmp/ccuk26uq.s 			page 35


 1301 06d0 23341102 		sd	ra,40(sp)
 1302 06d4 23308102 		sd	s0,32(sp)
 1303 06d8 233C9100 		sd	s1,24(sp)
 1304 06dc 23382101 		sd	s2,16(sp)
 1305 06e0 23343101 		sd	s3,8(sp)
 1306 06e4 23304101 		sd	s4,0(sp)
 1307              		.cfi_offset 1, -8
 1308              		.cfi_offset 8, -16
 1309              		.cfi_offset 9, -24
 1310              		.cfi_offset 18, -32
 1311              		.cfi_offset 19, -40
 1312              		.cfi_offset 20, -48
 1313 06e8 13040103 		addi	s0,sp,48
 1314              		.cfi_def_cfa 8, 0
 1315 06ec 13090500 		mv	s2,a0
 335:src/Slab.cpp  **** 
 336:src/Slab.cpp  ****     printString("------------------- CACHE INFO -------------------\n");
 1316              		.loc 1 336 5
 1317              		.loc 1 336 16 is_stmt 0
 1318 06f0 17050000 		lla	a0,.LC0
 1318      13050500 
 1319              	.LVL136:
 1320 06f8 97000000 		call	_Z11printStringPKc@plt
 1320      E7800000 
 1321              	.LVL137:
 337:src/Slab.cpp  ****     // print name and object size
 338:src/Slab.cpp  ****     printString("Ime: ");
 1322              		.loc 1 338 5 is_stmt 1
 1323              		.loc 1 338 16 is_stmt 0
 1324 0700 17050000 		lla	a0,.LC1
 1324      13050500 
 1325 0708 97000000 		call	_Z11printStringPKc@plt
 1325      E7800000 
 1326              	.LVL138:
 339:src/Slab.cpp  ****     printString(name);
 1327              		.loc 1 339 5 is_stmt 1
 1328              		.loc 1 339 16 is_stmt 0
 1329 0710 03350906 		ld	a0,96(s2)
 1330 0714 97000000 		call	_Z11printStringPKc@plt
 1330      E7800000 
 1331              	.LVL139:
 340:src/Slab.cpp  ****     printString("\n");
 1332              		.loc 1 340 5 is_stmt 1
 1333              		.loc 1 340 16 is_stmt 0
 1334 071c 17050000 		lla	a0,.LC2
 1334      13050500 
 1335 0724 97000000 		call	_Z11printStringPKc@plt
 1335      E7800000 
 1336              	.LVL140:
 341:src/Slab.cpp  ****     printString("Velicina objekta: ");
 1337              		.loc 1 341 5 is_stmt 1
 1338              		.loc 1 341 16 is_stmt 0
 1339 072c 17050000 		lla	a0,.LC3
 1339      13050500 
 1340 0734 97000000 		call	_Z11printStringPKc@plt
 1340      E7800000 
 1341              	.LVL141:
GAS LISTING /tmp/ccuk26uq.s 			page 36


 342:src/Slab.cpp  ****     printInt(objsize);
 1342              		.loc 1 342 5 is_stmt 1
 1343              		.loc 1 342 13 is_stmt 0
 1344 073c 13060000 		li	a2,0
 1345 0740 9305A000 		li	a1,10
 1346 0744 03250903 		lw	a0,48(s2)
 1347 0748 97000000 		call	_Z8printIntiii@plt
 1347      E7800000 
 1348              	.LVL142:
 343:src/Slab.cpp  ****     printString("\n");
 1349              		.loc 1 343 5 is_stmt 1
 1350              		.loc 1 343 16 is_stmt 0
 1351 0750 17050000 		lla	a0,.LC2
 1351      13050500 
 1352 0758 97000000 		call	_Z11printStringPKc@plt
 1352      E7800000 
 1353              	.LVL143:
 344:src/Slab.cpp  **** 
 345:src/Slab.cpp  ****     // print size of cache (in blocks)
 346:src/Slab.cpp  ****     size_t num_of_slabs = num_slabs_full + num_slabs_partial + num_slabs_free;
 1354              		.loc 1 346 5 is_stmt 1
 1355              		.loc 1 346 27 is_stmt 0
 1356 0760 83398901 		ld	s3,24(s2)
 1357              		.loc 1 346 44
 1358 0764 83370902 		ld	a5,32(s2)
 1359              		.loc 1 346 42
 1360 0768 B389F900 		add	s3,s3,a5
 1361              		.loc 1 346 64
 1362 076c 03358902 		ld	a0,40(s2)
 1363              		.loc 1 346 12
 1364 0770 B389A900 		add	s3,s3,a0
 1365              	.LVL144:
 347:src/Slab.cpp  ****     size_t size_of_cache_in_blocks = num_of_slabs * size_in_blocks + 1;
 1366              		.loc 1 347 5 is_stmt 1
 1367              		.loc 1 347 53 is_stmt 0
 1368 0774 83348904 		ld	s1,72(s2)
 1369              		.loc 1 347 51
 1370 0778 B3843403 		mul	s1,s1,s3
 1371              		.loc 1 347 12
 1372 077c 93841400 		addi	s1,s1,1
 1373              	.LVL145:
 348:src/Slab.cpp  ****     printString("Velicina kesa u blokovima: ");
 1374              		.loc 1 348 5 is_stmt 1
 1375              		.loc 1 348 16 is_stmt 0
 1376 0780 17050000 		lla	a0,.LC4
 1376      13050500 
 1377 0788 97000000 		call	_Z11printStringPKc@plt
 1377      E7800000 
 1378              	.LVL146:
 349:src/Slab.cpp  ****     printInt(size_of_cache_in_blocks);
 1379              		.loc 1 349 5 is_stmt 1
 1380              		.loc 1 349 13 is_stmt 0
 1381 0790 13060000 		li	a2,0
 1382 0794 9305A000 		li	a1,10
 1383 0798 1B850400 		sext.w	a0,s1
 1384 079c 97000000 		call	_Z8printIntiii@plt
 1384      E7800000 
GAS LISTING /tmp/ccuk26uq.s 			page 37


 1385              	.LVL147:
 350:src/Slab.cpp  ****     printString("\n");
 1386              		.loc 1 350 5 is_stmt 1
 1387              		.loc 1 350 16 is_stmt 0
 1388 07a4 17050000 		lla	a0,.LC2
 1388      13050500 
 1389 07ac 97000000 		call	_Z11printStringPKc@plt
 1389      E7800000 
 1390              	.LVL148:
 351:src/Slab.cpp  **** 
 352:src/Slab.cpp  ****     // print number of slabs in cache
 353:src/Slab.cpp  ****     printString("Broj ploca u kesu: ");
 1391              		.loc 1 353 5 is_stmt 1
 1392              		.loc 1 353 16 is_stmt 0
 1393 07b4 17050000 		lla	a0,.LC5
 1393      13050500 
 1394 07bc 97000000 		call	_Z11printStringPKc@plt
 1394      E7800000 
 1395              	.LVL149:
 354:src/Slab.cpp  ****     printInt(num_of_slabs);
 1396              		.loc 1 354 5 is_stmt 1
 1397              		.loc 1 354 13 is_stmt 0
 1398 07c4 13060000 		li	a2,0
 1399 07c8 9305A000 		li	a1,10
 1400 07cc 1B850900 		sext.w	a0,s3
 1401 07d0 97000000 		call	_Z8printIntiii@plt
 1401      E7800000 
 1402              	.LVL150:
 355:src/Slab.cpp  ****     printString("\n");
 1403              		.loc 1 355 5 is_stmt 1
 1404              		.loc 1 355 16 is_stmt 0
 1405 07d8 17050000 		lla	a0,.LC2
 1405      13050500 
 1406 07e0 97000000 		call	_Z11printStringPKc@plt
 1406      E7800000 
 1407              	.LVL151:
 356:src/Slab.cpp  **** 
 357:src/Slab.cpp  ****     // number of objects in one slab
 358:src/Slab.cpp  ****     printString("Broj objekata koji staju u jednu plocu: ");
 1408              		.loc 1 358 5 is_stmt 1
 1409              		.loc 1 358 16 is_stmt 0
 1410 07e8 17050000 		lla	a0,.LC6
 1410      13050500 
 1411 07f0 97000000 		call	_Z11printStringPKc@plt
 1411      E7800000 
 1412              	.LVL152:
 359:src/Slab.cpp  ****     printInt(num);
 1413              		.loc 1 359 5 is_stmt 1
 1414              		.loc 1 359 13 is_stmt 0
 1415 07f8 13060000 		li	a2,0
 1416 07fc 9305A000 		li	a1,10
 1417 0800 03258903 		lw	a0,56(s2)
 1418 0804 97000000 		call	_Z8printIntiii@plt
 1418      E7800000 
 1419              	.LVL153:
 360:src/Slab.cpp  ****     printString("\n");
 1420              		.loc 1 360 5 is_stmt 1
GAS LISTING /tmp/ccuk26uq.s 			page 38


 1421              		.loc 1 360 16 is_stmt 0
 1422 080c 17050000 		lla	a0,.LC2
 1422      13050500 
 1423 0814 97000000 		call	_Z11printStringPKc@plt
 1423      E7800000 
 1424              	.LVL154:
 361:src/Slab.cpp  **** 
 362:src/Slab.cpp  ****     // number of objects in one slab
 363:src/Slab.cpp  ****     printString("Broj aktivnih objekata u kesu: ");
 1425              		.loc 1 363 5 is_stmt 1
 1426              		.loc 1 363 16 is_stmt 0
 1427 081c 17050000 		lla	a0,.LC7
 1427      13050500 
 1428 0824 97000000 		call	_Z11printStringPKc@plt
 1428      E7800000 
 1429              	.LVL155:
 364:src/Slab.cpp  ****     printInt(num_active_obj);
 1430              		.loc 1 364 5 is_stmt 1
 1431              		.loc 1 364 13 is_stmt 0
 1432 082c 13060000 		li	a2,0
 1433 0830 9305A000 		li	a1,10
 1434 0834 03250907 		lw	a0,112(s2)
 1435 0838 97000000 		call	_Z8printIntiii@plt
 1435      E7800000 
 1436              	.LVL156:
 365:src/Slab.cpp  ****     printString("\n");
 1437              		.loc 1 365 5 is_stmt 1
 1438              		.loc 1 365 16 is_stmt 0
 1439 0840 17050000 		lla	a0,.LC2
 1439      13050500 
 1440 0848 97000000 		call	_Z11printStringPKc@plt
 1440      E7800000 
 1441              	.LVL157:
 366:src/Slab.cpp  **** 
 367:src/Slab.cpp  ****     // stanje u slabovima
 368:src/Slab.cpp  ****     printString("slobodni: ");
 1442              		.loc 1 368 5 is_stmt 1
 1443              		.loc 1 368 16 is_stmt 0
 1444 0850 17050000 		lla	a0,.LC8
 1444      13050500 
 1445 0858 97000000 		call	_Z11printStringPKc@plt
 1445      E7800000 
 1446              	.LVL158:
 369:src/Slab.cpp  ****     for(Slab* tmp = slabs_free; tmp; tmp = tmp->next){
 1447              		.loc 1 369 5 is_stmt 1
 1448              	.LBB103:
 1449              		.loc 1 369 15 is_stmt 0
 1450 0860 83340901 		ld	s1,16(s2)
 1451              	.LVL159:
 1452              	.L71:
 1453              		.loc 1 369 33 is_stmt 1 discriminator 3
 1454 0864 63880402 		beqz	s1,.L70
 370:src/Slab.cpp  ****         printInt(tmp->get_number_of_active_objects());
 1455              		.loc 1 370 9
 1456              	.LVL160:
 1457              	.LBB104:
 1458              	.LBB105:
GAS LISTING /tmp/ccuk26uq.s 			page 39


  16:src/../h/Slab.h ****     void* return_first_free_object_and_rearange_list(int, int);
 1459              		.loc 3 16 43
 1460              	.LBE105:
 1461              	.LBE104:
 1462              		.loc 1 370 17 is_stmt 0
 1463 0868 13060000 		li	a2,0
 1464 086c 9305A000 		li	a1,10
 1465 0870 03A50400 		lw	a0,0(s1)
 1466 0874 97000000 		call	_Z8printIntiii@plt
 1466      E7800000 
 1467              	.LVL161:
 371:src/Slab.cpp  ****         printString(" ");
 1468              		.loc 1 371 9 is_stmt 1
 1469              		.loc 1 371 20 is_stmt 0
 1470 087c 17050000 		lla	a0,.LC9
 1470      13050500 
 1471 0884 97000000 		call	_Z11printStringPKc@plt
 1471      E7800000 
 1472              	.LVL162:
 369:src/Slab.cpp  ****         printInt(tmp->get_number_of_active_objects());
 1473              		.loc 1 369 5 is_stmt 1
 369:src/Slab.cpp  ****         printInt(tmp->get_number_of_active_objects());
 1474              		.loc 1 369 42 is_stmt 0
 1475 088c 83B48400 		ld	s1,8(s1)
 1476              	.LVL163:
 369:src/Slab.cpp  ****         printInt(tmp->get_number_of_active_objects());
 1477              		.loc 1 369 5
 1478 0890 6FF05FFD 		j	.L71
 1479              	.L70:
 1480              	.LBE103:
 372:src/Slab.cpp  ****     }
 373:src/Slab.cpp  ****     printString("\n");
 1481              		.loc 1 373 5 is_stmt 1
 1482              		.loc 1 373 16 is_stmt 0
 1483 0894 17050000 		lla	a0,.LC2
 1483      13050500 
 1484 089c 97000000 		call	_Z11printStringPKc@plt
 1484      E7800000 
 1485              	.LVL164:
 374:src/Slab.cpp  ****     printString("zaprljani: ");
 1486              		.loc 1 374 5 is_stmt 1
 1487              		.loc 1 374 16 is_stmt 0
 1488 08a4 17050000 		lla	a0,.LC10
 1488      13050500 
 1489 08ac 97000000 		call	_Z11printStringPKc@plt
 1489      E7800000 
 1490              	.LVL165:
 375:src/Slab.cpp  ****     for(Slab* tmp = slabs_partial; tmp; tmp = tmp->next){
 1491              		.loc 1 375 5 is_stmt 1
 1492              	.LBB106:
 1493              		.loc 1 375 15 is_stmt 0
 1494 08b4 83348900 		ld	s1,8(s2)
 1495              	.LVL166:
 1496              	.L73:
 1497              		.loc 1 375 36 is_stmt 1 discriminator 3
 1498 08b8 63880402 		beqz	s1,.L72
 376:src/Slab.cpp  ****         printInt(tmp->get_number_of_active_objects());
GAS LISTING /tmp/ccuk26uq.s 			page 40


 1499              		.loc 1 376 9
 1500              	.LVL167:
 1501              	.LBB107:
 1502              	.LBB108:
  16:src/../h/Slab.h ****     void* return_first_free_object_and_rearange_list(int, int);
 1503              		.loc 3 16 43
 1504              	.LBE108:
 1505              	.LBE107:
 1506              		.loc 1 376 17 is_stmt 0
 1507 08bc 13060000 		li	a2,0
 1508 08c0 9305A000 		li	a1,10
 1509 08c4 03A50400 		lw	a0,0(s1)
 1510 08c8 97000000 		call	_Z8printIntiii@plt
 1510      E7800000 
 1511              	.LVL168:
 377:src/Slab.cpp  ****         printString(" ");
 1512              		.loc 1 377 9 is_stmt 1
 1513              		.loc 1 377 20 is_stmt 0
 1514 08d0 17050000 		lla	a0,.LC9
 1514      13050500 
 1515 08d8 97000000 		call	_Z11printStringPKc@plt
 1515      E7800000 
 1516              	.LVL169:
 375:src/Slab.cpp  ****         printInt(tmp->get_number_of_active_objects());
 1517              		.loc 1 375 5 is_stmt 1
 375:src/Slab.cpp  ****         printInt(tmp->get_number_of_active_objects());
 1518              		.loc 1 375 45 is_stmt 0
 1519 08e0 83B48400 		ld	s1,8(s1)
 1520              	.LVL170:
 375:src/Slab.cpp  ****         printInt(tmp->get_number_of_active_objects());
 1521              		.loc 1 375 5
 1522 08e4 6FF05FFD 		j	.L73
 1523              	.L72:
 1524              	.LBE106:
 378:src/Slab.cpp  ****     }
 379:src/Slab.cpp  ****     printString("\n");
 1525              		.loc 1 379 5 is_stmt 1
 1526              		.loc 1 379 16 is_stmt 0
 1527 08e8 17050000 		lla	a0,.LC2
 1527      13050500 
 1528 08f0 97000000 		call	_Z11printStringPKc@plt
 1528      E7800000 
 1529              	.LVL171:
 380:src/Slab.cpp  ****     printString("puni: ");
 1530              		.loc 1 380 5 is_stmt 1
 1531              		.loc 1 380 16 is_stmt 0
 1532 08f8 17050000 		lla	a0,.LC11
 1532      13050500 
 1533 0900 97000000 		call	_Z11printStringPKc@plt
 1533      E7800000 
 1534              	.LVL172:
 381:src/Slab.cpp  ****     for(Slab* tmp = slabs_full; tmp; tmp = tmp->next){
 1535              		.loc 1 381 5 is_stmt 1
 1536              	.LBB109:
 1537              		.loc 1 381 15 is_stmt 0
 1538 0908 83340900 		ld	s1,0(s2)
 1539              	.LVL173:
GAS LISTING /tmp/ccuk26uq.s 			page 41


 1540              	.L75:
 1541              		.loc 1 381 33 is_stmt 1 discriminator 3
 1542 090c 63880402 		beqz	s1,.L74
 382:src/Slab.cpp  ****         printInt(tmp->get_number_of_active_objects());
 1543              		.loc 1 382 9
 1544              	.LVL174:
 1545              	.LBB110:
 1546              	.LBB111:
  16:src/../h/Slab.h ****     void* return_first_free_object_and_rearange_list(int, int);
 1547              		.loc 3 16 43
 1548              	.LBE111:
 1549              	.LBE110:
 1550              		.loc 1 382 17 is_stmt 0
 1551 0910 13060000 		li	a2,0
 1552 0914 9305A000 		li	a1,10
 1553 0918 03A50400 		lw	a0,0(s1)
 1554 091c 97000000 		call	_Z8printIntiii@plt
 1554      E7800000 
 1555              	.LVL175:
 383:src/Slab.cpp  ****         printString(" ");
 1556              		.loc 1 383 9 is_stmt 1
 1557              		.loc 1 383 20 is_stmt 0
 1558 0924 17050000 		lla	a0,.LC9
 1558      13050500 
 1559 092c 97000000 		call	_Z11printStringPKc@plt
 1559      E7800000 
 1560              	.LVL176:
 381:src/Slab.cpp  ****         printInt(tmp->get_number_of_active_objects());
 1561              		.loc 1 381 5 is_stmt 1
 381:src/Slab.cpp  ****         printInt(tmp->get_number_of_active_objects());
 1562              		.loc 1 381 42 is_stmt 0
 1563 0934 83B48400 		ld	s1,8(s1)
 1564              	.LVL177:
 381:src/Slab.cpp  ****         printInt(tmp->get_number_of_active_objects());
 1565              		.loc 1 381 5
 1566 0938 6FF05FFD 		j	.L75
 1567              	.L74:
 1568              	.LBE109:
 384:src/Slab.cpp  ****     }
 385:src/Slab.cpp  ****     printString("\n");
 1569              		.loc 1 385 5 is_stmt 1
 1570              		.loc 1 385 16 is_stmt 0
 1571 093c 17050000 		lla	a0,.LC2
 1571      13050500 
 1572 0944 97000000 		call	_Z11printStringPKc@plt
 1572      E7800000 
 1573              	.LVL178:
 386:src/Slab.cpp  **** 
 387:src/Slab.cpp  ****     // number of times cache shrank
 388:src/Slab.cpp  ****     printString("Broj uspesnih smanjenja kesa: ");
 1574              		.loc 1 388 5 is_stmt 1
 1575              		.loc 1 388 16 is_stmt 0
 1576 094c 17050000 		lla	a0,.LC12
 1576      13050500 
 1577 0954 97000000 		call	_Z11printStringPKc@plt
 1577      E7800000 
 1578              	.LVL179:
GAS LISTING /tmp/ccuk26uq.s 			page 42


 389:src/Slab.cpp  ****     printInt(shrink);
 1579              		.loc 1 389 5 is_stmt 1
 1580              		.loc 1 389 13 is_stmt 0
 1581 095c 13060000 		li	a2,0
 1582 0960 9305A000 		li	a1,10
 1583 0964 03250908 		lw	a0,128(s2)
 1584 0968 97000000 		call	_Z8printIntiii@plt
 1584      E7800000 
 1585              	.LVL180:
 390:src/Slab.cpp  ****     printString("\n");
 1586              		.loc 1 390 5 is_stmt 1
 1587              		.loc 1 390 16 is_stmt 0
 1588 0970 17050000 		lla	a0,.LC2
 1588      13050500 
 1589 0978 97000000 		call	_Z11printStringPKc@plt
 1589      E7800000 
 1590              	.LVL181:
 391:src/Slab.cpp  **** 
 392:src/Slab.cpp  ****     // metedata
 393:src/Slab.cpp  ****     printString("Velicina metapodataka za kmem_cache_s: ");
 1591              		.loc 1 393 5 is_stmt 1
 1592              		.loc 1 393 16 is_stmt 0
 1593 0980 17050000 		lla	a0,.LC13
 1593      13050500 
 1594 0988 97000000 		call	_Z11printStringPKc@plt
 1594      E7800000 
 1595              	.LVL182:
 394:src/Slab.cpp  ****     printInt(sizeof(kmem_cache_s));
 1596              		.loc 1 394 5 is_stmt 1
 1597              		.loc 1 394 13 is_stmt 0
 1598 0990 13060000 		li	a2,0
 1599 0994 9305A000 		li	a1,10
 1600 0998 13058008 		li	a0,136
 1601 099c 97000000 		call	_Z8printIntiii@plt
 1601      E7800000 
 1602              	.LVL183:
 395:src/Slab.cpp  ****     printString("\n");
 1603              		.loc 1 395 5 is_stmt 1
 1604              		.loc 1 395 16 is_stmt 0
 1605 09a4 17050000 		lla	a0,.LC2
 1605      13050500 
 1606 09ac 97000000 		call	_Z11printStringPKc@plt
 1606      E7800000 
 1607              	.LVL184:
 396:src/Slab.cpp  ****     printString("Velicina metapodataka za Slab: ");
 1608              		.loc 1 396 5 is_stmt 1
 1609              		.loc 1 396 16 is_stmt 0
 1610 09b4 17050000 		lla	a0,.LC14
 1610      13050500 
 1611 09bc 97000000 		call	_Z11printStringPKc@plt
 1611      E7800000 
 1612              	.LVL185:
 397:src/Slab.cpp  ****     size_t size_of_slab = sizeof(Slab) + this->size_of_arr * sizeof(size_t) + sizeof(size_t);
 1613              		.loc 1 397 5 is_stmt 1
 1614              		.loc 1 397 48 is_stmt 0
 1615 09c4 83340904 		ld	s1,64(s2)
 1616              	.LVL186:
GAS LISTING /tmp/ccuk26uq.s 			page 43


 1617              		.loc 1 397 77
 1618 09c8 93844400 		addi	s1,s1,4
 1619              		.loc 1 397 12
 1620 09cc 93943400 		slli	s1,s1,3
 1621              	.LVL187:
 398:src/Slab.cpp  ****     printInt(size_of_slab);
 1622              		.loc 1 398 5 is_stmt 1
 1623              		.loc 1 398 13 is_stmt 0
 1624 09d0 13060000 		li	a2,0
 1625 09d4 9305A000 		li	a1,10
 1626 09d8 1B850400 		sext.w	a0,s1
 1627 09dc 97000000 		call	_Z8printIntiii@plt
 1627      E7800000 
 1628              	.LVL188:
 399:src/Slab.cpp  ****     printString("\n");
 1629              		.loc 1 399 5 is_stmt 1
 1630              		.loc 1 399 16 is_stmt 0
 1631 09e4 17050000 		lla	a0,.LC2
 1631      13050500 
 1632 09ec 97000000 		call	_Z11printStringPKc@plt
 1632      E7800000 
 1633              	.LVL189:
 400:src/Slab.cpp  **** 
 401:src/Slab.cpp  ****     // percentage of fullfilment of cache
 402:src/Slab.cpp  ****     size_t neto = sizeof(kmem_cache_s) + num_of_slabs * size_of_slab + num_active_obj * objsize;
 1634              		.loc 1 402 5 is_stmt 1
 1635              		.loc 1 402 55 is_stmt 0
 1636 09f4 B3849902 		mul	s1,s3,s1
 1637              	.LVL190:
 1638              		.loc 1 402 72
 1639 09f8 83370907 		ld	a5,112(s2)
 1640              		.loc 1 402 89
 1641 09fc 03370903 		ld	a4,48(s2)
 1642              		.loc 1 402 87
 1643 0a00 B387E702 		mul	a5,a5,a4
 1644              		.loc 1 402 70
 1645 0a04 B384F400 		add	s1,s1,a5
 1646              		.loc 1 402 12
 1647 0a08 93848408 		addi	s1,s1,136
 1648              	.LVL191:
 403:src/Slab.cpp  ****     size_t bruto = (1 + num_of_slabs * size_in_blocks) * BLOCK_SIZE;
 1649              		.loc 1 403 5 is_stmt 1
 1650              		.loc 1 403 40 is_stmt 0
 1651 0a0c 033A8904 		ld	s4,72(s2)
 1652              		.loc 1 403 38
 1653 0a10 330A3A03 		mul	s4,s4,s3
 1654              		.loc 1 403 23
 1655 0a14 130A1A00 		addi	s4,s4,1
 1656              		.loc 1 403 12
 1657 0a18 131ACA00 		slli	s4,s4,12
 1658              	.LVL192:
 404:src/Slab.cpp  **** 
 405:src/Slab.cpp  ****     printString("Realna iskoriscenost prostora: ");
 1659              		.loc 1 405 5 is_stmt 1
 1660              		.loc 1 405 16 is_stmt 0
 1661 0a1c 17050000 		lla	a0,.LC15
 1661      13050500 
GAS LISTING /tmp/ccuk26uq.s 			page 44


 1662 0a24 97000000 		call	_Z11printStringPKc@plt
 1662      E7800000 
 1663              	.LVL193:
 406:src/Slab.cpp  ****     printInt(neto);
 1664              		.loc 1 406 5 is_stmt 1
 1665              		.loc 1 406 13 is_stmt 0
 1666 0a2c 13060000 		li	a2,0
 1667 0a30 9305A000 		li	a1,10
 1668 0a34 1B850400 		sext.w	a0,s1
 1669 0a38 97000000 		call	_Z8printIntiii@plt
 1669      E7800000 
 1670              	.LVL194:
 407:src/Slab.cpp  ****     printString("/");
 1671              		.loc 1 407 5 is_stmt 1
 1672              		.loc 1 407 16 is_stmt 0
 1673 0a40 17050000 		lla	a0,.LC16
 1673      13050500 
 1674 0a48 97000000 		call	_Z11printStringPKc@plt
 1674      E7800000 
 1675              	.LVL195:
 408:src/Slab.cpp  ****     printInt(bruto);
 1676              		.loc 1 408 5 is_stmt 1
 1677              		.loc 1 408 13 is_stmt 0
 1678 0a50 13060000 		li	a2,0
 1679 0a54 9305A000 		li	a1,10
 1680 0a58 1B050A00 		sext.w	a0,s4
 1681 0a5c 97000000 		call	_Z8printIntiii@plt
 1681      E7800000 
 1682              	.LVL196:
 409:src/Slab.cpp  ****     printString("\n");
 1683              		.loc 1 409 5 is_stmt 1
 1684              		.loc 1 409 16 is_stmt 0
 1685 0a64 17050000 		lla	a0,.LC2
 1685      13050500 
 1686 0a6c 97000000 		call	_Z11printStringPKc@plt
 1686      E7800000 
 1687              	.LVL197:
 410:src/Slab.cpp  ****     printString("Efektivna iskoriscenost prostora: ");
 1688              		.loc 1 410 5 is_stmt 1
 1689              		.loc 1 410 16 is_stmt 0
 1690 0a74 17050000 		lla	a0,.LC17
 1690      13050500 
 1691 0a7c 97000000 		call	_Z11printStringPKc@plt
 1691      E7800000 
 1692              	.LVL198:
 411:src/Slab.cpp  ****     printInt(num_active_obj * objsize);
 1693              		.loc 1 411 5 is_stmt 1
 1694              		.loc 1 411 14 is_stmt 0
 1695 0a84 03350907 		ld	a0,112(s2)
 1696              		.loc 1 411 31
 1697 0a88 83370903 		ld	a5,48(s2)
 1698              		.loc 1 411 13
 1699 0a8c 13060000 		li	a2,0
 1700 0a90 9305A000 		li	a1,10
 1701 0a94 3B05F502 		mulw	a0,a0,a5
 1702 0a98 97000000 		call	_Z8printIntiii@plt
 1702      E7800000 
GAS LISTING /tmp/ccuk26uq.s 			page 45


 1703              	.LVL199:
 412:src/Slab.cpp  ****     printString("/");
 1704              		.loc 1 412 5 is_stmt 1
 1705              		.loc 1 412 16 is_stmt 0
 1706 0aa0 17050000 		lla	a0,.LC16
 1706      13050500 
 1707 0aa8 97000000 		call	_Z11printStringPKc@plt
 1707      E7800000 
 1708              	.LVL200:
 413:src/Slab.cpp  ****     size_t real_bruto = num_of_slabs * size_in_blocks * BLOCK_SIZE - num_of_slabs * sizeof(Slab);
 1709              		.loc 1 413 5 is_stmt 1
 1710              		.loc 1 413 40 is_stmt 0
 1711 0ab0 03358904 		ld	a0,72(s2)
 1712              		.loc 1 413 38
 1713 0ab4 33053503 		mul	a0,a0,s3
 1714              		.loc 1 413 55
 1715 0ab8 1315C500 		slli	a0,a0,12
 1716              		.loc 1 413 83
 1717 0abc 93971900 		slli	a5,s3,1
 1718 0ac0 B3893701 		add	s3,a5,s3
 1719              	.LVL201:
 1720 0ac4 93993900 		slli	s3,s3,3
 1721              	.LVL202:
 414:src/Slab.cpp  ****     printInt(real_bruto);
 1722              		.loc 1 414 5 is_stmt 1
 1723              		.loc 1 414 13 is_stmt 0
 1724 0ac8 13060000 		li	a2,0
 1725 0acc 9305A000 		li	a1,10
 1726 0ad0 3B053541 		subw	a0,a0,s3
 1727              	.LVL203:
 1728 0ad4 97000000 		call	_Z8printIntiii@plt
 1728      E7800000 
 1729              	.LVL204:
 415:src/Slab.cpp  ****     printString("\n");
 1730              		.loc 1 415 5 is_stmt 1
 1731              		.loc 1 415 16 is_stmt 0
 1732 0adc 17050000 		lla	a0,.LC2
 1732      13050500 
 1733 0ae4 97000000 		call	_Z11printStringPKc@plt
 1733      E7800000 
 1734              	.LVL205:
 416:src/Slab.cpp  **** 
 417:src/Slab.cpp  ****     printString("----------------------- END ----------------------\n");
 1735              		.loc 1 417 5 is_stmt 1
 1736              		.loc 1 417 16 is_stmt 0
 1737 0aec 17050000 		lla	a0,.LC18
 1737      13050500 
 1738 0af4 97000000 		call	_Z11printStringPKc@plt
 1738      E7800000 
 1739              	.LVL206:
 418:src/Slab.cpp  **** }
 1740              		.loc 1 418 1
 1741 0afc 83308102 		ld	ra,40(sp)
 1742              		.cfi_restore 1
 1743 0b00 03340102 		ld	s0,32(sp)
 1744              		.cfi_restore 8
 1745              		.cfi_def_cfa 2, 48
GAS LISTING /tmp/ccuk26uq.s 			page 46


 1746 0b04 83348101 		ld	s1,24(sp)
 1747              		.cfi_restore 9
 1748              	.LVL207:
 1749 0b08 03390101 		ld	s2,16(sp)
 1750              		.cfi_restore 18
 1751              	.LVL208:
 1752 0b0c 83398100 		ld	s3,8(sp)
 1753              		.cfi_restore 19
 1754 0b10 033A0100 		ld	s4,0(sp)
 1755              		.cfi_restore 20
 1756              	.LVL209:
 1757 0b14 13010103 		addi	sp,sp,48
 1758              		.cfi_def_cfa_offset 0
 1759 0b18 67800000 		jr	ra
 1760              		.cfi_endproc
 1761              	.LFE61:
 1763              		.section	.rodata.str1.8
 1764 0204 00000000 		.align	3
 1765              	.LC19:
 1766 0208 0A090909 		.string	"\n\t\t\t ### PRINT ALL CACHES ###\t\t\t\n"
 1766      20232323 
 1766      20505249 
 1766      4E542041 
 1766      4C4C2043 
 1767 022a 00000000 		.align	3
 1767      0000
 1768              	.LC20:
 1769 0230 09090909 		.string	"\t\t\t\t    ### END ###\t\t\t\n"
 1769      20202020 
 1769      23232320 
 1769      454E4420 
 1769      23232309 
 1770              		.text
 1771              		.align	2
 1772              		.globl	_ZN12kmem_cache_s21print_info_all_cachesEv
 1774              	_ZN12kmem_cache_s21print_info_all_cachesEv:
 1775              	.LFB62:
 419:src/Slab.cpp  **** 
 420:src/Slab.cpp  **** void kmem_cache_s::print_info_all_caches() {
 1776              		.loc 1 420 44 is_stmt 1
 1777              		.cfi_startproc
 1778 0b1c 130101FE 		addi	sp,sp,-32
 1779              		.cfi_def_cfa_offset 32
 1780 0b20 233C1100 		sd	ra,24(sp)
 1781 0b24 23388100 		sd	s0,16(sp)
 1782 0b28 23349100 		sd	s1,8(sp)
 1783              		.cfi_offset 1, -8
 1784              		.cfi_offset 8, -16
 1785              		.cfi_offset 9, -24
 1786 0b2c 13040102 		addi	s0,sp,32
 1787              		.cfi_def_cfa 8, 0
 421:src/Slab.cpp  ****     printString("\n\t\t\t ### PRINT ALL CACHES ###\t\t\t\n");
 1788              		.loc 1 421 5
 1789              		.loc 1 421 16 is_stmt 0
 1790 0b30 17050000 		lla	a0,.LC19
 1790      13050500 
 1791 0b38 97000000 		call	_Z11printStringPKc@plt
GAS LISTING /tmp/ccuk26uq.s 			page 47


 1791      E7800000 
 1792              	.LVL210:
 422:src/Slab.cpp  ****     for(kmem_cache_s* tmp = kmem_cache_s::head; tmp; tmp = tmp->next){
 1793              		.loc 1 422 5 is_stmt 1
 1794              	.LBB112:
 1795              		.loc 1 422 23 is_stmt 0
 1796 0b40 97040000 		ld	s1,.LANCHOR0
 1796      83B40400 
 1797              	.LVL211:
 1798              	.L79:
 1799              		.loc 1 422 49 is_stmt 1 discriminator 3
 1800 0b48 638C0400 		beqz	s1,.L78
 423:src/Slab.cpp  ****         tmp->kmem_cache_info();
 1801              		.loc 1 423 9 discriminator 2
 1802              		.loc 1 423 29 is_stmt 0 discriminator 2
 1803 0b4c 13850400 		mv	a0,s1
 1804 0b50 97000000 		call	_ZN12kmem_cache_s15kmem_cache_infoEv
 1804      E7800000 
 1805              	.LVL212:
 422:src/Slab.cpp  ****     for(kmem_cache_s* tmp = kmem_cache_s::head; tmp; tmp = tmp->next){
 1806              		.loc 1 422 5 is_stmt 1 discriminator 2
 422:src/Slab.cpp  ****     for(kmem_cache_s* tmp = kmem_cache_s::head; tmp; tmp = tmp->next){
 1807              		.loc 1 422 58 is_stmt 0 discriminator 2
 1808 0b58 83B48406 		ld	s1,104(s1)
 1809              	.LVL213:
 422:src/Slab.cpp  ****     for(kmem_cache_s* tmp = kmem_cache_s::head; tmp; tmp = tmp->next){
 1810              		.loc 1 422 5 discriminator 2
 1811 0b5c 6FF0DFFE 		j	.L79
 1812              	.L78:
 1813              	.LBE112:
 424:src/Slab.cpp  ****     }
 425:src/Slab.cpp  ****     printString("\t\t\t\t    ### END ###\t\t\t\n");
 1814              		.loc 1 425 5 is_stmt 1
 1815              		.loc 1 425 16 is_stmt 0
 1816 0b60 17050000 		lla	a0,.LC20
 1816      13050500 
 1817 0b68 97000000 		call	_Z11printStringPKc@plt
 1817      E7800000 
 1818              	.LVL214:
 426:src/Slab.cpp  **** }
 1819              		.loc 1 426 1
 1820 0b70 83308101 		ld	ra,24(sp)
 1821              		.cfi_restore 1
 1822 0b74 03340101 		ld	s0,16(sp)
 1823              		.cfi_restore 8
 1824              		.cfi_def_cfa 2, 32
 1825 0b78 83348100 		ld	s1,8(sp)
 1826              		.cfi_restore 9
 1827              	.LVL215:
 1828 0b7c 13010102 		addi	sp,sp,32
 1829              		.cfi_def_cfa_offset 0
 1830 0b80 67800000 		jr	ra
 1831              		.cfi_endproc
 1832              	.LFE62:
 1834              		.align	2
 1835              		.globl	_ZN4Slab42return_first_free_object_and_rearange_listEii
 1837              	_ZN4Slab42return_first_free_object_and_rearange_listEii:
GAS LISTING /tmp/ccuk26uq.s 			page 48


 1838              	.LFB63:
 427:src/Slab.cpp  **** 
 428:src/Slab.cpp  **** void *Slab::return_first_free_object_and_rearange_list(int number_of_objects_in_slab, int size_of_o
 1839              		.loc 1 428 107 is_stmt 1
 1840              		.cfi_startproc
 1841              	.LVL216:
 1842 0b84 130101FD 		addi	sp,sp,-48
 1843              		.cfi_def_cfa_offset 48
 1844 0b88 23341102 		sd	ra,40(sp)
 1845 0b8c 23308102 		sd	s0,32(sp)
 1846 0b90 233C9100 		sd	s1,24(sp)
 1847 0b94 23382101 		sd	s2,16(sp)
 1848 0b98 23343101 		sd	s3,8(sp)
 1849 0b9c 23304101 		sd	s4,0(sp)
 1850              		.cfi_offset 1, -8
 1851              		.cfi_offset 8, -16
 1852              		.cfi_offset 9, -24
 1853              		.cfi_offset 18, -32
 1854              		.cfi_offset 19, -40
 1855              		.cfi_offset 20, -48
 1856 0ba0 13040103 		addi	s0,sp,48
 1857              		.cfi_def_cfa 8, 0
 1858 0ba4 93090500 		mv	s3,a0
 1859 0ba8 13890500 		mv	s2,a1
 1860 0bac 130A0600 		mv	s4,a2
 429:src/Slab.cpp  ****     int i = 0;
 1861              		.loc 1 429 5
 1862              	.LVL217:
 1863              		.loc 1 429 9 is_stmt 0
 1864 0bb0 93040000 		li	s1,0
 1865              	.LVL218:
 1866              	.L83:
 430:src/Slab.cpp  ****     while(i < number_of_objects_in_slab && this->is_active(i)){
 1867              		.loc 1 430 5 is_stmt 1
 1868              		.loc 1 430 41
 1869 0bb4 63D02403 		bge	s1,s2,.L82
 1870              		.loc 1 430 59 is_stmt 0 discriminator 1
 1871 0bb8 93850400 		mv	a1,s1
 1872 0bbc 13850900 		mv	a0,s3
 1873 0bc0 97000000 		call	_ZN4Slab9is_activeEi
 1873      E7800000 
 1874              	.LVL219:
 1875              		.loc 1 430 41 discriminator 1
 1876 0bc8 63060500 		beqz	a0,.L82
 431:src/Slab.cpp  ****         i++;
 1877              		.loc 1 431 9 is_stmt 1
 1878              		.loc 1 431 10 is_stmt 0
 1879 0bcc 9B841400 		addiw	s1,s1,1
 1880              	.LVL220:
 430:src/Slab.cpp  ****     while(i < number_of_objects_in_slab && this->is_active(i)){
 1881              		.loc 1 430 5
 1882 0bd0 6FF05FFE 		j	.L83
 1883              	.LVL221:
 1884              	.L82:
 432:src/Slab.cpp  ****     }
 433:src/Slab.cpp  ****     if(i >= number_of_objects_in_slab)return nullptr; // nece se desiti ali postoji kao ogranicenje
 1885              		.loc 1 433 5 is_stmt 1 discriminator 4
GAS LISTING /tmp/ccuk26uq.s 			page 49


 1886 0bd4 63D22405 		bge	s1,s2,.L85
 434:src/Slab.cpp  ****     this->set_mask(i, true);
 1887              		.loc 1 434 5
 1888              		.loc 1 434 19 is_stmt 0
 1889 0bd8 13061000 		li	a2,1
 1890 0bdc 93850400 		mv	a1,s1
 1891 0be0 13850900 		mv	a0,s3
 1892 0be4 97000000 		call	_ZN4Slab8set_maskEib
 1892      E7800000 
 1893              	.LVL222:
 435:src/Slab.cpp  ****     return (void*)(this->first_addr + size_of_object * i);
 1894              		.loc 1 435 5 is_stmt 1
 1895              		.loc 1 435 26 is_stmt 0
 1896 0bec 03B50901 		ld	a0,16(s3)
 1897              		.loc 1 435 54
 1898 0bf0 BB844403 		mulw	s1,s1,s4
 1899              	.LVL223:
 1900              		.loc 1 435 37
 1901 0bf4 33059500 		add	a0,a0,s1
 1902              	.L81:
 436:src/Slab.cpp  **** }
 1903              		.loc 1 436 1
 1904 0bf8 83308102 		ld	ra,40(sp)
 1905              		.cfi_remember_state
 1906              		.cfi_restore 1
 1907 0bfc 03340102 		ld	s0,32(sp)
 1908              		.cfi_restore 8
 1909              		.cfi_def_cfa 2, 48
 1910 0c00 83348101 		ld	s1,24(sp)
 1911              		.cfi_restore 9
 1912 0c04 03390101 		ld	s2,16(sp)
 1913              		.cfi_restore 18
 1914 0c08 83398100 		ld	s3,8(sp)
 1915              		.cfi_restore 19
 1916              	.LVL224:
 1917 0c0c 033A0100 		ld	s4,0(sp)
 1918              		.cfi_restore 20
 1919 0c10 13010103 		addi	sp,sp,48
 1920              		.cfi_def_cfa_offset 0
 1921 0c14 67800000 		jr	ra
 1922              	.LVL225:
 1923              	.L85:
 1924              		.cfi_restore_state
 433:src/Slab.cpp  ****     this->set_mask(i, true);
 1925              		.loc 1 433 46
 1926 0c18 13050000 		li	a0,0
 1927 0c1c 6FF0DFFD 		j	.L81
 1928              		.cfi_endproc
 1929              	.LFE63:
 1931              		.align	2
 1932              		.globl	_ZN12kmem_cache_s16kmem_cache_allocEv
 1934              	_ZN12kmem_cache_s16kmem_cache_allocEv:
 1935              	.LFB50:
  83:src/Slab.cpp  ****     if(num_slabs_partial != 0){
 1936              		.loc 1 83 40 is_stmt 1
 1937              		.cfi_startproc
 1938              	.LVL226:
GAS LISTING /tmp/ccuk26uq.s 			page 50


 1939 0c20 130101FE 		addi	sp,sp,-32
 1940              		.cfi_def_cfa_offset 32
 1941 0c24 233C1100 		sd	ra,24(sp)
 1942 0c28 23388100 		sd	s0,16(sp)
 1943 0c2c 23349100 		sd	s1,8(sp)
 1944              		.cfi_offset 1, -8
 1945              		.cfi_offset 8, -16
 1946              		.cfi_offset 9, -24
 1947 0c30 13040102 		addi	s0,sp,32
 1948              		.cfi_def_cfa 8, 0
 1949 0c34 93040500 		mv	s1,a0
  84:src/Slab.cpp  ****         void* addr = this->slabs_partial->return_first_free_object_and_rearange_list(this->num, thi
 1950              		.loc 1 84 5
 1951              	.LBB113:
  84:src/Slab.cpp  ****         void* addr = this->slabs_partial->return_first_free_object_and_rearange_list(this->num, thi
 1952              		.loc 1 84 8 is_stmt 0
 1953 0c38 83370502 		ld	a5,32(a0)
  84:src/Slab.cpp  ****         void* addr = this->slabs_partial->return_first_free_object_and_rearange_list(this->num, thi
 1954              		.loc 1 84 5
 1955 0c3c 639E0706 		bnez	a5,.L93
 1956              	.LBE113:
 100:src/Slab.cpp  ****         void* addr1 = this->slabs_free->return_first_free_object_and_rearange_list(this->num, this-
 1957              		.loc 1 100 10 is_stmt 1
 1958              	.LBB126:
 1959              	.LBB114:
 100:src/Slab.cpp  ****         void* addr1 = this->slabs_free->return_first_free_object_and_rearange_list(this->num, this-
 1960              		.loc 1 100 13 is_stmt 0
 1961 0c40 83378502 		ld	a5,40(a0)
 100:src/Slab.cpp  ****         void* addr1 = this->slabs_free->return_first_free_object_and_rearange_list(this->num, this-
 1962              		.loc 1 100 10
 1963 0c44 6382070E 		beqz	a5,.L91
 1964              	.LBB115:
 101:src/Slab.cpp  ****         this->num_active_obj++;
 1965              		.loc 1 101 9 is_stmt 1
 101:src/Slab.cpp  ****         this->num_active_obj++;
 1966              		.loc 1 101 83 is_stmt 0
 1967 0c48 03260503 		lw	a2,48(a0)
 1968 0c4c 83258503 		lw	a1,56(a0)
 1969 0c50 03350501 		ld	a0,16(a0)
 1970              	.LVL227:
 1971 0c54 97000000 		call	_ZN4Slab42return_first_free_object_and_rearange_listEii
 1971      E7800000 
 1972              	.LVL228:
 102:src/Slab.cpp  **** 
 1973              		.loc 1 102 9 is_stmt 1
 102:src/Slab.cpp  **** 
 1974              		.loc 1 102 15 is_stmt 0
 1975 0c5c 83B70407 		ld	a5,112(s1)
 102:src/Slab.cpp  **** 
 1976              		.loc 1 102 29
 1977 0c60 93871700 		addi	a5,a5,1
 1978 0c64 23B8F406 		sd	a5,112(s1)
 105:src/Slab.cpp  ****         this->slabs_free = this->slabs_free->next;
 1979              		.loc 1 105 9 is_stmt 1
 105:src/Slab.cpp  ****         this->slabs_free = this->slabs_free->next;
 1980              		.loc 1 105 15 is_stmt 0
 1981 0c68 83B70401 		ld	a5,16(s1)
GAS LISTING /tmp/ccuk26uq.s 			page 51


 1982              	.LVL229:
 106:src/Slab.cpp  ****         tmp->next = this->slabs_partial;
 1983              		.loc 1 106 9 is_stmt 1
 106:src/Slab.cpp  ****         tmp->next = this->slabs_partial;
 1984              		.loc 1 106 46 is_stmt 0
 1985 0c6c 03B78700 		ld	a4,8(a5)
 106:src/Slab.cpp  ****         tmp->next = this->slabs_partial;
 1986              		.loc 1 106 26
 1987 0c70 23B8E400 		sd	a4,16(s1)
 107:src/Slab.cpp  ****         tmp->increment_num_of_active();
 1988              		.loc 1 107 9 is_stmt 1
 107:src/Slab.cpp  ****         tmp->increment_num_of_active();
 1989              		.loc 1 107 27 is_stmt 0
 1990 0c74 03B78400 		ld	a4,8(s1)
 107:src/Slab.cpp  ****         tmp->increment_num_of_active();
 1991              		.loc 1 107 19
 1992 0c78 23B4E700 		sd	a4,8(a5)
 108:src/Slab.cpp  ****         this->slabs_partial = tmp;
 1993              		.loc 1 108 9 is_stmt 1
 1994              	.LVL230:
 1995              	.LBB116:
 1996              	.LBB117:
  18:src/../h/Slab.h ****     void decrement_num_of_active(){num_active--;}
 1997              		.loc 3 18 36
 1998 0c7c 03B70700 		ld	a4,0(a5)
  18:src/../h/Slab.h ****     void decrement_num_of_active(){num_active--;}
 1999              		.loc 3 18 46 is_stmt 0
 2000 0c80 13071700 		addi	a4,a4,1
 2001 0c84 23B0E700 		sd	a4,0(a5)
 2002              	.LVL231:
 2003              	.LBE117:
 2004              	.LBE116:
 109:src/Slab.cpp  ****         this->num_slabs_free--;
 2005              		.loc 1 109 9 is_stmt 1
 109:src/Slab.cpp  ****         this->num_slabs_free--;
 2006              		.loc 1 109 29 is_stmt 0
 2007 0c88 23B4F400 		sd	a5,8(s1)
 110:src/Slab.cpp  ****         this->num_slabs_partial++;
 2008              		.loc 1 110 9 is_stmt 1
 110:src/Slab.cpp  ****         this->num_slabs_partial++;
 2009              		.loc 1 110 15 is_stmt 0
 2010 0c8c 83B78402 		ld	a5,40(s1)
 2011              	.LVL232:
 110:src/Slab.cpp  ****         this->num_slabs_partial++;
 2012              		.loc 1 110 29
 2013 0c90 9387F7FF 		addi	a5,a5,-1
 2014 0c94 23B4F402 		sd	a5,40(s1)
 111:src/Slab.cpp  **** 
 2015              		.loc 1 111 9 is_stmt 1
 111:src/Slab.cpp  **** 
 2016              		.loc 1 111 15 is_stmt 0
 2017 0c98 83B70402 		ld	a5,32(s1)
 111:src/Slab.cpp  **** 
 2018              		.loc 1 111 32
 2019 0c9c 93871700 		addi	a5,a5,1
 2020 0ca0 23B0F402 		sd	a5,32(s1)
 113:src/Slab.cpp  ****     }
GAS LISTING /tmp/ccuk26uq.s 			page 52


 2021              		.loc 1 113 9 is_stmt 1
 2022              	.LVL233:
 2023              	.L87:
 2024              	.LBE115:
 2025              	.LBE114:
 2026              	.LBE126:
 121:src/Slab.cpp  **** 
 2027              		.loc 1 121 1 is_stmt 0
 2028 0ca4 83308101 		ld	ra,24(sp)
 2029              		.cfi_remember_state
 2030              		.cfi_restore 1
 2031 0ca8 03340101 		ld	s0,16(sp)
 2032              		.cfi_restore 8
 2033              		.cfi_def_cfa 2, 32
 2034 0cac 83348100 		ld	s1,8(sp)
 2035              		.cfi_restore 9
 2036              	.LVL234:
 2037 0cb0 13010102 		addi	sp,sp,32
 2038              		.cfi_def_cfa_offset 0
 2039 0cb4 67800000 		jr	ra
 2040              	.LVL235:
 2041              	.L93:
 2042              		.cfi_restore_state
 2043              	.LBB127:
 2044              	.LBB118:
  85:src/Slab.cpp  ****         this->num_active_obj++;
 2045              		.loc 1 85 9 is_stmt 1
  85:src/Slab.cpp  ****         this->num_active_obj++;
 2046              		.loc 1 85 85 is_stmt 0
 2047 0cb8 03260503 		lw	a2,48(a0)
 2048 0cbc 83258503 		lw	a1,56(a0)
 2049 0cc0 03358500 		ld	a0,8(a0)
 2050 0cc4 97000000 		call	_ZN4Slab42return_first_free_object_and_rearange_listEii
 2050      E7800000 
 2051              	.LVL236:
  86:src/Slab.cpp  ****         this->slabs_partial->increment_num_of_active();
 2052              		.loc 1 86 9 is_stmt 1
  86:src/Slab.cpp  ****         this->slabs_partial->increment_num_of_active();
 2053              		.loc 1 86 15 is_stmt 0
 2054 0ccc 83B70407 		ld	a5,112(s1)
  86:src/Slab.cpp  ****         this->slabs_partial->increment_num_of_active();
 2055              		.loc 1 86 29
 2056 0cd0 93871700 		addi	a5,a5,1
 2057 0cd4 23B8F406 		sd	a5,112(s1)
  87:src/Slab.cpp  **** 
 2058              		.loc 1 87 9 is_stmt 1
  87:src/Slab.cpp  **** 
 2059              		.loc 1 87 15 is_stmt 0
 2060 0cd8 03B78400 		ld	a4,8(s1)
 2061              	.LVL237:
 2062              	.LBB119:
 2063              	.LBB120:
  18:src/../h/Slab.h ****     void decrement_num_of_active(){num_active--;}
 2064              		.loc 3 18 36 is_stmt 1
 2065 0cdc 83370700 		ld	a5,0(a4)
  18:src/../h/Slab.h ****     void decrement_num_of_active(){num_active--;}
 2066              		.loc 3 18 46 is_stmt 0
GAS LISTING /tmp/ccuk26uq.s 			page 53


 2067 0ce0 93871700 		addi	a5,a5,1
 2068 0ce4 2330F700 		sd	a5,0(a4)
 2069              	.LVL238:
 2070              	.LBE120:
 2071              	.LBE119:
  89:src/Slab.cpp  ****             // move from partial to full
 2072              		.loc 1 89 9 is_stmt 1
 2073              	.LBB121:
  89:src/Slab.cpp  ****             // move from partial to full
 2074              		.loc 1 89 18 is_stmt 0
 2075 0ce8 83B78400 		ld	a5,8(s1)
 2076              	.LVL239:
 2077              	.LBB122:
 2078              	.LBB123:
  16:src/../h/Slab.h ****     void* return_first_free_object_and_rearange_list(int, int);
 2079              		.loc 3 16 43 is_stmt 1
  16:src/../h/Slab.h ****     void* return_first_free_object_and_rearange_list(int, int);
 2080              		.loc 3 16 50 is_stmt 0
 2081 0cec 03B70700 		ld	a4,0(a5)
 2082              	.LVL240:
 2083              	.LBE123:
 2084              	.LBE122:
  89:src/Slab.cpp  ****             // move from partial to full
 2085              		.loc 1 89 73
 2086 0cf0 83B68403 		ld	a3,56(s1)
  89:src/Slab.cpp  ****             // move from partial to full
 2087              		.loc 1 89 9
 2088 0cf4 E398E6FA 		bne	a3,a4,.L87
 2089              	.LBB124:
  91:src/Slab.cpp  ****             this->slabs_partial = this->slabs_partial->next;
 2090              		.loc 1 91 13 is_stmt 1
 2091              	.LVL241:
  92:src/Slab.cpp  ****             tmp->next = this->slabs_full;
 2092              		.loc 1 92 13
  92:src/Slab.cpp  ****             tmp->next = this->slabs_full;
 2093              		.loc 1 92 56 is_stmt 0
 2094 0cf8 03B78700 		ld	a4,8(a5)
  92:src/Slab.cpp  ****             tmp->next = this->slabs_full;
 2095              		.loc 1 92 33
 2096 0cfc 23B4E400 		sd	a4,8(s1)
  93:src/Slab.cpp  ****             this->slabs_full = tmp;
 2097              		.loc 1 93 13 is_stmt 1
  93:src/Slab.cpp  ****             this->slabs_full = tmp;
 2098              		.loc 1 93 31 is_stmt 0
 2099 0d00 03B70400 		ld	a4,0(s1)
  93:src/Slab.cpp  ****             this->slabs_full = tmp;
 2100              		.loc 1 93 23
 2101 0d04 23B4E700 		sd	a4,8(a5)
  94:src/Slab.cpp  ****             this->num_slabs_partial--;
 2102              		.loc 1 94 13 is_stmt 1
  94:src/Slab.cpp  ****             this->num_slabs_partial--;
 2103              		.loc 1 94 30 is_stmt 0
 2104 0d08 23B0F400 		sd	a5,0(s1)
  95:src/Slab.cpp  ****             this->num_slabs_full++;
 2105              		.loc 1 95 13 is_stmt 1
  95:src/Slab.cpp  ****             this->num_slabs_full++;
 2106              		.loc 1 95 19 is_stmt 0
GAS LISTING /tmp/ccuk26uq.s 			page 54


 2107 0d0c 83B70402 		ld	a5,32(s1)
 2108              	.LVL242:
  95:src/Slab.cpp  ****             this->num_slabs_full++;
 2109              		.loc 1 95 36
 2110 0d10 9387F7FF 		addi	a5,a5,-1
 2111 0d14 23B0F402 		sd	a5,32(s1)
  96:src/Slab.cpp  ****         }
 2112              		.loc 1 96 13 is_stmt 1
  96:src/Slab.cpp  ****         }
 2113              		.loc 1 96 19 is_stmt 0
 2114 0d18 83B78401 		ld	a5,24(s1)
  96:src/Slab.cpp  ****         }
 2115              		.loc 1 96 33
 2116 0d1c 93871700 		addi	a5,a5,1
 2117 0d20 23BCF400 		sd	a5,24(s1)
 2118              	.LBE124:
 2119              	.LBE121:
  98:src/Slab.cpp  ****     }
 2120              		.loc 1 98 9 is_stmt 1
  98:src/Slab.cpp  ****     }
 2121              		.loc 1 98 16 is_stmt 0
 2122 0d24 6FF01FF8 		j	.L87
 2123              	.LVL243:
 2124              	.L91:
 2125              	.LBE118:
 2126              	.LBB125:
 117:src/Slab.cpp  ****         this->growing = true;
 2127              		.loc 1 117 9 is_stmt 1
 117:src/Slab.cpp  ****         this->growing = true;
 2128              		.loc 1 117 25 is_stmt 0
 2129 0d28 97000000 		call	_ZN12kmem_cache_s16create_free_slabEv
 2129      E7800000 
 2130              	.LVL244:
 118:src/Slab.cpp  ****         return nullptr;
 2131              		.loc 1 118 9 is_stmt 1
 118:src/Slab.cpp  ****         return nullptr;
 2132              		.loc 1 118 23 is_stmt 0
 2133 0d30 93071000 		li	a5,1
 2134 0d34 238CF406 		sb	a5,120(s1)
 119:src/Slab.cpp  ****     }
 2135              		.loc 1 119 9 is_stmt 1
 119:src/Slab.cpp  ****     }
 2136              		.loc 1 119 16 is_stmt 0
 2137 0d38 13050000 		li	a0,0
 2138 0d3c 6FF09FF6 		j	.L87
 2139              	.LBE125:
 2140              	.LBE127:
 2141              		.cfi_endproc
 2142              	.LFE50:
 2144              		.align	2
 2145              		.globl	_ZN12kmem_cache_s7kmallocEm
 2147              	_ZN12kmem_cache_s7kmallocEm:
 2148              	.LFB55:
 239:src/Slab.cpp  ****     // kreiraj ime
 2149              		.loc 1 239 42 is_stmt 1
 2150              		.cfi_startproc
 2151              	.LVL245:
GAS LISTING /tmp/ccuk26uq.s 			page 55


 2152 0d40 130101FE 		addi	sp,sp,-32
 2153              		.cfi_def_cfa_offset 32
 2154 0d44 233C1100 		sd	ra,24(sp)
 2155 0d48 23388100 		sd	s0,16(sp)
 2156 0d4c 23349100 		sd	s1,8(sp)
 2157 0d50 23302101 		sd	s2,0(sp)
 2158              		.cfi_offset 1, -8
 2159              		.cfi_offset 8, -16
 2160              		.cfi_offset 9, -24
 2161              		.cfi_offset 18, -32
 2162 0d54 13040102 		addi	s0,sp,32
 2163              		.cfi_def_cfa 8, 0
 2164 0d58 93040500 		mv	s1,a0
 241:src/Slab.cpp  **** 
 2165              		.loc 1 241 5
 241:src/Slab.cpp  **** 
 2166              		.loc 1 241 61 is_stmt 0
 2167 0d5c 1B050500 		sext.w	a0,a0
 2168              	.LVL246:
 2169 0d60 97000000 		call	_Z27concatenate_int_to_char_ptri@plt
 2169      E7800000 
 2170              	.LVL247:
 2171 0d68 13090500 		mv	s2,a0
 2172              	.LVL248:
 243:src/Slab.cpp  ****     if(tmp == nullptr){
 2173              		.loc 1 243 5 is_stmt 1
 243:src/Slab.cpp  ****     if(tmp == nullptr){
 2174              		.loc 1 243 45 is_stmt 0
 2175 0d6c 97000000 		call	_ZN12kmem_cache_s20check_if_name_existsEPKc
 2175      E7800000 
 2176              	.LVL249:
 244:src/Slab.cpp  ****         // napravi novi
 2177              		.loc 1 244 5 is_stmt 1
 2178 0d74 63020502 		beqz	a0,.L98
 2179              	.L95:
 250:src/Slab.cpp  ****     return elem;
 2180              		.loc 1 250 5
 250:src/Slab.cpp  ****     return elem;
 2181              		.loc 1 250 39 is_stmt 0
 2182 0d78 97000000 		call	_ZN12kmem_cache_s16kmem_cache_allocEv
 2182      E7800000 
 2183              	.LVL250:
 251:src/Slab.cpp  **** }
 2184              		.loc 1 251 5 is_stmt 1
 2185              	.L94:
 252:src/Slab.cpp  **** 
 2186              		.loc 1 252 1 is_stmt 0
 2187 0d80 83308101 		ld	ra,24(sp)
 2188              		.cfi_remember_state
 2189              		.cfi_restore 1
 2190 0d84 03340101 		ld	s0,16(sp)
 2191              		.cfi_restore 8
 2192              		.cfi_def_cfa 2, 32
 2193 0d88 83348100 		ld	s1,8(sp)
 2194              		.cfi_restore 9
 2195              	.LVL251:
 2196 0d8c 03390100 		ld	s2,0(sp)
GAS LISTING /tmp/ccuk26uq.s 			page 56


 2197              		.cfi_restore 18
 2198              	.LVL252:
 2199 0d90 13010102 		addi	sp,sp,32
 2200              		.cfi_def_cfa_offset 0
 2201 0d94 67800000 		jr	ra
 2202              	.LVL253:
 2203              	.L98:
 2204              		.cfi_restore_state
 246:src/Slab.cpp  ****         if(!tmp)return nullptr;
 2205              		.loc 1 246 9 is_stmt 1
 246:src/Slab.cpp  ****         if(!tmp)return nullptr;
 2206              		.loc 1 246 47 is_stmt 0
 2207 0d98 93060000 		li	a3,0
 2208 0d9c 13060000 		li	a2,0
 2209 0da0 93850400 		mv	a1,s1
 2210 0da4 13050900 		mv	a0,s2
 2211              	.LVL254:
 2212 0da8 97000000 		call	_ZN12kmem_cache_s17kmem_cache_createEPKcmPFvPvES4_
 2212      E7800000 
 2213              	.LVL255:
 247:src/Slab.cpp  ****     }
 2214              		.loc 1 247 9 is_stmt 1
 2215 0db0 E31405FC 		bnez	a0,.L95
 2216 0db4 6FF0DFFC 		j	.L94
 2217              		.cfi_endproc
 2218              	.LFE55:
 2220              		.align	2
 2221              		.globl	_ZN4Slab10clear_slabEiiPFvPvE
 2223              	_ZN4Slab10clear_slabEiiPFvPvE:
 2224              	.LFB64:
 437:src/Slab.cpp  **** 
 438:src/Slab.cpp  **** void Slab::clear_slab(int num_of_objects_in_slab, int objsize, void (*dtor)(void *)) {
 2225              		.loc 1 438 86
 2226              		.cfi_startproc
 2227              	.LVL256:
 439:src/Slab.cpp  ****     if(dtor == nullptr)return;
 2228              		.loc 1 439 5
 2229 0db8 638A0608 		beqz	a3,.L104
 438:src/Slab.cpp  ****     if(dtor == nullptr)return;
 2230              		.loc 1 438 86 is_stmt 0
 2231 0dbc 130101FC 		addi	sp,sp,-64
 2232              		.cfi_def_cfa_offset 64
 2233 0dc0 233C1102 		sd	ra,56(sp)
 2234 0dc4 23388102 		sd	s0,48(sp)
 2235 0dc8 23349102 		sd	s1,40(sp)
 2236 0dcc 23302103 		sd	s2,32(sp)
 2237 0dd0 233C3101 		sd	s3,24(sp)
 2238 0dd4 23384101 		sd	s4,16(sp)
 2239 0dd8 23345101 		sd	s5,8(sp)
 2240              		.cfi_offset 1, -8
 2241              		.cfi_offset 8, -16
 2242              		.cfi_offset 9, -24
 2243              		.cfi_offset 18, -32
 2244              		.cfi_offset 19, -40
 2245              		.cfi_offset 20, -48
 2246              		.cfi_offset 21, -56
 2247 0ddc 13040104 		addi	s0,sp,64
GAS LISTING /tmp/ccuk26uq.s 			page 57


 2248              		.cfi_def_cfa 8, 0
 2249 0de0 13090500 		mv	s2,a0
 2250 0de4 93890500 		mv	s3,a1
 2251 0de8 930A0600 		mv	s5,a2
 2252 0dec 138A0600 		mv	s4,a3
 2253              	.LBB128:
 440:src/Slab.cpp  ****     for(int i = 0; i < num_of_objects_in_slab; i++){
 2254              		.loc 1 440 13
 2255 0df0 93040000 		li	s1,0
 2256 0df4 6F008000 		j	.L102
 2257              	.LVL257:
 2258              	.L101:
 2259              		.loc 1 440 5 is_stmt 1 discriminator 2
 2260 0df8 9B841400 		addiw	s1,s1,1
 2261              	.LVL258:
 2262              	.L102:
 2263              		.loc 1 440 22 discriminator 1
 2264 0dfc 63D63403 		bge	s1,s3,.L99
 441:src/Slab.cpp  ****         if(this->is_active(i)){
 2265              		.loc 1 441 9
 2266              		.loc 1 441 27 is_stmt 0
 2267 0e00 93850400 		mv	a1,s1
 2268 0e04 13050900 		mv	a0,s2
 2269 0e08 97000000 		call	_ZN4Slab9is_activeEi
 2269      E7800000 
 2270              	.LVL259:
 2271              		.loc 1 441 9
 2272 0e10 E30405FE 		beqz	a0,.L101
 442:src/Slab.cpp  ****             dtor((void*)(this->first_addr + i * objsize));
 2273              		.loc 1 442 13 is_stmt 1
 2274              		.loc 1 442 32 is_stmt 0
 2275 0e14 03350901 		ld	a0,16(s2)
 2276              		.loc 1 442 47
 2277 0e18 BB875403 		mulw	a5,s1,s5
 2278              		.loc 1 442 17
 2279 0e1c 3305F500 		add	a0,a0,a5
 2280 0e20 E7000A00 		jalr	s4
 2281              	.LVL260:
 2282 0e24 6FF05FFD 		j	.L101
 2283              	.L99:
 2284              	.LBE128:
 443:src/Slab.cpp  ****         }
 444:src/Slab.cpp  ****     }
 445:src/Slab.cpp  **** }
 2285              		.loc 1 445 1
 2286 0e28 83308103 		ld	ra,56(sp)
 2287              		.cfi_restore 1
 2288 0e2c 03340103 		ld	s0,48(sp)
 2289              		.cfi_restore 8
 2290              		.cfi_def_cfa 2, 64
 2291 0e30 83348102 		ld	s1,40(sp)
 2292              		.cfi_restore 9
 2293              	.LVL261:
 2294 0e34 03390102 		ld	s2,32(sp)
 2295              		.cfi_restore 18
 2296              	.LVL262:
 2297 0e38 83398101 		ld	s3,24(sp)
GAS LISTING /tmp/ccuk26uq.s 			page 58


 2298              		.cfi_restore 19
 2299 0e3c 033A0101 		ld	s4,16(sp)
 2300              		.cfi_restore 20
 2301              	.LVL263:
 2302 0e40 833A8100 		ld	s5,8(sp)
 2303              		.cfi_restore 21
 2304 0e44 13010104 		addi	sp,sp,64
 2305              		.cfi_def_cfa_offset 0
 2306 0e48 67800000 		jr	ra
 2307              	.LVL264:
 2308              	.L104:
 2309 0e4c 67800000 		ret
 2310              		.cfi_endproc
 2311              	.LFE64:
 2313              		.align	2
 2314              		.globl	_ZN12kmem_cache_s17kmem_cache_shrinkEv
 2316              	_ZN12kmem_cache_s17kmem_cache_shrinkEv:
 2317              	.LFB49:
  63:src/Slab.cpp  ****     if(this->growing){
 2318              		.loc 1 63 42 is_stmt 1
 2319              		.cfi_startproc
 2320              	.LVL265:
 2321 0e50 130101FD 		addi	sp,sp,-48
 2322              		.cfi_def_cfa_offset 48
 2323 0e54 23341102 		sd	ra,40(sp)
 2324 0e58 23308102 		sd	s0,32(sp)
 2325 0e5c 233C9100 		sd	s1,24(sp)
 2326 0e60 23382101 		sd	s2,16(sp)
 2327 0e64 23343101 		sd	s3,8(sp)
 2328 0e68 23304101 		sd	s4,0(sp)
 2329              		.cfi_offset 1, -8
 2330              		.cfi_offset 8, -16
 2331              		.cfi_offset 9, -24
 2332              		.cfi_offset 18, -32
 2333              		.cfi_offset 19, -40
 2334              		.cfi_offset 20, -48
 2335 0e6c 13040103 		addi	s0,sp,48
 2336              		.cfi_def_cfa 8, 0
 2337 0e70 13090500 		mv	s2,a0
  64:src/Slab.cpp  ****         this->growing = false;
 2338              		.loc 1 64 5
  64:src/Slab.cpp  ****         this->growing = false;
 2339              		.loc 1 64 14 is_stmt 0
 2340 0e74 83478507 		lbu	a5,120(a0)
  64:src/Slab.cpp  ****         this->growing = false;
 2341              		.loc 1 64 5
 2342 0e78 63980700 		bnez	a5,.L114
  68:src/Slab.cpp  ****     int cnt = (int)this->num_slabs_free;
 2343              		.loc 1 68 5 is_stmt 1
  68:src/Slab.cpp  ****     int cnt = (int)this->num_slabs_free;
 2344              		.loc 1 68 11 is_stmt 0
 2345 0e7c 83340501 		ld	s1,16(a0)
 2346              	.LVL266:
  69:src/Slab.cpp  ****     while(curr){
 2347              		.loc 1 69 5 is_stmt 1
  69:src/Slab.cpp  ****     while(curr){
 2348              		.loc 1 69 9 is_stmt 0
GAS LISTING /tmp/ccuk26uq.s 			page 59


 2349 0e80 032A8502 		lw	s4,40(a0)
 2350              	.LVL267:
 2351 0e84 6F004004 		j	.L112
 2352              	.LVL268:
 2353              	.L114:
  65:src/Slab.cpp  ****         return 0;
 2354              		.loc 1 65 9 is_stmt 1
  65:src/Slab.cpp  ****         return 0;
 2355              		.loc 1 65 23 is_stmt 0
 2356 0e88 230C0506 		sb	zero,120(a0)
  66:src/Slab.cpp  ****     }
 2357              		.loc 1 66 9 is_stmt 1
  66:src/Slab.cpp  ****     }
 2358              		.loc 1 66 16 is_stmt 0
 2359 0e8c 13050000 		li	a0,0
 2360              	.LVL269:
 2361 0e90 6F008008 		j	.L107
 2362              	.LVL270:
 2363              	.L115:
 2364              	.LBB129:
 2365              	.LBB130:
  17:src/../h/../h/Buddy.h ****         if(block_num != 0 && space != nullptr){
 2366              		.loc 2 17 28
 2367 0e94 17050000 		lla	a0,_ZZN11BuddySystem11getInstanceEPviE2bs
 2367      13050500 
 2368 0e9c 97000000 		call	_ZN11BuddySystemC1Ev@plt
 2368      E7800000 
 2369              	.LVL271:
 2370 0ea4 93071000 		li	a5,1
 2371 0ea8 17070000 		sb	a5,_ZGVZN11BuddySystem11getInstanceEPviE2bs,a4
 2371      2300F700 
 2372              	.L111:
  18:src/../h/../h/Buddy.h ****             bs.buddyHeapStart = (size_t)space;
 2373              		.loc 2 18 9 is_stmt 1
 2374              		.loc 2 23 9
 2375              	.LVL272:
 2376              	.LBE130:
 2377              	.LBE129:
  74:src/Slab.cpp  ****     }
 2378              		.loc 1 74 45 is_stmt 0
 2379 0eb0 93850400 		mv	a1,s1
 2380 0eb4 17050000 		lla	a0,_ZZN11BuddySystem11getInstanceEPviE2bs
 2380      13050500 
 2381 0ebc 97000000 		call	_ZN11BuddySystem9buddyFreeEm@plt
 2381      E7800000 
 2382              	.LVL273:
  72:src/Slab.cpp  ****         prev->clear_slab(num, objsize, dtor);
 2383              		.loc 1 72 14
 2384 0ec4 93840900 		mv	s1,s3
 2385              	.LVL274:
 2386              	.L112:
  70:src/Slab.cpp  ****         prev = curr;
 2387              		.loc 1 70 5 is_stmt 1
  70:src/Slab.cpp  ****         prev = curr;
 2388              		.loc 1 70 11
 2389 0ec8 63880402 		beqz	s1,.L110
  71:src/Slab.cpp  ****         curr = curr->next;
GAS LISTING /tmp/ccuk26uq.s 			page 60


 2390              		.loc 1 71 9
 2391              	.LVL275:
  72:src/Slab.cpp  ****         prev->clear_slab(num, objsize, dtor);
 2392              		.loc 1 72 9
  72:src/Slab.cpp  ****         prev->clear_slab(num, objsize, dtor);
 2393              		.loc 1 72 14 is_stmt 0
 2394 0ecc 83B98400 		ld	s3,8(s1)
 2395              	.LVL276:
  73:src/Slab.cpp  ****         BuddySystem::getInstance().buddyFree((size_t)prev);
 2396              		.loc 1 73 9 is_stmt 1
  73:src/Slab.cpp  ****         BuddySystem::getInstance().buddyFree((size_t)prev);
 2397              		.loc 1 73 25 is_stmt 0
 2398 0ed0 83368905 		ld	a3,88(s2)
 2399 0ed4 03260903 		lw	a2,48(s2)
 2400 0ed8 83258903 		lw	a1,56(s2)
 2401 0edc 13850400 		mv	a0,s1
 2402 0ee0 97000000 		call	_ZN4Slab10clear_slabEiiPFvPvE
 2402      E7800000 
 2403              	.LVL277:
  74:src/Slab.cpp  ****     }
 2404              		.loc 1 74 9 is_stmt 1
 2405              	.LBB132:
 2406              	.LBB131:
  17:src/../h/../h/Buddy.h ****         if(block_num != 0 && space != nullptr){
 2407              		.loc 2 17 9
  17:src/../h/../h/Buddy.h ****         if(block_num != 0 && space != nullptr){
 2408              		.loc 2 17 28 is_stmt 0
 2409 0ee8 97070000 		lbu	a5,_ZGVZN11BuddySystem11getInstanceEPviE2bs
 2409      83C70700 
 2410 0ef0 E39007FC 		bnez	a5,.L111
 2411 0ef4 6FF01FFA 		j	.L115
 2412              	.LVL278:
 2413              	.L110:
 2414              	.LBE131:
 2415              	.LBE132:
  76:src/Slab.cpp  ****     this->num_slabs_free = 0;
 2416              		.loc 1 76 5 is_stmt 1
  76:src/Slab.cpp  ****     this->num_slabs_free = 0;
 2417              		.loc 1 76 22 is_stmt 0
 2418 0ef8 23380900 		sd	zero,16(s2)
  77:src/Slab.cpp  ****     this->growing = false;
 2419              		.loc 1 77 5 is_stmt 1
  77:src/Slab.cpp  ****     this->growing = false;
 2420              		.loc 1 77 26 is_stmt 0
 2421 0efc 23340902 		sd	zero,40(s2)
  78:src/Slab.cpp  ****     this->shrink++;
 2422              		.loc 1 78 5 is_stmt 1
  78:src/Slab.cpp  ****     this->shrink++;
 2423              		.loc 1 78 19 is_stmt 0
 2424 0f00 230C0906 		sb	zero,120(s2)
  79:src/Slab.cpp  ****     return cnt * this->size_in_blocks;
 2425              		.loc 1 79 5 is_stmt 1
  79:src/Slab.cpp  ****     return cnt * this->size_in_blocks;
 2426              		.loc 1 79 11 is_stmt 0
 2427 0f04 83370908 		ld	a5,128(s2)
  79:src/Slab.cpp  ****     return cnt * this->size_in_blocks;
 2428              		.loc 1 79 17
GAS LISTING /tmp/ccuk26uq.s 			page 61


 2429 0f08 93871700 		addi	a5,a5,1
 2430 0f0c 2330F908 		sd	a5,128(s2)
  80:src/Slab.cpp  **** }
 2431              		.loc 1 80 5 is_stmt 1
  80:src/Slab.cpp  **** }
 2432              		.loc 1 80 24 is_stmt 0
 2433 0f10 03358904 		ld	a0,72(s2)
 2434 0f14 3305AA02 		mul	a0,s4,a0
 2435              	.LVL279:
 2436              	.L107:
  81:src/Slab.cpp  **** 
 2437              		.loc 1 81 1
 2438 0f18 83308102 		ld	ra,40(sp)
 2439              		.cfi_restore 1
 2440 0f1c 03340102 		ld	s0,32(sp)
 2441              		.cfi_restore 8
 2442              		.cfi_def_cfa 2, 48
 2443 0f20 83348101 		ld	s1,24(sp)
 2444              		.cfi_restore 9
 2445 0f24 03390101 		ld	s2,16(sp)
 2446              		.cfi_restore 18
 2447              	.LVL280:
 2448 0f28 83398100 		ld	s3,8(sp)
 2449              		.cfi_restore 19
 2450 0f2c 033A0100 		ld	s4,0(sp)
 2451              		.cfi_restore 20
 2452 0f30 13010103 		addi	sp,sp,48
 2453              		.cfi_def_cfa_offset 0
 2454 0f34 67800000 		jr	ra
 2455              		.cfi_endproc
 2456              	.LFE49:
 2458              		.align	2
 2459              		.globl	_ZN12kmem_cache_s18kmem_cache_destroyEm
 2461              	_ZN12kmem_cache_s18kmem_cache_destroyEm:
 2462              	.LFB60:
 295:src/Slab.cpp  ****     Slab *prev = nullptr, *tmp = this->slabs_full;
 2463              		.loc 1 295 51 is_stmt 1
 2464              		.cfi_startproc
 2465              	.LVL281:
 2466 0f38 130101FD 		addi	sp,sp,-48
 2467              		.cfi_def_cfa_offset 48
 2468 0f3c 23341102 		sd	ra,40(sp)
 2469 0f40 23308102 		sd	s0,32(sp)
 2470 0f44 233C9100 		sd	s1,24(sp)
 2471 0f48 23382101 		sd	s2,16(sp)
 2472 0f4c 23343101 		sd	s3,8(sp)
 2473 0f50 23304101 		sd	s4,0(sp)
 2474              		.cfi_offset 1, -8
 2475              		.cfi_offset 8, -16
 2476              		.cfi_offset 9, -24
 2477              		.cfi_offset 18, -32
 2478              		.cfi_offset 19, -40
 2479              		.cfi_offset 20, -48
 2480 0f54 13040103 		addi	s0,sp,48
 2481              		.cfi_def_cfa 8, 0
 2482 0f58 93040500 		mv	s1,a0
 2483 0f5c 138A0500 		mv	s4,a1
GAS LISTING /tmp/ccuk26uq.s 			page 62


 296:src/Slab.cpp  ****     while (tmp) {
 2484              		.loc 1 296 5
 2485              	.LVL282:
 296:src/Slab.cpp  ****     while (tmp) {
 2486              		.loc 1 296 28 is_stmt 0
 2487 0f60 03390500 		ld	s2,0(a0)
 2488              	.LVL283:
 2489 0f64 6F00C001 		j	.L119
 2490              	.LVL284:
 2491              	.L118:
 2492              	.LBB133:
 2493              	.LBB134:
  18:src/../h/../h/Buddy.h ****             bs.buddyHeapStart = (size_t)space;
 2494              		.loc 2 18 9 is_stmt 1
 2495              		.loc 2 23 9
 2496              	.LBE134:
 2497              	.LBE133:
 301:src/Slab.cpp  ****     }
 2498              		.loc 1 301 45 is_stmt 0
 2499 0f68 93050900 		mv	a1,s2
 2500 0f6c 17050000 		lla	a0,_ZZN11BuddySystem11getInstanceEPviE2bs
 2500      13050500 
 2501 0f74 97000000 		call	_ZN11BuddySystem9buddyFreeEm@plt
 2501      E7800000 
 2502              	.LVL285:
 299:src/Slab.cpp  ****         prev->clear_slab((int)num, (int)objsize, dtor);
 2503              		.loc 1 299 13
 2504 0f7c 13890900 		mv	s2,s3
 2505              	.LVL286:
 2506              	.L119:
 297:src/Slab.cpp  ****         prev = tmp;
 2507              		.loc 1 297 5 is_stmt 1
 297:src/Slab.cpp  ****         prev = tmp;
 2508              		.loc 1 297 12
 2509 0f80 63060904 		beqz	s2,.L117
 298:src/Slab.cpp  ****         tmp = tmp->next;
 2510              		.loc 1 298 9
 2511              	.LVL287:
 299:src/Slab.cpp  ****         prev->clear_slab((int)num, (int)objsize, dtor);
 2512              		.loc 1 299 9
 299:src/Slab.cpp  ****         prev->clear_slab((int)num, (int)objsize, dtor);
 2513              		.loc 1 299 13 is_stmt 0
 2514 0f84 83398900 		ld	s3,8(s2)
 2515              	.LVL288:
 300:src/Slab.cpp  ****         BuddySystem::getInstance().buddyFree((size_t)prev);
 2516              		.loc 1 300 9 is_stmt 1
 300:src/Slab.cpp  ****         BuddySystem::getInstance().buddyFree((size_t)prev);
 2517              		.loc 1 300 25 is_stmt 0
 2518 0f88 83B68405 		ld	a3,88(s1)
 2519 0f8c 03A60403 		lw	a2,48(s1)
 2520 0f90 83A58403 		lw	a1,56(s1)
 2521 0f94 13050900 		mv	a0,s2
 2522 0f98 97000000 		call	_ZN4Slab10clear_slabEiiPFvPvE
 2522      E7800000 
 2523              	.LVL289:
 301:src/Slab.cpp  ****     }
 2524              		.loc 1 301 9 is_stmt 1
GAS LISTING /tmp/ccuk26uq.s 			page 63


 2525              	.LBB136:
 2526              	.LBB135:
  17:src/../h/../h/Buddy.h ****         if(block_num != 0 && space != nullptr){
 2527              		.loc 2 17 9
  17:src/../h/../h/Buddy.h ****         if(block_num != 0 && space != nullptr){
 2528              		.loc 2 17 28 is_stmt 0
 2529 0fa0 97070000 		lbu	a5,_ZGVZN11BuddySystem11getInstanceEPviE2bs
 2529      83C70700 
 2530 0fa8 E39007FC 		bnez	a5,.L118
 2531 0fac 17050000 		lla	a0,_ZZN11BuddySystem11getInstanceEPviE2bs
 2531      13050500 
 2532 0fb4 97000000 		call	_ZN11BuddySystemC1Ev@plt
 2532      E7800000 
 2533              	.LVL290:
 2534 0fbc 93071000 		li	a5,1
 2535 0fc0 17070000 		sb	a5,_ZGVZN11BuddySystem11getInstanceEPviE2bs,a4
 2535      2300F700 
 2536 0fc8 6FF01FFA 		j	.L118
 2537              	.LVL291:
 2538              	.L117:
 2539              	.LBE135:
 2540              	.LBE136:
 303:src/Slab.cpp  ****     while (tmp) {
 2541              		.loc 1 303 5 is_stmt 1
 303:src/Slab.cpp  ****     while (tmp) {
 2542              		.loc 1 303 21
 303:src/Slab.cpp  ****     while (tmp) {
 2543              		.loc 1 303 25 is_stmt 0
 2544 0fcc 03B98400 		ld	s2,8(s1)
 2545              	.LVL292:
 2546 0fd0 6F008003 		j	.L122
 2547              	.LVL293:
 2548              	.L132:
 2549              	.LBB137:
 2550              	.LBB138:
  17:src/../h/../h/Buddy.h ****         if(block_num != 0 && space != nullptr){
 2551              		.loc 2 17 28
 2552 0fd4 17050000 		lla	a0,_ZZN11BuddySystem11getInstanceEPviE2bs
 2552      13050500 
 2553 0fdc 97000000 		call	_ZN11BuddySystemC1Ev@plt
 2553      E7800000 
 2554              	.LVL294:
 2555 0fe4 93071000 		li	a5,1
 2556 0fe8 17070000 		sb	a5,_ZGVZN11BuddySystem11getInstanceEPviE2bs,a4
 2556      2300F700 
 2557              	.L121:
  18:src/../h/../h/Buddy.h ****             bs.buddyHeapStart = (size_t)space;
 2558              		.loc 2 18 9 is_stmt 1
 2559              		.loc 2 23 9
 2560              	.LVL295:
 2561              	.LBE138:
 2562              	.LBE137:
 308:src/Slab.cpp  ****     }
 2563              		.loc 1 308 45 is_stmt 0
 2564 0ff0 93050900 		mv	a1,s2
 2565 0ff4 17050000 		lla	a0,_ZZN11BuddySystem11getInstanceEPviE2bs
 2565      13050500 
GAS LISTING /tmp/ccuk26uq.s 			page 64


 2566 0ffc 97000000 		call	_ZN11BuddySystem9buddyFreeEm@plt
 2566      E7800000 
 2567              	.LVL296:
 306:src/Slab.cpp  ****         prev->clear_slab((int)num, (int)objsize, dtor);
 2568              		.loc 1 306 13
 2569 1004 13890900 		mv	s2,s3
 2570              	.LVL297:
 2571              	.L122:
 304:src/Slab.cpp  ****         prev = tmp;
 2572              		.loc 1 304 5 is_stmt 1
 304:src/Slab.cpp  ****         prev = tmp;
 2573              		.loc 1 304 12
 2574 1008 63080902 		beqz	s2,.L120
 305:src/Slab.cpp  ****         tmp = tmp->next;
 2575              		.loc 1 305 9
 2576              	.LVL298:
 306:src/Slab.cpp  ****         prev->clear_slab((int)num, (int)objsize, dtor);
 2577              		.loc 1 306 9
 306:src/Slab.cpp  ****         prev->clear_slab((int)num, (int)objsize, dtor);
 2578              		.loc 1 306 13 is_stmt 0
 2579 100c 83398900 		ld	s3,8(s2)
 2580              	.LVL299:
 307:src/Slab.cpp  ****         BuddySystem::getInstance().buddyFree((size_t)prev);
 2581              		.loc 1 307 9 is_stmt 1
 307:src/Slab.cpp  ****         BuddySystem::getInstance().buddyFree((size_t)prev);
 2582              		.loc 1 307 25 is_stmt 0
 2583 1010 83B68405 		ld	a3,88(s1)
 2584 1014 03A60403 		lw	a2,48(s1)
 2585 1018 83A58403 		lw	a1,56(s1)
 2586 101c 13050900 		mv	a0,s2
 2587 1020 97000000 		call	_ZN4Slab10clear_slabEiiPFvPvE
 2587      E7800000 
 2588              	.LVL300:
 308:src/Slab.cpp  ****     }
 2589              		.loc 1 308 9 is_stmt 1
 2590              	.LBB140:
 2591              	.LBB139:
  17:src/../h/../h/Buddy.h ****         if(block_num != 0 && space != nullptr){
 2592              		.loc 2 17 9
  17:src/../h/../h/Buddy.h ****         if(block_num != 0 && space != nullptr){
 2593              		.loc 2 17 28 is_stmt 0
 2594 1028 97070000 		lbu	a5,_ZGVZN11BuddySystem11getInstanceEPviE2bs
 2594      83C70700 
 2595 1030 E39007FC 		bnez	a5,.L121
 2596 1034 6FF01FFA 		j	.L132
 2597              	.LVL301:
 2598              	.L120:
 2599              	.LBE139:
 2600              	.LBE140:
 310:src/Slab.cpp  ****     while (tmp) {
 2601              		.loc 1 310 5 is_stmt 1
 310:src/Slab.cpp  ****     while (tmp) {
 2602              		.loc 1 310 21
 310:src/Slab.cpp  ****     while (tmp) {
 2603              		.loc 1 310 25 is_stmt 0
 2604 1038 03B90401 		ld	s2,16(s1)
 2605              	.LVL302:
GAS LISTING /tmp/ccuk26uq.s 			page 65


 2606 103c 6F008003 		j	.L125
 2607              	.LVL303:
 2608              	.L133:
 2609              	.LBB141:
 2610              	.LBB142:
  17:src/../h/../h/Buddy.h ****         if(block_num != 0 && space != nullptr){
 2611              		.loc 2 17 28
 2612 1040 17050000 		lla	a0,_ZZN11BuddySystem11getInstanceEPviE2bs
 2612      13050500 
 2613 1048 97000000 		call	_ZN11BuddySystemC1Ev@plt
 2613      E7800000 
 2614              	.LVL304:
 2615 1050 93071000 		li	a5,1
 2616 1054 17070000 		sb	a5,_ZGVZN11BuddySystem11getInstanceEPviE2bs,a4
 2616      2300F700 
 2617              	.L124:
  18:src/../h/../h/Buddy.h ****             bs.buddyHeapStart = (size_t)space;
 2618              		.loc 2 18 9 is_stmt 1
 2619              		.loc 2 23 9
 2620              	.LVL305:
 2621              	.LBE142:
 2622              	.LBE141:
 315:src/Slab.cpp  ****     }
 2623              		.loc 1 315 45 is_stmt 0
 2624 105c 93050900 		mv	a1,s2
 2625 1060 17050000 		lla	a0,_ZZN11BuddySystem11getInstanceEPviE2bs
 2625      13050500 
 2626 1068 97000000 		call	_ZN11BuddySystem9buddyFreeEm@plt
 2626      E7800000 
 2627              	.LVL306:
 313:src/Slab.cpp  ****         prev->clear_slab((int)num, (int)objsize, dtor);
 2628              		.loc 1 313 13
 2629 1070 13890900 		mv	s2,s3
 2630              	.LVL307:
 2631              	.L125:
 311:src/Slab.cpp  ****         prev = tmp;
 2632              		.loc 1 311 5 is_stmt 1
 311:src/Slab.cpp  ****         prev = tmp;
 2633              		.loc 1 311 12
 2634 1074 63080902 		beqz	s2,.L123
 312:src/Slab.cpp  ****         tmp = tmp->next;
 2635              		.loc 1 312 9
 2636              	.LVL308:
 313:src/Slab.cpp  ****         prev->clear_slab((int)num, (int)objsize, dtor);
 2637              		.loc 1 313 9
 313:src/Slab.cpp  ****         prev->clear_slab((int)num, (int)objsize, dtor);
 2638              		.loc 1 313 13 is_stmt 0
 2639 1078 83398900 		ld	s3,8(s2)
 2640              	.LVL309:
 314:src/Slab.cpp  ****         BuddySystem::getInstance().buddyFree((size_t)prev);
 2641              		.loc 1 314 9 is_stmt 1
 314:src/Slab.cpp  ****         BuddySystem::getInstance().buddyFree((size_t)prev);
 2642              		.loc 1 314 25 is_stmt 0
 2643 107c 83B68405 		ld	a3,88(s1)
 2644 1080 03A60403 		lw	a2,48(s1)
 2645 1084 83A58403 		lw	a1,56(s1)
 2646 1088 13050900 		mv	a0,s2
GAS LISTING /tmp/ccuk26uq.s 			page 66


 2647 108c 97000000 		call	_ZN4Slab10clear_slabEiiPFvPvE
 2647      E7800000 
 2648              	.LVL310:
 315:src/Slab.cpp  ****     }
 2649              		.loc 1 315 9 is_stmt 1
 2650              	.LBB144:
 2651              	.LBB143:
  17:src/../h/../h/Buddy.h ****         if(block_num != 0 && space != nullptr){
 2652              		.loc 2 17 9
  17:src/../h/../h/Buddy.h ****         if(block_num != 0 && space != nullptr){
 2653              		.loc 2 17 28 is_stmt 0
 2654 1094 97070000 		lbu	a5,_ZGVZN11BuddySystem11getInstanceEPviE2bs
 2654      83C70700 
 2655 109c E39007FC 		bnez	a5,.L124
 2656 10a0 6FF01FFA 		j	.L133
 2657              	.LVL311:
 2658              	.L123:
 2659              	.LBE143:
 2660              	.LBE144:
 318:src/Slab.cpp  ****     while(cache){
 2661              		.loc 1 318 5 is_stmt 1
 318:src/Slab.cpp  ****     while(cache){
 2662              		.loc 1 318 19 is_stmt 0
 2663 10a4 97070000 		ld	a5,.LANCHOR0
 2663      83B70700 
 2664              	.LVL312:
 2665 10ac 6F00C002 		j	.L129
 2666              	.LVL313:
 2667              	.L134:
 2668              	.LBB145:
 2669              	.LBB146:
  17:src/../h/../h/Buddy.h ****         if(block_num != 0 && space != nullptr){
 2670              		.loc 2 17 28
 2671 10b0 17050000 		lla	a0,_ZZN11BuddySystem11getInstanceEPviE2bs
 2671      13050500 
 2672 10b8 97000000 		call	_ZN11BuddySystemC1Ev@plt
 2672      E7800000 
 2673              	.LVL314:
 2674 10c0 93071000 		li	a5,1
 2675 10c4 17070000 		sb	a5,_ZGVZN11BuddySystem11getInstanceEPviE2bs,a4
 2675      2300F700 
 2676 10cc 6F004003 		j	.L128
 2677              	.LVL315:
 2678              	.L127:
 2679              	.LBE146:
 2680              	.LBE145:
 328:src/Slab.cpp  ****         cache = cache->next;
 2681              		.loc 1 328 9 is_stmt 1
 329:src/Slab.cpp  ****     }
 2682              		.loc 1 329 9
 328:src/Slab.cpp  ****         cache = cache->next;
 2683              		.loc 1 328 20 is_stmt 0
 2684 10d0 13890700 		mv	s2,a5
 329:src/Slab.cpp  ****     }
 2685              		.loc 1 329 15
 2686 10d4 83B78706 		ld	a5,104(a5)
 2687              	.LVL316:
GAS LISTING /tmp/ccuk26uq.s 			page 67


 2688              	.L129:
 319:src/Slab.cpp  ****         if((size_t)cache == addr){
 2689              		.loc 1 319 5 is_stmt 1
 319:src/Slab.cpp  ****         if((size_t)cache == addr){
 2690              		.loc 1 319 11
 2691 10d8 63820704 		beqz	a5,.L130
 320:src/Slab.cpp  ****             if(prev_cache){
 2692              		.loc 1 320 9
 320:src/Slab.cpp  ****             if(prev_cache){
 2693              		.loc 1 320 26 is_stmt 0
 2694 10dc 93840700 		mv	s1,a5
 320:src/Slab.cpp  ****             if(prev_cache){
 2695              		.loc 1 320 9
 2696 10e0 E39847FF 		bne	a5,s4,.L127
 321:src/Slab.cpp  ****                 prev_cache->next = cache->next;
 2697              		.loc 1 321 13 is_stmt 1
 2698 10e4 E30609FE 		beqz	s2,.L127
 322:src/Slab.cpp  ****                 cache->next = nullptr;
 2699              		.loc 1 322 17
 322:src/Slab.cpp  ****                 cache->next = nullptr;
 2700              		.loc 1 322 43 is_stmt 0
 2701 10e8 03B78706 		ld	a4,104(a5)
 322:src/Slab.cpp  ****                 cache->next = nullptr;
 2702              		.loc 1 322 34
 2703 10ec 2334E906 		sd	a4,104(s2)
 323:src/Slab.cpp  ****                 BuddySystem::getInstance().buddyFree((size_t)cache);
 2704              		.loc 1 323 17 is_stmt 1
 323:src/Slab.cpp  ****                 BuddySystem::getInstance().buddyFree((size_t)cache);
 2705              		.loc 1 323 29 is_stmt 0
 2706 10f0 23B40706 		sd	zero,104(a5)
 324:src/Slab.cpp  ****                 return 0;
 2707              		.loc 1 324 17 is_stmt 1
 2708              	.LVL317:
 2709              	.LBB148:
 2710              	.LBB147:
  17:src/../h/../h/Buddy.h ****         if(block_num != 0 && space != nullptr){
 2711              		.loc 2 17 9
  17:src/../h/../h/Buddy.h ****         if(block_num != 0 && space != nullptr){
 2712              		.loc 2 17 28 is_stmt 0
 2713 10f4 97070000 		lbu	a5,_ZGVZN11BuddySystem11getInstanceEPviE2bs
 2713      83C70700 
 2714              	.LVL318:
 2715 10fc E38A07FA 		beqz	a5,.L134
 2716              	.L128:
  18:src/../h/../h/Buddy.h ****             bs.buddyHeapStart = (size_t)space;
 2717              		.loc 2 18 9 is_stmt 1
 2718              		.loc 2 23 9
 2719              	.LVL319:
 2720              	.LBE147:
 2721              	.LBE148:
 324:src/Slab.cpp  ****                 return 0;
 2722              		.loc 1 324 53 is_stmt 0
 2723 1100 93850400 		mv	a1,s1
 2724 1104 17050000 		lla	a0,_ZZN11BuddySystem11getInstanceEPviE2bs
 2724      13050500 
 2725 110c 97000000 		call	_ZN11BuddySystem9buddyFreeEm@plt
 2725      E7800000 
GAS LISTING /tmp/ccuk26uq.s 			page 68


 2726              	.LVL320:
 325:src/Slab.cpp  ****             }
 2727              		.loc 1 325 17 is_stmt 1
 325:src/Slab.cpp  ****             }
 2728              		.loc 1 325 24 is_stmt 0
 2729 1114 13050000 		li	a0,0
 2730 1118 6F008000 		j	.L126
 2731              	.LVL321:
 2732              	.L130:
 331:src/Slab.cpp  **** }
 2733              		.loc 1 331 13
 2734 111c 1305F0FF 		li	a0,-1
 2735              	.LVL322:
 2736              	.L126:
 332:src/Slab.cpp  **** 
 2737              		.loc 1 332 1
 2738 1120 83308102 		ld	ra,40(sp)
 2739              		.cfi_restore 1
 2740 1124 03340102 		ld	s0,32(sp)
 2741              		.cfi_restore 8
 2742              		.cfi_def_cfa 2, 48
 2743 1128 83348101 		ld	s1,24(sp)
 2744              		.cfi_restore 9
 2745 112c 03390101 		ld	s2,16(sp)
 2746              		.cfi_restore 18
 2747              	.LVL323:
 2748 1130 83398100 		ld	s3,8(sp)
 2749              		.cfi_restore 19
 2750 1134 033A0100 		ld	s4,0(sp)
 2751              		.cfi_restore 20
 2752              	.LVL324:
 2753 1138 13010103 		addi	sp,sp,48
 2754              		.cfi_def_cfa_offset 0
 2755 113c 67800000 		jr	ra
 2756              		.cfi_endproc
 2757              	.LFE60:
 2759              		.globl	_ZN12kmem_cache_s4headE
 2760              		.weak	_ZGVZN11BuddySystem11getInstanceEPviE2bs
 2761              		.section	.bss._ZGVZN11BuddySystem11getInstanceEPviE2bs,"awG",@nobits,_ZGVZN11BuddySystem11getInsta
 2762              		.align	3
 2765              	_ZGVZN11BuddySystem11getInstanceEPviE2bs:
 2766 0000 00000000 		.zero	8
 2766      00000000 
 2767              		.weak	_ZZN11BuddySystem11getInstanceEPviE2bs
 2768              		.section	.bss._ZZN11BuddySystem11getInstanceEPviE2bs,"awG",@nobits,_ZZN11BuddySystem11getInstanceE
 2769              		.align	3
 2772              	_ZZN11BuddySystem11getInstanceEPviE2bs:
 2773 0000 00000000 		.zero	344
 2773      00000000 
 2773      00000000 
 2773      00000000 
 2773      00000000 
 2774              		.bss
 2775              		.align	3
 2776              		.set	.LANCHOR0,. + 0
 2779              	_ZN12kmem_cache_s4headE:
 2780 0000 00000000 		.zero	8
GAS LISTING /tmp/ccuk26uq.s 			page 69


 2780      00000000 
 2781              		.text
 2782              	.Letext0:
 2783              		.file 4 "src/../h/../lib/hw.h"
 2784              		.file 5 "src/../test/../h/syscall_c.h"
 2785              		.file 6 "src/../test/printing.hpp"
 2786              		.file 7 "src/../h/../h/String.h"
GAS LISTING /tmp/ccuk26uq.s 			page 70


DEFINED SYMBOLS
                            *ABS*:0000000000000000 Slab.cpp
     /tmp/ccuk26uq.s:9      .text:0000000000000000 _ZN12kmem_cache_s16create_free_slabEv
     /tmp/ccuk26uq.s:13     .text:0000000000000000 .L0 
     /tmp/ccuk26uq.s:15     .text:0000000000000000 .L0 
     /tmp/ccuk26uq.s:16     .text:0000000000000004 .L0 
     /tmp/ccuk26uq.s:23     .text:000000000000001c .L0 
     /tmp/ccuk26uq.s:24     .text:000000000000001c .L0 
     /tmp/ccuk26uq.s:25     .text:000000000000001c .L0 
     /tmp/ccuk26uq.s:26     .text:000000000000001c .L0 
     /tmp/ccuk26uq.s:27     .text:000000000000001c .L0 
     /tmp/ccuk26uq.s:28     .text:000000000000001c .L0 
     /tmp/ccuk26uq.s:30     .text:0000000000000020 .L0 
     /tmp/ccuk26uq.s:37     .text:0000000000000024 .L0 
     /tmp/ccuk26uq.s:38     .text:0000000000000024 .L0 
     /tmp/ccuk26uq.s:2765   .bss._ZGVZN11BuddySystem11getInstanceEPviE2bs:0000000000000000 _ZGVZN11BuddySystem11getInstanceEPviE2bs
     /tmp/ccuk26uq.s:39     .text:0000000000000024 .L0 
     /tmp/ccuk26uq.s:44     .text:0000000000000030 .L0 
     /tmp/ccuk26uq.s:47     .text:0000000000000030 .L0 
     /tmp/ccuk26uq.s:48     .text:0000000000000030 .L0 
     /tmp/ccuk26uq.s:50     .text:0000000000000034 .L0 
     /tmp/ccuk26uq.s:52     .text:0000000000000038 .L0 
     /tmp/ccuk26uq.s:55     .text:0000000000000040 .L0 
     /tmp/ccuk26uq.s:2772   .bss._ZZN11BuddySystem11getInstanceEPviE2bs:0000000000000000 _ZZN11BuddySystem11getInstanceEPviE2bs
     /tmp/ccuk26uq.s:62     .text:0000000000000058 .L0 
     /tmp/ccuk26uq.s:63     .text:0000000000000058 .L0 
     /tmp/ccuk26uq.s:65     .text:000000000000005c .L0 
     /tmp/ccuk26uq.s:66     .text:000000000000005c .L0 
     /tmp/ccuk26uq.s:68     .text:0000000000000060 .L0 
     /tmp/ccuk26uq.s:69     .text:0000000000000060 .L0 
     /tmp/ccuk26uq.s:71     .text:0000000000000064 .L0 
     /tmp/ccuk26uq.s:72     .text:0000000000000064 .L0 
     /tmp/ccuk26uq.s:74     .text:0000000000000068 .L0 
     /tmp/ccuk26uq.s:76     .text:000000000000006c .L0 
     /tmp/ccuk26uq.s:79     .text:0000000000000074 .L0 
     /tmp/ccuk26uq.s:83     .text:0000000000000078 .L0 
     /tmp/ccuk26uq.s:84     .text:0000000000000078 .L0 
     /tmp/ccuk26uq.s:88     .text:000000000000007c .L0 
     /tmp/ccuk26uq.s:89     .text:000000000000007c .L0 
     /tmp/ccuk26uq.s:91     .text:0000000000000080 .L0 
     /tmp/ccuk26uq.s:93     .text:0000000000000084 .L0 
     /tmp/ccuk26uq.s:94     .text:0000000000000084 .L0 
     /tmp/ccuk26uq.s:99     .text:0000000000000094 .L0 
     /tmp/ccuk26uq.s:108    .text:000000000000009c .L0 
     /tmp/ccuk26uq.s:120    .text:00000000000000bc .L0 
     /tmp/ccuk26uq.s:121    .text:00000000000000bc .L0 
     /tmp/ccuk26uq.s:123    .text:00000000000000c0 .L0 
     /tmp/ccuk26uq.s:127    .text:00000000000000c4 .L0 
     /tmp/ccuk26uq.s:131    .text:00000000000000c8 .L0 
     /tmp/ccuk26uq.s:132    .text:00000000000000c8 .L0 
     /tmp/ccuk26uq.s:134    .text:00000000000000cc .L0 
     /tmp/ccuk26uq.s:136    .text:00000000000000d0 .L0 
     /tmp/ccuk26uq.s:137    .text:00000000000000d0 .L0 
     /tmp/ccuk26uq.s:139    .text:00000000000000d4 .L0 
     /tmp/ccuk26uq.s:143    .text:00000000000000dc .L0 
     /tmp/ccuk26uq.s:144    .text:00000000000000dc .L0 
     /tmp/ccuk26uq.s:146    .text:00000000000000e0 .L0 
GAS LISTING /tmp/ccuk26uq.s 			page 71


     /tmp/ccuk26uq.s:149    .text:00000000000000e4 .L0 
     /tmp/ccuk26uq.s:158    .text:00000000000000ec .L0 
     /tmp/ccuk26uq.s:159    .text:00000000000000ec .L0 
     /tmp/ccuk26uq.s:161    .text:00000000000000f0 .L0 
     /tmp/ccuk26uq.s:162    .text:00000000000000f0 .L0 
     /tmp/ccuk26uq.s:164    .text:00000000000000f4 .L0 
     /tmp/ccuk26uq.s:167    .text:00000000000000fc .L0 
     /tmp/ccuk26uq.s:168    .text:0000000000000100 .L0 
     /tmp/ccuk26uq.s:170    .text:0000000000000104 .L0 
     /tmp/ccuk26uq.s:171    .text:0000000000000104 .L0 
     /tmp/ccuk26uq.s:173    .text:0000000000000108 .L0 
     /tmp/ccuk26uq.s:176    .text:000000000000010c .L0 
     /tmp/ccuk26uq.s:178    .text:0000000000000110 .L0 
     /tmp/ccuk26uq.s:180    .text:0000000000000114 .L0 
     /tmp/ccuk26uq.s:183    .text:0000000000000118 .L0 
     /tmp/ccuk26uq.s:185    .text:000000000000011c .L0 
     /tmp/ccuk26uq.s:191    .text:000000000000011c _ZN12kmem_cache_s17kmem_cache_createEPKcmPFvPvES4_
     /tmp/ccuk26uq.s:194    .text:000000000000011c .L0 
     /tmp/ccuk26uq.s:196    .text:000000000000011c .L0 
     /tmp/ccuk26uq.s:197    .text:0000000000000120 .L0 
     /tmp/ccuk26uq.s:205    .text:000000000000013c .L0 
     /tmp/ccuk26uq.s:206    .text:000000000000013c .L0 
     /tmp/ccuk26uq.s:207    .text:000000000000013c .L0 
     /tmp/ccuk26uq.s:208    .text:000000000000013c .L0 
     /tmp/ccuk26uq.s:209    .text:000000000000013c .L0 
     /tmp/ccuk26uq.s:210    .text:000000000000013c .L0 
     /tmp/ccuk26uq.s:211    .text:000000000000013c .L0 
     /tmp/ccuk26uq.s:213    .text:0000000000000140 .L0 
     /tmp/ccuk26uq.s:220    .text:0000000000000150 .L0 
     /tmp/ccuk26uq.s:221    .text:0000000000000150 .L0 
     /tmp/ccuk26uq.s:225    .text:0000000000000158 .L0 
     /tmp/ccuk26uq.s:227    .text:000000000000015c .L0 
     /tmp/ccuk26uq.s:228    .text:000000000000015c .L0 
     /tmp/ccuk26uq.s:230    .text:0000000000000160 .L0 
     /tmp/ccuk26uq.s:232    .text:0000000000000164 .L0 
     /tmp/ccuk26uq.s:233    .text:0000000000000164 .L0 
     /tmp/ccuk26uq.s:236    .text:0000000000000168 .L0 
     /tmp/ccuk26uq.s:243    .text:000000000000016c .L0 
     /tmp/ccuk26uq.s:244    .text:000000000000016c .L0 
     /tmp/ccuk26uq.s:245    .text:000000000000016c .L0 
     /tmp/ccuk26uq.s:251    .text:0000000000000178 .L0 
     /tmp/ccuk26uq.s:254    .text:0000000000000178 .L0 
     /tmp/ccuk26uq.s:255    .text:0000000000000178 .L0 
     /tmp/ccuk26uq.s:263    .text:0000000000000194 .L0 
     /tmp/ccuk26uq.s:264    .text:0000000000000194 .L0 
     /tmp/ccuk26uq.s:266    .text:0000000000000198 .L0 
     /tmp/ccuk26uq.s:267    .text:0000000000000198 .L0 
     /tmp/ccuk26uq.s:269    .text:000000000000019c .L0 
     /tmp/ccuk26uq.s:270    .text:000000000000019c .L0 
     /tmp/ccuk26uq.s:272    .text:00000000000001a0 .L0 
     /tmp/ccuk26uq.s:273    .text:00000000000001a0 .L0 
     /tmp/ccuk26uq.s:275    .text:00000000000001a4 .L0 
     /tmp/ccuk26uq.s:276    .text:00000000000001a4 .L0 
     /tmp/ccuk26uq.s:278    .text:00000000000001a8 .L0 
     /tmp/ccuk26uq.s:280    .text:00000000000001ac .L0 
     /tmp/ccuk26uq.s:282    .text:00000000000001b0 .L0 
     /tmp/ccuk26uq.s:283    .text:00000000000001b0 .L0 
GAS LISTING /tmp/ccuk26uq.s 			page 72


     /tmp/ccuk26uq.s:285    .text:00000000000001b4 .L0 
     /tmp/ccuk26uq.s:287    .text:00000000000001b8 .L0 
     /tmp/ccuk26uq.s:289    .text:00000000000001bc .L0 
     /tmp/ccuk26uq.s:291    .text:00000000000001c0 .L0 
     /tmp/ccuk26uq.s:293    .text:00000000000001c4 .L0 
     /tmp/ccuk26uq.s:294    .text:00000000000001c4 .L0 
     /tmp/ccuk26uq.s:296    .text:00000000000001c8 .L0 
     /tmp/ccuk26uq.s:297    .text:00000000000001c8 .L0 
     /tmp/ccuk26uq.s:300    .text:00000000000001d0 .L0 
     /tmp/ccuk26uq.s:301    .text:00000000000001d0 .L0 
     /tmp/ccuk26uq.s:307    .text:00000000000001dc .L0 
     /tmp/ccuk26uq.s:308    .text:00000000000001dc .L0 
     /tmp/ccuk26uq.s:309    .text:00000000000001dc .L0 
     /tmp/ccuk26uq.s:310    .text:00000000000001dc .L0 
     /tmp/ccuk26uq.s:312    .text:00000000000001e0 .L0 
     /tmp/ccuk26uq.s:314    .text:00000000000001e4 .L0 
     /tmp/ccuk26uq.s:316    .text:00000000000001e8 .L0 
     /tmp/ccuk26uq.s:318    .text:00000000000001ec .L0 
     /tmp/ccuk26uq.s:319    .text:00000000000001ec .L0 
     /tmp/ccuk26uq.s:322    .text:00000000000001f4 .L0 
     /tmp/ccuk26uq.s:328    .text:00000000000001f8 .L0 
     /tmp/ccuk26uq.s:340    .text:0000000000000218 .L0 
     /tmp/ccuk26uq.s:344    .text:000000000000021c .L0 
     /tmp/ccuk26uq.s:345    .text:000000000000021c .L0 
     /tmp/ccuk26uq.s:346    .text:000000000000021c .L0 
     /tmp/ccuk26uq.s:349    .text:0000000000000224 .L0 
     /tmp/ccuk26uq.s:351    .text:0000000000000228 .L0 
     /tmp/ccuk26uq.s:358    .text:0000000000000240 .L0 
     /tmp/ccuk26uq.s:361    .text:0000000000000244 .L0 
     /tmp/ccuk26uq.s:362    .text:0000000000000244 .L0 
     /tmp/ccuk26uq.s:365    .text:0000000000000248 .L0 
     /tmp/ccuk26uq.s:367    .text:000000000000024c .L0 
     /tmp/ccuk26uq.s:368    .text:000000000000024c .L0 
     /tmp/ccuk26uq.s:374    .text:0000000000000254 .L0 
     /tmp/ccuk26uq.s:376    .text:0000000000000258 .L0 
     /tmp/ccuk26uq.s:381    .text:0000000000000260 .L0 
     /tmp/ccuk26uq.s:382    .text:0000000000000260 .L0 
     /tmp/ccuk26uq.s:384    .text:0000000000000264 .L0 
     /tmp/ccuk26uq.s:385    .text:0000000000000264 .L0 
     /tmp/ccuk26uq.s:387    .text:0000000000000268 .L0 
     /tmp/ccuk26uq.s:388    .text:0000000000000268 .L0 
     /tmp/ccuk26uq.s:392    .text:0000000000000274 .L0 
     /tmp/ccuk26uq.s:393    .text:0000000000000274 .L0 
     /tmp/ccuk26uq.s:397    .text:0000000000000284 .L0 
     /tmp/ccuk26uq.s:398    .text:0000000000000284 .L0 
     /tmp/ccuk26uq.s:402    .text:0000000000000288 .L0 
     /tmp/ccuk26uq.s:403    .text:0000000000000288 .L0 
     /tmp/ccuk26uq.s:405    .text:0000000000000290 .L0 
     /tmp/ccuk26uq.s:406    .text:0000000000000290 .L0 
     /tmp/ccuk26uq.s:408    .text:0000000000000294 .L0 
     /tmp/ccuk26uq.s:409    .text:0000000000000294 .L0 
     /tmp/ccuk26uq.s:411    .text:0000000000000298 .L0 
     /tmp/ccuk26uq.s:413    .text:000000000000029c .L0 
     /tmp/ccuk26uq.s:416    .text:00000000000002a0 .L0 
     /tmp/ccuk26uq.s:419    .text:00000000000002a4 .L0 
     /tmp/ccuk26uq.s:422    .text:00000000000002a8 .L0 
     /tmp/ccuk26uq.s:425    .text:00000000000002ac .L0 
GAS LISTING /tmp/ccuk26uq.s 			page 73


     /tmp/ccuk26uq.s:429    .text:00000000000002b0 .L0 
     /tmp/ccuk26uq.s:432    .text:00000000000002b0 .L0 
     /tmp/ccuk26uq.s:435    .text:00000000000002b8 .L0 
     /tmp/ccuk26uq.s:441    .text:00000000000002b8 _ZN4Slab8set_maskEib
     /tmp/ccuk26uq.s:444    .text:00000000000002b8 .L0 
     /tmp/ccuk26uq.s:446    .text:00000000000002b8 .L0 
     /tmp/ccuk26uq.s:447    .text:00000000000002bc .L0 
     /tmp/ccuk26uq.s:449    .text:00000000000002c0 .L0 
     /tmp/ccuk26uq.s:451    .text:00000000000002c4 .L0 
     /tmp/ccuk26uq.s:453    .text:00000000000002c4 .L0 
     /tmp/ccuk26uq.s:454    .text:00000000000002c4 .L0 
     /tmp/ccuk26uq.s:457    .text:00000000000002c8 .L0 
     /tmp/ccuk26uq.s:458    .text:00000000000002c8 .L0 
     /tmp/ccuk26uq.s:461    .text:00000000000002cc .L0 
     /tmp/ccuk26uq.s:463    .text:00000000000002cc .L0 
     /tmp/ccuk26uq.s:464    .text:00000000000002cc .L0 
     /tmp/ccuk26uq.s:467    .text:00000000000002d0 .L0 
     /tmp/ccuk26uq.s:472    .text:00000000000002d4 .L0 
     /tmp/ccuk26uq.s:473    .text:00000000000002d4 .L0 
     /tmp/ccuk26uq.s:476    .text:00000000000002dc .L0 
     /tmp/ccuk26uq.s:478    .text:00000000000002e0 .L0 
     /tmp/ccuk26uq.s:479    .text:00000000000002e0 .L0 
     /tmp/ccuk26uq.s:482    .text:00000000000002e4 .L0 
     /tmp/ccuk26uq.s:489    .text:00000000000002ec .L0 
     /tmp/ccuk26uq.s:491    .text:00000000000002f0 .L0 
     /tmp/ccuk26uq.s:492    .text:00000000000002f0 .L0 
     /tmp/ccuk26uq.s:504    .text:0000000000000308 .L0 
     /tmp/ccuk26uq.s:505    .text:000000000000030c .L0 
     /tmp/ccuk26uq.s:506    .text:000000000000030c .L0 
     /tmp/ccuk26uq.s:507    .text:000000000000030c .L0 
     /tmp/ccuk26uq.s:509    .text:0000000000000310 .L0 
     /tmp/ccuk26uq.s:513    .text:0000000000000314 .L0 
     /tmp/ccuk26uq.s:515    .text:0000000000000314 .L0 
     /tmp/ccuk26uq.s:516    .text:0000000000000314 .L0 
     /tmp/ccuk26uq.s:519    .text:0000000000000318 .L0 
     /tmp/ccuk26uq.s:520    .text:0000000000000318 .L0 
     /tmp/ccuk26uq.s:531    .text:0000000000000330 .L0 
     /tmp/ccuk26uq.s:532    .text:0000000000000334 .L0 
     /tmp/ccuk26uq.s:538    .text:0000000000000334 _ZN4Slab9is_activeEi
     /tmp/ccuk26uq.s:541    .text:0000000000000334 .L0 
     /tmp/ccuk26uq.s:543    .text:0000000000000334 .L0 
     /tmp/ccuk26uq.s:544    .text:0000000000000338 .L0 
     /tmp/ccuk26uq.s:546    .text:000000000000033c .L0 
     /tmp/ccuk26uq.s:548    .text:0000000000000340 .L0 
     /tmp/ccuk26uq.s:550    .text:0000000000000340 .L0 
     /tmp/ccuk26uq.s:551    .text:0000000000000340 .L0 
     /tmp/ccuk26uq.s:554    .text:0000000000000344 .L0 
     /tmp/ccuk26uq.s:555    .text:0000000000000344 .L0 
     /tmp/ccuk26uq.s:558    .text:0000000000000348 .L0 
     /tmp/ccuk26uq.s:560    .text:0000000000000348 .L0 
     /tmp/ccuk26uq.s:561    .text:0000000000000348 .L0 
     /tmp/ccuk26uq.s:564    .text:000000000000034c .L0 
     /tmp/ccuk26uq.s:569    .text:0000000000000350 .L0 
     /tmp/ccuk26uq.s:570    .text:0000000000000350 .L0 
     /tmp/ccuk26uq.s:573    .text:0000000000000358 .L0 
     /tmp/ccuk26uq.s:575    .text:000000000000035c .L0 
     /tmp/ccuk26uq.s:576    .text:000000000000035c .L0 
GAS LISTING /tmp/ccuk26uq.s 			page 74


     /tmp/ccuk26uq.s:579    .text:0000000000000360 .L0 
     /tmp/ccuk26uq.s:586    .text:0000000000000368 .L0 
     /tmp/ccuk26uq.s:587    .text:0000000000000368 .L0 
     /tmp/ccuk26uq.s:593    .text:0000000000000378 .L0 
     /tmp/ccuk26uq.s:595    .text:000000000000037c .L0 
     /tmp/ccuk26uq.s:597    .text:0000000000000384 .L0 
     /tmp/ccuk26uq.s:598    .text:0000000000000384 .L0 
     /tmp/ccuk26uq.s:600    .text:0000000000000388 .L0 
     /tmp/ccuk26uq.s:602    .text:000000000000038c .L0 
     /tmp/ccuk26uq.s:608    .text:000000000000038c _ZN12kmem_cache_s15kmem_cache_freeEPv
     /tmp/ccuk26uq.s:611    .text:000000000000038c .L0 
     /tmp/ccuk26uq.s:613    .text:000000000000038c .L0 
     /tmp/ccuk26uq.s:614    .text:0000000000000390 .L0 
     /tmp/ccuk26uq.s:621    .text:00000000000003a8 .L0 
     /tmp/ccuk26uq.s:622    .text:00000000000003a8 .L0 
     /tmp/ccuk26uq.s:623    .text:00000000000003a8 .L0 
     /tmp/ccuk26uq.s:624    .text:00000000000003a8 .L0 
     /tmp/ccuk26uq.s:625    .text:00000000000003a8 .L0 
     /tmp/ccuk26uq.s:626    .text:00000000000003a8 .L0 
     /tmp/ccuk26uq.s:628    .text:00000000000003ac .L0 
     /tmp/ccuk26uq.s:633    .text:00000000000003b4 .L0 
     /tmp/ccuk26uq.s:635    .text:00000000000003b4 .L0 
     /tmp/ccuk26uq.s:636    .text:00000000000003b4 .L0 
     /tmp/ccuk26uq.s:640    .text:00000000000003b8 .L0 
     /tmp/ccuk26uq.s:649    .text:00000000000003c0 .L0 
     /tmp/ccuk26uq.s:650    .text:00000000000003c0 .L0 
     /tmp/ccuk26uq.s:653    .text:00000000000003c4 .L0 
     /tmp/ccuk26uq.s:662    .text:00000000000003cc .L0 
     /tmp/ccuk26uq.s:664    .text:00000000000003cc .L0 
     /tmp/ccuk26uq.s:665    .text:00000000000003cc .L0 
     /tmp/ccuk26uq.s:668    .text:00000000000003d0 .L0 
     /tmp/ccuk26uq.s:672    .text:00000000000003d4 .L0 
     /tmp/ccuk26uq.s:676    .text:00000000000003d8 .L0 
     /tmp/ccuk26uq.s:678    .text:00000000000003dc .L0 
     /tmp/ccuk26uq.s:680    .text:00000000000003e0 .L0 
     /tmp/ccuk26uq.s:682    .text:00000000000003e4 .L0 
     /tmp/ccuk26uq.s:684    .text:00000000000003e8 .L0 
     /tmp/ccuk26uq.s:686    .text:00000000000003ec .L0 
     /tmp/ccuk26uq.s:689    .text:00000000000003f0 .L0 
     /tmp/ccuk26uq.s:690    .text:00000000000003f0 .L0 
     /tmp/ccuk26uq.s:693    .text:00000000000003f4 .L0 
     /tmp/ccuk26uq.s:695    .text:00000000000003f8 .L0 
     /tmp/ccuk26uq.s:697    .text:00000000000003fc .L0 
     /tmp/ccuk26uq.s:700    .text:0000000000000400 .L0 
     /tmp/ccuk26uq.s:701    .text:0000000000000400 .L0 
     /tmp/ccuk26uq.s:709    .text:0000000000000414 .L0 
     /tmp/ccuk26uq.s:710    .text:0000000000000414 .L0 
     /tmp/ccuk26uq.s:712    .text:0000000000000418 .L0 
     /tmp/ccuk26uq.s:714    .text:000000000000041c .L0 
     /tmp/ccuk26uq.s:715    .text:000000000000041c .L0 
     /tmp/ccuk26uq.s:720    .text:0000000000000424 .L0 
     /tmp/ccuk26uq.s:721    .text:0000000000000424 .L0 
     /tmp/ccuk26uq.s:723    .text:0000000000000428 .L0 
     /tmp/ccuk26uq.s:725    .text:000000000000042c .L0 
     /tmp/ccuk26uq.s:726    .text:000000000000042c .L0 
     /tmp/ccuk26uq.s:731    .text:0000000000000434 .L0 
     /tmp/ccuk26uq.s:732    .text:0000000000000434 .L0 
GAS LISTING /tmp/ccuk26uq.s 			page 75


     /tmp/ccuk26uq.s:734    .text:0000000000000438 .L0 
     /tmp/ccuk26uq.s:741    .text:0000000000000440 .L0 
     /tmp/ccuk26uq.s:742    .text:0000000000000440 .L0 
     /tmp/ccuk26uq.s:744    .text:0000000000000444 .L0 
     /tmp/ccuk26uq.s:754    .text:000000000000044c .L0 
     /tmp/ccuk26uq.s:759    .text:000000000000044c .L0 
     /tmp/ccuk26uq.s:760    .text:000000000000044c .L0 
     /tmp/ccuk26uq.s:762    .text:0000000000000450 .L0 
     /tmp/ccuk26uq.s:764    .text:0000000000000454 .L0 
     /tmp/ccuk26uq.s:765    .text:0000000000000454 .L0 
     /tmp/ccuk26uq.s:768    .text:0000000000000458 .L0 
     /tmp/ccuk26uq.s:772    .text:000000000000045c .L0 
     /tmp/ccuk26uq.s:773    .text:000000000000045c .L0 
     /tmp/ccuk26uq.s:775    .text:0000000000000460 .L0 
     /tmp/ccuk26uq.s:777    .text:0000000000000464 .L0 
     /tmp/ccuk26uq.s:778    .text:0000000000000464 .L0 
     /tmp/ccuk26uq.s:780    .text:0000000000000468 .L0 
     /tmp/ccuk26uq.s:781    .text:0000000000000468 .L0 
     /tmp/ccuk26uq.s:783    .text:000000000000046c .L0 
     /tmp/ccuk26uq.s:786    .text:0000000000000474 .L0 
     /tmp/ccuk26uq.s:787    .text:0000000000000474 .L0 
     /tmp/ccuk26uq.s:789    .text:0000000000000478 .L0 
     /tmp/ccuk26uq.s:793    .text:0000000000000480 .L0 
     /tmp/ccuk26uq.s:794    .text:0000000000000480 .L0 
     /tmp/ccuk26uq.s:803    .text:0000000000000488 .L0 
     /tmp/ccuk26uq.s:805    .text:0000000000000488 .L0 
     /tmp/ccuk26uq.s:806    .text:0000000000000488 .L0 
     /tmp/ccuk26uq.s:815    .text:0000000000000490 .L0 
     /tmp/ccuk26uq.s:816    .text:0000000000000490 .L0 
     /tmp/ccuk26uq.s:818    .text:0000000000000494 .L0 
     /tmp/ccuk26uq.s:826    .text:000000000000049c .L0 
     /tmp/ccuk26uq.s:828    .text:000000000000049c .L0 
     /tmp/ccuk26uq.s:829    .text:000000000000049c .L0 
     /tmp/ccuk26uq.s:832    .text:00000000000004a0 .L0 
     /tmp/ccuk26uq.s:836    .text:00000000000004a4 .L0 
     /tmp/ccuk26uq.s:840    .text:00000000000004a8 .L0 
     /tmp/ccuk26uq.s:842    .text:00000000000004ac .L0 
     /tmp/ccuk26uq.s:844    .text:00000000000004b0 .L0 
     /tmp/ccuk26uq.s:846    .text:00000000000004b4 .L0 
     /tmp/ccuk26uq.s:848    .text:00000000000004b8 .L0 
     /tmp/ccuk26uq.s:850    .text:00000000000004bc .L0 
     /tmp/ccuk26uq.s:853    .text:00000000000004c0 .L0 
     /tmp/ccuk26uq.s:854    .text:00000000000004c0 .L0 
     /tmp/ccuk26uq.s:857    .text:00000000000004c4 .L0 
     /tmp/ccuk26uq.s:859    .text:00000000000004c8 .L0 
     /tmp/ccuk26uq.s:861    .text:00000000000004cc .L0 
     /tmp/ccuk26uq.s:864    .text:00000000000004d0 .L0 
     /tmp/ccuk26uq.s:865    .text:00000000000004d0 .L0 
     /tmp/ccuk26uq.s:873    .text:00000000000004e4 .L0 
     /tmp/ccuk26uq.s:874    .text:00000000000004e4 .L0 
     /tmp/ccuk26uq.s:876    .text:00000000000004e8 .L0 
     /tmp/ccuk26uq.s:878    .text:00000000000004ec .L0 
     /tmp/ccuk26uq.s:879    .text:00000000000004ec .L0 
     /tmp/ccuk26uq.s:884    .text:00000000000004f4 .L0 
     /tmp/ccuk26uq.s:885    .text:00000000000004f4 .L0 
     /tmp/ccuk26uq.s:887    .text:00000000000004f8 .L0 
     /tmp/ccuk26uq.s:889    .text:00000000000004fc .L0 
GAS LISTING /tmp/ccuk26uq.s 			page 76


     /tmp/ccuk26uq.s:890    .text:00000000000004fc .L0 
     /tmp/ccuk26uq.s:895    .text:0000000000000504 .L0 
     /tmp/ccuk26uq.s:896    .text:0000000000000504 .L0 
     /tmp/ccuk26uq.s:898    .text:0000000000000508 .L0 
     /tmp/ccuk26uq.s:904    .text:0000000000000510 .L0 
     /tmp/ccuk26uq.s:905    .text:0000000000000510 .L0 
     /tmp/ccuk26uq.s:907    .text:0000000000000514 .L0 
     /tmp/ccuk26uq.s:913    .text:000000000000051c .L0 
     /tmp/ccuk26uq.s:915    .text:0000000000000520 .L0 
     /tmp/ccuk26uq.s:916    .text:0000000000000520 .L0 
     /tmp/ccuk26uq.s:918    .text:0000000000000524 .L0 
     /tmp/ccuk26uq.s:921    .text:0000000000000528 .L0 
     /tmp/ccuk26uq.s:922    .text:0000000000000528 .L0 
     /tmp/ccuk26uq.s:924    .text:000000000000052c .L0 
     /tmp/ccuk26uq.s:926    .text:0000000000000530 .L0 
     /tmp/ccuk26uq.s:927    .text:0000000000000530 .L0 
     /tmp/ccuk26uq.s:929    .text:0000000000000534 .L0 
     /tmp/ccuk26uq.s:930    .text:0000000000000534 .L0 
     /tmp/ccuk26uq.s:932    .text:0000000000000538 .L0 
     /tmp/ccuk26uq.s:935    .text:0000000000000540 .L0 
     /tmp/ccuk26uq.s:936    .text:0000000000000540 .L0 
     /tmp/ccuk26uq.s:938    .text:0000000000000544 .L0 
     /tmp/ccuk26uq.s:941    .text:000000000000054c .L0 
     /tmp/ccuk26uq.s:942    .text:000000000000054c .L0 
     /tmp/ccuk26uq.s:951    .text:0000000000000554 .L0 
     /tmp/ccuk26uq.s:955    .text:0000000000000558 .L0 
     /tmp/ccuk26uq.s:956    .text:000000000000055c .L0 
     /tmp/ccuk26uq.s:958    .text:0000000000000560 .L0 
     /tmp/ccuk26uq.s:959    .text:0000000000000560 .L0 
     /tmp/ccuk26uq.s:961    .text:0000000000000564 .L0 
     /tmp/ccuk26uq.s:963    .text:0000000000000568 .L0 
     /tmp/ccuk26uq.s:965    .text:000000000000056c .L0 
     /tmp/ccuk26uq.s:968    .text:0000000000000570 .L0 
     /tmp/ccuk26uq.s:971    .text:0000000000000574 .L0 
     /tmp/ccuk26uq.s:973    .text:0000000000000578 .L0 
     /tmp/ccuk26uq.s:979    .text:0000000000000578 _ZN12kmem_cache_s20check_if_name_existsEPKc
     /tmp/ccuk26uq.s:982    .text:0000000000000578 .L0 
     /tmp/ccuk26uq.s:984    .text:0000000000000578 .L0 
     /tmp/ccuk26uq.s:985    .text:000000000000057c .L0 
     /tmp/ccuk26uq.s:990    .text:000000000000058c .L0 
     /tmp/ccuk26uq.s:991    .text:000000000000058c .L0 
     /tmp/ccuk26uq.s:992    .text:000000000000058c .L0 
     /tmp/ccuk26uq.s:993    .text:000000000000058c .L0 
     /tmp/ccuk26uq.s:995    .text:0000000000000590 .L0 
     /tmp/ccuk26uq.s:999    .text:0000000000000594 .L0 
     /tmp/ccuk26uq.s:1000   .text:0000000000000594 .L0 
     /tmp/ccuk26uq.s:1004   .text:000000000000059c .L0 
     /tmp/ccuk26uq.s:1006   .text:00000000000005a0 .L0 
     /tmp/ccuk26uq.s:1007   .text:00000000000005a0 .L0 
     /tmp/ccuk26uq.s:1012   .text:00000000000005b0 .L0 
     /tmp/ccuk26uq.s:1014   .text:00000000000005b4 .L0 
     /tmp/ccuk26uq.s:1015   .text:00000000000005b4 .L0 
     /tmp/ccuk26uq.s:1018   .text:00000000000005b8 .L0 
     /tmp/ccuk26uq.s:1022   .text:00000000000005bc .L0 
     /tmp/ccuk26uq.s:1024   .text:00000000000005c4 .L0 
     /tmp/ccuk26uq.s:1026   .text:00000000000005c8 .L0 
     /tmp/ccuk26uq.s:1027   .text:00000000000005c8 .L0 
GAS LISTING /tmp/ccuk26uq.s 			page 77


     /tmp/ccuk26uq.s:1029   .text:00000000000005cc .L0 
     /tmp/ccuk26uq.s:1032   .text:00000000000005d0 .L0 
     /tmp/ccuk26uq.s:1035   .text:00000000000005d4 .L0 
     /tmp/ccuk26uq.s:1037   .text:00000000000005d8 .L0 
     /tmp/ccuk26uq.s:1043   .text:00000000000005d8 _ZN12kmem_cache_s3powEm
     /tmp/ccuk26uq.s:1046   .text:00000000000005d8 .L0 
     /tmp/ccuk26uq.s:1048   .text:00000000000005d8 .L0 
     /tmp/ccuk26uq.s:1049   .text:00000000000005dc .L0 
     /tmp/ccuk26uq.s:1051   .text:00000000000005e0 .L0 
     /tmp/ccuk26uq.s:1053   .text:00000000000005e4 .L0 
     /tmp/ccuk26uq.s:1057   .text:00000000000005e8 .L0 
     /tmp/ccuk26uq.s:1059   .text:00000000000005e8 .L0 
     /tmp/ccuk26uq.s:1060   .text:00000000000005e8 .L0 
     /tmp/ccuk26uq.s:1063   .text:00000000000005ec .L0 
     /tmp/ccuk26uq.s:1068   .text:00000000000005f0 .L0 
     /tmp/ccuk26uq.s:1070   .text:00000000000005f4 .L0 
     /tmp/ccuk26uq.s:1071   .text:00000000000005f4 .L0 
     /tmp/ccuk26uq.s:1074   .text:00000000000005f8 .L0 
     /tmp/ccuk26uq.s:1080   .text:0000000000000600 .L0 
     /tmp/ccuk26uq.s:1081   .text:0000000000000604 .L0 
     /tmp/ccuk26uq.s:1082   .text:0000000000000604 .L0 
     /tmp/ccuk26uq.s:1084   .text:0000000000000608 .L0 
     /tmp/ccuk26uq.s:1086   .text:000000000000060c .L0 
     /tmp/ccuk26uq.s:1092   .text:000000000000060c _ZN12kmem_cache_s28is_small_buffer_size_correctEm
     /tmp/ccuk26uq.s:1095   .text:000000000000060c .L0 
     /tmp/ccuk26uq.s:1097   .text:000000000000060c .L0 
     /tmp/ccuk26uq.s:1098   .text:0000000000000610 .L0 
     /tmp/ccuk26uq.s:1102   .text:000000000000061c .L0 
     /tmp/ccuk26uq.s:1103   .text:000000000000061c .L0 
     /tmp/ccuk26uq.s:1104   .text:000000000000061c .L0 
     /tmp/ccuk26uq.s:1106   .text:0000000000000620 .L0 
     /tmp/ccuk26uq.s:1110   .text:0000000000000624 .L0 
     /tmp/ccuk26uq.s:1111   .text:0000000000000624 .L0 
     /tmp/ccuk26uq.s:1112   .text:0000000000000624 .L0 
     /tmp/ccuk26uq.s:1117   .text:0000000000000630 .L0 
     /tmp/ccuk26uq.s:1121   .text:0000000000000634 .L0 
     /tmp/ccuk26uq.s:1122   .text:0000000000000634 .L0 
     /tmp/ccuk26uq.s:1124   .text:0000000000000638 .L0 
     /tmp/ccuk26uq.s:1125   .text:0000000000000638 .L0 
     /tmp/ccuk26uq.s:1128   .text:000000000000063c .L0 
     /tmp/ccuk26uq.s:1129   .text:000000000000063c .L0 
     /tmp/ccuk26uq.s:1132   .text:0000000000000640 .L0 
     /tmp/ccuk26uq.s:1136   .text:0000000000000644 .L0 
     /tmp/ccuk26uq.s:1139   .text:000000000000064c .L0 
     /tmp/ccuk26uq.s:1140   .text:000000000000064c .L0 
     /tmp/ccuk26uq.s:1144   .text:0000000000000650 .L0 
     /tmp/ccuk26uq.s:1145   .text:0000000000000654 .L0 
     /tmp/ccuk26uq.s:1146   .text:0000000000000654 .L0 
     /tmp/ccuk26uq.s:1148   .text:0000000000000658 .L0 
     /tmp/ccuk26uq.s:1149   .text:0000000000000658 .L0 
     /tmp/ccuk26uq.s:1151   .text:000000000000065c .L0 
     /tmp/ccuk26uq.s:1154   .text:0000000000000660 .L0 
     /tmp/ccuk26uq.s:1158   .text:0000000000000664 .L0 
     /tmp/ccuk26uq.s:1160   .text:0000000000000664 .L0 
     /tmp/ccuk26uq.s:1163   .text:000000000000066c .L0 
     /tmp/ccuk26uq.s:1169   .text:000000000000066c _ZN12kmem_cache_s5kfreeEPKv
     /tmp/ccuk26uq.s:1172   .text:000000000000066c .L0 
GAS LISTING /tmp/ccuk26uq.s 			page 78


     /tmp/ccuk26uq.s:1174   .text:000000000000066c .L0 
     /tmp/ccuk26uq.s:1175   .text:0000000000000670 .L0 
     /tmp/ccuk26uq.s:1180   .text:0000000000000680 .L0 
     /tmp/ccuk26uq.s:1181   .text:0000000000000680 .L0 
     /tmp/ccuk26uq.s:1182   .text:0000000000000680 .L0 
     /tmp/ccuk26uq.s:1183   .text:0000000000000680 .L0 
     /tmp/ccuk26uq.s:1185   .text:0000000000000684 .L0 
     /tmp/ccuk26uq.s:1189   .text:0000000000000688 .L0 
     /tmp/ccuk26uq.s:1190   .text:0000000000000688 .L0 
     /tmp/ccuk26uq.s:1194   .text:0000000000000690 .L0 
     /tmp/ccuk26uq.s:1196   .text:0000000000000694 .L0 
     /tmp/ccuk26uq.s:1197   .text:0000000000000694 .L0 
     /tmp/ccuk26uq.s:1202   .text:00000000000006a4 .L0 
     /tmp/ccuk26uq.s:1204   .text:00000000000006a8 .L0 
     /tmp/ccuk26uq.s:1205   .text:00000000000006a8 .L0 
     /tmp/ccuk26uq.s:1208   .text:00000000000006ac .L0 
     /tmp/ccuk26uq.s:1212   .text:00000000000006b0 .L0 
     /tmp/ccuk26uq.s:1215   .text:00000000000006b4 .L0 
     /tmp/ccuk26uq.s:1216   .text:00000000000006b8 .L0 
     /tmp/ccuk26uq.s:1218   .text:00000000000006bc .L0 
     /tmp/ccuk26uq.s:1219   .text:00000000000006bc .L0 
     /tmp/ccuk26uq.s:1221   .text:00000000000006c0 .L0 
     /tmp/ccuk26uq.s:1224   .text:00000000000006c4 .L0 
     /tmp/ccuk26uq.s:1227   .text:00000000000006c8 .L0 
     /tmp/ccuk26uq.s:1229   .text:00000000000006cc .L0 
     /tmp/ccuk26uq.s:1294   .text:00000000000006cc _ZN12kmem_cache_s15kmem_cache_infoEv
     /tmp/ccuk26uq.s:1297   .text:00000000000006cc .L0 
     /tmp/ccuk26uq.s:1299   .text:00000000000006cc .L0 
     /tmp/ccuk26uq.s:1300   .text:00000000000006d0 .L0 
     /tmp/ccuk26uq.s:1307   .text:00000000000006e8 .L0 
     /tmp/ccuk26uq.s:1308   .text:00000000000006e8 .L0 
     /tmp/ccuk26uq.s:1309   .text:00000000000006e8 .L0 
     /tmp/ccuk26uq.s:1310   .text:00000000000006e8 .L0 
     /tmp/ccuk26uq.s:1311   .text:00000000000006e8 .L0 
     /tmp/ccuk26uq.s:1312   .text:00000000000006e8 .L0 
     /tmp/ccuk26uq.s:1314   .text:00000000000006ec .L0 
     /tmp/ccuk26uq.s:1317   .text:00000000000006f0 .L0 
     /tmp/ccuk26uq.s:1318   .text:00000000000006f0 .L0 
     /tmp/ccuk26uq.s:1323   .text:0000000000000700 .L0 
     /tmp/ccuk26uq.s:1324   .text:0000000000000700 .L0 
     /tmp/ccuk26uq.s:1328   .text:0000000000000710 .L0 
     /tmp/ccuk26uq.s:1329   .text:0000000000000710 .L0 
     /tmp/ccuk26uq.s:1333   .text:000000000000071c .L0 
     /tmp/ccuk26uq.s:1334   .text:000000000000071c .L0 
     /tmp/ccuk26uq.s:1338   .text:000000000000072c .L0 
     /tmp/ccuk26uq.s:1339   .text:000000000000072c .L0 
     /tmp/ccuk26uq.s:1343   .text:000000000000073c .L0 
     /tmp/ccuk26uq.s:1344   .text:000000000000073c .L0 
     /tmp/ccuk26uq.s:1350   .text:0000000000000750 .L0 
     /tmp/ccuk26uq.s:1351   .text:0000000000000750 .L0 
     /tmp/ccuk26uq.s:1355   .text:0000000000000760 .L0 
     /tmp/ccuk26uq.s:1356   .text:0000000000000760 .L0 
     /tmp/ccuk26uq.s:1358   .text:0000000000000764 .L0 
     /tmp/ccuk26uq.s:1360   .text:0000000000000768 .L0 
     /tmp/ccuk26uq.s:1362   .text:000000000000076c .L0 
     /tmp/ccuk26uq.s:1364   .text:0000000000000770 .L0 
     /tmp/ccuk26uq.s:1367   .text:0000000000000774 .L0 
GAS LISTING /tmp/ccuk26uq.s 			page 79


     /tmp/ccuk26uq.s:1368   .text:0000000000000774 .L0 
     /tmp/ccuk26uq.s:1370   .text:0000000000000778 .L0 
     /tmp/ccuk26uq.s:1372   .text:000000000000077c .L0 
     /tmp/ccuk26uq.s:1375   .text:0000000000000780 .L0 
     /tmp/ccuk26uq.s:1376   .text:0000000000000780 .L0 
     /tmp/ccuk26uq.s:1380   .text:0000000000000790 .L0 
     /tmp/ccuk26uq.s:1381   .text:0000000000000790 .L0 
     /tmp/ccuk26uq.s:1387   .text:00000000000007a4 .L0 
     /tmp/ccuk26uq.s:1388   .text:00000000000007a4 .L0 
     /tmp/ccuk26uq.s:1392   .text:00000000000007b4 .L0 
     /tmp/ccuk26uq.s:1393   .text:00000000000007b4 .L0 
     /tmp/ccuk26uq.s:1397   .text:00000000000007c4 .L0 
     /tmp/ccuk26uq.s:1398   .text:00000000000007c4 .L0 
     /tmp/ccuk26uq.s:1404   .text:00000000000007d8 .L0 
     /tmp/ccuk26uq.s:1405   .text:00000000000007d8 .L0 
     /tmp/ccuk26uq.s:1409   .text:00000000000007e8 .L0 
     /tmp/ccuk26uq.s:1410   .text:00000000000007e8 .L0 
     /tmp/ccuk26uq.s:1414   .text:00000000000007f8 .L0 
     /tmp/ccuk26uq.s:1415   .text:00000000000007f8 .L0 
     /tmp/ccuk26uq.s:1421   .text:000000000000080c .L0 
     /tmp/ccuk26uq.s:1422   .text:000000000000080c .L0 
     /tmp/ccuk26uq.s:1426   .text:000000000000081c .L0 
     /tmp/ccuk26uq.s:1427   .text:000000000000081c .L0 
     /tmp/ccuk26uq.s:1431   .text:000000000000082c .L0 
     /tmp/ccuk26uq.s:1432   .text:000000000000082c .L0 
     /tmp/ccuk26uq.s:1438   .text:0000000000000840 .L0 
     /tmp/ccuk26uq.s:1439   .text:0000000000000840 .L0 
     /tmp/ccuk26uq.s:1443   .text:0000000000000850 .L0 
     /tmp/ccuk26uq.s:1444   .text:0000000000000850 .L0 
     /tmp/ccuk26uq.s:1449   .text:0000000000000860 .L0 
     /tmp/ccuk26uq.s:1450   .text:0000000000000860 .L0 
     /tmp/ccuk26uq.s:1454   .text:0000000000000864 .L0 
     /tmp/ccuk26uq.s:1459   .text:0000000000000868 .L0 
     /tmp/ccuk26uq.s:1462   .text:0000000000000868 .L0 
     /tmp/ccuk26uq.s:1463   .text:0000000000000868 .L0 
     /tmp/ccuk26uq.s:1469   .text:000000000000087c .L0 
     /tmp/ccuk26uq.s:1470   .text:000000000000087c .L0 
     /tmp/ccuk26uq.s:1474   .text:000000000000088c .L0 
     /tmp/ccuk26uq.s:1475   .text:000000000000088c .L0 
     /tmp/ccuk26uq.s:1478   .text:0000000000000890 .L0 
     /tmp/ccuk26uq.s:1482   .text:0000000000000894 .L0 
     /tmp/ccuk26uq.s:1483   .text:0000000000000894 .L0 
     /tmp/ccuk26uq.s:1487   .text:00000000000008a4 .L0 
     /tmp/ccuk26uq.s:1488   .text:00000000000008a4 .L0 
     /tmp/ccuk26uq.s:1493   .text:00000000000008b4 .L0 
     /tmp/ccuk26uq.s:1494   .text:00000000000008b4 .L0 
     /tmp/ccuk26uq.s:1498   .text:00000000000008b8 .L0 
     /tmp/ccuk26uq.s:1503   .text:00000000000008bc .L0 
     /tmp/ccuk26uq.s:1506   .text:00000000000008bc .L0 
     /tmp/ccuk26uq.s:1507   .text:00000000000008bc .L0 
     /tmp/ccuk26uq.s:1513   .text:00000000000008d0 .L0 
     /tmp/ccuk26uq.s:1514   .text:00000000000008d0 .L0 
     /tmp/ccuk26uq.s:1518   .text:00000000000008e0 .L0 
     /tmp/ccuk26uq.s:1519   .text:00000000000008e0 .L0 
     /tmp/ccuk26uq.s:1522   .text:00000000000008e4 .L0 
     /tmp/ccuk26uq.s:1526   .text:00000000000008e8 .L0 
     /tmp/ccuk26uq.s:1527   .text:00000000000008e8 .L0 
GAS LISTING /tmp/ccuk26uq.s 			page 80


     /tmp/ccuk26uq.s:1531   .text:00000000000008f8 .L0 
     /tmp/ccuk26uq.s:1532   .text:00000000000008f8 .L0 
     /tmp/ccuk26uq.s:1537   .text:0000000000000908 .L0 
     /tmp/ccuk26uq.s:1538   .text:0000000000000908 .L0 
     /tmp/ccuk26uq.s:1542   .text:000000000000090c .L0 
     /tmp/ccuk26uq.s:1547   .text:0000000000000910 .L0 
     /tmp/ccuk26uq.s:1550   .text:0000000000000910 .L0 
     /tmp/ccuk26uq.s:1551   .text:0000000000000910 .L0 
     /tmp/ccuk26uq.s:1557   .text:0000000000000924 .L0 
     /tmp/ccuk26uq.s:1558   .text:0000000000000924 .L0 
     /tmp/ccuk26uq.s:1562   .text:0000000000000934 .L0 
     /tmp/ccuk26uq.s:1563   .text:0000000000000934 .L0 
     /tmp/ccuk26uq.s:1566   .text:0000000000000938 .L0 
     /tmp/ccuk26uq.s:1570   .text:000000000000093c .L0 
     /tmp/ccuk26uq.s:1571   .text:000000000000093c .L0 
     /tmp/ccuk26uq.s:1575   .text:000000000000094c .L0 
     /tmp/ccuk26uq.s:1576   .text:000000000000094c .L0 
     /tmp/ccuk26uq.s:1580   .text:000000000000095c .L0 
     /tmp/ccuk26uq.s:1581   .text:000000000000095c .L0 
     /tmp/ccuk26uq.s:1587   .text:0000000000000970 .L0 
     /tmp/ccuk26uq.s:1588   .text:0000000000000970 .L0 
     /tmp/ccuk26uq.s:1592   .text:0000000000000980 .L0 
     /tmp/ccuk26uq.s:1593   .text:0000000000000980 .L0 
     /tmp/ccuk26uq.s:1597   .text:0000000000000990 .L0 
     /tmp/ccuk26uq.s:1598   .text:0000000000000990 .L0 
     /tmp/ccuk26uq.s:1604   .text:00000000000009a4 .L0 
     /tmp/ccuk26uq.s:1605   .text:00000000000009a4 .L0 
     /tmp/ccuk26uq.s:1609   .text:00000000000009b4 .L0 
     /tmp/ccuk26uq.s:1610   .text:00000000000009b4 .L0 
     /tmp/ccuk26uq.s:1614   .text:00000000000009c4 .L0 
     /tmp/ccuk26uq.s:1615   .text:00000000000009c4 .L0 
     /tmp/ccuk26uq.s:1618   .text:00000000000009c8 .L0 
     /tmp/ccuk26uq.s:1620   .text:00000000000009cc .L0 
     /tmp/ccuk26uq.s:1623   .text:00000000000009d0 .L0 
     /tmp/ccuk26uq.s:1624   .text:00000000000009d0 .L0 
     /tmp/ccuk26uq.s:1630   .text:00000000000009e4 .L0 
     /tmp/ccuk26uq.s:1631   .text:00000000000009e4 .L0 
     /tmp/ccuk26uq.s:1635   .text:00000000000009f4 .L0 
     /tmp/ccuk26uq.s:1636   .text:00000000000009f4 .L0 
     /tmp/ccuk26uq.s:1639   .text:00000000000009f8 .L0 
     /tmp/ccuk26uq.s:1641   .text:00000000000009fc .L0 
     /tmp/ccuk26uq.s:1643   .text:0000000000000a00 .L0 
     /tmp/ccuk26uq.s:1645   .text:0000000000000a04 .L0 
     /tmp/ccuk26uq.s:1647   .text:0000000000000a08 .L0 
     /tmp/ccuk26uq.s:1650   .text:0000000000000a0c .L0 
     /tmp/ccuk26uq.s:1651   .text:0000000000000a0c .L0 
     /tmp/ccuk26uq.s:1653   .text:0000000000000a10 .L0 
     /tmp/ccuk26uq.s:1655   .text:0000000000000a14 .L0 
     /tmp/ccuk26uq.s:1657   .text:0000000000000a18 .L0 
     /tmp/ccuk26uq.s:1660   .text:0000000000000a1c .L0 
     /tmp/ccuk26uq.s:1661   .text:0000000000000a1c .L0 
     /tmp/ccuk26uq.s:1665   .text:0000000000000a2c .L0 
     /tmp/ccuk26uq.s:1666   .text:0000000000000a2c .L0 
     /tmp/ccuk26uq.s:1672   .text:0000000000000a40 .L0 
     /tmp/ccuk26uq.s:1673   .text:0000000000000a40 .L0 
     /tmp/ccuk26uq.s:1677   .text:0000000000000a50 .L0 
     /tmp/ccuk26uq.s:1678   .text:0000000000000a50 .L0 
GAS LISTING /tmp/ccuk26uq.s 			page 81


     /tmp/ccuk26uq.s:1684   .text:0000000000000a64 .L0 
     /tmp/ccuk26uq.s:1685   .text:0000000000000a64 .L0 
     /tmp/ccuk26uq.s:1689   .text:0000000000000a74 .L0 
     /tmp/ccuk26uq.s:1690   .text:0000000000000a74 .L0 
     /tmp/ccuk26uq.s:1694   .text:0000000000000a84 .L0 
     /tmp/ccuk26uq.s:1695   .text:0000000000000a84 .L0 
     /tmp/ccuk26uq.s:1697   .text:0000000000000a88 .L0 
     /tmp/ccuk26uq.s:1699   .text:0000000000000a8c .L0 
     /tmp/ccuk26uq.s:1705   .text:0000000000000aa0 .L0 
     /tmp/ccuk26uq.s:1706   .text:0000000000000aa0 .L0 
     /tmp/ccuk26uq.s:1710   .text:0000000000000ab0 .L0 
     /tmp/ccuk26uq.s:1711   .text:0000000000000ab0 .L0 
     /tmp/ccuk26uq.s:1713   .text:0000000000000ab4 .L0 
     /tmp/ccuk26uq.s:1715   .text:0000000000000ab8 .L0 
     /tmp/ccuk26uq.s:1717   .text:0000000000000abc .L0 
     /tmp/ccuk26uq.s:1723   .text:0000000000000ac8 .L0 
     /tmp/ccuk26uq.s:1724   .text:0000000000000ac8 .L0 
     /tmp/ccuk26uq.s:1731   .text:0000000000000adc .L0 
     /tmp/ccuk26uq.s:1732   .text:0000000000000adc .L0 
     /tmp/ccuk26uq.s:1736   .text:0000000000000aec .L0 
     /tmp/ccuk26uq.s:1737   .text:0000000000000aec .L0 
     /tmp/ccuk26uq.s:1741   .text:0000000000000afc .L0 
     /tmp/ccuk26uq.s:1742   .text:0000000000000b00 .L0 
     /tmp/ccuk26uq.s:1744   .text:0000000000000b04 .L0 
     /tmp/ccuk26uq.s:1745   .text:0000000000000b04 .L0 
     /tmp/ccuk26uq.s:1747   .text:0000000000000b08 .L0 
     /tmp/ccuk26uq.s:1750   .text:0000000000000b0c .L0 
     /tmp/ccuk26uq.s:1753   .text:0000000000000b10 .L0 
     /tmp/ccuk26uq.s:1755   .text:0000000000000b14 .L0 
     /tmp/ccuk26uq.s:1758   .text:0000000000000b18 .L0 
     /tmp/ccuk26uq.s:1760   .text:0000000000000b1c .L0 
     /tmp/ccuk26uq.s:1774   .text:0000000000000b1c _ZN12kmem_cache_s21print_info_all_cachesEv
     /tmp/ccuk26uq.s:1777   .text:0000000000000b1c .L0 
     /tmp/ccuk26uq.s:1778   .text:0000000000000b1c .L0 
     /tmp/ccuk26uq.s:1779   .text:0000000000000b20 .L0 
     /tmp/ccuk26uq.s:1783   .text:0000000000000b2c .L0 
     /tmp/ccuk26uq.s:1784   .text:0000000000000b2c .L0 
     /tmp/ccuk26uq.s:1785   .text:0000000000000b2c .L0 
     /tmp/ccuk26uq.s:1787   .text:0000000000000b30 .L0 
     /tmp/ccuk26uq.s:1789   .text:0000000000000b30 .L0 
     /tmp/ccuk26uq.s:1790   .text:0000000000000b30 .L0 
     /tmp/ccuk26uq.s:1795   .text:0000000000000b40 .L0 
     /tmp/ccuk26uq.s:1796   .text:0000000000000b40 .L0 
     /tmp/ccuk26uq.s:1800   .text:0000000000000b48 .L0 
     /tmp/ccuk26uq.s:1802   .text:0000000000000b4c .L0 
     /tmp/ccuk26uq.s:1803   .text:0000000000000b4c .L0 
     /tmp/ccuk26uq.s:1807   .text:0000000000000b58 .L0 
     /tmp/ccuk26uq.s:1808   .text:0000000000000b58 .L0 
     /tmp/ccuk26uq.s:1811   .text:0000000000000b5c .L0 
     /tmp/ccuk26uq.s:1815   .text:0000000000000b60 .L0 
     /tmp/ccuk26uq.s:1816   .text:0000000000000b60 .L0 
     /tmp/ccuk26uq.s:1820   .text:0000000000000b70 .L0 
     /tmp/ccuk26uq.s:1821   .text:0000000000000b74 .L0 
     /tmp/ccuk26uq.s:1823   .text:0000000000000b78 .L0 
     /tmp/ccuk26uq.s:1824   .text:0000000000000b78 .L0 
     /tmp/ccuk26uq.s:1826   .text:0000000000000b7c .L0 
     /tmp/ccuk26uq.s:1829   .text:0000000000000b80 .L0 
GAS LISTING /tmp/ccuk26uq.s 			page 82


     /tmp/ccuk26uq.s:1831   .text:0000000000000b84 .L0 
     /tmp/ccuk26uq.s:1837   .text:0000000000000b84 _ZN4Slab42return_first_free_object_and_rearange_listEii
     /tmp/ccuk26uq.s:1840   .text:0000000000000b84 .L0 
     /tmp/ccuk26uq.s:1842   .text:0000000000000b84 .L0 
     /tmp/ccuk26uq.s:1843   .text:0000000000000b88 .L0 
     /tmp/ccuk26uq.s:1850   .text:0000000000000ba0 .L0 
     /tmp/ccuk26uq.s:1851   .text:0000000000000ba0 .L0 
     /tmp/ccuk26uq.s:1852   .text:0000000000000ba0 .L0 
     /tmp/ccuk26uq.s:1853   .text:0000000000000ba0 .L0 
     /tmp/ccuk26uq.s:1854   .text:0000000000000ba0 .L0 
     /tmp/ccuk26uq.s:1855   .text:0000000000000ba0 .L0 
     /tmp/ccuk26uq.s:1857   .text:0000000000000ba4 .L0 
     /tmp/ccuk26uq.s:1863   .text:0000000000000bb0 .L0 
     /tmp/ccuk26uq.s:1864   .text:0000000000000bb0 .L0 
     /tmp/ccuk26uq.s:1868   .text:0000000000000bb4 .L0 
     /tmp/ccuk26uq.s:1869   .text:0000000000000bb4 .L0 
     /tmp/ccuk26uq.s:1871   .text:0000000000000bb8 .L0 
     /tmp/ccuk26uq.s:1876   .text:0000000000000bc8 .L0 
     /tmp/ccuk26uq.s:1878   .text:0000000000000bcc .L0 
     /tmp/ccuk26uq.s:1879   .text:0000000000000bcc .L0 
     /tmp/ccuk26uq.s:1882   .text:0000000000000bd0 .L0 
     /tmp/ccuk26uq.s:1886   .text:0000000000000bd4 .L0 
     /tmp/ccuk26uq.s:1888   .text:0000000000000bd8 .L0 
     /tmp/ccuk26uq.s:1889   .text:0000000000000bd8 .L0 
     /tmp/ccuk26uq.s:1895   .text:0000000000000bec .L0 
     /tmp/ccuk26uq.s:1896   .text:0000000000000bec .L0 
     /tmp/ccuk26uq.s:1898   .text:0000000000000bf0 .L0 
     /tmp/ccuk26uq.s:1901   .text:0000000000000bf4 .L0 
     /tmp/ccuk26uq.s:1904   .text:0000000000000bf8 .L0 
     /tmp/ccuk26uq.s:1905   .text:0000000000000bfc .L0 
     /tmp/ccuk26uq.s:1906   .text:0000000000000bfc .L0 
     /tmp/ccuk26uq.s:1908   .text:0000000000000c00 .L0 
     /tmp/ccuk26uq.s:1909   .text:0000000000000c00 .L0 
     /tmp/ccuk26uq.s:1911   .text:0000000000000c04 .L0 
     /tmp/ccuk26uq.s:1913   .text:0000000000000c08 .L0 
     /tmp/ccuk26uq.s:1915   .text:0000000000000c0c .L0 
     /tmp/ccuk26uq.s:1918   .text:0000000000000c10 .L0 
     /tmp/ccuk26uq.s:1920   .text:0000000000000c14 .L0 
     /tmp/ccuk26uq.s:1924   .text:0000000000000c18 .L0 
     /tmp/ccuk26uq.s:1926   .text:0000000000000c18 .L0 
     /tmp/ccuk26uq.s:1928   .text:0000000000000c20 .L0 
     /tmp/ccuk26uq.s:1934   .text:0000000000000c20 _ZN12kmem_cache_s16kmem_cache_allocEv
     /tmp/ccuk26uq.s:1937   .text:0000000000000c20 .L0 
     /tmp/ccuk26uq.s:1939   .text:0000000000000c20 .L0 
     /tmp/ccuk26uq.s:1940   .text:0000000000000c24 .L0 
     /tmp/ccuk26uq.s:1944   .text:0000000000000c30 .L0 
     /tmp/ccuk26uq.s:1945   .text:0000000000000c30 .L0 
     /tmp/ccuk26uq.s:1946   .text:0000000000000c30 .L0 
     /tmp/ccuk26uq.s:1948   .text:0000000000000c34 .L0 
     /tmp/ccuk26uq.s:1952   .text:0000000000000c38 .L0 
     /tmp/ccuk26uq.s:1953   .text:0000000000000c38 .L0 
     /tmp/ccuk26uq.s:1955   .text:0000000000000c3c .L0 
     /tmp/ccuk26uq.s:1960   .text:0000000000000c40 .L0 
     /tmp/ccuk26uq.s:1961   .text:0000000000000c40 .L0 
     /tmp/ccuk26uq.s:1963   .text:0000000000000c44 .L0 
     /tmp/ccuk26uq.s:1966   .text:0000000000000c48 .L0 
     /tmp/ccuk26uq.s:1967   .text:0000000000000c48 .L0 
GAS LISTING /tmp/ccuk26uq.s 			page 83


     /tmp/ccuk26uq.s:1974   .text:0000000000000c5c .L0 
     /tmp/ccuk26uq.s:1975   .text:0000000000000c5c .L0 
     /tmp/ccuk26uq.s:1977   .text:0000000000000c60 .L0 
     /tmp/ccuk26uq.s:1980   .text:0000000000000c68 .L0 
     /tmp/ccuk26uq.s:1981   .text:0000000000000c68 .L0 
     /tmp/ccuk26uq.s:1984   .text:0000000000000c6c .L0 
     /tmp/ccuk26uq.s:1985   .text:0000000000000c6c .L0 
     /tmp/ccuk26uq.s:1987   .text:0000000000000c70 .L0 
     /tmp/ccuk26uq.s:1989   .text:0000000000000c74 .L0 
     /tmp/ccuk26uq.s:1990   .text:0000000000000c74 .L0 
     /tmp/ccuk26uq.s:1992   .text:0000000000000c78 .L0 
     /tmp/ccuk26uq.s:1997   .text:0000000000000c7c .L0 
     /tmp/ccuk26uq.s:1998   .text:0000000000000c7c .L0 
     /tmp/ccuk26uq.s:2000   .text:0000000000000c80 .L0 
     /tmp/ccuk26uq.s:2006   .text:0000000000000c88 .L0 
     /tmp/ccuk26uq.s:2007   .text:0000000000000c88 .L0 
     /tmp/ccuk26uq.s:2009   .text:0000000000000c8c .L0 
     /tmp/ccuk26uq.s:2010   .text:0000000000000c8c .L0 
     /tmp/ccuk26uq.s:2013   .text:0000000000000c90 .L0 
     /tmp/ccuk26uq.s:2016   .text:0000000000000c98 .L0 
     /tmp/ccuk26uq.s:2017   .text:0000000000000c98 .L0 
     /tmp/ccuk26uq.s:2019   .text:0000000000000c9c .L0 
     /tmp/ccuk26uq.s:2027   .text:0000000000000ca4 .L0 
     /tmp/ccuk26uq.s:2028   .text:0000000000000ca4 .L0 
     /tmp/ccuk26uq.s:2029   .text:0000000000000ca8 .L0 
     /tmp/ccuk26uq.s:2030   .text:0000000000000ca8 .L0 
     /tmp/ccuk26uq.s:2032   .text:0000000000000cac .L0 
     /tmp/ccuk26uq.s:2033   .text:0000000000000cac .L0 
     /tmp/ccuk26uq.s:2035   .text:0000000000000cb0 .L0 
     /tmp/ccuk26uq.s:2038   .text:0000000000000cb4 .L0 
     /tmp/ccuk26uq.s:2042   .text:0000000000000cb8 .L0 
     /tmp/ccuk26uq.s:2046   .text:0000000000000cb8 .L0 
     /tmp/ccuk26uq.s:2047   .text:0000000000000cb8 .L0 
     /tmp/ccuk26uq.s:2053   .text:0000000000000ccc .L0 
     /tmp/ccuk26uq.s:2054   .text:0000000000000ccc .L0 
     /tmp/ccuk26uq.s:2056   .text:0000000000000cd0 .L0 
     /tmp/ccuk26uq.s:2059   .text:0000000000000cd8 .L0 
     /tmp/ccuk26uq.s:2060   .text:0000000000000cd8 .L0 
     /tmp/ccuk26uq.s:2065   .text:0000000000000cdc .L0 
     /tmp/ccuk26uq.s:2067   .text:0000000000000ce0 .L0 
     /tmp/ccuk26uq.s:2074   .text:0000000000000ce8 .L0 
     /tmp/ccuk26uq.s:2075   .text:0000000000000ce8 .L0 
     /tmp/ccuk26uq.s:2080   .text:0000000000000cec .L0 
     /tmp/ccuk26uq.s:2081   .text:0000000000000cec .L0 
     /tmp/ccuk26uq.s:2086   .text:0000000000000cf0 .L0 
     /tmp/ccuk26uq.s:2088   .text:0000000000000cf4 .L0 
     /tmp/ccuk26uq.s:2092   .text:0000000000000cf8 .L0 
     /tmp/ccuk26uq.s:2093   .text:0000000000000cf8 .L0 
     /tmp/ccuk26uq.s:2094   .text:0000000000000cf8 .L0 
     /tmp/ccuk26uq.s:2096   .text:0000000000000cfc .L0 
     /tmp/ccuk26uq.s:2098   .text:0000000000000d00 .L0 
     /tmp/ccuk26uq.s:2099   .text:0000000000000d00 .L0 
     /tmp/ccuk26uq.s:2101   .text:0000000000000d04 .L0 
     /tmp/ccuk26uq.s:2103   .text:0000000000000d08 .L0 
     /tmp/ccuk26uq.s:2104   .text:0000000000000d08 .L0 
     /tmp/ccuk26uq.s:2106   .text:0000000000000d0c .L0 
     /tmp/ccuk26uq.s:2107   .text:0000000000000d0c .L0 
GAS LISTING /tmp/ccuk26uq.s 			page 84


     /tmp/ccuk26uq.s:2110   .text:0000000000000d10 .L0 
     /tmp/ccuk26uq.s:2113   .text:0000000000000d18 .L0 
     /tmp/ccuk26uq.s:2114   .text:0000000000000d18 .L0 
     /tmp/ccuk26uq.s:2116   .text:0000000000000d1c .L0 
     /tmp/ccuk26uq.s:2121   .text:0000000000000d24 .L0 
     /tmp/ccuk26uq.s:2122   .text:0000000000000d24 .L0 
     /tmp/ccuk26uq.s:2128   .text:0000000000000d28 .L0 
     /tmp/ccuk26uq.s:2129   .text:0000000000000d28 .L0 
     /tmp/ccuk26uq.s:2132   .text:0000000000000d30 .L0 
     /tmp/ccuk26uq.s:2133   .text:0000000000000d30 .L0 
     /tmp/ccuk26uq.s:2136   .text:0000000000000d38 .L0 
     /tmp/ccuk26uq.s:2137   .text:0000000000000d38 .L0 
     /tmp/ccuk26uq.s:2141   .text:0000000000000d40 .L0 
     /tmp/ccuk26uq.s:2147   .text:0000000000000d40 _ZN12kmem_cache_s7kmallocEm
     /tmp/ccuk26uq.s:2150   .text:0000000000000d40 .L0 
     /tmp/ccuk26uq.s:2152   .text:0000000000000d40 .L0 
     /tmp/ccuk26uq.s:2153   .text:0000000000000d44 .L0 
     /tmp/ccuk26uq.s:2158   .text:0000000000000d54 .L0 
     /tmp/ccuk26uq.s:2159   .text:0000000000000d54 .L0 
     /tmp/ccuk26uq.s:2160   .text:0000000000000d54 .L0 
     /tmp/ccuk26uq.s:2161   .text:0000000000000d54 .L0 
     /tmp/ccuk26uq.s:2163   .text:0000000000000d58 .L0 
     /tmp/ccuk26uq.s:2166   .text:0000000000000d5c .L0 
     /tmp/ccuk26uq.s:2167   .text:0000000000000d5c .L0 
     /tmp/ccuk26uq.s:2174   .text:0000000000000d6c .L0 
     /tmp/ccuk26uq.s:2175   .text:0000000000000d6c .L0 
     /tmp/ccuk26uq.s:2178   .text:0000000000000d74 .L0 
     /tmp/ccuk26uq.s:2181   .text:0000000000000d78 .L0 
     /tmp/ccuk26uq.s:2182   .text:0000000000000d78 .L0 
     /tmp/ccuk26uq.s:2186   .text:0000000000000d80 .L0 
     /tmp/ccuk26uq.s:2187   .text:0000000000000d80 .L0 
     /tmp/ccuk26uq.s:2188   .text:0000000000000d84 .L0 
     /tmp/ccuk26uq.s:2189   .text:0000000000000d84 .L0 
     /tmp/ccuk26uq.s:2191   .text:0000000000000d88 .L0 
     /tmp/ccuk26uq.s:2192   .text:0000000000000d88 .L0 
     /tmp/ccuk26uq.s:2194   .text:0000000000000d8c .L0 
     /tmp/ccuk26uq.s:2197   .text:0000000000000d90 .L0 
     /tmp/ccuk26uq.s:2200   .text:0000000000000d94 .L0 
     /tmp/ccuk26uq.s:2204   .text:0000000000000d98 .L0 
     /tmp/ccuk26uq.s:2206   .text:0000000000000d98 .L0 
     /tmp/ccuk26uq.s:2207   .text:0000000000000d98 .L0 
     /tmp/ccuk26uq.s:2215   .text:0000000000000db0 .L0 
     /tmp/ccuk26uq.s:2217   .text:0000000000000db8 .L0 
     /tmp/ccuk26uq.s:2223   .text:0000000000000db8 _ZN4Slab10clear_slabEiiPFvPvE
     /tmp/ccuk26uq.s:2226   .text:0000000000000db8 .L0 
     /tmp/ccuk26uq.s:2228   .text:0000000000000db8 .L0 
     /tmp/ccuk26uq.s:2229   .text:0000000000000db8 .L0 
     /tmp/ccuk26uq.s:2231   .text:0000000000000dbc .L0 
     /tmp/ccuk26uq.s:2232   .text:0000000000000dc0 .L0 
     /tmp/ccuk26uq.s:2240   .text:0000000000000ddc .L0 
     /tmp/ccuk26uq.s:2241   .text:0000000000000ddc .L0 
     /tmp/ccuk26uq.s:2242   .text:0000000000000ddc .L0 
     /tmp/ccuk26uq.s:2243   .text:0000000000000ddc .L0 
     /tmp/ccuk26uq.s:2244   .text:0000000000000ddc .L0 
     /tmp/ccuk26uq.s:2245   .text:0000000000000ddc .L0 
     /tmp/ccuk26uq.s:2246   .text:0000000000000ddc .L0 
     /tmp/ccuk26uq.s:2248   .text:0000000000000de0 .L0 
GAS LISTING /tmp/ccuk26uq.s 			page 85


     /tmp/ccuk26uq.s:2255   .text:0000000000000df0 .L0 
     /tmp/ccuk26uq.s:2260   .text:0000000000000df8 .L0 
     /tmp/ccuk26uq.s:2264   .text:0000000000000dfc .L0 
     /tmp/ccuk26uq.s:2266   .text:0000000000000e00 .L0 
     /tmp/ccuk26uq.s:2267   .text:0000000000000e00 .L0 
     /tmp/ccuk26uq.s:2272   .text:0000000000000e10 .L0 
     /tmp/ccuk26uq.s:2274   .text:0000000000000e14 .L0 
     /tmp/ccuk26uq.s:2275   .text:0000000000000e14 .L0 
     /tmp/ccuk26uq.s:2277   .text:0000000000000e18 .L0 
     /tmp/ccuk26uq.s:2279   .text:0000000000000e1c .L0 
     /tmp/ccuk26uq.s:2286   .text:0000000000000e28 .L0 
     /tmp/ccuk26uq.s:2287   .text:0000000000000e2c .L0 
     /tmp/ccuk26uq.s:2289   .text:0000000000000e30 .L0 
     /tmp/ccuk26uq.s:2290   .text:0000000000000e30 .L0 
     /tmp/ccuk26uq.s:2292   .text:0000000000000e34 .L0 
     /tmp/ccuk26uq.s:2295   .text:0000000000000e38 .L0 
     /tmp/ccuk26uq.s:2298   .text:0000000000000e3c .L0 
     /tmp/ccuk26uq.s:2300   .text:0000000000000e40 .L0 
     /tmp/ccuk26uq.s:2303   .text:0000000000000e44 .L0 
     /tmp/ccuk26uq.s:2305   .text:0000000000000e48 .L0 
     /tmp/ccuk26uq.s:2310   .text:0000000000000e50 .L0 
     /tmp/ccuk26uq.s:2316   .text:0000000000000e50 _ZN12kmem_cache_s17kmem_cache_shrinkEv
     /tmp/ccuk26uq.s:2319   .text:0000000000000e50 .L0 
     /tmp/ccuk26uq.s:2321   .text:0000000000000e50 .L0 
     /tmp/ccuk26uq.s:2322   .text:0000000000000e54 .L0 
     /tmp/ccuk26uq.s:2329   .text:0000000000000e6c .L0 
     /tmp/ccuk26uq.s:2330   .text:0000000000000e6c .L0 
     /tmp/ccuk26uq.s:2331   .text:0000000000000e6c .L0 
     /tmp/ccuk26uq.s:2332   .text:0000000000000e6c .L0 
     /tmp/ccuk26uq.s:2333   .text:0000000000000e6c .L0 
     /tmp/ccuk26uq.s:2334   .text:0000000000000e6c .L0 
     /tmp/ccuk26uq.s:2336   .text:0000000000000e70 .L0 
     /tmp/ccuk26uq.s:2339   .text:0000000000000e74 .L0 
     /tmp/ccuk26uq.s:2340   .text:0000000000000e74 .L0 
     /tmp/ccuk26uq.s:2342   .text:0000000000000e78 .L0 
     /tmp/ccuk26uq.s:2344   .text:0000000000000e7c .L0 
     /tmp/ccuk26uq.s:2345   .text:0000000000000e7c .L0 
     /tmp/ccuk26uq.s:2348   .text:0000000000000e80 .L0 
     /tmp/ccuk26uq.s:2349   .text:0000000000000e80 .L0 
     /tmp/ccuk26uq.s:2355   .text:0000000000000e88 .L0 
     /tmp/ccuk26uq.s:2356   .text:0000000000000e88 .L0 
     /tmp/ccuk26uq.s:2358   .text:0000000000000e8c .L0 
     /tmp/ccuk26uq.s:2359   .text:0000000000000e8c .L0 
     /tmp/ccuk26uq.s:2367   .text:0000000000000e94 .L0 
     /tmp/ccuk26uq.s:2374   .text:0000000000000eb0 .L0 
     /tmp/ccuk26uq.s:2378   .text:0000000000000eb0 .L0 
     /tmp/ccuk26uq.s:2379   .text:0000000000000eb0 .L0 
     /tmp/ccuk26uq.s:2384   .text:0000000000000ec4 .L0 
     /tmp/ccuk26uq.s:2388   .text:0000000000000ec8 .L0 
     /tmp/ccuk26uq.s:2389   .text:0000000000000ec8 .L0 
     /tmp/ccuk26uq.s:2392   .text:0000000000000ecc .L0 
     /tmp/ccuk26uq.s:2393   .text:0000000000000ecc .L0 
     /tmp/ccuk26uq.s:2394   .text:0000000000000ecc .L0 
     /tmp/ccuk26uq.s:2397   .text:0000000000000ed0 .L0 
     /tmp/ccuk26uq.s:2398   .text:0000000000000ed0 .L0 
     /tmp/ccuk26uq.s:2407   .text:0000000000000ee8 .L0 
     /tmp/ccuk26uq.s:2408   .text:0000000000000ee8 .L0 
GAS LISTING /tmp/ccuk26uq.s 			page 86


     /tmp/ccuk26uq.s:2409   .text:0000000000000ee8 .L0 
     /tmp/ccuk26uq.s:2417   .text:0000000000000ef8 .L0 
     /tmp/ccuk26uq.s:2418   .text:0000000000000ef8 .L0 
     /tmp/ccuk26uq.s:2420   .text:0000000000000efc .L0 
     /tmp/ccuk26uq.s:2421   .text:0000000000000efc .L0 
     /tmp/ccuk26uq.s:2423   .text:0000000000000f00 .L0 
     /tmp/ccuk26uq.s:2424   .text:0000000000000f00 .L0 
     /tmp/ccuk26uq.s:2426   .text:0000000000000f04 .L0 
     /tmp/ccuk26uq.s:2427   .text:0000000000000f04 .L0 
     /tmp/ccuk26uq.s:2429   .text:0000000000000f08 .L0 
     /tmp/ccuk26uq.s:2432   .text:0000000000000f10 .L0 
     /tmp/ccuk26uq.s:2433   .text:0000000000000f10 .L0 
     /tmp/ccuk26uq.s:2438   .text:0000000000000f18 .L0 
     /tmp/ccuk26uq.s:2439   .text:0000000000000f1c .L0 
     /tmp/ccuk26uq.s:2441   .text:0000000000000f20 .L0 
     /tmp/ccuk26uq.s:2442   .text:0000000000000f20 .L0 
     /tmp/ccuk26uq.s:2444   .text:0000000000000f24 .L0 
     /tmp/ccuk26uq.s:2446   .text:0000000000000f28 .L0 
     /tmp/ccuk26uq.s:2449   .text:0000000000000f2c .L0 
     /tmp/ccuk26uq.s:2451   .text:0000000000000f30 .L0 
     /tmp/ccuk26uq.s:2453   .text:0000000000000f34 .L0 
     /tmp/ccuk26uq.s:2455   .text:0000000000000f38 .L0 
     /tmp/ccuk26uq.s:2461   .text:0000000000000f38 _ZN12kmem_cache_s18kmem_cache_destroyEm
     /tmp/ccuk26uq.s:2464   .text:0000000000000f38 .L0 
     /tmp/ccuk26uq.s:2466   .text:0000000000000f38 .L0 
     /tmp/ccuk26uq.s:2467   .text:0000000000000f3c .L0 
     /tmp/ccuk26uq.s:2474   .text:0000000000000f54 .L0 
     /tmp/ccuk26uq.s:2475   .text:0000000000000f54 .L0 
     /tmp/ccuk26uq.s:2476   .text:0000000000000f54 .L0 
     /tmp/ccuk26uq.s:2477   .text:0000000000000f54 .L0 
     /tmp/ccuk26uq.s:2478   .text:0000000000000f54 .L0 
     /tmp/ccuk26uq.s:2479   .text:0000000000000f54 .L0 
     /tmp/ccuk26uq.s:2481   .text:0000000000000f58 .L0 
     /tmp/ccuk26uq.s:2486   .text:0000000000000f60 .L0 
     /tmp/ccuk26uq.s:2487   .text:0000000000000f60 .L0 
     /tmp/ccuk26uq.s:2495   .text:0000000000000f68 .L0 
     /tmp/ccuk26uq.s:2498   .text:0000000000000f68 .L0 
     /tmp/ccuk26uq.s:2499   .text:0000000000000f68 .L0 
     /tmp/ccuk26uq.s:2504   .text:0000000000000f7c .L0 
     /tmp/ccuk26uq.s:2508   .text:0000000000000f80 .L0 
     /tmp/ccuk26uq.s:2509   .text:0000000000000f80 .L0 
     /tmp/ccuk26uq.s:2512   .text:0000000000000f84 .L0 
     /tmp/ccuk26uq.s:2513   .text:0000000000000f84 .L0 
     /tmp/ccuk26uq.s:2514   .text:0000000000000f84 .L0 
     /tmp/ccuk26uq.s:2517   .text:0000000000000f88 .L0 
     /tmp/ccuk26uq.s:2518   .text:0000000000000f88 .L0 
     /tmp/ccuk26uq.s:2527   .text:0000000000000fa0 .L0 
     /tmp/ccuk26uq.s:2528   .text:0000000000000fa0 .L0 
     /tmp/ccuk26uq.s:2529   .text:0000000000000fa0 .L0 
     /tmp/ccuk26uq.s:2542   .text:0000000000000fcc .L0 
     /tmp/ccuk26uq.s:2543   .text:0000000000000fcc .L0 
     /tmp/ccuk26uq.s:2544   .text:0000000000000fcc .L0 
     /tmp/ccuk26uq.s:2552   .text:0000000000000fd4 .L0 
     /tmp/ccuk26uq.s:2559   .text:0000000000000ff0 .L0 
     /tmp/ccuk26uq.s:2563   .text:0000000000000ff0 .L0 
     /tmp/ccuk26uq.s:2564   .text:0000000000000ff0 .L0 
     /tmp/ccuk26uq.s:2569   .text:0000000000001004 .L0 
GAS LISTING /tmp/ccuk26uq.s 			page 87


     /tmp/ccuk26uq.s:2573   .text:0000000000001008 .L0 
     /tmp/ccuk26uq.s:2574   .text:0000000000001008 .L0 
     /tmp/ccuk26uq.s:2577   .text:000000000000100c .L0 
     /tmp/ccuk26uq.s:2578   .text:000000000000100c .L0 
     /tmp/ccuk26uq.s:2579   .text:000000000000100c .L0 
     /tmp/ccuk26uq.s:2582   .text:0000000000001010 .L0 
     /tmp/ccuk26uq.s:2583   .text:0000000000001010 .L0 
     /tmp/ccuk26uq.s:2592   .text:0000000000001028 .L0 
     /tmp/ccuk26uq.s:2593   .text:0000000000001028 .L0 
     /tmp/ccuk26uq.s:2594   .text:0000000000001028 .L0 
     /tmp/ccuk26uq.s:2602   .text:0000000000001038 .L0 
     /tmp/ccuk26uq.s:2603   .text:0000000000001038 .L0 
     /tmp/ccuk26uq.s:2604   .text:0000000000001038 .L0 
     /tmp/ccuk26uq.s:2612   .text:0000000000001040 .L0 
     /tmp/ccuk26uq.s:2619   .text:000000000000105c .L0 
     /tmp/ccuk26uq.s:2623   .text:000000000000105c .L0 
     /tmp/ccuk26uq.s:2624   .text:000000000000105c .L0 
     /tmp/ccuk26uq.s:2629   .text:0000000000001070 .L0 
     /tmp/ccuk26uq.s:2633   .text:0000000000001074 .L0 
     /tmp/ccuk26uq.s:2634   .text:0000000000001074 .L0 
     /tmp/ccuk26uq.s:2637   .text:0000000000001078 .L0 
     /tmp/ccuk26uq.s:2638   .text:0000000000001078 .L0 
     /tmp/ccuk26uq.s:2639   .text:0000000000001078 .L0 
     /tmp/ccuk26uq.s:2642   .text:000000000000107c .L0 
     /tmp/ccuk26uq.s:2643   .text:000000000000107c .L0 
     /tmp/ccuk26uq.s:2652   .text:0000000000001094 .L0 
     /tmp/ccuk26uq.s:2653   .text:0000000000001094 .L0 
     /tmp/ccuk26uq.s:2654   .text:0000000000001094 .L0 
     /tmp/ccuk26uq.s:2662   .text:00000000000010a4 .L0 
     /tmp/ccuk26uq.s:2663   .text:00000000000010a4 .L0 
     /tmp/ccuk26uq.s:2671   .text:00000000000010b0 .L0 
     /tmp/ccuk26uq.s:2682   .text:00000000000010d0 .L0 
     /tmp/ccuk26uq.s:2683   .text:00000000000010d0 .L0 
     /tmp/ccuk26uq.s:2684   .text:00000000000010d0 .L0 
     /tmp/ccuk26uq.s:2686   .text:00000000000010d4 .L0 
     /tmp/ccuk26uq.s:2690   .text:00000000000010d8 .L0 
     /tmp/ccuk26uq.s:2691   .text:00000000000010d8 .L0 
     /tmp/ccuk26uq.s:2693   .text:00000000000010dc .L0 
     /tmp/ccuk26uq.s:2694   .text:00000000000010dc .L0 
     /tmp/ccuk26uq.s:2696   .text:00000000000010e0 .L0 
     /tmp/ccuk26uq.s:2698   .text:00000000000010e4 .L0 
     /tmp/ccuk26uq.s:2700   .text:00000000000010e8 .L0 
     /tmp/ccuk26uq.s:2701   .text:00000000000010e8 .L0 
     /tmp/ccuk26uq.s:2703   .text:00000000000010ec .L0 
     /tmp/ccuk26uq.s:2705   .text:00000000000010f0 .L0 
     /tmp/ccuk26uq.s:2706   .text:00000000000010f0 .L0 
     /tmp/ccuk26uq.s:2711   .text:00000000000010f4 .L0 
     /tmp/ccuk26uq.s:2712   .text:00000000000010f4 .L0 
     /tmp/ccuk26uq.s:2713   .text:00000000000010f4 .L0 
     /tmp/ccuk26uq.s:2718   .text:0000000000001100 .L0 
     /tmp/ccuk26uq.s:2722   .text:0000000000001100 .L0 
     /tmp/ccuk26uq.s:2723   .text:0000000000001100 .L0 
     /tmp/ccuk26uq.s:2728   .text:0000000000001114 .L0 
     /tmp/ccuk26uq.s:2729   .text:0000000000001114 .L0 
     /tmp/ccuk26uq.s:2734   .text:000000000000111c .L0 
     /tmp/ccuk26uq.s:2738   .text:0000000000001120 .L0 
     /tmp/ccuk26uq.s:2739   .text:0000000000001124 .L0 
GAS LISTING /tmp/ccuk26uq.s 			page 88


     /tmp/ccuk26uq.s:2741   .text:0000000000001128 .L0 
     /tmp/ccuk26uq.s:2742   .text:0000000000001128 .L0 
     /tmp/ccuk26uq.s:2744   .text:000000000000112c .L0 
     /tmp/ccuk26uq.s:2746   .text:0000000000001130 .L0 
     /tmp/ccuk26uq.s:2749   .text:0000000000001134 .L0 
     /tmp/ccuk26uq.s:2751   .text:0000000000001138 .L0 
     /tmp/ccuk26uq.s:2754   .text:000000000000113c .L0 
     /tmp/ccuk26uq.s:2756   .text:0000000000001140 .L0 
     /tmp/ccuk26uq.s:2779   .bss:0000000000000000 _ZN12kmem_cache_s4headE
     /tmp/ccuk26uq.s:2776   .bss:0000000000000000 .LANCHOR0
     /tmp/ccuk26uq.s:2787   .text:0000000000001140 .L0 
     /tmp/ccuk26uq.s:39     .text:0000000000000024 .L0 
     /tmp/ccuk26uq.s:56     .text:0000000000000044 .L0 
     /tmp/ccuk26uq.s:108    .text:000000000000009c .L0 
     /tmp/ccuk26uq.s:112    .text:00000000000000b0 .L0 
     /tmp/ccuk26uq.s:221    .text:0000000000000150 .L0 
     /tmp/ccuk26uq.s:245    .text:000000000000016c .L0 
     /tmp/ccuk26uq.s:257    .text:0000000000000180 .L0 
     /tmp/ccuk26uq.s:328    .text:00000000000001f8 .L0 
     /tmp/ccuk26uq.s:333    .text:000000000000020c .L0 
     /tmp/ccuk26uq.s:393    .text:0000000000000274 .L0 
     /tmp/ccuk26uq.s:1000   .text:0000000000000594 .L0 
     /tmp/ccuk26uq.s:1190   .text:0000000000000688 .L0 
     /tmp/ccuk26uq.s:1234   .rodata.str1.8:0000000000000000 .LC0
     /tmp/ccuk26uq.s:1318   .text:00000000000006f0 .L0 
     /tmp/ccuk26uq.s:1237   .rodata.str1.8:0000000000000038 .LC1
     /tmp/ccuk26uq.s:1324   .text:0000000000000700 .L0 
     /tmp/ccuk26uq.s:1240   .rodata.str1.8:0000000000000040 .LC2
     /tmp/ccuk26uq.s:1334   .text:000000000000071c .L0 
     /tmp/ccuk26uq.s:1243   .rodata.str1.8:0000000000000048 .LC3
     /tmp/ccuk26uq.s:1339   .text:000000000000072c .L0 
     /tmp/ccuk26uq.s:1351   .text:0000000000000750 .L0 
     /tmp/ccuk26uq.s:1246   .rodata.str1.8:0000000000000060 .LC4
     /tmp/ccuk26uq.s:1376   .text:0000000000000780 .L0 
     /tmp/ccuk26uq.s:1388   .text:00000000000007a4 .L0 
     /tmp/ccuk26uq.s:1249   .rodata.str1.8:0000000000000080 .LC5
     /tmp/ccuk26uq.s:1393   .text:00000000000007b4 .L0 
     /tmp/ccuk26uq.s:1405   .text:00000000000007d8 .L0 
     /tmp/ccuk26uq.s:1252   .rodata.str1.8:0000000000000098 .LC6
     /tmp/ccuk26uq.s:1410   .text:00000000000007e8 .L0 
     /tmp/ccuk26uq.s:1422   .text:000000000000080c .L0 
     /tmp/ccuk26uq.s:1255   .rodata.str1.8:00000000000000c8 .LC7
     /tmp/ccuk26uq.s:1427   .text:000000000000081c .L0 
     /tmp/ccuk26uq.s:1439   .text:0000000000000840 .L0 
     /tmp/ccuk26uq.s:1258   .rodata.str1.8:00000000000000e8 .LC8
     /tmp/ccuk26uq.s:1444   .text:0000000000000850 .L0 
     /tmp/ccuk26uq.s:1261   .rodata.str1.8:00000000000000f8 .LC9
     /tmp/ccuk26uq.s:1470   .text:000000000000087c .L0 
     /tmp/ccuk26uq.s:1483   .text:0000000000000894 .L0 
     /tmp/ccuk26uq.s:1264   .rodata.str1.8:0000000000000100 .LC10
     /tmp/ccuk26uq.s:1488   .text:00000000000008a4 .L0 
     /tmp/ccuk26uq.s:1514   .text:00000000000008d0 .L0 
     /tmp/ccuk26uq.s:1527   .text:00000000000008e8 .L0 
     /tmp/ccuk26uq.s:1267   .rodata.str1.8:0000000000000110 .LC11
     /tmp/ccuk26uq.s:1532   .text:00000000000008f8 .L0 
     /tmp/ccuk26uq.s:1558   .text:0000000000000924 .L0 
     /tmp/ccuk26uq.s:1571   .text:000000000000093c .L0 
GAS LISTING /tmp/ccuk26uq.s 			page 89


     /tmp/ccuk26uq.s:1270   .rodata.str1.8:0000000000000118 .LC12
     /tmp/ccuk26uq.s:1576   .text:000000000000094c .L0 
     /tmp/ccuk26uq.s:1588   .text:0000000000000970 .L0 
     /tmp/ccuk26uq.s:1273   .rodata.str1.8:0000000000000138 .LC13
     /tmp/ccuk26uq.s:1593   .text:0000000000000980 .L0 
     /tmp/ccuk26uq.s:1605   .text:00000000000009a4 .L0 
     /tmp/ccuk26uq.s:1276   .rodata.str1.8:0000000000000160 .LC14
     /tmp/ccuk26uq.s:1610   .text:00000000000009b4 .L0 
     /tmp/ccuk26uq.s:1631   .text:00000000000009e4 .L0 
     /tmp/ccuk26uq.s:1279   .rodata.str1.8:0000000000000180 .LC15
     /tmp/ccuk26uq.s:1661   .text:0000000000000a1c .L0 
     /tmp/ccuk26uq.s:1282   .rodata.str1.8:00000000000001a0 .LC16
     /tmp/ccuk26uq.s:1673   .text:0000000000000a40 .L0 
     /tmp/ccuk26uq.s:1685   .text:0000000000000a64 .L0 
     /tmp/ccuk26uq.s:1285   .rodata.str1.8:00000000000001a8 .LC17
     /tmp/ccuk26uq.s:1690   .text:0000000000000a74 .L0 
     /tmp/ccuk26uq.s:1706   .text:0000000000000aa0 .L0 
     /tmp/ccuk26uq.s:1732   .text:0000000000000adc .L0 
     /tmp/ccuk26uq.s:1288   .rodata.str1.8:00000000000001d0 .LC18
     /tmp/ccuk26uq.s:1737   .text:0000000000000aec .L0 
     /tmp/ccuk26uq.s:1765   .rodata.str1.8:0000000000000208 .LC19
     /tmp/ccuk26uq.s:1790   .text:0000000000000b30 .L0 
     /tmp/ccuk26uq.s:1796   .text:0000000000000b40 .L0 
     /tmp/ccuk26uq.s:1768   .rodata.str1.8:0000000000000230 .LC20
     /tmp/ccuk26uq.s:1816   .text:0000000000000b60 .L0 
     /tmp/ccuk26uq.s:2367   .text:0000000000000e94 .L0 
     /tmp/ccuk26uq.s:2371   .text:0000000000000ea8 .L0 
     /tmp/ccuk26uq.s:2380   .text:0000000000000eb4 .L0 
     /tmp/ccuk26uq.s:2409   .text:0000000000000ee8 .L0 
     /tmp/ccuk26uq.s:2500   .text:0000000000000f6c .L0 
     /tmp/ccuk26uq.s:2529   .text:0000000000000fa0 .L0 
     /tmp/ccuk26uq.s:2531   .text:0000000000000fac .L0 
     /tmp/ccuk26uq.s:2535   .text:0000000000000fc0 .L0 
     /tmp/ccuk26uq.s:2552   .text:0000000000000fd4 .L0 
     /tmp/ccuk26uq.s:2556   .text:0000000000000fe8 .L0 
     /tmp/ccuk26uq.s:2565   .text:0000000000000ff4 .L0 
     /tmp/ccuk26uq.s:2594   .text:0000000000001028 .L0 
     /tmp/ccuk26uq.s:2612   .text:0000000000001040 .L0 
     /tmp/ccuk26uq.s:2616   .text:0000000000001054 .L0 
     /tmp/ccuk26uq.s:2625   .text:0000000000001060 .L0 
     /tmp/ccuk26uq.s:2654   .text:0000000000001094 .L0 
     /tmp/ccuk26uq.s:2663   .text:00000000000010a4 .L0 
     /tmp/ccuk26uq.s:2671   .text:00000000000010b0 .L0 
     /tmp/ccuk26uq.s:2675   .text:00000000000010c4 .L0 
     /tmp/ccuk26uq.s:2713   .text:00000000000010f4 .L0 
     /tmp/ccuk26uq.s:2724   .text:0000000000001104 .L0 
     /tmp/ccuk26uq.s:103    .text:000000000000009c .L8
     /tmp/ccuk26uq.s:115    .text:00000000000000bc .L3
     /tmp/ccuk26uq.s:86     .text:000000000000007c .L4
     /tmp/ccuk26uq.s:42     .text:0000000000000030 .L2
     /tmp/ccuk26uq.s:153    .text:00000000000000ec .L5
     /tmp/ccuk26uq.s:129    .text:00000000000000c8 .L6
     /tmp/ccuk26uq.s:237    .text:000000000000016c .L10
     /tmp/ccuk26uq.s:428    .text:00000000000002b0 .L18
     /tmp/ccuk26uq.s:223    .text:0000000000000158 .L12
     /tmp/ccuk26uq.s:324    .text:00000000000001f8 .L21
     /tmp/ccuk26uq.s:372    .text:0000000000000254 .L19
GAS LISTING /tmp/ccuk26uq.s 			page 90


     /tmp/ccuk26uq.s:306    .text:00000000000001dc .L15
     /tmp/ccuk26uq.s:249    .text:0000000000000178 .L13
     /tmp/ccuk26uq.s:379    .text:0000000000000260 .L16
     /tmp/ccuk26uq.s:336    .text:0000000000000218 .L17
     /tmp/ccuk26uq.s:342    .text:000000000000021c .L14
     /tmp/ccuk26uq.s:401    .text:0000000000000288 .L9
     /tmp/ccuk26uq.s:486    .text:00000000000002ec .L23
     /tmp/ccuk26uq.s:469    .text:00000000000002d4 .L24
     /tmp/ccuk26uq.s:512    .text:0000000000000314 .L25
     /tmp/ccuk26uq.s:502    .text:0000000000000308 .L22
     /tmp/ccuk26uq.s:583    .text:0000000000000368 .L29
     /tmp/ccuk26uq.s:566    .text:0000000000000350 .L30
     /tmp/ccuk26uq.s:670    .text:00000000000003d4 .L41
     /tmp/ccuk26uq.s:770    .text:000000000000045c .L39
     /tmp/ccuk26uq.s:797    .text:0000000000000488 .L33
     /tmp/ccuk26uq.s:657    .text:00000000000003cc .L34
     /tmp/ccuk26uq.s:718    .text:0000000000000424 .L35
     /tmp/ccuk26uq.s:729    .text:0000000000000434 .L36
     /tmp/ccuk26uq.s:791    .text:0000000000000480 .L37
     /tmp/ccuk26uq.s:643    .text:00000000000003c0 .L38
     /tmp/ccuk26uq.s:953    .text:0000000000000558 .L40
     /tmp/ccuk26uq.s:834    .text:00000000000004a4 .L47
     /tmp/ccuk26uq.s:919    .text:0000000000000528 .L46
     /tmp/ccuk26uq.s:945    .text:0000000000000554 .L48
     /tmp/ccuk26uq.s:821    .text:000000000000049c .L42
     /tmp/ccuk26uq.s:882    .text:00000000000004f4 .L43
     /tmp/ccuk26uq.s:893    .text:0000000000000504 .L44
     /tmp/ccuk26uq.s:810    .text:0000000000000490 .L45
     /tmp/ccuk26uq.s:1019   .text:00000000000005bc .L50
     /tmp/ccuk26uq.s:1002   .text:000000000000059c .L52
     /tmp/ccuk26uq.s:1077   .text:0000000000000600 .L54
     /tmp/ccuk26uq.s:1065   .text:00000000000005f0 .L56
     /tmp/ccuk26uq.s:1134   .text:0000000000000644 .L59
     /tmp/ccuk26uq.s:1119   .text:0000000000000634 .L60
     /tmp/ccuk26uq.s:1157   .text:0000000000000664 .L62
     /tmp/ccuk26uq.s:1142   .text:0000000000000650 .L61
     /tmp/ccuk26uq.s:1209   .text:00000000000006b0 .L67
     /tmp/ccuk26uq.s:1213   .text:00000000000006b4 .L65
     /tmp/ccuk26uq.s:1192   .text:0000000000000690 .L66
     /tmp/ccuk26uq.s:1479   .text:0000000000000894 .L70
     /tmp/ccuk26uq.s:1452   .text:0000000000000864 .L71
     /tmp/ccuk26uq.s:1523   .text:00000000000008e8 .L72
     /tmp/ccuk26uq.s:1496   .text:00000000000008b8 .L73
     /tmp/ccuk26uq.s:1567   .text:000000000000093c .L74
     /tmp/ccuk26uq.s:1540   .text:000000000000090c .L75
     /tmp/ccuk26uq.s:1812   .text:0000000000000b60 .L78
     /tmp/ccuk26uq.s:1798   .text:0000000000000b48 .L79
     /tmp/ccuk26uq.s:1884   .text:0000000000000bd4 .L82
     /tmp/ccuk26uq.s:1866   .text:0000000000000bb4 .L83
     /tmp/ccuk26uq.s:1923   .text:0000000000000c18 .L85
     /tmp/ccuk26uq.s:1902   .text:0000000000000bf8 .L81
     /tmp/ccuk26uq.s:2041   .text:0000000000000cb8 .L93
     /tmp/ccuk26uq.s:2124   .text:0000000000000d28 .L91
     /tmp/ccuk26uq.s:2023   .text:0000000000000ca4 .L87
     /tmp/ccuk26uq.s:2203   .text:0000000000000d98 .L98
     /tmp/ccuk26uq.s:2179   .text:0000000000000d78 .L95
     /tmp/ccuk26uq.s:2185   .text:0000000000000d80 .L94
GAS LISTING /tmp/ccuk26uq.s 			page 91


     /tmp/ccuk26uq.s:2308   .text:0000000000000e4c .L104
     /tmp/ccuk26uq.s:2262   .text:0000000000000dfc .L102
     /tmp/ccuk26uq.s:2283   .text:0000000000000e28 .L99
     /tmp/ccuk26uq.s:2258   .text:0000000000000df8 .L101
     /tmp/ccuk26uq.s:2353   .text:0000000000000e88 .L114
     /tmp/ccuk26uq.s:2386   .text:0000000000000ec8 .L112
     /tmp/ccuk26uq.s:2436   .text:0000000000000f18 .L107
     /tmp/ccuk26uq.s:2413   .text:0000000000000ef8 .L110
     /tmp/ccuk26uq.s:2372   .text:0000000000000eb0 .L111
     /tmp/ccuk26uq.s:2363   .text:0000000000000e94 .L115
     /tmp/ccuk26uq.s:2506   .text:0000000000000f80 .L119
     /tmp/ccuk26uq.s:2538   .text:0000000000000fcc .L117
     /tmp/ccuk26uq.s:2491   .text:0000000000000f68 .L118
     /tmp/ccuk26uq.s:2571   .text:0000000000001008 .L122
     /tmp/ccuk26uq.s:2598   .text:0000000000001038 .L120
     /tmp/ccuk26uq.s:2557   .text:0000000000000ff0 .L121
     /tmp/ccuk26uq.s:2548   .text:0000000000000fd4 .L132
     /tmp/ccuk26uq.s:2631   .text:0000000000001074 .L125
     /tmp/ccuk26uq.s:2658   .text:00000000000010a4 .L123
     /tmp/ccuk26uq.s:2617   .text:000000000000105c .L124
     /tmp/ccuk26uq.s:2608   .text:0000000000001040 .L133
     /tmp/ccuk26uq.s:2688   .text:00000000000010d8 .L129
     /tmp/ccuk26uq.s:2716   .text:0000000000001100 .L128
     /tmp/ccuk26uq.s:2732   .text:000000000000111c .L130
     /tmp/ccuk26uq.s:2678   .text:00000000000010d0 .L127
     /tmp/ccuk26uq.s:2667   .text:00000000000010b0 .L134
     /tmp/ccuk26uq.s:2736   .text:0000000000001120 .L126
     /tmp/ccuk26uq.s:5929   .debug_abbrev:0000000000000000 .Ldebug_abbrev0
     /tmp/ccuk26uq.s:9128   .debug_str:000000000000087c .LASF142
     /tmp/ccuk26uq.s:9114   .debug_str:0000000000000827 .LASF143
     /tmp/ccuk26uq.s:8902   .debug_str:000000000000005d .LASF144
     /tmp/ccuk26uq.s:5      .text:0000000000000000 .Ltext0
     /tmp/ccuk26uq.s:2782   .text:0000000000001140 .Letext0
     /tmp/ccuk26uq.s:8892   .debug_line:0000000000000000 .Ldebug_line0
     /tmp/ccuk26uq.s:9004   .debug_str:0000000000000460 .LASF0
     /tmp/ccuk26uq.s:8998   .debug_str:000000000000043e .LASF1
     /tmp/ccuk26uq.s:9014   .debug_str:00000000000004a7 .LASF2
     /tmp/ccuk26uq.s:9074   .debug_str:00000000000006d2 .LASF3
     /tmp/ccuk26uq.s:9084   .debug_str:0000000000000743 .LASF4
     /tmp/ccuk26uq.s:8896   .debug_str:0000000000000024 .LASF5
     /tmp/ccuk26uq.s:9052   .debug_str:00000000000005ec .LASF6
     /tmp/ccuk26uq.s:9008   .debug_str:0000000000000477 .LASF7
     /tmp/ccuk26uq.s:8974   .debug_str:0000000000000364 .LASF8
     /tmp/ccuk26uq.s:8986   .debug_str:00000000000003e0 .LASF9
     /tmp/ccuk26uq.s:8922   .debug_str:0000000000000148 .LASF10
     /tmp/ccuk26uq.s:9140   .debug_str:0000000000000999 .LASF11
     /tmp/ccuk26uq.s:8962   .debug_str:00000000000002e9 .LASF12
     /tmp/ccuk26uq.s:8934   .debug_str:00000000000001d1 .LASF13
     /tmp/ccuk26uq.s:8920   .debug_str:0000000000000138 .LASF14
     /tmp/ccuk26uq.s:9110   .debug_str:0000000000000811 .LASF15
     /tmp/ccuk26uq.s:8942   .debug_str:000000000000021e .LASF16
     /tmp/ccuk26uq.s:9102   .debug_str:00000000000007e7 .LASF17
     /tmp/ccuk26uq.s:8954   .debug_str:00000000000002ae .LASF30
     /tmp/ccuk26uq.s:9146   .debug_str:00000000000009bc .LASF42
     /tmp/ccuk26uq.s:8924   .debug_str:0000000000000157 .LASF18
     /tmp/ccuk26uq.s:9012   .debug_str:00000000000004a2 .LASF19
     /tmp/ccuk26uq.s:8900   .debug_str:0000000000000052 .LASF24
GAS LISTING /tmp/ccuk26uq.s 			page 92


     /tmp/ccuk26uq.s:9046   .debug_str:0000000000000595 .LASF26
     /tmp/ccuk26uq.s:9112   .debug_str:000000000000081d .LASF20
     /tmp/ccuk26uq.s:9038   .debug_str:0000000000000566 .LASF22
     /tmp/ccuk26uq.s:9166   .debug_str:0000000000000ab7 .LASF21
     /tmp/ccuk26uq.s:8976   .debug_str:0000000000000374 .LASF23
     /tmp/ccuk26uq.s:8964   .debug_str:00000000000002f8 .LASF25
     /tmp/ccuk26uq.s:9050   .debug_str:00000000000005bf .LASF27
     /tmp/ccuk26uq.s:9170   .debug_str:0000000000000ad4 .LASF28
     /tmp/ccuk26uq.s:8932   .debug_str:00000000000001a2 .LASF29
     /tmp/ccuk26uq.s:8988   .debug_str:00000000000003ee .LASF31
     /tmp/ccuk26uq.s:9028   .debug_str:000000000000051b .LASF32
     /tmp/ccuk26uq.s:9160   .debug_str:0000000000000a8c .LASF33
     /tmp/ccuk26uq.s:9184   .debug_str:0000000000000ba0 .LASF34
     /tmp/ccuk26uq.s:8996   .debug_str:0000000000000434 .LASF41
     /tmp/ccuk26uq.s:9034   .debug_str:000000000000053a .LASF48
     /tmp/ccuk26uq.s:9082   .debug_str:0000000000000735 .LASF35
     /tmp/ccuk26uq.s:8982   .debug_str:00000000000003b8 .LASF36
     /tmp/ccuk26uq.s:8990   .debug_str:0000000000000403 .LASF37
     /tmp/ccuk26uq.s:9148   .debug_str:00000000000009c4 .LASF38
     /tmp/ccuk26uq.s:8928   .debug_str:0000000000000170 .LASF39
     /tmp/ccuk26uq.s:9072   .debug_str:00000000000006a3 .LASF40
     /tmp/ccuk26uq.s:8956   .debug_str:00000000000002ba .LASF102
     /tmp/ccuk26uq.s:9066   .debug_str:0000000000000677 .LASF145
     /tmp/ccuk26uq.s:9124   .debug_str:000000000000086f .LASF43
     /tmp/ccuk26uq.s:9018   .debug_str:00000000000004c0 .LASF44
     /tmp/ccuk26uq.s:9048   .debug_str:00000000000005b4 .LASF45
     /tmp/ccuk26uq.s:9134   .debug_str:0000000000000969 .LASF46
     /tmp/ccuk26uq.s:9032   .debug_str:000000000000052f .LASF47
     /tmp/ccuk26uq.s:9174   .debug_str:0000000000000b1b .LASF49
     /tmp/ccuk26uq.s:8972   .debug_str:0000000000000347 .LASF50
     /tmp/ccuk26uq.s:8946   .debug_str:0000000000000247 .LASF51
     /tmp/ccuk26uq.s:8970   .debug_str:000000000000031c .LASF52
     /tmp/ccuk26uq.s:9060   .debug_str:000000000000062e .LASF53
     /tmp/ccuk26uq.s:9010   .debug_str:000000000000048a .LASF54
     /tmp/ccuk26uq.s:9158   .debug_str:0000000000000a68 .LASF55
     /tmp/ccuk26uq.s:9180   .debug_str:0000000000000b6c .LASF56
     /tmp/ccuk26uq.s:8894   .debug_str:0000000000000000 .LASF57
     /tmp/ccuk26uq.s:9144   .debug_str:00000000000009b3 .LASF58
     /tmp/ccuk26uq.s:8910   .debug_str:00000000000000ca .LASF59
     /tmp/ccuk26uq.s:9054   .debug_str:00000000000005ff .LASF60
     /tmp/ccuk26uq.s:9116   .debug_str:0000000000000834 .LASF61
     /tmp/ccuk26uq.s:9030   .debug_str:000000000000052a .LASF62
     /tmp/ccuk26uq.s:9098   .debug_str:00000000000007b4 .LASF63
     /tmp/ccuk26uq.s:9104   .debug_str:00000000000007fd .LASF64
     /tmp/ccuk26uq.s:8948   .debug_str:0000000000000270 .LASF65
     /tmp/ccuk26uq.s:8980   .debug_str:00000000000003aa .LASF66
     /tmp/ccuk26uq.s:9138   .debug_str:000000000000098e .LASF67
     /tmp/ccuk26uq.s:8960   .debug_str:00000000000002da .LASF68
     /tmp/ccuk26uq.s:9058   .debug_str:000000000000061c .LASF69
     /tmp/ccuk26uq.s:9142   .debug_str:00000000000009a4 .LASF70
     /tmp/ccuk26uq.s:9070   .debug_str:000000000000069b .LASF71
     /tmp/ccuk26uq.s:9132   .debug_str:000000000000095d .LASF72
     /tmp/ccuk26uq.s:9122   .debug_str:0000000000000860 .LASF73
     /tmp/ccuk26uq.s:9042   .debug_str:000000000000058a .LASF74
     /tmp/ccuk26uq.s:8984   .debug_str:00000000000003db .LASF75
     /tmp/ccuk26uq.s:9006   .debug_str:0000000000000472 .LASF76
     /tmp/ccuk26uq.s:8938   .debug_str:00000000000001f2 .LASF77
GAS LISTING /tmp/ccuk26uq.s 			page 93


     /tmp/ccuk26uq.s:9126   .debug_str:0000000000000874 .LASF78
     /tmp/ccuk26uq.s:9040   .debug_str:0000000000000583 .LASF79
     /tmp/ccuk26uq.s:9118   .debug_str:0000000000000849 .LASF80
     /tmp/ccuk26uq.s:8930   .debug_str:000000000000017b .LASF81
     /tmp/ccuk26uq.s:8936   .debug_str:00000000000001e1 .LASF82
     /tmp/ccuk26uq.s:9100   .debug_str:00000000000007c1 .LASF83
     /tmp/ccuk26uq.s:8916   .debug_str:000000000000010c .LASF84
     /tmp/ccuk26uq.s:9176   .debug_str:0000000000000b39 .LASF85
     /tmp/ccuk26uq.s:8944   .debug_str:0000000000000234 .LASF86
     /tmp/ccuk26uq.s:8912   .debug_str:00000000000000df .LASF87
     /tmp/ccuk26uq.s:9076   .debug_str:00000000000006e0 .LASF88
     /tmp/ccuk26uq.s:9024   .debug_str:00000000000004e7 .LASF89
     /tmp/ccuk26uq.s:8952   .debug_str:000000000000029c .LASF90
     /tmp/ccuk26uq.s:9156   .debug_str:0000000000000a35 .LASF91
     /tmp/ccuk26uq.s:9164   .debug_str:0000000000000aaf .LASF92
     /tmp/ccuk26uq.s:8918   .debug_str:000000000000011c .LASF93
     /tmp/ccuk26uq.s:8968   .debug_str:0000000000000316 .LASF94
     /tmp/ccuk26uq.s:9182   .debug_str:0000000000000b84 .LASF95
     /tmp/ccuk26uq.s:8940   .debug_str:0000000000000201 .LASF96
     /tmp/ccuk26uq.s:9154   .debug_str:0000000000000a03 .LASF97
     /tmp/ccuk26uq.s:9162   .debug_str:0000000000000a99 .LASF146
     /tmp/ccuk26uq.s:9080   .debug_str:000000000000070a .LASF147
     /tmp/ccuk26uq.s:9168   .debug_str:0000000000000ac3 .LASF98
     /tmp/ccuk26uq.s:9094   .debug_str:0000000000000783 .LASF99
     /tmp/ccuk26uq.s:8906   .debug_str:0000000000000096 .LASF100
     /tmp/ccuk26uq.s:9172   .debug_str:0000000000000aef .LASF101
     /tmp/ccuk26uq.s:9136   .debug_str:0000000000000976 .LASF103
     /tmp/ccuk26uq.s:9120   .debug_str:000000000000085b .LASF104
     /tmp/ccuk26uq.s:9022   .debug_str:00000000000004d0 .LASF105
     /tmp/ccuk26uq.s:8992   .debug_str:0000000000000411 .LASF148
     /tmp/ccuk26uq.s:2224   .text:0000000000000db8 .LFB64
     /tmp/ccuk26uq.s:2311   .text:0000000000000e50 .LFE64
     /tmp/ccuk26uq.s:8966   .debug_str:0000000000000311 .LASF107
     /tmp/ccuk26uq.s:7209   .debug_loc:0000000000000000 .LLST74
     /tmp/ccuk26uq.s:9150   .debug_str:00000000000009e7 .LASF106
     /tmp/ccuk26uq.s:7231   .debug_loc:000000000000005f .LLST75
     /tmp/ccuk26uq.s:7249   .debug_loc:00000000000000ab .LLST76
     /tmp/ccuk26uq.s:7267   .debug_loc:00000000000000f7 .LLST77
     /tmp/ccuk26uq.s:2253   .text:0000000000000df0 .LBB128
     /tmp/ccuk26uq.s:2284   .text:0000000000000e28 .LBE128
     /tmp/ccuk26uq.s:7289   .debug_loc:0000000000000156 .LLST78
     /tmp/ccuk26uq.s:2270   .text:0000000000000e10 .LVL259
     /tmp/ccuk26uq.s:1838   .text:0000000000000b84 .LFB63
     /tmp/ccuk26uq.s:1929   .text:0000000000000c20 .LFE63
     /tmp/ccuk26uq.s:7296   .debug_loc:0000000000000179 .LLST59
     /tmp/ccuk26uq.s:9078   .debug_str:00000000000006f0 .LASF108
     /tmp/ccuk26uq.s:7318   .debug_loc:00000000000001d8 .LLST60
     /tmp/ccuk26uq.s:9026   .debug_str:000000000000050c .LASF109
     /tmp/ccuk26uq.s:7332   .debug_loc:0000000000000211 .LLST61
     /tmp/ccuk26uq.s:7346   .debug_loc:000000000000024a .LLST62
     /tmp/ccuk26uq.s:1874   .text:0000000000000bc8 .LVL219
     /tmp/ccuk26uq.s:1893   .text:0000000000000bec .LVL222
     /tmp/ccuk26uq.s:1775   .text:0000000000000b1c .LFB62
     /tmp/ccuk26uq.s:1832   .text:0000000000000b84 .LFE62
     /tmp/ccuk26uq.s:1794   .text:0000000000000b40 .LBB112
     /tmp/ccuk26uq.s:1813   .text:0000000000000b60 .LBE112
     /tmp/ccuk26uq.s:7366   .debug_loc:00000000000002a7 .LLST58
GAS LISTING /tmp/ccuk26uq.s 			page 94


     /tmp/ccuk26uq.s:1805   .text:0000000000000b58 .LVL212
     /tmp/ccuk26uq.s:1792   .text:0000000000000b40 .LVL210
     /tmp/ccuk26uq.s:1818   .text:0000000000000b70 .LVL214
     /tmp/ccuk26uq.s:1295   .text:00000000000006cc .LFB61
     /tmp/ccuk26uq.s:1761   .text:0000000000000b1c .LFE61
     /tmp/ccuk26uq.s:7373   .debug_loc:00000000000002ca .LLST48
     /tmp/ccuk26uq.s:9178   .debug_str:0000000000000b5f .LASF110
     /tmp/ccuk26uq.s:7391   .debug_loc:0000000000000316 .LLST49
     /tmp/ccuk26uq.s:9086   .debug_str:000000000000074a .LASF111
     /tmp/ccuk26uq.s:7398   .debug_loc:0000000000000339 .LLST50
     /tmp/ccuk26uq.s:9088   .debug_str:0000000000000762 .LASF112
     /tmp/ccuk26uq.s:7405   .debug_loc:000000000000035c .LLST51
     /tmp/ccuk26uq.s:9062   .debug_str:0000000000000666 .LASF113
     /tmp/ccuk26uq.s:7412   .debug_loc:000000000000037f .LLST52
     /tmp/ccuk26uq.s:9108   .debug_str:000000000000080b .LASF114
     /tmp/ccuk26uq.s:7419   .debug_loc:00000000000003a2 .LLST53
     /tmp/ccuk26uq.s:9096   .debug_str:00000000000007a9 .LASF115
     /tmp/ccuk26uq.s:7426   .debug_loc:00000000000003c5 .LLST54
     /tmp/ccuk26uq.s:1448   .text:0000000000000860 .LBB103
     /tmp/ccuk26uq.s:1480   .text:0000000000000894 .LBE103
     /tmp/ccuk26uq.s:7438   .debug_loc:00000000000003ed .LLST55
     /tmp/ccuk26uq.s:1457   .text:0000000000000868 .LBB104
     /tmp/ccuk26uq.s:1461   .text:0000000000000868 .LBE104
     /tmp/ccuk26uq.s:1467   .text:000000000000087c .LVL161
     /tmp/ccuk26uq.s:1472   .text:000000000000088c .LVL162
     /tmp/ccuk26uq.s:1492   .text:00000000000008b4 .LBB106
     /tmp/ccuk26uq.s:1524   .text:00000000000008e8 .LBE106
     /tmp/ccuk26uq.s:7445   .debug_loc:0000000000000410 .LLST56
     /tmp/ccuk26uq.s:1501   .text:00000000000008bc .LBB107
     /tmp/ccuk26uq.s:1505   .text:00000000000008bc .LBE107
     /tmp/ccuk26uq.s:1511   .text:00000000000008d0 .LVL168
     /tmp/ccuk26uq.s:1516   .text:00000000000008e0 .LVL169
     /tmp/ccuk26uq.s:1536   .text:0000000000000908 .LBB109
     /tmp/ccuk26uq.s:1568   .text:000000000000093c .LBE109
     /tmp/ccuk26uq.s:7452   .debug_loc:0000000000000433 .LLST57
     /tmp/ccuk26uq.s:1545   .text:0000000000000910 .LBB110
     /tmp/ccuk26uq.s:1549   .text:0000000000000910 .LBE110
     /tmp/ccuk26uq.s:1555   .text:0000000000000924 .LVL175
     /tmp/ccuk26uq.s:1560   .text:0000000000000934 .LVL176
     /tmp/ccuk26uq.s:1321   .text:0000000000000700 .LVL137
     /tmp/ccuk26uq.s:1326   .text:0000000000000710 .LVL138
     /tmp/ccuk26uq.s:1331   .text:000000000000071c .LVL139
     /tmp/ccuk26uq.s:1336   .text:000000000000072c .LVL140
     /tmp/ccuk26uq.s:1341   .text:000000000000073c .LVL141
     /tmp/ccuk26uq.s:1348   .text:0000000000000750 .LVL142
     /tmp/ccuk26uq.s:1353   .text:0000000000000760 .LVL143
     /tmp/ccuk26uq.s:1378   .text:0000000000000790 .LVL146
     /tmp/ccuk26uq.s:1385   .text:00000000000007a4 .LVL147
     /tmp/ccuk26uq.s:1390   .text:00000000000007b4 .LVL148
     /tmp/ccuk26uq.s:1395   .text:00000000000007c4 .LVL149
     /tmp/ccuk26uq.s:1402   .text:00000000000007d8 .LVL150
     /tmp/ccuk26uq.s:1407   .text:00000000000007e8 .LVL151
     /tmp/ccuk26uq.s:1412   .text:00000000000007f8 .LVL152
     /tmp/ccuk26uq.s:1419   .text:000000000000080c .LVL153
     /tmp/ccuk26uq.s:1424   .text:000000000000081c .LVL154
     /tmp/ccuk26uq.s:1429   .text:000000000000082c .LVL155
     /tmp/ccuk26uq.s:1436   .text:0000000000000840 .LVL156
GAS LISTING /tmp/ccuk26uq.s 			page 95


     /tmp/ccuk26uq.s:1441   .text:0000000000000850 .LVL157
     /tmp/ccuk26uq.s:1446   .text:0000000000000860 .LVL158
     /tmp/ccuk26uq.s:1485   .text:00000000000008a4 .LVL164
     /tmp/ccuk26uq.s:1490   .text:00000000000008b4 .LVL165
     /tmp/ccuk26uq.s:1529   .text:00000000000008f8 .LVL171
     /tmp/ccuk26uq.s:1534   .text:0000000000000908 .LVL172
     /tmp/ccuk26uq.s:1573   .text:000000000000094c .LVL178
     /tmp/ccuk26uq.s:1578   .text:000000000000095c .LVL179
     /tmp/ccuk26uq.s:1585   .text:0000000000000970 .LVL180
     /tmp/ccuk26uq.s:1590   .text:0000000000000980 .LVL181
     /tmp/ccuk26uq.s:1595   .text:0000000000000990 .LVL182
     /tmp/ccuk26uq.s:1602   .text:00000000000009a4 .LVL183
     /tmp/ccuk26uq.s:1607   .text:00000000000009b4 .LVL184
     /tmp/ccuk26uq.s:1612   .text:00000000000009c4 .LVL185
     /tmp/ccuk26uq.s:1628   .text:00000000000009e4 .LVL188
     /tmp/ccuk26uq.s:1633   .text:00000000000009f4 .LVL189
     /tmp/ccuk26uq.s:1663   .text:0000000000000a2c .LVL193
     /tmp/ccuk26uq.s:1670   .text:0000000000000a40 .LVL194
     /tmp/ccuk26uq.s:1675   .text:0000000000000a50 .LVL195
     /tmp/ccuk26uq.s:1682   .text:0000000000000a64 .LVL196
     /tmp/ccuk26uq.s:1687   .text:0000000000000a74 .LVL197
     /tmp/ccuk26uq.s:1692   .text:0000000000000a84 .LVL198
     /tmp/ccuk26uq.s:1703   .text:0000000000000aa0 .LVL199
     /tmp/ccuk26uq.s:1708   .text:0000000000000ab0 .LVL200
     /tmp/ccuk26uq.s:1729   .text:0000000000000adc .LVL204
     /tmp/ccuk26uq.s:1734   .text:0000000000000aec .LVL205
     /tmp/ccuk26uq.s:1739   .text:0000000000000afc .LVL206
     /tmp/ccuk26uq.s:2462   .text:0000000000000f38 .LFB60
     /tmp/ccuk26uq.s:2757   .text:0000000000001140 .LFE60
     /tmp/ccuk26uq.s:7459   .debug_loc:0000000000000456 .LLST85
     /tmp/ccuk26uq.s:8914   .debug_str:0000000000000107 .LASF116
     /tmp/ccuk26uq.s:7477   .debug_loc:00000000000004a2 .LLST86
     /tmp/ccuk26uq.s:8904   .debug_str:0000000000000091 .LASF117
     /tmp/ccuk26uq.s:7495   .debug_loc:00000000000004ee .LLST87
     /tmp/ccuk26uq.s:7537   .debug_loc:00000000000005ac .LLST88
     /tmp/ccuk26uq.s:9186   .debug_str:0000000000000bb1 .LASF118
     /tmp/ccuk26uq.s:7592   .debug_loc:00000000000006b3 .LLST89
     /tmp/ccuk26uq.s:8994   .debug_str:0000000000000429 .LASF119
     /tmp/ccuk26uq.s:7620   .debug_loc:0000000000000737 .LLST90
     /tmp/ccuk26uq.s:2492   .text:0000000000000f68 .LBB133
     /tmp/ccuk26uq.s:8802   .debug_ranges:0000000000000000 .Ldebug_ranges0
     /tmp/ccuk26uq.s:7640   .debug_loc:0000000000000794 .LLST91
     /tmp/ccuk26uq.s:2533   .text:0000000000000fbc .LVL290
     /tmp/ccuk26uq.s:2549   .text:0000000000000fd4 .LBB137
     /tmp/ccuk26uq.s:7648   .debug_loc:00000000000007b8 .LLST93
     /tmp/ccuk26uq.s:2554   .text:0000000000000fe4 .LVL294
     /tmp/ccuk26uq.s:2609   .text:0000000000001040 .LBB141
     /tmp/ccuk26uq.s:7661   .debug_loc:00000000000007f0 .LLST95
     /tmp/ccuk26uq.s:2614   .text:0000000000001050 .LVL304
     /tmp/ccuk26uq.s:2668   .text:00000000000010b0 .LBB145
     /tmp/ccuk26uq.s:7674   .debug_loc:0000000000000828 .LLST97
     /tmp/ccuk26uq.s:2673   .text:00000000000010c0 .LVL314
     /tmp/ccuk26uq.s:2502   .text:0000000000000f7c .LVL285
     /tmp/ccuk26uq.s:2523   .text:0000000000000fa0 .LVL289
     /tmp/ccuk26uq.s:2567   .text:0000000000001004 .LVL296
     /tmp/ccuk26uq.s:2588   .text:0000000000001028 .LVL300
     /tmp/ccuk26uq.s:2627   .text:0000000000001070 .LVL306
GAS LISTING /tmp/ccuk26uq.s 			page 96


     /tmp/ccuk26uq.s:2648   .text:0000000000001094 .LVL310
     /tmp/ccuk26uq.s:2726   .text:0000000000001114 .LVL320
     /tmp/ccuk26uq.s:1170   .text:000000000000066c .LFB59
     /tmp/ccuk26uq.s:1230   .text:00000000000006cc .LFE59
     /tmp/ccuk26uq.s:9020   .debug_str:00000000000004cb .LASF120
     /tmp/ccuk26uq.s:7687   .debug_loc:0000000000000860 .LLST46
     /tmp/ccuk26uq.s:1188   .text:0000000000000688 .LBB102
     /tmp/ccuk26uq.s:1210   .text:00000000000006b0 .LBE102
     /tmp/ccuk26uq.s:7705   .debug_loc:00000000000008ac .LLST47
     /tmp/ccuk26uq.s:1200   .text:00000000000006a4 .LVL131
     /tmp/ccuk26uq.s:1093   .text:000000000000060c .LFB58
     /tmp/ccuk26uq.s:1164   .text:000000000000066c .LFE58
     /tmp/ccuk26uq.s:7712   .debug_loc:00000000000008cf .LLST43
     /tmp/ccuk26uq.s:7734   .debug_loc:000000000000092e .LLST44
     /tmp/ccuk26uq.s:7750   .debug_loc:0000000000000978 .LLST45
     /tmp/ccuk26uq.s:1115   .text:0000000000000630 .LVL120
     /tmp/ccuk26uq.s:1044   .text:00000000000005d8 .LFB57
     /tmp/ccuk26uq.s:1087   .text:000000000000060c .LFE57
     /tmp/ccuk26uq.s:7761   .debug_loc:00000000000009ae .LLST40
     /tmp/ccuk26uq.s:7772   .debug_loc:00000000000009e4 .LLST41
     /tmp/ccuk26uq.s:7784   .debug_loc:0000000000000a1b .LLST42
     /tmp/ccuk26uq.s:980    .text:0000000000000578 .LFB56
     /tmp/ccuk26uq.s:1038   .text:00000000000005d8 .LFE56
     /tmp/ccuk26uq.s:7796   .debug_loc:0000000000000a52 .LLST38
     /tmp/ccuk26uq.s:998    .text:0000000000000594 .LBB99
     /tmp/ccuk26uq.s:1020   .text:00000000000005bc .LBE99
     /tmp/ccuk26uq.s:7814   .debug_loc:0000000000000a9e .LLST39
     /tmp/ccuk26uq.s:1010   .text:00000000000005b0 .LVL108
     /tmp/ccuk26uq.s:2148   .text:0000000000000d40 .LFB55
     /tmp/ccuk26uq.s:2218   .text:0000000000000db8 .LFE55
     /tmp/ccuk26uq.s:7825   .debug_loc:0000000000000ad4 .LLST71
     /tmp/ccuk26uq.s:7847   .debug_loc:0000000000000b33 .LLST72
     /tmp/ccuk26uq.s:7862   .debug_loc:0000000000000b7c .LLST73
     /tmp/ccuk26uq.s:9000   .debug_str:000000000000044b .LASF149
     /tmp/ccuk26uq.s:2170   .text:0000000000000d68 .LVL247
     /tmp/ccuk26uq.s:2176   .text:0000000000000d74 .LVL249
     /tmp/ccuk26uq.s:2183   .text:0000000000000d80 .LVL250
     /tmp/ccuk26uq.s:2213   .text:0000000000000db0 .LVL255
     /tmp/ccuk26uq.s:609    .text:000000000000038c .LFB54
     /tmp/ccuk26uq.s:974    .text:0000000000000578 .LFE54
     /tmp/ccuk26uq.s:7877   .debug_loc:0000000000000bc5 .LLST28
     /tmp/ccuk26uq.s:7927   .debug_loc:0000000000000ca9 .LLST29
     /tmp/ccuk26uq.s:7977   .debug_loc:0000000000000d8d .LLST30
     /tmp/ccuk26uq.s:8014   .debug_loc:0000000000000e37 .LLST31
     /tmp/ccuk26uq.s:9106   .debug_str:0000000000000802 .LASF121
     /tmp/ccuk26uq.s:8030   .debug_loc:0000000000000e81 .LLST32
     /tmp/ccuk26uq.s:9130   .debug_str:000000000000094c .LASF122
     /tmp/ccuk26uq.s:8069   .debug_loc:0000000000000ee2 .LLST33
     /tmp/ccuk26uq.s:738    .text:0000000000000440 .LBB78
     /tmp/ccuk26uq.s:748    .text:000000000000044c .LBE78
     /tmp/ccuk26uq.s:8090   .debug_loc:0000000000000f40 .LLST34
     /tmp/ccuk26uq.s:707    .text:0000000000000414 .LVL81
     /tmp/ccuk26uq.s:717    .text:0000000000000424 .LVL82
     /tmp/ccuk26uq.s:728    .text:0000000000000434 .LVL83
     /tmp/ccuk26uq.s:804    .text:0000000000000488 .LBB89
     /tmp/ccuk26uq.s:949    .text:0000000000000554 .LBE89
     /tmp/ccuk26uq.s:8097   .debug_loc:0000000000000f63 .LLST35
GAS LISTING /tmp/ccuk26uq.s 			page 97


     /tmp/ccuk26uq.s:8113   .debug_loc:0000000000000fad .LLST36
     /tmp/ccuk26uq.s:902    .text:0000000000000510 .LBB93
     /tmp/ccuk26uq.s:911    .text:000000000000051c .LBE93
     /tmp/ccuk26uq.s:8152   .debug_loc:000000000000100e .LLST37
     /tmp/ccuk26uq.s:871    .text:00000000000004e4 .LVL97
     /tmp/ccuk26uq.s:881    .text:00000000000004f4 .LVL98
     /tmp/ccuk26uq.s:892    .text:0000000000000504 .LVL99
     /tmp/ccuk26uq.s:539    .text:0000000000000334 .LFB53
     /tmp/ccuk26uq.s:603    .text:000000000000038c .LFE53
     /tmp/ccuk26uq.s:8159   .debug_loc:0000000000001031 .LLST24
     /tmp/ccuk26uq.s:8173   .debug_loc:000000000000106a .LLST25
     /tmp/ccuk26uq.s:9068   .debug_str:000000000000068e .LASF123
     /tmp/ccuk26uq.s:9152   .debug_str:00000000000009fe .LASF124
     /tmp/ccuk26uq.s:8187   .debug_loc:00000000000010a3 .LLST26
     /tmp/ccuk26uq.s:8199   .debug_loc:00000000000010da .LLST27
     /tmp/ccuk26uq.s:442    .text:00000000000002b8 .LFB52
     /tmp/ccuk26uq.s:533    .text:0000000000000334 .LFE52
     /tmp/ccuk26uq.s:8215   .debug_loc:0000000000001124 .LLST19
     /tmp/ccuk26uq.s:8240   .debug_loc:0000000000001186 .LLST20
     /tmp/ccuk26uq.s:9092   .debug_str:000000000000077e .LASF125
     /tmp/ccuk26uq.s:8254   .debug_loc:00000000000011bf .LLST21
     /tmp/ccuk26uq.s:8277   .debug_loc:000000000000121f .LLST22
     /tmp/ccuk26uq.s:8293   .debug_loc:0000000000001269 .LLST23
     /tmp/ccuk26uq.s:10     .text:0000000000000000 .LFB51
     /tmp/ccuk26uq.s:186    .text:000000000000011c .LFE51
     /tmp/ccuk26uq.s:8309   .debug_loc:00000000000012b3 .LLST0
     /tmp/ccuk26uq.s:8327   .debug_loc:00000000000012ff .LLST1
     /tmp/ccuk26uq.s:82     .text:0000000000000078 .LBB59
     /tmp/ccuk26uq.s:104    .text:000000000000009c .LBE59
     /tmp/ccuk26uq.s:8350   .debug_loc:000000000000135f .LLST4
     /tmp/ccuk26uq.s:124    .text:00000000000000c4 .LBB62
     /tmp/ccuk26uq.s:155    .text:00000000000000ec .LBE62
     /tmp/ccuk26uq.s:8366   .debug_loc:00000000000013a9 .LLST5
     /tmp/ccuk26uq.s:125    .text:00000000000000c4 .LBB63
     /tmp/ccuk26uq.s:154    .text:00000000000000ec .LBE63
     /tmp/ccuk26uq.s:8373   .debug_loc:00000000000013cc .LLST6
     /tmp/ccuk26uq.s:141    .text:00000000000000dc .LVL12
     /tmp/ccuk26uq.s:34     .text:0000000000000024 .LBB56
     /tmp/ccuk26uq.s:8380   .debug_loc:00000000000013ef .LLST2
     /tmp/ccuk26uq.s:110    .text:00000000000000ac .LVL9
     /tmp/ccuk26uq.s:58     .text:0000000000000054 .LVL3
     /tmp/ccuk26uq.s:1935   .text:0000000000000c20 .LFB50
     /tmp/ccuk26uq.s:2142   .text:0000000000000d40 .LFE50
     /tmp/ccuk26uq.s:8393   .debug_loc:0000000000001427 .LLST63
     /tmp/ccuk26uq.s:2044   .text:0000000000000cb8 .LBB118
     /tmp/ccuk26uq.s:2125   .text:0000000000000d28 .LBE118
     /tmp/ccuk26uq.s:8415   .debug_loc:0000000000001486 .LLST67
     /tmp/ccuk26uq.s:2089   .text:0000000000000cf8 .LBB124
     /tmp/ccuk26uq.s:2118   .text:0000000000000d24 .LBE124
     /tmp/ccuk26uq.s:8422   .debug_loc:00000000000014a9 .LLST70
     /tmp/ccuk26uq.s:2062   .text:0000000000000cdc .LBB119
     /tmp/ccuk26uq.s:2071   .text:0000000000000ce8 .LBE119
     /tmp/ccuk26uq.s:8434   .debug_loc:00000000000014e0 .LLST68
     /tmp/ccuk26uq.s:2077   .text:0000000000000cec .LBB122
     /tmp/ccuk26uq.s:2084   .text:0000000000000cf0 .LBE122
     /tmp/ccuk26uq.s:8441   .debug_loc:0000000000001503 .LLST69
     /tmp/ccuk26uq.s:2051   .text:0000000000000ccc .LVL236
GAS LISTING /tmp/ccuk26uq.s 			page 98


     /tmp/ccuk26uq.s:1964   .text:0000000000000c48 .LBB115
     /tmp/ccuk26uq.s:2024   .text:0000000000000ca4 .LBE115
     /tmp/ccuk26uq.s:9044   .debug_str:000000000000058f .LASF126
     /tmp/ccuk26uq.s:8448   .debug_loc:0000000000001526 .LLST64
     /tmp/ccuk26uq.s:8455   .debug_loc:0000000000001549 .LLST65
     /tmp/ccuk26uq.s:1995   .text:0000000000000c7c .LBB116
     /tmp/ccuk26uq.s:2004   .text:0000000000000c88 .LBE116
     /tmp/ccuk26uq.s:8467   .debug_loc:0000000000001580 .LLST66
     /tmp/ccuk26uq.s:1972   .text:0000000000000c5c .LVL228
     /tmp/ccuk26uq.s:2130   .text:0000000000000d30 .LVL244
     /tmp/ccuk26uq.s:2317   .text:0000000000000e50 .LFB49
     /tmp/ccuk26uq.s:2456   .text:0000000000000f38 .LFE49
     /tmp/ccuk26uq.s:8474   .debug_loc:00000000000015a3 .LLST79
     /tmp/ccuk26uq.s:9194   .debug_str:0000000000000bf6 .LASF127
     /tmp/ccuk26uq.s:8492   .debug_loc:00000000000015ef .LLST80
     /tmp/ccuk26uq.s:8515   .debug_loc:000000000000165e .LLST81
     /tmp/ccuk26uq.s:8526   .debug_loc:0000000000001694 .LLST82
     /tmp/ccuk26uq.s:2364   .text:0000000000000e94 .LBB129
     /tmp/ccuk26uq.s:8537   .debug_loc:00000000000016ca .LLST83
     /tmp/ccuk26uq.s:2369   .text:0000000000000ea4 .LVL271
     /tmp/ccuk26uq.s:2382   .text:0000000000000ec4 .LVL273
     /tmp/ccuk26uq.s:2403   .text:0000000000000ee8 .LVL277
     /tmp/ccuk26uq.s:192    .text:000000000000011c .LFB48
     /tmp/ccuk26uq.s:436    .text:00000000000002b8 .LFE48
     /tmp/ccuk26uq.s:8550   .debug_loc:0000000000001702 .LLST7
     /tmp/ccuk26uq.s:8580   .debug_loc:0000000000001787 .LLST8
     /tmp/ccuk26uq.s:8610   .debug_loc:000000000000180c .LLST9
     /tmp/ccuk26uq.s:8640   .debug_loc:0000000000001891 .LLST10
     /tmp/ccuk26uq.s:8670   .debug_loc:0000000000001916 .LLST11
     /tmp/ccuk26uq.s:8978   .debug_str:0000000000000396 .LASF128
     /tmp/ccuk26uq.s:8681   .debug_loc:000000000000194c .LLST12
     /tmp/ccuk26uq.s:9002   .debug_str:0000000000000450 .LASF129
     /tmp/ccuk26uq.s:8718   .debug_loc:00000000000019ba .LLST13
     /tmp/ccuk26uq.s:8908   .debug_str:00000000000000ab .LASF130
     /tmp/ccuk26uq.s:8731   .debug_loc:00000000000019f2 .LLST14
     /tmp/ccuk26uq.s:8926   .debug_str:000000000000015c .LASF131
     /tmp/ccuk26uq.s:8754   .debug_loc:0000000000001a61 .LLST15
     /tmp/ccuk26uq.s:8765   .debug_loc:0000000000001a97 .LLST16
     /tmp/ccuk26uq.s:241    .text:000000000000016c .LBB65
     /tmp/ccuk26uq.s:8776   .debug_loc:0000000000001acd .LLST17
     /tmp/ccuk26uq.s:331    .text:0000000000000208 .LVL29
     /tmp/ccuk26uq.s:259    .text:0000000000000190 .LVL24
     /tmp/ccuk26uq.s:390    .text:0000000000000274 .LVL37
     /tmp/ccuk26uq.s:9016   .debug_str:00000000000004ba .LASF132
     /tmp/ccuk26uq.s:9192   .debug_str:0000000000000bec .LASF133
     /tmp/ccuk26uq.s:8898   .debug_str:000000000000002b .LASF150
     /tmp/ccuk26uq.s:9056   .debug_str:0000000000000609 .LASF134
     /tmp/ccuk26uq.s:9064   .debug_str:000000000000066b .LASF136
     /tmp/ccuk26uq.s:9090   .debug_str:000000000000076f .LASF135
     /tmp/ccuk26uq.s:8958   .debug_str:00000000000002d1 .LASF137
     /tmp/ccuk26uq.s:9190   .debug_str:0000000000000bd3 .LASF138
     /tmp/ccuk26uq.s:9036   .debug_str:0000000000000557 .LASF139
     /tmp/ccuk26uq.s:8950   .debug_str:000000000000027b .LASF140
     /tmp/ccuk26uq.s:9188   .debug_str:0000000000000bb7 .LASF141
     /tmp/ccuk26uq.s:2227   .text:0000000000000db8 .LVL256
     /tmp/ccuk26uq.s:2257   .text:0000000000000df8 .LVL257
     /tmp/ccuk26uq.s:2296   .text:0000000000000e38 .LVL262
GAS LISTING /tmp/ccuk26uq.s 			page 99


     /tmp/ccuk26uq.s:2307   .text:0000000000000e4c .LVL264
     /tmp/ccuk26uq.s:2301   .text:0000000000000e40 .LVL263
     /tmp/ccuk26uq.s:2293   .text:0000000000000e34 .LVL261
     /tmp/ccuk26uq.s:1841   .text:0000000000000b84 .LVL216
     /tmp/ccuk26uq.s:1865   .text:0000000000000bb4 .LVL218
     /tmp/ccuk26uq.s:1916   .text:0000000000000c0c .LVL224
     /tmp/ccuk26uq.s:1922   .text:0000000000000c18 .LVL225
     /tmp/ccuk26uq.s:1862   .text:0000000000000bb0 .LVL217
     /tmp/ccuk26uq.s:1880   .text:0000000000000bd0 .LVL220
     /tmp/ccuk26uq.s:1883   .text:0000000000000bd4 .LVL221
     /tmp/ccuk26uq.s:1899   .text:0000000000000bf4 .LVL223
     /tmp/ccuk26uq.s:1797   .text:0000000000000b48 .LVL211
     /tmp/ccuk26uq.s:1827   .text:0000000000000b7c .LVL215
     /tmp/ccuk26uq.s:1298   .text:00000000000006cc .LVL135
     /tmp/ccuk26uq.s:1319   .text:00000000000006f8 .LVL136
     /tmp/ccuk26uq.s:1751   .text:0000000000000b0c .LVL208
     /tmp/ccuk26uq.s:1365   .text:0000000000000774 .LVL144
     /tmp/ccuk26uq.s:1719   .text:0000000000000ac4 .LVL201
     /tmp/ccuk26uq.s:1373   .text:0000000000000780 .LVL145
     /tmp/ccuk26uq.s:1451   .text:0000000000000864 .LVL159
     /tmp/ccuk26uq.s:1621   .text:00000000000009d0 .LVL187
     /tmp/ccuk26uq.s:1637   .text:00000000000009f8 .LVL190
     /tmp/ccuk26uq.s:1648   .text:0000000000000a0c .LVL191
     /tmp/ccuk26uq.s:1748   .text:0000000000000b08 .LVL207
     /tmp/ccuk26uq.s:1658   .text:0000000000000a1c .LVL192
     /tmp/ccuk26uq.s:1756   .text:0000000000000b14 .LVL209
     /tmp/ccuk26uq.s:1721   .text:0000000000000ac8 .LVL202
     /tmp/ccuk26uq.s:1727   .text:0000000000000ad4 .LVL203
     /tmp/ccuk26uq.s:1495   .text:00000000000008b8 .LVL166
     /tmp/ccuk26uq.s:1539   .text:000000000000090c .LVL173
     /tmp/ccuk26uq.s:1616   .text:00000000000009c8 .LVL186
     /tmp/ccuk26uq.s:2465   .text:0000000000000f38 .LVL281
     /tmp/ccuk26uq.s:2490   .text:0000000000000f68 .LVL284
     /tmp/ccuk26uq.s:2666   .text:00000000000010b0 .LVL313
     /tmp/ccuk26uq.s:2752   .text:0000000000001138 .LVL324
     /tmp/ccuk26uq.s:2485   .text:0000000000000f60 .LVL282
     /tmp/ccuk26uq.s:2505   .text:0000000000000f80 .LVL286
     /tmp/ccuk26uq.s:2511   .text:0000000000000f84 .LVL287
     /tmp/ccuk26uq.s:2537   .text:0000000000000fcc .LVL291
     /tmp/ccuk26uq.s:2547   .text:0000000000000fd4 .LVL293
     /tmp/ccuk26uq.s:2570   .text:0000000000001008 .LVL297
     /tmp/ccuk26uq.s:2576   .text:000000000000100c .LVL298
     /tmp/ccuk26uq.s:2597   .text:0000000000001038 .LVL301
     /tmp/ccuk26uq.s:2607   .text:0000000000001040 .LVL303
     /tmp/ccuk26uq.s:2630   .text:0000000000001074 .LVL307
     /tmp/ccuk26uq.s:2636   .text:0000000000001078 .LVL308
     /tmp/ccuk26uq.s:2657   .text:00000000000010a4 .LVL311
     /tmp/ccuk26uq.s:2488   .text:0000000000000f64 .LVL283
     /tmp/ccuk26uq.s:2515   .text:0000000000000f88 .LVL288
     /tmp/ccuk26uq.s:2580   .text:0000000000001010 .LVL299
     /tmp/ccuk26uq.s:2640   .text:000000000000107c .LVL309
     /tmp/ccuk26uq.s:2664   .text:00000000000010ac .LVL312
     /tmp/ccuk26uq.s:2677   .text:00000000000010d0 .LVL315
     /tmp/ccuk26uq.s:2687   .text:00000000000010d8 .LVL316
     /tmp/ccuk26uq.s:2714   .text:00000000000010fc .LVL318
     /tmp/ccuk26uq.s:2731   .text:000000000000111c .LVL321
     /tmp/ccuk26uq.s:2735   .text:0000000000001120 .LVL322
GAS LISTING /tmp/ccuk26uq.s 			page 100


     /tmp/ccuk26uq.s:2747   .text:0000000000001130 .LVL323
     /tmp/ccuk26uq.s:2560   .text:0000000000000ff0 .LVL295
     /tmp/ccuk26uq.s:2620   .text:000000000000105c .LVL305
     /tmp/ccuk26uq.s:2708   .text:00000000000010f4 .LVL317
     /tmp/ccuk26uq.s:2719   .text:0000000000001100 .LVL319
     /tmp/ccuk26uq.s:1173   .text:000000000000066c .LVL129
     /tmp/ccuk26uq.s:1191   .text:0000000000000690 .LVL130
     /tmp/ccuk26uq.s:1225   .text:00000000000006c4 .LVL134
     /tmp/ccuk26uq.s:1222   .text:00000000000006c0 .LVL133
     /tmp/ccuk26uq.s:1096   .text:000000000000060c .LVL117
     /tmp/ccuk26uq.s:1113   .text:0000000000000628 .LVL119
     /tmp/ccuk26uq.s:1152   .text:000000000000065c .LVL126
     /tmp/ccuk26uq.s:1156   .text:0000000000000664 .LVL127
     /tmp/ccuk26uq.s:1109   .text:0000000000000624 .LVL118
     /tmp/ccuk26uq.s:1118   .text:0000000000000634 .LVL121
     /tmp/ccuk26uq.s:1126   .text:000000000000063c .LVL122
     /tmp/ccuk26uq.s:1133   .text:0000000000000644 .LVL124
     /tmp/ccuk26uq.s:1141   .text:0000000000000650 .LVL125
     /tmp/ccuk26uq.s:1161   .text:0000000000000668 .LVL128
     /tmp/ccuk26uq.s:1047   .text:00000000000005d8 .LVL112
     /tmp/ccuk26uq.s:1064   .text:00000000000005f0 .LVL114
     /tmp/ccuk26uq.s:1056   .text:00000000000005e8 .LVL113
     /tmp/ccuk26uq.s:983    .text:0000000000000578 .LVL106
     /tmp/ccuk26uq.s:1001   .text:000000000000059c .LVL107
     /tmp/ccuk26uq.s:1033   .text:00000000000005d0 .LVL111
     /tmp/ccuk26uq.s:1030   .text:00000000000005cc .LVL110
     /tmp/ccuk26uq.s:2151   .text:0000000000000d40 .LVL245
     /tmp/ccuk26uq.s:2168   .text:0000000000000d60 .LVL246
     /tmp/ccuk26uq.s:2195   .text:0000000000000d8c .LVL251
     /tmp/ccuk26uq.s:2202   .text:0000000000000d98 .LVL253
     /tmp/ccuk26uq.s:2172   .text:0000000000000d6c .LVL248
     /tmp/ccuk26uq.s:2198   .text:0000000000000d90 .LVL252
     /tmp/ccuk26uq.s:2211   .text:0000000000000da8 .LVL254
     /tmp/ccuk26uq.s:612    .text:000000000000038c .LVL69
     /tmp/ccuk26uq.s:642    .text:00000000000003c0 .LVL72
     /tmp/ccuk26uq.s:656    .text:00000000000003cc .LVL75
     /tmp/ccuk26uq.s:705    .text:000000000000040c .LVL80
     /tmp/ccuk26uq.s:796    .text:0000000000000488 .LVL88
     /tmp/ccuk26uq.s:809    .text:0000000000000490 .LVL90
     /tmp/ccuk26uq.s:820    .text:000000000000049c .LVL91
     /tmp/ccuk26uq.s:869    .text:00000000000004dc .LVL96
     /tmp/ccuk26uq.s:944    .text:0000000000000554 .LVL102
     /tmp/ccuk26uq.s:952    .text:0000000000000558 .LVL103
     /tmp/ccuk26uq.s:969    .text:0000000000000570 .LVL105
     /tmp/ccuk26uq.s:691    .text:00000000000003f4 .LVL77
     /tmp/ccuk26uq.s:855    .text:00000000000004c4 .LVL93
     /tmp/ccuk26uq.s:966    .text:000000000000056c .LVL104
     /tmp/ccuk26uq.s:632    .text:00000000000003b4 .LVL70
     /tmp/ccuk26uq.s:669    .text:00000000000003d4 .LVL76
     /tmp/ccuk26uq.s:833    .text:00000000000004a4 .LVL92
     /tmp/ccuk26uq.s:637    .text:00000000000003b8 .LVL71
     /tmp/ccuk26uq.s:698    .text:0000000000000400 .LVL78
     /tmp/ccuk26uq.s:703    .text:0000000000000408 .LVL79
     /tmp/ccuk26uq.s:651    .text:00000000000003c4 .LVL73
     /tmp/ccuk26uq.s:654    .text:00000000000003c8 .LVL74
     /tmp/ccuk26uq.s:746    .text:000000000000044c .LVL85
     /tmp/ccuk26uq.s:766    .text:0000000000000458 .LVL86
GAS LISTING /tmp/ccuk26uq.s 			page 101


     /tmp/ccuk26uq.s:769    .text:000000000000045c .LVL87
     /tmp/ccuk26uq.s:737    .text:0000000000000440 .LVL84
     /tmp/ccuk26uq.s:807    .text:000000000000048c .LVL89
     /tmp/ccuk26uq.s:862    .text:00000000000004d0 .LVL94
     /tmp/ccuk26uq.s:867    .text:00000000000004d8 .LVL95
     /tmp/ccuk26uq.s:901    .text:0000000000000510 .LVL100
     /tmp/ccuk26uq.s:909    .text:000000000000051c .LVL101
     /tmp/ccuk26uq.s:542    .text:0000000000000334 .LVL61
     /tmp/ccuk26uq.s:590    .text:0000000000000374 .LVL68
     /tmp/ccuk26uq.s:556    .text:0000000000000348 .LVL63
     /tmp/ccuk26uq.s:565    .text:0000000000000350 .LVL64
     /tmp/ccuk26uq.s:580    .text:0000000000000364 .LVL66
     /tmp/ccuk26uq.s:582    .text:0000000000000368 .LVL67
     /tmp/ccuk26uq.s:445    .text:00000000000002b8 .LVL44
     /tmp/ccuk26uq.s:497    .text:00000000000002fc .LVL53
     /tmp/ccuk26uq.s:511    .text:0000000000000314 .LVL55
     /tmp/ccuk26uq.s:525    .text:0000000000000324 .LVL59
     /tmp/ccuk26uq.s:459    .text:00000000000002cc .LVL46
     /tmp/ccuk26uq.s:455    .text:00000000000002c8 .LVL45
     /tmp/ccuk26uq.s:493    .text:00000000000002f4 .LVL51
     /tmp/ccuk26uq.s:495    .text:00000000000002f8 .LVL52
     /tmp/ccuk26uq.s:521    .text:000000000000031c .LVL57
     /tmp/ccuk26uq.s:523    .text:0000000000000320 .LVL58
     /tmp/ccuk26uq.s:468    .text:00000000000002d4 .LVL47
     /tmp/ccuk26uq.s:500    .text:0000000000000304 .LVL54
     /tmp/ccuk26uq.s:528    .text:000000000000032c .LVL60
     /tmp/ccuk26uq.s:483    .text:00000000000002e8 .LVL49
     /tmp/ccuk26uq.s:485    .text:00000000000002ec .LVL50
     /tmp/ccuk26uq.s:14     .text:0000000000000000 .LVL0
     /tmp/ccuk26uq.s:41     .text:0000000000000030 .LVL2
     /tmp/ccuk26uq.s:174    .text:0000000000000108 .LVL16
     /tmp/ccuk26uq.s:60     .text:0000000000000058 .LVL4
     /tmp/ccuk26uq.s:102    .text:000000000000009c .LVL8
     /tmp/ccuk26uq.s:114    .text:00000000000000bc .LVL10
     /tmp/ccuk26uq.s:128    .text:00000000000000c8 .LVL11
     /tmp/ccuk26uq.s:181    .text:0000000000000114 .LVL17
     /tmp/ccuk26uq.s:81     .text:0000000000000078 .LVL5
     /tmp/ccuk26uq.s:85     .text:000000000000007c .LVL6
     /tmp/ccuk26uq.s:152    .text:00000000000000ec .LVL15
     /tmp/ccuk26uq.s:33     .text:0000000000000024 .LVL1
     /tmp/ccuk26uq.s:1938   .text:0000000000000c20 .LVL226
     /tmp/ccuk26uq.s:1970   .text:0000000000000c54 .LVL227
     /tmp/ccuk26uq.s:2036   .text:0000000000000cb0 .LVL234
     /tmp/ccuk26uq.s:2040   .text:0000000000000cb8 .LVL235
     /tmp/ccuk26uq.s:2123   .text:0000000000000d28 .LVL243
     /tmp/ccuk26uq.s:2091   .text:0000000000000cf8 .LVL241
     /tmp/ccuk26uq.s:2108   .text:0000000000000d10 .LVL242
     /tmp/ccuk26uq.s:2061   .text:0000000000000cdc .LVL237
     /tmp/ccuk26uq.s:2069   .text:0000000000000ce8 .LVL238
     /tmp/ccuk26uq.s:2076   .text:0000000000000cec .LVL239
     /tmp/ccuk26uq.s:2082   .text:0000000000000cf0 .LVL240
     /tmp/ccuk26uq.s:2022   .text:0000000000000ca4 .LVL233
     /tmp/ccuk26uq.s:1982   .text:0000000000000c6c .LVL229
     /tmp/ccuk26uq.s:2011   .text:0000000000000c90 .LVL232
     /tmp/ccuk26uq.s:1994   .text:0000000000000c7c .LVL230
     /tmp/ccuk26uq.s:2002   .text:0000000000000c88 .LVL231
     /tmp/ccuk26uq.s:2320   .text:0000000000000e50 .LVL265
GAS LISTING /tmp/ccuk26uq.s 			page 102


     /tmp/ccuk26uq.s:2360   .text:0000000000000e90 .LVL269
     /tmp/ccuk26uq.s:2447   .text:0000000000000f28 .LVL280
     /tmp/ccuk26uq.s:2346   .text:0000000000000e80 .LVL266
     /tmp/ccuk26uq.s:2352   .text:0000000000000e88 .LVL268
     /tmp/ccuk26uq.s:2362   .text:0000000000000e94 .LVL270
     /tmp/ccuk26uq.s:2385   .text:0000000000000ec8 .LVL274
     /tmp/ccuk26uq.s:2395   .text:0000000000000ed0 .LVL276
     /tmp/ccuk26uq.s:2412   .text:0000000000000ef8 .LVL278
     /tmp/ccuk26uq.s:2435   .text:0000000000000f18 .LVL279
     /tmp/ccuk26uq.s:2391   .text:0000000000000ecc .LVL275
     /tmp/ccuk26uq.s:2350   .text:0000000000000e84 .LVL267
     /tmp/ccuk26uq.s:2375   .text:0000000000000eb0 .LVL272
     /tmp/ccuk26uq.s:195    .text:000000000000011c .LVL18
     /tmp/ccuk26uq.s:248    .text:0000000000000178 .LVL23
     /tmp/ccuk26uq.s:323    .text:00000000000001f8 .LVL27
     /tmp/ccuk26uq.s:329    .text:0000000000000200 .LVL28
     /tmp/ccuk26uq.s:417    .text:00000000000002a0 .LVL40
     /tmp/ccuk26uq.s:427    .text:00000000000002b0 .LVL43
     /tmp/ccuk26uq.s:414    .text:000000000000029c .LVL39
     /tmp/ccuk26uq.s:423    .text:00000000000002a8 .LVL42
     /tmp/ccuk26uq.s:420    .text:00000000000002a4 .LVL41
     /tmp/ccuk26uq.s:261    .text:0000000000000194 .LVL25
     /tmp/ccuk26uq.s:335    .text:0000000000000218 .LVL30
     /tmp/ccuk26uq.s:400    .text:0000000000000288 .LVL38
     /tmp/ccuk26uq.s:304    .text:00000000000001dc .LVL26
     /tmp/ccuk26uq.s:371    .text:0000000000000254 .LVL35
     /tmp/ccuk26uq.s:378    .text:0000000000000260 .LVL36
     /tmp/ccuk26uq.s:341    .text:000000000000021c .LVL31
     /tmp/ccuk26uq.s:360    .text:0000000000000244 .LVL32
     /tmp/ccuk26uq.s:363    .text:0000000000000248 .LVL33
     /tmp/ccuk26uq.s:369    .text:0000000000000250 .LVL34
     /tmp/ccuk26uq.s:222    .text:0000000000000158 .LVL19
     /tmp/ccuk26uq.s:246    .text:0000000000000174 .LVL22
     /tmp/ccuk26uq.s:240    .text:000000000000016c .LVL21
     /tmp/ccuk26uq.s:2788   .debug_info:0000000000000000 .Ldebug_info0
     /tmp/ccuk26uq.s:46     .text:0000000000000030 .LBE56
     /tmp/ccuk26uq.s:105    .text:000000000000009c .LBB60
     /tmp/ccuk26uq.s:117    .text:00000000000000bc .LBE60
     /tmp/ccuk26uq.s:219    .text:0000000000000150 .LBB64
     /tmp/ccuk26uq.s:238    .text:000000000000016c .LBE64
     /tmp/ccuk26uq.s:430    .text:00000000000002b0 .LBB69
     /tmp/ccuk26uq.s:434    .text:00000000000002b8 .LBE69
     /tmp/ccuk26uq.s:253    .text:0000000000000178 .LBE65
     /tmp/ccuk26uq.s:325    .text:00000000000001f8 .LBB68
     /tmp/ccuk26uq.s:338    .text:0000000000000218 .LBE68
     /tmp/ccuk26uq.s:462    .text:00000000000002cc .LBB70
     /tmp/ccuk26uq.s:465    .text:00000000000002d0 .LBE70
     /tmp/ccuk26uq.s:470    .text:00000000000002d4 .LBB71
     /tmp/ccuk26uq.s:487    .text:00000000000002ec .LBE71
     /tmp/ccuk26uq.s:559    .text:0000000000000348 .LBB72
     /tmp/ccuk26uq.s:562    .text:000000000000034c .LBE72
     /tmp/ccuk26uq.s:567    .text:0000000000000350 .LBB73
     /tmp/ccuk26uq.s:584    .text:0000000000000368 .LBE73
     /tmp/ccuk26uq.s:634    .text:00000000000003b4 .LBB74
     /tmp/ccuk26uq.s:638    .text:00000000000003b8 .LBE74
     /tmp/ccuk26uq.s:644    .text:00000000000003c0 .LBB87
     /tmp/ccuk26uq.s:753    .text:000000000000044c .LBE87
GAS LISTING /tmp/ccuk26uq.s 			page 103


     /tmp/ccuk26uq.s:755    .text:000000000000044c .LBB88
     /tmp/ccuk26uq.s:801    .text:0000000000000488 .LBE88
     /tmp/ccuk26uq.s:647    .text:00000000000003c0 .LBB77
     /tmp/ccuk26uq.s:658    .text:00000000000003cc .LBE77
     /tmp/ccuk26uq.s:687    .text:00000000000003f0 .LBB80
     /tmp/ccuk26uq.s:750    .text:000000000000044c .LBE80
     /tmp/ccuk26uq.s:758    .text:000000000000044c .LBB81
     /tmp/ccuk26uq.s:798    .text:0000000000000488 .LBE81
     /tmp/ccuk26uq.s:813    .text:0000000000000490 .LBB92
     /tmp/ccuk26uq.s:822    .text:000000000000049c .LBE92
     /tmp/ccuk26uq.s:851    .text:00000000000004c0 .LBB95
     /tmp/ccuk26uq.s:946    .text:0000000000000554 .LBE95
     /tmp/ccuk26uq.s:1058   .text:00000000000005e8 .LBB100
     /tmp/ccuk26uq.s:1061   .text:00000000000005ec .LBE100
     /tmp/ccuk26uq.s:1066   .text:00000000000005f0 .LBB101
     /tmp/ccuk26uq.s:1078   .text:0000000000000600 .LBE101
     /tmp/ccuk26uq.s:2377   .text:0000000000000eb0 .LBE129
     /tmp/ccuk26uq.s:2405   .text:0000000000000ee8 .LBB132
     /tmp/ccuk26uq.s:2415   .text:0000000000000ef8 .LBE132
     /tmp/ccuk26uq.s:2497   .text:0000000000000f68 .LBE133
     /tmp/ccuk26uq.s:2525   .text:0000000000000fa0 .LBB136
     /tmp/ccuk26uq.s:2540   .text:0000000000000fcc .LBE136
     /tmp/ccuk26uq.s:2562   .text:0000000000000ff0 .LBE137
     /tmp/ccuk26uq.s:2590   .text:0000000000001028 .LBB140
     /tmp/ccuk26uq.s:2600   .text:0000000000001038 .LBE140
     /tmp/ccuk26uq.s:2622   .text:000000000000105c .LBE141
     /tmp/ccuk26uq.s:2650   .text:0000000000001094 .LBB144
     /tmp/ccuk26uq.s:2660   .text:00000000000010a4 .LBE144
     /tmp/ccuk26uq.s:2680   .text:00000000000010d0 .LBE145
     /tmp/ccuk26uq.s:2709   .text:00000000000010f4 .LBB148
     /tmp/ccuk26uq.s:2721   .text:0000000000001100 .LBE148

UNDEFINED SYMBOLS
_ZN11BuddySystem10buddyAllocEm
_ZN11BuddySystemC1Ev
_Z14string_comparePKcS0_
_Z11printStringPKc
_Z8printIntiii
_Z27concatenate_int_to_char_ptri
_ZN11BuddySystem9buddyFreeEm
