GAS LISTING /tmp/ccEO7tDs.s 			page 1


   1              		.file	"String.cpp"
   2              		.option pic
   3              		.option norelax
   4              		.text
   5              	.Ltext0:
   6              		.align	2
   7              		.globl	_Z10size_startPKc
   9              	_Z10size_startPKc:
  10              	.LFB40:
  11              		.file 1 "src/String.cpp"
   1:src/String.cpp **** //
   2:src/String.cpp **** // Created by os on 9/5/23.
   3:src/String.cpp **** //
   4:src/String.cpp **** #include "../h/String.h"
   5:src/String.cpp **** #include "../test/printing.hpp"
   6:src/String.cpp **** 
   7:src/String.cpp **** // does name start with size-, 1 if true, 0 if not
   8:src/String.cpp **** bool size_start(const char *name){
  12              		.loc 1 8 34
  13              		.cfi_startproc
  14              	.LVL0:
  15 0000 130101FF 		addi	sp,sp,-16
  16              		.cfi_def_cfa_offset 16
  17 0004 23348100 		sd	s0,8(sp)
  18              		.cfi_offset 8, -8
  19 0008 13040101 		addi	s0,sp,16
  20              		.cfi_def_cfa 8, 0
   9:src/String.cpp ****     // Check if the input string starts with "size-"
  10:src/String.cpp ****     if (name[0] == 's' && name[1] == 'i' && name[2] == 'z' && name[3] == 'e' && name[4] == '-') {
  21              		.loc 1 10 5
  22              		.loc 1 10 15 is_stmt 0
  23 000c 03470500 		lbu	a4,0(a0)
  24              		.loc 1 10 5
  25 0010 93073007 		li	a5,115
  26 0014 630AF700 		beq	a4,a5,.L9
  11:src/String.cpp ****         return true;
  12:src/String.cpp ****     }
  13:src/String.cpp ****     return false;
  27              		.loc 1 13 12
  28 0018 13050000 		li	a0,0
  29              	.LVL1:
  30              	.L2:
  14:src/String.cpp **** }
  31              		.loc 1 14 1
  32 001c 03348100 		ld	s0,8(sp)
  33              		.cfi_remember_state
  34              		.cfi_restore 8
  35              		.cfi_def_cfa 2, 16
  36 0020 13010101 		addi	sp,sp,16
  37              		.cfi_def_cfa_offset 0
  38 0024 67800000 		jr	ra
  39              	.LVL2:
  40              	.L9:
  41              		.cfi_restore_state
  10:src/String.cpp ****         return true;
  42              		.loc 1 10 33 discriminator 1
  43 0028 03471500 		lbu	a4,1(a0)
GAS LISTING /tmp/ccEO7tDs.s 			page 2


  10:src/String.cpp ****         return true;
  44              		.loc 1 10 24 discriminator 1
  45 002c 93079006 		li	a5,105
  46 0030 6306F700 		beq	a4,a5,.L10
  13:src/String.cpp **** }
  47              		.loc 1 13 12
  48 0034 13050000 		li	a0,0
  49              	.LVL3:
  50 0038 6FF05FFE 		j	.L2
  51              	.LVL4:
  52              	.L10:
  10:src/String.cpp ****         return true;
  53              		.loc 1 10 51 discriminator 2
  54 003c 03472500 		lbu	a4,2(a0)
  10:src/String.cpp ****         return true;
  55              		.loc 1 10 42 discriminator 2
  56 0040 9307A007 		li	a5,122
  57 0044 6306F700 		beq	a4,a5,.L11
  13:src/String.cpp **** }
  58              		.loc 1 13 12
  59 0048 13050000 		li	a0,0
  60              	.LVL5:
  61 004c 6FF01FFD 		j	.L2
  62              	.LVL6:
  63              	.L11:
  10:src/String.cpp ****         return true;
  64              		.loc 1 10 69 discriminator 3
  65 0050 03473500 		lbu	a4,3(a0)
  10:src/String.cpp ****         return true;
  66              		.loc 1 10 60 discriminator 3
  67 0054 93075006 		li	a5,101
  68 0058 6306F700 		beq	a4,a5,.L12
  13:src/String.cpp **** }
  69              		.loc 1 13 12
  70 005c 13050000 		li	a0,0
  71              	.LVL7:
  72 0060 6FF0DFFB 		j	.L2
  73              	.LVL8:
  74              	.L12:
  10:src/String.cpp ****         return true;
  75              		.loc 1 10 87 discriminator 4
  76 0064 03474500 		lbu	a4,4(a0)
  10:src/String.cpp ****         return true;
  77              		.loc 1 10 78 discriminator 4
  78 0068 9307D002 		li	a5,45
  79 006c 6306F700 		beq	a4,a5,.L7
  13:src/String.cpp **** }
  80              		.loc 1 13 12
  81 0070 13050000 		li	a0,0
  82              	.LVL9:
  83 0074 6FF09FFA 		j	.L2
  84              	.LVL10:
  85              	.L7:
  11:src/String.cpp ****     }
  86              		.loc 1 11 16
  87 0078 13051000 		li	a0,1
  88              	.LVL11:
GAS LISTING /tmp/ccEO7tDs.s 			page 3


  89 007c 6FF01FFA 		j	.L2
  90              		.cfi_endproc
  91              	.LFE40:
  93              		.align	2
  94              		.globl	_Z14get_int_lengthi
  96              	_Z14get_int_lengthi:
  97              	.LFB41:
  15:src/String.cpp **** 
  16:src/String.cpp **** int get_int_length(int number) {
  98              		.loc 1 16 32 is_stmt 1
  99              		.cfi_startproc
 100              	.LVL12:
 101 0080 130101FF 		addi	sp,sp,-16
 102              		.cfi_def_cfa_offset 16
 103 0084 23348100 		sd	s0,8(sp)
 104              		.cfi_offset 8, -8
 105 0088 13040101 		addi	s0,sp,16
 106              		.cfi_def_cfa 8, 0
 107 008c 93070500 		mv	a5,a0
  17:src/String.cpp ****     int length = 0;
 108              		.loc 1 17 5
 109              	.LVL13:
 110              		.loc 1 17 9 is_stmt 0
 111 0090 13050000 		li	a0,0
 112              	.LVL14:
 113              	.L15:
  18:src/String.cpp ****     while (number != 0) {
 114              		.loc 1 18 5 is_stmt 1
 115              		.loc 1 18 19
 116 0094 638A0700 		beqz	a5,.L14
  19:src/String.cpp ****         number /= 10;
 117              		.loc 1 19 9
 118              		.loc 1 19 16 is_stmt 0
 119 0098 1307A000 		li	a4,10
 120 009c BBC7E702 		divw	a5,a5,a4
 121              	.LVL15:
  20:src/String.cpp ****         length++;
 122              		.loc 1 20 9 is_stmt 1
 123              		.loc 1 20 15 is_stmt 0
 124 00a0 1B051500 		addiw	a0,a0,1
 125              	.LVL16:
  18:src/String.cpp ****     while (number != 0) {
 126              		.loc 1 18 5
 127 00a4 6FF01FFF 		j	.L15
 128              	.LVL17:
 129              	.L14:
  21:src/String.cpp ****     }
  22:src/String.cpp ****     return length;
 130              		.loc 1 22 5 is_stmt 1
  23:src/String.cpp **** }
 131              		.loc 1 23 1 is_stmt 0
 132 00a8 03348100 		ld	s0,8(sp)
 133              		.cfi_restore 8
 134              		.cfi_def_cfa 2, 16
 135 00ac 13010101 		addi	sp,sp,16
 136              		.cfi_def_cfa_offset 0
 137 00b0 67800000 		jr	ra
GAS LISTING /tmp/ccEO7tDs.s 			page 4


 138              		.cfi_endproc
 139              	.LFE41:
 141              		.align	2
 142              		.globl	_Z13int_to_stringiPci
 144              	_Z13int_to_stringiPci:
 145              	.LFB42:
  24:src/String.cpp **** 
  25:src/String.cpp **** void int_to_string(int number, char* buffer, int bufferSize) {
 146              		.loc 1 25 62 is_stmt 1
 147              		.cfi_startproc
 148              	.LVL18:
 149 00b4 130101FD 		addi	sp,sp,-48
 150              		.cfi_def_cfa_offset 48
 151 00b8 23341102 		sd	ra,40(sp)
 152 00bc 23308102 		sd	s0,32(sp)
 153 00c0 233C9100 		sd	s1,24(sp)
 154 00c4 23382101 		sd	s2,16(sp)
 155 00c8 23343101 		sd	s3,8(sp)
 156              		.cfi_offset 1, -8
 157              		.cfi_offset 8, -16
 158              		.cfi_offset 9, -24
 159              		.cfi_offset 18, -32
 160              		.cfi_offset 19, -40
 161 00cc 13040103 		addi	s0,sp,48
 162              		.cfi_def_cfa 8, 0
 163 00d0 93040500 		mv	s1,a0
 164 00d4 13890500 		mv	s2,a1
 165 00d8 93090600 		mv	s3,a2
  26:src/String.cpp ****     int length = get_int_length(number);
 166              		.loc 1 26 5
 167              		.loc 1 26 32 is_stmt 0
 168 00dc 97000000 		call	_Z14get_int_lengthi
 168      E7800000 
 169              	.LVL19:
  27:src/String.cpp **** 
  28:src/String.cpp ****     if (length >= bufferSize) {
 170              		.loc 1 28 5 is_stmt 1
 171 00e4 635A3503 		bge	a0,s3,.L17
  29:src/String.cpp ****         // Handle buffer overflow
  30:src/String.cpp ****         return;
  31:src/String.cpp ****     }
  32:src/String.cpp **** 
  33:src/String.cpp ****     for (int i = length - 1; i >= 0; i--) {
 172              		.loc 1 33 5
 173              	.LBB2:
 174              		.loc 1 33 14 is_stmt 0
 175 00e8 9B07F5FF 		addiw	a5,a0,-1
 176              	.LVL20:
 177              	.L20:
 178              		.loc 1 33 32 is_stmt 1 discriminator 3
 179 00ec 63C20702 		bltz	a5,.L19
  34:src/String.cpp ****         buffer[i] = '0' + (number % 10);
 180              		.loc 1 34 9 discriminator 2
 181              		.loc 1 34 35 is_stmt 0 discriminator 2
 182 00f0 9306A000 		li	a3,10
 183 00f4 3BE7D402 		remw	a4,s1,a3
 184              		.loc 1 34 17 discriminator 2
GAS LISTING /tmp/ccEO7tDs.s 			page 5


 185 00f8 3306F900 		add	a2,s2,a5
 186              		.loc 1 34 25 discriminator 2
 187 00fc 1B070703 		addiw	a4,a4,48
 188              		.loc 1 34 19 discriminator 2
 189 0100 2300E600 		sb	a4,0(a2)
  35:src/String.cpp ****         number /= 10;
 190              		.loc 1 35 9 is_stmt 1 discriminator 2
 191              		.loc 1 35 16 is_stmt 0 discriminator 2
 192 0104 BBC4D402 		divw	s1,s1,a3
 193              	.LVL21:
  33:src/String.cpp ****         buffer[i] = '0' + (number % 10);
 194              		.loc 1 33 5 is_stmt 1 discriminator 2
 195 0108 9B87F7FF 		addiw	a5,a5,-1
 196              	.LVL22:
 197 010c 6FF01FFE 		j	.L20
 198              	.LVL23:
 199              	.L19:
 200              	.LBE2:
  36:src/String.cpp ****     }
  37:src/String.cpp ****     buffer[length] = '\0';
 201              		.loc 1 37 5
 202              		.loc 1 37 18 is_stmt 0
 203 0110 3309A900 		add	s2,s2,a0
 204              	.LVL24:
 205              		.loc 1 37 20
 206 0114 23000900 		sb	zero,0(s2)
 207              	.LVL25:
 208              	.L17:
  38:src/String.cpp **** }
 209              		.loc 1 38 1
 210 0118 83308102 		ld	ra,40(sp)
 211              		.cfi_restore 1
 212 011c 03340102 		ld	s0,32(sp)
 213              		.cfi_restore 8
 214              		.cfi_def_cfa 2, 48
 215 0120 83348101 		ld	s1,24(sp)
 216              		.cfi_restore 9
 217 0124 03390101 		ld	s2,16(sp)
 218              		.cfi_restore 18
 219 0128 83398100 		ld	s3,8(sp)
 220              		.cfi_restore 19
 221 012c 13010103 		addi	sp,sp,48
 222              		.cfi_def_cfa_offset 0
 223 0130 67800000 		jr	ra
 224              		.cfi_endproc
 225              	.LFE42:
 227              		.section	.rodata.str1.8,"aMS",@progbits,1
 228              		.align	3
 229              	.LC0:
 230 0000 73697A65 		.string	"size-xxxxxx"
 230      2D787878 
 230      78787800 
 231              		.text
 232              		.align	2
 233              		.globl	_Z27concatenate_int_to_char_ptri
 235              	_Z27concatenate_int_to_char_ptri:
 236              	.LFB43:
GAS LISTING /tmp/ccEO7tDs.s 			page 6


  39:src/String.cpp **** 
  40:src/String.cpp **** char* concatenate_int_to_char_ptr(int number) {
 237              		.loc 1 40 47 is_stmt 1
 238              		.cfi_startproc
 239              	.LVL26:
 240 0134 130101FE 		addi	sp,sp,-32
 241              		.cfi_def_cfa_offset 32
 242 0138 233C1100 		sd	ra,24(sp)
 243 013c 23388100 		sd	s0,16(sp)
 244 0140 23349100 		sd	s1,8(sp)
 245              		.cfi_offset 1, -8
 246              		.cfi_offset 8, -16
 247              		.cfi_offset 9, -24
 248 0144 13040102 		addi	s0,sp,32
 249              		.cfi_def_cfa 8, 0
 250 0148 93040500 		mv	s1,a0
  41:src/String.cpp ****     char* baseString = (char*)"size-xxxxxx";
 251              		.loc 1 41 5
 252              	.LVL27:
  42:src/String.cpp ****     int length = get_int_length(number);
 253              		.loc 1 42 5
 254              		.loc 1 42 32 is_stmt 0
 255 014c 97000000 		call	_Z14get_int_lengthi
 255      E7800000 
 256              	.LVL28:
  43:src/String.cpp ****     for(int i = 5 + length; i >= 5; i--){
 257              		.loc 1 43 5 is_stmt 1
 258              	.LBB3:
 259              		.loc 1 43 13 is_stmt 0
 260 0154 1B055500 		addiw	a0,a0,5
 261              	.LVL29:
 262 0158 93070500 		mv	a5,a0
 263 015c 6F008001 		j	.L26
 264              	.LVL30:
 265              	.L28:
 266              	.LBB4:
  44:src/String.cpp ****         if(i == 5 + length){
  45:src/String.cpp ****             baseString[i] = '\0';
 267              		.loc 1 45 13 is_stmt 1
 268              		.loc 1 45 25 is_stmt 0
 269 0160 17070000 		lla	a4,.LC0
 269      13070700 
 270 0168 3387E700 		add	a4,a5,a4
 271              		.loc 1 45 27
 272 016c 23000700 		sb	zero,0(a4)
 273              	.LVL31:
 274              	.L25:
 275              	.LBE4:
  43:src/String.cpp ****     for(int i = 5 + length; i >= 5; i--){
 276              		.loc 1 43 5 is_stmt 1 discriminator 2
 277 0170 9B87F7FF 		addiw	a5,a5,-1
 278              	.LVL32:
 279              	.L26:
  43:src/String.cpp ****     for(int i = 5 + length; i >= 5; i--){
 280              		.loc 1 43 31 discriminator 1
 281 0174 13074000 		li	a4,4
 282 0178 6358F702 		ble	a5,a4,.L23
GAS LISTING /tmp/ccEO7tDs.s 			page 7


 283              	.LBE3:
  44:src/String.cpp ****         if(i == 5 + length){
 284              		.loc 1 44 9
 285              	.LBB7:
 286              	.LBB6:
 287 017c E382A7FE 		beq	a5,a0,.L28
 288              	.LBB5:
  46:src/String.cpp ****         }else{
  47:src/String.cpp ****             int mod = number % 10;
 289              		.loc 1 47 13
 290              		.loc 1 47 17 is_stmt 0
 291 0180 9306A000 		li	a3,10
 292 0184 3BE7D402 		remw	a4,s1,a3
 293              	.LVL33:
  48:src/String.cpp ****             number /= 10;
 294              		.loc 1 48 13 is_stmt 1
 295              		.loc 1 48 20 is_stmt 0
 296 0188 BBC4D402 		divw	s1,s1,a3
 297              	.LVL34:
  49:src/String.cpp ****             char num_char = '0' + mod;
 298              		.loc 1 49 13 is_stmt 1
 299              		.loc 1 49 33 is_stmt 0
 300 018c 1377F70F 		andi	a4,a4,0xff
 301              		.loc 1 49 18
 302 0190 1B070703 		addiw	a4,a4,48
 303              	.LVL35:
  50:src/String.cpp ****             baseString[i] = num_char;
 304              		.loc 1 50 13 is_stmt 1
 305              		.loc 1 50 25 is_stmt 0
 306 0194 97060000 		lla	a3,.LC0
 306      93860600 
 307 019c B386D700 		add	a3,a5,a3
 308              		.loc 1 50 27
 309 01a0 2380E600 		sb	a4,0(a3)
 310 01a4 6FF0DFFC 		j	.L25
 311              	.LVL36:
 312              	.L23:
 313              	.LBE5:
 314              	.LBE6:
 315              	.LBE7:
  51:src/String.cpp ****         }
  52:src/String.cpp ****     }
  53:src/String.cpp ****     return baseString;
 316              		.loc 1 53 5 is_stmt 1
  54:src/String.cpp **** 
  55:src/String.cpp **** }
 317              		.loc 1 55 1 is_stmt 0
 318 01a8 17050000 		lla	a0,.LC0
 318      13050500 
 319 01b0 83308101 		ld	ra,24(sp)
 320              		.cfi_restore 1
 321 01b4 03340101 		ld	s0,16(sp)
 322              		.cfi_restore 8
 323              		.cfi_def_cfa 2, 32
 324 01b8 83348100 		ld	s1,8(sp)
 325              		.cfi_restore 9
 326              	.LVL37:
GAS LISTING /tmp/ccEO7tDs.s 			page 8


 327 01bc 13010102 		addi	sp,sp,32
 328              		.cfi_def_cfa_offset 0
 329 01c0 67800000 		jr	ra
 330              		.cfi_endproc
 331              	.LFE43:
 333              		.align	2
 334              		.globl	_Z14string_comparePKcS0_
 336              	_Z14string_comparePKcS0_:
 337              	.LFB44:
  56:src/String.cpp **** 
  57:src/String.cpp **** bool string_compare(const char* str1, const char* str2) {
 338              		.loc 1 57 57 is_stmt 1
 339              		.cfi_startproc
 340              	.LVL38:
 341 01c4 130101FF 		addi	sp,sp,-16
 342              		.cfi_def_cfa_offset 16
 343 01c8 23348100 		sd	s0,8(sp)
 344              		.cfi_offset 8, -8
 345 01cc 13040101 		addi	s0,sp,16
 346              		.cfi_def_cfa 8, 0
 347 01d0 6F00C000 		j	.L32
 348              	.L37:
  58:src/String.cpp ****     while (*str1 != '\0' && *str2 != '\0') {
  59:src/String.cpp ****         if (*str1 != *str2) {
  60:src/String.cpp ****             return false;
  61:src/String.cpp ****         }
  62:src/String.cpp ****         str1++;
 349              		.loc 1 62 9
 350              		.loc 1 62 13 is_stmt 0
 351 01d4 13051500 		addi	a0,a0,1
 352              	.LVL39:
  63:src/String.cpp ****         str2++;
 353              		.loc 1 63 9 is_stmt 1
 354              		.loc 1 63 13 is_stmt 0
 355 01d8 93851500 		addi	a1,a1,1
 356              	.LVL40:
 357              	.L32:
  58:src/String.cpp ****     while (*str1 != '\0' && *str2 != '\0') {
 358              		.loc 1 58 5 is_stmt 1
  58:src/String.cpp ****     while (*str1 != '\0' && *str2 != '\0') {
 359              		.loc 1 58 26
  58:src/String.cpp ****     while (*str1 != '\0' && *str2 != '\0') {
 360              		.loc 1 58 12 is_stmt 0
 361 01dc 83470500 		lbu	a5,0(a0)
  58:src/String.cpp ****     while (*str1 != '\0' && *str2 != '\0') {
 362              		.loc 1 58 26
 363 01e0 638C0700 		beqz	a5,.L30
  58:src/String.cpp ****     while (*str1 != '\0' && *str2 != '\0') {
 364              		.loc 1 58 29 discriminator 1
 365 01e4 03C70500 		lbu	a4,0(a1)
  58:src/String.cpp ****     while (*str1 != '\0' && *str2 != '\0') {
 366              		.loc 1 58 26 discriminator 1
 367 01e8 63080700 		beqz	a4,.L30
  59:src/String.cpp ****             return false;
 368              		.loc 1 59 9 is_stmt 1
 369 01ec E384E7FE 		beq	a5,a4,.L37
  60:src/String.cpp ****         }
GAS LISTING /tmp/ccEO7tDs.s 			page 9


 370              		.loc 1 60 20 is_stmt 0
 371 01f0 13050000 		li	a0,0
 372              	.LVL41:
 373 01f4 6F00C001 		j	.L31
 374              	.LVL42:
 375              	.L30:
  64:src/String.cpp ****     }
  65:src/String.cpp **** 
  66:src/String.cpp ****     // Check if both strings have reached the end simultaneously
  67:src/String.cpp ****     return (*str1 == '\0' && *str2 == '\0');
 376              		.loc 1 67 5 is_stmt 1
 377              		.loc 1 67 27 is_stmt 0
 378 01f8 639A0700 		bnez	a5,.L34
 379              		.loc 1 67 30 discriminator 1
 380 01fc 83C70500 		lbu	a5,0(a1)
 381              		.loc 1 67 27 discriminator 1
 382 0200 638E0700 		beqz	a5,.L35
 383              		.loc 1 67 27
 384 0204 13050000 		li	a0,0
 385              	.LVL43:
 386 0208 6F008000 		j	.L31
 387              	.LVL44:
 388              	.L34:
 389 020c 13050000 		li	a0,0
 390              	.LVL45:
 391              	.L31:
  68:src/String.cpp **** }...
 392              		.loc 1 68 1
 393 0210 03348100 		ld	s0,8(sp)
 394              		.cfi_remember_state
 395              		.cfi_restore 8
 396              		.cfi_def_cfa 2, 16
 397 0214 13010101 		addi	sp,sp,16
 398              		.cfi_def_cfa_offset 0
 399 0218 67800000 		jr	ra
 400              	.LVL46:
 401              	.L35:
 402              		.cfi_restore_state
  67:src/String.cpp ****     return (*str1 == '\0' && *str2 == '\0');
 403              		.loc 1 67 27
 404 021c 13051000 		li	a0,1
 405              	.LVL47:
 406 0220 6FF01FFF 		j	.L31
 407              		.cfi_endproc
 408              	.LFE44:
 410              	.Letext0:
 411              		.file 2 "src/../test/../h/../h/../h/../lib/hw.h"
 412              		.file 3 "src/../test/../h/syscall_c.h"
GAS LISTING /tmp/ccEO7tDs.s 			page 10

