GAS LISTING /tmp/ccZn8ma6.s 			page 1


   1              		.file	"syscall_cpp.cpp"
   2              		.option pic
   3              		.option norelax
   4              		.text
   5              	.Ltext0:
   6              		.section	.text._ZN6Thread3runEv,"axG",@progbits,_ZN6Thread3runEv,comdat
   7              		.align	2
   8              		.weak	_ZN6Thread3runEv
  10              	_ZN6Thread3runEv:
  11              	.LFB40:
  12              		.file 1 "src/../h/syscall_cpp.hpp"
   1:src/../h/syscall_cpp.hpp **** #ifndef _syscall_cpp_hpp_
   2:src/../h/syscall_cpp.hpp **** #define _syscall_cpp_hpp_
   3:src/../h/syscall_cpp.hpp **** 
   4:src/../h/syscall_cpp.hpp **** #include "../h/syscall_c.h"
   5:src/../h/syscall_cpp.hpp **** 
   6:src/../h/syscall_cpp.hpp **** 
   7:src/../h/syscall_cpp.hpp **** 
   8:src/../h/syscall_cpp.hpp **** void* operator new(size_t n);
   9:src/../h/syscall_cpp.hpp **** void* operator new[](size_t n);
  10:src/../h/syscall_cpp.hpp **** void operator delete(void* ptr);
  11:src/../h/syscall_cpp.hpp **** void operator delete[](void* ptr);
  12:src/../h/syscall_cpp.hpp **** 
  13:src/../h/syscall_cpp.hpp **** 
  14:src/../h/syscall_cpp.hpp **** 
  15:src/../h/syscall_cpp.hpp **** class Thread {
  16:src/../h/syscall_cpp.hpp **** public:
  17:src/../h/syscall_cpp.hpp ****     Thread(void (*body)(void*), void* arg);
  18:src/../h/syscall_cpp.hpp ****     virtual ~Thread();
  19:src/../h/syscall_cpp.hpp **** 
  20:src/../h/syscall_cpp.hpp **** 
  21:src/../h/syscall_cpp.hpp **** 
  22:src/../h/syscall_cpp.hpp ****     int start();
  23:src/../h/syscall_cpp.hpp **** 
  24:src/../h/syscall_cpp.hpp **** 
  25:src/../h/syscall_cpp.hpp **** 
  26:src/../h/syscall_cpp.hpp ****     static void dispatch();
  27:src/../h/syscall_cpp.hpp ****     static int sleep(time_t time);
  28:src/../h/syscall_cpp.hpp **** 
  29:src/../h/syscall_cpp.hpp **** 
  30:src/../h/syscall_cpp.hpp **** 
  31:src/../h/syscall_cpp.hpp **** protected:
  32:src/../h/syscall_cpp.hpp ****     Thread();
  33:src/../h/syscall_cpp.hpp ****     virtual void run() {}
  13              		.loc 1 33 18
  14              		.cfi_startproc
  15              	.LVL0:
  16 0000 130101FF 		addi	sp,sp,-16
  17              		.cfi_def_cfa_offset 16
  18 0004 23348100 		sd	s0,8(sp)
  19              		.cfi_offset 8, -8
  20 0008 13040101 		addi	s0,sp,16
  21              		.cfi_def_cfa 8, 0
  22              		.loc 1 33 25 is_stmt 0
  23 000c 03348100 		ld	s0,8(sp)
  24              		.cfi_restore 8
  25              		.cfi_def_cfa 2, 16
GAS LISTING /tmp/ccZn8ma6.s 			page 2


  26 0010 13010101 		addi	sp,sp,16
  27              		.cfi_def_cfa_offset 0
  28 0014 67800000 		jr	ra
  29              		.cfi_endproc
  30              	.LFE40:
  32              		.section	.text._ZN14PeriodicThread18periodicActivationEv,"axG",@progbits,_ZN14PeriodicThread18peri
  33              		.align	2
  34              		.weak	_ZN14PeriodicThread18periodicActivationEv
  36              	_ZN14PeriodicThread18periodicActivationEv:
  37              	.LFB42:
  34:src/../h/syscall_cpp.hpp **** 
  35:src/../h/syscall_cpp.hpp **** 
  36:src/../h/syscall_cpp.hpp **** 
  37:src/../h/syscall_cpp.hpp **** private:
  38:src/../h/syscall_cpp.hpp ****     static void wrapper_run(void* thread);
  39:src/../h/syscall_cpp.hpp **** 
  40:src/../h/syscall_cpp.hpp **** 
  41:src/../h/syscall_cpp.hpp **** 
  42:src/../h/syscall_cpp.hpp ****     thread_t myHandle;
  43:src/../h/syscall_cpp.hpp **** };
  44:src/../h/syscall_cpp.hpp **** 
  45:src/../h/syscall_cpp.hpp **** 
  46:src/../h/syscall_cpp.hpp **** 
  47:src/../h/syscall_cpp.hpp **** class Semaphore {
  48:src/../h/syscall_cpp.hpp **** public:
  49:src/../h/syscall_cpp.hpp ****     explicit Semaphore(unsigned init = 1);
  50:src/../h/syscall_cpp.hpp ****     virtual ~Semaphore();
  51:src/../h/syscall_cpp.hpp **** 
  52:src/../h/syscall_cpp.hpp **** 
  53:src/../h/syscall_cpp.hpp **** 
  54:src/../h/syscall_cpp.hpp ****     int wait();
  55:src/../h/syscall_cpp.hpp ****     int signal();
  56:src/../h/syscall_cpp.hpp **** 
  57:src/../h/syscall_cpp.hpp **** 
  58:src/../h/syscall_cpp.hpp **** 
  59:src/../h/syscall_cpp.hpp **** private:
  60:src/../h/syscall_cpp.hpp ****     sem_t myHandle;
  61:src/../h/syscall_cpp.hpp **** };
  62:src/../h/syscall_cpp.hpp **** 
  63:src/../h/syscall_cpp.hpp **** 
  64:src/../h/syscall_cpp.hpp **** 
  65:src/../h/syscall_cpp.hpp **** class PeriodicThread : public Thread {
  66:src/../h/syscall_cpp.hpp **** public:
  67:src/../h/syscall_cpp.hpp ****     void stop(){flag_stop = false;}
  68:src/../h/syscall_cpp.hpp **** //    uint64 getId()const{ id; }
  69:src/../h/syscall_cpp.hpp **** protected:
  70:src/../h/syscall_cpp.hpp ****     PeriodicThread(time_t period);
  71:src/../h/syscall_cpp.hpp ****     virtual void periodicActivation(){}
  38              		.loc 1 71 18 is_stmt 1
  39              		.cfi_startproc
  40              	.LVL1:
  41 0000 130101FF 		addi	sp,sp,-16
  42              		.cfi_def_cfa_offset 16
  43 0004 23348100 		sd	s0,8(sp)
  44              		.cfi_offset 8, -8
  45 0008 13040101 		addi	s0,sp,16
  46              		.cfi_def_cfa 8, 0
GAS LISTING /tmp/ccZn8ma6.s 			page 3


  47              		.loc 1 71 39 is_stmt 0
  48 000c 03348100 		ld	s0,8(sp)
  49              		.cfi_restore 8
  50              		.cfi_def_cfa 2, 16
  51 0010 13010101 		addi	sp,sp,16
  52              		.cfi_def_cfa_offset 0
  53 0014 67800000 		jr	ra
  54              		.cfi_endproc
  55              	.LFE42:
  57              		.text
  58              		.align	2
  59              		.globl	_ZN6Thread11wrapper_runEPv
  61              	_ZN6Thread11wrapper_runEPv:
  62              	.LFB71:
  63              		.file 2 "src/syscall_cpp.cpp"
   1:src/syscall_cpp.cpp **** #include "../h/syscall_cpp.hpp"
   2:src/syscall_cpp.cpp **** #include "../h/TCB.hpp"
   3:src/syscall_cpp.cpp **** #include "../h/semaphore.hpp"
   4:src/syscall_cpp.cpp **** 
   5:src/syscall_cpp.cpp **** 
   6:src/syscall_cpp.cpp **** 
   7:src/syscall_cpp.cpp **** void* operator new(size_t n) {
   8:src/syscall_cpp.cpp ****     return mem_alloc(n);
   9:src/syscall_cpp.cpp **** }
  10:src/syscall_cpp.cpp **** 
  11:src/syscall_cpp.cpp **** void* operator new[](size_t n) {
  12:src/syscall_cpp.cpp ****     return mem_alloc(n);
  13:src/syscall_cpp.cpp **** }
  14:src/syscall_cpp.cpp **** 
  15:src/syscall_cpp.cpp **** void operator delete(void* ptr) {
  16:src/syscall_cpp.cpp ****     mem_free(ptr);
  17:src/syscall_cpp.cpp **** }
  18:src/syscall_cpp.cpp **** 
  19:src/syscall_cpp.cpp **** void operator delete[](void* ptr) {
  20:src/syscall_cpp.cpp ****     mem_free(ptr);
  21:src/syscall_cpp.cpp **** }
  22:src/syscall_cpp.cpp **** 
  23:src/syscall_cpp.cpp **** Thread::Thread(void (*body)(void*), void *arg) {
  24:src/syscall_cpp.cpp ****     // inicijalizacija steka
  25:src/syscall_cpp.cpp ****     void* stack = mem_alloc(DEFAULT_STACK_SIZE);
  26:src/syscall_cpp.cpp ****     if(stack == nullptr){
  27:src/syscall_cpp.cpp ****         this->myHandle = nullptr;
  28:src/syscall_cpp.cpp ****         return;
  29:src/syscall_cpp.cpp ****     }
  30:src/syscall_cpp.cpp **** 
  31:src/syscall_cpp.cpp ****     uint64 a4 = (body != nullptr) ? (uint64)stack : 0;
  32:src/syscall_cpp.cpp **** 
  33:src/syscall_cpp.cpp **** //    uint64 a4 = (body != nullptr) ? (uint64)mem_alloc(DEFAULT_STACK_SIZE) : 0;
  34:src/syscall_cpp.cpp **** 
  35:src/syscall_cpp.cpp ****     // kod sistemskog poziva
  36:src/syscall_cpp.cpp ****     uint64 a0 = 0x11;
  37:src/syscall_cpp.cpp ****     // parametri
  38:src/syscall_cpp.cpp ****     uint64  a1, a2, a3, a5, a6, a7;
  39:src/syscall_cpp.cpp ****     a1 = (uint64)&myHandle;
  40:src/syscall_cpp.cpp ****     a2 = (uint64)body;
  41:src/syscall_cpp.cpp ****     a3 = (uint64)arg;
  42:src/syscall_cpp.cpp ****     a6 = (uint64)false;
GAS LISTING /tmp/ccZn8ma6.s 			page 4


  43:src/syscall_cpp.cpp **** 
  44:src/syscall_cpp.cpp ****     a5 = a7 = 0;
  45:src/syscall_cpp.cpp **** 
  46:src/syscall_cpp.cpp ****     // void* pokazivac
  47:src/syscall_cpp.cpp ****     uint64 empty[8]= {a0, a1, a2, a3, a4, a5, a6, a7};
  48:src/syscall_cpp.cpp **** 
  49:src/syscall_cpp.cpp ****     // sistemski poziv
  50:src/syscall_cpp.cpp ****     abi::sys_call(reinterpret_cast<void *>(empty));
  51:src/syscall_cpp.cpp **** 
  52:src/syscall_cpp.cpp **** }
  53:src/syscall_cpp.cpp **** 
  54:src/syscall_cpp.cpp **** Thread::~Thread() {
  55:src/syscall_cpp.cpp ****     delete (TCB*)(myHandle);
  56:src/syscall_cpp.cpp **** }
  57:src/syscall_cpp.cpp **** 
  58:src/syscall_cpp.cpp **** int Thread::start() {
  59:src/syscall_cpp.cpp ****     put_in_scheduler(myHandle);
  60:src/syscall_cpp.cpp ****     return 0;
  61:src/syscall_cpp.cpp **** }
  62:src/syscall_cpp.cpp **** 
  63:src/syscall_cpp.cpp **** void Thread::dispatch() {
  64:src/syscall_cpp.cpp ****     thread_dispatch();
  65:src/syscall_cpp.cpp **** }
  66:src/syscall_cpp.cpp **** 
  67:src/syscall_cpp.cpp **** int Thread::sleep(time_t time) {
  68:src/syscall_cpp.cpp ****     return time_sleep(time);
  69:src/syscall_cpp.cpp **** }
  70:src/syscall_cpp.cpp **** 
  71:src/syscall_cpp.cpp **** Thread::Thread() {
  72:src/syscall_cpp.cpp ****     // inicijalizacija steka
  73:src/syscall_cpp.cpp ****     uint64 a4 = (uint64)mem_alloc(DEFAULT_STACK_SIZE);
  74:src/syscall_cpp.cpp **** 
  75:src/syscall_cpp.cpp ****     // kod sistemskog poziva
  76:src/syscall_cpp.cpp ****     uint64 a0 = 0x11;
  77:src/syscall_cpp.cpp ****     // parametri
  78:src/syscall_cpp.cpp ****     uint64  a1, a2, a3, a5, a6, a7;
  79:src/syscall_cpp.cpp ****     a1 = (uint64)&myHandle;
  80:src/syscall_cpp.cpp ****     a2 = (uint64)&wrapper_run;
  81:src/syscall_cpp.cpp ****     a3 = (uint64)this;
  82:src/syscall_cpp.cpp ****     a6 = (uint64)false;
  83:src/syscall_cpp.cpp **** 
  84:src/syscall_cpp.cpp ****     a5 = a7 = 0;
  85:src/syscall_cpp.cpp **** 
  86:src/syscall_cpp.cpp ****     // void* pokazivac
  87:src/syscall_cpp.cpp ****     uint64 empty[8]= {a0, a1, a2, a3, a4, a5, a6, a7};
  88:src/syscall_cpp.cpp **** 
  89:src/syscall_cpp.cpp ****     // sistemski poziv
  90:src/syscall_cpp.cpp ****     abi::sys_call(reinterpret_cast<void *>(empty));
  91:src/syscall_cpp.cpp **** 
  92:src/syscall_cpp.cpp **** }
  93:src/syscall_cpp.cpp **** 
  94:src/syscall_cpp.cpp **** void Thread::wrapper_run(void* thread) {
  64              		.loc 2 94 40 is_stmt 1
  65              		.cfi_startproc
  66              	.LVL2:
  67 0000 130101FF 		addi	sp,sp,-16
  68              		.cfi_def_cfa_offset 16
GAS LISTING /tmp/ccZn8ma6.s 			page 5


  69 0004 23341100 		sd	ra,8(sp)
  70 0008 23308100 		sd	s0,0(sp)
  71              		.cfi_offset 1, -8
  72              		.cfi_offset 8, -16
  73 000c 13040101 		addi	s0,sp,16
  74              		.cfi_def_cfa 8, 0
  95:src/syscall_cpp.cpp ****     ((Thread*)(thread))->run();
  75              		.loc 2 95 5
  76              		.loc 2 95 30 is_stmt 0
  77 0010 83370500 		ld	a5,0(a0)
  78 0014 83B70701 		ld	a5,16(a5)
  79              		.loc 2 95 29
  80 0018 E7800700 		jalr	a5
  81              	.LVL3:
  96:src/syscall_cpp.cpp **** }
  82              		.loc 2 96 1
  83 001c 83308100 		ld	ra,8(sp)
  84              		.cfi_restore 1
  85 0020 03340100 		ld	s0,0(sp)
  86              		.cfi_restore 8
  87              		.cfi_def_cfa 2, 16
  88 0024 13010101 		addi	sp,sp,16
  89              		.cfi_def_cfa_offset 0
  90 0028 67800000 		jr	ra
  91              		.cfi_endproc
  92              	.LFE71:
  94              		.align	2
  95              		.globl	_ZN9SemaphoreD2Ev
  97              	_ZN9SemaphoreD2Ev:
  98              	.LFB76:
  97:src/syscall_cpp.cpp **** 
  98:src/syscall_cpp.cpp **** Semaphore::Semaphore(unsigned int init) {
  99:src/syscall_cpp.cpp ****     sem_open(&myHandle, init);
 100:src/syscall_cpp.cpp **** }
 101:src/syscall_cpp.cpp **** 
 102:src/syscall_cpp.cpp **** Semaphore::~Semaphore() {
  99              		.loc 2 102 1 is_stmt 1
 100              		.cfi_startproc
 101              		.cfi_personality 0x9b,DW.ref.__gxx_personality_v0
 102              		.cfi_lsda 0x1b,.LLSDA76
 103              	.LVL4:
 104 002c 130101FE 		addi	sp,sp,-32
 105              		.cfi_def_cfa_offset 32
 106 0030 233C1100 		sd	ra,24(sp)
 107 0034 23388100 		sd	s0,16(sp)
 108 0038 23349100 		sd	s1,8(sp)
 109              		.cfi_offset 1, -8
 110              		.cfi_offset 8, -16
 111              		.cfi_offset 9, -24
 112 003c 13040102 		addi	s0,sp,32
 113              		.cfi_def_cfa 8, 0
 114              	.LBB27:
 115              		.loc 2 102 23 is_stmt 0
 116 0040 97070000 		lla	a5,_ZTV9Semaphore+16
 116      93870700 
 117 0048 2330F500 		sd	a5,0(a0)
 103:src/syscall_cpp.cpp ****     delete (MySemaphore*)myHandle;
GAS LISTING /tmp/ccZn8ma6.s 			page 6


 118              		.loc 2 103 5 is_stmt 1
 119              		.loc 2 103 26 is_stmt 0
 120 004c 83348500 		ld	s1,8(a0)
 121              		.loc 2 103 34
 122 0050 63880402 		beqz	s1,.L7
 123              	.LVL5:
 124              	.LBB28:
 125              	.LBB29:
 126              		.file 3 "src/../h/semaphore.hpp"
   1:src/../h/semaphore.hpp **** #ifndef _semaphore_hpp_
   2:src/../h/semaphore.hpp **** #define _semaphore_hpp_
   3:src/../h/semaphore.hpp **** 
   4:src/../h/semaphore.hpp **** #include "../lib/hw.h"
   5:src/../h/semaphore.hpp **** #include "../h/MemoryAllocator.hpp"
   6:src/../h/semaphore.hpp **** 
   7:src/../h/semaphore.hpp **** class TCB;
   8:src/../h/semaphore.hpp **** 
   9:src/../h/semaphore.hpp **** class MySemaphore{
  10:src/../h/semaphore.hpp **** public:
  11:src/../h/semaphore.hpp **** 
  12:src/../h/semaphore.hpp ****     ~MySemaphore(){ sem_close(this);}
 127              		.loc 3 12 21 is_stmt 1
 128              		.loc 3 12 30 is_stmt 0
 129 0054 13850400 		mv	a0,s1
 130              	.LVL6:
 131 0058 97000000 		call	_ZN11MySemaphore9sem_closeEPS_@plt
 131      E7800000 
 132              	.LVL7:
 133              	.LBE29:
 134              	.LBE28:
 135              	.LBB30:
 136              	.LBB31:
  13:src/../h/semaphore.hpp **** 
  14:src/../h/semaphore.hpp ****     static int sem_open(
  15:src/../h/semaphore.hpp ****           MySemaphore** handle,
  16:src/../h/semaphore.hpp ****           uint64 init
  17:src/../h/semaphore.hpp ****           );
  18:src/../h/semaphore.hpp ****     static int sem_close(MySemaphore* handle);
  19:src/../h/semaphore.hpp ****     static int sem_wait(MySemaphore* id);
  20:src/../h/semaphore.hpp ****     static int sem_signal(MySemaphore* id);
  21:src/../h/semaphore.hpp **** 
  22:src/../h/semaphore.hpp ****     void put_in_blocked(TCB* tcb);
  23:src/../h/semaphore.hpp **** 
  24:src/../h/semaphore.hpp ****     TCB* get_from_blocked();
  25:src/../h/semaphore.hpp **** 
  26:src/../h/semaphore.hpp ****     void block();
  27:src/../h/semaphore.hpp **** 
  28:src/../h/semaphore.hpp ****     void unblock();
  29:src/../h/semaphore.hpp **** 
  30:src/../h/semaphore.hpp ****     // getteri i setteri
  31:src/../h/semaphore.hpp ****     bool get_indicator()const{ return indicator; }
  32:src/../h/semaphore.hpp ****     void set_indicator(bool v){ indicator = v; }
  33:src/../h/semaphore.hpp ****     int get_val()const{ return val; }
  34:src/../h/semaphore.hpp ****     void set_val(int v){ val = v; }
  35:src/../h/semaphore.hpp **** 
  36:src/../h/semaphore.hpp ****     // operatori
  37:src/../h/semaphore.hpp ****     void *operator new(uint64 n){
GAS LISTING /tmp/ccZn8ma6.s 			page 7


  38:src/../h/semaphore.hpp ****         uint64 ssize = (n + MEM_BLOCK_SIZE - 1) / MEM_BLOCK_SIZE;
  39:src/../h/semaphore.hpp ****         return MemoryAllocator::getInstance().memory_alloc(ssize);
  40:src/../h/semaphore.hpp ****     }
  41:src/../h/semaphore.hpp **** 
  42:src/../h/semaphore.hpp ****     void *operator new[](uint64 n){
  43:src/../h/semaphore.hpp ****         uint64 ssize = (n + MEM_BLOCK_SIZE - 1) / MEM_BLOCK_SIZE;
  44:src/../h/semaphore.hpp ****         return MemoryAllocator::getInstance().memory_alloc(ssize);
  45:src/../h/semaphore.hpp ****     }
  46:src/../h/semaphore.hpp **** 
  47:src/../h/semaphore.hpp ****     void operator delete(void* p)noexcept{
  48:src/../h/semaphore.hpp ****         MemoryAllocator::getInstance().memory_free(p);
 137              		.loc 3 48 9 is_stmt 1
 138              	.LBB32:
 139              	.LBB33:
 140              		.file 4 "src/../h/../h/../h/../h/MemoryAllocator.hpp"
   1:src/../h/../h/../h/../h/MemoryAllocator.hpp **** #ifndef _memory_allocator_hpp_
   2:src/../h/../h/../h/../h/MemoryAllocator.hpp **** #define _memory_allocator_hpp_
   3:src/../h/../h/../h/../h/MemoryAllocator.hpp **** 
   4:src/../h/../h/../h/../h/MemoryAllocator.hpp **** #include "../lib/hw.h"
   5:src/../h/../h/../h/../h/MemoryAllocator.hpp **** 
   6:src/../h/../h/../h/../h/MemoryAllocator.hpp **** class MemoryAllocator{
   7:src/../h/../h/../h/../h/MemoryAllocator.hpp **** public:
   8:src/../h/../h/../h/../h/MemoryAllocator.hpp **** 
   9:src/../h/../h/../h/../h/MemoryAllocator.hpp ****     // dodaj instancu
  10:src/../h/../h/../h/../h/MemoryAllocator.hpp ****     static MemoryAllocator& getInstance(){
  11:src/../h/../h/../h/../h/MemoryAllocator.hpp ****         static MemoryAllocator instance;
 141              		.loc 4 11 9
 142              		.loc 4 11 32 is_stmt 0
 143 0060 97070000 		lbu	a5,_ZGVZN15MemoryAllocator11getInstanceEvE8instance
 143      83C70700 
 144 0068 63860702 		beqz	a5,.L12
 145              	.L9:
  12:src/../h/../h/../h/../h/MemoryAllocator.hpp ****         return instance;
 146              		.loc 4 12 9 is_stmt 1
 147              	.LBE33:
 148              	.LBE32:
 149              		.loc 3 48 51 is_stmt 0
 150 006c 93850400 		mv	a1,s1
 151 0070 17050000 		lla	a0,_ZZN15MemoryAllocator11getInstanceEvE8instance
 151      13050500 
 152 0078 97000000 		call	_ZN15MemoryAllocator11memory_freeEPv@plt
 152      E7800000 
 153              	.LVL8:
 154              	.L7:
 155              	.LBE31:
 156              	.LBE30:
 157              	.LBE27:
 104:src/syscall_cpp.cpp **** }
 158              		.loc 2 104 1
 159 0080 83308101 		ld	ra,24(sp)
 160              		.cfi_remember_state
 161              		.cfi_restore 1
 162 0084 03340101 		ld	s0,16(sp)
 163              		.cfi_restore 8
 164              		.cfi_def_cfa 2, 32
 165 0088 83348100 		ld	s1,8(sp)
 166              		.cfi_restore 9
GAS LISTING /tmp/ccZn8ma6.s 			page 8


 167 008c 13010102 		addi	sp,sp,32
 168              		.cfi_def_cfa_offset 0
 169 0090 67800000 		jr	ra
 170              	.LVL9:
 171              	.L12:
 172              		.cfi_restore_state
 173              	.LBB42:
 174              	.LBB41:
 175              	.LBB40:
 176              	.LBB39:
 177              	.LBB38:
 178              	.LBB34:
 179              	.LBB35:
 180              	.LBB36:
  13:src/../h/../h/../h/../h/MemoryAllocator.hpp ****     }
  14:src/../h/../h/../h/../h/MemoryAllocator.hpp **** 
  15:src/../h/../h/../h/../h/MemoryAllocator.hpp ****     MemoryAllocator(const MemoryAllocator&) = delete;
  16:src/../h/../h/../h/../h/MemoryAllocator.hpp ****     void operator=(MemoryAllocator const&) = delete;
  17:src/../h/../h/../h/../h/MemoryAllocator.hpp **** 
  18:src/../h/../h/../h/../h/MemoryAllocator.hpp ****     void* memory_alloc (size_t);
  19:src/../h/../h/../h/../h/MemoryAllocator.hpp **** 
  20:src/../h/../h/../h/../h/MemoryAllocator.hpp ****     int memory_free (void*);
  21:src/../h/../h/../h/../h/MemoryAllocator.hpp ****     int get_mem_alloc_heap_start(){return this->heapStart;}
  22:src/../h/../h/../h/../h/MemoryAllocator.hpp ****     int get_mem_alloc_heap_end(){return this->heapEnd;}
  23:src/../h/../h/../h/../h/MemoryAllocator.hpp **** 
  24:src/../h/../h/../h/../h/MemoryAllocator.hpp **** private:
  25:src/../h/../h/../h/../h/MemoryAllocator.hpp **** 
  26:src/../h/../h/../h/../h/MemoryAllocator.hpp ****     struct FreeMem{
  27:src/../h/../h/../h/../h/MemoryAllocator.hpp ****         size_t size;
  28:src/../h/../h/../h/../h/MemoryAllocator.hpp ****         FreeMem* next;
  29:src/../h/../h/../h/../h/MemoryAllocator.hpp ****         FreeMem* prev;
  30:src/../h/../h/../h/../h/MemoryAllocator.hpp ****     };
  31:src/../h/../h/../h/../h/MemoryAllocator.hpp **** 
  32:src/../h/../h/../h/../h/MemoryAllocator.hpp ****     FreeMem* fmem_head = nullptr;
  33:src/../h/../h/../h/../h/MemoryAllocator.hpp ****     size_t heapStart;
  34:src/../h/../h/../h/../h/MemoryAllocator.hpp ****     size_t heapEnd;
  35:src/../h/../h/../h/../h/MemoryAllocator.hpp **** 
  36:src/../h/../h/../h/../h/MemoryAllocator.hpp ****     MemoryAllocator(){
 181              		.loc 4 36 22
 182 0094 17060000 		lla	a2,_ZZN15MemoryAllocator11getInstanceEvE8instance
 182      13060600 
 183              	.LBB37:
  37:src/../h/../h/../h/../h/MemoryAllocator.hpp **** 
  38:src/../h/../h/../h/../h/MemoryAllocator.hpp ****         heapStart = (size_t)HEAP_START_ADDR + ((size_t)HEAP_END_ADDR - (size_t)HEAP_START_ADDR) / 8
 184              		.loc 4 38 9 is_stmt 1
 185              		.loc 4 38 70 is_stmt 0
 186 009c 97070000 		la	a5,HEAP_END_ADDR
 186      83B70700 
 187 00a4 03B70700 		ld	a4,0(a5)
 188 00a8 97070000 		la	a5,HEAP_START_ADDR
 188      83B70700 
 189 00b0 83B70700 		ld	a5,0(a5)
 190 00b4 B306F740 		sub	a3,a4,a5
 191              		.loc 4 38 97
 192 00b8 93D63600 		srli	a3,a3,3
 193              		.loc 4 38 45
 194 00bc B387D700 		add	a5,a5,a3
GAS LISTING /tmp/ccZn8ma6.s 			page 9


 195              		.loc 4 38 101
 196 00c0 93871700 		addi	a5,a5,1
 197              		.loc 4 38 19
 198 00c4 2334F600 		sd	a5,8(a2)
  39:src/../h/../h/../h/../h/MemoryAllocator.hpp ****         heapEnd = (size_t)HEAP_END_ADDR - 1;
 199              		.loc 4 39 9 is_stmt 1
 200              		.loc 4 39 41 is_stmt 0
 201 00c8 1307F7FF 		addi	a4,a4,-1
 202              		.loc 4 39 17
 203 00cc 2338E600 		sd	a4,16(a2)
  40:src/../h/../h/../h/../h/MemoryAllocator.hpp **** 
  41:src/../h/../h/../h/../h/MemoryAllocator.hpp ****         // poravnaj na prvu krstenu adresu
  42:src/../h/../h/../h/../h/MemoryAllocator.hpp ****         fmem_head = (FreeMem*)(heapStart + ((heapStart % MEM_BLOCK_SIZE != 0)?(MEM_BLOCK_SIZE - hea
 204              		.loc 4 42 9 is_stmt 1
 205              		.loc 4 42 56 is_stmt 0
 206 00d0 93F6F703 		andi	a3,a5,63
 207              		.loc 4 42 78
 208 00d4 63860600 		beqz	a3,.L10
 209 00d8 13060004 		li	a2,64
 210 00dc B306D640 		sub	a3,a2,a3
 211              	.L10:
 212              		.loc 4 42 42
 213 00e0 B387D700 		add	a5,a5,a3
 214              		.loc 4 42 19
 215 00e4 97060000 		sd	a5,_ZZN15MemoryAllocator11getInstanceEvE8instance,a3
 215      23B0F600 
  43:src/../h/../h/../h/../h/MemoryAllocator.hpp **** 
  44:src/../h/../h/../h/../h/MemoryAllocator.hpp ****         size_t sizeInBlocks = (heapEnd - (size_t)fmem_head) / MEM_BLOCK_SIZE;
 216              		.loc 4 44 9 is_stmt 1
 217              		.loc 4 44 40 is_stmt 0
 218 00ec 3307F740 		sub	a4,a4,a5
 219              		.loc 4 44 16
 220 00f0 13576700 		srli	a4,a4,6
 221              	.LVL10:
  45:src/../h/../h/../h/../h/MemoryAllocator.hpp **** 
  46:src/../h/../h/../h/../h/MemoryAllocator.hpp ****         // napravi node
  47:src/../h/../h/../h/../h/MemoryAllocator.hpp **** 
  48:src/../h/../h/../h/../h/MemoryAllocator.hpp ****         fmem_head->next = nullptr;
 222              		.loc 4 48 9 is_stmt 1
 223              		.loc 4 48 25 is_stmt 0
 224 00f4 23B40700 		sd	zero,8(a5)
  49:src/../h/../h/../h/../h/MemoryAllocator.hpp ****         fmem_head->prev = nullptr;
 225              		.loc 4 49 9 is_stmt 1
 226              		.loc 4 49 25 is_stmt 0
 227 00f8 23B80700 		sd	zero,16(a5)
  50:src/../h/../h/../h/../h/MemoryAllocator.hpp ****         fmem_head->size = sizeInBlocks;
 228              		.loc 4 50 9 is_stmt 1
 229              		.loc 4 50 25 is_stmt 0
 230 00fc 23B0E700 		sd	a4,0(a5)
 231              	.LVL11:
 232              	.LBE37:
 233              	.LBE36:
 234              	.LBE35:
 235              	.LBE34:
  11:src/../h/../h/../h/../h/MemoryAllocator.hpp ****         return instance;
 236              		.loc 4 11 32
 237 0100 93071000 		li	a5,1
GAS LISTING /tmp/ccZn8ma6.s 			page 10


 238 0104 17070000 		sb	a5,_ZGVZN15MemoryAllocator11getInstanceEvE8instance,a4
 238      2300F700 
 239 010c 6FF01FF6 		j	.L9
 240              	.LBE38:
 241              	.LBE39:
 242              	.LBE40:
 243              	.LBE41:
 244              	.LBE42:
 245              		.cfi_endproc
 246              	.LFE76:
 247              		.globl	__gxx_personality_v0
 248              		.section	.gcc_except_table,"a",@progbits
 249              	.LLSDA76:
 250 0000 FF       		.byte	0xff
 251 0001 FF       		.byte	0xff
 252 0002 03       		.byte	0x3
 253 0003 00       		.byte	0
 254              		.text
 256              		.globl	_ZN9SemaphoreD1Ev
 257              		.set	_ZN9SemaphoreD1Ev,_ZN9SemaphoreD2Ev
 258              		.align	2
 259              		.globl	_ZN6ThreadD2Ev
 261              	_ZN6ThreadD2Ev:
 262              	.LFB62:
  54:src/syscall_cpp.cpp ****     delete (TCB*)(myHandle);
 263              		.loc 2 54 1 is_stmt 1
 264              		.cfi_startproc
 265              		.cfi_personality 0x9b,DW.ref.__gxx_personality_v0
 266              		.cfi_lsda 0x1b,.LLSDA62
 267              	.LVL12:
 268 0110 130101FE 		addi	sp,sp,-32
 269              		.cfi_def_cfa_offset 32
 270 0114 233C1100 		sd	ra,24(sp)
 271 0118 23388100 		sd	s0,16(sp)
 272 011c 23349100 		sd	s1,8(sp)
 273              		.cfi_offset 1, -8
 274              		.cfi_offset 8, -16
 275              		.cfi_offset 9, -24
 276 0120 13040102 		addi	s0,sp,32
 277              		.cfi_def_cfa 8, 0
 278              	.LBB61:
  54:src/syscall_cpp.cpp ****     delete (TCB*)(myHandle);
 279              		.loc 2 54 17 is_stmt 0
 280 0124 97070000 		lla	a5,_ZTV6Thread+16
 280      93870700 
 281 012c 2330F500 		sd	a5,0(a0)
  55:src/syscall_cpp.cpp **** }
 282              		.loc 2 55 5 is_stmt 1
  55:src/syscall_cpp.cpp **** }
 283              		.loc 2 55 19 is_stmt 0
 284 0130 83348500 		ld	s1,8(a0)
  55:src/syscall_cpp.cpp **** }
 285              		.loc 2 55 28
 286 0134 63820404 		beqz	s1,.L13
 287              	.LVL13:
 288              	.LBB62:
 289              	.LBB63:
GAS LISTING /tmp/ccZn8ma6.s 			page 11


 290              		.file 5 "src/../h/../h/../h/../h/TCB.hpp"
   1:src/../h/../h/../h/../h/TCB.hpp **** #ifndef _thread_hpp_
   2:src/../h/../h/../h/../h/TCB.hpp **** #define _thread_hpp_
   3:src/../h/../h/../h/../h/TCB.hpp **** 
   4:src/../h/../h/../h/../h/TCB.hpp **** #include "../lib/hw.h"
   5:src/../h/../h/../h/../h/TCB.hpp **** #include "../h/scheduler.hpp"
   6:src/../h/../h/../h/../h/TCB.hpp **** #include "../h/MemoryAllocator.hpp"
   7:src/../h/../h/../h/../h/TCB.hpp **** #include "../h/TS.hpp"
   8:src/../h/../h/../h/../h/TCB.hpp **** #include "../h/periodic_threads.hpp"
   9:src/../h/../h/../h/../h/TCB.hpp **** 
  10:src/../h/../h/../h/../h/TCB.hpp **** class TCB{
  11:src/../h/../h/../h/../h/TCB.hpp **** public:
  12:src/../h/../h/../h/../h/TCB.hpp **** 
  13:src/../h/../h/../h/../h/TCB.hpp ****     ~TCB(){
  14:src/../h/../h/../h/../h/TCB.hpp ****         MemoryAllocator::getInstance().memory_free((void*)stack);
 291              		.loc 5 14 9 is_stmt 1
 292              	.LBB64:
 293              	.LBB65:
  11:src/../h/../h/../h/../h/MemoryAllocator.hpp ****         return instance;
 294              		.loc 4 11 9
  11:src/../h/../h/../h/../h/MemoryAllocator.hpp ****         return instance;
 295              		.loc 4 11 32 is_stmt 0
 296 0138 97070000 		lbu	a5,_ZGVZN15MemoryAllocator11getInstanceEvE8instance
 296      83C70700 
 297 0140 63860704 		beqz	a5,.L20
 298              	.L15:
  12:src/../h/../h/../h/../h/MemoryAllocator.hpp ****     }
 299              		.loc 4 12 9 is_stmt 1
 300              	.LBE65:
 301              	.LBE64:
 302              		.loc 5 14 51 is_stmt 0
 303 0144 83B50401 		ld	a1,16(s1)
 304 0148 17050000 		lla	a0,_ZZN15MemoryAllocator11getInstanceEvE8instance
 304      13050500 
 305              	.LVL14:
 306 0150 97000000 		call	_ZN15MemoryAllocator11memory_freeEPv@plt
 306      E7800000 
 307              	.LVL15:
 308              	.LBE63:
 309              	.LBE62:
 310              	.LBB73:
 311              	.LBB74:
  15:src/../h/../h/../h/../h/TCB.hpp ****     }
  16:src/../h/../h/../h/../h/TCB.hpp **** 
  17:src/../h/../h/../h/../h/TCB.hpp ****     using Body = void (*)(void*);
  18:src/../h/../h/../h/../h/TCB.hpp **** 
  19:src/../h/../h/../h/../h/TCB.hpp ****     // trazene
  20:src/../h/../h/../h/../h/TCB.hpp ****     static int thread_create(
  21:src/../h/../h/../h/../h/TCB.hpp ****         TCB** handle,
  22:src/../h/../h/../h/../h/TCB.hpp ****         void(*start_routine)(void*),
  23:src/../h/../h/../h/../h/TCB.hpp ****         void* arg,
  24:src/../h/../h/../h/../h/TCB.hpp ****         void* stack_space,
  25:src/../h/../h/../h/../h/TCB.hpp ****         bool flag
  26:src/../h/../h/../h/../h/TCB.hpp ****     );
  27:src/../h/../h/../h/../h/TCB.hpp **** 
  28:src/../h/../h/../h/../h/TCB.hpp ****     static int thread_exit();
  29:src/../h/../h/../h/../h/TCB.hpp **** 
GAS LISTING /tmp/ccZn8ma6.s 			page 12


  30:src/../h/../h/../h/../h/TCB.hpp ****     static void thread_dispatch();
  31:src/../h/../h/../h/../h/TCB.hpp **** 
  32:src/../h/../h/../h/../h/TCB.hpp ****     static int time_sleep(uint64 time);
  33:src/../h/../h/../h/../h/TCB.hpp **** 
  34:src/../h/../h/../h/../h/TCB.hpp ****     // getteri i setteri
  35:src/../h/../h/../h/../h/TCB.hpp ****     void set_finished(bool f){ this->finished = f; }
  36:src/../h/../h/../h/../h/TCB.hpp **** 
  37:src/../h/../h/../h/../h/TCB.hpp ****     bool is_finished()const{return finished;}
  38:src/../h/../h/../h/../h/TCB.hpp **** 
  39:src/../h/../h/../h/../h/TCB.hpp ****     void set_next_scheduler(TCB* nextThread){ next_scheduler = nextThread; }
  40:src/../h/../h/../h/../h/TCB.hpp **** 
  41:src/../h/../h/../h/../h/TCB.hpp ****     TCB* get_next_scheduler()const{ return next_scheduler; }
  42:src/../h/../h/../h/../h/TCB.hpp **** 
  43:src/../h/../h/../h/../h/TCB.hpp ****     void set_next_sleep(TCB* nextThread){ next_sleep = nextThread; }
  44:src/../h/../h/../h/../h/TCB.hpp **** 
  45:src/../h/../h/../h/../h/TCB.hpp ****     TCB* get_next_sleep()const{ return next_sleep; }
  46:src/../h/../h/../h/../h/TCB.hpp **** 
  47:src/../h/../h/../h/../h/TCB.hpp ****     void set_next_blocked(TCB* nextThread){ next_blocked = nextThread; }
  48:src/../h/../h/../h/../h/TCB.hpp **** 
  49:src/../h/../h/../h/../h/TCB.hpp ****     TCB* get_next_blocked()const{ return next_blocked; }
  50:src/../h/../h/../h/../h/TCB.hpp **** 
  51:src/../h/../h/../h/../h/TCB.hpp ****     uint64 get_thread_id()const{ return id; }
  52:src/../h/../h/../h/../h/TCB.hpp **** 
  53:src/../h/../h/../h/../h/TCB.hpp ****     uint64 get_time_sleep()const{ return sleep; }
  54:src/../h/../h/../h/../h/TCB.hpp **** 
  55:src/../h/../h/../h/../h/TCB.hpp ****     void set_time_sleep(uint64 new_time){ sleep = new_time; }
  56:src/../h/../h/../h/../h/TCB.hpp **** 
  57:src/../h/../h/../h/../h/TCB.hpp ****     uint64 get_time_slice()const{ return time_slice; }
  58:src/../h/../h/../h/../h/TCB.hpp **** 
  59:src/../h/../h/../h/../h/TCB.hpp ****     void set_periodic(bool b){
  60:src/../h/../h/../h/../h/TCB.hpp ****         periodic = b;
  61:src/../h/../h/../h/../h/TCB.hpp ****         periodicThread::getInstance().put(this);
  62:src/../h/../h/../h/../h/TCB.hpp ****     }
  63:src/../h/../h/../h/../h/TCB.hpp **** 
  64:src/../h/../h/../h/../h/TCB.hpp ****     void set_next_period(TCB* tcb){ next_period = tcb; }
  65:src/../h/../h/../h/../h/TCB.hpp **** 
  66:src/../h/../h/../h/../h/TCB.hpp ****     TCB* get_next_period()const{return next_period;}
  67:src/../h/../h/../h/../h/TCB.hpp **** 
  68:src/../h/../h/../h/../h/TCB.hpp ****     static void yield();
  69:src/../h/../h/../h/../h/TCB.hpp **** 
  70:src/../h/../h/../h/../h/TCB.hpp ****     // operatori
  71:src/../h/../h/../h/../h/TCB.hpp ****     void *operator new(uint64 n){
  72:src/../h/../h/../h/../h/TCB.hpp ****         uint64 ssize = (n + MEM_BLOCK_SIZE - 1) / MEM_BLOCK_SIZE;
  73:src/../h/../h/../h/../h/TCB.hpp ****         return MemoryAllocator::getInstance().memory_alloc(ssize);
  74:src/../h/../h/../h/../h/TCB.hpp ****     }
  75:src/../h/../h/../h/../h/TCB.hpp **** 
  76:src/../h/../h/../h/../h/TCB.hpp ****     void *operator new[](uint64 n){
  77:src/../h/../h/../h/../h/TCB.hpp ****         uint64 ssize = (n + MEM_BLOCK_SIZE - 1) / MEM_BLOCK_SIZE;
  78:src/../h/../h/../h/../h/TCB.hpp ****         return MemoryAllocator::getInstance().memory_alloc(ssize);
  79:src/../h/../h/../h/../h/TCB.hpp ****     }
  80:src/../h/../h/../h/../h/TCB.hpp **** 
  81:src/../h/../h/../h/../h/TCB.hpp ****     void operator delete(void* p)noexcept{
  82:src/../h/../h/../h/../h/TCB.hpp ****         MemoryAllocator::getInstance().memory_free(p);
 312              		.loc 5 82 9 is_stmt 1
 313              	.LBB75:
 314              	.LBB76:
  11:src/../h/../h/../h/../h/MemoryAllocator.hpp ****         return instance;
GAS LISTING /tmp/ccZn8ma6.s 			page 13


 315              		.loc 4 11 9
  11:src/../h/../h/../h/../h/MemoryAllocator.hpp ****         return instance;
 316              		.loc 4 11 32 is_stmt 0
 317 0158 97070000 		lbu	a5,_ZGVZN15MemoryAllocator11getInstanceEvE8instance
 317      83C70700 
 318 0160 6384070A 		beqz	a5,.L21
 319              	.L17:
  12:src/../h/../h/../h/../h/MemoryAllocator.hpp ****     }
 320              		.loc 4 12 9 is_stmt 1
 321              	.LBE76:
 322              	.LBE75:
 323              		.loc 5 82 51 is_stmt 0
 324 0164 93850400 		mv	a1,s1
 325 0168 17050000 		lla	a0,_ZZN15MemoryAllocator11getInstanceEvE8instance
 325      13050500 
 326 0170 97000000 		call	_ZN15MemoryAllocator11memory_freeEPv@plt
 326      E7800000 
 327              	.LVL16:
 328              	.L13:
 329              	.LBE74:
 330              	.LBE73:
 331              	.LBE61:
  56:src/syscall_cpp.cpp **** 
 332              		.loc 2 56 1
 333 0178 83308101 		ld	ra,24(sp)
 334              		.cfi_remember_state
 335              		.cfi_restore 1
 336 017c 03340101 		ld	s0,16(sp)
 337              		.cfi_restore 8
 338              		.cfi_def_cfa 2, 32
 339 0180 83348100 		ld	s1,8(sp)
 340              		.cfi_restore 9
 341 0184 13010102 		addi	sp,sp,32
 342              		.cfi_def_cfa_offset 0
 343 0188 67800000 		jr	ra
 344              	.LVL17:
 345              	.L20:
 346              		.cfi_restore_state
 347              	.LBB86:
 348              	.LBB84:
 349              	.LBB72:
 350              	.LBB71:
 351              	.LBB70:
 352              	.LBB66:
 353              	.LBB67:
 354              	.LBB68:
  36:src/../h/../h/../h/../h/MemoryAllocator.hpp **** 
 355              		.loc 4 36 22
 356 018c 17060000 		lla	a2,_ZZN15MemoryAllocator11getInstanceEvE8instance
 356      13060600 
 357              	.LBB69:
  38:src/../h/../h/../h/../h/MemoryAllocator.hpp ****         heapEnd = (size_t)HEAP_END_ADDR - 1;
 358              		.loc 4 38 9 is_stmt 1
  38:src/../h/../h/../h/../h/MemoryAllocator.hpp ****         heapEnd = (size_t)HEAP_END_ADDR - 1;
 359              		.loc 4 38 70 is_stmt 0
 360 0194 97070000 		la	a5,HEAP_END_ADDR
 360      83B70700 
GAS LISTING /tmp/ccZn8ma6.s 			page 14


 361 019c 03B70700 		ld	a4,0(a5)
 362 01a0 97070000 		la	a5,HEAP_START_ADDR
 362      83B70700 
 363 01a8 83B70700 		ld	a5,0(a5)
 364 01ac B306F740 		sub	a3,a4,a5
  38:src/../h/../h/../h/../h/MemoryAllocator.hpp ****         heapEnd = (size_t)HEAP_END_ADDR - 1;
 365              		.loc 4 38 97
 366 01b0 93D63600 		srli	a3,a3,3
  38:src/../h/../h/../h/../h/MemoryAllocator.hpp ****         heapEnd = (size_t)HEAP_END_ADDR - 1;
 367              		.loc 4 38 45
 368 01b4 B387D700 		add	a5,a5,a3
  38:src/../h/../h/../h/../h/MemoryAllocator.hpp ****         heapEnd = (size_t)HEAP_END_ADDR - 1;
 369              		.loc 4 38 101
 370 01b8 93871700 		addi	a5,a5,1
  38:src/../h/../h/../h/../h/MemoryAllocator.hpp ****         heapEnd = (size_t)HEAP_END_ADDR - 1;
 371              		.loc 4 38 19
 372 01bc 2334F600 		sd	a5,8(a2)
  39:src/../h/../h/../h/../h/MemoryAllocator.hpp **** 
 373              		.loc 4 39 9 is_stmt 1
  39:src/../h/../h/../h/../h/MemoryAllocator.hpp **** 
 374              		.loc 4 39 41 is_stmt 0
 375 01c0 1307F7FF 		addi	a4,a4,-1
  39:src/../h/../h/../h/../h/MemoryAllocator.hpp **** 
 376              		.loc 4 39 17
 377 01c4 2338E600 		sd	a4,16(a2)
  42:src/../h/../h/../h/../h/MemoryAllocator.hpp **** 
 378              		.loc 4 42 9 is_stmt 1
  42:src/../h/../h/../h/../h/MemoryAllocator.hpp **** 
 379              		.loc 4 42 56 is_stmt 0
 380 01c8 93F6F703 		andi	a3,a5,63
  42:src/../h/../h/../h/../h/MemoryAllocator.hpp **** 
 381              		.loc 4 42 78
 382 01cc 63860600 		beqz	a3,.L16
 383 01d0 13060004 		li	a2,64
 384 01d4 B306D640 		sub	a3,a2,a3
 385              	.L16:
  42:src/../h/../h/../h/../h/MemoryAllocator.hpp **** 
 386              		.loc 4 42 42
 387 01d8 B387D700 		add	a5,a5,a3
  42:src/../h/../h/../h/../h/MemoryAllocator.hpp **** 
 388              		.loc 4 42 19
 389 01dc 97060000 		sd	a5,_ZZN15MemoryAllocator11getInstanceEvE8instance,a3
 389      23B0F600 
  44:src/../h/../h/../h/../h/MemoryAllocator.hpp **** 
 390              		.loc 4 44 9 is_stmt 1
  44:src/../h/../h/../h/../h/MemoryAllocator.hpp **** 
 391              		.loc 4 44 40 is_stmt 0
 392 01e4 3307F740 		sub	a4,a4,a5
  44:src/../h/../h/../h/../h/MemoryAllocator.hpp **** 
 393              		.loc 4 44 16
 394 01e8 13576700 		srli	a4,a4,6
 395              	.LVL18:
  48:src/../h/../h/../h/../h/MemoryAllocator.hpp ****         fmem_head->prev = nullptr;
 396              		.loc 4 48 9 is_stmt 1
  48:src/../h/../h/../h/../h/MemoryAllocator.hpp ****         fmem_head->prev = nullptr;
 397              		.loc 4 48 25 is_stmt 0
 398 01ec 23B40700 		sd	zero,8(a5)
GAS LISTING /tmp/ccZn8ma6.s 			page 15


  49:src/../h/../h/../h/../h/MemoryAllocator.hpp ****         fmem_head->size = sizeInBlocks;
 399              		.loc 4 49 9 is_stmt 1
  49:src/../h/../h/../h/../h/MemoryAllocator.hpp ****         fmem_head->size = sizeInBlocks;
 400              		.loc 4 49 25 is_stmt 0
 401 01f0 23B80700 		sd	zero,16(a5)
 402              		.loc 4 50 9 is_stmt 1
 403              		.loc 4 50 25 is_stmt 0
 404 01f4 23B0E700 		sd	a4,0(a5)
 405              	.LVL19:
 406              	.LBE69:
 407              	.LBE68:
 408              	.LBE67:
 409              	.LBE66:
  11:src/../h/../h/../h/../h/MemoryAllocator.hpp ****         return instance;
 410              		.loc 4 11 32
 411 01f8 93071000 		li	a5,1
 412 01fc 17070000 		sb	a5,_ZGVZN15MemoryAllocator11getInstanceEvE8instance,a4
 412      2300F700 
 413 0204 6FF01FF4 		j	.L15
 414              	.LVL20:
 415              	.L21:
 416              	.LBE70:
 417              	.LBE71:
 418              	.LBE72:
 419              	.LBE84:
 420              	.LBB85:
 421              	.LBB83:
 422              	.LBB82:
 423              	.LBB81:
 424              	.LBB77:
 425              	.LBB78:
 426              	.LBB79:
  36:src/../h/../h/../h/../h/MemoryAllocator.hpp **** 
 427              		.loc 4 36 22
 428 0208 17060000 		lla	a2,_ZZN15MemoryAllocator11getInstanceEvE8instance
 428      13060600 
 429              	.LBB80:
  38:src/../h/../h/../h/../h/MemoryAllocator.hpp ****         heapEnd = (size_t)HEAP_END_ADDR - 1;
 430              		.loc 4 38 9 is_stmt 1
  38:src/../h/../h/../h/../h/MemoryAllocator.hpp ****         heapEnd = (size_t)HEAP_END_ADDR - 1;
 431              		.loc 4 38 70 is_stmt 0
 432 0210 97070000 		la	a5,HEAP_END_ADDR
 432      83B70700 
 433 0218 03B70700 		ld	a4,0(a5)
 434 021c 97070000 		la	a5,HEAP_START_ADDR
 434      83B70700 
 435 0224 83B70700 		ld	a5,0(a5)
 436 0228 B306F740 		sub	a3,a4,a5
  38:src/../h/../h/../h/../h/MemoryAllocator.hpp ****         heapEnd = (size_t)HEAP_END_ADDR - 1;
 437              		.loc 4 38 97
 438 022c 93D63600 		srli	a3,a3,3
  38:src/../h/../h/../h/../h/MemoryAllocator.hpp ****         heapEnd = (size_t)HEAP_END_ADDR - 1;
 439              		.loc 4 38 45
 440 0230 B387D700 		add	a5,a5,a3
  38:src/../h/../h/../h/../h/MemoryAllocator.hpp ****         heapEnd = (size_t)HEAP_END_ADDR - 1;
 441              		.loc 4 38 101
 442 0234 93871700 		addi	a5,a5,1
GAS LISTING /tmp/ccZn8ma6.s 			page 16


  38:src/../h/../h/../h/../h/MemoryAllocator.hpp ****         heapEnd = (size_t)HEAP_END_ADDR - 1;
 443              		.loc 4 38 19
 444 0238 2334F600 		sd	a5,8(a2)
  39:src/../h/../h/../h/../h/MemoryAllocator.hpp **** 
 445              		.loc 4 39 9 is_stmt 1
  39:src/../h/../h/../h/../h/MemoryAllocator.hpp **** 
 446              		.loc 4 39 41 is_stmt 0
 447 023c 1307F7FF 		addi	a4,a4,-1
  39:src/../h/../h/../h/../h/MemoryAllocator.hpp **** 
 448              		.loc 4 39 17
 449 0240 2338E600 		sd	a4,16(a2)
  42:src/../h/../h/../h/../h/MemoryAllocator.hpp **** 
 450              		.loc 4 42 9 is_stmt 1
  42:src/../h/../h/../h/../h/MemoryAllocator.hpp **** 
 451              		.loc 4 42 56 is_stmt 0
 452 0244 93F6F703 		andi	a3,a5,63
  42:src/../h/../h/../h/../h/MemoryAllocator.hpp **** 
 453              		.loc 4 42 78
 454 0248 63860600 		beqz	a3,.L18
 455 024c 13060004 		li	a2,64
 456 0250 B306D640 		sub	a3,a2,a3
 457              	.L18:
  42:src/../h/../h/../h/../h/MemoryAllocator.hpp **** 
 458              		.loc 4 42 42
 459 0254 B387D700 		add	a5,a5,a3
  42:src/../h/../h/../h/../h/MemoryAllocator.hpp **** 
 460              		.loc 4 42 19
 461 0258 97060000 		sd	a5,_ZZN15MemoryAllocator11getInstanceEvE8instance,a3
 461      23B0F600 
  44:src/../h/../h/../h/../h/MemoryAllocator.hpp **** 
 462              		.loc 4 44 9 is_stmt 1
  44:src/../h/../h/../h/../h/MemoryAllocator.hpp **** 
 463              		.loc 4 44 40 is_stmt 0
 464 0260 3307F740 		sub	a4,a4,a5
  44:src/../h/../h/../h/../h/MemoryAllocator.hpp **** 
 465              		.loc 4 44 16
 466 0264 13576700 		srli	a4,a4,6
 467              	.LVL21:
  48:src/../h/../h/../h/../h/MemoryAllocator.hpp ****         fmem_head->prev = nullptr;
 468              		.loc 4 48 9 is_stmt 1
  48:src/../h/../h/../h/../h/MemoryAllocator.hpp ****         fmem_head->prev = nullptr;
 469              		.loc 4 48 25 is_stmt 0
 470 0268 23B40700 		sd	zero,8(a5)
  49:src/../h/../h/../h/../h/MemoryAllocator.hpp ****         fmem_head->size = sizeInBlocks;
 471              		.loc 4 49 9 is_stmt 1
  49:src/../h/../h/../h/../h/MemoryAllocator.hpp ****         fmem_head->size = sizeInBlocks;
 472              		.loc 4 49 25 is_stmt 0
 473 026c 23B80700 		sd	zero,16(a5)
 474              		.loc 4 50 9 is_stmt 1
 475              		.loc 4 50 25 is_stmt 0
 476 0270 23B0E700 		sd	a4,0(a5)
 477              	.LVL22:
 478              	.LBE80:
 479              	.LBE79:
 480              	.LBE78:
 481              	.LBE77:
  11:src/../h/../h/../h/../h/MemoryAllocator.hpp ****         return instance;
GAS LISTING /tmp/ccZn8ma6.s 			page 17


 482              		.loc 4 11 32
 483 0274 93071000 		li	a5,1
 484 0278 17070000 		sb	a5,_ZGVZN15MemoryAllocator11getInstanceEvE8instance,a4
 484      2300F700 
 485 0280 6FF05FEE 		j	.L17
 486              	.LBE81:
 487              	.LBE82:
 488              	.LBE83:
 489              	.LBE85:
 490              	.LBE86:
 491              		.cfi_endproc
 492              	.LFE62:
 493              		.section	.gcc_except_table
 494              	.LLSDA62:
 495 0004 FF       		.byte	0xff
 496 0005 FF       		.byte	0xff
 497 0006 03       		.byte	0x3
 498 0007 00       		.byte	0
 499              		.text
 501              		.globl	_ZN6ThreadD1Ev
 502              		.set	_ZN6ThreadD1Ev,_ZN6ThreadD2Ev
 503              		.section	.text._ZN14PeriodicThreadD2Ev,"axG",@progbits,_ZN14PeriodicThreadD5Ev,comdat
 504              		.align	2
 505              		.weak	_ZN14PeriodicThreadD2Ev
 507              	_ZN14PeriodicThreadD2Ev:
 508              	.LFB88:
  65:src/../h/syscall_cpp.hpp **** public:
 509              		.loc 1 65 7 is_stmt 1
 510              		.cfi_startproc
 511              	.LVL23:
 512 0000 130101FF 		addi	sp,sp,-16
 513              		.cfi_def_cfa_offset 16
 514 0004 23341100 		sd	ra,8(sp)
 515 0008 23308100 		sd	s0,0(sp)
 516              		.cfi_offset 1, -8
 517              		.cfi_offset 8, -16
 518 000c 13040101 		addi	s0,sp,16
 519              		.cfi_def_cfa 8, 0
 520              	.LBB87:
  65:src/../h/syscall_cpp.hpp **** public:
 521              		.loc 1 65 7 is_stmt 0
 522 0010 97070000 		lla	a5,_ZTV14PeriodicThread+16
 522      93870700 
 523 0018 2330F500 		sd	a5,0(a0)
 524 001c 97000000 		call	_ZN6ThreadD2Ev
 524      E7800000 
 525              	.LVL24:
 526              	.LBE87:
 527 0024 83308100 		ld	ra,8(sp)
 528              		.cfi_restore 1
 529 0028 03340100 		ld	s0,0(sp)
 530              		.cfi_restore 8
 531              		.cfi_def_cfa 2, 16
 532 002c 13010101 		addi	sp,sp,16
 533              		.cfi_def_cfa_offset 0
 534 0030 67800000 		jr	ra
 535              		.cfi_endproc
GAS LISTING /tmp/ccZn8ma6.s 			page 18


 536              	.LFE88:
 538              		.weak	_ZN14PeriodicThreadD1Ev
 539              		.set	_ZN14PeriodicThreadD1Ev,_ZN14PeriodicThreadD2Ev
 540              		.text
 541              		.align	2
 542              		.globl	_Znwm
 544              	_Znwm:
 545              	.LFB54:
   7:src/syscall_cpp.cpp ****     return mem_alloc(n);
 546              		.loc 2 7 30 is_stmt 1
 547              		.cfi_startproc
 548              	.LVL25:
 549 0284 130101FF 		addi	sp,sp,-16
 550              		.cfi_def_cfa_offset 16
 551 0288 23341100 		sd	ra,8(sp)
 552 028c 23308100 		sd	s0,0(sp)
 553              		.cfi_offset 1, -8
 554              		.cfi_offset 8, -16
 555 0290 13040101 		addi	s0,sp,16
 556              		.cfi_def_cfa 8, 0
   8:src/syscall_cpp.cpp **** }
 557              		.loc 2 8 5
   8:src/syscall_cpp.cpp **** }
 558              		.loc 2 8 21 is_stmt 0
 559 0294 97000000 		call	mem_alloc@plt
 559      E7800000 
 560              	.LVL26:
   9:src/syscall_cpp.cpp **** 
 561              		.loc 2 9 1
 562 029c 83308100 		ld	ra,8(sp)
 563              		.cfi_restore 1
 564 02a0 03340100 		ld	s0,0(sp)
 565              		.cfi_restore 8
 566              		.cfi_def_cfa 2, 16
 567 02a4 13010101 		addi	sp,sp,16
 568              		.cfi_def_cfa_offset 0
 569 02a8 67800000 		jr	ra
 570              		.cfi_endproc
 571              	.LFE54:
 573              		.align	2
 574              		.globl	_Znam
 576              	_Znam:
 577              	.LFB55:
  11:src/syscall_cpp.cpp ****     return mem_alloc(n);
 578              		.loc 2 11 32 is_stmt 1
 579              		.cfi_startproc
 580              	.LVL27:
 581 02ac 130101FF 		addi	sp,sp,-16
 582              		.cfi_def_cfa_offset 16
 583 02b0 23341100 		sd	ra,8(sp)
 584 02b4 23308100 		sd	s0,0(sp)
 585              		.cfi_offset 1, -8
 586              		.cfi_offset 8, -16
 587 02b8 13040101 		addi	s0,sp,16
 588              		.cfi_def_cfa 8, 0
  12:src/syscall_cpp.cpp **** }
 589              		.loc 2 12 5
GAS LISTING /tmp/ccZn8ma6.s 			page 19


  12:src/syscall_cpp.cpp **** }
 590              		.loc 2 12 21 is_stmt 0
 591 02bc 97000000 		call	mem_alloc@plt
 591      E7800000 
 592              	.LVL28:
  13:src/syscall_cpp.cpp **** 
 593              		.loc 2 13 1
 594 02c4 83308100 		ld	ra,8(sp)
 595              		.cfi_restore 1
 596 02c8 03340100 		ld	s0,0(sp)
 597              		.cfi_restore 8
 598              		.cfi_def_cfa 2, 16
 599 02cc 13010101 		addi	sp,sp,16
 600              		.cfi_def_cfa_offset 0
 601 02d0 67800000 		jr	ra
 602              		.cfi_endproc
 603              	.LFE55:
 605              		.align	2
 606              		.globl	_ZdlPv
 608              	_ZdlPv:
 609              	.LFB56:
  15:src/syscall_cpp.cpp ****     mem_free(ptr);
 610              		.loc 2 15 33 is_stmt 1
 611              		.cfi_startproc
 612              	.LVL29:
 613 02d4 130101FF 		addi	sp,sp,-16
 614              		.cfi_def_cfa_offset 16
 615 02d8 23341100 		sd	ra,8(sp)
 616 02dc 23308100 		sd	s0,0(sp)
 617              		.cfi_offset 1, -8
 618              		.cfi_offset 8, -16
 619 02e0 13040101 		addi	s0,sp,16
 620              		.cfi_def_cfa 8, 0
  16:src/syscall_cpp.cpp **** }
 621              		.loc 2 16 5
  16:src/syscall_cpp.cpp **** }
 622              		.loc 2 16 13 is_stmt 0
 623 02e4 97000000 		call	mem_free@plt
 623      E7800000 
 624              	.LVL30:
  17:src/syscall_cpp.cpp **** 
 625              		.loc 2 17 1
 626 02ec 83308100 		ld	ra,8(sp)
 627              		.cfi_restore 1
 628 02f0 03340100 		ld	s0,0(sp)
 629              		.cfi_restore 8
 630              		.cfi_def_cfa 2, 16
 631 02f4 13010101 		addi	sp,sp,16
 632              		.cfi_def_cfa_offset 0
 633 02f8 67800000 		jr	ra
 634              		.cfi_endproc
 635              	.LFE56:
 637              		.align	2
 638              		.globl	_ZN6ThreadD0Ev
 640              	_ZN6ThreadD0Ev:
 641              	.LFB64:
  54:src/syscall_cpp.cpp ****     delete (TCB*)(myHandle);
GAS LISTING /tmp/ccZn8ma6.s 			page 20


 642              		.loc 2 54 1 is_stmt 1
 643              		.cfi_startproc
 644              	.LVL31:
 645 02fc 130101FE 		addi	sp,sp,-32
 646              		.cfi_def_cfa_offset 32
 647 0300 233C1100 		sd	ra,24(sp)
 648 0304 23388100 		sd	s0,16(sp)
 649 0308 23349100 		sd	s1,8(sp)
 650              		.cfi_offset 1, -8
 651              		.cfi_offset 8, -16
 652              		.cfi_offset 9, -24
 653 030c 13040102 		addi	s0,sp,32
 654              		.cfi_def_cfa 8, 0
 655 0310 93040500 		mv	s1,a0
  56:src/syscall_cpp.cpp **** 
 656              		.loc 2 56 1 is_stmt 0
 657 0314 97000000 		call	_ZN6ThreadD1Ev
 657      E7800000 
 658              	.LVL32:
 659 031c 13850400 		mv	a0,s1
 660 0320 97000000 		call	_ZdlPv
 660      E7800000 
 661              	.LVL33:
 662 0328 83308101 		ld	ra,24(sp)
 663              		.cfi_restore 1
 664 032c 03340101 		ld	s0,16(sp)
 665              		.cfi_restore 8
 666              		.cfi_def_cfa 2, 32
 667 0330 83348100 		ld	s1,8(sp)
 668              		.cfi_restore 9
 669              	.LVL34:
 670 0334 13010102 		addi	sp,sp,32
 671              		.cfi_def_cfa_offset 0
 672 0338 67800000 		jr	ra
 673              		.cfi_endproc
 674              	.LFE64:
 676              		.align	2
 677              		.globl	_ZN9SemaphoreD0Ev
 679              	_ZN9SemaphoreD0Ev:
 680              	.LFB78:
 102:src/syscall_cpp.cpp ****     delete (MySemaphore*)myHandle;
 681              		.loc 2 102 1 is_stmt 1
 682              		.cfi_startproc
 683              	.LVL35:
 684 033c 130101FE 		addi	sp,sp,-32
 685              		.cfi_def_cfa_offset 32
 686 0340 233C1100 		sd	ra,24(sp)
 687 0344 23388100 		sd	s0,16(sp)
 688 0348 23349100 		sd	s1,8(sp)
 689              		.cfi_offset 1, -8
 690              		.cfi_offset 8, -16
 691              		.cfi_offset 9, -24
 692 034c 13040102 		addi	s0,sp,32
 693              		.cfi_def_cfa 8, 0
 694 0350 93040500 		mv	s1,a0
 695              		.loc 2 104 1 is_stmt 0
 696 0354 97000000 		call	_ZN9SemaphoreD1Ev
GAS LISTING /tmp/ccZn8ma6.s 			page 21


 696      E7800000 
 697              	.LVL36:
 698 035c 13850400 		mv	a0,s1
 699 0360 97000000 		call	_ZdlPv
 699      E7800000 
 700              	.LVL37:
 701 0368 83308101 		ld	ra,24(sp)
 702              		.cfi_restore 1
 703 036c 03340101 		ld	s0,16(sp)
 704              		.cfi_restore 8
 705              		.cfi_def_cfa 2, 32
 706 0370 83348100 		ld	s1,8(sp)
 707              		.cfi_restore 9
 708              	.LVL38:
 709 0374 13010102 		addi	sp,sp,32
 710              		.cfi_def_cfa_offset 0
 711 0378 67800000 		jr	ra
 712              		.cfi_endproc
 713              	.LFE78:
 715              		.section	.text._ZN14PeriodicThreadD0Ev,"axG",@progbits,_ZN14PeriodicThreadD5Ev,comdat
 716              		.align	2
 717              		.weak	_ZN14PeriodicThreadD0Ev
 719              	_ZN14PeriodicThreadD0Ev:
 720              	.LFB90:
  65:src/../h/syscall_cpp.hpp **** public:
 721              		.loc 1 65 7 is_stmt 1
 722              		.cfi_startproc
 723              	.LVL39:
 724 0000 130101FE 		addi	sp,sp,-32
 725              		.cfi_def_cfa_offset 32
 726 0004 233C1100 		sd	ra,24(sp)
 727 0008 23388100 		sd	s0,16(sp)
 728 000c 23349100 		sd	s1,8(sp)
 729              		.cfi_offset 1, -8
 730              		.cfi_offset 8, -16
 731              		.cfi_offset 9, -24
 732 0010 13040102 		addi	s0,sp,32
 733              		.cfi_def_cfa 8, 0
 734 0014 93040500 		mv	s1,a0
 735              	.LVL40:
 736              	.LBB88:
 737              	.LBB89:
  65:src/../h/syscall_cpp.hpp **** public:
 738              		.loc 1 65 7 is_stmt 0
 739 0018 97070000 		lla	a5,_ZTV14PeriodicThread+16
 739      93870700 
 740 0020 2330F500 		sd	a5,0(a0)
 741 0024 97000000 		call	_ZN6ThreadD2Ev
 741      E7800000 
 742              	.LVL41:
 743              	.LBE89:
 744              	.LBE88:
 745 002c 13850400 		mv	a0,s1
 746 0030 97000000 		call	_ZdlPv
 746      E7800000 
 747              	.LVL42:
 748 0038 83308101 		ld	ra,24(sp)
GAS LISTING /tmp/ccZn8ma6.s 			page 22


 749              		.cfi_restore 1
 750 003c 03340101 		ld	s0,16(sp)
 751              		.cfi_restore 8
 752              		.cfi_def_cfa 2, 32
 753 0040 83348100 		ld	s1,8(sp)
 754              		.cfi_restore 9
 755              	.LVL43:
 756 0044 13010102 		addi	sp,sp,32
 757              		.cfi_def_cfa_offset 0
 758 0048 67800000 		jr	ra
 759              		.cfi_endproc
 760              	.LFE90:
 762              		.text
 763              		.align	2
 764              		.globl	_ZdaPv
 766              	_ZdaPv:
 767              	.LFB57:
  19:src/syscall_cpp.cpp ****     mem_free(ptr);
 768              		.loc 2 19 35 is_stmt 1
 769              		.cfi_startproc
 770              	.LVL44:
 771 037c 130101FF 		addi	sp,sp,-16
 772              		.cfi_def_cfa_offset 16
 773 0380 23341100 		sd	ra,8(sp)
 774 0384 23308100 		sd	s0,0(sp)
 775              		.cfi_offset 1, -8
 776              		.cfi_offset 8, -16
 777 0388 13040101 		addi	s0,sp,16
 778              		.cfi_def_cfa 8, 0
  20:src/syscall_cpp.cpp **** }
 779              		.loc 2 20 5
  20:src/syscall_cpp.cpp **** }
 780              		.loc 2 20 13 is_stmt 0
 781 038c 97000000 		call	mem_free@plt
 781      E7800000 
 782              	.LVL45:
  21:src/syscall_cpp.cpp **** 
 783              		.loc 2 21 1
 784 0394 83308100 		ld	ra,8(sp)
 785              		.cfi_restore 1
 786 0398 03340100 		ld	s0,0(sp)
 787              		.cfi_restore 8
 788              		.cfi_def_cfa 2, 16
 789 039c 13010101 		addi	sp,sp,16
 790              		.cfi_def_cfa_offset 0
 791 03a0 67800000 		jr	ra
 792              		.cfi_endproc
 793              	.LFE57:
 795              		.align	2
 796              		.globl	_ZN6ThreadC2EPFvPvES0_
 798              	_ZN6ThreadC2EPFvPvES0_:
 799              	.LFB59:
  23:src/syscall_cpp.cpp ****     // inicijalizacija steka
 800              		.loc 2 23 1 is_stmt 1
 801              		.cfi_startproc
 802              	.LVL46:
 803 03a4 130101F9 		addi	sp,sp,-112
GAS LISTING /tmp/ccZn8ma6.s 			page 23


 804              		.cfi_def_cfa_offset 112
 805 03a8 23341106 		sd	ra,104(sp)
 806 03ac 23308106 		sd	s0,96(sp)
 807 03b0 233C9104 		sd	s1,88(sp)
 808 03b4 23382105 		sd	s2,80(sp)
 809 03b8 23343105 		sd	s3,72(sp)
 810              		.cfi_offset 1, -8
 811              		.cfi_offset 8, -16
 812              		.cfi_offset 9, -24
 813              		.cfi_offset 18, -32
 814              		.cfi_offset 19, -40
 815 03bc 13040107 		addi	s0,sp,112
 816              		.cfi_def_cfa 8, 0
 817 03c0 93040500 		mv	s1,a0
 818 03c4 13890500 		mv	s2,a1
 819 03c8 93090600 		mv	s3,a2
 820              	.LBB90:
  23:src/syscall_cpp.cpp ****     // inicijalizacija steka
 821              		.loc 2 23 46 is_stmt 0
 822 03cc 97070000 		lla	a5,_ZTV6Thread+16
 822      93870700 
 823 03d4 2330F500 		sd	a5,0(a0)
 824              	.LBB91:
  25:src/syscall_cpp.cpp ****     if(stack == nullptr){
 825              		.loc 2 25 5 is_stmt 1
  25:src/syscall_cpp.cpp ****     if(stack == nullptr){
 826              		.loc 2 25 28 is_stmt 0
 827 03d8 37150000 		li	a0,4096
 828              	.LVL47:
 829 03dc 97000000 		call	mem_alloc@plt
 829      E7800000 
 830              	.LVL48:
  26:src/syscall_cpp.cpp ****         this->myHandle = nullptr;
 831              		.loc 2 26 5 is_stmt 1
 832 03e4 630C0504 		beqz	a0,.L44
  31:src/syscall_cpp.cpp **** 
 833              		.loc 2 31 5
  31:src/syscall_cpp.cpp **** 
 834              		.loc 2 31 35 is_stmt 0
 835 03e8 630E0904 		beqz	s2,.L45
 836              	.LVL49:
 837              	.L41:
  36:src/syscall_cpp.cpp ****     // parametri
 838              		.loc 2 36 5 is_stmt 1 discriminator 4
  38:src/syscall_cpp.cpp ****     a1 = (uint64)&myHandle;
 839              		.loc 2 38 5 discriminator 4
  39:src/syscall_cpp.cpp ****     a2 = (uint64)body;
 840              		.loc 2 39 5 discriminator 4
  39:src/syscall_cpp.cpp ****     a2 = (uint64)body;
 841              		.loc 2 39 18 is_stmt 0 discriminator 4
 842 03ec 93848400 		addi	s1,s1,8
 843              	.LVL50:
  40:src/syscall_cpp.cpp ****     a3 = (uint64)arg;
 844              		.loc 2 40 5 is_stmt 1 discriminator 4
  41:src/syscall_cpp.cpp ****     a6 = (uint64)false;
 845              		.loc 2 41 5 discriminator 4
  42:src/syscall_cpp.cpp **** 
GAS LISTING /tmp/ccZn8ma6.s 			page 24


 846              		.loc 2 42 5 discriminator 4
  44:src/syscall_cpp.cpp **** 
 847              		.loc 2 44 5 discriminator 4
  47:src/syscall_cpp.cpp **** 
 848              		.loc 2 47 5 discriminator 4
  47:src/syscall_cpp.cpp **** 
 849              		.loc 2 47 53 is_stmt 0 discriminator 4
 850 03f0 93071001 		li	a5,17
 851 03f4 2338F4F8 		sd	a5,-112(s0)
 852 03f8 233C94F8 		sd	s1,-104(s0)
 853 03fc 233024FB 		sd	s2,-96(s0)
 854 0400 233434FB 		sd	s3,-88(s0)
 855 0404 2338A4FA 		sd	a0,-80(s0)
 856 0408 233C04FA 		sd	zero,-72(s0)
 857 040c 233004FC 		sd	zero,-64(s0)
 858 0410 233404FC 		sd	zero,-56(s0)
  50:src/syscall_cpp.cpp **** 
 859              		.loc 2 50 5 is_stmt 1 discriminator 4
  50:src/syscall_cpp.cpp **** 
 860              		.loc 2 50 18 is_stmt 0 discriminator 4
 861 0414 130504F9 		addi	a0,s0,-112
 862              	.LVL51:
 863 0418 97000000 		call	_ZN3abi8sys_callEPv@plt
 863      E7800000 
 864              	.LVL52:
 865              	.L38:
 866              	.LBE91:
 867              	.LBE90:
  52:src/syscall_cpp.cpp **** 
 868              		.loc 2 52 1
 869 0420 83308106 		ld	ra,104(sp)
 870              		.cfi_remember_state
 871              		.cfi_restore 1
 872 0424 03340106 		ld	s0,96(sp)
 873              		.cfi_restore 8
 874              		.cfi_def_cfa 2, 112
 875 0428 83348105 		ld	s1,88(sp)
 876              		.cfi_restore 9
 877 042c 03390105 		ld	s2,80(sp)
 878              		.cfi_restore 18
 879              	.LVL53:
 880 0430 83398104 		ld	s3,72(sp)
 881              		.cfi_restore 19
 882              	.LVL54:
 883 0434 13010107 		addi	sp,sp,112
 884              		.cfi_def_cfa_offset 0
 885 0438 67800000 		jr	ra
 886              	.LVL55:
 887              	.L44:
 888              		.cfi_restore_state
 889              	.LBB93:
 890              	.LBB92:
  27:src/syscall_cpp.cpp ****         return;
 891              		.loc 2 27 9 is_stmt 1
  27:src/syscall_cpp.cpp ****         return;
 892              		.loc 2 27 24 is_stmt 0
 893 043c 23B40400 		sd	zero,8(s1)
GAS LISTING /tmp/ccZn8ma6.s 			page 25


  28:src/syscall_cpp.cpp ****     }
 894              		.loc 2 28 9 is_stmt 1
 895 0440 6FF01FFE 		j	.L38
 896              	.L45:
  31:src/syscall_cpp.cpp **** 
 897              		.loc 2 31 35 is_stmt 0
 898 0444 13050000 		li	a0,0
 899              	.LVL56:
 900 0448 6FF05FFA 		j	.L41
 901              	.LBE92:
 902              	.LBE93:
 903              		.cfi_endproc
 904              	.LFE59:
 906              		.globl	_ZN6ThreadC1EPFvPvES0_
 907              		.set	_ZN6ThreadC1EPFvPvES0_,_ZN6ThreadC2EPFvPvES0_
 908              		.align	2
 909              		.globl	_ZN6Thread5startEv
 911              	_ZN6Thread5startEv:
 912              	.LFB65:
  58:src/syscall_cpp.cpp ****     put_in_scheduler(myHandle);
 913              		.loc 2 58 21 is_stmt 1
 914              		.cfi_startproc
 915              	.LVL57:
 916 044c 130101FF 		addi	sp,sp,-16
 917              		.cfi_def_cfa_offset 16
 918 0450 23341100 		sd	ra,8(sp)
 919 0454 23308100 		sd	s0,0(sp)
 920              		.cfi_offset 1, -8
 921              		.cfi_offset 8, -16
 922 0458 13040101 		addi	s0,sp,16
 923              		.cfi_def_cfa 8, 0
  59:src/syscall_cpp.cpp ****     return 0;
 924              		.loc 2 59 5
  59:src/syscall_cpp.cpp ****     return 0;
 925              		.loc 2 59 21 is_stmt 0
 926 045c 03358500 		ld	a0,8(a0)
 927              	.LVL58:
 928 0460 97000000 		call	put_in_scheduler@plt
 928      E7800000 
 929              	.LVL59:
  60:src/syscall_cpp.cpp **** }
 930              		.loc 2 60 5 is_stmt 1
  61:src/syscall_cpp.cpp **** 
 931              		.loc 2 61 1 is_stmt 0
 932 0468 13050000 		li	a0,0
 933 046c 83308100 		ld	ra,8(sp)
 934              		.cfi_restore 1
 935 0470 03340100 		ld	s0,0(sp)
 936              		.cfi_restore 8
 937              		.cfi_def_cfa 2, 16
 938 0474 13010101 		addi	sp,sp,16
 939              		.cfi_def_cfa_offset 0
 940 0478 67800000 		jr	ra
 941              		.cfi_endproc
 942              	.LFE65:
 944              		.align	2
 945              		.globl	_ZN6Thread8dispatchEv
GAS LISTING /tmp/ccZn8ma6.s 			page 26


 947              	_ZN6Thread8dispatchEv:
 948              	.LFB66:
  63:src/syscall_cpp.cpp ****     thread_dispatch();
 949              		.loc 2 63 25 is_stmt 1
 950              		.cfi_startproc
 951 047c 130101FF 		addi	sp,sp,-16
 952              		.cfi_def_cfa_offset 16
 953 0480 23341100 		sd	ra,8(sp)
 954 0484 23308100 		sd	s0,0(sp)
 955              		.cfi_offset 1, -8
 956              		.cfi_offset 8, -16
 957 0488 13040101 		addi	s0,sp,16
 958              		.cfi_def_cfa 8, 0
  64:src/syscall_cpp.cpp **** }
 959              		.loc 2 64 5
  64:src/syscall_cpp.cpp **** }
 960              		.loc 2 64 20 is_stmt 0
 961 048c 97000000 		call	thread_dispatch@plt
 961      E7800000 
 962              	.LVL60:
  65:src/syscall_cpp.cpp **** 
 963              		.loc 2 65 1
 964 0494 83308100 		ld	ra,8(sp)
 965              		.cfi_restore 1
 966 0498 03340100 		ld	s0,0(sp)
 967              		.cfi_restore 8
 968              		.cfi_def_cfa 2, 16
 969 049c 13010101 		addi	sp,sp,16
 970              		.cfi_def_cfa_offset 0
 971 04a0 67800000 		jr	ra
 972              		.cfi_endproc
 973              	.LFE66:
 975              		.align	2
 976              		.globl	_ZN6Thread5sleepEm
 978              	_ZN6Thread5sleepEm:
 979              	.LFB67:
  67:src/syscall_cpp.cpp ****     return time_sleep(time);
 980              		.loc 2 67 32 is_stmt 1
 981              		.cfi_startproc
 982              	.LVL61:
 983 04a4 130101FF 		addi	sp,sp,-16
 984              		.cfi_def_cfa_offset 16
 985 04a8 23341100 		sd	ra,8(sp)
 986 04ac 23308100 		sd	s0,0(sp)
 987              		.cfi_offset 1, -8
 988              		.cfi_offset 8, -16
 989 04b0 13040101 		addi	s0,sp,16
 990              		.cfi_def_cfa 8, 0
  68:src/syscall_cpp.cpp **** }
 991              		.loc 2 68 5
  68:src/syscall_cpp.cpp **** }
 992              		.loc 2 68 22 is_stmt 0
 993 04b4 97000000 		call	time_sleep@plt
 993      E7800000 
 994              	.LVL62:
  69:src/syscall_cpp.cpp **** 
 995              		.loc 2 69 1
GAS LISTING /tmp/ccZn8ma6.s 			page 27


 996 04bc 83308100 		ld	ra,8(sp)
 997              		.cfi_restore 1
 998 04c0 03340100 		ld	s0,0(sp)
 999              		.cfi_restore 8
 1000              		.cfi_def_cfa 2, 16
 1001 04c4 13010101 		addi	sp,sp,16
 1002              		.cfi_def_cfa_offset 0
 1003 04c8 67800000 		jr	ra
 1004              		.cfi_endproc
 1005              	.LFE67:
 1007              		.align	2
 1008              		.globl	_ZN14PeriodicThread3runEv
 1010              	_ZN14PeriodicThread3runEv:
 1011              	.LFB86:
 105:src/syscall_cpp.cpp **** 
 106:src/syscall_cpp.cpp **** int Semaphore::wait() {
 107:src/syscall_cpp.cpp ****     return sem_wait(myHandle);
 108:src/syscall_cpp.cpp **** }
 109:src/syscall_cpp.cpp **** 
 110:src/syscall_cpp.cpp **** int Semaphore::signal() {
 111:src/syscall_cpp.cpp ****     return sem_signal(myHandle);
 112:src/syscall_cpp.cpp **** }
 113:src/syscall_cpp.cpp **** 
 114:src/syscall_cpp.cpp **** char Console::getc() {
 115:src/syscall_cpp.cpp ****     return ::getc();
 116:src/syscall_cpp.cpp **** }
 117:src/syscall_cpp.cpp **** 
 118:src/syscall_cpp.cpp **** void Console::putc(char c) {
 119:src/syscall_cpp.cpp ****     ::putc(c);
 120:src/syscall_cpp.cpp **** }
 121:src/syscall_cpp.cpp **** 
 122:src/syscall_cpp.cpp **** uint64 PeriodicThread::ID = 0;
 123:src/syscall_cpp.cpp **** 
 124:src/syscall_cpp.cpp **** PeriodicThread::PeriodicThread(time_t period) {
 125:src/syscall_cpp.cpp ****     time = period;
 126:src/syscall_cpp.cpp ****     flag_stop = true;
 127:src/syscall_cpp.cpp ****     set_periodic((thread_t)this);
 128:src/syscall_cpp.cpp **** }
 129:src/syscall_cpp.cpp **** 
 130:src/syscall_cpp.cpp **** void PeriodicThread::run() {
 1012              		.loc 2 130 28 is_stmt 1
 1013              		.cfi_startproc
 1014              	.LVL63:
 1015 04cc 130101FE 		addi	sp,sp,-32
 1016              		.cfi_def_cfa_offset 32
 1017 04d0 233C1100 		sd	ra,24(sp)
 1018 04d4 23388100 		sd	s0,16(sp)
 1019 04d8 23349100 		sd	s1,8(sp)
 1020              		.cfi_offset 1, -8
 1021              		.cfi_offset 8, -16
 1022              		.cfi_offset 9, -24
 1023 04dc 13040102 		addi	s0,sp,32
 1024              		.cfi_def_cfa 8, 0
 1025 04e0 93040500 		mv	s1,a0
 1026              	.LVL64:
 1027              	.L54:
 131:src/syscall_cpp.cpp ****     while(flag_stop){
GAS LISTING /tmp/ccZn8ma6.s 			page 28


 1028              		.loc 2 131 5
 1029              		.loc 2 131 11
 1030 04e4 83C78401 		lbu	a5,24(s1)
 1031 04e8 63820702 		beqz	a5,.L52
 132:src/syscall_cpp.cpp ****         periodicActivation();
 1032              		.loc 2 132 9
 1033              		.loc 2 132 28 is_stmt 0
 1034 04ec 83B70400 		ld	a5,0(s1)
 1035 04f0 83B78701 		ld	a5,24(a5)
 1036              		.loc 2 132 27
 1037 04f4 13850400 		mv	a0,s1
 1038 04f8 E7800700 		jalr	a5
 1039              	.LVL65:
 133:src/syscall_cpp.cpp ****         sleep(time);
 1040              		.loc 2 133 9 is_stmt 1
 1041              		.loc 2 133 14 is_stmt 0
 1042 04fc 03B50401 		ld	a0,16(s1)
 1043 0500 97000000 		call	_ZN6Thread5sleepEm
 1043      E7800000 
 1044              	.LVL66:
 131:src/syscall_cpp.cpp ****     while(flag_stop){
 1045              		.loc 2 131 5
 1046 0508 6FF0DFFD 		j	.L54
 1047              	.L52:
 134:src/syscall_cpp.cpp ****     }
 135:src/syscall_cpp.cpp **** }
 1048              		.loc 2 135 1
 1049 050c 83308101 		ld	ra,24(sp)
 1050              		.cfi_restore 1
 1051 0510 03340101 		ld	s0,16(sp)
 1052              		.cfi_restore 8
 1053              		.cfi_def_cfa 2, 32
 1054 0514 83348100 		ld	s1,8(sp)
 1055              		.cfi_restore 9
 1056              	.LVL67:
 1057 0518 13010102 		addi	sp,sp,32
 1058              		.cfi_def_cfa_offset 0
 1059 051c 67800000 		jr	ra
 1060              		.cfi_endproc
 1061              	.LFE86:
 1063              		.align	2
 1064              		.globl	_ZN6ThreadC2Ev
 1066              	_ZN6ThreadC2Ev:
 1067              	.LFB69:
  71:src/syscall_cpp.cpp ****     // inicijalizacija steka
 1068              		.loc 2 71 1 is_stmt 1
 1069              		.cfi_startproc
 1070              	.LVL68:
 1071 0520 130101FA 		addi	sp,sp,-96
 1072              		.cfi_def_cfa_offset 96
 1073 0524 233C1104 		sd	ra,88(sp)
 1074 0528 23388104 		sd	s0,80(sp)
 1075 052c 23349104 		sd	s1,72(sp)
 1076              		.cfi_offset 1, -8
 1077              		.cfi_offset 8, -16
 1078              		.cfi_offset 9, -24
 1079 0530 13040106 		addi	s0,sp,96
GAS LISTING /tmp/ccZn8ma6.s 			page 29


 1080              		.cfi_def_cfa 8, 0
 1081 0534 93040500 		mv	s1,a0
 1082              	.LBB94:
  71:src/syscall_cpp.cpp ****     // inicijalizacija steka
 1083              		.loc 2 71 16 is_stmt 0
 1084 0538 97070000 		lla	a5,_ZTV6Thread+16
 1084      93870700 
 1085 0540 2330F500 		sd	a5,0(a0)
 1086              	.LBB95:
  73:src/syscall_cpp.cpp **** 
 1087              		.loc 2 73 5 is_stmt 1
  73:src/syscall_cpp.cpp **** 
 1088              		.loc 2 73 34 is_stmt 0
 1089 0544 37150000 		li	a0,4096
 1090              	.LVL69:
 1091 0548 97000000 		call	mem_alloc@plt
 1091      E7800000 
 1092              	.LVL70:
  76:src/syscall_cpp.cpp ****     // parametri
 1093              		.loc 2 76 5 is_stmt 1
  78:src/syscall_cpp.cpp ****     a1 = (uint64)&myHandle;
 1094              		.loc 2 78 5
  79:src/syscall_cpp.cpp ****     a2 = (uint64)&wrapper_run;
 1095              		.loc 2 79 5
  79:src/syscall_cpp.cpp ****     a2 = (uint64)&wrapper_run;
 1096              		.loc 2 79 18 is_stmt 0
 1097 0550 93878400 		addi	a5,s1,8
 1098              	.LVL71:
  80:src/syscall_cpp.cpp ****     a3 = (uint64)this;
 1099              		.loc 2 80 5 is_stmt 1
  81:src/syscall_cpp.cpp ****     a6 = (uint64)false;
 1100              		.loc 2 81 5
  82:src/syscall_cpp.cpp **** 
 1101              		.loc 2 82 5
  84:src/syscall_cpp.cpp **** 
 1102              		.loc 2 84 5
  87:src/syscall_cpp.cpp **** 
 1103              		.loc 2 87 5
  87:src/syscall_cpp.cpp **** 
 1104              		.loc 2 87 53 is_stmt 0
 1105 0554 13071001 		li	a4,17
 1106 0558 2330E4FA 		sd	a4,-96(s0)
 1107 055c 2334F4FA 		sd	a5,-88(s0)
 1108 0560 97070000 		lla	a5,_ZN6Thread11wrapper_runEPv
 1108      93870700 
 1109              	.LVL72:
 1110 0568 2338F4FA 		sd	a5,-80(s0)
 1111 056c 233C94FA 		sd	s1,-72(s0)
 1112 0570 2330A4FC 		sd	a0,-64(s0)
 1113 0574 233404FC 		sd	zero,-56(s0)
 1114 0578 233804FC 		sd	zero,-48(s0)
 1115 057c 233C04FC 		sd	zero,-40(s0)
  90:src/syscall_cpp.cpp **** 
 1116              		.loc 2 90 5 is_stmt 1
  90:src/syscall_cpp.cpp **** 
 1117              		.loc 2 90 18 is_stmt 0
 1118 0580 130504FA 		addi	a0,s0,-96
GAS LISTING /tmp/ccZn8ma6.s 			page 30


 1119              	.LVL73:
 1120 0584 97000000 		call	_ZN3abi8sys_callEPv@plt
 1120      E7800000 
 1121              	.LVL74:
 1122              	.LBE95:
 1123              	.LBE94:
  92:src/syscall_cpp.cpp **** 
 1124              		.loc 2 92 1
 1125 058c 83308105 		ld	ra,88(sp)
 1126              		.cfi_restore 1
 1127 0590 03340105 		ld	s0,80(sp)
 1128              		.cfi_restore 8
 1129              		.cfi_def_cfa 2, 96
 1130 0594 83348104 		ld	s1,72(sp)
 1131              		.cfi_restore 9
 1132              	.LVL75:
 1133 0598 13010106 		addi	sp,sp,96
 1134              		.cfi_def_cfa_offset 0
 1135 059c 67800000 		jr	ra
 1136              		.cfi_endproc
 1137              	.LFE69:
 1139              		.globl	_ZN6ThreadC1Ev
 1140              		.set	_ZN6ThreadC1Ev,_ZN6ThreadC2Ev
 1141              		.align	2
 1142              		.globl	_ZN9SemaphoreC2Ej
 1144              	_ZN9SemaphoreC2Ej:
 1145              	.LFB73:
  98:src/syscall_cpp.cpp ****     sem_open(&myHandle, init);
 1146              		.loc 2 98 1 is_stmt 1
 1147              		.cfi_startproc
 1148              	.LVL76:
 1149 05a0 130101FF 		addi	sp,sp,-16
 1150              		.cfi_def_cfa_offset 16
 1151 05a4 23341100 		sd	ra,8(sp)
 1152 05a8 23308100 		sd	s0,0(sp)
 1153              		.cfi_offset 1, -8
 1154              		.cfi_offset 8, -16
 1155 05ac 13040101 		addi	s0,sp,16
 1156              		.cfi_def_cfa 8, 0
 1157              	.LBB96:
  98:src/syscall_cpp.cpp ****     sem_open(&myHandle, init);
 1158              		.loc 2 98 39 is_stmt 0
 1159 05b0 97070000 		lla	a5,_ZTV9Semaphore+16
 1159      93870700 
 1160 05b8 2330F500 		sd	a5,0(a0)
  99:src/syscall_cpp.cpp **** }
 1161              		.loc 2 99 5 is_stmt 1
  99:src/syscall_cpp.cpp **** }
 1162              		.loc 2 99 13 is_stmt 0
 1163 05bc 93950502 		slli	a1,a1,32
 1164              	.LVL77:
 1165 05c0 93D50502 		srli	a1,a1,32
 1166 05c4 13058500 		addi	a0,a0,8
 1167              	.LVL78:
 1168 05c8 97000000 		call	sem_open@plt
 1168      E7800000 
 1169              	.LVL79:
GAS LISTING /tmp/ccZn8ma6.s 			page 31


 1170              	.LBE96:
 100:src/syscall_cpp.cpp **** 
 1171              		.loc 2 100 1
 1172 05d0 83308100 		ld	ra,8(sp)
 1173              		.cfi_restore 1
 1174 05d4 03340100 		ld	s0,0(sp)
 1175              		.cfi_restore 8
 1176              		.cfi_def_cfa 2, 16
 1177 05d8 13010101 		addi	sp,sp,16
 1178              		.cfi_def_cfa_offset 0
 1179 05dc 67800000 		jr	ra
 1180              		.cfi_endproc
 1181              	.LFE73:
 1183              		.globl	_ZN9SemaphoreC1Ej
 1184              		.set	_ZN9SemaphoreC1Ej,_ZN9SemaphoreC2Ej
 1185              		.align	2
 1186              		.globl	_ZN9Semaphore4waitEv
 1188              	_ZN9Semaphore4waitEv:
 1189              	.LFB79:
 106:src/syscall_cpp.cpp ****     return sem_wait(myHandle);
 1190              		.loc 2 106 23 is_stmt 1
 1191              		.cfi_startproc
 1192              	.LVL80:
 1193 05e0 130101FF 		addi	sp,sp,-16
 1194              		.cfi_def_cfa_offset 16
 1195 05e4 23341100 		sd	ra,8(sp)
 1196 05e8 23308100 		sd	s0,0(sp)
 1197              		.cfi_offset 1, -8
 1198              		.cfi_offset 8, -16
 1199 05ec 13040101 		addi	s0,sp,16
 1200              		.cfi_def_cfa 8, 0
 107:src/syscall_cpp.cpp **** }
 1201              		.loc 2 107 5
 107:src/syscall_cpp.cpp **** }
 1202              		.loc 2 107 20 is_stmt 0
 1203 05f0 03358500 		ld	a0,8(a0)
 1204              	.LVL81:
 1205 05f4 97000000 		call	sem_wait@plt
 1205      E7800000 
 1206              	.LVL82:
 108:src/syscall_cpp.cpp **** 
 1207              		.loc 2 108 1
 1208 05fc 83308100 		ld	ra,8(sp)
 1209              		.cfi_restore 1
 1210 0600 03340100 		ld	s0,0(sp)
 1211              		.cfi_restore 8
 1212              		.cfi_def_cfa 2, 16
 1213 0604 13010101 		addi	sp,sp,16
 1214              		.cfi_def_cfa_offset 0
 1215 0608 67800000 		jr	ra
 1216              		.cfi_endproc
 1217              	.LFE79:
 1219              		.align	2
 1220              		.globl	_ZN9Semaphore6signalEv
 1222              	_ZN9Semaphore6signalEv:
 1223              	.LFB80:
 110:src/syscall_cpp.cpp ****     return sem_signal(myHandle);
GAS LISTING /tmp/ccZn8ma6.s 			page 32


 1224              		.loc 2 110 25 is_stmt 1
 1225              		.cfi_startproc
 1226              	.LVL83:
 1227 060c 130101FF 		addi	sp,sp,-16
 1228              		.cfi_def_cfa_offset 16
 1229 0610 23341100 		sd	ra,8(sp)
 1230 0614 23308100 		sd	s0,0(sp)
 1231              		.cfi_offset 1, -8
 1232              		.cfi_offset 8, -16
 1233 0618 13040101 		addi	s0,sp,16
 1234              		.cfi_def_cfa 8, 0
 111:src/syscall_cpp.cpp **** }
 1235              		.loc 2 111 5
 111:src/syscall_cpp.cpp **** }
 1236              		.loc 2 111 22 is_stmt 0
 1237 061c 03358500 		ld	a0,8(a0)
 1238              	.LVL84:
 1239 0620 97000000 		call	sem_signal@plt
 1239      E7800000 
 1240              	.LVL85:
 112:src/syscall_cpp.cpp **** 
 1241              		.loc 2 112 1
 1242 0628 83308100 		ld	ra,8(sp)
 1243              		.cfi_restore 1
 1244 062c 03340100 		ld	s0,0(sp)
 1245              		.cfi_restore 8
 1246              		.cfi_def_cfa 2, 16
 1247 0630 13010101 		addi	sp,sp,16
 1248              		.cfi_def_cfa_offset 0
 1249 0634 67800000 		jr	ra
 1250              		.cfi_endproc
 1251              	.LFE80:
 1253              		.align	2
 1254              		.globl	_ZN7Console4getcEv
 1256              	_ZN7Console4getcEv:
 1257              	.LFB81:
 114:src/syscall_cpp.cpp ****     return ::getc();
 1258              		.loc 2 114 22 is_stmt 1
 1259              		.cfi_startproc
 1260 0638 130101FF 		addi	sp,sp,-16
 1261              		.cfi_def_cfa_offset 16
 1262 063c 23341100 		sd	ra,8(sp)
 1263 0640 23308100 		sd	s0,0(sp)
 1264              		.cfi_offset 1, -8
 1265              		.cfi_offset 8, -16
 1266 0644 13040101 		addi	s0,sp,16
 1267              		.cfi_def_cfa 8, 0
 115:src/syscall_cpp.cpp **** }
 1268              		.loc 2 115 5
 115:src/syscall_cpp.cpp **** }
 1269              		.loc 2 115 18 is_stmt 0
 1270 0648 97000000 		call	getc@plt
 1270      E7800000 
 1271              	.LVL86:
 116:src/syscall_cpp.cpp **** 
 1272              		.loc 2 116 1
 1273 0650 83308100 		ld	ra,8(sp)
GAS LISTING /tmp/ccZn8ma6.s 			page 33


 1274              		.cfi_restore 1
 1275 0654 03340100 		ld	s0,0(sp)
 1276              		.cfi_restore 8
 1277              		.cfi_def_cfa 2, 16
 1278 0658 13010101 		addi	sp,sp,16
 1279              		.cfi_def_cfa_offset 0
 1280 065c 67800000 		jr	ra
 1281              		.cfi_endproc
 1282              	.LFE81:
 1284              		.align	2
 1285              		.globl	_ZN7Console4putcEc
 1287              	_ZN7Console4putcEc:
 1288              	.LFB82:
 118:src/syscall_cpp.cpp ****     ::putc(c);
 1289              		.loc 2 118 28 is_stmt 1
 1290              		.cfi_startproc
 1291              	.LVL87:
 1292 0660 130101FF 		addi	sp,sp,-16
 1293              		.cfi_def_cfa_offset 16
 1294 0664 23341100 		sd	ra,8(sp)
 1295 0668 23308100 		sd	s0,0(sp)
 1296              		.cfi_offset 1, -8
 1297              		.cfi_offset 8, -16
 1298 066c 13040101 		addi	s0,sp,16
 1299              		.cfi_def_cfa 8, 0
 119:src/syscall_cpp.cpp **** }
 1300              		.loc 2 119 5
 119:src/syscall_cpp.cpp **** }
 1301              		.loc 2 119 11 is_stmt 0
 1302 0670 97000000 		call	putc@plt
 1302      E7800000 
 1303              	.LVL88:
 120:src/syscall_cpp.cpp **** 
 1304              		.loc 2 120 1
 1305 0678 83308100 		ld	ra,8(sp)
 1306              		.cfi_restore 1
 1307 067c 03340100 		ld	s0,0(sp)
 1308              		.cfi_restore 8
 1309              		.cfi_def_cfa 2, 16
 1310 0680 13010101 		addi	sp,sp,16
 1311              		.cfi_def_cfa_offset 0
 1312 0684 67800000 		jr	ra
 1313              		.cfi_endproc
 1314              	.LFE82:
 1316              		.align	2
 1317              		.globl	_ZN14PeriodicThreadC2Em
 1319              	_ZN14PeriodicThreadC2Em:
 1320              	.LFB84:
 124:src/syscall_cpp.cpp ****     time = period;
 1321              		.loc 2 124 1 is_stmt 1
 1322              		.cfi_startproc
 1323              		.cfi_personality 0x9b,DW.ref.__gxx_personality_v0
 1324              		.cfi_lsda 0x1b,.LLSDA84
 1325              	.LVL89:
 1326 0688 130101FE 		addi	sp,sp,-32
 1327              		.cfi_def_cfa_offset 32
 1328 068c 233C1100 		sd	ra,24(sp)
GAS LISTING /tmp/ccZn8ma6.s 			page 34


 1329 0690 23388100 		sd	s0,16(sp)
 1330 0694 23349100 		sd	s1,8(sp)
 1331 0698 23302101 		sd	s2,0(sp)
 1332              		.cfi_offset 1, -8
 1333              		.cfi_offset 8, -16
 1334              		.cfi_offset 9, -24
 1335              		.cfi_offset 18, -32
 1336 069c 13040102 		addi	s0,sp,32
 1337              		.cfi_def_cfa 8, 0
 1338 06a0 93040500 		mv	s1,a0
 1339 06a4 13890500 		mv	s2,a1
 1340              	.LEHB0:
 1341              	.LBB97:
 124:src/syscall_cpp.cpp ****     time = period;
 1342              		.loc 2 124 45 is_stmt 0
 1343 06a8 97000000 		call	_ZN6ThreadC2Ev
 1343      E7800000 
 1344              	.LVL90:
 1345              	.LEHE0:
 1346 06b0 97070000 		lla	a5,_ZTV14PeriodicThread+16
 1346      93870700 
 1347 06b8 23B0F400 		sd	a5,0(s1)
 1348 06bc 17070000 		lla	a4,.LANCHOR0
 1348      13070700 
 1349 06c4 83370700 		ld	a5,0(a4)
 1350 06c8 93861700 		addi	a3,a5,1
 1351 06cc 2330D700 		sd	a3,0(a4)
 1352 06d0 23B0F402 		sd	a5,32(s1)
 125:src/syscall_cpp.cpp ****     flag_stop = true;
 1353              		.loc 2 125 5 is_stmt 1
 125:src/syscall_cpp.cpp ****     flag_stop = true;
 1354              		.loc 2 125 10 is_stmt 0
 1355 06d4 23B82401 		sd	s2,16(s1)
 126:src/syscall_cpp.cpp ****     set_periodic((thread_t)this);
 1356              		.loc 2 126 5 is_stmt 1
 126:src/syscall_cpp.cpp ****     set_periodic((thread_t)this);
 1357              		.loc 2 126 15 is_stmt 0
 1358 06d8 93071000 		li	a5,1
 1359 06dc 238CF400 		sb	a5,24(s1)
 127:src/syscall_cpp.cpp **** }
 1360              		.loc 2 127 5 is_stmt 1
 127:src/syscall_cpp.cpp **** }
 1361              		.loc 2 127 17 is_stmt 0
 1362 06e0 13850400 		mv	a0,s1
 1363              	.LEHB1:
 1364 06e4 97000000 		call	set_periodic@plt
 1364      E7800000 
 1365              	.LVL91:
 1366              	.LEHE1:
 1367 06ec 6F000002 		j	.L73
 1368              	.L70:
 1369 06f0 13090500 		mv	s2,a0
 1370              	.LVL92:
 124:src/syscall_cpp.cpp ****     time = period;
 1371              		.loc 2 124 45
 1372 06f4 13850400 		mv	a0,s1
 1373 06f8 97000000 		call	_ZN6ThreadD2Ev
GAS LISTING /tmp/ccZn8ma6.s 			page 35


 1373      E7800000 
 1374              	.LVL93:
 1375 0700 13050900 		mv	a0,s2
 1376              	.LEHB2:
 1377 0704 97000000 		call	_Unwind_Resume@plt
 1377      E7800000 
 1378              	.LVL94:
 1379              	.LEHE2:
 1380              	.L73:
 1381              	.LBE97:
 128:src/syscall_cpp.cpp **** 
 1382              		.loc 2 128 1
 1383 070c 83308101 		ld	ra,24(sp)
 1384              		.cfi_restore 1
 1385 0710 03340101 		ld	s0,16(sp)
 1386              		.cfi_restore 8
 1387              		.cfi_def_cfa 2, 32
 1388 0714 83348100 		ld	s1,8(sp)
 1389              		.cfi_restore 9
 1390              	.LVL95:
 1391 0718 03390100 		ld	s2,0(sp)
 1392              		.cfi_restore 18
 1393              	.LVL96:
 1394 071c 13010102 		addi	sp,sp,32
 1395              		.cfi_def_cfa_offset 0
 1396 0720 67800000 		jr	ra
 1397              		.cfi_endproc
 1398              	.LFE84:
 1399              		.section	.gcc_except_table
 1400              	.LLSDA84:
 1401 0008 FF       		.byte	0xff
 1402 0009 FF       		.byte	0xff
 1403 000a 03       		.byte	0x3
 1404 000b 27       		.byte	0x27
 1405 000c 00000000 		.4byte	.LEHB0-.LFB84
 1406 0010 00000000 		.4byte	.LEHE0-.LEHB0
 1407 0014 00000000 		.4byte	0
 1408 0018 00       		.byte	0
 1409 0019 00000000 		.4byte	.LEHB1-.LFB84
 1410 001d 00000000 		.4byte	.LEHE1-.LEHB1
 1411 0021 00000000 		.4byte	.L70-.LFB84
 1412 0025 00       		.byte	0
 1413 0026 00000000 		.4byte	.LEHB2-.LFB84
 1414 002a 00000000 		.4byte	.LEHE2-.LEHB2
 1415 002e 00000000 		.4byte	0
 1416 0032 00       		.byte	0
 1417              		.text
 1419              		.globl	_ZN14PeriodicThreadC1Em
 1420              		.set	_ZN14PeriodicThreadC1Em,_ZN14PeriodicThreadC2Em
 1421              		.weak	_ZTV6Thread
 1422              		.section	.data.rel.ro.local._ZTV6Thread,"awG",@progbits,_ZTV6Thread,comdat
 1423              		.align	3
 1426              	_ZTV6Thread:
 1427 0000 00000000 		.dword	0
 1427      00000000 
 1428 0008 00000000 		.dword	0
 1428      00000000 
GAS LISTING /tmp/ccZn8ma6.s 			page 36


 1429 0010 00000000 		.dword	_ZN6ThreadD1Ev
 1429      00000000 
 1430 0018 00000000 		.dword	_ZN6ThreadD0Ev
 1430      00000000 
 1431 0020 00000000 		.dword	_ZN6Thread3runEv
 1431      00000000 
 1432              		.weak	_ZTV9Semaphore
 1433              		.section	.data.rel.ro.local._ZTV9Semaphore,"awG",@progbits,_ZTV9Semaphore,comdat
 1434              		.align	3
 1437              	_ZTV9Semaphore:
 1438 0000 00000000 		.dword	0
 1438      00000000 
 1439 0008 00000000 		.dword	0
 1439      00000000 
 1440 0010 00000000 		.dword	_ZN9SemaphoreD1Ev
 1440      00000000 
 1441 0018 00000000 		.dword	_ZN9SemaphoreD0Ev
 1441      00000000 
 1442              		.weak	_ZTV14PeriodicThread
 1443              		.section	.data.rel.ro.local._ZTV14PeriodicThread,"awG",@progbits,_ZTV14PeriodicThread,comdat
 1444              		.align	3
 1447              	_ZTV14PeriodicThread:
 1448 0000 00000000 		.dword	0
 1448      00000000 
 1449 0008 00000000 		.dword	0
 1449      00000000 
 1450 0010 00000000 		.dword	_ZN14PeriodicThreadD1Ev
 1450      00000000 
 1451 0018 00000000 		.dword	_ZN14PeriodicThreadD0Ev
 1451      00000000 
 1452 0020 00000000 		.dword	_ZN14PeriodicThread3runEv
 1452      00000000 
 1453 0028 00000000 		.dword	_ZN14PeriodicThread18periodicActivationEv
 1453      00000000 
 1454              		.globl	_ZN14PeriodicThread2IDE
 1455              		.weak	_ZGVZN15MemoryAllocator11getInstanceEvE8instance
 1456              		.section	.bss._ZGVZN15MemoryAllocator11getInstanceEvE8instance,"awG",@nobits,_ZGVZN15MemoryAllocat
 1457              		.align	3
 1460              	_ZGVZN15MemoryAllocator11getInstanceEvE8instance:
 1461 0000 00000000 		.zero	8
 1461      00000000 
 1462              		.weak	_ZZN15MemoryAllocator11getInstanceEvE8instance
 1463              		.section	.bss._ZZN15MemoryAllocator11getInstanceEvE8instance,"awG",@nobits,_ZZN15MemoryAllocator11
 1464              		.align	3
 1467              	_ZZN15MemoryAllocator11getInstanceEvE8instance:
 1468 0000 00000000 		.zero	24
 1468      00000000 
 1468      00000000 
 1468      00000000 
 1468      00000000 
 1469              		.bss
 1470              		.align	3
 1471              		.set	.LANCHOR0,. + 0
 1474              	_ZN14PeriodicThread2IDE:
 1475 0000 00000000 		.zero	8
 1475      00000000 
 1476              		.text
GAS LISTING /tmp/ccZn8ma6.s 			page 37


 1477              	.Letext0:
 1478              		.file 6 "src/../h/../h/../h/../h/../lib/hw.h"
 1479              		.file 7 "src/../h/../h/syscall_c.h"
 7237              		.align	3
 7240              	DW.ref.__gxx_personality_v0:
 7241 0000 00000000 		.dword	__gxx_personality_v0
 7241      00000000 
 7242              		.ident	"GCC: (Ubuntu 9.4.0-1ubuntu1~20.04) 9.4.0"
 7243              		.section	.note.GNU-stack,"",@progbits
GAS LISTING /tmp/ccZn8ma6.s 			page 38


DEFINED SYMBOLS
                            *ABS*:0000000000000000 syscall_cpp.cpp
     /tmp/ccZn8ma6.s:10     .text._ZN6Thread3runEv:0000000000000000 _ZN6Thread3runEv
     /tmp/ccZn8ma6.s:14     .text._ZN6Thread3runEv:0000000000000000 .L0 
     /tmp/ccZn8ma6.s:16     .text._ZN6Thread3runEv:0000000000000000 .L0 
     /tmp/ccZn8ma6.s:17     .text._ZN6Thread3runEv:0000000000000004 .L0 
     /tmp/ccZn8ma6.s:19     .text._ZN6Thread3runEv:0000000000000008 .L0 
     /tmp/ccZn8ma6.s:21     .text._ZN6Thread3runEv:000000000000000c .L0 
     /tmp/ccZn8ma6.s:23     .text._ZN6Thread3runEv:000000000000000c .L0 
     /tmp/ccZn8ma6.s:24     .text._ZN6Thread3runEv:0000000000000010 .L0 
     /tmp/ccZn8ma6.s:25     .text._ZN6Thread3runEv:0000000000000010 .L0 
     /tmp/ccZn8ma6.s:27     .text._ZN6Thread3runEv:0000000000000014 .L0 
     /tmp/ccZn8ma6.s:29     .text._ZN6Thread3runEv:0000000000000018 .L0 
     /tmp/ccZn8ma6.s:36     .text._ZN14PeriodicThread18periodicActivationEv:0000000000000000 _ZN14PeriodicThread18periodicActivationEv
     /tmp/ccZn8ma6.s:39     .text._ZN14PeriodicThread18periodicActivationEv:0000000000000000 .L0 
     /tmp/ccZn8ma6.s:41     .text._ZN14PeriodicThread18periodicActivationEv:0000000000000000 .L0 
     /tmp/ccZn8ma6.s:42     .text._ZN14PeriodicThread18periodicActivationEv:0000000000000004 .L0 
     /tmp/ccZn8ma6.s:44     .text._ZN14PeriodicThread18periodicActivationEv:0000000000000008 .L0 
     /tmp/ccZn8ma6.s:46     .text._ZN14PeriodicThread18periodicActivationEv:000000000000000c .L0 
     /tmp/ccZn8ma6.s:48     .text._ZN14PeriodicThread18periodicActivationEv:000000000000000c .L0 
     /tmp/ccZn8ma6.s:49     .text._ZN14PeriodicThread18periodicActivationEv:0000000000000010 .L0 
     /tmp/ccZn8ma6.s:50     .text._ZN14PeriodicThread18periodicActivationEv:0000000000000010 .L0 
     /tmp/ccZn8ma6.s:52     .text._ZN14PeriodicThread18periodicActivationEv:0000000000000014 .L0 
     /tmp/ccZn8ma6.s:54     .text._ZN14PeriodicThread18periodicActivationEv:0000000000000018 .L0 
     /tmp/ccZn8ma6.s:61     .text:0000000000000000 _ZN6Thread11wrapper_runEPv
     /tmp/ccZn8ma6.s:65     .text:0000000000000000 .L0 
     /tmp/ccZn8ma6.s:67     .text:0000000000000000 .L0 
     /tmp/ccZn8ma6.s:68     .text:0000000000000004 .L0 
     /tmp/ccZn8ma6.s:71     .text:000000000000000c .L0 
     /tmp/ccZn8ma6.s:72     .text:000000000000000c .L0 
     /tmp/ccZn8ma6.s:74     .text:0000000000000010 .L0 
     /tmp/ccZn8ma6.s:76     .text:0000000000000010 .L0 
     /tmp/ccZn8ma6.s:77     .text:0000000000000010 .L0 
     /tmp/ccZn8ma6.s:80     .text:0000000000000018 .L0 
     /tmp/ccZn8ma6.s:83     .text:000000000000001c .L0 
     /tmp/ccZn8ma6.s:84     .text:0000000000000020 .L0 
     /tmp/ccZn8ma6.s:86     .text:0000000000000024 .L0 
     /tmp/ccZn8ma6.s:87     .text:0000000000000024 .L0 
     /tmp/ccZn8ma6.s:89     .text:0000000000000028 .L0 
     /tmp/ccZn8ma6.s:91     .text:000000000000002c .L0 
     /tmp/ccZn8ma6.s:97     .text:000000000000002c _ZN9SemaphoreD2Ev
     /tmp/ccZn8ma6.s:100    .text:000000000000002c .L0 
     /tmp/ccZn8ma6.s:7240   .data.rel.local.DW.ref.__gxx_personality_v0:0000000000000000 DW.ref.__gxx_personality_v0
     /tmp/ccZn8ma6.s:104    .text:000000000000002c .L0 
     /tmp/ccZn8ma6.s:105    .text:0000000000000030 .L0 
     /tmp/ccZn8ma6.s:109    .text:000000000000003c .L0 
     /tmp/ccZn8ma6.s:110    .text:000000000000003c .L0 
     /tmp/ccZn8ma6.s:111    .text:000000000000003c .L0 
     /tmp/ccZn8ma6.s:113    .text:0000000000000040 .L0 
     /tmp/ccZn8ma6.s:1437   .data.rel.ro.local._ZTV9Semaphore:0000000000000000 _ZTV9Semaphore
     /tmp/ccZn8ma6.s:116    .text:0000000000000040 .L0 
     /tmp/ccZn8ma6.s:119    .text:000000000000004c .L0 
     /tmp/ccZn8ma6.s:120    .text:000000000000004c .L0 
     /tmp/ccZn8ma6.s:122    .text:0000000000000050 .L0 
     /tmp/ccZn8ma6.s:128    .text:0000000000000054 .L0 
     /tmp/ccZn8ma6.s:129    .text:0000000000000054 .L0 
     /tmp/ccZn8ma6.s:141    .text:0000000000000060 .L0 
GAS LISTING /tmp/ccZn8ma6.s 			page 39


     /tmp/ccZn8ma6.s:142    .text:0000000000000060 .L0 
     /tmp/ccZn8ma6.s:1460   .bss._ZGVZN15MemoryAllocator11getInstanceEvE8instance:0000000000000000 _ZGVZN15MemoryAllocator11getInstanceEvE8instance
     /tmp/ccZn8ma6.s:143    .text:0000000000000060 .L0 
     /tmp/ccZn8ma6.s:149    .text:000000000000006c .L0 
     /tmp/ccZn8ma6.s:150    .text:000000000000006c .L0 
     /tmp/ccZn8ma6.s:1467   .bss._ZZN15MemoryAllocator11getInstanceEvE8instance:0000000000000000 _ZZN15MemoryAllocator11getInstanceEvE8instance
     /tmp/ccZn8ma6.s:159    .text:0000000000000080 .L0 
     /tmp/ccZn8ma6.s:160    .text:0000000000000084 .L0 
     /tmp/ccZn8ma6.s:161    .text:0000000000000084 .L0 
     /tmp/ccZn8ma6.s:163    .text:0000000000000088 .L0 
     /tmp/ccZn8ma6.s:164    .text:0000000000000088 .L0 
     /tmp/ccZn8ma6.s:166    .text:000000000000008c .L0 
     /tmp/ccZn8ma6.s:168    .text:0000000000000090 .L0 
     /tmp/ccZn8ma6.s:172    .text:0000000000000094 .L0 
     /tmp/ccZn8ma6.s:182    .text:0000000000000094 .L0 
     /tmp/ccZn8ma6.s:185    .text:000000000000009c .L0 
     /tmp/ccZn8ma6.s:186    .text:000000000000009c .L0 
     /tmp/ccZn8ma6.s:192    .text:00000000000000b8 .L0 
     /tmp/ccZn8ma6.s:194    .text:00000000000000bc .L0 
     /tmp/ccZn8ma6.s:196    .text:00000000000000c0 .L0 
     /tmp/ccZn8ma6.s:198    .text:00000000000000c4 .L0 
     /tmp/ccZn8ma6.s:200    .text:00000000000000c8 .L0 
     /tmp/ccZn8ma6.s:201    .text:00000000000000c8 .L0 
     /tmp/ccZn8ma6.s:203    .text:00000000000000cc .L0 
     /tmp/ccZn8ma6.s:205    .text:00000000000000d0 .L0 
     /tmp/ccZn8ma6.s:206    .text:00000000000000d0 .L0 
     /tmp/ccZn8ma6.s:208    .text:00000000000000d4 .L0 
     /tmp/ccZn8ma6.s:213    .text:00000000000000e0 .L0 
     /tmp/ccZn8ma6.s:215    .text:00000000000000e4 .L0 
     /tmp/ccZn8ma6.s:217    .text:00000000000000ec .L0 
     /tmp/ccZn8ma6.s:218    .text:00000000000000ec .L0 
     /tmp/ccZn8ma6.s:220    .text:00000000000000f0 .L0 
     /tmp/ccZn8ma6.s:223    .text:00000000000000f4 .L0 
     /tmp/ccZn8ma6.s:224    .text:00000000000000f4 .L0 
     /tmp/ccZn8ma6.s:226    .text:00000000000000f8 .L0 
     /tmp/ccZn8ma6.s:227    .text:00000000000000f8 .L0 
     /tmp/ccZn8ma6.s:229    .text:00000000000000fc .L0 
     /tmp/ccZn8ma6.s:230    .text:00000000000000fc .L0 
     /tmp/ccZn8ma6.s:237    .text:0000000000000100 .L0 
     /tmp/ccZn8ma6.s:245    .text:0000000000000110 .L0 
     /tmp/ccZn8ma6.s:97     .text:000000000000002c _ZN9SemaphoreD1Ev
     /tmp/ccZn8ma6.s:261    .text:0000000000000110 _ZN6ThreadD2Ev
     /tmp/ccZn8ma6.s:264    .text:0000000000000110 .L0 
     /tmp/ccZn8ma6.s:268    .text:0000000000000110 .L0 
     /tmp/ccZn8ma6.s:269    .text:0000000000000114 .L0 
     /tmp/ccZn8ma6.s:273    .text:0000000000000120 .L0 
     /tmp/ccZn8ma6.s:274    .text:0000000000000120 .L0 
     /tmp/ccZn8ma6.s:275    .text:0000000000000120 .L0 
     /tmp/ccZn8ma6.s:277    .text:0000000000000124 .L0 
     /tmp/ccZn8ma6.s:1426   .data.rel.ro.local._ZTV6Thread:0000000000000000 _ZTV6Thread
     /tmp/ccZn8ma6.s:280    .text:0000000000000124 .L0 
     /tmp/ccZn8ma6.s:283    .text:0000000000000130 .L0 
     /tmp/ccZn8ma6.s:284    .text:0000000000000130 .L0 
     /tmp/ccZn8ma6.s:286    .text:0000000000000134 .L0 
     /tmp/ccZn8ma6.s:294    .text:0000000000000138 .L0 
     /tmp/ccZn8ma6.s:295    .text:0000000000000138 .L0 
     /tmp/ccZn8ma6.s:296    .text:0000000000000138 .L0 
GAS LISTING /tmp/ccZn8ma6.s 			page 40


     /tmp/ccZn8ma6.s:302    .text:0000000000000144 .L0 
     /tmp/ccZn8ma6.s:303    .text:0000000000000144 .L0 
     /tmp/ccZn8ma6.s:315    .text:0000000000000158 .L0 
     /tmp/ccZn8ma6.s:316    .text:0000000000000158 .L0 
     /tmp/ccZn8ma6.s:317    .text:0000000000000158 .L0 
     /tmp/ccZn8ma6.s:323    .text:0000000000000164 .L0 
     /tmp/ccZn8ma6.s:324    .text:0000000000000164 .L0 
     /tmp/ccZn8ma6.s:333    .text:0000000000000178 .L0 
     /tmp/ccZn8ma6.s:334    .text:000000000000017c .L0 
     /tmp/ccZn8ma6.s:335    .text:000000000000017c .L0 
     /tmp/ccZn8ma6.s:337    .text:0000000000000180 .L0 
     /tmp/ccZn8ma6.s:338    .text:0000000000000180 .L0 
     /tmp/ccZn8ma6.s:340    .text:0000000000000184 .L0 
     /tmp/ccZn8ma6.s:342    .text:0000000000000188 .L0 
     /tmp/ccZn8ma6.s:346    .text:000000000000018c .L0 
     /tmp/ccZn8ma6.s:356    .text:000000000000018c .L0 
     /tmp/ccZn8ma6.s:359    .text:0000000000000194 .L0 
     /tmp/ccZn8ma6.s:360    .text:0000000000000194 .L0 
     /tmp/ccZn8ma6.s:366    .text:00000000000001b0 .L0 
     /tmp/ccZn8ma6.s:368    .text:00000000000001b4 .L0 
     /tmp/ccZn8ma6.s:370    .text:00000000000001b8 .L0 
     /tmp/ccZn8ma6.s:372    .text:00000000000001bc .L0 
     /tmp/ccZn8ma6.s:374    .text:00000000000001c0 .L0 
     /tmp/ccZn8ma6.s:375    .text:00000000000001c0 .L0 
     /tmp/ccZn8ma6.s:377    .text:00000000000001c4 .L0 
     /tmp/ccZn8ma6.s:379    .text:00000000000001c8 .L0 
     /tmp/ccZn8ma6.s:380    .text:00000000000001c8 .L0 
     /tmp/ccZn8ma6.s:382    .text:00000000000001cc .L0 
     /tmp/ccZn8ma6.s:387    .text:00000000000001d8 .L0 
     /tmp/ccZn8ma6.s:389    .text:00000000000001dc .L0 
     /tmp/ccZn8ma6.s:391    .text:00000000000001e4 .L0 
     /tmp/ccZn8ma6.s:392    .text:00000000000001e4 .L0 
     /tmp/ccZn8ma6.s:394    .text:00000000000001e8 .L0 
     /tmp/ccZn8ma6.s:397    .text:00000000000001ec .L0 
     /tmp/ccZn8ma6.s:398    .text:00000000000001ec .L0 
     /tmp/ccZn8ma6.s:400    .text:00000000000001f0 .L0 
     /tmp/ccZn8ma6.s:401    .text:00000000000001f0 .L0 
     /tmp/ccZn8ma6.s:403    .text:00000000000001f4 .L0 
     /tmp/ccZn8ma6.s:404    .text:00000000000001f4 .L0 
     /tmp/ccZn8ma6.s:411    .text:00000000000001f8 .L0 
     /tmp/ccZn8ma6.s:428    .text:0000000000000208 .L0 
     /tmp/ccZn8ma6.s:431    .text:0000000000000210 .L0 
     /tmp/ccZn8ma6.s:432    .text:0000000000000210 .L0 
     /tmp/ccZn8ma6.s:438    .text:000000000000022c .L0 
     /tmp/ccZn8ma6.s:440    .text:0000000000000230 .L0 
     /tmp/ccZn8ma6.s:442    .text:0000000000000234 .L0 
     /tmp/ccZn8ma6.s:444    .text:0000000000000238 .L0 
     /tmp/ccZn8ma6.s:446    .text:000000000000023c .L0 
     /tmp/ccZn8ma6.s:447    .text:000000000000023c .L0 
     /tmp/ccZn8ma6.s:449    .text:0000000000000240 .L0 
     /tmp/ccZn8ma6.s:451    .text:0000000000000244 .L0 
     /tmp/ccZn8ma6.s:452    .text:0000000000000244 .L0 
     /tmp/ccZn8ma6.s:454    .text:0000000000000248 .L0 
     /tmp/ccZn8ma6.s:459    .text:0000000000000254 .L0 
     /tmp/ccZn8ma6.s:461    .text:0000000000000258 .L0 
     /tmp/ccZn8ma6.s:463    .text:0000000000000260 .L0 
     /tmp/ccZn8ma6.s:464    .text:0000000000000260 .L0 
GAS LISTING /tmp/ccZn8ma6.s 			page 41


     /tmp/ccZn8ma6.s:466    .text:0000000000000264 .L0 
     /tmp/ccZn8ma6.s:469    .text:0000000000000268 .L0 
     /tmp/ccZn8ma6.s:470    .text:0000000000000268 .L0 
     /tmp/ccZn8ma6.s:472    .text:000000000000026c .L0 
     /tmp/ccZn8ma6.s:473    .text:000000000000026c .L0 
     /tmp/ccZn8ma6.s:475    .text:0000000000000270 .L0 
     /tmp/ccZn8ma6.s:476    .text:0000000000000270 .L0 
     /tmp/ccZn8ma6.s:483    .text:0000000000000274 .L0 
     /tmp/ccZn8ma6.s:491    .text:0000000000000284 .L0 
     /tmp/ccZn8ma6.s:261    .text:0000000000000110 _ZN6ThreadD1Ev
     /tmp/ccZn8ma6.s:507    .text._ZN14PeriodicThreadD2Ev:0000000000000000 _ZN14PeriodicThreadD2Ev
     /tmp/ccZn8ma6.s:510    .text._ZN14PeriodicThreadD2Ev:0000000000000000 .L0 
     /tmp/ccZn8ma6.s:512    .text._ZN14PeriodicThreadD2Ev:0000000000000000 .L0 
     /tmp/ccZn8ma6.s:513    .text._ZN14PeriodicThreadD2Ev:0000000000000004 .L0 
     /tmp/ccZn8ma6.s:516    .text._ZN14PeriodicThreadD2Ev:000000000000000c .L0 
     /tmp/ccZn8ma6.s:517    .text._ZN14PeriodicThreadD2Ev:000000000000000c .L0 
     /tmp/ccZn8ma6.s:519    .text._ZN14PeriodicThreadD2Ev:0000000000000010 .L0 
     /tmp/ccZn8ma6.s:1447   .data.rel.ro.local._ZTV14PeriodicThread:0000000000000000 _ZTV14PeriodicThread
     /tmp/ccZn8ma6.s:522    .text._ZN14PeriodicThreadD2Ev:0000000000000010 .L0 
     /tmp/ccZn8ma6.s:528    .text._ZN14PeriodicThreadD2Ev:0000000000000028 .L0 
     /tmp/ccZn8ma6.s:530    .text._ZN14PeriodicThreadD2Ev:000000000000002c .L0 
     /tmp/ccZn8ma6.s:531    .text._ZN14PeriodicThreadD2Ev:000000000000002c .L0 
     /tmp/ccZn8ma6.s:533    .text._ZN14PeriodicThreadD2Ev:0000000000000030 .L0 
     /tmp/ccZn8ma6.s:535    .text._ZN14PeriodicThreadD2Ev:0000000000000034 .L0 
     /tmp/ccZn8ma6.s:507    .text._ZN14PeriodicThreadD2Ev:0000000000000000 _ZN14PeriodicThreadD1Ev
     /tmp/ccZn8ma6.s:544    .text:0000000000000284 _Znwm
     /tmp/ccZn8ma6.s:547    .text:0000000000000284 .L0 
     /tmp/ccZn8ma6.s:549    .text:0000000000000284 .L0 
     /tmp/ccZn8ma6.s:550    .text:0000000000000288 .L0 
     /tmp/ccZn8ma6.s:553    .text:0000000000000290 .L0 
     /tmp/ccZn8ma6.s:554    .text:0000000000000290 .L0 
     /tmp/ccZn8ma6.s:556    .text:0000000000000294 .L0 
     /tmp/ccZn8ma6.s:558    .text:0000000000000294 .L0 
     /tmp/ccZn8ma6.s:559    .text:0000000000000294 .L0 
     /tmp/ccZn8ma6.s:562    .text:000000000000029c .L0 
     /tmp/ccZn8ma6.s:563    .text:00000000000002a0 .L0 
     /tmp/ccZn8ma6.s:565    .text:00000000000002a4 .L0 
     /tmp/ccZn8ma6.s:566    .text:00000000000002a4 .L0 
     /tmp/ccZn8ma6.s:568    .text:00000000000002a8 .L0 
     /tmp/ccZn8ma6.s:570    .text:00000000000002ac .L0 
     /tmp/ccZn8ma6.s:576    .text:00000000000002ac _Znam
     /tmp/ccZn8ma6.s:579    .text:00000000000002ac .L0 
     /tmp/ccZn8ma6.s:581    .text:00000000000002ac .L0 
     /tmp/ccZn8ma6.s:582    .text:00000000000002b0 .L0 
     /tmp/ccZn8ma6.s:585    .text:00000000000002b8 .L0 
     /tmp/ccZn8ma6.s:586    .text:00000000000002b8 .L0 
     /tmp/ccZn8ma6.s:588    .text:00000000000002bc .L0 
     /tmp/ccZn8ma6.s:590    .text:00000000000002bc .L0 
     /tmp/ccZn8ma6.s:591    .text:00000000000002bc .L0 
     /tmp/ccZn8ma6.s:594    .text:00000000000002c4 .L0 
     /tmp/ccZn8ma6.s:595    .text:00000000000002c8 .L0 
     /tmp/ccZn8ma6.s:597    .text:00000000000002cc .L0 
     /tmp/ccZn8ma6.s:598    .text:00000000000002cc .L0 
     /tmp/ccZn8ma6.s:600    .text:00000000000002d0 .L0 
     /tmp/ccZn8ma6.s:602    .text:00000000000002d4 .L0 
     /tmp/ccZn8ma6.s:608    .text:00000000000002d4 _ZdlPv
     /tmp/ccZn8ma6.s:611    .text:00000000000002d4 .L0 
GAS LISTING /tmp/ccZn8ma6.s 			page 42


     /tmp/ccZn8ma6.s:613    .text:00000000000002d4 .L0 
     /tmp/ccZn8ma6.s:614    .text:00000000000002d8 .L0 
     /tmp/ccZn8ma6.s:617    .text:00000000000002e0 .L0 
     /tmp/ccZn8ma6.s:618    .text:00000000000002e0 .L0 
     /tmp/ccZn8ma6.s:620    .text:00000000000002e4 .L0 
     /tmp/ccZn8ma6.s:622    .text:00000000000002e4 .L0 
     /tmp/ccZn8ma6.s:623    .text:00000000000002e4 .L0 
     /tmp/ccZn8ma6.s:626    .text:00000000000002ec .L0 
     /tmp/ccZn8ma6.s:627    .text:00000000000002f0 .L0 
     /tmp/ccZn8ma6.s:629    .text:00000000000002f4 .L0 
     /tmp/ccZn8ma6.s:630    .text:00000000000002f4 .L0 
     /tmp/ccZn8ma6.s:632    .text:00000000000002f8 .L0 
     /tmp/ccZn8ma6.s:634    .text:00000000000002fc .L0 
     /tmp/ccZn8ma6.s:640    .text:00000000000002fc _ZN6ThreadD0Ev
     /tmp/ccZn8ma6.s:643    .text:00000000000002fc .L0 
     /tmp/ccZn8ma6.s:645    .text:00000000000002fc .L0 
     /tmp/ccZn8ma6.s:646    .text:0000000000000300 .L0 
     /tmp/ccZn8ma6.s:650    .text:000000000000030c .L0 
     /tmp/ccZn8ma6.s:651    .text:000000000000030c .L0 
     /tmp/ccZn8ma6.s:652    .text:000000000000030c .L0 
     /tmp/ccZn8ma6.s:654    .text:0000000000000310 .L0 
     /tmp/ccZn8ma6.s:657    .text:0000000000000314 .L0 
     /tmp/ccZn8ma6.s:663    .text:000000000000032c .L0 
     /tmp/ccZn8ma6.s:665    .text:0000000000000330 .L0 
     /tmp/ccZn8ma6.s:666    .text:0000000000000330 .L0 
     /tmp/ccZn8ma6.s:668    .text:0000000000000334 .L0 
     /tmp/ccZn8ma6.s:671    .text:0000000000000338 .L0 
     /tmp/ccZn8ma6.s:673    .text:000000000000033c .L0 
     /tmp/ccZn8ma6.s:679    .text:000000000000033c _ZN9SemaphoreD0Ev
     /tmp/ccZn8ma6.s:682    .text:000000000000033c .L0 
     /tmp/ccZn8ma6.s:684    .text:000000000000033c .L0 
     /tmp/ccZn8ma6.s:685    .text:0000000000000340 .L0 
     /tmp/ccZn8ma6.s:689    .text:000000000000034c .L0 
     /tmp/ccZn8ma6.s:690    .text:000000000000034c .L0 
     /tmp/ccZn8ma6.s:691    .text:000000000000034c .L0 
     /tmp/ccZn8ma6.s:693    .text:0000000000000350 .L0 
     /tmp/ccZn8ma6.s:696    .text:0000000000000354 .L0 
     /tmp/ccZn8ma6.s:702    .text:000000000000036c .L0 
     /tmp/ccZn8ma6.s:704    .text:0000000000000370 .L0 
     /tmp/ccZn8ma6.s:705    .text:0000000000000370 .L0 
     /tmp/ccZn8ma6.s:707    .text:0000000000000374 .L0 
     /tmp/ccZn8ma6.s:710    .text:0000000000000378 .L0 
     /tmp/ccZn8ma6.s:712    .text:000000000000037c .L0 
     /tmp/ccZn8ma6.s:719    .text._ZN14PeriodicThreadD0Ev:0000000000000000 _ZN14PeriodicThreadD0Ev
     /tmp/ccZn8ma6.s:722    .text._ZN14PeriodicThreadD0Ev:0000000000000000 .L0 
     /tmp/ccZn8ma6.s:724    .text._ZN14PeriodicThreadD0Ev:0000000000000000 .L0 
     /tmp/ccZn8ma6.s:725    .text._ZN14PeriodicThreadD0Ev:0000000000000004 .L0 
     /tmp/ccZn8ma6.s:729    .text._ZN14PeriodicThreadD0Ev:0000000000000010 .L0 
     /tmp/ccZn8ma6.s:730    .text._ZN14PeriodicThreadD0Ev:0000000000000010 .L0 
     /tmp/ccZn8ma6.s:731    .text._ZN14PeriodicThreadD0Ev:0000000000000010 .L0 
     /tmp/ccZn8ma6.s:733    .text._ZN14PeriodicThreadD0Ev:0000000000000014 .L0 
     /tmp/ccZn8ma6.s:739    .text._ZN14PeriodicThreadD0Ev:0000000000000018 .L0 
     /tmp/ccZn8ma6.s:749    .text._ZN14PeriodicThreadD0Ev:000000000000003c .L0 
     /tmp/ccZn8ma6.s:751    .text._ZN14PeriodicThreadD0Ev:0000000000000040 .L0 
     /tmp/ccZn8ma6.s:752    .text._ZN14PeriodicThreadD0Ev:0000000000000040 .L0 
     /tmp/ccZn8ma6.s:754    .text._ZN14PeriodicThreadD0Ev:0000000000000044 .L0 
     /tmp/ccZn8ma6.s:757    .text._ZN14PeriodicThreadD0Ev:0000000000000048 .L0 
GAS LISTING /tmp/ccZn8ma6.s 			page 43


     /tmp/ccZn8ma6.s:759    .text._ZN14PeriodicThreadD0Ev:000000000000004c .L0 
     /tmp/ccZn8ma6.s:766    .text:000000000000037c _ZdaPv
     /tmp/ccZn8ma6.s:769    .text:000000000000037c .L0 
     /tmp/ccZn8ma6.s:771    .text:000000000000037c .L0 
     /tmp/ccZn8ma6.s:772    .text:0000000000000380 .L0 
     /tmp/ccZn8ma6.s:775    .text:0000000000000388 .L0 
     /tmp/ccZn8ma6.s:776    .text:0000000000000388 .L0 
     /tmp/ccZn8ma6.s:778    .text:000000000000038c .L0 
     /tmp/ccZn8ma6.s:780    .text:000000000000038c .L0 
     /tmp/ccZn8ma6.s:781    .text:000000000000038c .L0 
     /tmp/ccZn8ma6.s:784    .text:0000000000000394 .L0 
     /tmp/ccZn8ma6.s:785    .text:0000000000000398 .L0 
     /tmp/ccZn8ma6.s:787    .text:000000000000039c .L0 
     /tmp/ccZn8ma6.s:788    .text:000000000000039c .L0 
     /tmp/ccZn8ma6.s:790    .text:00000000000003a0 .L0 
     /tmp/ccZn8ma6.s:792    .text:00000000000003a4 .L0 
     /tmp/ccZn8ma6.s:798    .text:00000000000003a4 _ZN6ThreadC2EPFvPvES0_
     /tmp/ccZn8ma6.s:801    .text:00000000000003a4 .L0 
     /tmp/ccZn8ma6.s:803    .text:00000000000003a4 .L0 
     /tmp/ccZn8ma6.s:804    .text:00000000000003a8 .L0 
     /tmp/ccZn8ma6.s:810    .text:00000000000003bc .L0 
     /tmp/ccZn8ma6.s:811    .text:00000000000003bc .L0 
     /tmp/ccZn8ma6.s:812    .text:00000000000003bc .L0 
     /tmp/ccZn8ma6.s:813    .text:00000000000003bc .L0 
     /tmp/ccZn8ma6.s:814    .text:00000000000003bc .L0 
     /tmp/ccZn8ma6.s:816    .text:00000000000003c0 .L0 
     /tmp/ccZn8ma6.s:822    .text:00000000000003cc .L0 
     /tmp/ccZn8ma6.s:826    .text:00000000000003d8 .L0 
     /tmp/ccZn8ma6.s:827    .text:00000000000003d8 .L0 
     /tmp/ccZn8ma6.s:832    .text:00000000000003e4 .L0 
     /tmp/ccZn8ma6.s:834    .text:00000000000003e8 .L0 
     /tmp/ccZn8ma6.s:835    .text:00000000000003e8 .L0 
     /tmp/ccZn8ma6.s:839    .text:00000000000003ec .L0 
     /tmp/ccZn8ma6.s:840    .text:00000000000003ec .L0 
     /tmp/ccZn8ma6.s:841    .text:00000000000003ec .L0 
     /tmp/ccZn8ma6.s:842    .text:00000000000003ec .L0 
     /tmp/ccZn8ma6.s:845    .text:00000000000003f0 .L0 
     /tmp/ccZn8ma6.s:846    .text:00000000000003f0 .L0 
     /tmp/ccZn8ma6.s:847    .text:00000000000003f0 .L0 
     /tmp/ccZn8ma6.s:848    .text:00000000000003f0 .L0 
     /tmp/ccZn8ma6.s:849    .text:00000000000003f0 .L0 
     /tmp/ccZn8ma6.s:850    .text:00000000000003f0 .L0 
     /tmp/ccZn8ma6.s:860    .text:0000000000000414 .L0 
     /tmp/ccZn8ma6.s:861    .text:0000000000000414 .L0 
     /tmp/ccZn8ma6.s:869    .text:0000000000000420 .L0 
     /tmp/ccZn8ma6.s:870    .text:0000000000000424 .L0 
     /tmp/ccZn8ma6.s:871    .text:0000000000000424 .L0 
     /tmp/ccZn8ma6.s:873    .text:0000000000000428 .L0 
     /tmp/ccZn8ma6.s:874    .text:0000000000000428 .L0 
     /tmp/ccZn8ma6.s:876    .text:000000000000042c .L0 
     /tmp/ccZn8ma6.s:878    .text:0000000000000430 .L0 
     /tmp/ccZn8ma6.s:881    .text:0000000000000434 .L0 
     /tmp/ccZn8ma6.s:884    .text:0000000000000438 .L0 
     /tmp/ccZn8ma6.s:888    .text:000000000000043c .L0 
     /tmp/ccZn8ma6.s:892    .text:000000000000043c .L0 
     /tmp/ccZn8ma6.s:893    .text:000000000000043c .L0 
     /tmp/ccZn8ma6.s:895    .text:0000000000000440 .L0 
GAS LISTING /tmp/ccZn8ma6.s 			page 44


     /tmp/ccZn8ma6.s:898    .text:0000000000000444 .L0 
     /tmp/ccZn8ma6.s:903    .text:000000000000044c .L0 
     /tmp/ccZn8ma6.s:798    .text:00000000000003a4 _ZN6ThreadC1EPFvPvES0_
     /tmp/ccZn8ma6.s:911    .text:000000000000044c _ZN6Thread5startEv
     /tmp/ccZn8ma6.s:914    .text:000000000000044c .L0 
     /tmp/ccZn8ma6.s:916    .text:000000000000044c .L0 
     /tmp/ccZn8ma6.s:917    .text:0000000000000450 .L0 
     /tmp/ccZn8ma6.s:920    .text:0000000000000458 .L0 
     /tmp/ccZn8ma6.s:921    .text:0000000000000458 .L0 
     /tmp/ccZn8ma6.s:923    .text:000000000000045c .L0 
     /tmp/ccZn8ma6.s:925    .text:000000000000045c .L0 
     /tmp/ccZn8ma6.s:926    .text:000000000000045c .L0 
     /tmp/ccZn8ma6.s:931    .text:0000000000000468 .L0 
     /tmp/ccZn8ma6.s:932    .text:0000000000000468 .L0 
     /tmp/ccZn8ma6.s:934    .text:0000000000000470 .L0 
     /tmp/ccZn8ma6.s:936    .text:0000000000000474 .L0 
     /tmp/ccZn8ma6.s:937    .text:0000000000000474 .L0 
     /tmp/ccZn8ma6.s:939    .text:0000000000000478 .L0 
     /tmp/ccZn8ma6.s:941    .text:000000000000047c .L0 
     /tmp/ccZn8ma6.s:947    .text:000000000000047c _ZN6Thread8dispatchEv
     /tmp/ccZn8ma6.s:950    .text:000000000000047c .L0 
     /tmp/ccZn8ma6.s:951    .text:000000000000047c .L0 
     /tmp/ccZn8ma6.s:952    .text:0000000000000480 .L0 
     /tmp/ccZn8ma6.s:955    .text:0000000000000488 .L0 
     /tmp/ccZn8ma6.s:956    .text:0000000000000488 .L0 
     /tmp/ccZn8ma6.s:958    .text:000000000000048c .L0 
     /tmp/ccZn8ma6.s:960    .text:000000000000048c .L0 
     /tmp/ccZn8ma6.s:961    .text:000000000000048c .L0 
     /tmp/ccZn8ma6.s:964    .text:0000000000000494 .L0 
     /tmp/ccZn8ma6.s:965    .text:0000000000000498 .L0 
     /tmp/ccZn8ma6.s:967    .text:000000000000049c .L0 
     /tmp/ccZn8ma6.s:968    .text:000000000000049c .L0 
     /tmp/ccZn8ma6.s:970    .text:00000000000004a0 .L0 
     /tmp/ccZn8ma6.s:972    .text:00000000000004a4 .L0 
     /tmp/ccZn8ma6.s:978    .text:00000000000004a4 _ZN6Thread5sleepEm
     /tmp/ccZn8ma6.s:981    .text:00000000000004a4 .L0 
     /tmp/ccZn8ma6.s:983    .text:00000000000004a4 .L0 
     /tmp/ccZn8ma6.s:984    .text:00000000000004a8 .L0 
     /tmp/ccZn8ma6.s:987    .text:00000000000004b0 .L0 
     /tmp/ccZn8ma6.s:988    .text:00000000000004b0 .L0 
     /tmp/ccZn8ma6.s:990    .text:00000000000004b4 .L0 
     /tmp/ccZn8ma6.s:992    .text:00000000000004b4 .L0 
     /tmp/ccZn8ma6.s:993    .text:00000000000004b4 .L0 
     /tmp/ccZn8ma6.s:996    .text:00000000000004bc .L0 
     /tmp/ccZn8ma6.s:997    .text:00000000000004c0 .L0 
     /tmp/ccZn8ma6.s:999    .text:00000000000004c4 .L0 
     /tmp/ccZn8ma6.s:1000   .text:00000000000004c4 .L0 
     /tmp/ccZn8ma6.s:1002   .text:00000000000004c8 .L0 
     /tmp/ccZn8ma6.s:1004   .text:00000000000004cc .L0 
     /tmp/ccZn8ma6.s:1010   .text:00000000000004cc _ZN14PeriodicThread3runEv
     /tmp/ccZn8ma6.s:1013   .text:00000000000004cc .L0 
     /tmp/ccZn8ma6.s:1015   .text:00000000000004cc .L0 
     /tmp/ccZn8ma6.s:1016   .text:00000000000004d0 .L0 
     /tmp/ccZn8ma6.s:1020   .text:00000000000004dc .L0 
     /tmp/ccZn8ma6.s:1021   .text:00000000000004dc .L0 
     /tmp/ccZn8ma6.s:1022   .text:00000000000004dc .L0 
     /tmp/ccZn8ma6.s:1024   .text:00000000000004e0 .L0 
GAS LISTING /tmp/ccZn8ma6.s 			page 45


     /tmp/ccZn8ma6.s:1029   .text:00000000000004e4 .L0 
     /tmp/ccZn8ma6.s:1030   .text:00000000000004e4 .L0 
     /tmp/ccZn8ma6.s:1033   .text:00000000000004ec .L0 
     /tmp/ccZn8ma6.s:1034   .text:00000000000004ec .L0 
     /tmp/ccZn8ma6.s:1037   .text:00000000000004f4 .L0 
     /tmp/ccZn8ma6.s:1041   .text:00000000000004fc .L0 
     /tmp/ccZn8ma6.s:1042   .text:00000000000004fc .L0 
     /tmp/ccZn8ma6.s:1046   .text:0000000000000508 .L0 
     /tmp/ccZn8ma6.s:1049   .text:000000000000050c .L0 
     /tmp/ccZn8ma6.s:1050   .text:0000000000000510 .L0 
     /tmp/ccZn8ma6.s:1052   .text:0000000000000514 .L0 
     /tmp/ccZn8ma6.s:1053   .text:0000000000000514 .L0 
     /tmp/ccZn8ma6.s:1055   .text:0000000000000518 .L0 
     /tmp/ccZn8ma6.s:1058   .text:000000000000051c .L0 
     /tmp/ccZn8ma6.s:1060   .text:0000000000000520 .L0 
     /tmp/ccZn8ma6.s:1066   .text:0000000000000520 _ZN6ThreadC2Ev
     /tmp/ccZn8ma6.s:1069   .text:0000000000000520 .L0 
     /tmp/ccZn8ma6.s:1071   .text:0000000000000520 .L0 
     /tmp/ccZn8ma6.s:1072   .text:0000000000000524 .L0 
     /tmp/ccZn8ma6.s:1076   .text:0000000000000530 .L0 
     /tmp/ccZn8ma6.s:1077   .text:0000000000000530 .L0 
     /tmp/ccZn8ma6.s:1078   .text:0000000000000530 .L0 
     /tmp/ccZn8ma6.s:1080   .text:0000000000000534 .L0 
     /tmp/ccZn8ma6.s:1084   .text:0000000000000538 .L0 
     /tmp/ccZn8ma6.s:1088   .text:0000000000000544 .L0 
     /tmp/ccZn8ma6.s:1089   .text:0000000000000544 .L0 
     /tmp/ccZn8ma6.s:1094   .text:0000000000000550 .L0 
     /tmp/ccZn8ma6.s:1095   .text:0000000000000550 .L0 
     /tmp/ccZn8ma6.s:1096   .text:0000000000000550 .L0 
     /tmp/ccZn8ma6.s:1097   .text:0000000000000550 .L0 
     /tmp/ccZn8ma6.s:1100   .text:0000000000000554 .L0 
     /tmp/ccZn8ma6.s:1101   .text:0000000000000554 .L0 
     /tmp/ccZn8ma6.s:1102   .text:0000000000000554 .L0 
     /tmp/ccZn8ma6.s:1103   .text:0000000000000554 .L0 
     /tmp/ccZn8ma6.s:1104   .text:0000000000000554 .L0 
     /tmp/ccZn8ma6.s:1105   .text:0000000000000554 .L0 
     /tmp/ccZn8ma6.s:1117   .text:0000000000000580 .L0 
     /tmp/ccZn8ma6.s:1118   .text:0000000000000580 .L0 
     /tmp/ccZn8ma6.s:1125   .text:000000000000058c .L0 
     /tmp/ccZn8ma6.s:1126   .text:0000000000000590 .L0 
     /tmp/ccZn8ma6.s:1128   .text:0000000000000594 .L0 
     /tmp/ccZn8ma6.s:1129   .text:0000000000000594 .L0 
     /tmp/ccZn8ma6.s:1131   .text:0000000000000598 .L0 
     /tmp/ccZn8ma6.s:1134   .text:000000000000059c .L0 
     /tmp/ccZn8ma6.s:1136   .text:00000000000005a0 .L0 
     /tmp/ccZn8ma6.s:1066   .text:0000000000000520 _ZN6ThreadC1Ev
     /tmp/ccZn8ma6.s:1144   .text:00000000000005a0 _ZN9SemaphoreC2Ej
     /tmp/ccZn8ma6.s:1147   .text:00000000000005a0 .L0 
     /tmp/ccZn8ma6.s:1149   .text:00000000000005a0 .L0 
     /tmp/ccZn8ma6.s:1150   .text:00000000000005a4 .L0 
     /tmp/ccZn8ma6.s:1153   .text:00000000000005ac .L0 
     /tmp/ccZn8ma6.s:1154   .text:00000000000005ac .L0 
     /tmp/ccZn8ma6.s:1156   .text:00000000000005b0 .L0 
     /tmp/ccZn8ma6.s:1159   .text:00000000000005b0 .L0 
     /tmp/ccZn8ma6.s:1162   .text:00000000000005bc .L0 
     /tmp/ccZn8ma6.s:1163   .text:00000000000005bc .L0 
     /tmp/ccZn8ma6.s:1172   .text:00000000000005d0 .L0 
GAS LISTING /tmp/ccZn8ma6.s 			page 46


     /tmp/ccZn8ma6.s:1173   .text:00000000000005d4 .L0 
     /tmp/ccZn8ma6.s:1175   .text:00000000000005d8 .L0 
     /tmp/ccZn8ma6.s:1176   .text:00000000000005d8 .L0 
     /tmp/ccZn8ma6.s:1178   .text:00000000000005dc .L0 
     /tmp/ccZn8ma6.s:1180   .text:00000000000005e0 .L0 
     /tmp/ccZn8ma6.s:1144   .text:00000000000005a0 _ZN9SemaphoreC1Ej
     /tmp/ccZn8ma6.s:1188   .text:00000000000005e0 _ZN9Semaphore4waitEv
     /tmp/ccZn8ma6.s:1191   .text:00000000000005e0 .L0 
     /tmp/ccZn8ma6.s:1193   .text:00000000000005e0 .L0 
     /tmp/ccZn8ma6.s:1194   .text:00000000000005e4 .L0 
     /tmp/ccZn8ma6.s:1197   .text:00000000000005ec .L0 
     /tmp/ccZn8ma6.s:1198   .text:00000000000005ec .L0 
     /tmp/ccZn8ma6.s:1200   .text:00000000000005f0 .L0 
     /tmp/ccZn8ma6.s:1202   .text:00000000000005f0 .L0 
     /tmp/ccZn8ma6.s:1203   .text:00000000000005f0 .L0 
     /tmp/ccZn8ma6.s:1208   .text:00000000000005fc .L0 
     /tmp/ccZn8ma6.s:1209   .text:0000000000000600 .L0 
     /tmp/ccZn8ma6.s:1211   .text:0000000000000604 .L0 
     /tmp/ccZn8ma6.s:1212   .text:0000000000000604 .L0 
     /tmp/ccZn8ma6.s:1214   .text:0000000000000608 .L0 
     /tmp/ccZn8ma6.s:1216   .text:000000000000060c .L0 
     /tmp/ccZn8ma6.s:1222   .text:000000000000060c _ZN9Semaphore6signalEv
     /tmp/ccZn8ma6.s:1225   .text:000000000000060c .L0 
     /tmp/ccZn8ma6.s:1227   .text:000000000000060c .L0 
     /tmp/ccZn8ma6.s:1228   .text:0000000000000610 .L0 
     /tmp/ccZn8ma6.s:1231   .text:0000000000000618 .L0 
     /tmp/ccZn8ma6.s:1232   .text:0000000000000618 .L0 
     /tmp/ccZn8ma6.s:1234   .text:000000000000061c .L0 
     /tmp/ccZn8ma6.s:1236   .text:000000000000061c .L0 
     /tmp/ccZn8ma6.s:1237   .text:000000000000061c .L0 
     /tmp/ccZn8ma6.s:1242   .text:0000000000000628 .L0 
     /tmp/ccZn8ma6.s:1243   .text:000000000000062c .L0 
     /tmp/ccZn8ma6.s:1245   .text:0000000000000630 .L0 
     /tmp/ccZn8ma6.s:1246   .text:0000000000000630 .L0 
     /tmp/ccZn8ma6.s:1248   .text:0000000000000634 .L0 
     /tmp/ccZn8ma6.s:1250   .text:0000000000000638 .L0 
     /tmp/ccZn8ma6.s:1256   .text:0000000000000638 _ZN7Console4getcEv
     /tmp/ccZn8ma6.s:1259   .text:0000000000000638 .L0 
     /tmp/ccZn8ma6.s:1260   .text:0000000000000638 .L0 
     /tmp/ccZn8ma6.s:1261   .text:000000000000063c .L0 
     /tmp/ccZn8ma6.s:1264   .text:0000000000000644 .L0 
     /tmp/ccZn8ma6.s:1265   .text:0000000000000644 .L0 
     /tmp/ccZn8ma6.s:1267   .text:0000000000000648 .L0 
     /tmp/ccZn8ma6.s:1269   .text:0000000000000648 .L0 
     /tmp/ccZn8ma6.s:1270   .text:0000000000000648 .L0 
     /tmp/ccZn8ma6.s:1273   .text:0000000000000650 .L0 
     /tmp/ccZn8ma6.s:1274   .text:0000000000000654 .L0 
     /tmp/ccZn8ma6.s:1276   .text:0000000000000658 .L0 
     /tmp/ccZn8ma6.s:1277   .text:0000000000000658 .L0 
     /tmp/ccZn8ma6.s:1279   .text:000000000000065c .L0 
     /tmp/ccZn8ma6.s:1281   .text:0000000000000660 .L0 
     /tmp/ccZn8ma6.s:1287   .text:0000000000000660 _ZN7Console4putcEc
     /tmp/ccZn8ma6.s:1290   .text:0000000000000660 .L0 
     /tmp/ccZn8ma6.s:1292   .text:0000000000000660 .L0 
     /tmp/ccZn8ma6.s:1293   .text:0000000000000664 .L0 
     /tmp/ccZn8ma6.s:1296   .text:000000000000066c .L0 
     /tmp/ccZn8ma6.s:1297   .text:000000000000066c .L0 
GAS LISTING /tmp/ccZn8ma6.s 			page 47


     /tmp/ccZn8ma6.s:1299   .text:0000000000000670 .L0 
     /tmp/ccZn8ma6.s:1301   .text:0000000000000670 .L0 
     /tmp/ccZn8ma6.s:1302   .text:0000000000000670 .L0 
     /tmp/ccZn8ma6.s:1305   .text:0000000000000678 .L0 
     /tmp/ccZn8ma6.s:1306   .text:000000000000067c .L0 
     /tmp/ccZn8ma6.s:1308   .text:0000000000000680 .L0 
     /tmp/ccZn8ma6.s:1309   .text:0000000000000680 .L0 
     /tmp/ccZn8ma6.s:1311   .text:0000000000000684 .L0 
     /tmp/ccZn8ma6.s:1313   .text:0000000000000688 .L0 
     /tmp/ccZn8ma6.s:1319   .text:0000000000000688 _ZN14PeriodicThreadC2Em
     /tmp/ccZn8ma6.s:1322   .text:0000000000000688 .L0 
     /tmp/ccZn8ma6.s:1326   .text:0000000000000688 .L0 
     /tmp/ccZn8ma6.s:1327   .text:000000000000068c .L0 
     /tmp/ccZn8ma6.s:1332   .text:000000000000069c .L0 
     /tmp/ccZn8ma6.s:1333   .text:000000000000069c .L0 
     /tmp/ccZn8ma6.s:1334   .text:000000000000069c .L0 
     /tmp/ccZn8ma6.s:1335   .text:000000000000069c .L0 
     /tmp/ccZn8ma6.s:1337   .text:00000000000006a0 .L0 
     /tmp/ccZn8ma6.s:1343   .text:00000000000006a8 .L0 
     /tmp/ccZn8ma6.s:1354   .text:00000000000006d4 .L0 
     /tmp/ccZn8ma6.s:1355   .text:00000000000006d4 .L0 
     /tmp/ccZn8ma6.s:1357   .text:00000000000006d8 .L0 
     /tmp/ccZn8ma6.s:1358   .text:00000000000006d8 .L0 
     /tmp/ccZn8ma6.s:1361   .text:00000000000006e0 .L0 
     /tmp/ccZn8ma6.s:1362   .text:00000000000006e0 .L0 
     /tmp/ccZn8ma6.s:1372   .text:00000000000006f4 .L0 
     /tmp/ccZn8ma6.s:1383   .text:000000000000070c .L0 
     /tmp/ccZn8ma6.s:1384   .text:0000000000000710 .L0 
     /tmp/ccZn8ma6.s:1386   .text:0000000000000714 .L0 
     /tmp/ccZn8ma6.s:1387   .text:0000000000000714 .L0 
     /tmp/ccZn8ma6.s:1389   .text:0000000000000718 .L0 
     /tmp/ccZn8ma6.s:1392   .text:000000000000071c .L0 
     /tmp/ccZn8ma6.s:1395   .text:0000000000000720 .L0 
     /tmp/ccZn8ma6.s:1397   .text:0000000000000724 .L0 
     /tmp/ccZn8ma6.s:1319   .text:0000000000000688 _ZN14PeriodicThreadC1Em
     /tmp/ccZn8ma6.s:1474   .bss:0000000000000000 _ZN14PeriodicThread2IDE
     /tmp/ccZn8ma6.s:1471   .bss:0000000000000000 .LANCHOR0
     /tmp/ccZn8ma6.s:32     .text._ZN6Thread3runEv:0000000000000018 .L0 
     /tmp/ccZn8ma6.s:57     .text._ZN14PeriodicThread18periodicActivationEv:0000000000000018 .L0 
     /tmp/ccZn8ma6.s:1480   .text:0000000000000724 .L0 
     /tmp/ccZn8ma6.s:540    .text._ZN14PeriodicThreadD2Ev:0000000000000034 .L0 
     /tmp/ccZn8ma6.s:762    .text._ZN14PeriodicThreadD0Ev:000000000000004c .L0 
     /tmp/ccZn8ma6.s:116    .text:0000000000000040 .L0 
     /tmp/ccZn8ma6.s:143    .text:0000000000000060 .L0 
     /tmp/ccZn8ma6.s:151    .text:0000000000000070 .L0 
     /tmp/ccZn8ma6.s:182    .text:0000000000000094 .L0 
     /tmp/ccZn8ma6.s:186    .text:000000000000009c .L0 
     /tmp/ccZn8ma6.s:188    .text:00000000000000a8 .L0 
     /tmp/ccZn8ma6.s:215    .text:00000000000000e4 .L0 
     /tmp/ccZn8ma6.s:238    .text:0000000000000104 .L0 
     /tmp/ccZn8ma6.s:280    .text:0000000000000124 .L0 
     /tmp/ccZn8ma6.s:296    .text:0000000000000138 .L0 
     /tmp/ccZn8ma6.s:304    .text:0000000000000148 .L0 
     /tmp/ccZn8ma6.s:317    .text:0000000000000158 .L0 
     /tmp/ccZn8ma6.s:325    .text:0000000000000168 .L0 
     /tmp/ccZn8ma6.s:356    .text:000000000000018c .L0 
     /tmp/ccZn8ma6.s:360    .text:0000000000000194 .L0 
GAS LISTING /tmp/ccZn8ma6.s 			page 48


     /tmp/ccZn8ma6.s:362    .text:00000000000001a0 .L0 
     /tmp/ccZn8ma6.s:389    .text:00000000000001dc .L0 
     /tmp/ccZn8ma6.s:412    .text:00000000000001fc .L0 
     /tmp/ccZn8ma6.s:428    .text:0000000000000208 .L0 
     /tmp/ccZn8ma6.s:432    .text:0000000000000210 .L0 
     /tmp/ccZn8ma6.s:434    .text:000000000000021c .L0 
     /tmp/ccZn8ma6.s:461    .text:0000000000000258 .L0 
     /tmp/ccZn8ma6.s:484    .text:0000000000000278 .L0 
     /tmp/ccZn8ma6.s:822    .text:00000000000003cc .L0 
     /tmp/ccZn8ma6.s:1084   .text:0000000000000538 .L0 
     /tmp/ccZn8ma6.s:1108   .text:0000000000000560 .L0 
     /tmp/ccZn8ma6.s:1159   .text:00000000000005b0 .L0 
     /tmp/ccZn8ma6.s:1346   .text:00000000000006b0 .L0 
     /tmp/ccZn8ma6.s:1348   .text:00000000000006bc .L0 
     /tmp/ccZn8ma6.s:154    .text:0000000000000080 .L7
     /tmp/ccZn8ma6.s:171    .text:0000000000000094 .L12
     /tmp/ccZn8ma6.s:211    .text:00000000000000e0 .L10
     /tmp/ccZn8ma6.s:145    .text:000000000000006c .L9
     /tmp/ccZn8ma6.s:328    .text:0000000000000178 .L13
     /tmp/ccZn8ma6.s:345    .text:000000000000018c .L20
     /tmp/ccZn8ma6.s:415    .text:0000000000000208 .L21
     /tmp/ccZn8ma6.s:385    .text:00000000000001d8 .L16
     /tmp/ccZn8ma6.s:298    .text:0000000000000144 .L15
     /tmp/ccZn8ma6.s:457    .text:0000000000000254 .L18
     /tmp/ccZn8ma6.s:319    .text:0000000000000164 .L17
     /tmp/ccZn8ma6.s:887    .text:000000000000043c .L44
     /tmp/ccZn8ma6.s:896    .text:0000000000000444 .L45
     /tmp/ccZn8ma6.s:865    .text:0000000000000420 .L38
     /tmp/ccZn8ma6.s:837    .text:00000000000003ec .L41
     /tmp/ccZn8ma6.s:1047   .text:000000000000050c .L52
     /tmp/ccZn8ma6.s:1027   .text:00000000000004e4 .L54
     /tmp/ccZn8ma6.s:1380   .text:000000000000070c .L73
     /tmp/ccZn8ma6.s:1340   .text:00000000000006a8 .LEHB0
     /tmp/ccZn8ma6.s:1320   .text:0000000000000688 .LFB84
     /tmp/ccZn8ma6.s:1345   .text:00000000000006b0 .LEHE0
     /tmp/ccZn8ma6.s:1363   .text:00000000000006e4 .LEHB1
     /tmp/ccZn8ma6.s:1366   .text:00000000000006ec .LEHE1
     /tmp/ccZn8ma6.s:1368   .text:00000000000006f0 .L70
     /tmp/ccZn8ma6.s:1376   .text:0000000000000704 .LEHB2
     /tmp/ccZn8ma6.s:1379   .text:000000000000070c .LEHE2
     /tmp/ccZn8ma6.s:522    .text._ZN14PeriodicThreadD2Ev:0000000000000010 .L0 
     /tmp/ccZn8ma6.s:739    .text._ZN14PeriodicThreadD0Ev:0000000000000018 .L0 
     /tmp/ccZn8ma6.s:4464   .debug_abbrev:0000000000000000 .Ldebug_abbrev0
     /tmp/ccZn8ma6.s:7166   .debug_str:0000000000000d98 .LASF222
     /tmp/ccZn8ma6.s:6936   .debug_str:000000000000060d .LASF223
     /tmp/ccZn8ma6.s:6788   .debug_str:00000000000000d0 .LASF224
     /tmp/ccZn8ma6.s:6702   .debug_ranges:0000000000000000 .Ldebug_ranges0
     /tmp/ccZn8ma6.s:6758   .debug_line:0000000000000000 .Ldebug_line0
     /tmp/ccZn8ma6.s:6926   .debug_str:00000000000005ae .LASF0
     /tmp/ccZn8ma6.s:6956   .debug_str:00000000000006c9 .LASF1
     /tmp/ccZn8ma6.s:7080   .debug_str:0000000000000b27 .LASF2
     /tmp/ccZn8ma6.s:7086   .debug_str:0000000000000b4c .LASF4
     /tmp/ccZn8ma6.s:6938   .debug_str:0000000000000621 .LASF3
     /tmp/ccZn8ma6.s:6778   .debug_str:000000000000008e .LASF5
     /tmp/ccZn8ma6.s:7040   .debug_str:00000000000009c4 .LASF6
     /tmp/ccZn8ma6.s:7028   .debug_str:000000000000094e .LASF7
     /tmp/ccZn8ma6.s:6950   .debug_str:00000000000006a5 .LASF8
GAS LISTING /tmp/ccZn8ma6.s 			page 49


     /tmp/ccZn8ma6.s:6892   .debug_str:000000000000046e .LASF9
     /tmp/ccZn8ma6.s:6904   .debug_str:00000000000004fe .LASF10
     /tmp/ccZn8ma6.s:6814   .debug_str:00000000000001a8 .LASF11
     /tmp/ccZn8ma6.s:7174   .debug_str:0000000000000eaf .LASF12
     /tmp/ccZn8ma6.s:6882   .debug_str:0000000000000424 .LASF13
     /tmp/ccZn8ma6.s:6832   .debug_str:000000000000024c .LASF14
     /tmp/ccZn8ma6.s:6812   .debug_str:0000000000000198 .LASF15
     /tmp/ccZn8ma6.s:7122   .debug_str:0000000000000c60 .LASF16
     /tmp/ccZn8ma6.s:6860   .debug_str:0000000000000331 .LASF17
     /tmp/ccZn8ma6.s:7112   .debug_str:0000000000000c1e .LASF18
     /tmp/ccZn8ma6.s:7024   .debug_str:0000000000000931 .LASF22
     /tmp/ccZn8ma6.s:7142   .debug_str:0000000000000cd4 .LASF37
     /tmp/ccZn8ma6.s:6954   .debug_str:00000000000006c4 .LASF19
     /tmp/ccZn8ma6.s:6816   .debug_str:00000000000001b7 .LASF20
     /tmp/ccZn8ma6.s:6794   .debug_str:0000000000000123 .LASF21
     /tmp/ccZn8ma6.s:7200   .debug_str:0000000000000f86 .LASF43
     /tmp/ccZn8ma6.s:6990   .debug_str:00000000000007f1 .LASF45
     /tmp/ccZn8ma6.s:6940   .debug_str:0000000000000633 .LASF24
     /tmp/ccZn8ma6.s:7084   .debug_str:0000000000000b42 .LASF23
     /tmp/ccZn8ma6.s:7184   .debug_str:0000000000000f05 .LASF25
     /tmp/ccZn8ma6.s:6834   .debug_str:000000000000025c .LASF26
     /tmp/ccZn8ma6.s:6988   .debug_str:00000000000007cc .LASF27
     /tmp/ccZn8ma6.s:6786   .debug_str:00000000000000c4 .LASF28
     /tmp/ccZn8ma6.s:7052   .debug_str:0000000000000a22 .LASF29
     /tmp/ccZn8ma6.s:7078   .debug_str:0000000000000b0e .LASF30
     /tmp/ccZn8ma6.s:6894   .debug_str:000000000000047e .LASF31
     /tmp/ccZn8ma6.s:6846   .debug_str:00000000000002c7 .LASF32
     /tmp/ccZn8ma6.s:6948   .debug_str:0000000000000676 .LASF33
     /tmp/ccZn8ma6.s:7108   .debug_str:0000000000000bfa .LASF34
     /tmp/ccZn8ma6.s:7196   .debug_str:0000000000000f6d .LASF35
     /tmp/ccZn8ma6.s:7222   .debug_str:0000000000001018 .LASF36
     /tmp/ccZn8ma6.s:6790   .debug_str:0000000000000104 .LASF96
     /tmp/ccZn8ma6.s:7128   .debug_str:0000000000000c84 .LASF38
     /tmp/ccZn8ma6.s:7088   .debug_str:0000000000000b53 .LASF39
     /tmp/ccZn8ma6.s:6774   .debug_str:0000000000000078 .LASF41
     /tmp/ccZn8ma6.s:7120   .debug_str:0000000000000c52 .LASF40
     /tmp/ccZn8ma6.s:6918   .debug_str:0000000000000566 .LASF42
     /tmp/ccZn8ma6.s:6984   .debug_str:00000000000007bb .LASF44
     /tmp/ccZn8ma6.s:6878   .debug_str:0000000000000408 .LASF46
     /tmp/ccZn8ma6.s:7058   .debug_str:0000000000000a5c .LASF79
     /tmp/ccZn8ma6.s:6970   .debug_str:0000000000000752 .LASF81
     /tmp/ccZn8ma6.s:7072   .debug_str:0000000000000ae4 .LASF47
     /tmp/ccZn8ma6.s:7090   .debug_str:0000000000000b58 .LASF48
     /tmp/ccZn8ma6.s:7190   .debug_str:0000000000000f41 .LASF49
     /tmp/ccZn8ma6.s:6838   .debug_str:0000000000000276 .LASF50
     /tmp/ccZn8ma6.s:7020   .debug_str:0000000000000910 .LASF51
     /tmp/ccZn8ma6.s:6996   .debug_str:0000000000000851 .LASF52
     /tmp/ccZn8ma6.s:7044   .debug_str:00000000000009ea .LASF53
     /tmp/ccZn8ma6.s:6868   .debug_str:0000000000000385 .LASF54
     /tmp/ccZn8ma6.s:7186   .debug_str:0000000000000f21 .LASF55
     /tmp/ccZn8ma6.s:7042   .debug_str:00000000000009cb .LASF56
     /tmp/ccZn8ma6.s:7124   .debug_str:0000000000000c6c .LASF57
     /tmp/ccZn8ma6.s:7070   .debug_str:0000000000000ac8 .LASF58
     /tmp/ccZn8ma6.s:6944   .debug_str:0000000000000658 .LASF59
     /tmp/ccZn8ma6.s:7060   .debug_str:0000000000000a6c .LASF60
     /tmp/ccZn8ma6.s:7194   .debug_str:0000000000000f5c .LASF61
     /tmp/ccZn8ma6.s:7150   .debug_str:0000000000000cfa .LASF62
GAS LISTING /tmp/ccZn8ma6.s 			page 50


     /tmp/ccZn8ma6.s:7114   .debug_str:0000000000000c34 .LASF63
     /tmp/ccZn8ma6.s:6874   .debug_str:00000000000003dc .LASF64
     /tmp/ccZn8ma6.s:7218   .debug_str:0000000000000ffd .LASF65
     /tmp/ccZn8ma6.s:7110   .debug_str:0000000000000c04 .LASF66
     /tmp/ccZn8ma6.s:6998   .debug_str:0000000000000869 .LASF67
     /tmp/ccZn8ma6.s:7062   .debug_str:0000000000000a87 .LASF68
     /tmp/ccZn8ma6.s:6946   .debug_str:0000000000000667 .LASF69
     /tmp/ccZn8ma6.s:6864   .debug_str:0000000000000350 .LASF70
     /tmp/ccZn8ma6.s:7160   .debug_str:0000000000000d6a .LASF71
     /tmp/ccZn8ma6.s:6934   .debug_str:00000000000005f2 .LASF72
     /tmp/ccZn8ma6.s:7188   .debug_str:0000000000000f34 .LASF73
     /tmp/ccZn8ma6.s:7170   .debug_str:0000000000000e70 .LASF74
     /tmp/ccZn8ma6.s:7094   .debug_str:0000000000000b88 .LASF75
     /tmp/ccZn8ma6.s:6820   .debug_str:00000000000001ce .LASF76
     /tmp/ccZn8ma6.s:7002   .debug_str:000000000000087d .LASF77
     /tmp/ccZn8ma6.s:7038   .debug_str:00000000000009a8 .LASF78
     /tmp/ccZn8ma6.s:6960   .debug_str:00000000000006ed .LASF80
     /tmp/ccZn8ma6.s:7156   .debug_str:0000000000000d43 .LASF82
     /tmp/ccZn8ma6.s:7220   .debug_str:000000000000100b .LASF83
     /tmp/ccZn8ma6.s:6898   .debug_str:00000000000004c7 .LASF84
     /tmp/ccZn8ma6.s:6808   .debug_str:0000000000000169 .LASF85
     /tmp/ccZn8ma6.s:6888   .debug_str:0000000000000456 .LASF86
     /tmp/ccZn8ma6.s:6768   .debug_str:000000000000004d .LASF87
     /tmp/ccZn8ma6.s:6978   .debug_str:00000000000007a1 .LASF89
     /tmp/ccZn8ma6.s:7216   .debug_str:0000000000000fea .LASF88
     /tmp/ccZn8ma6.s:7082   .debug_str:0000000000000b35 .LASF90
     /tmp/ccZn8ma6.s:7144   .debug_str:0000000000000cdc .LASF91
     /tmp/ccZn8ma6.s:6884   .debug_str:0000000000000433 .LASF92
     /tmp/ccZn8ma6.s:7004   .debug_str:000000000000088d .LASF225
     /tmp/ccZn8ma6.s:7018   .debug_str:000000000000090b .LASF226
     /tmp/ccZn8ma6.s:7012   .debug_str:00000000000008eb .LASF93
     /tmp/ccZn8ma6.s:6932   .debug_str:00000000000005d2 .LASF94
     /tmp/ccZn8ma6.s:6976   .debug_str:0000000000000792 .LASF95
     /tmp/ccZn8ma6.s:6964   .debug_str:000000000000070b .LASF97
     /tmp/ccZn8ma6.s:6854   .debug_str:0000000000000307 .LASF227
     /tmp/ccZn8ma6.s:6992   .debug_str:0000000000000815 .LASF228
     /tmp/ccZn8ma6.s:7104   .debug_str:0000000000000bdf .LASF164
     /tmp/ccZn8ma6.s:6766   .debug_str:0000000000000048 .LASF98
     /tmp/ccZn8ma6.s:6942   .debug_str:000000000000064f .LASF99
     /tmp/ccZn8ma6.s:7212   .debug_str:0000000000000fd4 .LASF100
     /tmp/ccZn8ma6.s:7168   .debug_str:0000000000000e68 .LASF101
     /tmp/ccZn8ma6.s:7126   .debug_str:0000000000000c7b .LASF102
     /tmp/ccZn8ma6.s:7130   .debug_str:0000000000000c8c .LASF103
     /tmp/ccZn8ma6.s:6916   .debug_str:000000000000055b .LASF104
     /tmp/ccZn8ma6.s:6836   .debug_str:0000000000000269 .LASF105
     /tmp/ccZn8ma6.s:6792   .debug_str:000000000000011d .LASF106
     /tmp/ccZn8ma6.s:7066   .debug_str:0000000000000aa7 .LASF107
     /tmp/ccZn8ma6.s:7100   .debug_str:0000000000000bbf .LASF108
     /tmp/ccZn8ma6.s:6966   .debug_str:0000000000000734 .LASF109
     /tmp/ccZn8ma6.s:6890   .debug_str:0000000000000462 .LASF110
     /tmp/ccZn8ma6.s:7064   .debug_str:0000000000000aa2 .LASF111
     /tmp/ccZn8ma6.s:7146   .debug_str:0000000000000ce4 .LASF112
     /tmp/ccZn8ma6.s:6796   .debug_str:0000000000000128 .LASF114
     /tmp/ccZn8ma6.s:7204   .debug_str:0000000000000fa3 .LASF113
     /tmp/ccZn8ma6.s:7118   .debug_str:0000000000000c4d .LASF115
     /tmp/ccZn8ma6.s:6980   .debug_str:00000000000007ae .LASF116
     /tmp/ccZn8ma6.s:6930   .debug_str:00000000000005cd .LASF117
GAS LISTING /tmp/ccZn8ma6.s 			page 51


     /tmp/ccZn8ma6.s:6844   .debug_str:00000000000002b4 .LASF118
     /tmp/ccZn8ma6.s:6986   .debug_str:00000000000007c7 .LASF119
     /tmp/ccZn8ma6.s:6856   .debug_str:0000000000000316 .LASF120
     /tmp/ccZn8ma6.s:7136   .debug_str:0000000000000ca8 .LASF121
     /tmp/ccZn8ma6.s:6822   .debug_str:00000000000001eb .LASF122
     /tmp/ccZn8ma6.s:6914   .debug_str:000000000000054e .LASF123
     /tmp/ccZn8ma6.s:6842   .debug_str:000000000000029f .LASF124
     /tmp/ccZn8ma6.s:7176   .debug_str:0000000000000eba .LASF125
     /tmp/ccZn8ma6.s:6830   .debug_str:000000000000022c .LASF126
     /tmp/ccZn8ma6.s:7056   .debug_str:0000000000000a52 .LASF127
     /tmp/ccZn8ma6.s:6810   .debug_str:0000000000000179 .LASF128
     /tmp/ccZn8ma6.s:7228   .debug_str:000000000000104f .LASF129
     /tmp/ccZn8ma6.s:6886   .debug_str:0000000000000438 .LASF130
     /tmp/ccZn8ma6.s:6910   .debug_str:000000000000053c .LASF131
     /tmp/ccZn8ma6.s:6906   .debug_str:000000000000050c .LASF132
     /tmp/ccZn8ma6.s:7180   .debug_str:0000000000000ede .LASF133
     /tmp/ccZn8ma6.s:7172   .debug_str:0000000000000e88 .LASF134
     /tmp/ccZn8ma6.s:6840   .debug_str:000000000000028e .LASF135
     /tmp/ccZn8ma6.s:7224   .debug_str:0000000000001020 .LASF136
     /tmp/ccZn8ma6.s:6924   .debug_str:00000000000005a8 .LASF137
     /tmp/ccZn8ma6.s:6800   .debug_str:0000000000000135 .LASF138
     /tmp/ccZn8ma6.s:6770   .debug_str:000000000000005d .LASF139
     /tmp/ccZn8ma6.s:6852   .debug_str:00000000000002ec .LASF140
     /tmp/ccZn8ma6.s:6806   .debug_str:000000000000015b .LASF141
     /tmp/ccZn8ma6.s:7036   .debug_str:0000000000000985 .LASF142
     /tmp/ccZn8ma6.s:7192   .debug_str:0000000000000f4e .LASF143
     /tmp/ccZn8ma6.s:6994   .debug_str:000000000000082f .LASF144
     /tmp/ccZn8ma6.s:7116   .debug_str:0000000000000c45 .LASF145
     /tmp/ccZn8ma6.s:6870   .debug_str:00000000000003a5 .LASF146
     /tmp/ccZn8ma6.s:6858   .debug_str:0000000000000329 .LASF147
     /tmp/ccZn8ma6.s:6866   .debug_str:000000000000036a .LASF148
     /tmp/ccZn8ma6.s:7034   .debug_str:0000000000000970 .LASF149
     /tmp/ccZn8ma6.s:7022   .debug_str:000000000000091c .LASF150
     /tmp/ccZn8ma6.s:6974   .debug_str:000000000000077c .LASF151
     /tmp/ccZn8ma6.s:7068   .debug_str:0000000000000ab2 .LASF152
     /tmp/ccZn8ma6.s:6968   .debug_str:000000000000073d .LASF153
     /tmp/ccZn8ma6.s:7226   .debug_str:0000000000001045 .LASF154
     /tmp/ccZn8ma6.s:6880   .debug_str:000000000000041f .LASF155
     /tmp/ccZn8ma6.s:7000   .debug_str:0000000000000878 .LASF156
     /tmp/ccZn8ma6.s:7198   .debug_str:0000000000000f77 .LASF157
     /tmp/ccZn8ma6.s:6824   .debug_str:00000000000001f7 .LASF158
     /tmp/ccZn8ma6.s:7178   .debug_str:0000000000000ec3 .LASF159
     /tmp/ccZn8ma6.s:6982   .debug_str:00000000000007b6 .LASF160
     /tmp/ccZn8ma6.s:6872   .debug_str:00000000000003c1 .LASF161
     /tmp/ccZn8ma6.s:6962   .debug_str:00000000000006f3 .LASF162
     /tmp/ccZn8ma6.s:6900   .debug_str:00000000000004d3 .LASF163
     /tmp/ccZn8ma6.s:6762   .debug_str:0000000000000019 .LASF229
     /tmp/ccZn8ma6.s:7092   .debug_str:0000000000000b6e .LASF177
     /tmp/ccZn8ma6.s:7032   .debug_str:000000000000096b .LASF165
     /tmp/ccZn8ma6.s:7030   .debug_str:0000000000000961 .LASF166
     /tmp/ccZn8ma6.s:7008   .debug_str:00000000000008d4 .LASF167
     /tmp/ccZn8ma6.s:7182   .debug_str:0000000000000eed .LASF230
     /tmp/ccZn8ma6.s:7154   .debug_str:0000000000000d2b .LASF231
     /tmp/ccZn8ma6.s:6912   .debug_str:0000000000000547 .LASF168
     /tmp/ccZn8ma6.s:6826   .debug_str:0000000000000211 .LASF169
     /tmp/ccZn8ma6.s:7148   .debug_str:0000000000000ced .LASF184
     /tmp/ccZn8ma6.s:7230   .debug_str:0000000000001058 .LASF170
GAS LISTING /tmp/ccZn8ma6.s 			page 52


     /tmp/ccZn8ma6.s:7106   .debug_str:0000000000000bf2 .LASF187
     /tmp/ccZn8ma6.s:6876   .debug_str:00000000000003f9 .LASF189
     /tmp/ccZn8ma6.s:7210   .debug_str:0000000000000fce .LASF171
     /tmp/ccZn8ma6.s:6772   .debug_str:0000000000000065 .LASF172
     /tmp/ccZn8ma6.s:6848   .debug_str:00000000000002de .LASF173
     /tmp/ccZn8ma6.s:7206   .debug_str:0000000000000fa9 .LASF174
     /tmp/ccZn8ma6.s:7152   .debug_str:0000000000000d18 .LASF175
     /tmp/ccZn8ma6.s:6908   .debug_str:000000000000052d .LASF176
     /tmp/ccZn8ma6.s:7202   .debug_str:0000000000000f92 .LASF178
     /tmp/ccZn8ma6.s:7046   .debug_str:00000000000009fd .LASF179
     /tmp/ccZn8ma6.s:7102   .debug_str:0000000000000bc4 .LASF180
     /tmp/ccZn8ma6.s:6862   .debug_str:0000000000000347 .LASF181
     /tmp/ccZn8ma6.s:7048   .debug_str:0000000000000a09 .LASF182
     /tmp/ccZn8ma6.s:7140   .debug_str:0000000000000cbf .LASF183
     /tmp/ccZn8ma6.s:7214   .debug_str:0000000000000fda .LASF185
     /tmp/ccZn8ma6.s:7138   .debug_str:0000000000000cad .LASF186
     /tmp/ccZn8ma6.s:7054   .debug_str:0000000000000a47 .LASF188
     /tmp/ccZn8ma6.s:7098   .debug_str:0000000000000bad .LASF190
     /tmp/ccZn8ma6.s:6850   .debug_str:00000000000002e7 .LASF191
     /tmp/ccZn8ma6.s:7164   .debug_str:0000000000000d83 .LASF192
     /tmp/ccZn8ma6.s:7132   .debug_str:0000000000000c9b .LASF193
     /tmp/ccZn8ma6.s:6780   .debug_str:0000000000000095 .LASF194
     /tmp/ccZn8ma6.s:6922   .debug_str:0000000000000598 .LASF232
     /tmp/ccZn8ma6.s:6764   .debug_str:0000000000000043 .LASF195
     /tmp/ccZn8ma6.s:6776   .debug_str:0000000000000084 .LASF196
     /tmp/ccZn8ma6.s:7232   .debug_str:000000000000106f .LASF197
     /tmp/ccZn8ma6.s:720    .text._ZN14PeriodicThreadD0Ev:0000000000000000 .LFB90
     /tmp/ccZn8ma6.s:760    .text._ZN14PeriodicThreadD0Ev:000000000000004c .LFE90
     /tmp/ccZn8ma6.s:6033   .debug_loc:0000000000000000 .LLST19
     /tmp/ccZn8ma6.s:736    .text._ZN14PeriodicThreadD0Ev:0000000000000018 .LBB88
     /tmp/ccZn8ma6.s:744    .text._ZN14PeriodicThreadD0Ev:000000000000002c .LBE88
     /tmp/ccZn8ma6.s:6051   .debug_loc:000000000000004c .LLST20
     /tmp/ccZn8ma6.s:742    .text._ZN14PeriodicThreadD0Ev:000000000000002c .LVL41
     /tmp/ccZn8ma6.s:747    .text._ZN14PeriodicThreadD0Ev:0000000000000038 .LVL42
     /tmp/ccZn8ma6.s:7076   .debug_str:0000000000000af6 .LASF198
     /tmp/ccZn8ma6.s:508    .text._ZN14PeriodicThreadD2Ev:0000000000000000 .LFB88
     /tmp/ccZn8ma6.s:536    .text._ZN14PeriodicThreadD2Ev:0000000000000034 .LFE88
     /tmp/ccZn8ma6.s:6062   .debug_loc:0000000000000082 .LLST13
     /tmp/ccZn8ma6.s:525    .text._ZN14PeriodicThreadD2Ev:0000000000000024 .LVL24
     /tmp/ccZn8ma6.s:1011   .text:00000000000004cc .LFB86
     /tmp/ccZn8ma6.s:1061   .text:0000000000000520 .LFE86
     /tmp/ccZn8ma6.s:6076   .debug_loc:00000000000000bb .LLST36
     /tmp/ccZn8ma6.s:1039   .text:00000000000004fc .LVL65
     /tmp/ccZn8ma6.s:1044   .text:0000000000000508 .LVL66
     /tmp/ccZn8ma6.s:6802   .debug_str:000000000000014e .LASF202
     /tmp/ccZn8ma6.s:6896   .debug_str:00000000000004af .LASF199
     /tmp/ccZn8ma6.s:1398   .text:0000000000000724 .LFE84
     /tmp/ccZn8ma6.s:6094   .debug_loc:0000000000000107 .LLST46
     /tmp/ccZn8ma6.s:6112   .debug_loc:0000000000000153 .LLST47
     /tmp/ccZn8ma6.s:1344   .text:00000000000006b0 .LVL90
     /tmp/ccZn8ma6.s:1365   .text:00000000000006ec .LVL91
     /tmp/ccZn8ma6.s:1374   .text:0000000000000700 .LVL93
     /tmp/ccZn8ma6.s:1378   .text:000000000000070c .LVL94
     /tmp/ccZn8ma6.s:1288   .text:0000000000000660 .LFB82
     /tmp/ccZn8ma6.s:1314   .text:0000000000000688 .LFE82
     /tmp/ccZn8ma6.s:6141   .debug_loc:00000000000001c8 .LLST45
     /tmp/ccZn8ma6.s:1303   .text:0000000000000678 .LVL88
GAS LISTING /tmp/ccZn8ma6.s 			page 53


     /tmp/ccZn8ma6.s:1257   .text:0000000000000638 .LFB81
     /tmp/ccZn8ma6.s:1282   .text:0000000000000660 .LFE81
     /tmp/ccZn8ma6.s:1271   .text:0000000000000650 .LVL86
     /tmp/ccZn8ma6.s:1223   .text:000000000000060c .LFB80
     /tmp/ccZn8ma6.s:1251   .text:0000000000000638 .LFE80
     /tmp/ccZn8ma6.s:6155   .debug_loc:0000000000000201 .LLST44
     /tmp/ccZn8ma6.s:1240   .text:0000000000000628 .LVL85
     /tmp/ccZn8ma6.s:1189   .text:00000000000005e0 .LFB79
     /tmp/ccZn8ma6.s:1217   .text:000000000000060c .LFE79
     /tmp/ccZn8ma6.s:6169   .debug_loc:000000000000023a .LLST43
     /tmp/ccZn8ma6.s:1206   .text:00000000000005fc .LVL82
     /tmp/ccZn8ma6.s:6928   .debug_str:00000000000005bb .LASF200
     /tmp/ccZn8ma6.s:680    .text:000000000000033c .LFB78
     /tmp/ccZn8ma6.s:713    .text:000000000000037c .LFE78
     /tmp/ccZn8ma6.s:6183   .debug_loc:0000000000000273 .LLST18
     /tmp/ccZn8ma6.s:697    .text:000000000000035c .LVL36
     /tmp/ccZn8ma6.s:700    .text:0000000000000368 .LVL37
     /tmp/ccZn8ma6.s:6782   .debug_str:00000000000000ac .LASF201
     /tmp/ccZn8ma6.s:98     .text:000000000000002c .LFB76
     /tmp/ccZn8ma6.s:246    .text:0000000000000110 .LFE76
     /tmp/ccZn8ma6.s:6201   .debug_loc:00000000000002bf .LLST1
     /tmp/ccZn8ma6.s:124    .text:0000000000000054 .LBB28
     /tmp/ccZn8ma6.s:134    .text:0000000000000060 .LBE28
     /tmp/ccZn8ma6.s:6215   .debug_loc:00000000000002f8 .LLST2
     /tmp/ccZn8ma6.s:132    .text:0000000000000060 .LVL7
     /tmp/ccZn8ma6.s:135    .text:0000000000000060 .LBB30
     /tmp/ccZn8ma6.s:6222   .debug_loc:000000000000031b .LLST3
     /tmp/ccZn8ma6.s:138    .text:0000000000000060 .LBB32
     /tmp/ccZn8ma6.s:178    .text:0000000000000094 .LBB34
     /tmp/ccZn8ma6.s:235    .text:0000000000000100 .LBE34
     /tmp/ccZn8ma6.s:6233   .debug_loc:0000000000000351 .LLST4
     /tmp/ccZn8ma6.s:183    .text:000000000000009c .LBB37
     /tmp/ccZn8ma6.s:232    .text:0000000000000100 .LBE37
     /tmp/ccZn8ma6.s:6242   .debug_loc:000000000000037d .LLST5
     /tmp/ccZn8ma6.s:153    .text:0000000000000080 .LVL8
     /tmp/ccZn8ma6.s:6798   .debug_str:0000000000000130 .LASF203
     /tmp/ccZn8ma6.s:6818   .debug_str:00000000000001bc .LASF204
     /tmp/ccZn8ma6.s:1145   .text:00000000000005a0 .LFB73
     /tmp/ccZn8ma6.s:1181   .text:00000000000005e0 .LFE73
     /tmp/ccZn8ma6.s:6249   .debug_loc:00000000000003a0 .LLST41
     /tmp/ccZn8ma6.s:6269   .debug_loc:00000000000003ee .LLST42
     /tmp/ccZn8ma6.s:1169   .text:00000000000005d0 .LVL79
     /tmp/ccZn8ma6.s:62     .text:0000000000000000 .LFB71
     /tmp/ccZn8ma6.s:92     .text:000000000000002c .LFE71
     /tmp/ccZn8ma6.s:7074   .debug_str:0000000000000aef .LASF205
     /tmp/ccZn8ma6.s:6283   .debug_loc:0000000000000427 .LLST0
     /tmp/ccZn8ma6.s:81     .text:000000000000001c .LVL3
     /tmp/ccZn8ma6.s:6784   .debug_str:00000000000000be .LASF206
     /tmp/ccZn8ma6.s:7014   .debug_str:00000000000008f5 .LASF207
     /tmp/ccZn8ma6.s:1067   .text:0000000000000520 .LFB69
     /tmp/ccZn8ma6.s:1137   .text:00000000000005a0 .LFE69
     /tmp/ccZn8ma6.s:6297   .debug_loc:0000000000000460 .LLST37
     /tmp/ccZn8ma6.s:1092   .text:0000000000000550 .LVL70
     /tmp/ccZn8ma6.s:1121   .text:000000000000058c .LVL74
     /tmp/ccZn8ma6.s:1086   .text:0000000000000544 .LBB95
     /tmp/ccZn8ma6.s:1122   .text:000000000000058c .LBE95
     /tmp/ccZn8ma6.s:6315   .debug_loc:00000000000004ac .LLST38
GAS LISTING /tmp/ccZn8ma6.s 			page 54


     /tmp/ccZn8ma6.s:6327   .debug_loc:00000000000004e3 .LLST39
     /tmp/ccZn8ma6.s:6354   .debug_loc:0000000000000548 .LLST40
     /tmp/ccZn8ma6.s:979    .text:00000000000004a4 .LFB67
     /tmp/ccZn8ma6.s:1005   .text:00000000000004cc .LFE67
     /tmp/ccZn8ma6.s:6368   .debug_loc:0000000000000581 .LLST35
     /tmp/ccZn8ma6.s:994    .text:00000000000004bc .LVL62
     /tmp/ccZn8ma6.s:948    .text:000000000000047c .LFB66
     /tmp/ccZn8ma6.s:973    .text:00000000000004a4 .LFE66
     /tmp/ccZn8ma6.s:962    .text:0000000000000494 .LVL60
     /tmp/ccZn8ma6.s:912    .text:000000000000044c .LFB65
     /tmp/ccZn8ma6.s:942    .text:000000000000047c .LFE65
     /tmp/ccZn8ma6.s:6382   .debug_loc:00000000000005ba .LLST34
     /tmp/ccZn8ma6.s:929    .text:0000000000000468 .LVL59
     /tmp/ccZn8ma6.s:6972   .debug_str:000000000000076d .LASF208
     /tmp/ccZn8ma6.s:641    .text:00000000000002fc .LFB64
     /tmp/ccZn8ma6.s:674    .text:000000000000033c .LFE64
     /tmp/ccZn8ma6.s:6396   .debug_loc:00000000000005f3 .LLST17
     /tmp/ccZn8ma6.s:658    .text:000000000000031c .LVL32
     /tmp/ccZn8ma6.s:661    .text:0000000000000328 .LVL33
     /tmp/ccZn8ma6.s:7050   .debug_str:0000000000000a13 .LASF209
     /tmp/ccZn8ma6.s:262    .text:0000000000000110 .LFB62
     /tmp/ccZn8ma6.s:492    .text:0000000000000284 .LFE62
     /tmp/ccZn8ma6.s:6414   .debug_loc:000000000000063f .LLST6
     /tmp/ccZn8ma6.s:288    .text:0000000000000138 .LBB62
     /tmp/ccZn8ma6.s:6439   .debug_loc:00000000000006a1 .LLST7
     /tmp/ccZn8ma6.s:292    .text:0000000000000138 .LBB64
     /tmp/ccZn8ma6.s:352    .text:000000000000018c .LBB66
     /tmp/ccZn8ma6.s:409    .text:00000000000001f8 .LBE66
     /tmp/ccZn8ma6.s:6450   .debug_loc:00000000000006d7 .LLST8
     /tmp/ccZn8ma6.s:357    .text:0000000000000194 .LBB69
     /tmp/ccZn8ma6.s:406    .text:00000000000001f8 .LBE69
     /tmp/ccZn8ma6.s:6459   .debug_loc:0000000000000703 .LLST9
     /tmp/ccZn8ma6.s:307    .text:0000000000000158 .LVL15
     /tmp/ccZn8ma6.s:310    .text:0000000000000158 .LBB73
     /tmp/ccZn8ma6.s:6466   .debug_loc:0000000000000726 .LLST10
     /tmp/ccZn8ma6.s:313    .text:0000000000000158 .LBB75
     /tmp/ccZn8ma6.s:424    .text:0000000000000208 .LBB77
     /tmp/ccZn8ma6.s:481    .text:0000000000000274 .LBE77
     /tmp/ccZn8ma6.s:6477   .debug_loc:000000000000075c .LLST11
     /tmp/ccZn8ma6.s:429    .text:0000000000000210 .LBB80
     /tmp/ccZn8ma6.s:478    .text:0000000000000274 .LBE80
     /tmp/ccZn8ma6.s:6486   .debug_loc:0000000000000788 .LLST12
     /tmp/ccZn8ma6.s:327    .text:0000000000000178 .LVL16
     /tmp/ccZn8ma6.s:7158   .debug_str:0000000000000d53 .LASF210
     /tmp/ccZn8ma6.s:799    .text:00000000000003a4 .LFB59
     /tmp/ccZn8ma6.s:904    .text:000000000000044c .LFE59
     /tmp/ccZn8ma6.s:6493   .debug_loc:00000000000007ab .LLST22
     /tmp/ccZn8ma6.s:6521   .debug_loc:000000000000081f .LLST23
     /tmp/ccZn8ma6.s:6543   .debug_loc:000000000000087e .LLST24
     /tmp/ccZn8ma6.s:830    .text:00000000000003e4 .LVL48
     /tmp/ccZn8ma6.s:864    .text:0000000000000420 .LVL52
     /tmp/ccZn8ma6.s:6565   .debug_loc:00000000000008dd .LLST25
     /tmp/ccZn8ma6.s:6576   .debug_loc:0000000000000913 .LLST26
     /tmp/ccZn8ma6.s:6588   .debug_loc:000000000000094b .LLST27
     /tmp/ccZn8ma6.s:6596   .debug_loc:000000000000096f .LLST28
     /tmp/ccZn8ma6.s:6603   .debug_loc:0000000000000992 .LLST29
     /tmp/ccZn8ma6.s:6610   .debug_loc:00000000000009b5 .LLST30
GAS LISTING /tmp/ccZn8ma6.s 			page 55


     /tmp/ccZn8ma6.s:6617   .debug_loc:00000000000009d8 .LLST31
     /tmp/ccZn8ma6.s:7010   .debug_str:00000000000008e4 .LASF211
     /tmp/ccZn8ma6.s:767    .text:000000000000037c .LFB57
     /tmp/ccZn8ma6.s:793    .text:00000000000003a4 .LFE57
     /tmp/ccZn8ma6.s:6625   .debug_loc:00000000000009fc .LLST21
     /tmp/ccZn8ma6.s:782    .text:0000000000000394 .LVL45
     /tmp/ccZn8ma6.s:7016   .debug_str:0000000000000904 .LASF212
     /tmp/ccZn8ma6.s:609    .text:00000000000002d4 .LFB56
     /tmp/ccZn8ma6.s:635    .text:00000000000002fc .LFE56
     /tmp/ccZn8ma6.s:6639   .debug_loc:0000000000000a35 .LLST16
     /tmp/ccZn8ma6.s:624    .text:00000000000002ec .LVL30
     /tmp/ccZn8ma6.s:7134   .debug_str:0000000000000ca2 .LASF213
     /tmp/ccZn8ma6.s:577    .text:00000000000002ac .LFB55
     /tmp/ccZn8ma6.s:603    .text:00000000000002d4 .LFE55
     /tmp/ccZn8ma6.s:6653   .debug_loc:0000000000000a6e .LLST15
     /tmp/ccZn8ma6.s:592    .text:00000000000002c4 .LVL28
     /tmp/ccZn8ma6.s:6804   .debug_str:0000000000000155 .LASF214
     /tmp/ccZn8ma6.s:545    .text:0000000000000284 .LFB54
     /tmp/ccZn8ma6.s:571    .text:00000000000002ac .LFE54
     /tmp/ccZn8ma6.s:6667   .debug_loc:0000000000000aa7 .LLST14
     /tmp/ccZn8ma6.s:560    .text:000000000000029c .LVL26
     /tmp/ccZn8ma6.s:7096   .debug_str:0000000000000b98 .LASF215
     /tmp/ccZn8ma6.s:37     .text._ZN14PeriodicThread18periodicActivationEv:0000000000000000 .LFB42
     /tmp/ccZn8ma6.s:55     .text._ZN14PeriodicThread18periodicActivationEv:0000000000000018 .LFE42
     /tmp/ccZn8ma6.s:11     .text._ZN6Thread3runEv:0000000000000000 .LFB40
     /tmp/ccZn8ma6.s:30     .text._ZN6Thread3runEv:0000000000000018 .LFE40
     /tmp/ccZn8ma6.s:6952   .debug_str:00000000000006b8 .LASF216
     /tmp/ccZn8ma6.s:7026   .debug_str:0000000000000941 .LASF217
     /tmp/ccZn8ma6.s:6760   .debug_str:0000000000000000 .LASF218
     /tmp/ccZn8ma6.s:6828   .debug_str:0000000000000223 .LASF233
     /tmp/ccZn8ma6.s:7006   .debug_str:00000000000008a5 .LASF234
     /tmp/ccZn8ma6.s:7208   .debug_str:0000000000000fbf .LASF235
     /tmp/ccZn8ma6.s:6902   .debug_str:00000000000004e6 .LASF236
     /tmp/ccZn8ma6.s:7162   .debug_str:0000000000000d79 .LASF219
     /tmp/ccZn8ma6.s:6958   .debug_str:00000000000006dc .LASF220
     /tmp/ccZn8ma6.s:6920   .debug_str:000000000000058f .LASF221
     /tmp/ccZn8ma6.s:723    .text._ZN14PeriodicThreadD0Ev:0000000000000000 .LVL39
     /tmp/ccZn8ma6.s:755    .text._ZN14PeriodicThreadD0Ev:0000000000000044 .LVL43
     /tmp/ccZn8ma6.s:735    .text._ZN14PeriodicThreadD0Ev:0000000000000018 .LVL40
     /tmp/ccZn8ma6.s:511    .text._ZN14PeriodicThreadD2Ev:0000000000000000 .LVL23
     /tmp/ccZn8ma6.s:1014   .text:00000000000004cc .LVL63
     /tmp/ccZn8ma6.s:1026   .text:00000000000004e4 .LVL64
     /tmp/ccZn8ma6.s:1056   .text:0000000000000518 .LVL67
     /tmp/ccZn8ma6.s:1325   .text:0000000000000688 .LVL89
     /tmp/ccZn8ma6.s:1390   .text:0000000000000718 .LVL95
     /tmp/ccZn8ma6.s:1370   .text:00000000000006f4 .LVL92
     /tmp/ccZn8ma6.s:1393   .text:000000000000071c .LVL96
     /tmp/ccZn8ma6.s:1291   .text:0000000000000660 .LVL87
     /tmp/ccZn8ma6.s:1226   .text:000000000000060c .LVL83
     /tmp/ccZn8ma6.s:1238   .text:0000000000000620 .LVL84
     /tmp/ccZn8ma6.s:1192   .text:00000000000005e0 .LVL80
     /tmp/ccZn8ma6.s:1204   .text:00000000000005f4 .LVL81
     /tmp/ccZn8ma6.s:683    .text:000000000000033c .LVL35
     /tmp/ccZn8ma6.s:708    .text:0000000000000374 .LVL38
     /tmp/ccZn8ma6.s:103    .text:000000000000002c .LVL4
     /tmp/ccZn8ma6.s:130    .text:0000000000000058 .LVL6
     /tmp/ccZn8ma6.s:123    .text:0000000000000054 .LVL5
GAS LISTING /tmp/ccZn8ma6.s 			page 56


     /tmp/ccZn8ma6.s:170    .text:0000000000000094 .LVL9
     /tmp/ccZn8ma6.s:231    .text:0000000000000100 .LVL11
     /tmp/ccZn8ma6.s:221    .text:00000000000000f4 .LVL10
     /tmp/ccZn8ma6.s:1148   .text:00000000000005a0 .LVL76
     /tmp/ccZn8ma6.s:1167   .text:00000000000005c8 .LVL78
     /tmp/ccZn8ma6.s:1164   .text:00000000000005c0 .LVL77
     /tmp/ccZn8ma6.s:66     .text:0000000000000000 .LVL2
     /tmp/ccZn8ma6.s:1070   .text:0000000000000520 .LVL68
     /tmp/ccZn8ma6.s:1090   .text:0000000000000548 .LVL69
     /tmp/ccZn8ma6.s:1132   .text:0000000000000598 .LVL75
     /tmp/ccZn8ma6.s:1119   .text:0000000000000584 .LVL73
     /tmp/ccZn8ma6.s:1098   .text:0000000000000554 .LVL71
     /tmp/ccZn8ma6.s:1109   .text:0000000000000568 .LVL72
     /tmp/ccZn8ma6.s:982    .text:00000000000004a4 .LVL61
     /tmp/ccZn8ma6.s:915    .text:000000000000044c .LVL57
     /tmp/ccZn8ma6.s:927    .text:0000000000000460 .LVL58
     /tmp/ccZn8ma6.s:644    .text:00000000000002fc .LVL31
     /tmp/ccZn8ma6.s:669    .text:0000000000000334 .LVL34
     /tmp/ccZn8ma6.s:267    .text:0000000000000110 .LVL12
     /tmp/ccZn8ma6.s:305    .text:0000000000000150 .LVL14
     /tmp/ccZn8ma6.s:344    .text:000000000000018c .LVL17
     /tmp/ccZn8ma6.s:414    .text:0000000000000208 .LVL20
     /tmp/ccZn8ma6.s:287    .text:0000000000000138 .LVL13
     /tmp/ccZn8ma6.s:405    .text:00000000000001f8 .LVL19
     /tmp/ccZn8ma6.s:395    .text:00000000000001ec .LVL18
     /tmp/ccZn8ma6.s:477    .text:0000000000000274 .LVL22
     /tmp/ccZn8ma6.s:467    .text:0000000000000268 .LVL21
     /tmp/ccZn8ma6.s:802    .text:00000000000003a4 .LVL46
     /tmp/ccZn8ma6.s:828    .text:00000000000003dc .LVL47
     /tmp/ccZn8ma6.s:843    .text:00000000000003f0 .LVL50
     /tmp/ccZn8ma6.s:886    .text:000000000000043c .LVL55
     /tmp/ccZn8ma6.s:879    .text:0000000000000430 .LVL53
     /tmp/ccZn8ma6.s:882    .text:0000000000000434 .LVL54
     /tmp/ccZn8ma6.s:836    .text:00000000000003ec .LVL49
     /tmp/ccZn8ma6.s:899    .text:0000000000000448 .LVL56
     /tmp/ccZn8ma6.s:862    .text:0000000000000418 .LVL51
     /tmp/ccZn8ma6.s:770    .text:000000000000037c .LVL44
     /tmp/ccZn8ma6.s:612    .text:00000000000002d4 .LVL29
     /tmp/ccZn8ma6.s:580    .text:00000000000002ac .LVL27
     /tmp/ccZn8ma6.s:548    .text:0000000000000284 .LVL25
     /tmp/ccZn8ma6.s:1481   .debug_info:0000000000000000 .Ldebug_info0
     /tmp/ccZn8ma6.s:5      .text:0000000000000000 .Ltext0
     /tmp/ccZn8ma6.s:1477   .text:0000000000000724 .Letext0
     /tmp/ccZn8ma6.s:156    .text:0000000000000080 .LBE30
     /tmp/ccZn8ma6.s:174    .text:0000000000000094 .LBB41
     /tmp/ccZn8ma6.s:243    .text:0000000000000110 .LBE41
     /tmp/ccZn8ma6.s:148    .text:000000000000006c .LBE32
     /tmp/ccZn8ma6.s:176    .text:0000000000000094 .LBB39
     /tmp/ccZn8ma6.s:241    .text:0000000000000110 .LBE39
     /tmp/ccZn8ma6.s:309    .text:0000000000000158 .LBE62
     /tmp/ccZn8ma6.s:348    .text:000000000000018c .LBB84
     /tmp/ccZn8ma6.s:419    .text:0000000000000208 .LBE84
     /tmp/ccZn8ma6.s:301    .text:0000000000000144 .LBE64
     /tmp/ccZn8ma6.s:350    .text:000000000000018c .LBB71
     /tmp/ccZn8ma6.s:417    .text:0000000000000208 .LBE71
     /tmp/ccZn8ma6.s:330    .text:0000000000000178 .LBE73
     /tmp/ccZn8ma6.s:420    .text:0000000000000208 .LBB85
GAS LISTING /tmp/ccZn8ma6.s 			page 57


     /tmp/ccZn8ma6.s:489    .text:0000000000000284 .LBE85
     /tmp/ccZn8ma6.s:322    .text:0000000000000164 .LBE75
     /tmp/ccZn8ma6.s:422    .text:0000000000000208 .LBB82
     /tmp/ccZn8ma6.s:487    .text:0000000000000284 .LBE82
     /tmp/ccZn8ma6.s:824    .text:00000000000003d8 .LBB91
     /tmp/ccZn8ma6.s:866    .text:0000000000000420 .LBE91
     /tmp/ccZn8ma6.s:890    .text:000000000000043c .LBB92
     /tmp/ccZn8ma6.s:901    .text:000000000000044c .LBE92
     /tmp/ccZn8ma6.s:249    .gcc_except_table:0000000000000000 .LLSDA76
     /tmp/ccZn8ma6.s:494    .gcc_except_table:0000000000000004 .LLSDA62
     /tmp/ccZn8ma6.s:1400   .gcc_except_table:0000000000000008 .LLSDA84
                           .group:0000000000000000 _ZN14PeriodicThreadD5Ev

UNDEFINED SYMBOLS
_ZN11MySemaphore9sem_closeEPS_
_ZN15MemoryAllocator11memory_freeEPv
HEAP_END_ADDR
HEAP_START_ADDR
__gxx_personality_v0
mem_alloc
mem_free
_ZN3abi8sys_callEPv
put_in_scheduler
thread_dispatch
time_sleep
sem_open
sem_wait
sem_signal
getc
putc
set_periodic
_Unwind_Resume
