GAS LISTING /tmp/ccb1NzOc.s 			page 1


   1              		.file	"syscall_cpp.cpp"
   2              		.option pic
   3              		.option norelax
   4              		.text
   5              	.Ltext0:
   6              		.section	.text._ZN6Thread3runEv,"axG",@progbits,_ZN6Thread3runEv,comdat
   7              		.align	2
   8              		.weak	_ZN6Thread3runEv
  10              	_ZN6Thread3runEv:
  11              	.LFB40:
  12              		.file 1 "src/../h/syscall_cpp.hpp"
   1:src/../h/syscall_cpp.hpp **** #ifndef _syscall_cpp_hpp_
   2:src/../h/syscall_cpp.hpp **** #define _syscall_cpp_hpp_
   3:src/../h/syscall_cpp.hpp **** 
   4:src/../h/syscall_cpp.hpp **** #include "../h/syscall_c.h"
   5:src/../h/syscall_cpp.hpp **** 
   6:src/../h/syscall_cpp.hpp **** 
   7:src/../h/syscall_cpp.hpp **** 
   8:src/../h/syscall_cpp.hpp **** void* operator new(size_t n);
   9:src/../h/syscall_cpp.hpp **** void* operator new[](size_t n);
  10:src/../h/syscall_cpp.hpp **** void operator delete(void* ptr);
  11:src/../h/syscall_cpp.hpp **** void operator delete[](void* ptr);
  12:src/../h/syscall_cpp.hpp **** 
  13:src/../h/syscall_cpp.hpp **** 
  14:src/../h/syscall_cpp.hpp **** 
  15:src/../h/syscall_cpp.hpp **** class Thread {
  16:src/../h/syscall_cpp.hpp **** public:
  17:src/../h/syscall_cpp.hpp ****     Thread(void (*body)(void*), void* arg);
  18:src/../h/syscall_cpp.hpp ****     virtual ~Thread();
  19:src/../h/syscall_cpp.hpp **** 
  20:src/../h/syscall_cpp.hpp **** 
  21:src/../h/syscall_cpp.hpp **** 
  22:src/../h/syscall_cpp.hpp ****     int start();
  23:src/../h/syscall_cpp.hpp **** 
  24:src/../h/syscall_cpp.hpp **** 
  25:src/../h/syscall_cpp.hpp **** 
  26:src/../h/syscall_cpp.hpp ****     static void dispatch();
  27:src/../h/syscall_cpp.hpp ****     static int sleep(time_t time);
  28:src/../h/syscall_cpp.hpp **** 
  29:src/../h/syscall_cpp.hpp **** 
  30:src/../h/syscall_cpp.hpp **** 
  31:src/../h/syscall_cpp.hpp **** protected:
  32:src/../h/syscall_cpp.hpp ****     Thread();
  33:src/../h/syscall_cpp.hpp ****     virtual void run() {}
  13              		.loc 1 33 18
  14              		.cfi_startproc
  15              	.LVL0:
  16 0000 130101FF 		addi	sp,sp,-16
  17              		.cfi_def_cfa_offset 16
  18 0004 23348100 		sd	s0,8(sp)
  19              		.cfi_offset 8, -8
  20 0008 13040101 		addi	s0,sp,16
  21              		.cfi_def_cfa 8, 0
  22              		.loc 1 33 25 is_stmt 0
  23 000c 03348100 		ld	s0,8(sp)
  24              		.cfi_restore 8
  25              		.cfi_def_cfa 2, 16
GAS LISTING /tmp/ccb1NzOc.s 			page 2


  26 0010 13010101 		addi	sp,sp,16
  27              		.cfi_def_cfa_offset 0
  28 0014 67800000 		jr	ra
  29              		.cfi_endproc
  30              	.LFE40:
  32              		.section	.text._ZN14PeriodicThread18periodicActivationEv,"axG",@progbits,_ZN14PeriodicThread18peri
  33              		.align	2
  34              		.weak	_ZN14PeriodicThread18periodicActivationEv
  36              	_ZN14PeriodicThread18periodicActivationEv:
  37              	.LFB42:
  34:src/../h/syscall_cpp.hpp **** 
  35:src/../h/syscall_cpp.hpp **** 
  36:src/../h/syscall_cpp.hpp **** 
  37:src/../h/syscall_cpp.hpp **** private:
  38:src/../h/syscall_cpp.hpp ****     static void wrapper_run(void* thread);
  39:src/../h/syscall_cpp.hpp **** 
  40:src/../h/syscall_cpp.hpp **** 
  41:src/../h/syscall_cpp.hpp **** 
  42:src/../h/syscall_cpp.hpp ****     thread_t myHandle;
  43:src/../h/syscall_cpp.hpp **** };
  44:src/../h/syscall_cpp.hpp **** 
  45:src/../h/syscall_cpp.hpp **** 
  46:src/../h/syscall_cpp.hpp **** 
  47:src/../h/syscall_cpp.hpp **** class Semaphore {
  48:src/../h/syscall_cpp.hpp **** public:
  49:src/../h/syscall_cpp.hpp ****     explicit Semaphore(unsigned init = 1);
  50:src/../h/syscall_cpp.hpp ****     virtual ~Semaphore();
  51:src/../h/syscall_cpp.hpp **** 
  52:src/../h/syscall_cpp.hpp **** 
  53:src/../h/syscall_cpp.hpp **** 
  54:src/../h/syscall_cpp.hpp ****     int wait();
  55:src/../h/syscall_cpp.hpp ****     int signal();
  56:src/../h/syscall_cpp.hpp **** 
  57:src/../h/syscall_cpp.hpp **** 
  58:src/../h/syscall_cpp.hpp **** 
  59:src/../h/syscall_cpp.hpp **** private:
  60:src/../h/syscall_cpp.hpp ****     sem_t myHandle;
  61:src/../h/syscall_cpp.hpp **** };
  62:src/../h/syscall_cpp.hpp **** 
  63:src/../h/syscall_cpp.hpp **** 
  64:src/../h/syscall_cpp.hpp **** 
  65:src/../h/syscall_cpp.hpp **** class PeriodicThread : public Thread {
  66:src/../h/syscall_cpp.hpp **** public:
  67:src/../h/syscall_cpp.hpp ****     void stop(){flag_stop = false;}
  68:src/../h/syscall_cpp.hpp **** //    uint64 getId()const{ id; }
  69:src/../h/syscall_cpp.hpp **** protected:
  70:src/../h/syscall_cpp.hpp ****     PeriodicThread(time_t period);
  71:src/../h/syscall_cpp.hpp ****     virtual void periodicActivation(){}
  38              		.loc 1 71 18 is_stmt 1
  39              		.cfi_startproc
  40              	.LVL1:
  41 0000 130101FF 		addi	sp,sp,-16
  42              		.cfi_def_cfa_offset 16
  43 0004 23348100 		sd	s0,8(sp)
  44              		.cfi_offset 8, -8
  45 0008 13040101 		addi	s0,sp,16
  46              		.cfi_def_cfa 8, 0
GAS LISTING /tmp/ccb1NzOc.s 			page 3


  47              		.loc 1 71 39 is_stmt 0
  48 000c 03348100 		ld	s0,8(sp)
  49              		.cfi_restore 8
  50              		.cfi_def_cfa 2, 16
  51 0010 13010101 		addi	sp,sp,16
  52              		.cfi_def_cfa_offset 0
  53 0014 67800000 		jr	ra
  54              		.cfi_endproc
  55              	.LFE42:
  57              		.text
  58              		.align	2
  59              		.globl	_ZN6Thread11wrapper_runEPv
  61              	_ZN6Thread11wrapper_runEPv:
  62              	.LFB71:
  63              		.file 2 "src/syscall_cpp.cpp"
   1:src/syscall_cpp.cpp **** #include "../h/syscall_cpp.hpp"
   2:src/syscall_cpp.cpp **** #include "../h/TCB.hpp"
   3:src/syscall_cpp.cpp **** #include "../h/semaphore.hpp"
   4:src/syscall_cpp.cpp **** 
   5:src/syscall_cpp.cpp **** 
   6:src/syscall_cpp.cpp **** 
   7:src/syscall_cpp.cpp **** void* operator new(size_t n) {
   8:src/syscall_cpp.cpp ****     return mem_alloc(n);
   9:src/syscall_cpp.cpp **** }
  10:src/syscall_cpp.cpp **** 
  11:src/syscall_cpp.cpp **** void* operator new[](size_t n) {
  12:src/syscall_cpp.cpp ****     return mem_alloc(n);
  13:src/syscall_cpp.cpp **** }
  14:src/syscall_cpp.cpp **** 
  15:src/syscall_cpp.cpp **** void operator delete(void* ptr) {
  16:src/syscall_cpp.cpp ****     mem_free(ptr);
  17:src/syscall_cpp.cpp **** }
  18:src/syscall_cpp.cpp **** 
  19:src/syscall_cpp.cpp **** void operator delete[](void* ptr) {
  20:src/syscall_cpp.cpp ****     mem_free(ptr);
  21:src/syscall_cpp.cpp **** }
  22:src/syscall_cpp.cpp **** 
  23:src/syscall_cpp.cpp **** Thread::Thread(void (*body)(void*), void *arg) {
  24:src/syscall_cpp.cpp ****     // inicijalizacija steka
  25:src/syscall_cpp.cpp ****     uint64 a4 = (body != nullptr) ? (uint64)mem_alloc(DEFAULT_STACK_SIZE) : 0;
  26:src/syscall_cpp.cpp **** 
  27:src/syscall_cpp.cpp ****     // kod sistemskog poziva
  28:src/syscall_cpp.cpp ****     uint64 a0 = 0x11;
  29:src/syscall_cpp.cpp ****     // parametri
  30:src/syscall_cpp.cpp ****     uint64  a1, a2, a3, a5, a6, a7;
  31:src/syscall_cpp.cpp ****     a1 = (uint64)&myHandle;
  32:src/syscall_cpp.cpp ****     a2 = (uint64)body;
  33:src/syscall_cpp.cpp ****     a3 = (uint64)arg;
  34:src/syscall_cpp.cpp ****     a6 = (uint64)false;
  35:src/syscall_cpp.cpp **** 
  36:src/syscall_cpp.cpp ****     a5 = a7 = 0;
  37:src/syscall_cpp.cpp **** 
  38:src/syscall_cpp.cpp ****     // void* pokazivac
  39:src/syscall_cpp.cpp ****     uint64 empty[8]= {a0, a1, a2, a3, a4, a5, a6, a7};
  40:src/syscall_cpp.cpp **** 
  41:src/syscall_cpp.cpp ****     // sistemski poziv
  42:src/syscall_cpp.cpp ****     abi::sys_call(reinterpret_cast<void *>(empty));
GAS LISTING /tmp/ccb1NzOc.s 			page 4


  43:src/syscall_cpp.cpp **** 
  44:src/syscall_cpp.cpp **** }
  45:src/syscall_cpp.cpp **** 
  46:src/syscall_cpp.cpp **** Thread::~Thread() {
  47:src/syscall_cpp.cpp ****     delete (TCB*)(myHandle);
  48:src/syscall_cpp.cpp **** }
  49:src/syscall_cpp.cpp **** 
  50:src/syscall_cpp.cpp **** int Thread::start() {
  51:src/syscall_cpp.cpp ****     put_in_scheduler(myHandle);
  52:src/syscall_cpp.cpp ****     return 0;
  53:src/syscall_cpp.cpp **** }
  54:src/syscall_cpp.cpp **** 
  55:src/syscall_cpp.cpp **** void Thread::dispatch() {
  56:src/syscall_cpp.cpp ****     thread_dispatch();
  57:src/syscall_cpp.cpp **** }
  58:src/syscall_cpp.cpp **** 
  59:src/syscall_cpp.cpp **** int Thread::sleep(time_t time) {
  60:src/syscall_cpp.cpp ****     return time_sleep(time);
  61:src/syscall_cpp.cpp **** }
  62:src/syscall_cpp.cpp **** 
  63:src/syscall_cpp.cpp **** Thread::Thread() {
  64:src/syscall_cpp.cpp ****     // inicijalizacija steka
  65:src/syscall_cpp.cpp ****     uint64 a4 = (uint64)mem_alloc(DEFAULT_STACK_SIZE);
  66:src/syscall_cpp.cpp **** 
  67:src/syscall_cpp.cpp ****     // kod sistemskog poziva
  68:src/syscall_cpp.cpp ****     uint64 a0 = 0x11;
  69:src/syscall_cpp.cpp ****     // parametri
  70:src/syscall_cpp.cpp ****     uint64  a1, a2, a3, a5, a6, a7;
  71:src/syscall_cpp.cpp ****     a1 = (uint64)&myHandle;
  72:src/syscall_cpp.cpp ****     a2 = (uint64)&wrapper_run;
  73:src/syscall_cpp.cpp ****     a3 = (uint64)this;
  74:src/syscall_cpp.cpp ****     a6 = (uint64)false;
  75:src/syscall_cpp.cpp **** 
  76:src/syscall_cpp.cpp ****     a5 = a7 = 0;
  77:src/syscall_cpp.cpp **** 
  78:src/syscall_cpp.cpp ****     // void* pokazivac
  79:src/syscall_cpp.cpp ****     uint64 empty[8]= {a0, a1, a2, a3, a4, a5, a6, a7};
  80:src/syscall_cpp.cpp **** 
  81:src/syscall_cpp.cpp ****     // sistemski poziv
  82:src/syscall_cpp.cpp ****     abi::sys_call(reinterpret_cast<void *>(empty));
  83:src/syscall_cpp.cpp **** 
  84:src/syscall_cpp.cpp **** }
  85:src/syscall_cpp.cpp **** 
  86:src/syscall_cpp.cpp **** void Thread::wrapper_run(void* thread) {
  64              		.loc 2 86 40 is_stmt 1
  65              		.cfi_startproc
  66              	.LVL2:
  67 0000 130101FF 		addi	sp,sp,-16
  68              		.cfi_def_cfa_offset 16
  69 0004 23341100 		sd	ra,8(sp)
  70 0008 23308100 		sd	s0,0(sp)
  71              		.cfi_offset 1, -8
  72              		.cfi_offset 8, -16
  73 000c 13040101 		addi	s0,sp,16
  74              		.cfi_def_cfa 8, 0
  87:src/syscall_cpp.cpp ****     ((Thread*)(thread))->run();
  75              		.loc 2 87 5
GAS LISTING /tmp/ccb1NzOc.s 			page 5


  76              		.loc 2 87 30 is_stmt 0
  77 0010 83370500 		ld	a5,0(a0)
  78 0014 83B70701 		ld	a5,16(a5)
  79              		.loc 2 87 29
  80 0018 E7800700 		jalr	a5
  81              	.LVL3:
  88:src/syscall_cpp.cpp **** }
  82              		.loc 2 88 1
  83 001c 83308100 		ld	ra,8(sp)
  84              		.cfi_restore 1
  85 0020 03340100 		ld	s0,0(sp)
  86              		.cfi_restore 8
  87              		.cfi_def_cfa 2, 16
  88 0024 13010101 		addi	sp,sp,16
  89              		.cfi_def_cfa_offset 0
  90 0028 67800000 		jr	ra
  91              		.cfi_endproc
  92              	.LFE71:
  94              		.align	2
  95              		.globl	_ZN9SemaphoreD2Ev
  97              	_ZN9SemaphoreD2Ev:
  98              	.LFB76:
  89:src/syscall_cpp.cpp **** 
  90:src/syscall_cpp.cpp **** Semaphore::Semaphore(unsigned int init) {
  91:src/syscall_cpp.cpp ****     sem_open(&myHandle, init);
  92:src/syscall_cpp.cpp **** }
  93:src/syscall_cpp.cpp **** 
  94:src/syscall_cpp.cpp **** Semaphore::~Semaphore() {
  99              		.loc 2 94 1 is_stmt 1
 100              		.cfi_startproc
 101              		.cfi_personality 0x9b,DW.ref.__gxx_personality_v0
 102              		.cfi_lsda 0x1b,.LLSDA76
 103              	.LVL4:
 104 002c 130101FE 		addi	sp,sp,-32
 105              		.cfi_def_cfa_offset 32
 106 0030 233C1100 		sd	ra,24(sp)
 107 0034 23388100 		sd	s0,16(sp)
 108 0038 23349100 		sd	s1,8(sp)
 109              		.cfi_offset 1, -8
 110              		.cfi_offset 8, -16
 111              		.cfi_offset 9, -24
 112 003c 13040102 		addi	s0,sp,32
 113              		.cfi_def_cfa 8, 0
 114              	.LBB27:
 115              		.loc 2 94 23 is_stmt 0
 116 0040 97070000 		lla	a5,_ZTV9Semaphore+16
 116      93870700 
 117 0048 2330F500 		sd	a5,0(a0)
  95:src/syscall_cpp.cpp ****     delete (MySemaphore*)myHandle;
 118              		.loc 2 95 5 is_stmt 1
 119              		.loc 2 95 26 is_stmt 0
 120 004c 83348500 		ld	s1,8(a0)
 121              		.loc 2 95 34
 122 0050 63880402 		beqz	s1,.L7
 123              	.LVL5:
 124              	.LBB28:
 125              	.LBB29:
GAS LISTING /tmp/ccb1NzOc.s 			page 6


 126              		.file 3 "src/../h/semaphore.hpp"
   1:src/../h/semaphore.hpp **** #ifndef _semaphore_hpp_
   2:src/../h/semaphore.hpp **** #define _semaphore_hpp_
   3:src/../h/semaphore.hpp **** 
   4:src/../h/semaphore.hpp **** #include "../lib/hw.h"
   5:src/../h/semaphore.hpp **** #include "../h/MemoryAllocator.hpp"
   6:src/../h/semaphore.hpp **** 
   7:src/../h/semaphore.hpp **** class TCB;
   8:src/../h/semaphore.hpp **** 
   9:src/../h/semaphore.hpp **** class MySemaphore{
  10:src/../h/semaphore.hpp **** public:
  11:src/../h/semaphore.hpp **** 
  12:src/../h/semaphore.hpp ****     ~MySemaphore(){ sem_close(this);}
 127              		.loc 3 12 21 is_stmt 1
 128              		.loc 3 12 30 is_stmt 0
 129 0054 13850400 		mv	a0,s1
 130              	.LVL6:
 131 0058 97000000 		call	_ZN11MySemaphore9sem_closeEPS_@plt
 131      E7800000 
 132              	.LVL7:
 133              	.LBE29:
 134              	.LBE28:
 135              	.LBB30:
 136              	.LBB31:
  13:src/../h/semaphore.hpp **** 
  14:src/../h/semaphore.hpp ****     static int sem_open(
  15:src/../h/semaphore.hpp ****           MySemaphore** handle,
  16:src/../h/semaphore.hpp ****           uint64 init
  17:src/../h/semaphore.hpp ****           );
  18:src/../h/semaphore.hpp ****     static int sem_close(MySemaphore* handle);
  19:src/../h/semaphore.hpp ****     static int sem_wait(MySemaphore* id);
  20:src/../h/semaphore.hpp ****     static int sem_signal(MySemaphore* id);
  21:src/../h/semaphore.hpp **** 
  22:src/../h/semaphore.hpp ****     void put_in_blocked(TCB* tcb);
  23:src/../h/semaphore.hpp **** 
  24:src/../h/semaphore.hpp ****     TCB* get_from_blocked();
  25:src/../h/semaphore.hpp **** 
  26:src/../h/semaphore.hpp ****     void block();
  27:src/../h/semaphore.hpp **** 
  28:src/../h/semaphore.hpp ****     void unblock();
  29:src/../h/semaphore.hpp **** 
  30:src/../h/semaphore.hpp ****     // getteri i setteri
  31:src/../h/semaphore.hpp ****     bool get_indicator()const{ return indicator; }
  32:src/../h/semaphore.hpp ****     void set_indicator(bool v){ indicator = v; }
  33:src/../h/semaphore.hpp ****     int get_val()const{ return val; }
  34:src/../h/semaphore.hpp ****     void set_val(int v){ val = v; }
  35:src/../h/semaphore.hpp **** 
  36:src/../h/semaphore.hpp ****     // operatori
  37:src/../h/semaphore.hpp ****     void *operator new(uint64 n){
  38:src/../h/semaphore.hpp ****         uint64 ssize = (n + MEM_BLOCK_SIZE - 1) / MEM_BLOCK_SIZE;
  39:src/../h/semaphore.hpp ****         return MemoryAllocator::getInstance().memory_alloc(ssize);
  40:src/../h/semaphore.hpp ****     }
  41:src/../h/semaphore.hpp **** 
  42:src/../h/semaphore.hpp ****     void *operator new[](uint64 n){
  43:src/../h/semaphore.hpp ****         uint64 ssize = (n + MEM_BLOCK_SIZE - 1) / MEM_BLOCK_SIZE;
  44:src/../h/semaphore.hpp ****         return MemoryAllocator::getInstance().memory_alloc(ssize);
  45:src/../h/semaphore.hpp ****     }
GAS LISTING /tmp/ccb1NzOc.s 			page 7


  46:src/../h/semaphore.hpp **** 
  47:src/../h/semaphore.hpp ****     void operator delete(void* p)noexcept{
  48:src/../h/semaphore.hpp ****         MemoryAllocator::getInstance().memory_free(p);
 137              		.loc 3 48 9 is_stmt 1
 138              	.LBB32:
 139              	.LBB33:
 140              		.file 4 "src/../h/../h/../h/../h/MemoryAllocator.hpp"
   1:src/../h/../h/../h/../h/MemoryAllocator.hpp **** #ifndef _memory_allocator_hpp_
   2:src/../h/../h/../h/../h/MemoryAllocator.hpp **** #define _memory_allocator_hpp_
   3:src/../h/../h/../h/../h/MemoryAllocator.hpp **** 
   4:src/../h/../h/../h/../h/MemoryAllocator.hpp **** #include "../lib/hw.h"
   5:src/../h/../h/../h/../h/MemoryAllocator.hpp **** 
   6:src/../h/../h/../h/../h/MemoryAllocator.hpp **** class MemoryAllocator{
   7:src/../h/../h/../h/../h/MemoryAllocator.hpp **** public:
   8:src/../h/../h/../h/../h/MemoryAllocator.hpp **** 
   9:src/../h/../h/../h/../h/MemoryAllocator.hpp ****     // dodaj instancu
  10:src/../h/../h/../h/../h/MemoryAllocator.hpp ****     static MemoryAllocator& getInstance(){
  11:src/../h/../h/../h/../h/MemoryAllocator.hpp ****         static MemoryAllocator instance;
 141              		.loc 4 11 9
 142              		.loc 4 11 32 is_stmt 0
 143 0060 97070000 		lbu	a5,_ZGVZN15MemoryAllocator11getInstanceEvE8instance
 143      83C70700 
 144 0068 63860702 		beqz	a5,.L12
 145              	.L9:
  12:src/../h/../h/../h/../h/MemoryAllocator.hpp ****         return instance;
 146              		.loc 4 12 9 is_stmt 1
 147              	.LBE33:
 148              	.LBE32:
 149              		.loc 3 48 51 is_stmt 0
 150 006c 93850400 		mv	a1,s1
 151 0070 17050000 		lla	a0,_ZZN15MemoryAllocator11getInstanceEvE8instance
 151      13050500 
 152 0078 97000000 		call	_ZN15MemoryAllocator11memory_freeEPv@plt
 152      E7800000 
 153              	.LVL8:
 154              	.L7:
 155              	.LBE31:
 156              	.LBE30:
 157              	.LBE27:
  96:src/syscall_cpp.cpp **** }
 158              		.loc 2 96 1
 159 0080 83308101 		ld	ra,24(sp)
 160              		.cfi_remember_state
 161              		.cfi_restore 1
 162 0084 03340101 		ld	s0,16(sp)
 163              		.cfi_restore 8
 164              		.cfi_def_cfa 2, 32
 165 0088 83348100 		ld	s1,8(sp)
 166              		.cfi_restore 9
 167 008c 13010102 		addi	sp,sp,32
 168              		.cfi_def_cfa_offset 0
 169 0090 67800000 		jr	ra
 170              	.LVL9:
 171              	.L12:
 172              		.cfi_restore_state
 173              	.LBB42:
 174              	.LBB41:
GAS LISTING /tmp/ccb1NzOc.s 			page 8


 175              	.LBB40:
 176              	.LBB39:
 177              	.LBB38:
 178              	.LBB34:
 179              	.LBB35:
 180              	.LBB36:
  13:src/../h/../h/../h/../h/MemoryAllocator.hpp ****     }
  14:src/../h/../h/../h/../h/MemoryAllocator.hpp **** 
  15:src/../h/../h/../h/../h/MemoryAllocator.hpp ****     MemoryAllocator(const MemoryAllocator&) = delete;
  16:src/../h/../h/../h/../h/MemoryAllocator.hpp ****     void operator=(MemoryAllocator const&) = delete;
  17:src/../h/../h/../h/../h/MemoryAllocator.hpp **** 
  18:src/../h/../h/../h/../h/MemoryAllocator.hpp ****     void* memory_alloc (size_t);
  19:src/../h/../h/../h/../h/MemoryAllocator.hpp **** 
  20:src/../h/../h/../h/../h/MemoryAllocator.hpp ****     int memory_free (void*);
  21:src/../h/../h/../h/../h/MemoryAllocator.hpp ****     int get_mem_alloc_heap_start(){return this->heapStart;}
  22:src/../h/../h/../h/../h/MemoryAllocator.hpp ****     int get_mem_alloc_heap_end(){return this->heapEnd;}
  23:src/../h/../h/../h/../h/MemoryAllocator.hpp **** 
  24:src/../h/../h/../h/../h/MemoryAllocator.hpp **** private:
  25:src/../h/../h/../h/../h/MemoryAllocator.hpp **** 
  26:src/../h/../h/../h/../h/MemoryAllocator.hpp ****     struct FreeMem{
  27:src/../h/../h/../h/../h/MemoryAllocator.hpp ****         size_t size;
  28:src/../h/../h/../h/../h/MemoryAllocator.hpp ****         FreeMem* next;
  29:src/../h/../h/../h/../h/MemoryAllocator.hpp ****         FreeMem* prev;
  30:src/../h/../h/../h/../h/MemoryAllocator.hpp ****     };
  31:src/../h/../h/../h/../h/MemoryAllocator.hpp **** 
  32:src/../h/../h/../h/../h/MemoryAllocator.hpp ****     FreeMem* fmem_head = nullptr;
  33:src/../h/../h/../h/../h/MemoryAllocator.hpp ****     size_t heapStart;
  34:src/../h/../h/../h/../h/MemoryAllocator.hpp ****     size_t heapEnd;
  35:src/../h/../h/../h/../h/MemoryAllocator.hpp **** 
  36:src/../h/../h/../h/../h/MemoryAllocator.hpp ****     MemoryAllocator(){
 181              		.loc 4 36 22
 182 0094 17060000 		lla	a2,_ZZN15MemoryAllocator11getInstanceEvE8instance
 182      13060600 
 183              	.LBB37:
  37:src/../h/../h/../h/../h/MemoryAllocator.hpp **** 
  38:src/../h/../h/../h/../h/MemoryAllocator.hpp ****         heapStart = (size_t)HEAP_START_ADDR + ((size_t)HEAP_END_ADDR - (size_t)HEAP_START_ADDR) / 8
 184              		.loc 4 38 9 is_stmt 1
 185              		.loc 4 38 70 is_stmt 0
 186 009c 97070000 		la	a5,HEAP_END_ADDR
 186      83B70700 
 187 00a4 03B70700 		ld	a4,0(a5)
 188 00a8 97070000 		la	a5,HEAP_START_ADDR
 188      83B70700 
 189 00b0 83B70700 		ld	a5,0(a5)
 190 00b4 B306F740 		sub	a3,a4,a5
 191              		.loc 4 38 97
 192 00b8 93D63600 		srli	a3,a3,3
 193              		.loc 4 38 45
 194 00bc B387D700 		add	a5,a5,a3
 195              		.loc 4 38 101
 196 00c0 93871700 		addi	a5,a5,1
 197              		.loc 4 38 19
 198 00c4 2334F600 		sd	a5,8(a2)
  39:src/../h/../h/../h/../h/MemoryAllocator.hpp ****         heapEnd = (size_t)HEAP_END_ADDR - 1;
 199              		.loc 4 39 9 is_stmt 1
 200              		.loc 4 39 41 is_stmt 0
 201 00c8 1307F7FF 		addi	a4,a4,-1
GAS LISTING /tmp/ccb1NzOc.s 			page 9


 202              		.loc 4 39 17
 203 00cc 2338E600 		sd	a4,16(a2)
  40:src/../h/../h/../h/../h/MemoryAllocator.hpp **** 
  41:src/../h/../h/../h/../h/MemoryAllocator.hpp ****         size_t sizeInBlocks = (heapEnd - heapStart) / MEM_BLOCK_SIZE;
 204              		.loc 4 41 9 is_stmt 1
 205              		.loc 4 41 40 is_stmt 0
 206 00d0 3307F740 		sub	a4,a4,a5
 207              		.loc 4 41 16
 208 00d4 13576700 		srli	a4,a4,6
 209              	.LVL10:
  42:src/../h/../h/../h/../h/MemoryAllocator.hpp **** 
  43:src/../h/../h/../h/../h/MemoryAllocator.hpp ****         // poravnaj na prvu krstenu adresu
  44:src/../h/../h/../h/../h/MemoryAllocator.hpp ****         fmem_head = (FreeMem*)(heapStart + ((heapStart % MEM_BLOCK_SIZE != 0)?(MEM_BLOCK_SIZE - hea
 210              		.loc 4 44 9 is_stmt 1
 211              		.loc 4 44 56 is_stmt 0
 212 00d8 93F6F703 		andi	a3,a5,63
 213              		.loc 4 44 78
 214 00dc 63860600 		beqz	a3,.L10
 215 00e0 13060004 		li	a2,64
 216 00e4 B306D640 		sub	a3,a2,a3
 217              	.L10:
 218              		.loc 4 44 42
 219 00e8 B387D700 		add	a5,a5,a3
 220              		.loc 4 44 19
 221 00ec 97060000 		sd	a5,_ZZN15MemoryAllocator11getInstanceEvE8instance,a3
 221      23B0F600 
  45:src/../h/../h/../h/../h/MemoryAllocator.hpp **** 
  46:src/../h/../h/../h/../h/MemoryAllocator.hpp ****         // napravi node
  47:src/../h/../h/../h/../h/MemoryAllocator.hpp **** 
  48:src/../h/../h/../h/../h/MemoryAllocator.hpp ****         fmem_head->next = nullptr;
 222              		.loc 4 48 9 is_stmt 1
 223              		.loc 4 48 25 is_stmt 0
 224 00f4 23B40700 		sd	zero,8(a5)
  49:src/../h/../h/../h/../h/MemoryAllocator.hpp ****         fmem_head->prev = nullptr;
 225              		.loc 4 49 9 is_stmt 1
 226              		.loc 4 49 25 is_stmt 0
 227 00f8 23B80700 		sd	zero,16(a5)
  50:src/../h/../h/../h/../h/MemoryAllocator.hpp ****         fmem_head->size = sizeInBlocks;
 228              		.loc 4 50 9 is_stmt 1
 229              		.loc 4 50 25 is_stmt 0
 230 00fc 23B0E700 		sd	a4,0(a5)
 231              	.LVL11:
 232              	.LBE37:
 233              	.LBE36:
 234              	.LBE35:
 235              	.LBE34:
  11:src/../h/../h/../h/../h/MemoryAllocator.hpp ****         return instance;
 236              		.loc 4 11 32
 237 0100 93071000 		li	a5,1
 238 0104 17070000 		sb	a5,_ZGVZN15MemoryAllocator11getInstanceEvE8instance,a4
 238      2300F700 
 239 010c 6FF01FF6 		j	.L9
 240              	.LBE38:
 241              	.LBE39:
 242              	.LBE40:
 243              	.LBE41:
 244              	.LBE42:
GAS LISTING /tmp/ccb1NzOc.s 			page 10


 245              		.cfi_endproc
 246              	.LFE76:
 247              		.globl	__gxx_personality_v0
 248              		.section	.gcc_except_table,"a",@progbits
 249              	.LLSDA76:
 250 0000 FF       		.byte	0xff
 251 0001 FF       		.byte	0xff
 252 0002 03       		.byte	0x3
 253 0003 00       		.byte	0
 254              		.text
 256              		.globl	_ZN9SemaphoreD1Ev
 257              		.set	_ZN9SemaphoreD1Ev,_ZN9SemaphoreD2Ev
 258              		.align	2
 259              		.globl	_ZN6ThreadD2Ev
 261              	_ZN6ThreadD2Ev:
 262              	.LFB62:
  46:src/syscall_cpp.cpp ****     delete (TCB*)(myHandle);
 263              		.loc 2 46 1 is_stmt 1
 264              		.cfi_startproc
 265              		.cfi_personality 0x9b,DW.ref.__gxx_personality_v0
 266              		.cfi_lsda 0x1b,.LLSDA62
 267              	.LVL12:
 268 0110 130101FE 		addi	sp,sp,-32
 269              		.cfi_def_cfa_offset 32
 270 0114 233C1100 		sd	ra,24(sp)
 271 0118 23388100 		sd	s0,16(sp)
 272 011c 23349100 		sd	s1,8(sp)
 273              		.cfi_offset 1, -8
 274              		.cfi_offset 8, -16
 275              		.cfi_offset 9, -24
 276 0120 13040102 		addi	s0,sp,32
 277              		.cfi_def_cfa 8, 0
 278              	.LBB61:
  46:src/syscall_cpp.cpp ****     delete (TCB*)(myHandle);
 279              		.loc 2 46 17 is_stmt 0
 280 0124 97070000 		lla	a5,_ZTV6Thread+16
 280      93870700 
 281 012c 2330F500 		sd	a5,0(a0)
  47:src/syscall_cpp.cpp **** }
 282              		.loc 2 47 5 is_stmt 1
  47:src/syscall_cpp.cpp **** }
 283              		.loc 2 47 19 is_stmt 0
 284 0130 83348500 		ld	s1,8(a0)
  47:src/syscall_cpp.cpp **** }
 285              		.loc 2 47 28
 286 0134 63820404 		beqz	s1,.L13
 287              	.LVL13:
 288              	.LBB62:
 289              	.LBB63:
 290              		.file 5 "src/../h/../h/../h/../h/TCB.hpp"
   1:src/../h/../h/../h/../h/TCB.hpp **** #ifndef _thread_hpp_
   2:src/../h/../h/../h/../h/TCB.hpp **** #define _thread_hpp_
   3:src/../h/../h/../h/../h/TCB.hpp **** 
   4:src/../h/../h/../h/../h/TCB.hpp **** #include "../lib/hw.h"
   5:src/../h/../h/../h/../h/TCB.hpp **** #include "../h/scheduler.hpp"
   6:src/../h/../h/../h/../h/TCB.hpp **** #include "../h/MemoryAllocator.hpp"
   7:src/../h/../h/../h/../h/TCB.hpp **** #include "../h/TS.hpp"
GAS LISTING /tmp/ccb1NzOc.s 			page 11


   8:src/../h/../h/../h/../h/TCB.hpp **** #include "../h/periodic_threads.hpp"
   9:src/../h/../h/../h/../h/TCB.hpp **** 
  10:src/../h/../h/../h/../h/TCB.hpp **** class TCB{
  11:src/../h/../h/../h/../h/TCB.hpp **** public:
  12:src/../h/../h/../h/../h/TCB.hpp **** 
  13:src/../h/../h/../h/../h/TCB.hpp ****     ~TCB(){
  14:src/../h/../h/../h/../h/TCB.hpp ****         MemoryAllocator::getInstance().memory_free((void*)stack);
 291              		.loc 5 14 9 is_stmt 1
 292              	.LBB64:
 293              	.LBB65:
  11:src/../h/../h/../h/../h/MemoryAllocator.hpp ****         return instance;
 294              		.loc 4 11 9
  11:src/../h/../h/../h/../h/MemoryAllocator.hpp ****         return instance;
 295              		.loc 4 11 32 is_stmt 0
 296 0138 97070000 		lbu	a5,_ZGVZN15MemoryAllocator11getInstanceEvE8instance
 296      83C70700 
 297 0140 63860704 		beqz	a5,.L20
 298              	.L15:
  12:src/../h/../h/../h/../h/MemoryAllocator.hpp ****     }
 299              		.loc 4 12 9 is_stmt 1
 300              	.LBE65:
 301              	.LBE64:
 302              		.loc 5 14 51 is_stmt 0
 303 0144 83B50401 		ld	a1,16(s1)
 304 0148 17050000 		lla	a0,_ZZN15MemoryAllocator11getInstanceEvE8instance
 304      13050500 
 305              	.LVL14:
 306 0150 97000000 		call	_ZN15MemoryAllocator11memory_freeEPv@plt
 306      E7800000 
 307              	.LVL15:
 308              	.LBE63:
 309              	.LBE62:
 310              	.LBB73:
 311              	.LBB74:
  15:src/../h/../h/../h/../h/TCB.hpp ****     }
  16:src/../h/../h/../h/../h/TCB.hpp **** 
  17:src/../h/../h/../h/../h/TCB.hpp ****     using Body = void (*)(void*);
  18:src/../h/../h/../h/../h/TCB.hpp **** 
  19:src/../h/../h/../h/../h/TCB.hpp ****     // trazene
  20:src/../h/../h/../h/../h/TCB.hpp ****     static int thread_create(
  21:src/../h/../h/../h/../h/TCB.hpp ****         TCB** handle,
  22:src/../h/../h/../h/../h/TCB.hpp ****         void(*start_routine)(void*),
  23:src/../h/../h/../h/../h/TCB.hpp ****         void* arg,
  24:src/../h/../h/../h/../h/TCB.hpp ****         void* stack_space,
  25:src/../h/../h/../h/../h/TCB.hpp ****         bool flag
  26:src/../h/../h/../h/../h/TCB.hpp ****     );
  27:src/../h/../h/../h/../h/TCB.hpp **** 
  28:src/../h/../h/../h/../h/TCB.hpp ****     static int thread_exit();
  29:src/../h/../h/../h/../h/TCB.hpp **** 
  30:src/../h/../h/../h/../h/TCB.hpp ****     static void thread_dispatch();
  31:src/../h/../h/../h/../h/TCB.hpp **** 
  32:src/../h/../h/../h/../h/TCB.hpp ****     static int time_sleep(uint64 time);
  33:src/../h/../h/../h/../h/TCB.hpp **** 
  34:src/../h/../h/../h/../h/TCB.hpp ****     // getteri i setteri
  35:src/../h/../h/../h/../h/TCB.hpp ****     void set_finished(bool f){ this->finished = f; }
  36:src/../h/../h/../h/../h/TCB.hpp **** 
  37:src/../h/../h/../h/../h/TCB.hpp ****     bool is_finished()const{return finished;}
GAS LISTING /tmp/ccb1NzOc.s 			page 12


  38:src/../h/../h/../h/../h/TCB.hpp **** 
  39:src/../h/../h/../h/../h/TCB.hpp ****     void set_next_scheduler(TCB* nextThread){ next_scheduler = nextThread; }
  40:src/../h/../h/../h/../h/TCB.hpp **** 
  41:src/../h/../h/../h/../h/TCB.hpp ****     TCB* get_next_scheduler()const{ return next_scheduler; }
  42:src/../h/../h/../h/../h/TCB.hpp **** 
  43:src/../h/../h/../h/../h/TCB.hpp ****     void set_next_sleep(TCB* nextThread){ next_sleep = nextThread; }
  44:src/../h/../h/../h/../h/TCB.hpp **** 
  45:src/../h/../h/../h/../h/TCB.hpp ****     TCB* get_next_sleep()const{ return next_sleep; }
  46:src/../h/../h/../h/../h/TCB.hpp **** 
  47:src/../h/../h/../h/../h/TCB.hpp ****     void set_next_blocked(TCB* nextThread){ next_blocked = nextThread; }
  48:src/../h/../h/../h/../h/TCB.hpp **** 
  49:src/../h/../h/../h/../h/TCB.hpp ****     TCB* get_next_blocked()const{ return next_blocked; }
  50:src/../h/../h/../h/../h/TCB.hpp **** 
  51:src/../h/../h/../h/../h/TCB.hpp ****     uint64 get_thread_id()const{ return id; }
  52:src/../h/../h/../h/../h/TCB.hpp **** 
  53:src/../h/../h/../h/../h/TCB.hpp ****     uint64 get_time_sleep()const{ return sleep; }
  54:src/../h/../h/../h/../h/TCB.hpp **** 
  55:src/../h/../h/../h/../h/TCB.hpp ****     void set_time_sleep(uint64 new_time){ sleep = new_time; }
  56:src/../h/../h/../h/../h/TCB.hpp **** 
  57:src/../h/../h/../h/../h/TCB.hpp ****     uint64 get_time_slice()const{ return time_slice; }
  58:src/../h/../h/../h/../h/TCB.hpp **** 
  59:src/../h/../h/../h/../h/TCB.hpp ****     void set_periodic(bool b){
  60:src/../h/../h/../h/../h/TCB.hpp ****         periodic = b;
  61:src/../h/../h/../h/../h/TCB.hpp ****         periodicThread::getInstance().put(this);
  62:src/../h/../h/../h/../h/TCB.hpp ****     }
  63:src/../h/../h/../h/../h/TCB.hpp **** 
  64:src/../h/../h/../h/../h/TCB.hpp ****     void set_next_period(TCB* tcb){ next_period = tcb; }
  65:src/../h/../h/../h/../h/TCB.hpp **** 
  66:src/../h/../h/../h/../h/TCB.hpp ****     TCB* get_next_period()const{return next_period;}
  67:src/../h/../h/../h/../h/TCB.hpp **** 
  68:src/../h/../h/../h/../h/TCB.hpp ****     static void yield();
  69:src/../h/../h/../h/../h/TCB.hpp **** 
  70:src/../h/../h/../h/../h/TCB.hpp ****     // operatori
  71:src/../h/../h/../h/../h/TCB.hpp ****     void *operator new(uint64 n){
  72:src/../h/../h/../h/../h/TCB.hpp ****         uint64 ssize = (n + MEM_BLOCK_SIZE - 1) / MEM_BLOCK_SIZE;
  73:src/../h/../h/../h/../h/TCB.hpp ****         return MemoryAllocator::getInstance().memory_alloc(ssize);
  74:src/../h/../h/../h/../h/TCB.hpp ****     }
  75:src/../h/../h/../h/../h/TCB.hpp **** 
  76:src/../h/../h/../h/../h/TCB.hpp ****     void *operator new[](uint64 n){
  77:src/../h/../h/../h/../h/TCB.hpp ****         uint64 ssize = (n + MEM_BLOCK_SIZE - 1) / MEM_BLOCK_SIZE;
  78:src/../h/../h/../h/../h/TCB.hpp ****         return MemoryAllocator::getInstance().memory_alloc(ssize);
  79:src/../h/../h/../h/../h/TCB.hpp ****     }
  80:src/../h/../h/../h/../h/TCB.hpp **** 
  81:src/../h/../h/../h/../h/TCB.hpp ****     void operator delete(void* p)noexcept{
  82:src/../h/../h/../h/../h/TCB.hpp ****         MemoryAllocator::getInstance().memory_free(p);
 312              		.loc 5 82 9 is_stmt 1
 313              	.LBB75:
 314              	.LBB76:
  11:src/../h/../h/../h/../h/MemoryAllocator.hpp ****         return instance;
 315              		.loc 4 11 9
  11:src/../h/../h/../h/../h/MemoryAllocator.hpp ****         return instance;
 316              		.loc 4 11 32 is_stmt 0
 317 0158 97070000 		lbu	a5,_ZGVZN15MemoryAllocator11getInstanceEvE8instance
 317      83C70700 
 318 0160 6384070A 		beqz	a5,.L21
 319              	.L17:
  12:src/../h/../h/../h/../h/MemoryAllocator.hpp ****     }
GAS LISTING /tmp/ccb1NzOc.s 			page 13


 320              		.loc 4 12 9 is_stmt 1
 321              	.LBE76:
 322              	.LBE75:
 323              		.loc 5 82 51 is_stmt 0
 324 0164 93850400 		mv	a1,s1
 325 0168 17050000 		lla	a0,_ZZN15MemoryAllocator11getInstanceEvE8instance
 325      13050500 
 326 0170 97000000 		call	_ZN15MemoryAllocator11memory_freeEPv@plt
 326      E7800000 
 327              	.LVL16:
 328              	.L13:
 329              	.LBE74:
 330              	.LBE73:
 331              	.LBE61:
  48:src/syscall_cpp.cpp **** 
 332              		.loc 2 48 1
 333 0178 83308101 		ld	ra,24(sp)
 334              		.cfi_remember_state
 335              		.cfi_restore 1
 336 017c 03340101 		ld	s0,16(sp)
 337              		.cfi_restore 8
 338              		.cfi_def_cfa 2, 32
 339 0180 83348100 		ld	s1,8(sp)
 340              		.cfi_restore 9
 341 0184 13010102 		addi	sp,sp,32
 342              		.cfi_def_cfa_offset 0
 343 0188 67800000 		jr	ra
 344              	.LVL17:
 345              	.L20:
 346              		.cfi_restore_state
 347              	.LBB86:
 348              	.LBB84:
 349              	.LBB72:
 350              	.LBB71:
 351              	.LBB70:
 352              	.LBB66:
 353              	.LBB67:
 354              	.LBB68:
  36:src/../h/../h/../h/../h/MemoryAllocator.hpp **** 
 355              		.loc 4 36 22
 356 018c 17060000 		lla	a2,_ZZN15MemoryAllocator11getInstanceEvE8instance
 356      13060600 
 357              	.LBB69:
  38:src/../h/../h/../h/../h/MemoryAllocator.hpp ****         heapEnd = (size_t)HEAP_END_ADDR - 1;
 358              		.loc 4 38 9 is_stmt 1
  38:src/../h/../h/../h/../h/MemoryAllocator.hpp ****         heapEnd = (size_t)HEAP_END_ADDR - 1;
 359              		.loc 4 38 70 is_stmt 0
 360 0194 97070000 		la	a5,HEAP_END_ADDR
 360      83B70700 
 361 019c 03B70700 		ld	a4,0(a5)
 362 01a0 97070000 		la	a5,HEAP_START_ADDR
 362      83B70700 
 363 01a8 83B70700 		ld	a5,0(a5)
 364 01ac B306F740 		sub	a3,a4,a5
  38:src/../h/../h/../h/../h/MemoryAllocator.hpp ****         heapEnd = (size_t)HEAP_END_ADDR - 1;
 365              		.loc 4 38 97
 366 01b0 93D63600 		srli	a3,a3,3
GAS LISTING /tmp/ccb1NzOc.s 			page 14


  38:src/../h/../h/../h/../h/MemoryAllocator.hpp ****         heapEnd = (size_t)HEAP_END_ADDR - 1;
 367              		.loc 4 38 45
 368 01b4 B387D700 		add	a5,a5,a3
  38:src/../h/../h/../h/../h/MemoryAllocator.hpp ****         heapEnd = (size_t)HEAP_END_ADDR - 1;
 369              		.loc 4 38 101
 370 01b8 93871700 		addi	a5,a5,1
  38:src/../h/../h/../h/../h/MemoryAllocator.hpp ****         heapEnd = (size_t)HEAP_END_ADDR - 1;
 371              		.loc 4 38 19
 372 01bc 2334F600 		sd	a5,8(a2)
  39:src/../h/../h/../h/../h/MemoryAllocator.hpp **** 
 373              		.loc 4 39 9 is_stmt 1
  39:src/../h/../h/../h/../h/MemoryAllocator.hpp **** 
 374              		.loc 4 39 41 is_stmt 0
 375 01c0 1307F7FF 		addi	a4,a4,-1
  39:src/../h/../h/../h/../h/MemoryAllocator.hpp **** 
 376              		.loc 4 39 17
 377 01c4 2338E600 		sd	a4,16(a2)
  41:src/../h/../h/../h/../h/MemoryAllocator.hpp **** 
 378              		.loc 4 41 9 is_stmt 1
  41:src/../h/../h/../h/../h/MemoryAllocator.hpp **** 
 379              		.loc 4 41 40 is_stmt 0
 380 01c8 3307F740 		sub	a4,a4,a5
  41:src/../h/../h/../h/../h/MemoryAllocator.hpp **** 
 381              		.loc 4 41 16
 382 01cc 13576700 		srli	a4,a4,6
 383              	.LVL18:
  44:src/../h/../h/../h/../h/MemoryAllocator.hpp **** 
 384              		.loc 4 44 9 is_stmt 1
  44:src/../h/../h/../h/../h/MemoryAllocator.hpp **** 
 385              		.loc 4 44 56 is_stmt 0
 386 01d0 93F6F703 		andi	a3,a5,63
  44:src/../h/../h/../h/../h/MemoryAllocator.hpp **** 
 387              		.loc 4 44 78
 388 01d4 63860600 		beqz	a3,.L16
 389 01d8 13060004 		li	a2,64
 390 01dc B306D640 		sub	a3,a2,a3
 391              	.L16:
  44:src/../h/../h/../h/../h/MemoryAllocator.hpp **** 
 392              		.loc 4 44 42
 393 01e0 B387D700 		add	a5,a5,a3
  44:src/../h/../h/../h/../h/MemoryAllocator.hpp **** 
 394              		.loc 4 44 19
 395 01e4 97060000 		sd	a5,_ZZN15MemoryAllocator11getInstanceEvE8instance,a3
 395      23B0F600 
  48:src/../h/../h/../h/../h/MemoryAllocator.hpp ****         fmem_head->prev = nullptr;
 396              		.loc 4 48 9 is_stmt 1
  48:src/../h/../h/../h/../h/MemoryAllocator.hpp ****         fmem_head->prev = nullptr;
 397              		.loc 4 48 25 is_stmt 0
 398 01ec 23B40700 		sd	zero,8(a5)
  49:src/../h/../h/../h/../h/MemoryAllocator.hpp ****         fmem_head->size = sizeInBlocks;
 399              		.loc 4 49 9 is_stmt 1
  49:src/../h/../h/../h/../h/MemoryAllocator.hpp ****         fmem_head->size = sizeInBlocks;
 400              		.loc 4 49 25 is_stmt 0
 401 01f0 23B80700 		sd	zero,16(a5)
 402              		.loc 4 50 9 is_stmt 1
 403              		.loc 4 50 25 is_stmt 0
 404 01f4 23B0E700 		sd	a4,0(a5)
GAS LISTING /tmp/ccb1NzOc.s 			page 15


 405              	.LVL19:
 406              	.LBE69:
 407              	.LBE68:
 408              	.LBE67:
 409              	.LBE66:
  11:src/../h/../h/../h/../h/MemoryAllocator.hpp ****         return instance;
 410              		.loc 4 11 32
 411 01f8 93071000 		li	a5,1
 412 01fc 17070000 		sb	a5,_ZGVZN15MemoryAllocator11getInstanceEvE8instance,a4
 412      2300F700 
 413 0204 6FF01FF4 		j	.L15
 414              	.LVL20:
 415              	.L21:
 416              	.LBE70:
 417              	.LBE71:
 418              	.LBE72:
 419              	.LBE84:
 420              	.LBB85:
 421              	.LBB83:
 422              	.LBB82:
 423              	.LBB81:
 424              	.LBB77:
 425              	.LBB78:
 426              	.LBB79:
  36:src/../h/../h/../h/../h/MemoryAllocator.hpp **** 
 427              		.loc 4 36 22
 428 0208 17060000 		lla	a2,_ZZN15MemoryAllocator11getInstanceEvE8instance
 428      13060600 
 429              	.LBB80:
  38:src/../h/../h/../h/../h/MemoryAllocator.hpp ****         heapEnd = (size_t)HEAP_END_ADDR - 1;
 430              		.loc 4 38 9 is_stmt 1
  38:src/../h/../h/../h/../h/MemoryAllocator.hpp ****         heapEnd = (size_t)HEAP_END_ADDR - 1;
 431              		.loc 4 38 70 is_stmt 0
 432 0210 97070000 		la	a5,HEAP_END_ADDR
 432      83B70700 
 433 0218 03B70700 		ld	a4,0(a5)
 434 021c 97070000 		la	a5,HEAP_START_ADDR
 434      83B70700 
 435 0224 83B70700 		ld	a5,0(a5)
 436 0228 B306F740 		sub	a3,a4,a5
  38:src/../h/../h/../h/../h/MemoryAllocator.hpp ****         heapEnd = (size_t)HEAP_END_ADDR - 1;
 437              		.loc 4 38 97
 438 022c 93D63600 		srli	a3,a3,3
  38:src/../h/../h/../h/../h/MemoryAllocator.hpp ****         heapEnd = (size_t)HEAP_END_ADDR - 1;
 439              		.loc 4 38 45
 440 0230 B387D700 		add	a5,a5,a3
  38:src/../h/../h/../h/../h/MemoryAllocator.hpp ****         heapEnd = (size_t)HEAP_END_ADDR - 1;
 441              		.loc 4 38 101
 442 0234 93871700 		addi	a5,a5,1
  38:src/../h/../h/../h/../h/MemoryAllocator.hpp ****         heapEnd = (size_t)HEAP_END_ADDR - 1;
 443              		.loc 4 38 19
 444 0238 2334F600 		sd	a5,8(a2)
  39:src/../h/../h/../h/../h/MemoryAllocator.hpp **** 
 445              		.loc 4 39 9 is_stmt 1
  39:src/../h/../h/../h/../h/MemoryAllocator.hpp **** 
 446              		.loc 4 39 41 is_stmt 0
 447 023c 1307F7FF 		addi	a4,a4,-1
GAS LISTING /tmp/ccb1NzOc.s 			page 16


  39:src/../h/../h/../h/../h/MemoryAllocator.hpp **** 
 448              		.loc 4 39 17
 449 0240 2338E600 		sd	a4,16(a2)
  41:src/../h/../h/../h/../h/MemoryAllocator.hpp **** 
 450              		.loc 4 41 9 is_stmt 1
  41:src/../h/../h/../h/../h/MemoryAllocator.hpp **** 
 451              		.loc 4 41 40 is_stmt 0
 452 0244 3307F740 		sub	a4,a4,a5
  41:src/../h/../h/../h/../h/MemoryAllocator.hpp **** 
 453              		.loc 4 41 16
 454 0248 13576700 		srli	a4,a4,6
 455              	.LVL21:
  44:src/../h/../h/../h/../h/MemoryAllocator.hpp **** 
 456              		.loc 4 44 9 is_stmt 1
  44:src/../h/../h/../h/../h/MemoryAllocator.hpp **** 
 457              		.loc 4 44 56 is_stmt 0
 458 024c 93F6F703 		andi	a3,a5,63
  44:src/../h/../h/../h/../h/MemoryAllocator.hpp **** 
 459              		.loc 4 44 78
 460 0250 63860600 		beqz	a3,.L18
 461 0254 13060004 		li	a2,64
 462 0258 B306D640 		sub	a3,a2,a3
 463              	.L18:
  44:src/../h/../h/../h/../h/MemoryAllocator.hpp **** 
 464              		.loc 4 44 42
 465 025c B387D700 		add	a5,a5,a3
  44:src/../h/../h/../h/../h/MemoryAllocator.hpp **** 
 466              		.loc 4 44 19
 467 0260 97060000 		sd	a5,_ZZN15MemoryAllocator11getInstanceEvE8instance,a3
 467      23B0F600 
  48:src/../h/../h/../h/../h/MemoryAllocator.hpp ****         fmem_head->prev = nullptr;
 468              		.loc 4 48 9 is_stmt 1
  48:src/../h/../h/../h/../h/MemoryAllocator.hpp ****         fmem_head->prev = nullptr;
 469              		.loc 4 48 25 is_stmt 0
 470 0268 23B40700 		sd	zero,8(a5)
  49:src/../h/../h/../h/../h/MemoryAllocator.hpp ****         fmem_head->size = sizeInBlocks;
 471              		.loc 4 49 9 is_stmt 1
  49:src/../h/../h/../h/../h/MemoryAllocator.hpp ****         fmem_head->size = sizeInBlocks;
 472              		.loc 4 49 25 is_stmt 0
 473 026c 23B80700 		sd	zero,16(a5)
 474              		.loc 4 50 9 is_stmt 1
 475              		.loc 4 50 25 is_stmt 0
 476 0270 23B0E700 		sd	a4,0(a5)
 477              	.LVL22:
 478              	.LBE80:
 479              	.LBE79:
 480              	.LBE78:
 481              	.LBE77:
  11:src/../h/../h/../h/../h/MemoryAllocator.hpp ****         return instance;
 482              		.loc 4 11 32
 483 0274 93071000 		li	a5,1
 484 0278 17070000 		sb	a5,_ZGVZN15MemoryAllocator11getInstanceEvE8instance,a4
 484      2300F700 
 485 0280 6FF05FEE 		j	.L17
 486              	.LBE81:
 487              	.LBE82:
 488              	.LBE83:
GAS LISTING /tmp/ccb1NzOc.s 			page 17


 489              	.LBE85:
 490              	.LBE86:
 491              		.cfi_endproc
 492              	.LFE62:
 493              		.section	.gcc_except_table
 494              	.LLSDA62:
 495 0004 FF       		.byte	0xff
 496 0005 FF       		.byte	0xff
 497 0006 03       		.byte	0x3
 498 0007 00       		.byte	0
 499              		.text
 501              		.globl	_ZN6ThreadD1Ev
 502              		.set	_ZN6ThreadD1Ev,_ZN6ThreadD2Ev
 503              		.section	.text._ZN14PeriodicThreadD2Ev,"axG",@progbits,_ZN14PeriodicThreadD5Ev,comdat
 504              		.align	2
 505              		.weak	_ZN14PeriodicThreadD2Ev
 507              	_ZN14PeriodicThreadD2Ev:
 508              	.LFB88:
  65:src/../h/syscall_cpp.hpp **** public:
 509              		.loc 1 65 7 is_stmt 1
 510              		.cfi_startproc
 511              	.LVL23:
 512 0000 130101FF 		addi	sp,sp,-16
 513              		.cfi_def_cfa_offset 16
 514 0004 23341100 		sd	ra,8(sp)
 515 0008 23308100 		sd	s0,0(sp)
 516              		.cfi_offset 1, -8
 517              		.cfi_offset 8, -16
 518 000c 13040101 		addi	s0,sp,16
 519              		.cfi_def_cfa 8, 0
 520              	.LBB87:
  65:src/../h/syscall_cpp.hpp **** public:
 521              		.loc 1 65 7 is_stmt 0
 522 0010 97070000 		lla	a5,_ZTV14PeriodicThread+16
 522      93870700 
 523 0018 2330F500 		sd	a5,0(a0)
 524 001c 97000000 		call	_ZN6ThreadD2Ev
 524      E7800000 
 525              	.LVL24:
 526              	.LBE87:
 527 0024 83308100 		ld	ra,8(sp)
 528              		.cfi_restore 1
 529 0028 03340100 		ld	s0,0(sp)
 530              		.cfi_restore 8
 531              		.cfi_def_cfa 2, 16
 532 002c 13010101 		addi	sp,sp,16
 533              		.cfi_def_cfa_offset 0
 534 0030 67800000 		jr	ra
 535              		.cfi_endproc
 536              	.LFE88:
 538              		.weak	_ZN14PeriodicThreadD1Ev
 539              		.set	_ZN14PeriodicThreadD1Ev,_ZN14PeriodicThreadD2Ev
 540              		.text
 541              		.align	2
 542              		.globl	_Znwm
 544              	_Znwm:
 545              	.LFB54:
GAS LISTING /tmp/ccb1NzOc.s 			page 18


   7:src/syscall_cpp.cpp ****     return mem_alloc(n);
 546              		.loc 2 7 30 is_stmt 1
 547              		.cfi_startproc
 548              	.LVL25:
 549 0284 130101FF 		addi	sp,sp,-16
 550              		.cfi_def_cfa_offset 16
 551 0288 23341100 		sd	ra,8(sp)
 552 028c 23308100 		sd	s0,0(sp)
 553              		.cfi_offset 1, -8
 554              		.cfi_offset 8, -16
 555 0290 13040101 		addi	s0,sp,16
 556              		.cfi_def_cfa 8, 0
   8:src/syscall_cpp.cpp **** }
 557              		.loc 2 8 5
   8:src/syscall_cpp.cpp **** }
 558              		.loc 2 8 21 is_stmt 0
 559 0294 97000000 		call	mem_alloc@plt
 559      E7800000 
 560              	.LVL26:
   9:src/syscall_cpp.cpp **** 
 561              		.loc 2 9 1
 562 029c 83308100 		ld	ra,8(sp)
 563              		.cfi_restore 1
 564 02a0 03340100 		ld	s0,0(sp)
 565              		.cfi_restore 8
 566              		.cfi_def_cfa 2, 16
 567 02a4 13010101 		addi	sp,sp,16
 568              		.cfi_def_cfa_offset 0
 569 02a8 67800000 		jr	ra
 570              		.cfi_endproc
 571              	.LFE54:
 573              		.align	2
 574              		.globl	_Znam
 576              	_Znam:
 577              	.LFB55:
  11:src/syscall_cpp.cpp ****     return mem_alloc(n);
 578              		.loc 2 11 32 is_stmt 1
 579              		.cfi_startproc
 580              	.LVL27:
 581 02ac 130101FF 		addi	sp,sp,-16
 582              		.cfi_def_cfa_offset 16
 583 02b0 23341100 		sd	ra,8(sp)
 584 02b4 23308100 		sd	s0,0(sp)
 585              		.cfi_offset 1, -8
 586              		.cfi_offset 8, -16
 587 02b8 13040101 		addi	s0,sp,16
 588              		.cfi_def_cfa 8, 0
  12:src/syscall_cpp.cpp **** }
 589              		.loc 2 12 5
  12:src/syscall_cpp.cpp **** }
 590              		.loc 2 12 21 is_stmt 0
 591 02bc 97000000 		call	mem_alloc@plt
 591      E7800000 
 592              	.LVL28:
  13:src/syscall_cpp.cpp **** 
 593              		.loc 2 13 1
 594 02c4 83308100 		ld	ra,8(sp)
GAS LISTING /tmp/ccb1NzOc.s 			page 19


 595              		.cfi_restore 1
 596 02c8 03340100 		ld	s0,0(sp)
 597              		.cfi_restore 8
 598              		.cfi_def_cfa 2, 16
 599 02cc 13010101 		addi	sp,sp,16
 600              		.cfi_def_cfa_offset 0
 601 02d0 67800000 		jr	ra
 602              		.cfi_endproc
 603              	.LFE55:
 605              		.align	2
 606              		.globl	_ZdlPv
 608              	_ZdlPv:
 609              	.LFB56:
  15:src/syscall_cpp.cpp ****     mem_free(ptr);
 610              		.loc 2 15 33 is_stmt 1
 611              		.cfi_startproc
 612              	.LVL29:
 613 02d4 130101FF 		addi	sp,sp,-16
 614              		.cfi_def_cfa_offset 16
 615 02d8 23341100 		sd	ra,8(sp)
 616 02dc 23308100 		sd	s0,0(sp)
 617              		.cfi_offset 1, -8
 618              		.cfi_offset 8, -16
 619 02e0 13040101 		addi	s0,sp,16
 620              		.cfi_def_cfa 8, 0
  16:src/syscall_cpp.cpp **** }
 621              		.loc 2 16 5
  16:src/syscall_cpp.cpp **** }
 622              		.loc 2 16 13 is_stmt 0
 623 02e4 97000000 		call	mem_free@plt
 623      E7800000 
 624              	.LVL30:
  17:src/syscall_cpp.cpp **** 
 625              		.loc 2 17 1
 626 02ec 83308100 		ld	ra,8(sp)
 627              		.cfi_restore 1
 628 02f0 03340100 		ld	s0,0(sp)
 629              		.cfi_restore 8
 630              		.cfi_def_cfa 2, 16
 631 02f4 13010101 		addi	sp,sp,16
 632              		.cfi_def_cfa_offset 0
 633 02f8 67800000 		jr	ra
 634              		.cfi_endproc
 635              	.LFE56:
 637              		.align	2
 638              		.globl	_ZN6ThreadD0Ev
 640              	_ZN6ThreadD0Ev:
 641              	.LFB64:
  46:src/syscall_cpp.cpp ****     delete (TCB*)(myHandle);
 642              		.loc 2 46 1 is_stmt 1
 643              		.cfi_startproc
 644              	.LVL31:
 645 02fc 130101FE 		addi	sp,sp,-32
 646              		.cfi_def_cfa_offset 32
 647 0300 233C1100 		sd	ra,24(sp)
 648 0304 23388100 		sd	s0,16(sp)
 649 0308 23349100 		sd	s1,8(sp)
GAS LISTING /tmp/ccb1NzOc.s 			page 20


 650              		.cfi_offset 1, -8
 651              		.cfi_offset 8, -16
 652              		.cfi_offset 9, -24
 653 030c 13040102 		addi	s0,sp,32
 654              		.cfi_def_cfa 8, 0
 655 0310 93040500 		mv	s1,a0
  48:src/syscall_cpp.cpp **** 
 656              		.loc 2 48 1 is_stmt 0
 657 0314 97000000 		call	_ZN6ThreadD1Ev
 657      E7800000 
 658              	.LVL32:
 659 031c 13850400 		mv	a0,s1
 660 0320 97000000 		call	_ZdlPv
 660      E7800000 
 661              	.LVL33:
 662 0328 83308101 		ld	ra,24(sp)
 663              		.cfi_restore 1
 664 032c 03340101 		ld	s0,16(sp)
 665              		.cfi_restore 8
 666              		.cfi_def_cfa 2, 32
 667 0330 83348100 		ld	s1,8(sp)
 668              		.cfi_restore 9
 669              	.LVL34:
 670 0334 13010102 		addi	sp,sp,32
 671              		.cfi_def_cfa_offset 0
 672 0338 67800000 		jr	ra
 673              		.cfi_endproc
 674              	.LFE64:
 676              		.align	2
 677              		.globl	_ZN9SemaphoreD0Ev
 679              	_ZN9SemaphoreD0Ev:
 680              	.LFB78:
  94:src/syscall_cpp.cpp ****     delete (MySemaphore*)myHandle;
 681              		.loc 2 94 1 is_stmt 1
 682              		.cfi_startproc
 683              	.LVL35:
 684 033c 130101FE 		addi	sp,sp,-32
 685              		.cfi_def_cfa_offset 32
 686 0340 233C1100 		sd	ra,24(sp)
 687 0344 23388100 		sd	s0,16(sp)
 688 0348 23349100 		sd	s1,8(sp)
 689              		.cfi_offset 1, -8
 690              		.cfi_offset 8, -16
 691              		.cfi_offset 9, -24
 692 034c 13040102 		addi	s0,sp,32
 693              		.cfi_def_cfa 8, 0
 694 0350 93040500 		mv	s1,a0
 695              		.loc 2 96 1 is_stmt 0
 696 0354 97000000 		call	_ZN9SemaphoreD1Ev
 696      E7800000 
 697              	.LVL36:
 698 035c 13850400 		mv	a0,s1
 699 0360 97000000 		call	_ZdlPv
 699      E7800000 
 700              	.LVL37:
 701 0368 83308101 		ld	ra,24(sp)
 702              		.cfi_restore 1
GAS LISTING /tmp/ccb1NzOc.s 			page 21


 703 036c 03340101 		ld	s0,16(sp)
 704              		.cfi_restore 8
 705              		.cfi_def_cfa 2, 32
 706 0370 83348100 		ld	s1,8(sp)
 707              		.cfi_restore 9
 708              	.LVL38:
 709 0374 13010102 		addi	sp,sp,32
 710              		.cfi_def_cfa_offset 0
 711 0378 67800000 		jr	ra
 712              		.cfi_endproc
 713              	.LFE78:
 715              		.section	.text._ZN14PeriodicThreadD0Ev,"axG",@progbits,_ZN14PeriodicThreadD5Ev,comdat
 716              		.align	2
 717              		.weak	_ZN14PeriodicThreadD0Ev
 719              	_ZN14PeriodicThreadD0Ev:
 720              	.LFB90:
  65:src/../h/syscall_cpp.hpp **** public:
 721              		.loc 1 65 7 is_stmt 1
 722              		.cfi_startproc
 723              	.LVL39:
 724 0000 130101FE 		addi	sp,sp,-32
 725              		.cfi_def_cfa_offset 32
 726 0004 233C1100 		sd	ra,24(sp)
 727 0008 23388100 		sd	s0,16(sp)
 728 000c 23349100 		sd	s1,8(sp)
 729              		.cfi_offset 1, -8
 730              		.cfi_offset 8, -16
 731              		.cfi_offset 9, -24
 732 0010 13040102 		addi	s0,sp,32
 733              		.cfi_def_cfa 8, 0
 734 0014 93040500 		mv	s1,a0
 735              	.LVL40:
 736              	.LBB88:
 737              	.LBB89:
  65:src/../h/syscall_cpp.hpp **** public:
 738              		.loc 1 65 7 is_stmt 0
 739 0018 97070000 		lla	a5,_ZTV14PeriodicThread+16
 739      93870700 
 740 0020 2330F500 		sd	a5,0(a0)
 741 0024 97000000 		call	_ZN6ThreadD2Ev
 741      E7800000 
 742              	.LVL41:
 743              	.LBE89:
 744              	.LBE88:
 745 002c 13850400 		mv	a0,s1
 746 0030 97000000 		call	_ZdlPv
 746      E7800000 
 747              	.LVL42:
 748 0038 83308101 		ld	ra,24(sp)
 749              		.cfi_restore 1
 750 003c 03340101 		ld	s0,16(sp)
 751              		.cfi_restore 8
 752              		.cfi_def_cfa 2, 32
 753 0040 83348100 		ld	s1,8(sp)
 754              		.cfi_restore 9
 755              	.LVL43:
 756 0044 13010102 		addi	sp,sp,32
GAS LISTING /tmp/ccb1NzOc.s 			page 22


 757              		.cfi_def_cfa_offset 0
 758 0048 67800000 		jr	ra
 759              		.cfi_endproc
 760              	.LFE90:
 762              		.text
 763              		.align	2
 764              		.globl	_ZdaPv
 766              	_ZdaPv:
 767              	.LFB57:
  19:src/syscall_cpp.cpp ****     mem_free(ptr);
 768              		.loc 2 19 35 is_stmt 1
 769              		.cfi_startproc
 770              	.LVL44:
 771 037c 130101FF 		addi	sp,sp,-16
 772              		.cfi_def_cfa_offset 16
 773 0380 23341100 		sd	ra,8(sp)
 774 0384 23308100 		sd	s0,0(sp)
 775              		.cfi_offset 1, -8
 776              		.cfi_offset 8, -16
 777 0388 13040101 		addi	s0,sp,16
 778              		.cfi_def_cfa 8, 0
  20:src/syscall_cpp.cpp **** }
 779              		.loc 2 20 5
  20:src/syscall_cpp.cpp **** }
 780              		.loc 2 20 13 is_stmt 0
 781 038c 97000000 		call	mem_free@plt
 781      E7800000 
 782              	.LVL45:
  21:src/syscall_cpp.cpp **** 
 783              		.loc 2 21 1
 784 0394 83308100 		ld	ra,8(sp)
 785              		.cfi_restore 1
 786 0398 03340100 		ld	s0,0(sp)
 787              		.cfi_restore 8
 788              		.cfi_def_cfa 2, 16
 789 039c 13010101 		addi	sp,sp,16
 790              		.cfi_def_cfa_offset 0
 791 03a0 67800000 		jr	ra
 792              		.cfi_endproc
 793              	.LFE57:
 795              		.align	2
 796              		.globl	_ZN6ThreadC2EPFvPvES0_
 798              	_ZN6ThreadC2EPFvPvES0_:
 799              	.LFB59:
  23:src/syscall_cpp.cpp ****     // inicijalizacija steka
 800              		.loc 2 23 1 is_stmt 1
 801              		.cfi_startproc
 802              	.LVL46:
 803 03a4 130101F9 		addi	sp,sp,-112
 804              		.cfi_def_cfa_offset 112
 805 03a8 23341106 		sd	ra,104(sp)
 806 03ac 23308106 		sd	s0,96(sp)
 807 03b0 233C9104 		sd	s1,88(sp)
 808 03b4 23382105 		sd	s2,80(sp)
 809 03b8 23343105 		sd	s3,72(sp)
 810              		.cfi_offset 1, -8
 811              		.cfi_offset 8, -16
GAS LISTING /tmp/ccb1NzOc.s 			page 23


 812              		.cfi_offset 9, -24
 813              		.cfi_offset 18, -32
 814              		.cfi_offset 19, -40
 815 03bc 13040107 		addi	s0,sp,112
 816              		.cfi_def_cfa 8, 0
 817 03c0 93040500 		mv	s1,a0
 818 03c4 13890500 		mv	s2,a1
 819 03c8 93090600 		mv	s3,a2
 820              	.LBB90:
  23:src/syscall_cpp.cpp ****     // inicijalizacija steka
 821              		.loc 2 23 46 is_stmt 0
 822 03cc 97070000 		lla	a5,_ZTV6Thread+16
 822      93870700 
 823 03d4 2330F500 		sd	a5,0(a0)
 824              	.LBB91:
  25:src/syscall_cpp.cpp **** 
 825              		.loc 2 25 5 is_stmt 1
  25:src/syscall_cpp.cpp **** 
 826              		.loc 2 25 35 is_stmt 0
 827 03d8 63800506 		beqz	a1,.L40
  25:src/syscall_cpp.cpp **** 
 828              		.loc 2 25 54 discriminator 1
 829 03dc 37150000 		li	a0,4096
 830              	.LVL47:
 831 03e0 97000000 		call	mem_alloc@plt
 831      E7800000 
 832              	.LVL48:
 833              	.L39:
  28:src/syscall_cpp.cpp ****     // parametri
 834              		.loc 2 28 5 is_stmt 1 discriminator 5
  30:src/syscall_cpp.cpp ****     a1 = (uint64)&myHandle;
 835              		.loc 2 30 5 discriminator 5
  31:src/syscall_cpp.cpp ****     a2 = (uint64)body;
 836              		.loc 2 31 5 discriminator 5
  31:src/syscall_cpp.cpp ****     a2 = (uint64)body;
 837              		.loc 2 31 18 is_stmt 0 discriminator 5
 838 03e8 93848400 		addi	s1,s1,8
 839              	.LVL49:
  32:src/syscall_cpp.cpp ****     a3 = (uint64)arg;
 840              		.loc 2 32 5 is_stmt 1 discriminator 5
  33:src/syscall_cpp.cpp ****     a6 = (uint64)false;
 841              		.loc 2 33 5 discriminator 5
  34:src/syscall_cpp.cpp **** 
 842              		.loc 2 34 5 discriminator 5
  36:src/syscall_cpp.cpp **** 
 843              		.loc 2 36 5 discriminator 5
  39:src/syscall_cpp.cpp **** 
 844              		.loc 2 39 5 discriminator 5
  39:src/syscall_cpp.cpp **** 
 845              		.loc 2 39 53 is_stmt 0 discriminator 5
 846 03ec 93071001 		li	a5,17
 847 03f0 2338F4F8 		sd	a5,-112(s0)
 848 03f4 233C94F8 		sd	s1,-104(s0)
 849 03f8 233024FB 		sd	s2,-96(s0)
 850 03fc 233434FB 		sd	s3,-88(s0)
 851 0400 2338A4FA 		sd	a0,-80(s0)
 852 0404 233C04FA 		sd	zero,-72(s0)
GAS LISTING /tmp/ccb1NzOc.s 			page 24


 853 0408 233004FC 		sd	zero,-64(s0)
 854 040c 233404FC 		sd	zero,-56(s0)
  42:src/syscall_cpp.cpp **** 
 855              		.loc 2 42 5 is_stmt 1 discriminator 5
  42:src/syscall_cpp.cpp **** 
 856              		.loc 2 42 18 is_stmt 0 discriminator 5
 857 0410 130504F9 		addi	a0,s0,-112
 858              	.LVL50:
 859 0414 97000000 		call	_ZN3abi8sys_callEPv@plt
 859      E7800000 
 860              	.LVL51:
 861              	.LBE91:
 862              	.LBE90:
  44:src/syscall_cpp.cpp **** 
 863              		.loc 2 44 1 discriminator 5
 864 041c 83308106 		ld	ra,104(sp)
 865              		.cfi_remember_state
 866              		.cfi_restore 1
 867 0420 03340106 		ld	s0,96(sp)
 868              		.cfi_restore 8
 869              		.cfi_def_cfa 2, 112
 870 0424 83348105 		ld	s1,88(sp)
 871              		.cfi_restore 9
 872              	.LVL52:
 873 0428 03390105 		ld	s2,80(sp)
 874              		.cfi_restore 18
 875              	.LVL53:
 876 042c 83398104 		ld	s3,72(sp)
 877              		.cfi_restore 19
 878              	.LVL54:
 879 0430 13010107 		addi	sp,sp,112
 880              		.cfi_def_cfa_offset 0
 881 0434 67800000 		jr	ra
 882              	.LVL55:
 883              	.L40:
 884              		.cfi_restore_state
 885              	.LBB93:
 886              	.LBB92:
  25:src/syscall_cpp.cpp **** 
 887              		.loc 2 25 35
 888 0438 13050000 		li	a0,0
 889 043c 6FF0DFFA 		j	.L39
 890              	.LBE92:
 891              	.LBE93:
 892              		.cfi_endproc
 893              	.LFE59:
 895              		.globl	_ZN6ThreadC1EPFvPvES0_
 896              		.set	_ZN6ThreadC1EPFvPvES0_,_ZN6ThreadC2EPFvPvES0_
 897              		.align	2
 898              		.globl	_ZN6Thread5startEv
 900              	_ZN6Thread5startEv:
 901              	.LFB65:
  50:src/syscall_cpp.cpp ****     put_in_scheduler(myHandle);
 902              		.loc 2 50 21 is_stmt 1
 903              		.cfi_startproc
 904              	.LVL56:
 905 0440 130101FF 		addi	sp,sp,-16
GAS LISTING /tmp/ccb1NzOc.s 			page 25


 906              		.cfi_def_cfa_offset 16
 907 0444 23341100 		sd	ra,8(sp)
 908 0448 23308100 		sd	s0,0(sp)
 909              		.cfi_offset 1, -8
 910              		.cfi_offset 8, -16
 911 044c 13040101 		addi	s0,sp,16
 912              		.cfi_def_cfa 8, 0
  51:src/syscall_cpp.cpp ****     return 0;
 913              		.loc 2 51 5
  51:src/syscall_cpp.cpp ****     return 0;
 914              		.loc 2 51 21 is_stmt 0
 915 0450 03358500 		ld	a0,8(a0)
 916              	.LVL57:
 917 0454 97000000 		call	put_in_scheduler@plt
 917      E7800000 
 918              	.LVL58:
  52:src/syscall_cpp.cpp **** }
 919              		.loc 2 52 5 is_stmt 1
  53:src/syscall_cpp.cpp **** 
 920              		.loc 2 53 1 is_stmt 0
 921 045c 13050000 		li	a0,0
 922 0460 83308100 		ld	ra,8(sp)
 923              		.cfi_restore 1
 924 0464 03340100 		ld	s0,0(sp)
 925              		.cfi_restore 8
 926              		.cfi_def_cfa 2, 16
 927 0468 13010101 		addi	sp,sp,16
 928              		.cfi_def_cfa_offset 0
 929 046c 67800000 		jr	ra
 930              		.cfi_endproc
 931              	.LFE65:
 933              		.align	2
 934              		.globl	_ZN6Thread8dispatchEv
 936              	_ZN6Thread8dispatchEv:
 937              	.LFB66:
  55:src/syscall_cpp.cpp ****     thread_dispatch();
 938              		.loc 2 55 25 is_stmt 1
 939              		.cfi_startproc
 940 0470 130101FF 		addi	sp,sp,-16
 941              		.cfi_def_cfa_offset 16
 942 0474 23341100 		sd	ra,8(sp)
 943 0478 23308100 		sd	s0,0(sp)
 944              		.cfi_offset 1, -8
 945              		.cfi_offset 8, -16
 946 047c 13040101 		addi	s0,sp,16
 947              		.cfi_def_cfa 8, 0
  56:src/syscall_cpp.cpp **** }
 948              		.loc 2 56 5
  56:src/syscall_cpp.cpp **** }
 949              		.loc 2 56 20 is_stmt 0
 950 0480 97000000 		call	thread_dispatch@plt
 950      E7800000 
 951              	.LVL59:
  57:src/syscall_cpp.cpp **** 
 952              		.loc 2 57 1
 953 0488 83308100 		ld	ra,8(sp)
 954              		.cfi_restore 1
GAS LISTING /tmp/ccb1NzOc.s 			page 26


 955 048c 03340100 		ld	s0,0(sp)
 956              		.cfi_restore 8
 957              		.cfi_def_cfa 2, 16
 958 0490 13010101 		addi	sp,sp,16
 959              		.cfi_def_cfa_offset 0
 960 0494 67800000 		jr	ra
 961              		.cfi_endproc
 962              	.LFE66:
 964              		.align	2
 965              		.globl	_ZN6Thread5sleepEm
 967              	_ZN6Thread5sleepEm:
 968              	.LFB67:
  59:src/syscall_cpp.cpp ****     return time_sleep(time);
 969              		.loc 2 59 32 is_stmt 1
 970              		.cfi_startproc
 971              	.LVL60:
 972 0498 130101FF 		addi	sp,sp,-16
 973              		.cfi_def_cfa_offset 16
 974 049c 23341100 		sd	ra,8(sp)
 975 04a0 23308100 		sd	s0,0(sp)
 976              		.cfi_offset 1, -8
 977              		.cfi_offset 8, -16
 978 04a4 13040101 		addi	s0,sp,16
 979              		.cfi_def_cfa 8, 0
  60:src/syscall_cpp.cpp **** }
 980              		.loc 2 60 5
  60:src/syscall_cpp.cpp **** }
 981              		.loc 2 60 22 is_stmt 0
 982 04a8 97000000 		call	time_sleep@plt
 982      E7800000 
 983              	.LVL61:
  61:src/syscall_cpp.cpp **** 
 984              		.loc 2 61 1
 985 04b0 83308100 		ld	ra,8(sp)
 986              		.cfi_restore 1
 987 04b4 03340100 		ld	s0,0(sp)
 988              		.cfi_restore 8
 989              		.cfi_def_cfa 2, 16
 990 04b8 13010101 		addi	sp,sp,16
 991              		.cfi_def_cfa_offset 0
 992 04bc 67800000 		jr	ra
 993              		.cfi_endproc
 994              	.LFE67:
 996              		.align	2
 997              		.globl	_ZN14PeriodicThread3runEv
 999              	_ZN14PeriodicThread3runEv:
 1000              	.LFB86:
  97:src/syscall_cpp.cpp **** 
  98:src/syscall_cpp.cpp **** int Semaphore::wait() {
  99:src/syscall_cpp.cpp ****     return sem_wait(myHandle);
 100:src/syscall_cpp.cpp **** }
 101:src/syscall_cpp.cpp **** 
 102:src/syscall_cpp.cpp **** int Semaphore::signal() {
 103:src/syscall_cpp.cpp ****     return sem_signal(myHandle);
 104:src/syscall_cpp.cpp **** }
 105:src/syscall_cpp.cpp **** 
 106:src/syscall_cpp.cpp **** char Console::getc() {
GAS LISTING /tmp/ccb1NzOc.s 			page 27


 107:src/syscall_cpp.cpp ****     return ::getc();
 108:src/syscall_cpp.cpp **** }
 109:src/syscall_cpp.cpp **** 
 110:src/syscall_cpp.cpp **** void Console::putc(char c) {
 111:src/syscall_cpp.cpp ****     ::putc(c);
 112:src/syscall_cpp.cpp **** }
 113:src/syscall_cpp.cpp **** 
 114:src/syscall_cpp.cpp **** uint64 PeriodicThread::ID = 0;
 115:src/syscall_cpp.cpp **** 
 116:src/syscall_cpp.cpp **** PeriodicThread::PeriodicThread(time_t period) {
 117:src/syscall_cpp.cpp ****     time = period;
 118:src/syscall_cpp.cpp ****     flag_stop = true;
 119:src/syscall_cpp.cpp ****     set_periodic((thread_t)this);
 120:src/syscall_cpp.cpp **** }
 121:src/syscall_cpp.cpp **** 
 122:src/syscall_cpp.cpp **** void PeriodicThread::run() {
 1001              		.loc 2 122 28 is_stmt 1
 1002              		.cfi_startproc
 1003              	.LVL62:
 1004 04c0 130101FE 		addi	sp,sp,-32
 1005              		.cfi_def_cfa_offset 32
 1006 04c4 233C1100 		sd	ra,24(sp)
 1007 04c8 23388100 		sd	s0,16(sp)
 1008 04cc 23349100 		sd	s1,8(sp)
 1009              		.cfi_offset 1, -8
 1010              		.cfi_offset 8, -16
 1011              		.cfi_offset 9, -24
 1012 04d0 13040102 		addi	s0,sp,32
 1013              		.cfi_def_cfa 8, 0
 1014 04d4 93040500 		mv	s1,a0
 1015              	.LVL63:
 1016              	.L50:
 123:src/syscall_cpp.cpp ****     while(flag_stop){
 1017              		.loc 2 123 5
 1018              		.loc 2 123 11
 1019 04d8 83C78401 		lbu	a5,24(s1)
 1020 04dc 63820702 		beqz	a5,.L48
 124:src/syscall_cpp.cpp ****         periodicActivation();
 1021              		.loc 2 124 9
 1022              		.loc 2 124 28 is_stmt 0
 1023 04e0 83B70400 		ld	a5,0(s1)
 1024 04e4 83B78701 		ld	a5,24(a5)
 1025              		.loc 2 124 27
 1026 04e8 13850400 		mv	a0,s1
 1027 04ec E7800700 		jalr	a5
 1028              	.LVL64:
 125:src/syscall_cpp.cpp ****         sleep(time);
 1029              		.loc 2 125 9 is_stmt 1
 1030              		.loc 2 125 14 is_stmt 0
 1031 04f0 03B50401 		ld	a0,16(s1)
 1032 04f4 97000000 		call	_ZN6Thread5sleepEm
 1032      E7800000 
 1033              	.LVL65:
 123:src/syscall_cpp.cpp ****     while(flag_stop){
 1034              		.loc 2 123 5
 1035 04fc 6FF0DFFD 		j	.L50
 1036              	.L48:
GAS LISTING /tmp/ccb1NzOc.s 			page 28


 126:src/syscall_cpp.cpp ****     }
 127:src/syscall_cpp.cpp **** }
 1037              		.loc 2 127 1
 1038 0500 83308101 		ld	ra,24(sp)
 1039              		.cfi_restore 1
 1040 0504 03340101 		ld	s0,16(sp)
 1041              		.cfi_restore 8
 1042              		.cfi_def_cfa 2, 32
 1043 0508 83348100 		ld	s1,8(sp)
 1044              		.cfi_restore 9
 1045              	.LVL66:
 1046 050c 13010102 		addi	sp,sp,32
 1047              		.cfi_def_cfa_offset 0
 1048 0510 67800000 		jr	ra
 1049              		.cfi_endproc
 1050              	.LFE86:
 1052              		.align	2
 1053              		.globl	_ZN6ThreadC2Ev
 1055              	_ZN6ThreadC2Ev:
 1056              	.LFB69:
  63:src/syscall_cpp.cpp ****     // inicijalizacija steka
 1057              		.loc 2 63 1 is_stmt 1
 1058              		.cfi_startproc
 1059              	.LVL67:
 1060 0514 130101FA 		addi	sp,sp,-96
 1061              		.cfi_def_cfa_offset 96
 1062 0518 233C1104 		sd	ra,88(sp)
 1063 051c 23388104 		sd	s0,80(sp)
 1064 0520 23349104 		sd	s1,72(sp)
 1065              		.cfi_offset 1, -8
 1066              		.cfi_offset 8, -16
 1067              		.cfi_offset 9, -24
 1068 0524 13040106 		addi	s0,sp,96
 1069              		.cfi_def_cfa 8, 0
 1070 0528 93040500 		mv	s1,a0
 1071              	.LBB94:
  63:src/syscall_cpp.cpp ****     // inicijalizacija steka
 1072              		.loc 2 63 16 is_stmt 0
 1073 052c 97070000 		lla	a5,_ZTV6Thread+16
 1073      93870700 
 1074 0534 2330F500 		sd	a5,0(a0)
 1075              	.LBB95:
  65:src/syscall_cpp.cpp **** 
 1076              		.loc 2 65 5 is_stmt 1
  65:src/syscall_cpp.cpp **** 
 1077              		.loc 2 65 34 is_stmt 0
 1078 0538 37150000 		li	a0,4096
 1079              	.LVL68:
 1080 053c 97000000 		call	mem_alloc@plt
 1080      E7800000 
 1081              	.LVL69:
  68:src/syscall_cpp.cpp ****     // parametri
 1082              		.loc 2 68 5 is_stmt 1
  70:src/syscall_cpp.cpp ****     a1 = (uint64)&myHandle;
 1083              		.loc 2 70 5
  71:src/syscall_cpp.cpp ****     a2 = (uint64)&wrapper_run;
 1084              		.loc 2 71 5
GAS LISTING /tmp/ccb1NzOc.s 			page 29


  71:src/syscall_cpp.cpp ****     a2 = (uint64)&wrapper_run;
 1085              		.loc 2 71 18 is_stmt 0
 1086 0544 93878400 		addi	a5,s1,8
 1087              	.LVL70:
  72:src/syscall_cpp.cpp ****     a3 = (uint64)this;
 1088              		.loc 2 72 5 is_stmt 1
  73:src/syscall_cpp.cpp ****     a6 = (uint64)false;
 1089              		.loc 2 73 5
  74:src/syscall_cpp.cpp **** 
 1090              		.loc 2 74 5
  76:src/syscall_cpp.cpp **** 
 1091              		.loc 2 76 5
  79:src/syscall_cpp.cpp **** 
 1092              		.loc 2 79 5
  79:src/syscall_cpp.cpp **** 
 1093              		.loc 2 79 53 is_stmt 0
 1094 0548 13071001 		li	a4,17
 1095 054c 2330E4FA 		sd	a4,-96(s0)
 1096 0550 2334F4FA 		sd	a5,-88(s0)
 1097 0554 97070000 		lla	a5,_ZN6Thread11wrapper_runEPv
 1097      93870700 
 1098              	.LVL71:
 1099 055c 2338F4FA 		sd	a5,-80(s0)
 1100 0560 233C94FA 		sd	s1,-72(s0)
 1101 0564 2330A4FC 		sd	a0,-64(s0)
 1102 0568 233404FC 		sd	zero,-56(s0)
 1103 056c 233804FC 		sd	zero,-48(s0)
 1104 0570 233C04FC 		sd	zero,-40(s0)
  82:src/syscall_cpp.cpp **** 
 1105              		.loc 2 82 5 is_stmt 1
  82:src/syscall_cpp.cpp **** 
 1106              		.loc 2 82 18 is_stmt 0
 1107 0574 130504FA 		addi	a0,s0,-96
 1108              	.LVL72:
 1109 0578 97000000 		call	_ZN3abi8sys_callEPv@plt
 1109      E7800000 
 1110              	.LVL73:
 1111              	.LBE95:
 1112              	.LBE94:
  84:src/syscall_cpp.cpp **** 
 1113              		.loc 2 84 1
 1114 0580 83308105 		ld	ra,88(sp)
 1115              		.cfi_restore 1
 1116 0584 03340105 		ld	s0,80(sp)
 1117              		.cfi_restore 8
 1118              		.cfi_def_cfa 2, 96
 1119 0588 83348104 		ld	s1,72(sp)
 1120              		.cfi_restore 9
 1121              	.LVL74:
 1122 058c 13010106 		addi	sp,sp,96
 1123              		.cfi_def_cfa_offset 0
 1124 0590 67800000 		jr	ra
 1125              		.cfi_endproc
 1126              	.LFE69:
 1128              		.globl	_ZN6ThreadC1Ev
 1129              		.set	_ZN6ThreadC1Ev,_ZN6ThreadC2Ev
 1130              		.align	2
GAS LISTING /tmp/ccb1NzOc.s 			page 30


 1131              		.globl	_ZN9SemaphoreC2Ej
 1133              	_ZN9SemaphoreC2Ej:
 1134              	.LFB73:
  90:src/syscall_cpp.cpp ****     sem_open(&myHandle, init);
 1135              		.loc 2 90 1 is_stmt 1
 1136              		.cfi_startproc
 1137              	.LVL75:
 1138 0594 130101FF 		addi	sp,sp,-16
 1139              		.cfi_def_cfa_offset 16
 1140 0598 23341100 		sd	ra,8(sp)
 1141 059c 23308100 		sd	s0,0(sp)
 1142              		.cfi_offset 1, -8
 1143              		.cfi_offset 8, -16
 1144 05a0 13040101 		addi	s0,sp,16
 1145              		.cfi_def_cfa 8, 0
 1146              	.LBB96:
  90:src/syscall_cpp.cpp ****     sem_open(&myHandle, init);
 1147              		.loc 2 90 39 is_stmt 0
 1148 05a4 97070000 		lla	a5,_ZTV9Semaphore+16
 1148      93870700 
 1149 05ac 2330F500 		sd	a5,0(a0)
  91:src/syscall_cpp.cpp **** }
 1150              		.loc 2 91 5 is_stmt 1
  91:src/syscall_cpp.cpp **** }
 1151              		.loc 2 91 13 is_stmt 0
 1152 05b0 93950502 		slli	a1,a1,32
 1153              	.LVL76:
 1154 05b4 93D50502 		srli	a1,a1,32
 1155 05b8 13058500 		addi	a0,a0,8
 1156              	.LVL77:
 1157 05bc 97000000 		call	sem_open@plt
 1157      E7800000 
 1158              	.LVL78:
 1159              	.LBE96:
  92:src/syscall_cpp.cpp **** 
 1160              		.loc 2 92 1
 1161 05c4 83308100 		ld	ra,8(sp)
 1162              		.cfi_restore 1
 1163 05c8 03340100 		ld	s0,0(sp)
 1164              		.cfi_restore 8
 1165              		.cfi_def_cfa 2, 16
 1166 05cc 13010101 		addi	sp,sp,16
 1167              		.cfi_def_cfa_offset 0
 1168 05d0 67800000 		jr	ra
 1169              		.cfi_endproc
 1170              	.LFE73:
 1172              		.globl	_ZN9SemaphoreC1Ej
 1173              		.set	_ZN9SemaphoreC1Ej,_ZN9SemaphoreC2Ej
 1174              		.align	2
 1175              		.globl	_ZN9Semaphore4waitEv
 1177              	_ZN9Semaphore4waitEv:
 1178              	.LFB79:
  98:src/syscall_cpp.cpp ****     return sem_wait(myHandle);
 1179              		.loc 2 98 23 is_stmt 1
 1180              		.cfi_startproc
 1181              	.LVL79:
 1182 05d4 130101FF 		addi	sp,sp,-16
GAS LISTING /tmp/ccb1NzOc.s 			page 31


 1183              		.cfi_def_cfa_offset 16
 1184 05d8 23341100 		sd	ra,8(sp)
 1185 05dc 23308100 		sd	s0,0(sp)
 1186              		.cfi_offset 1, -8
 1187              		.cfi_offset 8, -16
 1188 05e0 13040101 		addi	s0,sp,16
 1189              		.cfi_def_cfa 8, 0
  99:src/syscall_cpp.cpp **** }
 1190              		.loc 2 99 5
  99:src/syscall_cpp.cpp **** }
 1191              		.loc 2 99 20 is_stmt 0
 1192 05e4 03358500 		ld	a0,8(a0)
 1193              	.LVL80:
 1194 05e8 97000000 		call	sem_wait@plt
 1194      E7800000 
 1195              	.LVL81:
 100:src/syscall_cpp.cpp **** 
 1196              		.loc 2 100 1
 1197 05f0 83308100 		ld	ra,8(sp)
 1198              		.cfi_restore 1
 1199 05f4 03340100 		ld	s0,0(sp)
 1200              		.cfi_restore 8
 1201              		.cfi_def_cfa 2, 16
 1202 05f8 13010101 		addi	sp,sp,16
 1203              		.cfi_def_cfa_offset 0
 1204 05fc 67800000 		jr	ra
 1205              		.cfi_endproc
 1206              	.LFE79:
 1208              		.align	2
 1209              		.globl	_ZN9Semaphore6signalEv
 1211              	_ZN9Semaphore6signalEv:
 1212              	.LFB80:
 102:src/syscall_cpp.cpp ****     return sem_signal(myHandle);
 1213              		.loc 2 102 25 is_stmt 1
 1214              		.cfi_startproc
 1215              	.LVL82:
 1216 0600 130101FF 		addi	sp,sp,-16
 1217              		.cfi_def_cfa_offset 16
 1218 0604 23341100 		sd	ra,8(sp)
 1219 0608 23308100 		sd	s0,0(sp)
 1220              		.cfi_offset 1, -8
 1221              		.cfi_offset 8, -16
 1222 060c 13040101 		addi	s0,sp,16
 1223              		.cfi_def_cfa 8, 0
 103:src/syscall_cpp.cpp **** }
 1224              		.loc 2 103 5
 103:src/syscall_cpp.cpp **** }
 1225              		.loc 2 103 22 is_stmt 0
 1226 0610 03358500 		ld	a0,8(a0)
 1227              	.LVL83:
 1228 0614 97000000 		call	sem_signal@plt
 1228      E7800000 
 1229              	.LVL84:
 104:src/syscall_cpp.cpp **** 
 1230              		.loc 2 104 1
 1231 061c 83308100 		ld	ra,8(sp)
 1232              		.cfi_restore 1
GAS LISTING /tmp/ccb1NzOc.s 			page 32


 1233 0620 03340100 		ld	s0,0(sp)
 1234              		.cfi_restore 8
 1235              		.cfi_def_cfa 2, 16
 1236 0624 13010101 		addi	sp,sp,16
 1237              		.cfi_def_cfa_offset 0
 1238 0628 67800000 		jr	ra
 1239              		.cfi_endproc
 1240              	.LFE80:
 1242              		.align	2
 1243              		.globl	_ZN7Console4getcEv
 1245              	_ZN7Console4getcEv:
 1246              	.LFB81:
 106:src/syscall_cpp.cpp ****     return ::getc();
 1247              		.loc 2 106 22 is_stmt 1
 1248              		.cfi_startproc
 1249 062c 130101FF 		addi	sp,sp,-16
 1250              		.cfi_def_cfa_offset 16
 1251 0630 23341100 		sd	ra,8(sp)
 1252 0634 23308100 		sd	s0,0(sp)
 1253              		.cfi_offset 1, -8
 1254              		.cfi_offset 8, -16
 1255 0638 13040101 		addi	s0,sp,16
 1256              		.cfi_def_cfa 8, 0
 107:src/syscall_cpp.cpp **** }
 1257              		.loc 2 107 5
 107:src/syscall_cpp.cpp **** }
 1258              		.loc 2 107 18 is_stmt 0
 1259 063c 97000000 		call	getc@plt
 1259      E7800000 
 1260              	.LVL85:
 108:src/syscall_cpp.cpp **** 
 1261              		.loc 2 108 1
 1262 0644 83308100 		ld	ra,8(sp)
 1263              		.cfi_restore 1
 1264 0648 03340100 		ld	s0,0(sp)
 1265              		.cfi_restore 8
 1266              		.cfi_def_cfa 2, 16
 1267 064c 13010101 		addi	sp,sp,16
 1268              		.cfi_def_cfa_offset 0
 1269 0650 67800000 		jr	ra
 1270              		.cfi_endproc
 1271              	.LFE81:
 1273              		.align	2
 1274              		.globl	_ZN7Console4putcEc
 1276              	_ZN7Console4putcEc:
 1277              	.LFB82:
 110:src/syscall_cpp.cpp ****     ::putc(c);
 1278              		.loc 2 110 28 is_stmt 1
 1279              		.cfi_startproc
 1280              	.LVL86:
 1281 0654 130101FF 		addi	sp,sp,-16
 1282              		.cfi_def_cfa_offset 16
 1283 0658 23341100 		sd	ra,8(sp)
 1284 065c 23308100 		sd	s0,0(sp)
 1285              		.cfi_offset 1, -8
 1286              		.cfi_offset 8, -16
 1287 0660 13040101 		addi	s0,sp,16
GAS LISTING /tmp/ccb1NzOc.s 			page 33


 1288              		.cfi_def_cfa 8, 0
 111:src/syscall_cpp.cpp **** }
 1289              		.loc 2 111 5
 111:src/syscall_cpp.cpp **** }
 1290              		.loc 2 111 11 is_stmt 0
 1291 0664 97000000 		call	putc@plt
 1291      E7800000 
 1292              	.LVL87:
 112:src/syscall_cpp.cpp **** 
 1293              		.loc 2 112 1
 1294 066c 83308100 		ld	ra,8(sp)
 1295              		.cfi_restore 1
 1296 0670 03340100 		ld	s0,0(sp)
 1297              		.cfi_restore 8
 1298              		.cfi_def_cfa 2, 16
 1299 0674 13010101 		addi	sp,sp,16
 1300              		.cfi_def_cfa_offset 0
 1301 0678 67800000 		jr	ra
 1302              		.cfi_endproc
 1303              	.LFE82:
 1305              		.align	2
 1306              		.globl	_ZN14PeriodicThreadC2Em
 1308              	_ZN14PeriodicThreadC2Em:
 1309              	.LFB84:
 116:src/syscall_cpp.cpp ****     time = period;
 1310              		.loc 2 116 1 is_stmt 1
 1311              		.cfi_startproc
 1312              		.cfi_personality 0x9b,DW.ref.__gxx_personality_v0
 1313              		.cfi_lsda 0x1b,.LLSDA84
 1314              	.LVL88:
 1315 067c 130101FE 		addi	sp,sp,-32
 1316              		.cfi_def_cfa_offset 32
 1317 0680 233C1100 		sd	ra,24(sp)
 1318 0684 23388100 		sd	s0,16(sp)
 1319 0688 23349100 		sd	s1,8(sp)
 1320 068c 23302101 		sd	s2,0(sp)
 1321              		.cfi_offset 1, -8
 1322              		.cfi_offset 8, -16
 1323              		.cfi_offset 9, -24
 1324              		.cfi_offset 18, -32
 1325 0690 13040102 		addi	s0,sp,32
 1326              		.cfi_def_cfa 8, 0
 1327 0694 93040500 		mv	s1,a0
 1328 0698 13890500 		mv	s2,a1
 1329              	.LEHB0:
 1330              	.LBB97:
 116:src/syscall_cpp.cpp ****     time = period;
 1331              		.loc 2 116 45 is_stmt 0
 1332 069c 97000000 		call	_ZN6ThreadC2Ev
 1332      E7800000 
 1333              	.LVL89:
 1334              	.LEHE0:
 1335 06a4 97070000 		lla	a5,_ZTV14PeriodicThread+16
 1335      93870700 
 1336 06ac 23B0F400 		sd	a5,0(s1)
 1337 06b0 17070000 		lla	a4,.LANCHOR0
 1337      13070700 
GAS LISTING /tmp/ccb1NzOc.s 			page 34


 1338 06b8 83370700 		ld	a5,0(a4)
 1339 06bc 93861700 		addi	a3,a5,1
 1340 06c0 2330D700 		sd	a3,0(a4)
 1341 06c4 23B0F402 		sd	a5,32(s1)
 117:src/syscall_cpp.cpp ****     flag_stop = true;
 1342              		.loc 2 117 5 is_stmt 1
 117:src/syscall_cpp.cpp ****     flag_stop = true;
 1343              		.loc 2 117 10 is_stmt 0
 1344 06c8 23B82401 		sd	s2,16(s1)
 118:src/syscall_cpp.cpp ****     set_periodic((thread_t)this);
 1345              		.loc 2 118 5 is_stmt 1
 118:src/syscall_cpp.cpp ****     set_periodic((thread_t)this);
 1346              		.loc 2 118 15 is_stmt 0
 1347 06cc 93071000 		li	a5,1
 1348 06d0 238CF400 		sb	a5,24(s1)
 119:src/syscall_cpp.cpp **** }
 1349              		.loc 2 119 5 is_stmt 1
 119:src/syscall_cpp.cpp **** }
 1350              		.loc 2 119 17 is_stmt 0
 1351 06d4 13850400 		mv	a0,s1
 1352              	.LEHB1:
 1353 06d8 97000000 		call	set_periodic@plt
 1353      E7800000 
 1354              	.LVL90:
 1355              	.LEHE1:
 1356 06e0 6F000002 		j	.L69
 1357              	.L66:
 1358 06e4 13090500 		mv	s2,a0
 1359              	.LVL91:
 116:src/syscall_cpp.cpp ****     time = period;
 1360              		.loc 2 116 45
 1361 06e8 13850400 		mv	a0,s1
 1362 06ec 97000000 		call	_ZN6ThreadD2Ev
 1362      E7800000 
 1363              	.LVL92:
 1364 06f4 13050900 		mv	a0,s2
 1365              	.LEHB2:
 1366 06f8 97000000 		call	_Unwind_Resume@plt
 1366      E7800000 
 1367              	.LVL93:
 1368              	.LEHE2:
 1369              	.L69:
 1370              	.LBE97:
 120:src/syscall_cpp.cpp **** 
 1371              		.loc 2 120 1
 1372 0700 83308101 		ld	ra,24(sp)
 1373              		.cfi_restore 1
 1374 0704 03340101 		ld	s0,16(sp)
 1375              		.cfi_restore 8
 1376              		.cfi_def_cfa 2, 32
 1377 0708 83348100 		ld	s1,8(sp)
 1378              		.cfi_restore 9
 1379              	.LVL94:
 1380 070c 03390100 		ld	s2,0(sp)
 1381              		.cfi_restore 18
 1382              	.LVL95:
 1383 0710 13010102 		addi	sp,sp,32
GAS LISTING /tmp/ccb1NzOc.s 			page 35


 1384              		.cfi_def_cfa_offset 0
 1385 0714 67800000 		jr	ra
 1386              		.cfi_endproc
 1387              	.LFE84:
 1388              		.section	.gcc_except_table
 1389              	.LLSDA84:
 1390 0008 FF       		.byte	0xff
 1391 0009 FF       		.byte	0xff
 1392 000a 03       		.byte	0x3
 1393 000b 27       		.byte	0x27
 1394 000c 00000000 		.4byte	.LEHB0-.LFB84
 1395 0010 00000000 		.4byte	.LEHE0-.LEHB0
 1396 0014 00000000 		.4byte	0
 1397 0018 00       		.byte	0
 1398 0019 00000000 		.4byte	.LEHB1-.LFB84
 1399 001d 00000000 		.4byte	.LEHE1-.LEHB1
 1400 0021 00000000 		.4byte	.L66-.LFB84
 1401 0025 00       		.byte	0
 1402 0026 00000000 		.4byte	.LEHB2-.LFB84
 1403 002a 00000000 		.4byte	.LEHE2-.LEHB2
 1404 002e 00000000 		.4byte	0
 1405 0032 00       		.byte	0
 1406              		.text
 1408              		.globl	_ZN14PeriodicThreadC1Em
 1409              		.set	_ZN14PeriodicThreadC1Em,_ZN14PeriodicThreadC2Em
 1410              		.weak	_ZTV6Thread
 1411              		.section	.data.rel.ro.local._ZTV6Thread,"awG",@progbits,_ZTV6Thread,comdat
 1412              		.align	3
 1415              	_ZTV6Thread:
 1416 0000 00000000 		.dword	0
 1416      00000000 
 1417 0008 00000000 		.dword	0
 1417      00000000 
 1418 0010 00000000 		.dword	_ZN6ThreadD1Ev
 1418      00000000 
 1419 0018 00000000 		.dword	_ZN6ThreadD0Ev
 1419      00000000 
 1420 0020 00000000 		.dword	_ZN6Thread3runEv
 1420      00000000 
 1421              		.weak	_ZTV9Semaphore
 1422              		.section	.data.rel.ro.local._ZTV9Semaphore,"awG",@progbits,_ZTV9Semaphore,comdat
 1423              		.align	3
 1426              	_ZTV9Semaphore:
 1427 0000 00000000 		.dword	0
 1427      00000000 
 1428 0008 00000000 		.dword	0
 1428      00000000 
 1429 0010 00000000 		.dword	_ZN9SemaphoreD1Ev
 1429      00000000 
 1430 0018 00000000 		.dword	_ZN9SemaphoreD0Ev
 1430      00000000 
 1431              		.weak	_ZTV14PeriodicThread
 1432              		.section	.data.rel.ro.local._ZTV14PeriodicThread,"awG",@progbits,_ZTV14PeriodicThread,comdat
 1433              		.align	3
 1436              	_ZTV14PeriodicThread:
 1437 0000 00000000 		.dword	0
 1437      00000000 
GAS LISTING /tmp/ccb1NzOc.s 			page 36


 1438 0008 00000000 		.dword	0
 1438      00000000 
 1439 0010 00000000 		.dword	_ZN14PeriodicThreadD1Ev
 1439      00000000 
 1440 0018 00000000 		.dword	_ZN14PeriodicThreadD0Ev
 1440      00000000 
 1441 0020 00000000 		.dword	_ZN14PeriodicThread3runEv
 1441      00000000 
 1442 0028 00000000 		.dword	_ZN14PeriodicThread18periodicActivationEv
 1442      00000000 
 1443              		.globl	_ZN14PeriodicThread2IDE
 1444              		.weak	_ZGVZN15MemoryAllocator11getInstanceEvE8instance
 1445              		.section	.bss._ZGVZN15MemoryAllocator11getInstanceEvE8instance,"awG",@nobits,_ZGVZN15MemoryAllocat
 1446              		.align	3
 1449              	_ZGVZN15MemoryAllocator11getInstanceEvE8instance:
 1450 0000 00000000 		.zero	8
 1450      00000000 
 1451              		.weak	_ZZN15MemoryAllocator11getInstanceEvE8instance
 1452              		.section	.bss._ZZN15MemoryAllocator11getInstanceEvE8instance,"awG",@nobits,_ZZN15MemoryAllocator11
 1453              		.align	3
 1456              	_ZZN15MemoryAllocator11getInstanceEvE8instance:
 1457 0000 00000000 		.zero	24
 1457      00000000 
 1457      00000000 
 1457      00000000 
 1457      00000000 
 1458              		.bss
 1459              		.align	3
 1460              		.set	.LANCHOR0,. + 0
 1463              	_ZN14PeriodicThread2IDE:
 1464 0000 00000000 		.zero	8
 1464      00000000 
 1465              		.text
 1466              	.Letext0:
 1467              		.file 6 "src/../h/../h/../h/../h/../lib/hw.h"
 1468              		.file 7 "src/../h/../h/syscall_c.h"
 7204              		.align	3
 7207              	DW.ref.__gxx_personality_v0:
 7208 0000 00000000 		.dword	__gxx_personality_v0
 7208      00000000 
 7209              		.ident	"GCC: (Ubuntu 9.4.0-1ubuntu1~20.04) 9.4.0"
 7210              		.section	.note.GNU-stack,"",@progbits
GAS LISTING /tmp/ccb1NzOc.s 			page 37


DEFINED SYMBOLS
                            *ABS*:0000000000000000 syscall_cpp.cpp
     /tmp/ccb1NzOc.s:10     .text._ZN6Thread3runEv:0000000000000000 _ZN6Thread3runEv
     /tmp/ccb1NzOc.s:14     .text._ZN6Thread3runEv:0000000000000000 .L0 
     /tmp/ccb1NzOc.s:16     .text._ZN6Thread3runEv:0000000000000000 .L0 
     /tmp/ccb1NzOc.s:17     .text._ZN6Thread3runEv:0000000000000004 .L0 
     /tmp/ccb1NzOc.s:19     .text._ZN6Thread3runEv:0000000000000008 .L0 
     /tmp/ccb1NzOc.s:21     .text._ZN6Thread3runEv:000000000000000c .L0 
     /tmp/ccb1NzOc.s:23     .text._ZN6Thread3runEv:000000000000000c .L0 
     /tmp/ccb1NzOc.s:24     .text._ZN6Thread3runEv:0000000000000010 .L0 
     /tmp/ccb1NzOc.s:25     .text._ZN6Thread3runEv:0000000000000010 .L0 
     /tmp/ccb1NzOc.s:27     .text._ZN6Thread3runEv:0000000000000014 .L0 
     /tmp/ccb1NzOc.s:29     .text._ZN6Thread3runEv:0000000000000018 .L0 
     /tmp/ccb1NzOc.s:36     .text._ZN14PeriodicThread18periodicActivationEv:0000000000000000 _ZN14PeriodicThread18periodicActivationEv
     /tmp/ccb1NzOc.s:39     .text._ZN14PeriodicThread18periodicActivationEv:0000000000000000 .L0 
     /tmp/ccb1NzOc.s:41     .text._ZN14PeriodicThread18periodicActivationEv:0000000000000000 .L0 
     /tmp/ccb1NzOc.s:42     .text._ZN14PeriodicThread18periodicActivationEv:0000000000000004 .L0 
     /tmp/ccb1NzOc.s:44     .text._ZN14PeriodicThread18periodicActivationEv:0000000000000008 .L0 
     /tmp/ccb1NzOc.s:46     .text._ZN14PeriodicThread18periodicActivationEv:000000000000000c .L0 
     /tmp/ccb1NzOc.s:48     .text._ZN14PeriodicThread18periodicActivationEv:000000000000000c .L0 
     /tmp/ccb1NzOc.s:49     .text._ZN14PeriodicThread18periodicActivationEv:0000000000000010 .L0 
     /tmp/ccb1NzOc.s:50     .text._ZN14PeriodicThread18periodicActivationEv:0000000000000010 .L0 
     /tmp/ccb1NzOc.s:52     .text._ZN14PeriodicThread18periodicActivationEv:0000000000000014 .L0 
     /tmp/ccb1NzOc.s:54     .text._ZN14PeriodicThread18periodicActivationEv:0000000000000018 .L0 
     /tmp/ccb1NzOc.s:61     .text:0000000000000000 _ZN6Thread11wrapper_runEPv
     /tmp/ccb1NzOc.s:65     .text:0000000000000000 .L0 
     /tmp/ccb1NzOc.s:67     .text:0000000000000000 .L0 
     /tmp/ccb1NzOc.s:68     .text:0000000000000004 .L0 
     /tmp/ccb1NzOc.s:71     .text:000000000000000c .L0 
     /tmp/ccb1NzOc.s:72     .text:000000000000000c .L0 
     /tmp/ccb1NzOc.s:74     .text:0000000000000010 .L0 
     /tmp/ccb1NzOc.s:76     .text:0000000000000010 .L0 
     /tmp/ccb1NzOc.s:77     .text:0000000000000010 .L0 
     /tmp/ccb1NzOc.s:80     .text:0000000000000018 .L0 
     /tmp/ccb1NzOc.s:83     .text:000000000000001c .L0 
     /tmp/ccb1NzOc.s:84     .text:0000000000000020 .L0 
     /tmp/ccb1NzOc.s:86     .text:0000000000000024 .L0 
     /tmp/ccb1NzOc.s:87     .text:0000000000000024 .L0 
     /tmp/ccb1NzOc.s:89     .text:0000000000000028 .L0 
     /tmp/ccb1NzOc.s:91     .text:000000000000002c .L0 
     /tmp/ccb1NzOc.s:97     .text:000000000000002c _ZN9SemaphoreD2Ev
     /tmp/ccb1NzOc.s:100    .text:000000000000002c .L0 
     /tmp/ccb1NzOc.s:7207   .data.rel.local.DW.ref.__gxx_personality_v0:0000000000000000 DW.ref.__gxx_personality_v0
     /tmp/ccb1NzOc.s:104    .text:000000000000002c .L0 
     /tmp/ccb1NzOc.s:105    .text:0000000000000030 .L0 
     /tmp/ccb1NzOc.s:109    .text:000000000000003c .L0 
     /tmp/ccb1NzOc.s:110    .text:000000000000003c .L0 
     /tmp/ccb1NzOc.s:111    .text:000000000000003c .L0 
     /tmp/ccb1NzOc.s:113    .text:0000000000000040 .L0 
     /tmp/ccb1NzOc.s:1426   .data.rel.ro.local._ZTV9Semaphore:0000000000000000 _ZTV9Semaphore
     /tmp/ccb1NzOc.s:116    .text:0000000000000040 .L0 
     /tmp/ccb1NzOc.s:119    .text:000000000000004c .L0 
     /tmp/ccb1NzOc.s:120    .text:000000000000004c .L0 
     /tmp/ccb1NzOc.s:122    .text:0000000000000050 .L0 
     /tmp/ccb1NzOc.s:128    .text:0000000000000054 .L0 
     /tmp/ccb1NzOc.s:129    .text:0000000000000054 .L0 
     /tmp/ccb1NzOc.s:141    .text:0000000000000060 .L0 
GAS LISTING /tmp/ccb1NzOc.s 			page 38


     /tmp/ccb1NzOc.s:142    .text:0000000000000060 .L0 
     /tmp/ccb1NzOc.s:1449   .bss._ZGVZN15MemoryAllocator11getInstanceEvE8instance:0000000000000000 _ZGVZN15MemoryAllocator11getInstanceEvE8instance
     /tmp/ccb1NzOc.s:143    .text:0000000000000060 .L0 
     /tmp/ccb1NzOc.s:149    .text:000000000000006c .L0 
     /tmp/ccb1NzOc.s:150    .text:000000000000006c .L0 
     /tmp/ccb1NzOc.s:1456   .bss._ZZN15MemoryAllocator11getInstanceEvE8instance:0000000000000000 _ZZN15MemoryAllocator11getInstanceEvE8instance
     /tmp/ccb1NzOc.s:159    .text:0000000000000080 .L0 
     /tmp/ccb1NzOc.s:160    .text:0000000000000084 .L0 
     /tmp/ccb1NzOc.s:161    .text:0000000000000084 .L0 
     /tmp/ccb1NzOc.s:163    .text:0000000000000088 .L0 
     /tmp/ccb1NzOc.s:164    .text:0000000000000088 .L0 
     /tmp/ccb1NzOc.s:166    .text:000000000000008c .L0 
     /tmp/ccb1NzOc.s:168    .text:0000000000000090 .L0 
     /tmp/ccb1NzOc.s:172    .text:0000000000000094 .L0 
     /tmp/ccb1NzOc.s:182    .text:0000000000000094 .L0 
     /tmp/ccb1NzOc.s:185    .text:000000000000009c .L0 
     /tmp/ccb1NzOc.s:186    .text:000000000000009c .L0 
     /tmp/ccb1NzOc.s:192    .text:00000000000000b8 .L0 
     /tmp/ccb1NzOc.s:194    .text:00000000000000bc .L0 
     /tmp/ccb1NzOc.s:196    .text:00000000000000c0 .L0 
     /tmp/ccb1NzOc.s:198    .text:00000000000000c4 .L0 
     /tmp/ccb1NzOc.s:200    .text:00000000000000c8 .L0 
     /tmp/ccb1NzOc.s:201    .text:00000000000000c8 .L0 
     /tmp/ccb1NzOc.s:203    .text:00000000000000cc .L0 
     /tmp/ccb1NzOc.s:205    .text:00000000000000d0 .L0 
     /tmp/ccb1NzOc.s:206    .text:00000000000000d0 .L0 
     /tmp/ccb1NzOc.s:208    .text:00000000000000d4 .L0 
     /tmp/ccb1NzOc.s:211    .text:00000000000000d8 .L0 
     /tmp/ccb1NzOc.s:212    .text:00000000000000d8 .L0 
     /tmp/ccb1NzOc.s:214    .text:00000000000000dc .L0 
     /tmp/ccb1NzOc.s:219    .text:00000000000000e8 .L0 
     /tmp/ccb1NzOc.s:221    .text:00000000000000ec .L0 
     /tmp/ccb1NzOc.s:223    .text:00000000000000f4 .L0 
     /tmp/ccb1NzOc.s:224    .text:00000000000000f4 .L0 
     /tmp/ccb1NzOc.s:226    .text:00000000000000f8 .L0 
     /tmp/ccb1NzOc.s:227    .text:00000000000000f8 .L0 
     /tmp/ccb1NzOc.s:229    .text:00000000000000fc .L0 
     /tmp/ccb1NzOc.s:230    .text:00000000000000fc .L0 
     /tmp/ccb1NzOc.s:237    .text:0000000000000100 .L0 
     /tmp/ccb1NzOc.s:245    .text:0000000000000110 .L0 
     /tmp/ccb1NzOc.s:97     .text:000000000000002c _ZN9SemaphoreD1Ev
     /tmp/ccb1NzOc.s:261    .text:0000000000000110 _ZN6ThreadD2Ev
     /tmp/ccb1NzOc.s:264    .text:0000000000000110 .L0 
     /tmp/ccb1NzOc.s:268    .text:0000000000000110 .L0 
     /tmp/ccb1NzOc.s:269    .text:0000000000000114 .L0 
     /tmp/ccb1NzOc.s:273    .text:0000000000000120 .L0 
     /tmp/ccb1NzOc.s:274    .text:0000000000000120 .L0 
     /tmp/ccb1NzOc.s:275    .text:0000000000000120 .L0 
     /tmp/ccb1NzOc.s:277    .text:0000000000000124 .L0 
     /tmp/ccb1NzOc.s:1415   .data.rel.ro.local._ZTV6Thread:0000000000000000 _ZTV6Thread
     /tmp/ccb1NzOc.s:280    .text:0000000000000124 .L0 
     /tmp/ccb1NzOc.s:283    .text:0000000000000130 .L0 
     /tmp/ccb1NzOc.s:284    .text:0000000000000130 .L0 
     /tmp/ccb1NzOc.s:286    .text:0000000000000134 .L0 
     /tmp/ccb1NzOc.s:294    .text:0000000000000138 .L0 
     /tmp/ccb1NzOc.s:295    .text:0000000000000138 .L0 
     /tmp/ccb1NzOc.s:296    .text:0000000000000138 .L0 
GAS LISTING /tmp/ccb1NzOc.s 			page 39


     /tmp/ccb1NzOc.s:302    .text:0000000000000144 .L0 
     /tmp/ccb1NzOc.s:303    .text:0000000000000144 .L0 
     /tmp/ccb1NzOc.s:315    .text:0000000000000158 .L0 
     /tmp/ccb1NzOc.s:316    .text:0000000000000158 .L0 
     /tmp/ccb1NzOc.s:317    .text:0000000000000158 .L0 
     /tmp/ccb1NzOc.s:323    .text:0000000000000164 .L0 
     /tmp/ccb1NzOc.s:324    .text:0000000000000164 .L0 
     /tmp/ccb1NzOc.s:333    .text:0000000000000178 .L0 
     /tmp/ccb1NzOc.s:334    .text:000000000000017c .L0 
     /tmp/ccb1NzOc.s:335    .text:000000000000017c .L0 
     /tmp/ccb1NzOc.s:337    .text:0000000000000180 .L0 
     /tmp/ccb1NzOc.s:338    .text:0000000000000180 .L0 
     /tmp/ccb1NzOc.s:340    .text:0000000000000184 .L0 
     /tmp/ccb1NzOc.s:342    .text:0000000000000188 .L0 
     /tmp/ccb1NzOc.s:346    .text:000000000000018c .L0 
     /tmp/ccb1NzOc.s:356    .text:000000000000018c .L0 
     /tmp/ccb1NzOc.s:359    .text:0000000000000194 .L0 
     /tmp/ccb1NzOc.s:360    .text:0000000000000194 .L0 
     /tmp/ccb1NzOc.s:366    .text:00000000000001b0 .L0 
     /tmp/ccb1NzOc.s:368    .text:00000000000001b4 .L0 
     /tmp/ccb1NzOc.s:370    .text:00000000000001b8 .L0 
     /tmp/ccb1NzOc.s:372    .text:00000000000001bc .L0 
     /tmp/ccb1NzOc.s:374    .text:00000000000001c0 .L0 
     /tmp/ccb1NzOc.s:375    .text:00000000000001c0 .L0 
     /tmp/ccb1NzOc.s:377    .text:00000000000001c4 .L0 
     /tmp/ccb1NzOc.s:379    .text:00000000000001c8 .L0 
     /tmp/ccb1NzOc.s:380    .text:00000000000001c8 .L0 
     /tmp/ccb1NzOc.s:382    .text:00000000000001cc .L0 
     /tmp/ccb1NzOc.s:385    .text:00000000000001d0 .L0 
     /tmp/ccb1NzOc.s:386    .text:00000000000001d0 .L0 
     /tmp/ccb1NzOc.s:388    .text:00000000000001d4 .L0 
     /tmp/ccb1NzOc.s:393    .text:00000000000001e0 .L0 
     /tmp/ccb1NzOc.s:395    .text:00000000000001e4 .L0 
     /tmp/ccb1NzOc.s:397    .text:00000000000001ec .L0 
     /tmp/ccb1NzOc.s:398    .text:00000000000001ec .L0 
     /tmp/ccb1NzOc.s:400    .text:00000000000001f0 .L0 
     /tmp/ccb1NzOc.s:401    .text:00000000000001f0 .L0 
     /tmp/ccb1NzOc.s:403    .text:00000000000001f4 .L0 
     /tmp/ccb1NzOc.s:404    .text:00000000000001f4 .L0 
     /tmp/ccb1NzOc.s:411    .text:00000000000001f8 .L0 
     /tmp/ccb1NzOc.s:428    .text:0000000000000208 .L0 
     /tmp/ccb1NzOc.s:431    .text:0000000000000210 .L0 
     /tmp/ccb1NzOc.s:432    .text:0000000000000210 .L0 
     /tmp/ccb1NzOc.s:438    .text:000000000000022c .L0 
     /tmp/ccb1NzOc.s:440    .text:0000000000000230 .L0 
     /tmp/ccb1NzOc.s:442    .text:0000000000000234 .L0 
     /tmp/ccb1NzOc.s:444    .text:0000000000000238 .L0 
     /tmp/ccb1NzOc.s:446    .text:000000000000023c .L0 
     /tmp/ccb1NzOc.s:447    .text:000000000000023c .L0 
     /tmp/ccb1NzOc.s:449    .text:0000000000000240 .L0 
     /tmp/ccb1NzOc.s:451    .text:0000000000000244 .L0 
     /tmp/ccb1NzOc.s:452    .text:0000000000000244 .L0 
     /tmp/ccb1NzOc.s:454    .text:0000000000000248 .L0 
     /tmp/ccb1NzOc.s:457    .text:000000000000024c .L0 
     /tmp/ccb1NzOc.s:458    .text:000000000000024c .L0 
     /tmp/ccb1NzOc.s:460    .text:0000000000000250 .L0 
     /tmp/ccb1NzOc.s:465    .text:000000000000025c .L0 
GAS LISTING /tmp/ccb1NzOc.s 			page 40


     /tmp/ccb1NzOc.s:467    .text:0000000000000260 .L0 
     /tmp/ccb1NzOc.s:469    .text:0000000000000268 .L0 
     /tmp/ccb1NzOc.s:470    .text:0000000000000268 .L0 
     /tmp/ccb1NzOc.s:472    .text:000000000000026c .L0 
     /tmp/ccb1NzOc.s:473    .text:000000000000026c .L0 
     /tmp/ccb1NzOc.s:475    .text:0000000000000270 .L0 
     /tmp/ccb1NzOc.s:476    .text:0000000000000270 .L0 
     /tmp/ccb1NzOc.s:483    .text:0000000000000274 .L0 
     /tmp/ccb1NzOc.s:491    .text:0000000000000284 .L0 
     /tmp/ccb1NzOc.s:261    .text:0000000000000110 _ZN6ThreadD1Ev
     /tmp/ccb1NzOc.s:507    .text._ZN14PeriodicThreadD2Ev:0000000000000000 _ZN14PeriodicThreadD2Ev
     /tmp/ccb1NzOc.s:510    .text._ZN14PeriodicThreadD2Ev:0000000000000000 .L0 
     /tmp/ccb1NzOc.s:512    .text._ZN14PeriodicThreadD2Ev:0000000000000000 .L0 
     /tmp/ccb1NzOc.s:513    .text._ZN14PeriodicThreadD2Ev:0000000000000004 .L0 
     /tmp/ccb1NzOc.s:516    .text._ZN14PeriodicThreadD2Ev:000000000000000c .L0 
     /tmp/ccb1NzOc.s:517    .text._ZN14PeriodicThreadD2Ev:000000000000000c .L0 
     /tmp/ccb1NzOc.s:519    .text._ZN14PeriodicThreadD2Ev:0000000000000010 .L0 
     /tmp/ccb1NzOc.s:1436   .data.rel.ro.local._ZTV14PeriodicThread:0000000000000000 _ZTV14PeriodicThread
     /tmp/ccb1NzOc.s:522    .text._ZN14PeriodicThreadD2Ev:0000000000000010 .L0 
     /tmp/ccb1NzOc.s:528    .text._ZN14PeriodicThreadD2Ev:0000000000000028 .L0 
     /tmp/ccb1NzOc.s:530    .text._ZN14PeriodicThreadD2Ev:000000000000002c .L0 
     /tmp/ccb1NzOc.s:531    .text._ZN14PeriodicThreadD2Ev:000000000000002c .L0 
     /tmp/ccb1NzOc.s:533    .text._ZN14PeriodicThreadD2Ev:0000000000000030 .L0 
     /tmp/ccb1NzOc.s:535    .text._ZN14PeriodicThreadD2Ev:0000000000000034 .L0 
     /tmp/ccb1NzOc.s:507    .text._ZN14PeriodicThreadD2Ev:0000000000000000 _ZN14PeriodicThreadD1Ev
     /tmp/ccb1NzOc.s:544    .text:0000000000000284 _Znwm
     /tmp/ccb1NzOc.s:547    .text:0000000000000284 .L0 
     /tmp/ccb1NzOc.s:549    .text:0000000000000284 .L0 
     /tmp/ccb1NzOc.s:550    .text:0000000000000288 .L0 
     /tmp/ccb1NzOc.s:553    .text:0000000000000290 .L0 
     /tmp/ccb1NzOc.s:554    .text:0000000000000290 .L0 
     /tmp/ccb1NzOc.s:556    .text:0000000000000294 .L0 
     /tmp/ccb1NzOc.s:558    .text:0000000000000294 .L0 
     /tmp/ccb1NzOc.s:559    .text:0000000000000294 .L0 
     /tmp/ccb1NzOc.s:562    .text:000000000000029c .L0 
     /tmp/ccb1NzOc.s:563    .text:00000000000002a0 .L0 
     /tmp/ccb1NzOc.s:565    .text:00000000000002a4 .L0 
     /tmp/ccb1NzOc.s:566    .text:00000000000002a4 .L0 
     /tmp/ccb1NzOc.s:568    .text:00000000000002a8 .L0 
     /tmp/ccb1NzOc.s:570    .text:00000000000002ac .L0 
     /tmp/ccb1NzOc.s:576    .text:00000000000002ac _Znam
     /tmp/ccb1NzOc.s:579    .text:00000000000002ac .L0 
     /tmp/ccb1NzOc.s:581    .text:00000000000002ac .L0 
     /tmp/ccb1NzOc.s:582    .text:00000000000002b0 .L0 
     /tmp/ccb1NzOc.s:585    .text:00000000000002b8 .L0 
     /tmp/ccb1NzOc.s:586    .text:00000000000002b8 .L0 
     /tmp/ccb1NzOc.s:588    .text:00000000000002bc .L0 
     /tmp/ccb1NzOc.s:590    .text:00000000000002bc .L0 
     /tmp/ccb1NzOc.s:591    .text:00000000000002bc .L0 
     /tmp/ccb1NzOc.s:594    .text:00000000000002c4 .L0 
     /tmp/ccb1NzOc.s:595    .text:00000000000002c8 .L0 
     /tmp/ccb1NzOc.s:597    .text:00000000000002cc .L0 
     /tmp/ccb1NzOc.s:598    .text:00000000000002cc .L0 
     /tmp/ccb1NzOc.s:600    .text:00000000000002d0 .L0 
     /tmp/ccb1NzOc.s:602    .text:00000000000002d4 .L0 
     /tmp/ccb1NzOc.s:608    .text:00000000000002d4 _ZdlPv
     /tmp/ccb1NzOc.s:611    .text:00000000000002d4 .L0 
GAS LISTING /tmp/ccb1NzOc.s 			page 41


     /tmp/ccb1NzOc.s:613    .text:00000000000002d4 .L0 
     /tmp/ccb1NzOc.s:614    .text:00000000000002d8 .L0 
     /tmp/ccb1NzOc.s:617    .text:00000000000002e0 .L0 
     /tmp/ccb1NzOc.s:618    .text:00000000000002e0 .L0 
     /tmp/ccb1NzOc.s:620    .text:00000000000002e4 .L0 
     /tmp/ccb1NzOc.s:622    .text:00000000000002e4 .L0 
     /tmp/ccb1NzOc.s:623    .text:00000000000002e4 .L0 
     /tmp/ccb1NzOc.s:626    .text:00000000000002ec .L0 
     /tmp/ccb1NzOc.s:627    .text:00000000000002f0 .L0 
     /tmp/ccb1NzOc.s:629    .text:00000000000002f4 .L0 
     /tmp/ccb1NzOc.s:630    .text:00000000000002f4 .L0 
     /tmp/ccb1NzOc.s:632    .text:00000000000002f8 .L0 
     /tmp/ccb1NzOc.s:634    .text:00000000000002fc .L0 
     /tmp/ccb1NzOc.s:640    .text:00000000000002fc _ZN6ThreadD0Ev
     /tmp/ccb1NzOc.s:643    .text:00000000000002fc .L0 
     /tmp/ccb1NzOc.s:645    .text:00000000000002fc .L0 
     /tmp/ccb1NzOc.s:646    .text:0000000000000300 .L0 
     /tmp/ccb1NzOc.s:650    .text:000000000000030c .L0 
     /tmp/ccb1NzOc.s:651    .text:000000000000030c .L0 
     /tmp/ccb1NzOc.s:652    .text:000000000000030c .L0 
     /tmp/ccb1NzOc.s:654    .text:0000000000000310 .L0 
     /tmp/ccb1NzOc.s:657    .text:0000000000000314 .L0 
     /tmp/ccb1NzOc.s:663    .text:000000000000032c .L0 
     /tmp/ccb1NzOc.s:665    .text:0000000000000330 .L0 
     /tmp/ccb1NzOc.s:666    .text:0000000000000330 .L0 
     /tmp/ccb1NzOc.s:668    .text:0000000000000334 .L0 
     /tmp/ccb1NzOc.s:671    .text:0000000000000338 .L0 
     /tmp/ccb1NzOc.s:673    .text:000000000000033c .L0 
     /tmp/ccb1NzOc.s:679    .text:000000000000033c _ZN9SemaphoreD0Ev
     /tmp/ccb1NzOc.s:682    .text:000000000000033c .L0 
     /tmp/ccb1NzOc.s:684    .text:000000000000033c .L0 
     /tmp/ccb1NzOc.s:685    .text:0000000000000340 .L0 
     /tmp/ccb1NzOc.s:689    .text:000000000000034c .L0 
     /tmp/ccb1NzOc.s:690    .text:000000000000034c .L0 
     /tmp/ccb1NzOc.s:691    .text:000000000000034c .L0 
     /tmp/ccb1NzOc.s:693    .text:0000000000000350 .L0 
     /tmp/ccb1NzOc.s:696    .text:0000000000000354 .L0 
     /tmp/ccb1NzOc.s:702    .text:000000000000036c .L0 
     /tmp/ccb1NzOc.s:704    .text:0000000000000370 .L0 
     /tmp/ccb1NzOc.s:705    .text:0000000000000370 .L0 
     /tmp/ccb1NzOc.s:707    .text:0000000000000374 .L0 
     /tmp/ccb1NzOc.s:710    .text:0000000000000378 .L0 
     /tmp/ccb1NzOc.s:712    .text:000000000000037c .L0 
     /tmp/ccb1NzOc.s:719    .text._ZN14PeriodicThreadD0Ev:0000000000000000 _ZN14PeriodicThreadD0Ev
     /tmp/ccb1NzOc.s:722    .text._ZN14PeriodicThreadD0Ev:0000000000000000 .L0 
     /tmp/ccb1NzOc.s:724    .text._ZN14PeriodicThreadD0Ev:0000000000000000 .L0 
     /tmp/ccb1NzOc.s:725    .text._ZN14PeriodicThreadD0Ev:0000000000000004 .L0 
     /tmp/ccb1NzOc.s:729    .text._ZN14PeriodicThreadD0Ev:0000000000000010 .L0 
     /tmp/ccb1NzOc.s:730    .text._ZN14PeriodicThreadD0Ev:0000000000000010 .L0 
     /tmp/ccb1NzOc.s:731    .text._ZN14PeriodicThreadD0Ev:0000000000000010 .L0 
     /tmp/ccb1NzOc.s:733    .text._ZN14PeriodicThreadD0Ev:0000000000000014 .L0 
     /tmp/ccb1NzOc.s:739    .text._ZN14PeriodicThreadD0Ev:0000000000000018 .L0 
     /tmp/ccb1NzOc.s:749    .text._ZN14PeriodicThreadD0Ev:000000000000003c .L0 
     /tmp/ccb1NzOc.s:751    .text._ZN14PeriodicThreadD0Ev:0000000000000040 .L0 
     /tmp/ccb1NzOc.s:752    .text._ZN14PeriodicThreadD0Ev:0000000000000040 .L0 
     /tmp/ccb1NzOc.s:754    .text._ZN14PeriodicThreadD0Ev:0000000000000044 .L0 
     /tmp/ccb1NzOc.s:757    .text._ZN14PeriodicThreadD0Ev:0000000000000048 .L0 
GAS LISTING /tmp/ccb1NzOc.s 			page 42


     /tmp/ccb1NzOc.s:759    .text._ZN14PeriodicThreadD0Ev:000000000000004c .L0 
     /tmp/ccb1NzOc.s:766    .text:000000000000037c _ZdaPv
     /tmp/ccb1NzOc.s:769    .text:000000000000037c .L0 
     /tmp/ccb1NzOc.s:771    .text:000000000000037c .L0 
     /tmp/ccb1NzOc.s:772    .text:0000000000000380 .L0 
     /tmp/ccb1NzOc.s:775    .text:0000000000000388 .L0 
     /tmp/ccb1NzOc.s:776    .text:0000000000000388 .L0 
     /tmp/ccb1NzOc.s:778    .text:000000000000038c .L0 
     /tmp/ccb1NzOc.s:780    .text:000000000000038c .L0 
     /tmp/ccb1NzOc.s:781    .text:000000000000038c .L0 
     /tmp/ccb1NzOc.s:784    .text:0000000000000394 .L0 
     /tmp/ccb1NzOc.s:785    .text:0000000000000398 .L0 
     /tmp/ccb1NzOc.s:787    .text:000000000000039c .L0 
     /tmp/ccb1NzOc.s:788    .text:000000000000039c .L0 
     /tmp/ccb1NzOc.s:790    .text:00000000000003a0 .L0 
     /tmp/ccb1NzOc.s:792    .text:00000000000003a4 .L0 
     /tmp/ccb1NzOc.s:798    .text:00000000000003a4 _ZN6ThreadC2EPFvPvES0_
     /tmp/ccb1NzOc.s:801    .text:00000000000003a4 .L0 
     /tmp/ccb1NzOc.s:803    .text:00000000000003a4 .L0 
     /tmp/ccb1NzOc.s:804    .text:00000000000003a8 .L0 
     /tmp/ccb1NzOc.s:810    .text:00000000000003bc .L0 
     /tmp/ccb1NzOc.s:811    .text:00000000000003bc .L0 
     /tmp/ccb1NzOc.s:812    .text:00000000000003bc .L0 
     /tmp/ccb1NzOc.s:813    .text:00000000000003bc .L0 
     /tmp/ccb1NzOc.s:814    .text:00000000000003bc .L0 
     /tmp/ccb1NzOc.s:816    .text:00000000000003c0 .L0 
     /tmp/ccb1NzOc.s:822    .text:00000000000003cc .L0 
     /tmp/ccb1NzOc.s:826    .text:00000000000003d8 .L0 
     /tmp/ccb1NzOc.s:827    .text:00000000000003d8 .L0 
     /tmp/ccb1NzOc.s:829    .text:00000000000003dc .L0 
     /tmp/ccb1NzOc.s:835    .text:00000000000003e8 .L0 
     /tmp/ccb1NzOc.s:836    .text:00000000000003e8 .L0 
     /tmp/ccb1NzOc.s:837    .text:00000000000003e8 .L0 
     /tmp/ccb1NzOc.s:838    .text:00000000000003e8 .L0 
     /tmp/ccb1NzOc.s:841    .text:00000000000003ec .L0 
     /tmp/ccb1NzOc.s:842    .text:00000000000003ec .L0 
     /tmp/ccb1NzOc.s:843    .text:00000000000003ec .L0 
     /tmp/ccb1NzOc.s:844    .text:00000000000003ec .L0 
     /tmp/ccb1NzOc.s:845    .text:00000000000003ec .L0 
     /tmp/ccb1NzOc.s:846    .text:00000000000003ec .L0 
     /tmp/ccb1NzOc.s:856    .text:0000000000000410 .L0 
     /tmp/ccb1NzOc.s:857    .text:0000000000000410 .L0 
     /tmp/ccb1NzOc.s:864    .text:000000000000041c .L0 
     /tmp/ccb1NzOc.s:865    .text:0000000000000420 .L0 
     /tmp/ccb1NzOc.s:866    .text:0000000000000420 .L0 
     /tmp/ccb1NzOc.s:868    .text:0000000000000424 .L0 
     /tmp/ccb1NzOc.s:869    .text:0000000000000424 .L0 
     /tmp/ccb1NzOc.s:871    .text:0000000000000428 .L0 
     /tmp/ccb1NzOc.s:874    .text:000000000000042c .L0 
     /tmp/ccb1NzOc.s:877    .text:0000000000000430 .L0 
     /tmp/ccb1NzOc.s:880    .text:0000000000000434 .L0 
     /tmp/ccb1NzOc.s:884    .text:0000000000000438 .L0 
     /tmp/ccb1NzOc.s:888    .text:0000000000000438 .L0 
     /tmp/ccb1NzOc.s:892    .text:0000000000000440 .L0 
     /tmp/ccb1NzOc.s:798    .text:00000000000003a4 _ZN6ThreadC1EPFvPvES0_
     /tmp/ccb1NzOc.s:900    .text:0000000000000440 _ZN6Thread5startEv
     /tmp/ccb1NzOc.s:903    .text:0000000000000440 .L0 
GAS LISTING /tmp/ccb1NzOc.s 			page 43


     /tmp/ccb1NzOc.s:905    .text:0000000000000440 .L0 
     /tmp/ccb1NzOc.s:906    .text:0000000000000444 .L0 
     /tmp/ccb1NzOc.s:909    .text:000000000000044c .L0 
     /tmp/ccb1NzOc.s:910    .text:000000000000044c .L0 
     /tmp/ccb1NzOc.s:912    .text:0000000000000450 .L0 
     /tmp/ccb1NzOc.s:914    .text:0000000000000450 .L0 
     /tmp/ccb1NzOc.s:915    .text:0000000000000450 .L0 
     /tmp/ccb1NzOc.s:920    .text:000000000000045c .L0 
     /tmp/ccb1NzOc.s:921    .text:000000000000045c .L0 
     /tmp/ccb1NzOc.s:923    .text:0000000000000464 .L0 
     /tmp/ccb1NzOc.s:925    .text:0000000000000468 .L0 
     /tmp/ccb1NzOc.s:926    .text:0000000000000468 .L0 
     /tmp/ccb1NzOc.s:928    .text:000000000000046c .L0 
     /tmp/ccb1NzOc.s:930    .text:0000000000000470 .L0 
     /tmp/ccb1NzOc.s:936    .text:0000000000000470 _ZN6Thread8dispatchEv
     /tmp/ccb1NzOc.s:939    .text:0000000000000470 .L0 
     /tmp/ccb1NzOc.s:940    .text:0000000000000470 .L0 
     /tmp/ccb1NzOc.s:941    .text:0000000000000474 .L0 
     /tmp/ccb1NzOc.s:944    .text:000000000000047c .L0 
     /tmp/ccb1NzOc.s:945    .text:000000000000047c .L0 
     /tmp/ccb1NzOc.s:947    .text:0000000000000480 .L0 
     /tmp/ccb1NzOc.s:949    .text:0000000000000480 .L0 
     /tmp/ccb1NzOc.s:950    .text:0000000000000480 .L0 
     /tmp/ccb1NzOc.s:953    .text:0000000000000488 .L0 
     /tmp/ccb1NzOc.s:954    .text:000000000000048c .L0 
     /tmp/ccb1NzOc.s:956    .text:0000000000000490 .L0 
     /tmp/ccb1NzOc.s:957    .text:0000000000000490 .L0 
     /tmp/ccb1NzOc.s:959    .text:0000000000000494 .L0 
     /tmp/ccb1NzOc.s:961    .text:0000000000000498 .L0 
     /tmp/ccb1NzOc.s:967    .text:0000000000000498 _ZN6Thread5sleepEm
     /tmp/ccb1NzOc.s:970    .text:0000000000000498 .L0 
     /tmp/ccb1NzOc.s:972    .text:0000000000000498 .L0 
     /tmp/ccb1NzOc.s:973    .text:000000000000049c .L0 
     /tmp/ccb1NzOc.s:976    .text:00000000000004a4 .L0 
     /tmp/ccb1NzOc.s:977    .text:00000000000004a4 .L0 
     /tmp/ccb1NzOc.s:979    .text:00000000000004a8 .L0 
     /tmp/ccb1NzOc.s:981    .text:00000000000004a8 .L0 
     /tmp/ccb1NzOc.s:982    .text:00000000000004a8 .L0 
     /tmp/ccb1NzOc.s:985    .text:00000000000004b0 .L0 
     /tmp/ccb1NzOc.s:986    .text:00000000000004b4 .L0 
     /tmp/ccb1NzOc.s:988    .text:00000000000004b8 .L0 
     /tmp/ccb1NzOc.s:989    .text:00000000000004b8 .L0 
     /tmp/ccb1NzOc.s:991    .text:00000000000004bc .L0 
     /tmp/ccb1NzOc.s:993    .text:00000000000004c0 .L0 
     /tmp/ccb1NzOc.s:999    .text:00000000000004c0 _ZN14PeriodicThread3runEv
     /tmp/ccb1NzOc.s:1002   .text:00000000000004c0 .L0 
     /tmp/ccb1NzOc.s:1004   .text:00000000000004c0 .L0 
     /tmp/ccb1NzOc.s:1005   .text:00000000000004c4 .L0 
     /tmp/ccb1NzOc.s:1009   .text:00000000000004d0 .L0 
     /tmp/ccb1NzOc.s:1010   .text:00000000000004d0 .L0 
     /tmp/ccb1NzOc.s:1011   .text:00000000000004d0 .L0 
     /tmp/ccb1NzOc.s:1013   .text:00000000000004d4 .L0 
     /tmp/ccb1NzOc.s:1018   .text:00000000000004d8 .L0 
     /tmp/ccb1NzOc.s:1019   .text:00000000000004d8 .L0 
     /tmp/ccb1NzOc.s:1022   .text:00000000000004e0 .L0 
     /tmp/ccb1NzOc.s:1023   .text:00000000000004e0 .L0 
     /tmp/ccb1NzOc.s:1026   .text:00000000000004e8 .L0 
GAS LISTING /tmp/ccb1NzOc.s 			page 44


     /tmp/ccb1NzOc.s:1030   .text:00000000000004f0 .L0 
     /tmp/ccb1NzOc.s:1031   .text:00000000000004f0 .L0 
     /tmp/ccb1NzOc.s:1035   .text:00000000000004fc .L0 
     /tmp/ccb1NzOc.s:1038   .text:0000000000000500 .L0 
     /tmp/ccb1NzOc.s:1039   .text:0000000000000504 .L0 
     /tmp/ccb1NzOc.s:1041   .text:0000000000000508 .L0 
     /tmp/ccb1NzOc.s:1042   .text:0000000000000508 .L0 
     /tmp/ccb1NzOc.s:1044   .text:000000000000050c .L0 
     /tmp/ccb1NzOc.s:1047   .text:0000000000000510 .L0 
     /tmp/ccb1NzOc.s:1049   .text:0000000000000514 .L0 
     /tmp/ccb1NzOc.s:1055   .text:0000000000000514 _ZN6ThreadC2Ev
     /tmp/ccb1NzOc.s:1058   .text:0000000000000514 .L0 
     /tmp/ccb1NzOc.s:1060   .text:0000000000000514 .L0 
     /tmp/ccb1NzOc.s:1061   .text:0000000000000518 .L0 
     /tmp/ccb1NzOc.s:1065   .text:0000000000000524 .L0 
     /tmp/ccb1NzOc.s:1066   .text:0000000000000524 .L0 
     /tmp/ccb1NzOc.s:1067   .text:0000000000000524 .L0 
     /tmp/ccb1NzOc.s:1069   .text:0000000000000528 .L0 
     /tmp/ccb1NzOc.s:1073   .text:000000000000052c .L0 
     /tmp/ccb1NzOc.s:1077   .text:0000000000000538 .L0 
     /tmp/ccb1NzOc.s:1078   .text:0000000000000538 .L0 
     /tmp/ccb1NzOc.s:1083   .text:0000000000000544 .L0 
     /tmp/ccb1NzOc.s:1084   .text:0000000000000544 .L0 
     /tmp/ccb1NzOc.s:1085   .text:0000000000000544 .L0 
     /tmp/ccb1NzOc.s:1086   .text:0000000000000544 .L0 
     /tmp/ccb1NzOc.s:1089   .text:0000000000000548 .L0 
     /tmp/ccb1NzOc.s:1090   .text:0000000000000548 .L0 
     /tmp/ccb1NzOc.s:1091   .text:0000000000000548 .L0 
     /tmp/ccb1NzOc.s:1092   .text:0000000000000548 .L0 
     /tmp/ccb1NzOc.s:1093   .text:0000000000000548 .L0 
     /tmp/ccb1NzOc.s:1094   .text:0000000000000548 .L0 
     /tmp/ccb1NzOc.s:1106   .text:0000000000000574 .L0 
     /tmp/ccb1NzOc.s:1107   .text:0000000000000574 .L0 
     /tmp/ccb1NzOc.s:1114   .text:0000000000000580 .L0 
     /tmp/ccb1NzOc.s:1115   .text:0000000000000584 .L0 
     /tmp/ccb1NzOc.s:1117   .text:0000000000000588 .L0 
     /tmp/ccb1NzOc.s:1118   .text:0000000000000588 .L0 
     /tmp/ccb1NzOc.s:1120   .text:000000000000058c .L0 
     /tmp/ccb1NzOc.s:1123   .text:0000000000000590 .L0 
     /tmp/ccb1NzOc.s:1125   .text:0000000000000594 .L0 
     /tmp/ccb1NzOc.s:1055   .text:0000000000000514 _ZN6ThreadC1Ev
     /tmp/ccb1NzOc.s:1133   .text:0000000000000594 _ZN9SemaphoreC2Ej
     /tmp/ccb1NzOc.s:1136   .text:0000000000000594 .L0 
     /tmp/ccb1NzOc.s:1138   .text:0000000000000594 .L0 
     /tmp/ccb1NzOc.s:1139   .text:0000000000000598 .L0 
     /tmp/ccb1NzOc.s:1142   .text:00000000000005a0 .L0 
     /tmp/ccb1NzOc.s:1143   .text:00000000000005a0 .L0 
     /tmp/ccb1NzOc.s:1145   .text:00000000000005a4 .L0 
     /tmp/ccb1NzOc.s:1148   .text:00000000000005a4 .L0 
     /tmp/ccb1NzOc.s:1151   .text:00000000000005b0 .L0 
     /tmp/ccb1NzOc.s:1152   .text:00000000000005b0 .L0 
     /tmp/ccb1NzOc.s:1161   .text:00000000000005c4 .L0 
     /tmp/ccb1NzOc.s:1162   .text:00000000000005c8 .L0 
     /tmp/ccb1NzOc.s:1164   .text:00000000000005cc .L0 
     /tmp/ccb1NzOc.s:1165   .text:00000000000005cc .L0 
     /tmp/ccb1NzOc.s:1167   .text:00000000000005d0 .L0 
     /tmp/ccb1NzOc.s:1169   .text:00000000000005d4 .L0 
GAS LISTING /tmp/ccb1NzOc.s 			page 45


     /tmp/ccb1NzOc.s:1133   .text:0000000000000594 _ZN9SemaphoreC1Ej
     /tmp/ccb1NzOc.s:1177   .text:00000000000005d4 _ZN9Semaphore4waitEv
     /tmp/ccb1NzOc.s:1180   .text:00000000000005d4 .L0 
     /tmp/ccb1NzOc.s:1182   .text:00000000000005d4 .L0 
     /tmp/ccb1NzOc.s:1183   .text:00000000000005d8 .L0 
     /tmp/ccb1NzOc.s:1186   .text:00000000000005e0 .L0 
     /tmp/ccb1NzOc.s:1187   .text:00000000000005e0 .L0 
     /tmp/ccb1NzOc.s:1189   .text:00000000000005e4 .L0 
     /tmp/ccb1NzOc.s:1191   .text:00000000000005e4 .L0 
     /tmp/ccb1NzOc.s:1192   .text:00000000000005e4 .L0 
     /tmp/ccb1NzOc.s:1197   .text:00000000000005f0 .L0 
     /tmp/ccb1NzOc.s:1198   .text:00000000000005f4 .L0 
     /tmp/ccb1NzOc.s:1200   .text:00000000000005f8 .L0 
     /tmp/ccb1NzOc.s:1201   .text:00000000000005f8 .L0 
     /tmp/ccb1NzOc.s:1203   .text:00000000000005fc .L0 
     /tmp/ccb1NzOc.s:1205   .text:0000000000000600 .L0 
     /tmp/ccb1NzOc.s:1211   .text:0000000000000600 _ZN9Semaphore6signalEv
     /tmp/ccb1NzOc.s:1214   .text:0000000000000600 .L0 
     /tmp/ccb1NzOc.s:1216   .text:0000000000000600 .L0 
     /tmp/ccb1NzOc.s:1217   .text:0000000000000604 .L0 
     /tmp/ccb1NzOc.s:1220   .text:000000000000060c .L0 
     /tmp/ccb1NzOc.s:1221   .text:000000000000060c .L0 
     /tmp/ccb1NzOc.s:1223   .text:0000000000000610 .L0 
     /tmp/ccb1NzOc.s:1225   .text:0000000000000610 .L0 
     /tmp/ccb1NzOc.s:1226   .text:0000000000000610 .L0 
     /tmp/ccb1NzOc.s:1231   .text:000000000000061c .L0 
     /tmp/ccb1NzOc.s:1232   .text:0000000000000620 .L0 
     /tmp/ccb1NzOc.s:1234   .text:0000000000000624 .L0 
     /tmp/ccb1NzOc.s:1235   .text:0000000000000624 .L0 
     /tmp/ccb1NzOc.s:1237   .text:0000000000000628 .L0 
     /tmp/ccb1NzOc.s:1239   .text:000000000000062c .L0 
     /tmp/ccb1NzOc.s:1245   .text:000000000000062c _ZN7Console4getcEv
     /tmp/ccb1NzOc.s:1248   .text:000000000000062c .L0 
     /tmp/ccb1NzOc.s:1249   .text:000000000000062c .L0 
     /tmp/ccb1NzOc.s:1250   .text:0000000000000630 .L0 
     /tmp/ccb1NzOc.s:1253   .text:0000000000000638 .L0 
     /tmp/ccb1NzOc.s:1254   .text:0000000000000638 .L0 
     /tmp/ccb1NzOc.s:1256   .text:000000000000063c .L0 
     /tmp/ccb1NzOc.s:1258   .text:000000000000063c .L0 
     /tmp/ccb1NzOc.s:1259   .text:000000000000063c .L0 
     /tmp/ccb1NzOc.s:1262   .text:0000000000000644 .L0 
     /tmp/ccb1NzOc.s:1263   .text:0000000000000648 .L0 
     /tmp/ccb1NzOc.s:1265   .text:000000000000064c .L0 
     /tmp/ccb1NzOc.s:1266   .text:000000000000064c .L0 
     /tmp/ccb1NzOc.s:1268   .text:0000000000000650 .L0 
     /tmp/ccb1NzOc.s:1270   .text:0000000000000654 .L0 
     /tmp/ccb1NzOc.s:1276   .text:0000000000000654 _ZN7Console4putcEc
     /tmp/ccb1NzOc.s:1279   .text:0000000000000654 .L0 
     /tmp/ccb1NzOc.s:1281   .text:0000000000000654 .L0 
     /tmp/ccb1NzOc.s:1282   .text:0000000000000658 .L0 
     /tmp/ccb1NzOc.s:1285   .text:0000000000000660 .L0 
     /tmp/ccb1NzOc.s:1286   .text:0000000000000660 .L0 
     /tmp/ccb1NzOc.s:1288   .text:0000000000000664 .L0 
     /tmp/ccb1NzOc.s:1290   .text:0000000000000664 .L0 
     /tmp/ccb1NzOc.s:1291   .text:0000000000000664 .L0 
     /tmp/ccb1NzOc.s:1294   .text:000000000000066c .L0 
     /tmp/ccb1NzOc.s:1295   .text:0000000000000670 .L0 
GAS LISTING /tmp/ccb1NzOc.s 			page 46


     /tmp/ccb1NzOc.s:1297   .text:0000000000000674 .L0 
     /tmp/ccb1NzOc.s:1298   .text:0000000000000674 .L0 
     /tmp/ccb1NzOc.s:1300   .text:0000000000000678 .L0 
     /tmp/ccb1NzOc.s:1302   .text:000000000000067c .L0 
     /tmp/ccb1NzOc.s:1308   .text:000000000000067c _ZN14PeriodicThreadC2Em
     /tmp/ccb1NzOc.s:1311   .text:000000000000067c .L0 
     /tmp/ccb1NzOc.s:1315   .text:000000000000067c .L0 
     /tmp/ccb1NzOc.s:1316   .text:0000000000000680 .L0 
     /tmp/ccb1NzOc.s:1321   .text:0000000000000690 .L0 
     /tmp/ccb1NzOc.s:1322   .text:0000000000000690 .L0 
     /tmp/ccb1NzOc.s:1323   .text:0000000000000690 .L0 
     /tmp/ccb1NzOc.s:1324   .text:0000000000000690 .L0 
     /tmp/ccb1NzOc.s:1326   .text:0000000000000694 .L0 
     /tmp/ccb1NzOc.s:1332   .text:000000000000069c .L0 
     /tmp/ccb1NzOc.s:1343   .text:00000000000006c8 .L0 
     /tmp/ccb1NzOc.s:1344   .text:00000000000006c8 .L0 
     /tmp/ccb1NzOc.s:1346   .text:00000000000006cc .L0 
     /tmp/ccb1NzOc.s:1347   .text:00000000000006cc .L0 
     /tmp/ccb1NzOc.s:1350   .text:00000000000006d4 .L0 
     /tmp/ccb1NzOc.s:1351   .text:00000000000006d4 .L0 
     /tmp/ccb1NzOc.s:1361   .text:00000000000006e8 .L0 
     /tmp/ccb1NzOc.s:1372   .text:0000000000000700 .L0 
     /tmp/ccb1NzOc.s:1373   .text:0000000000000704 .L0 
     /tmp/ccb1NzOc.s:1375   .text:0000000000000708 .L0 
     /tmp/ccb1NzOc.s:1376   .text:0000000000000708 .L0 
     /tmp/ccb1NzOc.s:1378   .text:000000000000070c .L0 
     /tmp/ccb1NzOc.s:1381   .text:0000000000000710 .L0 
     /tmp/ccb1NzOc.s:1384   .text:0000000000000714 .L0 
     /tmp/ccb1NzOc.s:1386   .text:0000000000000718 .L0 
     /tmp/ccb1NzOc.s:1308   .text:000000000000067c _ZN14PeriodicThreadC1Em
     /tmp/ccb1NzOc.s:1463   .bss:0000000000000000 _ZN14PeriodicThread2IDE
     /tmp/ccb1NzOc.s:1460   .bss:0000000000000000 .LANCHOR0
     /tmp/ccb1NzOc.s:32     .text._ZN6Thread3runEv:0000000000000018 .L0 
     /tmp/ccb1NzOc.s:57     .text._ZN14PeriodicThread18periodicActivationEv:0000000000000018 .L0 
     /tmp/ccb1NzOc.s:1469   .text:0000000000000718 .L0 
     /tmp/ccb1NzOc.s:540    .text._ZN14PeriodicThreadD2Ev:0000000000000034 .L0 
     /tmp/ccb1NzOc.s:762    .text._ZN14PeriodicThreadD0Ev:000000000000004c .L0 
     /tmp/ccb1NzOc.s:116    .text:0000000000000040 .L0 
     /tmp/ccb1NzOc.s:143    .text:0000000000000060 .L0 
     /tmp/ccb1NzOc.s:151    .text:0000000000000070 .L0 
     /tmp/ccb1NzOc.s:182    .text:0000000000000094 .L0 
     /tmp/ccb1NzOc.s:186    .text:000000000000009c .L0 
     /tmp/ccb1NzOc.s:188    .text:00000000000000a8 .L0 
     /tmp/ccb1NzOc.s:221    .text:00000000000000ec .L0 
     /tmp/ccb1NzOc.s:238    .text:0000000000000104 .L0 
     /tmp/ccb1NzOc.s:280    .text:0000000000000124 .L0 
     /tmp/ccb1NzOc.s:296    .text:0000000000000138 .L0 
     /tmp/ccb1NzOc.s:304    .text:0000000000000148 .L0 
     /tmp/ccb1NzOc.s:317    .text:0000000000000158 .L0 
     /tmp/ccb1NzOc.s:325    .text:0000000000000168 .L0 
     /tmp/ccb1NzOc.s:356    .text:000000000000018c .L0 
     /tmp/ccb1NzOc.s:360    .text:0000000000000194 .L0 
     /tmp/ccb1NzOc.s:362    .text:00000000000001a0 .L0 
     /tmp/ccb1NzOc.s:395    .text:00000000000001e4 .L0 
     /tmp/ccb1NzOc.s:412    .text:00000000000001fc .L0 
     /tmp/ccb1NzOc.s:428    .text:0000000000000208 .L0 
     /tmp/ccb1NzOc.s:432    .text:0000000000000210 .L0 
GAS LISTING /tmp/ccb1NzOc.s 			page 47


     /tmp/ccb1NzOc.s:434    .text:000000000000021c .L0 
     /tmp/ccb1NzOc.s:467    .text:0000000000000260 .L0 
     /tmp/ccb1NzOc.s:484    .text:0000000000000278 .L0 
     /tmp/ccb1NzOc.s:822    .text:00000000000003cc .L0 
     /tmp/ccb1NzOc.s:1073   .text:000000000000052c .L0 
     /tmp/ccb1NzOc.s:1097   .text:0000000000000554 .L0 
     /tmp/ccb1NzOc.s:1148   .text:00000000000005a4 .L0 
     /tmp/ccb1NzOc.s:1335   .text:00000000000006a4 .L0 
     /tmp/ccb1NzOc.s:1337   .text:00000000000006b0 .L0 
     /tmp/ccb1NzOc.s:154    .text:0000000000000080 .L7
     /tmp/ccb1NzOc.s:171    .text:0000000000000094 .L12
     /tmp/ccb1NzOc.s:217    .text:00000000000000e8 .L10
     /tmp/ccb1NzOc.s:145    .text:000000000000006c .L9
     /tmp/ccb1NzOc.s:328    .text:0000000000000178 .L13
     /tmp/ccb1NzOc.s:345    .text:000000000000018c .L20
     /tmp/ccb1NzOc.s:415    .text:0000000000000208 .L21
     /tmp/ccb1NzOc.s:391    .text:00000000000001e0 .L16
     /tmp/ccb1NzOc.s:298    .text:0000000000000144 .L15
     /tmp/ccb1NzOc.s:463    .text:000000000000025c .L18
     /tmp/ccb1NzOc.s:319    .text:0000000000000164 .L17
     /tmp/ccb1NzOc.s:883    .text:0000000000000438 .L40
     /tmp/ccb1NzOc.s:833    .text:00000000000003e8 .L39
     /tmp/ccb1NzOc.s:1036   .text:0000000000000500 .L48
     /tmp/ccb1NzOc.s:1016   .text:00000000000004d8 .L50
     /tmp/ccb1NzOc.s:1369   .text:0000000000000700 .L69
     /tmp/ccb1NzOc.s:1329   .text:000000000000069c .LEHB0
     /tmp/ccb1NzOc.s:1309   .text:000000000000067c .LFB84
     /tmp/ccb1NzOc.s:1334   .text:00000000000006a4 .LEHE0
     /tmp/ccb1NzOc.s:1352   .text:00000000000006d8 .LEHB1
     /tmp/ccb1NzOc.s:1355   .text:00000000000006e0 .LEHE1
     /tmp/ccb1NzOc.s:1357   .text:00000000000006e4 .L66
     /tmp/ccb1NzOc.s:1365   .text:00000000000006f8 .LEHB2
     /tmp/ccb1NzOc.s:1368   .text:0000000000000700 .LEHE2
     /tmp/ccb1NzOc.s:522    .text._ZN14PeriodicThreadD2Ev:0000000000000010 .L0 
     /tmp/ccb1NzOc.s:739    .text._ZN14PeriodicThreadD0Ev:0000000000000018 .L0 
     /tmp/ccb1NzOc.s:4423   .debug_abbrev:0000000000000000 .Ldebug_abbrev0
     /tmp/ccb1NzOc.s:7111   .debug_str:0000000000000cab .LASF220
     /tmp/ccb1NzOc.s:6905   .debug_str:00000000000005ed .LASF221
     /tmp/ccb1NzOc.s:6759   .debug_str:00000000000000d0 .LASF222
     /tmp/ccb1NzOc.s:6673   .debug_ranges:0000000000000000 .Ldebug_ranges0
     /tmp/ccb1NzOc.s:6729   .debug_line:0000000000000000 .Ldebug_line0
     /tmp/ccb1NzOc.s:6897   .debug_str:00000000000005ae .LASF0
     /tmp/ccb1NzOc.s:6925   .debug_str:00000000000006a9 .LASF1
     /tmp/ccb1NzOc.s:7045   .debug_str:0000000000000aee .LASF2
     /tmp/ccb1NzOc.s:7051   .debug_str:0000000000000b13 .LASF4
     /tmp/ccb1NzOc.s:6907   .debug_str:0000000000000601 .LASF3
     /tmp/ccb1NzOc.s:6749   .debug_str:000000000000008e .LASF5
     /tmp/ccb1NzOc.s:7005   .debug_str:000000000000098b .LASF6
     /tmp/ccb1NzOc.s:6993   .debug_str:0000000000000915 .LASF7
     /tmp/ccb1NzOc.s:6919   .debug_str:0000000000000685 .LASF8
     /tmp/ccb1NzOc.s:6863   .debug_str:000000000000046e .LASF9
     /tmp/ccb1NzOc.s:6875   .debug_str:00000000000004fe .LASF10
     /tmp/ccb1NzOc.s:6785   .debug_str:00000000000001a8 .LASF11
     /tmp/ccb1NzOc.s:7139   .debug_str:0000000000000e70 .LASF12
     /tmp/ccb1NzOc.s:6853   .debug_str:0000000000000424 .LASF13
     /tmp/ccb1NzOc.s:6803   .debug_str:000000000000024c .LASF14
     /tmp/ccb1NzOc.s:6783   .debug_str:0000000000000198 .LASF15
GAS LISTING /tmp/ccb1NzOc.s 			page 48


     /tmp/ccb1NzOc.s:7087   .debug_str:0000000000000c27 .LASF16
     /tmp/ccb1NzOc.s:6831   .debug_str:0000000000000331 .LASF17
     /tmp/ccb1NzOc.s:7077   .debug_str:0000000000000be5 .LASF18
     /tmp/ccb1NzOc.s:6989   .debug_str:00000000000008f8 .LASF22
     /tmp/ccb1NzOc.s:7107   .debug_str:0000000000000c9b .LASF37
     /tmp/ccb1NzOc.s:6923   .debug_str:00000000000006a4 .LASF19
     /tmp/ccb1NzOc.s:6787   .debug_str:00000000000001b7 .LASF20
     /tmp/ccb1NzOc.s:6765   .debug_str:0000000000000123 .LASF21
     /tmp/ccb1NzOc.s:7167   .debug_str:0000000000000f50 .LASF43
     /tmp/ccb1NzOc.s:6959   .debug_str:00000000000007d1 .LASF45
     /tmp/ccb1NzOc.s:6909   .debug_str:0000000000000613 .LASF24
     /tmp/ccb1NzOc.s:7049   .debug_str:0000000000000b09 .LASF23
     /tmp/ccb1NzOc.s:7149   .debug_str:0000000000000ec6 .LASF25
     /tmp/ccb1NzOc.s:6805   .debug_str:000000000000025c .LASF26
     /tmp/ccb1NzOc.s:6957   .debug_str:00000000000007ac .LASF27
     /tmp/ccb1NzOc.s:6757   .debug_str:00000000000000c4 .LASF28
     /tmp/ccb1NzOc.s:7017   .debug_str:00000000000009e9 .LASF29
     /tmp/ccb1NzOc.s:7043   .debug_str:0000000000000ad5 .LASF30
     /tmp/ccb1NzOc.s:6865   .debug_str:000000000000047e .LASF31
     /tmp/ccb1NzOc.s:6817   .debug_str:00000000000002c7 .LASF32
     /tmp/ccb1NzOc.s:6917   .debug_str:0000000000000656 .LASF33
     /tmp/ccb1NzOc.s:7073   .debug_str:0000000000000bc1 .LASF34
     /tmp/ccb1NzOc.s:7163   .debug_str:0000000000000f37 .LASF35
     /tmp/ccb1NzOc.s:7189   .debug_str:0000000000000fe2 .LASF36
     /tmp/ccb1NzOc.s:6761   .debug_str:0000000000000104 .LASF94
     /tmp/ccb1NzOc.s:7093   .debug_str:0000000000000c4b .LASF38
     /tmp/ccb1NzOc.s:7053   .debug_str:0000000000000b1a .LASF39
     /tmp/ccb1NzOc.s:6745   .debug_str:0000000000000078 .LASF41
     /tmp/ccb1NzOc.s:7085   .debug_str:0000000000000c19 .LASF40
     /tmp/ccb1NzOc.s:6889   .debug_str:0000000000000566 .LASF42
     /tmp/ccb1NzOc.s:6953   .debug_str:000000000000079b .LASF44
     /tmp/ccb1NzOc.s:6849   .debug_str:0000000000000408 .LASF46
     /tmp/ccb1NzOc.s:7023   .debug_str:0000000000000a23 .LASF79
     /tmp/ccb1NzOc.s:6939   .debug_str:0000000000000732 .LASF81
     /tmp/ccb1NzOc.s:7037   .debug_str:0000000000000aab .LASF47
     /tmp/ccb1NzOc.s:7055   .debug_str:0000000000000b1f .LASF48
     /tmp/ccb1NzOc.s:7155   .debug_str:0000000000000f02 .LASF49
     /tmp/ccb1NzOc.s:6809   .debug_str:0000000000000276 .LASF50
     /tmp/ccb1NzOc.s:6985   .debug_str:00000000000008d7 .LASF51
     /tmp/ccb1NzOc.s:6965   .debug_str:0000000000000831 .LASF52
     /tmp/ccb1NzOc.s:7009   .debug_str:00000000000009b1 .LASF53
     /tmp/ccb1NzOc.s:6839   .debug_str:0000000000000385 .LASF54
     /tmp/ccb1NzOc.s:7151   .debug_str:0000000000000ee2 .LASF55
     /tmp/ccb1NzOc.s:7007   .debug_str:0000000000000992 .LASF56
     /tmp/ccb1NzOc.s:7089   .debug_str:0000000000000c33 .LASF57
     /tmp/ccb1NzOc.s:7035   .debug_str:0000000000000a8f .LASF58
     /tmp/ccb1NzOc.s:6913   .debug_str:0000000000000638 .LASF59
     /tmp/ccb1NzOc.s:7025   .debug_str:0000000000000a33 .LASF60
     /tmp/ccb1NzOc.s:7161   .debug_str:0000000000000f26 .LASF61
     /tmp/ccb1NzOc.s:7115   .debug_str:0000000000000d7c .LASF62
     /tmp/ccb1NzOc.s:7079   .debug_str:0000000000000bfb .LASF63
     /tmp/ccb1NzOc.s:6845   .debug_str:00000000000003dc .LASF64
     /tmp/ccb1NzOc.s:7185   .debug_str:0000000000000fc7 .LASF65
     /tmp/ccb1NzOc.s:7075   .debug_str:0000000000000bcb .LASF66
     /tmp/ccb1NzOc.s:7131   .debug_str:0000000000000e1a .LASF67
     /tmp/ccb1NzOc.s:7027   .debug_str:0000000000000a4e .LASF68
     /tmp/ccb1NzOc.s:6915   .debug_str:0000000000000647 .LASF69
GAS LISTING /tmp/ccb1NzOc.s 			page 49


     /tmp/ccb1NzOc.s:6835   .debug_str:0000000000000350 .LASF70
     /tmp/ccb1NzOc.s:7125   .debug_str:0000000000000dec .LASF71
     /tmp/ccb1NzOc.s:6903   .debug_str:00000000000005d2 .LASF72
     /tmp/ccb1NzOc.s:7153   .debug_str:0000000000000ef5 .LASF73
     /tmp/ccb1NzOc.s:7135   .debug_str:0000000000000e31 .LASF74
     /tmp/ccb1NzOc.s:7059   .debug_str:0000000000000b4f .LASF75
     /tmp/ccb1NzOc.s:6791   .debug_str:00000000000001ce .LASF76
     /tmp/ccb1NzOc.s:6969   .debug_str:000000000000084e .LASF77
     /tmp/ccb1NzOc.s:7003   .debug_str:000000000000096f .LASF78
     /tmp/ccb1NzOc.s:6929   .debug_str:00000000000006cd .LASF80
     /tmp/ccb1NzOc.s:7121   .debug_str:0000000000000dc5 .LASF82
     /tmp/ccb1NzOc.s:7187   .debug_str:0000000000000fd5 .LASF83
     /tmp/ccb1NzOc.s:6869   .debug_str:00000000000004c7 .LASF84
     /tmp/ccb1NzOc.s:6779   .debug_str:0000000000000169 .LASF85
     /tmp/ccb1NzOc.s:6859   .debug_str:0000000000000456 .LASF86
     /tmp/ccb1NzOc.s:6739   .debug_str:000000000000004d .LASF87
     /tmp/ccb1NzOc.s:6947   .debug_str:0000000000000781 .LASF89
     /tmp/ccb1NzOc.s:7183   .debug_str:0000000000000fb4 .LASF88
     /tmp/ccb1NzOc.s:7047   .debug_str:0000000000000afc .LASF90
     /tmp/ccb1NzOc.s:7109   .debug_str:0000000000000ca3 .LASF91
     /tmp/ccb1NzOc.s:6855   .debug_str:0000000000000433 .LASF92
     /tmp/ccb1NzOc.s:6971   .debug_str:000000000000085e .LASF223
     /tmp/ccb1NzOc.s:6983   .debug_str:00000000000008d2 .LASF224
     /tmp/ccb1NzOc.s:6945   .debug_str:0000000000000772 .LASF93
     /tmp/ccb1NzOc.s:6933   .debug_str:00000000000006eb .LASF95
     /tmp/ccb1NzOc.s:6825   .debug_str:0000000000000307 .LASF225
     /tmp/ccb1NzOc.s:6961   .debug_str:00000000000007f5 .LASF226
     /tmp/ccb1NzOc.s:7069   .debug_str:0000000000000ba6 .LASF162
     /tmp/ccb1NzOc.s:6737   .debug_str:0000000000000048 .LASF96
     /tmp/ccb1NzOc.s:6911   .debug_str:000000000000062f .LASF97
     /tmp/ccb1NzOc.s:7179   .debug_str:0000000000000f9e .LASF98
     /tmp/ccb1NzOc.s:7133   .debug_str:0000000000000e29 .LASF99
     /tmp/ccb1NzOc.s:7091   .debug_str:0000000000000c42 .LASF100
     /tmp/ccb1NzOc.s:7095   .debug_str:0000000000000c53 .LASF101
     /tmp/ccb1NzOc.s:6887   .debug_str:000000000000055b .LASF102
     /tmp/ccb1NzOc.s:6807   .debug_str:0000000000000269 .LASF103
     /tmp/ccb1NzOc.s:6763   .debug_str:000000000000011d .LASF104
     /tmp/ccb1NzOc.s:7031   .debug_str:0000000000000a6e .LASF105
     /tmp/ccb1NzOc.s:7065   .debug_str:0000000000000b86 .LASF106
     /tmp/ccb1NzOc.s:6935   .debug_str:0000000000000714 .LASF107
     /tmp/ccb1NzOc.s:6861   .debug_str:0000000000000462 .LASF108
     /tmp/ccb1NzOc.s:7029   .debug_str:0000000000000a69 .LASF109
     /tmp/ccb1NzOc.s:7157   .debug_str:0000000000000f0f .LASF110
     /tmp/ccb1NzOc.s:6767   .debug_str:0000000000000128 .LASF112
     /tmp/ccb1NzOc.s:7171   .debug_str:0000000000000f6d .LASF111
     /tmp/ccb1NzOc.s:7083   .debug_str:0000000000000c14 .LASF113
     /tmp/ccb1NzOc.s:6949   .debug_str:000000000000078e .LASF114
     /tmp/ccb1NzOc.s:6901   .debug_str:00000000000005cd .LASF115
     /tmp/ccb1NzOc.s:6815   .debug_str:00000000000002b4 .LASF116
     /tmp/ccb1NzOc.s:6955   .debug_str:00000000000007a7 .LASF117
     /tmp/ccb1NzOc.s:6827   .debug_str:0000000000000316 .LASF118
     /tmp/ccb1NzOc.s:7101   .debug_str:0000000000000c6f .LASF119
     /tmp/ccb1NzOc.s:6793   .debug_str:00000000000001eb .LASF120
     /tmp/ccb1NzOc.s:6885   .debug_str:000000000000054e .LASF121
     /tmp/ccb1NzOc.s:6813   .debug_str:000000000000029f .LASF122
     /tmp/ccb1NzOc.s:7141   .debug_str:0000000000000e7b .LASF123
     /tmp/ccb1NzOc.s:6801   .debug_str:000000000000022c .LASF124
GAS LISTING /tmp/ccb1NzOc.s 			page 50


     /tmp/ccb1NzOc.s:7021   .debug_str:0000000000000a19 .LASF125
     /tmp/ccb1NzOc.s:6781   .debug_str:0000000000000179 .LASF126
     /tmp/ccb1NzOc.s:7195   .debug_str:0000000000001019 .LASF127
     /tmp/ccb1NzOc.s:6857   .debug_str:0000000000000438 .LASF128
     /tmp/ccb1NzOc.s:6881   .debug_str:000000000000053c .LASF129
     /tmp/ccb1NzOc.s:6877   .debug_str:000000000000050c .LASF130
     /tmp/ccb1NzOc.s:7145   .debug_str:0000000000000e9f .LASF131
     /tmp/ccb1NzOc.s:7137   .debug_str:0000000000000e49 .LASF132
     /tmp/ccb1NzOc.s:6811   .debug_str:000000000000028e .LASF133
     /tmp/ccb1NzOc.s:7191   .debug_str:0000000000000fea .LASF134
     /tmp/ccb1NzOc.s:6895   .debug_str:00000000000005a8 .LASF135
     /tmp/ccb1NzOc.s:6771   .debug_str:0000000000000135 .LASF136
     /tmp/ccb1NzOc.s:6741   .debug_str:000000000000005d .LASF137
     /tmp/ccb1NzOc.s:6823   .debug_str:00000000000002ec .LASF138
     /tmp/ccb1NzOc.s:6777   .debug_str:000000000000015b .LASF139
     /tmp/ccb1NzOc.s:7001   .debug_str:000000000000094c .LASF140
     /tmp/ccb1NzOc.s:7159   .debug_str:0000000000000f18 .LASF141
     /tmp/ccb1NzOc.s:6963   .debug_str:000000000000080f .LASF142
     /tmp/ccb1NzOc.s:7081   .debug_str:0000000000000c0c .LASF143
     /tmp/ccb1NzOc.s:6841   .debug_str:00000000000003a5 .LASF144
     /tmp/ccb1NzOc.s:6829   .debug_str:0000000000000329 .LASF145
     /tmp/ccb1NzOc.s:6837   .debug_str:000000000000036a .LASF146
     /tmp/ccb1NzOc.s:6999   .debug_str:0000000000000937 .LASF147
     /tmp/ccb1NzOc.s:6987   .debug_str:00000000000008e3 .LASF148
     /tmp/ccb1NzOc.s:6943   .debug_str:000000000000075c .LASF149
     /tmp/ccb1NzOc.s:7033   .debug_str:0000000000000a79 .LASF150
     /tmp/ccb1NzOc.s:6937   .debug_str:000000000000071d .LASF151
     /tmp/ccb1NzOc.s:7193   .debug_str:000000000000100f .LASF152
     /tmp/ccb1NzOc.s:6851   .debug_str:000000000000041f .LASF153
     /tmp/ccb1NzOc.s:6967   .debug_str:0000000000000849 .LASF154
     /tmp/ccb1NzOc.s:7165   .debug_str:0000000000000f41 .LASF155
     /tmp/ccb1NzOc.s:6795   .debug_str:00000000000001f7 .LASF156
     /tmp/ccb1NzOc.s:7143   .debug_str:0000000000000e84 .LASF157
     /tmp/ccb1NzOc.s:6951   .debug_str:0000000000000796 .LASF158
     /tmp/ccb1NzOc.s:6843   .debug_str:00000000000003c1 .LASF159
     /tmp/ccb1NzOc.s:6931   .debug_str:00000000000006d3 .LASF160
     /tmp/ccb1NzOc.s:6871   .debug_str:00000000000004d3 .LASF161
     /tmp/ccb1NzOc.s:6733   .debug_str:0000000000000019 .LASF227
     /tmp/ccb1NzOc.s:7057   .debug_str:0000000000000b35 .LASF175
     /tmp/ccb1NzOc.s:6997   .debug_str:0000000000000932 .LASF163
     /tmp/ccb1NzOc.s:6995   .debug_str:0000000000000928 .LASF164
     /tmp/ccb1NzOc.s:6975   .debug_str:00000000000008a5 .LASF165
     /tmp/ccb1NzOc.s:7147   .debug_str:0000000000000eae .LASF228
     /tmp/ccb1NzOc.s:7119   .debug_str:0000000000000dad .LASF229
     /tmp/ccb1NzOc.s:6883   .debug_str:0000000000000547 .LASF166
     /tmp/ccb1NzOc.s:6797   .debug_str:0000000000000211 .LASF167
     /tmp/ccb1NzOc.s:7113   .debug_str:0000000000000d6f .LASF182
     /tmp/ccb1NzOc.s:7197   .debug_str:0000000000001022 .LASF168
     /tmp/ccb1NzOc.s:7071   .debug_str:0000000000000bb9 .LASF185
     /tmp/ccb1NzOc.s:6847   .debug_str:00000000000003f9 .LASF187
     /tmp/ccb1NzOc.s:7177   .debug_str:0000000000000f98 .LASF169
     /tmp/ccb1NzOc.s:6743   .debug_str:0000000000000065 .LASF170
     /tmp/ccb1NzOc.s:6819   .debug_str:00000000000002de .LASF171
     /tmp/ccb1NzOc.s:7173   .debug_str:0000000000000f73 .LASF172
     /tmp/ccb1NzOc.s:7117   .debug_str:0000000000000d9a .LASF173
     /tmp/ccb1NzOc.s:6879   .debug_str:000000000000052d .LASF174
     /tmp/ccb1NzOc.s:7169   .debug_str:0000000000000f5c .LASF176
GAS LISTING /tmp/ccb1NzOc.s 			page 51


     /tmp/ccb1NzOc.s:7011   .debug_str:00000000000009c4 .LASF177
     /tmp/ccb1NzOc.s:7067   .debug_str:0000000000000b8b .LASF178
     /tmp/ccb1NzOc.s:6833   .debug_str:0000000000000347 .LASF179
     /tmp/ccb1NzOc.s:7013   .debug_str:00000000000009d0 .LASF180
     /tmp/ccb1NzOc.s:7105   .debug_str:0000000000000c86 .LASF181
     /tmp/ccb1NzOc.s:7181   .debug_str:0000000000000fa4 .LASF183
     /tmp/ccb1NzOc.s:7103   .debug_str:0000000000000c74 .LASF184
     /tmp/ccb1NzOc.s:7019   .debug_str:0000000000000a0e .LASF186
     /tmp/ccb1NzOc.s:7063   .debug_str:0000000000000b74 .LASF188
     /tmp/ccb1NzOc.s:6821   .debug_str:00000000000002e7 .LASF189
     /tmp/ccb1NzOc.s:7129   .debug_str:0000000000000e05 .LASF190
     /tmp/ccb1NzOc.s:7097   .debug_str:0000000000000c62 .LASF191
     /tmp/ccb1NzOc.s:6751   .debug_str:0000000000000095 .LASF192
     /tmp/ccb1NzOc.s:6893   .debug_str:0000000000000598 .LASF230
     /tmp/ccb1NzOc.s:6735   .debug_str:0000000000000043 .LASF193
     /tmp/ccb1NzOc.s:6747   .debug_str:0000000000000084 .LASF194
     /tmp/ccb1NzOc.s:7199   .debug_str:0000000000001039 .LASF195
     /tmp/ccb1NzOc.s:720    .text._ZN14PeriodicThreadD0Ev:0000000000000000 .LFB90
     /tmp/ccb1NzOc.s:760    .text._ZN14PeriodicThreadD0Ev:000000000000004c .LFE90
     /tmp/ccb1NzOc.s:5992   .debug_loc:0000000000000000 .LLST19
     /tmp/ccb1NzOc.s:736    .text._ZN14PeriodicThreadD0Ev:0000000000000018 .LBB88
     /tmp/ccb1NzOc.s:744    .text._ZN14PeriodicThreadD0Ev:000000000000002c .LBE88
     /tmp/ccb1NzOc.s:6010   .debug_loc:000000000000004c .LLST20
     /tmp/ccb1NzOc.s:742    .text._ZN14PeriodicThreadD0Ev:000000000000002c .LVL41
     /tmp/ccb1NzOc.s:747    .text._ZN14PeriodicThreadD0Ev:0000000000000038 .LVL42
     /tmp/ccb1NzOc.s:7041   .debug_str:0000000000000abd .LASF196
     /tmp/ccb1NzOc.s:508    .text._ZN14PeriodicThreadD2Ev:0000000000000000 .LFB88
     /tmp/ccb1NzOc.s:536    .text._ZN14PeriodicThreadD2Ev:0000000000000034 .LFE88
     /tmp/ccb1NzOc.s:6021   .debug_loc:0000000000000082 .LLST13
     /tmp/ccb1NzOc.s:525    .text._ZN14PeriodicThreadD2Ev:0000000000000024 .LVL24
     /tmp/ccb1NzOc.s:1000   .text:00000000000004c0 .LFB86
     /tmp/ccb1NzOc.s:1050   .text:0000000000000514 .LFE86
     /tmp/ccb1NzOc.s:6035   .debug_loc:00000000000000bb .LLST35
     /tmp/ccb1NzOc.s:1028   .text:00000000000004f0 .LVL64
     /tmp/ccb1NzOc.s:1033   .text:00000000000004fc .LVL65
     /tmp/ccb1NzOc.s:6773   .debug_str:000000000000014e .LASF200
     /tmp/ccb1NzOc.s:6867   .debug_str:00000000000004af .LASF197
     /tmp/ccb1NzOc.s:1387   .text:0000000000000718 .LFE84
     /tmp/ccb1NzOc.s:6053   .debug_loc:0000000000000107 .LLST45
     /tmp/ccb1NzOc.s:6071   .debug_loc:0000000000000153 .LLST46
     /tmp/ccb1NzOc.s:1333   .text:00000000000006a4 .LVL89
     /tmp/ccb1NzOc.s:1354   .text:00000000000006e0 .LVL90
     /tmp/ccb1NzOc.s:1363   .text:00000000000006f4 .LVL92
     /tmp/ccb1NzOc.s:1367   .text:0000000000000700 .LVL93
     /tmp/ccb1NzOc.s:1277   .text:0000000000000654 .LFB82
     /tmp/ccb1NzOc.s:1303   .text:000000000000067c .LFE82
     /tmp/ccb1NzOc.s:6100   .debug_loc:00000000000001c8 .LLST44
     /tmp/ccb1NzOc.s:1292   .text:000000000000066c .LVL87
     /tmp/ccb1NzOc.s:1246   .text:000000000000062c .LFB81
     /tmp/ccb1NzOc.s:1271   .text:0000000000000654 .LFE81
     /tmp/ccb1NzOc.s:1260   .text:0000000000000644 .LVL85
     /tmp/ccb1NzOc.s:1212   .text:0000000000000600 .LFB80
     /tmp/ccb1NzOc.s:1240   .text:000000000000062c .LFE80
     /tmp/ccb1NzOc.s:6114   .debug_loc:0000000000000201 .LLST43
     /tmp/ccb1NzOc.s:1229   .text:000000000000061c .LVL84
     /tmp/ccb1NzOc.s:1178   .text:00000000000005d4 .LFB79
     /tmp/ccb1NzOc.s:1206   .text:0000000000000600 .LFE79
GAS LISTING /tmp/ccb1NzOc.s 			page 52


     /tmp/ccb1NzOc.s:6128   .debug_loc:000000000000023a .LLST42
     /tmp/ccb1NzOc.s:1195   .text:00000000000005f0 .LVL81
     /tmp/ccb1NzOc.s:6899   .debug_str:00000000000005bb .LASF198
     /tmp/ccb1NzOc.s:680    .text:000000000000033c .LFB78
     /tmp/ccb1NzOc.s:713    .text:000000000000037c .LFE78
     /tmp/ccb1NzOc.s:6142   .debug_loc:0000000000000273 .LLST18
     /tmp/ccb1NzOc.s:697    .text:000000000000035c .LVL36
     /tmp/ccb1NzOc.s:700    .text:0000000000000368 .LVL37
     /tmp/ccb1NzOc.s:6753   .debug_str:00000000000000ac .LASF199
     /tmp/ccb1NzOc.s:98     .text:000000000000002c .LFB76
     /tmp/ccb1NzOc.s:246    .text:0000000000000110 .LFE76
     /tmp/ccb1NzOc.s:6160   .debug_loc:00000000000002bf .LLST1
     /tmp/ccb1NzOc.s:124    .text:0000000000000054 .LBB28
     /tmp/ccb1NzOc.s:134    .text:0000000000000060 .LBE28
     /tmp/ccb1NzOc.s:6174   .debug_loc:00000000000002f8 .LLST2
     /tmp/ccb1NzOc.s:132    .text:0000000000000060 .LVL7
     /tmp/ccb1NzOc.s:135    .text:0000000000000060 .LBB30
     /tmp/ccb1NzOc.s:6181   .debug_loc:000000000000031b .LLST3
     /tmp/ccb1NzOc.s:138    .text:0000000000000060 .LBB32
     /tmp/ccb1NzOc.s:178    .text:0000000000000094 .LBB34
     /tmp/ccb1NzOc.s:235    .text:0000000000000100 .LBE34
     /tmp/ccb1NzOc.s:6192   .debug_loc:0000000000000351 .LLST4
     /tmp/ccb1NzOc.s:183    .text:000000000000009c .LBB37
     /tmp/ccb1NzOc.s:232    .text:0000000000000100 .LBE37
     /tmp/ccb1NzOc.s:6201   .debug_loc:000000000000037d .LLST5
     /tmp/ccb1NzOc.s:153    .text:0000000000000080 .LVL8
     /tmp/ccb1NzOc.s:6769   .debug_str:0000000000000130 .LASF201
     /tmp/ccb1NzOc.s:6789   .debug_str:00000000000001bc .LASF202
     /tmp/ccb1NzOc.s:1134   .text:0000000000000594 .LFB73
     /tmp/ccb1NzOc.s:1170   .text:00000000000005d4 .LFE73
     /tmp/ccb1NzOc.s:6208   .debug_loc:00000000000003a0 .LLST40
     /tmp/ccb1NzOc.s:6228   .debug_loc:00000000000003ee .LLST41
     /tmp/ccb1NzOc.s:1158   .text:00000000000005c4 .LVL78
     /tmp/ccb1NzOc.s:62     .text:0000000000000000 .LFB71
     /tmp/ccb1NzOc.s:92     .text:000000000000002c .LFE71
     /tmp/ccb1NzOc.s:7039   .debug_str:0000000000000ab6 .LASF203
     /tmp/ccb1NzOc.s:6242   .debug_loc:0000000000000427 .LLST0
     /tmp/ccb1NzOc.s:81     .text:000000000000001c .LVL3
     /tmp/ccb1NzOc.s:6755   .debug_str:00000000000000be .LASF204
     /tmp/ccb1NzOc.s:6979   .debug_str:00000000000008bc .LASF205
     /tmp/ccb1NzOc.s:1056   .text:0000000000000514 .LFB69
     /tmp/ccb1NzOc.s:1126   .text:0000000000000594 .LFE69
     /tmp/ccb1NzOc.s:6256   .debug_loc:0000000000000460 .LLST36
     /tmp/ccb1NzOc.s:1081   .text:0000000000000544 .LVL69
     /tmp/ccb1NzOc.s:1110   .text:0000000000000580 .LVL73
     /tmp/ccb1NzOc.s:1075   .text:0000000000000538 .LBB95
     /tmp/ccb1NzOc.s:1111   .text:0000000000000580 .LBE95
     /tmp/ccb1NzOc.s:6274   .debug_loc:00000000000004ac .LLST37
     /tmp/ccb1NzOc.s:6286   .debug_loc:00000000000004e3 .LLST38
     /tmp/ccb1NzOc.s:6313   .debug_loc:0000000000000548 .LLST39
     /tmp/ccb1NzOc.s:968    .text:0000000000000498 .LFB67
     /tmp/ccb1NzOc.s:994    .text:00000000000004c0 .LFE67
     /tmp/ccb1NzOc.s:6327   .debug_loc:0000000000000581 .LLST34
     /tmp/ccb1NzOc.s:983    .text:00000000000004b0 .LVL61
     /tmp/ccb1NzOc.s:937    .text:0000000000000470 .LFB66
     /tmp/ccb1NzOc.s:962    .text:0000000000000498 .LFE66
     /tmp/ccb1NzOc.s:951    .text:0000000000000488 .LVL59
GAS LISTING /tmp/ccb1NzOc.s 			page 53


     /tmp/ccb1NzOc.s:901    .text:0000000000000440 .LFB65
     /tmp/ccb1NzOc.s:931    .text:0000000000000470 .LFE65
     /tmp/ccb1NzOc.s:6341   .debug_loc:00000000000005ba .LLST33
     /tmp/ccb1NzOc.s:918    .text:000000000000045c .LVL58
     /tmp/ccb1NzOc.s:6941   .debug_str:000000000000074d .LASF206
     /tmp/ccb1NzOc.s:641    .text:00000000000002fc .LFB64
     /tmp/ccb1NzOc.s:674    .text:000000000000033c .LFE64
     /tmp/ccb1NzOc.s:6355   .debug_loc:00000000000005f3 .LLST17
     /tmp/ccb1NzOc.s:658    .text:000000000000031c .LVL32
     /tmp/ccb1NzOc.s:661    .text:0000000000000328 .LVL33
     /tmp/ccb1NzOc.s:7015   .debug_str:00000000000009da .LASF207
     /tmp/ccb1NzOc.s:262    .text:0000000000000110 .LFB62
     /tmp/ccb1NzOc.s:492    .text:0000000000000284 .LFE62
     /tmp/ccb1NzOc.s:6373   .debug_loc:000000000000063f .LLST6
     /tmp/ccb1NzOc.s:288    .text:0000000000000138 .LBB62
     /tmp/ccb1NzOc.s:6398   .debug_loc:00000000000006a1 .LLST7
     /tmp/ccb1NzOc.s:292    .text:0000000000000138 .LBB64
     /tmp/ccb1NzOc.s:352    .text:000000000000018c .LBB66
     /tmp/ccb1NzOc.s:409    .text:00000000000001f8 .LBE66
     /tmp/ccb1NzOc.s:6409   .debug_loc:00000000000006d7 .LLST8
     /tmp/ccb1NzOc.s:357    .text:0000000000000194 .LBB69
     /tmp/ccb1NzOc.s:406    .text:00000000000001f8 .LBE69
     /tmp/ccb1NzOc.s:6418   .debug_loc:0000000000000703 .LLST9
     /tmp/ccb1NzOc.s:307    .text:0000000000000158 .LVL15
     /tmp/ccb1NzOc.s:310    .text:0000000000000158 .LBB73
     /tmp/ccb1NzOc.s:6425   .debug_loc:0000000000000726 .LLST10
     /tmp/ccb1NzOc.s:313    .text:0000000000000158 .LBB75
     /tmp/ccb1NzOc.s:424    .text:0000000000000208 .LBB77
     /tmp/ccb1NzOc.s:481    .text:0000000000000274 .LBE77
     /tmp/ccb1NzOc.s:6436   .debug_loc:000000000000075c .LLST11
     /tmp/ccb1NzOc.s:429    .text:0000000000000210 .LBB80
     /tmp/ccb1NzOc.s:478    .text:0000000000000274 .LBE80
     /tmp/ccb1NzOc.s:6445   .debug_loc:0000000000000788 .LLST12
     /tmp/ccb1NzOc.s:327    .text:0000000000000178 .LVL16
     /tmp/ccb1NzOc.s:7123   .debug_str:0000000000000dd5 .LASF208
     /tmp/ccb1NzOc.s:799    .text:00000000000003a4 .LFB59
     /tmp/ccb1NzOc.s:893    .text:0000000000000440 .LFE59
     /tmp/ccb1NzOc.s:6452   .debug_loc:00000000000007ab .LLST22
     /tmp/ccb1NzOc.s:6480   .debug_loc:000000000000081f .LLST23
     /tmp/ccb1NzOc.s:6502   .debug_loc:000000000000087e .LLST24
     /tmp/ccb1NzOc.s:832    .text:00000000000003e8 .LVL48
     /tmp/ccb1NzOc.s:860    .text:000000000000041c .LVL51
     /tmp/ccb1NzOc.s:6524   .debug_loc:00000000000008dd .LLST25
     /tmp/ccb1NzOc.s:6536   .debug_loc:0000000000000915 .LLST26
     /tmp/ccb1NzOc.s:6544   .debug_loc:0000000000000939 .LLST27
     /tmp/ccb1NzOc.s:6560   .debug_loc:0000000000000974 .LLST28
     /tmp/ccb1NzOc.s:6574   .debug_loc:00000000000009ad .LLST29
     /tmp/ccb1NzOc.s:6588   .debug_loc:00000000000009e6 .LLST30
     /tmp/ccb1NzOc.s:6977   .debug_str:00000000000008b5 .LASF209
     /tmp/ccb1NzOc.s:767    .text:000000000000037c .LFB57
     /tmp/ccb1NzOc.s:793    .text:00000000000003a4 .LFE57
     /tmp/ccb1NzOc.s:6596   .debug_loc:0000000000000a0a .LLST21
     /tmp/ccb1NzOc.s:782    .text:0000000000000394 .LVL45
     /tmp/ccb1NzOc.s:6981   .debug_str:00000000000008cb .LASF210
     /tmp/ccb1NzOc.s:609    .text:00000000000002d4 .LFB56
     /tmp/ccb1NzOc.s:635    .text:00000000000002fc .LFE56
     /tmp/ccb1NzOc.s:6610   .debug_loc:0000000000000a43 .LLST16
GAS LISTING /tmp/ccb1NzOc.s 			page 54


     /tmp/ccb1NzOc.s:624    .text:00000000000002ec .LVL30
     /tmp/ccb1NzOc.s:7099   .debug_str:0000000000000c69 .LASF211
     /tmp/ccb1NzOc.s:577    .text:00000000000002ac .LFB55
     /tmp/ccb1NzOc.s:603    .text:00000000000002d4 .LFE55
     /tmp/ccb1NzOc.s:6624   .debug_loc:0000000000000a7c .LLST15
     /tmp/ccb1NzOc.s:592    .text:00000000000002c4 .LVL28
     /tmp/ccb1NzOc.s:6775   .debug_str:0000000000000155 .LASF212
     /tmp/ccb1NzOc.s:545    .text:0000000000000284 .LFB54
     /tmp/ccb1NzOc.s:571    .text:00000000000002ac .LFE54
     /tmp/ccb1NzOc.s:6638   .debug_loc:0000000000000ab5 .LLST14
     /tmp/ccb1NzOc.s:560    .text:000000000000029c .LVL26
     /tmp/ccb1NzOc.s:7061   .debug_str:0000000000000b5f .LASF213
     /tmp/ccb1NzOc.s:37     .text._ZN14PeriodicThread18periodicActivationEv:0000000000000000 .LFB42
     /tmp/ccb1NzOc.s:55     .text._ZN14PeriodicThread18periodicActivationEv:0000000000000018 .LFE42
     /tmp/ccb1NzOc.s:11     .text._ZN6Thread3runEv:0000000000000000 .LFB40
     /tmp/ccb1NzOc.s:30     .text._ZN6Thread3runEv:0000000000000018 .LFE40
     /tmp/ccb1NzOc.s:6921   .debug_str:0000000000000698 .LASF214
     /tmp/ccb1NzOc.s:6991   .debug_str:0000000000000908 .LASF215
     /tmp/ccb1NzOc.s:6731   .debug_str:0000000000000000 .LASF216
     /tmp/ccb1NzOc.s:6799   .debug_str:0000000000000223 .LASF231
     /tmp/ccb1NzOc.s:6973   .debug_str:0000000000000876 .LASF232
     /tmp/ccb1NzOc.s:7175   .debug_str:0000000000000f89 .LASF233
     /tmp/ccb1NzOc.s:6873   .debug_str:00000000000004e6 .LASF234
     /tmp/ccb1NzOc.s:7127   .debug_str:0000000000000dfb .LASF217
     /tmp/ccb1NzOc.s:6927   .debug_str:00000000000006bc .LASF218
     /tmp/ccb1NzOc.s:6891   .debug_str:000000000000058f .LASF219
     /tmp/ccb1NzOc.s:723    .text._ZN14PeriodicThreadD0Ev:0000000000000000 .LVL39
     /tmp/ccb1NzOc.s:755    .text._ZN14PeriodicThreadD0Ev:0000000000000044 .LVL43
     /tmp/ccb1NzOc.s:735    .text._ZN14PeriodicThreadD0Ev:0000000000000018 .LVL40
     /tmp/ccb1NzOc.s:511    .text._ZN14PeriodicThreadD2Ev:0000000000000000 .LVL23
     /tmp/ccb1NzOc.s:1003   .text:00000000000004c0 .LVL62
     /tmp/ccb1NzOc.s:1015   .text:00000000000004d8 .LVL63
     /tmp/ccb1NzOc.s:1045   .text:000000000000050c .LVL66
     /tmp/ccb1NzOc.s:1314   .text:000000000000067c .LVL88
     /tmp/ccb1NzOc.s:1379   .text:000000000000070c .LVL94
     /tmp/ccb1NzOc.s:1359   .text:00000000000006e8 .LVL91
     /tmp/ccb1NzOc.s:1382   .text:0000000000000710 .LVL95
     /tmp/ccb1NzOc.s:1280   .text:0000000000000654 .LVL86
     /tmp/ccb1NzOc.s:1215   .text:0000000000000600 .LVL82
     /tmp/ccb1NzOc.s:1227   .text:0000000000000614 .LVL83
     /tmp/ccb1NzOc.s:1181   .text:00000000000005d4 .LVL79
     /tmp/ccb1NzOc.s:1193   .text:00000000000005e8 .LVL80
     /tmp/ccb1NzOc.s:683    .text:000000000000033c .LVL35
     /tmp/ccb1NzOc.s:708    .text:0000000000000374 .LVL38
     /tmp/ccb1NzOc.s:103    .text:000000000000002c .LVL4
     /tmp/ccb1NzOc.s:130    .text:0000000000000058 .LVL6
     /tmp/ccb1NzOc.s:123    .text:0000000000000054 .LVL5
     /tmp/ccb1NzOc.s:170    .text:0000000000000094 .LVL9
     /tmp/ccb1NzOc.s:231    .text:0000000000000100 .LVL11
     /tmp/ccb1NzOc.s:209    .text:00000000000000d8 .LVL10
     /tmp/ccb1NzOc.s:1137   .text:0000000000000594 .LVL75
     /tmp/ccb1NzOc.s:1156   .text:00000000000005bc .LVL77
     /tmp/ccb1NzOc.s:1153   .text:00000000000005b4 .LVL76
     /tmp/ccb1NzOc.s:66     .text:0000000000000000 .LVL2
     /tmp/ccb1NzOc.s:1059   .text:0000000000000514 .LVL67
     /tmp/ccb1NzOc.s:1079   .text:000000000000053c .LVL68
     /tmp/ccb1NzOc.s:1121   .text:000000000000058c .LVL74
GAS LISTING /tmp/ccb1NzOc.s 			page 55


     /tmp/ccb1NzOc.s:1108   .text:0000000000000578 .LVL72
     /tmp/ccb1NzOc.s:1087   .text:0000000000000548 .LVL70
     /tmp/ccb1NzOc.s:1098   .text:000000000000055c .LVL71
     /tmp/ccb1NzOc.s:971    .text:0000000000000498 .LVL60
     /tmp/ccb1NzOc.s:904    .text:0000000000000440 .LVL56
     /tmp/ccb1NzOc.s:916    .text:0000000000000454 .LVL57
     /tmp/ccb1NzOc.s:644    .text:00000000000002fc .LVL31
     /tmp/ccb1NzOc.s:669    .text:0000000000000334 .LVL34
     /tmp/ccb1NzOc.s:267    .text:0000000000000110 .LVL12
     /tmp/ccb1NzOc.s:305    .text:0000000000000150 .LVL14
     /tmp/ccb1NzOc.s:344    .text:000000000000018c .LVL17
     /tmp/ccb1NzOc.s:414    .text:0000000000000208 .LVL20
     /tmp/ccb1NzOc.s:287    .text:0000000000000138 .LVL13
     /tmp/ccb1NzOc.s:405    .text:00000000000001f8 .LVL19
     /tmp/ccb1NzOc.s:383    .text:00000000000001d0 .LVL18
     /tmp/ccb1NzOc.s:477    .text:0000000000000274 .LVL22
     /tmp/ccb1NzOc.s:455    .text:000000000000024c .LVL21
     /tmp/ccb1NzOc.s:802    .text:00000000000003a4 .LVL46
     /tmp/ccb1NzOc.s:830    .text:00000000000003e0 .LVL47
     /tmp/ccb1NzOc.s:839    .text:00000000000003ec .LVL49
     /tmp/ccb1NzOc.s:872    .text:0000000000000428 .LVL52
     /tmp/ccb1NzOc.s:882    .text:0000000000000438 .LVL55
     /tmp/ccb1NzOc.s:875    .text:000000000000042c .LVL53
     /tmp/ccb1NzOc.s:878    .text:0000000000000430 .LVL54
     /tmp/ccb1NzOc.s:858    .text:0000000000000414 .LVL50
     /tmp/ccb1NzOc.s:770    .text:000000000000037c .LVL44
     /tmp/ccb1NzOc.s:612    .text:00000000000002d4 .LVL29
     /tmp/ccb1NzOc.s:580    .text:00000000000002ac .LVL27
     /tmp/ccb1NzOc.s:548    .text:0000000000000284 .LVL25
     /tmp/ccb1NzOc.s:1470   .debug_info:0000000000000000 .Ldebug_info0
     /tmp/ccb1NzOc.s:5      .text:0000000000000000 .Ltext0
     /tmp/ccb1NzOc.s:1466   .text:0000000000000718 .Letext0
     /tmp/ccb1NzOc.s:156    .text:0000000000000080 .LBE30
     /tmp/ccb1NzOc.s:174    .text:0000000000000094 .LBB41
     /tmp/ccb1NzOc.s:243    .text:0000000000000110 .LBE41
     /tmp/ccb1NzOc.s:148    .text:000000000000006c .LBE32
     /tmp/ccb1NzOc.s:176    .text:0000000000000094 .LBB39
     /tmp/ccb1NzOc.s:241    .text:0000000000000110 .LBE39
     /tmp/ccb1NzOc.s:309    .text:0000000000000158 .LBE62
     /tmp/ccb1NzOc.s:348    .text:000000000000018c .LBB84
     /tmp/ccb1NzOc.s:419    .text:0000000000000208 .LBE84
     /tmp/ccb1NzOc.s:301    .text:0000000000000144 .LBE64
     /tmp/ccb1NzOc.s:350    .text:000000000000018c .LBB71
     /tmp/ccb1NzOc.s:417    .text:0000000000000208 .LBE71
     /tmp/ccb1NzOc.s:330    .text:0000000000000178 .LBE73
     /tmp/ccb1NzOc.s:420    .text:0000000000000208 .LBB85
     /tmp/ccb1NzOc.s:489    .text:0000000000000284 .LBE85
     /tmp/ccb1NzOc.s:322    .text:0000000000000164 .LBE75
     /tmp/ccb1NzOc.s:422    .text:0000000000000208 .LBB82
     /tmp/ccb1NzOc.s:487    .text:0000000000000284 .LBE82
     /tmp/ccb1NzOc.s:824    .text:00000000000003d8 .LBB91
     /tmp/ccb1NzOc.s:861    .text:000000000000041c .LBE91
     /tmp/ccb1NzOc.s:886    .text:0000000000000438 .LBB92
     /tmp/ccb1NzOc.s:890    .text:0000000000000440 .LBE92
     /tmp/ccb1NzOc.s:249    .gcc_except_table:0000000000000000 .LLSDA76
     /tmp/ccb1NzOc.s:494    .gcc_except_table:0000000000000004 .LLSDA62
     /tmp/ccb1NzOc.s:1389   .gcc_except_table:0000000000000008 .LLSDA84
GAS LISTING /tmp/ccb1NzOc.s 			page 56


                           .group:0000000000000000 _ZN14PeriodicThreadD5Ev

UNDEFINED SYMBOLS
_ZN11MySemaphore9sem_closeEPS_
_ZN15MemoryAllocator11memory_freeEPv
HEAP_END_ADDR
HEAP_START_ADDR
__gxx_personality_v0
mem_alloc
mem_free
_ZN3abi8sys_callEPv
put_in_scheduler
thread_dispatch
time_sleep
sem_open
sem_wait
sem_signal
getc
putc
set_periodic
_Unwind_Resume
