GAS LISTING /tmp/ccoAAFXO.s 			page 1


   1              		.file	"syscall_c.cpp"
   2              		.option pic
   3              		.option norelax
   4              		.text
   5              	.Ltext0:
   6              		.align	2
   7              		.globl	mem_alloc
   9              	mem_alloc:
  10              	.LFB40:
  11              		.file 1 "src/syscall_c.cpp"
   1:src/syscall_c.cpp **** #include "../h/syscall_c.h"
   2:src/syscall_c.cpp **** void *mem_alloc(size_t size) {
  12              		.loc 1 2 30
  13              		.cfi_startproc
  14              	.LVL0:
  15 0000 130101FB 		addi	sp,sp,-80
  16              		.cfi_def_cfa_offset 80
  17 0004 23341104 		sd	ra,72(sp)
  18 0008 23308104 		sd	s0,64(sp)
  19              		.cfi_offset 1, -8
  20              		.cfi_offset 8, -16
  21 000c 13040105 		addi	s0,sp,80
  22              		.cfi_def_cfa 8, 0
   3:src/syscall_c.cpp ****     // prebaci u blokove i zaokruzi na gornji ceo
   4:src/syscall_c.cpp ****     size_t ssize = (size + MEM_BLOCK_SIZE - 1) / MEM_BLOCK_SIZE;
  23              		.loc 1 4 5
  24              		.loc 1 4 43 is_stmt 0
  25 0010 1305F503 		addi	a0,a0,63
  26              	.LVL1:
  27              		.loc 1 4 12
  28 0014 13556500 		srli	a0,a0,6
  29              	.LVL2:
   5:src/syscall_c.cpp **** 
   6:src/syscall_c.cpp ****     // kod sistemskog poziva
   7:src/syscall_c.cpp ****     uint64 a0 = 0x01;
  30              		.loc 1 7 5 is_stmt 1
   8:src/syscall_c.cpp ****     // priprema argumenata
   9:src/syscall_c.cpp ****     uint64 a1 = ssize;
  31              		.loc 1 9 5
  10:src/syscall_c.cpp ****     uint64 a2 = 0;
  32              		.loc 1 10 5
  11:src/syscall_c.cpp ****     uint64 a3 = 0;
  33              		.loc 1 11 5
  12:src/syscall_c.cpp ****     uint64 a4 = 0;
  34              		.loc 1 12 5
  13:src/syscall_c.cpp ****     uint64 a5 = 0;
  35              		.loc 1 13 5
  14:src/syscall_c.cpp ****     uint64 a6 = 0;
  36              		.loc 1 14 5
  15:src/syscall_c.cpp ****     uint64 a7 = 0;
  37              		.loc 1 15 5
  16:src/syscall_c.cpp **** 
  17:src/syscall_c.cpp ****     // void* pokazivac
  18:src/syscall_c.cpp ****     uint64 empty[8]= {a0, a1, a2, a3, a4, a5, a6, a7};
  38              		.loc 1 18 5
  39              		.loc 1 18 53 is_stmt 0
  40 0018 93071000 		li	a5,1
GAS LISTING /tmp/ccoAAFXO.s 			page 2


  41 001c 2338F4FA 		sd	a5,-80(s0)
  42 0020 233CA4FA 		sd	a0,-72(s0)
  43 0024 233004FC 		sd	zero,-64(s0)
  44 0028 233404FC 		sd	zero,-56(s0)
  45 002c 233804FC 		sd	zero,-48(s0)
  46 0030 233C04FC 		sd	zero,-40(s0)
  47 0034 233004FE 		sd	zero,-32(s0)
  48 0038 233404FE 		sd	zero,-24(s0)
  19:src/syscall_c.cpp **** 
  20:src/syscall_c.cpp ****     // sistemski poziv
  21:src/syscall_c.cpp ****     return abi::sys_call(reinterpret_cast<void*>(empty));
  49              		.loc 1 21 5 is_stmt 1
  50              		.loc 1 21 25 is_stmt 0
  51 003c 130504FB 		addi	a0,s0,-80
  52              	.LVL3:
  53 0040 97000000 		call	_ZN3abi8sys_callEPv@plt
  53      E7800000 
  54              	.LVL4:
  22:src/syscall_c.cpp **** }
  55              		.loc 1 22 1
  56 0048 83308104 		ld	ra,72(sp)
  57              		.cfi_restore 1
  58 004c 03340104 		ld	s0,64(sp)
  59              		.cfi_restore 8
  60              		.cfi_def_cfa 2, 80
  61 0050 13010105 		addi	sp,sp,80
  62              		.cfi_def_cfa_offset 0
  63 0054 67800000 		jr	ra
  64              		.cfi_endproc
  65              	.LFE40:
  67              		.align	2
  68              		.globl	mem_free
  70              	mem_free:
  71              	.LFB41:
  23:src/syscall_c.cpp **** 
  24:src/syscall_c.cpp **** int mem_free(void *addr) {
  72              		.loc 1 24 26 is_stmt 1
  73              		.cfi_startproc
  74              	.LVL5:
  25:src/syscall_c.cpp ****     if(addr == nullptr)return 0;
  75              		.loc 1 25 5
  76 0058 630C0504 		beqz	a0,.L5
  24:src/syscall_c.cpp ****     if(addr == nullptr)return 0;
  77              		.loc 1 24 26 is_stmt 0
  78 005c 130101FB 		addi	sp,sp,-80
  79              		.cfi_def_cfa_offset 80
  80 0060 23341104 		sd	ra,72(sp)
  81 0064 23308104 		sd	s0,64(sp)
  82              		.cfi_offset 1, -8
  83              		.cfi_offset 8, -16
  84 0068 13040105 		addi	s0,sp,80
  85              		.cfi_def_cfa 8, 0
  26:src/syscall_c.cpp ****     // kod sistemskog poziva
  27:src/syscall_c.cpp ****     uint64 a0 = 0x02;
  86              		.loc 1 27 5 is_stmt 1
  87              	.LVL6:
  28:src/syscall_c.cpp ****     // priprema argumenata
GAS LISTING /tmp/ccoAAFXO.s 			page 3


  29:src/syscall_c.cpp ****     uint64 a1 = reinterpret_cast<uint64>(addr);
  88              		.loc 1 29 5
  30:src/syscall_c.cpp ****     uint64 a2 = 0;
  89              		.loc 1 30 5
  31:src/syscall_c.cpp ****     uint64 a3 = 0;
  90              		.loc 1 31 5
  32:src/syscall_c.cpp ****     uint64 a4 = 0;
  91              		.loc 1 32 5
  33:src/syscall_c.cpp ****     uint64 a5 = 0;
  92              		.loc 1 33 5
  34:src/syscall_c.cpp ****     uint64 a6 = 0;
  93              		.loc 1 34 5
  35:src/syscall_c.cpp ****     uint64 a7 = 0;
  94              		.loc 1 35 5
  36:src/syscall_c.cpp **** 
  37:src/syscall_c.cpp ****     // void* pokazivac
  38:src/syscall_c.cpp ****     uint64 empty[8]= {a0, a1, a2, a3, a4, a5, a6, a7};
  95              		.loc 1 38 5
  96              		.loc 1 38 53 is_stmt 0
  97 006c 93072000 		li	a5,2
  98 0070 2338F4FA 		sd	a5,-80(s0)
  99 0074 233CA4FA 		sd	a0,-72(s0)
 100 0078 233004FC 		sd	zero,-64(s0)
 101 007c 233404FC 		sd	zero,-56(s0)
 102 0080 233804FC 		sd	zero,-48(s0)
 103 0084 233C04FC 		sd	zero,-40(s0)
 104 0088 233004FE 		sd	zero,-32(s0)
 105 008c 233404FE 		sd	zero,-24(s0)
  39:src/syscall_c.cpp **** 
  40:src/syscall_c.cpp ****     // sistemski poziv
  41:src/syscall_c.cpp ****     return (uint64) abi::sys_call(reinterpret_cast<void *>(empty));
 106              		.loc 1 41 5 is_stmt 1
 107              		.loc 1 41 34 is_stmt 0
 108 0090 130504FB 		addi	a0,s0,-80
 109              	.LVL7:
 110 0094 97000000 		call	_ZN3abi8sys_callEPv@plt
 110      E7800000 
 111              	.LVL8:
 112              		.loc 1 41 66
 113 009c 1B050500 		sext.w	a0,a0
  42:src/syscall_c.cpp **** }
 114              		.loc 1 42 1
 115 00a0 83308104 		ld	ra,72(sp)
 116              		.cfi_restore 1
 117 00a4 03340104 		ld	s0,64(sp)
 118              		.cfi_restore 8
 119              		.cfi_def_cfa 2, 80
 120 00a8 13010105 		addi	sp,sp,80
 121              		.cfi_def_cfa_offset 0
 122 00ac 67800000 		jr	ra
 123              	.LVL9:
 124              	.L5:
  25:src/syscall_c.cpp ****     // kod sistemskog poziva
 125              		.loc 1 25 31
 126 00b0 13050000 		li	a0,0
 127              	.LVL10:
 128              		.loc 1 42 1
GAS LISTING /tmp/ccoAAFXO.s 			page 4


 129 00b4 67800000 		ret
 130              		.cfi_endproc
 131              	.LFE41:
 133              		.align	2
 134              		.globl	thread_create
 136              	thread_create:
 137              	.LFB42:
  43:src/syscall_c.cpp **** 
  44:src/syscall_c.cpp **** int thread_create(thread_t *handle, void (*start_routine)(void *), void *arg) {
 138              		.loc 1 44 79 is_stmt 1
 139              		.cfi_startproc
 140              	.LVL11:
 141 00b8 130101F9 		addi	sp,sp,-112
 142              		.cfi_def_cfa_offset 112
 143 00bc 23341106 		sd	ra,104(sp)
 144 00c0 23308106 		sd	s0,96(sp)
 145 00c4 233C9104 		sd	s1,88(sp)
 146 00c8 23382105 		sd	s2,80(sp)
 147 00cc 23343105 		sd	s3,72(sp)
 148              		.cfi_offset 1, -8
 149              		.cfi_offset 8, -16
 150              		.cfi_offset 9, -24
 151              		.cfi_offset 18, -32
 152              		.cfi_offset 19, -40
 153 00d0 13040107 		addi	s0,sp,112
 154              		.cfi_def_cfa 8, 0
 155 00d4 13090500 		mv	s2,a0
 156 00d8 93840500 		mv	s1,a1
 157 00dc 93090600 		mv	s3,a2
  45:src/syscall_c.cpp **** 
  46:src/syscall_c.cpp ****     // inicijalizacija steka
  47:src/syscall_c.cpp ****     void* stack = mem_alloc(DEFAULT_STACK_SIZE);
 158              		.loc 1 47 5
 159              		.loc 1 47 28 is_stmt 0
 160 00e0 37150000 		li	a0,4096
 161              	.LVL12:
 162 00e4 97000000 		call	mem_alloc
 162      E7800000 
 163              	.LVL13:
  48:src/syscall_c.cpp ****     if(stack == nullptr){
 164              		.loc 1 48 5 is_stmt 1
 165 00ec 630E0504 		beqz	a0,.L16
  49:src/syscall_c.cpp ****         *handle = nullptr;
  50:src/syscall_c.cpp ****         return -1;
  51:src/syscall_c.cpp ****     }
  52:src/syscall_c.cpp ****     uint64 a4 = (start_routine != nullptr) ? (uint64)stack : 0;
 166              		.loc 1 52 5
 167              		.loc 1 52 44 is_stmt 0
 168 00f0 63820406 		beqz	s1,.L17
 169              	.LVL14:
 170              	.L13:
  53:src/syscall_c.cpp **** 
  54:src/syscall_c.cpp **** //    uint64 a4 = (start_routine != nullptr) ? (uint64)mem_alloc(DEFAULT_STACK_SIZE) : 0;
  55:src/syscall_c.cpp **** 
  56:src/syscall_c.cpp ****     // kod sistemskog poziva
  57:src/syscall_c.cpp ****     uint64 a0 = 0x11;
 171              		.loc 1 57 5 is_stmt 1 discriminator 4
GAS LISTING /tmp/ccoAAFXO.s 			page 5


  58:src/syscall_c.cpp ****     // parametri
  59:src/syscall_c.cpp ****     uint64  a1, a2, a3, a5, a6, a7;
 172              		.loc 1 59 5 discriminator 4
  60:src/syscall_c.cpp ****     a1 = (uint64)handle;
 173              		.loc 1 60 5 discriminator 4
  61:src/syscall_c.cpp ****     a2 = (uint64)start_routine;
 174              		.loc 1 61 5 discriminator 4
  62:src/syscall_c.cpp ****     a3 = (uint64)arg;
 175              		.loc 1 62 5 discriminator 4
  63:src/syscall_c.cpp ****     a6 = (uint64)true;
 176              		.loc 1 63 5 discriminator 4
  64:src/syscall_c.cpp **** 
  65:src/syscall_c.cpp ****     a5 = a7 = 0;
 177              		.loc 1 65 5 discriminator 4
  66:src/syscall_c.cpp **** 
  67:src/syscall_c.cpp ****     // void* pokazivac
  68:src/syscall_c.cpp ****     uint64 empty[8]= {a0, a1, a2, a3, a4, a5, a6, a7};
 178              		.loc 1 68 5 discriminator 4
 179              		.loc 1 68 53 is_stmt 0 discriminator 4
 180 00f4 93071001 		li	a5,17
 181 00f8 2338F4F8 		sd	a5,-112(s0)
 182 00fc 233C24F9 		sd	s2,-104(s0)
 183 0100 233094FA 		sd	s1,-96(s0)
 184 0104 233434FB 		sd	s3,-88(s0)
 185 0108 2338A4FA 		sd	a0,-80(s0)
 186 010c 233C04FA 		sd	zero,-72(s0)
 187 0110 93071000 		li	a5,1
 188 0114 2330F4FC 		sd	a5,-64(s0)
 189 0118 233404FC 		sd	zero,-56(s0)
  69:src/syscall_c.cpp **** 
  70:src/syscall_c.cpp ****     // sistemski poziv
  71:src/syscall_c.cpp ****     return (uint64) abi::sys_call(reinterpret_cast<void *>(empty));
 190              		.loc 1 71 5 is_stmt 1 discriminator 4
 191              		.loc 1 71 34 is_stmt 0 discriminator 4
 192 011c 130504F9 		addi	a0,s0,-112
 193              	.LVL15:
 194 0120 97000000 		call	_ZN3abi8sys_callEPv@plt
 194      E7800000 
 195              	.LVL16:
 196              		.loc 1 71 66 discriminator 4
 197 0128 1B050500 		sext.w	a0,a0
 198              	.LVL17:
 199              	.L12:
  72:src/syscall_c.cpp **** 
  73:src/syscall_c.cpp **** }
 200              		.loc 1 73 1
 201 012c 83308106 		ld	ra,104(sp)
 202              		.cfi_remember_state
 203              		.cfi_restore 1
 204 0130 03340106 		ld	s0,96(sp)
 205              		.cfi_restore 8
 206              		.cfi_def_cfa 2, 112
 207 0134 83348105 		ld	s1,88(sp)
 208              		.cfi_restore 9
 209              	.LVL18:
 210 0138 03390105 		ld	s2,80(sp)
 211              		.cfi_restore 18
GAS LISTING /tmp/ccoAAFXO.s 			page 6


 212              	.LVL19:
 213 013c 83398104 		ld	s3,72(sp)
 214              		.cfi_restore 19
 215              	.LVL20:
 216 0140 13010107 		addi	sp,sp,112
 217              		.cfi_def_cfa_offset 0
 218 0144 67800000 		jr	ra
 219              	.LVL21:
 220              	.L16:
 221              		.cfi_restore_state
  49:src/syscall_c.cpp ****         return -1;
 222              		.loc 1 49 9 is_stmt 1
  49:src/syscall_c.cpp ****         return -1;
 223              		.loc 1 49 17 is_stmt 0
 224 0148 23300900 		sd	zero,0(s2)
  50:src/syscall_c.cpp ****     }
 225              		.loc 1 50 9 is_stmt 1
  50:src/syscall_c.cpp ****     }
 226              		.loc 1 50 17 is_stmt 0
 227 014c 1305F0FF 		li	a0,-1
 228              	.LVL22:
 229 0150 6FF0DFFD 		j	.L12
 230              	.LVL23:
 231              	.L17:
  52:src/syscall_c.cpp **** 
 232              		.loc 1 52 44
 233 0154 13050000 		li	a0,0
 234              	.LVL24:
 235 0158 6FF0DFF9 		j	.L13
 236              		.cfi_endproc
 237              	.LFE42:
 239              		.align	2
 240              		.globl	thread_dispatch
 242              	thread_dispatch:
 243              	.LFB43:
  74:src/syscall_c.cpp **** 
  75:src/syscall_c.cpp **** void thread_dispatch() {
 244              		.loc 1 75 24 is_stmt 1
 245              		.cfi_startproc
 246 015c 130101FB 		addi	sp,sp,-80
 247              		.cfi_def_cfa_offset 80
 248 0160 23341104 		sd	ra,72(sp)
 249 0164 23308104 		sd	s0,64(sp)
 250              		.cfi_offset 1, -8
 251              		.cfi_offset 8, -16
 252 0168 13040105 		addi	s0,sp,80
 253              		.cfi_def_cfa 8, 0
  76:src/syscall_c.cpp **** 
  77:src/syscall_c.cpp ****     // kod sistemskog poziva
  78:src/syscall_c.cpp ****     uint64 a0 = 0x13;
 254              		.loc 1 78 5
 255              	.LVL25:
  79:src/syscall_c.cpp ****     // parametri
  80:src/syscall_c.cpp ****     uint64  a1, a2, a3, a4, a5, a6, a7;
 256              		.loc 1 80 5
  81:src/syscall_c.cpp **** 
  82:src/syscall_c.cpp ****     a1 = a2 = a3 = a4 = a5 = a6 = a7 = 0;
GAS LISTING /tmp/ccoAAFXO.s 			page 7


 257              		.loc 1 82 5
  83:src/syscall_c.cpp **** 
  84:src/syscall_c.cpp ****     // void* pokazivac
  85:src/syscall_c.cpp ****     uint64 empty[8]= {a0, a1, a2, a3, a4, a5, a6, a7};
 258              		.loc 1 85 5
 259              		.loc 1 85 53 is_stmt 0
 260 016c 93073001 		li	a5,19
 261 0170 2338F4FA 		sd	a5,-80(s0)
 262 0174 233C04FA 		sd	zero,-72(s0)
 263 0178 233004FC 		sd	zero,-64(s0)
 264 017c 233404FC 		sd	zero,-56(s0)
 265 0180 233804FC 		sd	zero,-48(s0)
 266 0184 233C04FC 		sd	zero,-40(s0)
 267 0188 233004FE 		sd	zero,-32(s0)
 268 018c 233404FE 		sd	zero,-24(s0)
  86:src/syscall_c.cpp **** 
  87:src/syscall_c.cpp ****     // sistemski poziv
  88:src/syscall_c.cpp ****     abi::sys_call(reinterpret_cast<void *>(empty));
 269              		.loc 1 88 5 is_stmt 1
 270              		.loc 1 88 18 is_stmt 0
 271 0190 130504FB 		addi	a0,s0,-80
 272 0194 97000000 		call	_ZN3abi8sys_callEPv@plt
 272      E7800000 
 273              	.LVL26:
  89:src/syscall_c.cpp **** 
  90:src/syscall_c.cpp ****     // povratak
  91:src/syscall_c.cpp ****     return;
 274              		.loc 1 91 5 is_stmt 1
  92:src/syscall_c.cpp **** 
  93:src/syscall_c.cpp **** }
 275              		.loc 1 93 1 is_stmt 0
 276 019c 83308104 		ld	ra,72(sp)
 277              		.cfi_restore 1
 278 01a0 03340104 		ld	s0,64(sp)
 279              		.cfi_restore 8
 280              		.cfi_def_cfa 2, 80
 281 01a4 13010105 		addi	sp,sp,80
 282              		.cfi_def_cfa_offset 0
 283 01a8 67800000 		jr	ra
 284              		.cfi_endproc
 285              	.LFE43:
 287              		.align	2
 288              		.globl	thread_exit
 290              	thread_exit:
 291              	.LFB44:
  94:src/syscall_c.cpp **** 
  95:src/syscall_c.cpp **** int thread_exit() {
 292              		.loc 1 95 19 is_stmt 1
 293              		.cfi_startproc
 294 01ac 130101FB 		addi	sp,sp,-80
 295              		.cfi_def_cfa_offset 80
 296 01b0 23341104 		sd	ra,72(sp)
 297 01b4 23308104 		sd	s0,64(sp)
 298              		.cfi_offset 1, -8
 299              		.cfi_offset 8, -16
 300 01b8 13040105 		addi	s0,sp,80
 301              		.cfi_def_cfa 8, 0
GAS LISTING /tmp/ccoAAFXO.s 			page 8


  96:src/syscall_c.cpp **** 
  97:src/syscall_c.cpp ****     // kod sistemskog poziva
  98:src/syscall_c.cpp ****     uint64 a0 = 0x12;
 302              		.loc 1 98 5
 303              	.LVL27:
  99:src/syscall_c.cpp **** 
 100:src/syscall_c.cpp ****     // parametri
 101:src/syscall_c.cpp ****     uint64 a1, a2, a3, a4, a5, a6, a7;
 304              		.loc 1 101 5
 102:src/syscall_c.cpp ****     a1 = a2 = a3 = a4 = a5 = a6 = a7 = 0;
 305              		.loc 1 102 5
 103:src/syscall_c.cpp **** 
 104:src/syscall_c.cpp ****     // void* pokazivac
 105:src/syscall_c.cpp ****     uint64 empty[8]= {a0, a1, a2, a3, a4, a5, a6, a7};
 306              		.loc 1 105 5
 307              		.loc 1 105 53 is_stmt 0
 308 01bc 93072001 		li	a5,18
 309 01c0 2338F4FA 		sd	a5,-80(s0)
 310 01c4 233C04FA 		sd	zero,-72(s0)
 311 01c8 233004FC 		sd	zero,-64(s0)
 312 01cc 233404FC 		sd	zero,-56(s0)
 313 01d0 233804FC 		sd	zero,-48(s0)
 314 01d4 233C04FC 		sd	zero,-40(s0)
 315 01d8 233004FE 		sd	zero,-32(s0)
 316 01dc 233404FE 		sd	zero,-24(s0)
 106:src/syscall_c.cpp **** 
 107:src/syscall_c.cpp ****     // sistemski poziv
 108:src/syscall_c.cpp ****     return (uint64)abi::sys_call(reinterpret_cast<void *>(empty));
 317              		.loc 1 108 5 is_stmt 1
 318              		.loc 1 108 33 is_stmt 0
 319 01e0 130504FB 		addi	a0,s0,-80
 320 01e4 97000000 		call	_ZN3abi8sys_callEPv@plt
 320      E7800000 
 321              	.LVL28:
 109:src/syscall_c.cpp **** 
 110:src/syscall_c.cpp **** //    return 0;
 111:src/syscall_c.cpp **** }
 322              		.loc 1 111 1
 323 01ec 1B050500 		sext.w	a0,a0
 324 01f0 83308104 		ld	ra,72(sp)
 325              		.cfi_restore 1
 326 01f4 03340104 		ld	s0,64(sp)
 327              		.cfi_restore 8
 328              		.cfi_def_cfa 2, 80
 329 01f8 13010105 		addi	sp,sp,80
 330              		.cfi_def_cfa_offset 0
 331 01fc 67800000 		jr	ra
 332              		.cfi_endproc
 333              	.LFE44:
 335              		.align	2
 336              		.globl	time_sleep
 338              	time_sleep:
 339              	.LFB45:
 112:src/syscall_c.cpp **** 
 113:src/syscall_c.cpp **** int time_sleep(time_t time) {
 340              		.loc 1 113 29 is_stmt 1
 341              		.cfi_startproc
GAS LISTING /tmp/ccoAAFXO.s 			page 9


 342              	.LVL29:
 114:src/syscall_c.cpp **** 
 115:src/syscall_c.cpp ****     if(time == 0)return 0;
 343              		.loc 1 115 5
 344 0200 63160500 		bnez	a0,.L29
 345              		.loc 1 115 25 is_stmt 0
 346 0204 13050000 		li	a0,0
 347              	.LVL30:
 116:src/syscall_c.cpp **** 
 117:src/syscall_c.cpp ****     // kod sistemskog poziva
 118:src/syscall_c.cpp ****     uint64 a0 = 0x31;
 119:src/syscall_c.cpp **** 
 120:src/syscall_c.cpp ****     // parametri
 121:src/syscall_c.cpp ****     uint64 a1, a2, a3, a4, a5, a6, a7;
 122:src/syscall_c.cpp ****     a1 = (uint64)time;
 123:src/syscall_c.cpp ****     a2 = a3 = a4 = a5 = a6 = a7 = 0;
 124:src/syscall_c.cpp **** 
 125:src/syscall_c.cpp ****     // void* pokazivac
 126:src/syscall_c.cpp ****     uint64 empty[8]= {a0, a1, a2, a3, a4, a5, a6, a7};
 127:src/syscall_c.cpp **** 
 128:src/syscall_c.cpp ****     // sistemski poziv
 129:src/syscall_c.cpp ****     return (uint64)abi::sys_call(reinterpret_cast<void *>(empty));
 130:src/syscall_c.cpp **** 
 131:src/syscall_c.cpp **** //    return 0;
 132:src/syscall_c.cpp **** }
 348              		.loc 1 132 1
 349 0208 67800000 		ret
 350              	.LVL31:
 351              	.L29:
 113:src/syscall_c.cpp **** 
 352              		.loc 1 113 29
 353 020c 130101FB 		addi	sp,sp,-80
 354              		.cfi_def_cfa_offset 80
 355 0210 23341104 		sd	ra,72(sp)
 356 0214 23308104 		sd	s0,64(sp)
 357              		.cfi_offset 1, -8
 358              		.cfi_offset 8, -16
 359 0218 13040105 		addi	s0,sp,80
 360              		.cfi_def_cfa 8, 0
 118:src/syscall_c.cpp **** 
 361              		.loc 1 118 5 is_stmt 1
 362              	.LVL32:
 121:src/syscall_c.cpp ****     a1 = (uint64)time;
 363              		.loc 1 121 5
 122:src/syscall_c.cpp ****     a2 = a3 = a4 = a5 = a6 = a7 = 0;
 364              		.loc 1 122 5
 123:src/syscall_c.cpp **** 
 365              		.loc 1 123 5
 126:src/syscall_c.cpp **** 
 366              		.loc 1 126 5
 126:src/syscall_c.cpp **** 
 367              		.loc 1 126 53 is_stmt 0
 368 021c 93071003 		li	a5,49
 369 0220 2338F4FA 		sd	a5,-80(s0)
 370 0224 233CA4FA 		sd	a0,-72(s0)
 371 0228 233004FC 		sd	zero,-64(s0)
 372 022c 233404FC 		sd	zero,-56(s0)
GAS LISTING /tmp/ccoAAFXO.s 			page 10


 373 0230 233804FC 		sd	zero,-48(s0)
 374 0234 233C04FC 		sd	zero,-40(s0)
 375 0238 233004FE 		sd	zero,-32(s0)
 376 023c 233404FE 		sd	zero,-24(s0)
 129:src/syscall_c.cpp **** 
 377              		.loc 1 129 5 is_stmt 1
 129:src/syscall_c.cpp **** 
 378              		.loc 1 129 33 is_stmt 0
 379 0240 130504FB 		addi	a0,s0,-80
 380              	.LVL33:
 381 0244 97000000 		call	_ZN3abi8sys_callEPv@plt
 381      E7800000 
 382              	.LVL34:
 129:src/syscall_c.cpp **** 
 383              		.loc 1 129 65
 384 024c 1B050500 		sext.w	a0,a0
 385              		.loc 1 132 1
 386 0250 83308104 		ld	ra,72(sp)
 387              		.cfi_restore 1
 388 0254 03340104 		ld	s0,64(sp)
 389              		.cfi_restore 8
 390              		.cfi_def_cfa 2, 80
 391 0258 13010105 		addi	sp,sp,80
 392              		.cfi_def_cfa_offset 0
 393 025c 67800000 		jr	ra
 394              		.cfi_endproc
 395              	.LFE45:
 397              		.align	2
 398              		.globl	sem_open
 400              	sem_open:
 401              	.LFB46:
 133:src/syscall_c.cpp **** 
 134:src/syscall_c.cpp **** int sem_open(sem_t *handle, uint64 init) {
 402              		.loc 1 134 42 is_stmt 1
 403              		.cfi_startproc
 404              	.LVL35:
 405 0260 130101FB 		addi	sp,sp,-80
 406              		.cfi_def_cfa_offset 80
 407 0264 23341104 		sd	ra,72(sp)
 408 0268 23308104 		sd	s0,64(sp)
 409              		.cfi_offset 1, -8
 410              		.cfi_offset 8, -16
 411 026c 13040105 		addi	s0,sp,80
 412              		.cfi_def_cfa 8, 0
 135:src/syscall_c.cpp ****     // kod sistemskog poziva
 136:src/syscall_c.cpp ****     uint64 a0 = 0x21;
 413              		.loc 1 136 5
 414              	.LVL36:
 137:src/syscall_c.cpp **** 
 138:src/syscall_c.cpp ****     // parametri
 139:src/syscall_c.cpp ****     uint64 a1, a2, a3, a4, a5, a6, a7;
 415              		.loc 1 139 5
 140:src/syscall_c.cpp ****     a1 = (uint64)handle;
 416              		.loc 1 140 5
 141:src/syscall_c.cpp ****     a2 = init;
 417              		.loc 1 141 5
 142:src/syscall_c.cpp ****     a3 = a4 = a5 = a6 = a7 = 0;
GAS LISTING /tmp/ccoAAFXO.s 			page 11


 418              		.loc 1 142 5
 143:src/syscall_c.cpp **** 
 144:src/syscall_c.cpp ****     // void* pokazivac
 145:src/syscall_c.cpp ****     uint64 empty[8]= {a0, a1, a2, a3, a4, a5, a6, a7};
 419              		.loc 1 145 5
 420              		.loc 1 145 53 is_stmt 0
 421 0270 93071002 		li	a5,33
 422 0274 2338F4FA 		sd	a5,-80(s0)
 423 0278 233CA4FA 		sd	a0,-72(s0)
 424 027c 2330B4FC 		sd	a1,-64(s0)
 425 0280 233404FC 		sd	zero,-56(s0)
 426 0284 233804FC 		sd	zero,-48(s0)
 427 0288 233C04FC 		sd	zero,-40(s0)
 428 028c 233004FE 		sd	zero,-32(s0)
 429 0290 233404FE 		sd	zero,-24(s0)
 146:src/syscall_c.cpp **** 
 147:src/syscall_c.cpp ****     // sistemski poziv
 148:src/syscall_c.cpp ****     return (uint64)abi::sys_call(reinterpret_cast<void *>(empty));
 430              		.loc 1 148 5 is_stmt 1
 431              		.loc 1 148 33 is_stmt 0
 432 0294 130504FB 		addi	a0,s0,-80
 433              	.LVL37:
 434 0298 97000000 		call	_ZN3abi8sys_callEPv@plt
 434      E7800000 
 435              	.LVL38:
 149:src/syscall_c.cpp **** }
 436              		.loc 1 149 1
 437 02a0 1B050500 		sext.w	a0,a0
 438 02a4 83308104 		ld	ra,72(sp)
 439              		.cfi_restore 1
 440 02a8 03340104 		ld	s0,64(sp)
 441              		.cfi_restore 8
 442              		.cfi_def_cfa 2, 80
 443 02ac 13010105 		addi	sp,sp,80
 444              		.cfi_def_cfa_offset 0
 445 02b0 67800000 		jr	ra
 446              		.cfi_endproc
 447              	.LFE46:
 449              		.align	2
 450              		.globl	sem_close
 452              	sem_close:
 453              	.LFB47:
 150:src/syscall_c.cpp **** 
 151:src/syscall_c.cpp **** int sem_close(sem_t handle) {
 454              		.loc 1 151 29 is_stmt 1
 455              		.cfi_startproc
 456              	.LVL39:
 457 02b4 130101FB 		addi	sp,sp,-80
 458              		.cfi_def_cfa_offset 80
 459 02b8 23341104 		sd	ra,72(sp)
 460 02bc 23308104 		sd	s0,64(sp)
 461              		.cfi_offset 1, -8
 462              		.cfi_offset 8, -16
 463 02c0 13040105 		addi	s0,sp,80
 464              		.cfi_def_cfa 8, 0
 152:src/syscall_c.cpp ****     // kod sistemskog poziva
 153:src/syscall_c.cpp ****     uint64 a0 = 0x22;
GAS LISTING /tmp/ccoAAFXO.s 			page 12


 465              		.loc 1 153 5
 466              	.LVL40:
 154:src/syscall_c.cpp **** 
 155:src/syscall_c.cpp ****     // parametri
 156:src/syscall_c.cpp ****     uint64 a1, a2, a3, a4, a5, a6, a7;
 467              		.loc 1 156 5
 157:src/syscall_c.cpp ****     a1 = (uint64)handle;
 468              		.loc 1 157 5
 158:src/syscall_c.cpp ****     a2 = a3 = a4 = a5 = a6 = a7 = 0;
 469              		.loc 1 158 5
 159:src/syscall_c.cpp **** 
 160:src/syscall_c.cpp ****     // void* pokazivac
 161:src/syscall_c.cpp ****     uint64 empty[8]= {a0, a1, a2, a3, a4, a5, a6, a7};
 470              		.loc 1 161 5
 471              		.loc 1 161 53 is_stmt 0
 472 02c4 93072002 		li	a5,34
 473 02c8 2338F4FA 		sd	a5,-80(s0)
 474 02cc 233CA4FA 		sd	a0,-72(s0)
 475 02d0 233004FC 		sd	zero,-64(s0)
 476 02d4 233404FC 		sd	zero,-56(s0)
 477 02d8 233804FC 		sd	zero,-48(s0)
 478 02dc 233C04FC 		sd	zero,-40(s0)
 479 02e0 233004FE 		sd	zero,-32(s0)
 480 02e4 233404FE 		sd	zero,-24(s0)
 162:src/syscall_c.cpp **** 
 163:src/syscall_c.cpp ****     // sistemski poziv
 164:src/syscall_c.cpp ****     return (uint64)abi::sys_call(reinterpret_cast<void *>(empty));
 481              		.loc 1 164 5 is_stmt 1
 482              		.loc 1 164 33 is_stmt 0
 483 02e8 130504FB 		addi	a0,s0,-80
 484              	.LVL41:
 485 02ec 97000000 		call	_ZN3abi8sys_callEPv@plt
 485      E7800000 
 486              	.LVL42:
 165:src/syscall_c.cpp **** }
 487              		.loc 1 165 1
 488 02f4 1B050500 		sext.w	a0,a0
 489 02f8 83308104 		ld	ra,72(sp)
 490              		.cfi_restore 1
 491 02fc 03340104 		ld	s0,64(sp)
 492              		.cfi_restore 8
 493              		.cfi_def_cfa 2, 80
 494 0300 13010105 		addi	sp,sp,80
 495              		.cfi_def_cfa_offset 0
 496 0304 67800000 		jr	ra
 497              		.cfi_endproc
 498              	.LFE47:
 500              		.align	2
 501              		.globl	sem_wait
 503              	sem_wait:
 504              	.LFB48:
 166:src/syscall_c.cpp **** 
 167:src/syscall_c.cpp **** int sem_wait(sem_t id) {
 505              		.loc 1 167 24 is_stmt 1
 506              		.cfi_startproc
 507              	.LVL43:
 508 0308 130101FB 		addi	sp,sp,-80
GAS LISTING /tmp/ccoAAFXO.s 			page 13


 509              		.cfi_def_cfa_offset 80
 510 030c 23341104 		sd	ra,72(sp)
 511 0310 23308104 		sd	s0,64(sp)
 512              		.cfi_offset 1, -8
 513              		.cfi_offset 8, -16
 514 0314 13040105 		addi	s0,sp,80
 515              		.cfi_def_cfa 8, 0
 168:src/syscall_c.cpp ****     // kod sistemskog poziva
 169:src/syscall_c.cpp ****     uint64 a0 = 0x23;
 516              		.loc 1 169 5
 517              	.LVL44:
 170:src/syscall_c.cpp **** 
 171:src/syscall_c.cpp ****     // parametri
 172:src/syscall_c.cpp ****     uint64 a1, a2, a3, a4, a5, a6, a7;
 518              		.loc 1 172 5
 173:src/syscall_c.cpp ****     a1 = (uint64)id;
 519              		.loc 1 173 5
 174:src/syscall_c.cpp ****     a2 = a3 = a4 = a5 = a6 = a7 = 0;
 520              		.loc 1 174 5
 175:src/syscall_c.cpp **** 
 176:src/syscall_c.cpp ****     // void* pokazivac
 177:src/syscall_c.cpp ****     uint64 empty[8]= {a0, a1, a2, a3, a4, a5, a6, a7};
 521              		.loc 1 177 5
 522              		.loc 1 177 53 is_stmt 0
 523 0318 93073002 		li	a5,35
 524 031c 2338F4FA 		sd	a5,-80(s0)
 525 0320 233CA4FA 		sd	a0,-72(s0)
 526 0324 233004FC 		sd	zero,-64(s0)
 527 0328 233404FC 		sd	zero,-56(s0)
 528 032c 233804FC 		sd	zero,-48(s0)
 529 0330 233C04FC 		sd	zero,-40(s0)
 530 0334 233004FE 		sd	zero,-32(s0)
 531 0338 233404FE 		sd	zero,-24(s0)
 178:src/syscall_c.cpp **** 
 179:src/syscall_c.cpp ****     // sistemski poziv
 180:src/syscall_c.cpp ****     return (uint64)abi::sys_call(reinterpret_cast<void *>(empty));
 532              		.loc 1 180 5 is_stmt 1
 533              		.loc 1 180 33 is_stmt 0
 534 033c 130504FB 		addi	a0,s0,-80
 535              	.LVL45:
 536 0340 97000000 		call	_ZN3abi8sys_callEPv@plt
 536      E7800000 
 537              	.LVL46:
 181:src/syscall_c.cpp **** }
 538              		.loc 1 181 1
 539 0348 1B050500 		sext.w	a0,a0
 540 034c 83308104 		ld	ra,72(sp)
 541              		.cfi_restore 1
 542 0350 03340104 		ld	s0,64(sp)
 543              		.cfi_restore 8
 544              		.cfi_def_cfa 2, 80
 545 0354 13010105 		addi	sp,sp,80
 546              		.cfi_def_cfa_offset 0
 547 0358 67800000 		jr	ra
 548              		.cfi_endproc
 549              	.LFE48:
 551              		.align	2
GAS LISTING /tmp/ccoAAFXO.s 			page 14


 552              		.globl	sem_signal
 554              	sem_signal:
 555              	.LFB49:
 182:src/syscall_c.cpp **** 
 183:src/syscall_c.cpp **** int sem_signal(sem_t id) {
 556              		.loc 1 183 26 is_stmt 1
 557              		.cfi_startproc
 558              	.LVL47:
 559 035c 130101FB 		addi	sp,sp,-80
 560              		.cfi_def_cfa_offset 80
 561 0360 23341104 		sd	ra,72(sp)
 562 0364 23308104 		sd	s0,64(sp)
 563              		.cfi_offset 1, -8
 564              		.cfi_offset 8, -16
 565 0368 13040105 		addi	s0,sp,80
 566              		.cfi_def_cfa 8, 0
 184:src/syscall_c.cpp ****     // kod sistemskog poziva
 185:src/syscall_c.cpp ****     uint64 a0 = 0x24;
 567              		.loc 1 185 5
 568              	.LVL48:
 186:src/syscall_c.cpp **** 
 187:src/syscall_c.cpp ****     // parametri
 188:src/syscall_c.cpp ****     uint64 a1, a2, a3, a4, a5, a6, a7;
 569              		.loc 1 188 5
 189:src/syscall_c.cpp ****     a1 = (uint64)id;
 570              		.loc 1 189 5
 190:src/syscall_c.cpp ****     a2 = a3 = a4 = a5 = a6 = a7 = 0;
 571              		.loc 1 190 5
 191:src/syscall_c.cpp **** 
 192:src/syscall_c.cpp ****     // void* pokazivac
 193:src/syscall_c.cpp ****     uint64 empty[8]= {a0, a1, a2, a3, a4, a5, a6, a7};
 572              		.loc 1 193 5
 573              		.loc 1 193 53 is_stmt 0
 574 036c 93074002 		li	a5,36
 575 0370 2338F4FA 		sd	a5,-80(s0)
 576 0374 233CA4FA 		sd	a0,-72(s0)
 577 0378 233004FC 		sd	zero,-64(s0)
 578 037c 233404FC 		sd	zero,-56(s0)
 579 0380 233804FC 		sd	zero,-48(s0)
 580 0384 233C04FC 		sd	zero,-40(s0)
 581 0388 233004FE 		sd	zero,-32(s0)
 582 038c 233404FE 		sd	zero,-24(s0)
 194:src/syscall_c.cpp **** 
 195:src/syscall_c.cpp ****     // sistemski poziv
 196:src/syscall_c.cpp ****     return (uint64)abi::sys_call(reinterpret_cast<void *>(empty));
 583              		.loc 1 196 5 is_stmt 1
 584              		.loc 1 196 33 is_stmt 0
 585 0390 130504FB 		addi	a0,s0,-80
 586              	.LVL49:
 587 0394 97000000 		call	_ZN3abi8sys_callEPv@plt
 587      E7800000 
 588              	.LVL50:
 197:src/syscall_c.cpp **** }
 589              		.loc 1 197 1
 590 039c 1B050500 		sext.w	a0,a0
 591 03a0 83308104 		ld	ra,72(sp)
 592              		.cfi_restore 1
GAS LISTING /tmp/ccoAAFXO.s 			page 15


 593 03a4 03340104 		ld	s0,64(sp)
 594              		.cfi_restore 8
 595              		.cfi_def_cfa 2, 80
 596 03a8 13010105 		addi	sp,sp,80
 597              		.cfi_def_cfa_offset 0
 598 03ac 67800000 		jr	ra
 599              		.cfi_endproc
 600              	.LFE49:
 602              		.align	2
 603              		.globl	getc
 605              	getc:
 606              	.LFB50:
 198:src/syscall_c.cpp **** 
 199:src/syscall_c.cpp **** char getc() {
 607              		.loc 1 199 13 is_stmt 1
 608              		.cfi_startproc
 609 03b0 130101FB 		addi	sp,sp,-80
 610              		.cfi_def_cfa_offset 80
 611 03b4 23341104 		sd	ra,72(sp)
 612 03b8 23308104 		sd	s0,64(sp)
 613              		.cfi_offset 1, -8
 614              		.cfi_offset 8, -16
 615 03bc 13040105 		addi	s0,sp,80
 616              		.cfi_def_cfa 8, 0
 200:src/syscall_c.cpp ****     // kod sistemskog poziva
 201:src/syscall_c.cpp ****     uint64 a0 = 0x41;
 617              		.loc 1 201 5
 618              	.LVL51:
 202:src/syscall_c.cpp **** 
 203:src/syscall_c.cpp ****     // parametri
 204:src/syscall_c.cpp ****     uint64 a1, a2, a3, a4, a5, a6, a7;
 619              		.loc 1 204 5
 205:src/syscall_c.cpp ****     a1 = a2 = a3 = a4 = a5 = a6 = a7 = 0;
 620              		.loc 1 205 5
 206:src/syscall_c.cpp **** 
 207:src/syscall_c.cpp ****     // void* pokazivac
 208:src/syscall_c.cpp ****     uint64 empty[8]= {a0, a1, a2, a3, a4, a5, a6, a7};
 621              		.loc 1 208 5
 622              		.loc 1 208 53 is_stmt 0
 623 03c0 93071004 		li	a5,65
 624 03c4 2338F4FA 		sd	a5,-80(s0)
 625 03c8 233C04FA 		sd	zero,-72(s0)
 626 03cc 233004FC 		sd	zero,-64(s0)
 627 03d0 233404FC 		sd	zero,-56(s0)
 628 03d4 233804FC 		sd	zero,-48(s0)
 629 03d8 233C04FC 		sd	zero,-40(s0)
 630 03dc 233004FE 		sd	zero,-32(s0)
 631 03e0 233404FE 		sd	zero,-24(s0)
 209:src/syscall_c.cpp **** 
 210:src/syscall_c.cpp ****     // sistemski poziv
 211:src/syscall_c.cpp ****     uint64 ch = (uint64)abi::sys_call(reinterpret_cast<void *>(empty));
 632              		.loc 1 211 5 is_stmt 1
 633              		.loc 1 211 38 is_stmt 0
 634 03e4 130504FB 		addi	a0,s0,-80
 635 03e8 97000000 		call	_ZN3abi8sys_callEPv@plt
 635      E7800000 
 636              	.LVL52:
GAS LISTING /tmp/ccoAAFXO.s 			page 16


 212:src/syscall_c.cpp **** 
 213:src/syscall_c.cpp ****     return ch;
 637              		.loc 1 213 5 is_stmt 1
 214:src/syscall_c.cpp **** }
 638              		.loc 1 214 1 is_stmt 0
 639 03f0 1375F50F 		andi	a0,a0,0xff
 640              	.LVL53:
 641 03f4 83308104 		ld	ra,72(sp)
 642              		.cfi_restore 1
 643 03f8 03340104 		ld	s0,64(sp)
 644              		.cfi_restore 8
 645              		.cfi_def_cfa 2, 80
 646 03fc 13010105 		addi	sp,sp,80
 647              		.cfi_def_cfa_offset 0
 648 0400 67800000 		jr	ra
 649              		.cfi_endproc
 650              	.LFE50:
 652              		.align	2
 653              		.globl	putc
 655              	putc:
 656              	.LFB51:
 215:src/syscall_c.cpp **** 
 216:src/syscall_c.cpp **** void putc(char c) {
 657              		.loc 1 216 19 is_stmt 1
 658              		.cfi_startproc
 659              	.LVL54:
 660 0404 130101FB 		addi	sp,sp,-80
 661              		.cfi_def_cfa_offset 80
 662 0408 23341104 		sd	ra,72(sp)
 663 040c 23308104 		sd	s0,64(sp)
 664              		.cfi_offset 1, -8
 665              		.cfi_offset 8, -16
 666 0410 13040105 		addi	s0,sp,80
 667              		.cfi_def_cfa 8, 0
 217:src/syscall_c.cpp ****     // kod sistemskog poziva
 218:src/syscall_c.cpp ****     uint64 a0 = 0x42;
 668              		.loc 1 218 5
 669              	.LVL55:
 219:src/syscall_c.cpp **** 
 220:src/syscall_c.cpp ****     // parametri
 221:src/syscall_c.cpp ****     uint64 a1, a2, a3, a4, a5, a6, a7;
 670              		.loc 1 221 5
 222:src/syscall_c.cpp ****     a1 = (uint64)c;
 671              		.loc 1 222 5
 223:src/syscall_c.cpp ****     a2 = a3 = a4 = a5 = a6 = a7 = 0;
 672              		.loc 1 223 5
 224:src/syscall_c.cpp **** 
 225:src/syscall_c.cpp ****     // void* pokazivac
 226:src/syscall_c.cpp ****     uint64 empty[8]= {a0, a1, a2, a3, a4, a5, a6, a7};
 673              		.loc 1 226 5
 674              		.loc 1 226 53 is_stmt 0
 675 0414 93072004 		li	a5,66
 676 0418 2338F4FA 		sd	a5,-80(s0)
 677 041c 233CA4FA 		sd	a0,-72(s0)
 678 0420 233004FC 		sd	zero,-64(s0)
 679 0424 233404FC 		sd	zero,-56(s0)
 680 0428 233804FC 		sd	zero,-48(s0)
GAS LISTING /tmp/ccoAAFXO.s 			page 17


 681 042c 233C04FC 		sd	zero,-40(s0)
 682 0430 233004FE 		sd	zero,-32(s0)
 683 0434 233404FE 		sd	zero,-24(s0)
 227:src/syscall_c.cpp **** 
 228:src/syscall_c.cpp ****     // sistemski poziv
 229:src/syscall_c.cpp ****     abi::sys_call(reinterpret_cast<void *>(empty));
 684              		.loc 1 229 5 is_stmt 1
 685              		.loc 1 229 18 is_stmt 0
 686 0438 130504FB 		addi	a0,s0,-80
 687              	.LVL56:
 688 043c 97000000 		call	_ZN3abi8sys_callEPv@plt
 688      E7800000 
 689              	.LVL57:
 230:src/syscall_c.cpp ****     return;
 690              		.loc 1 230 5 is_stmt 1
 231:src/syscall_c.cpp **** }
 691              		.loc 1 231 1 is_stmt 0
 692 0444 83308104 		ld	ra,72(sp)
 693              		.cfi_restore 1
 694 0448 03340104 		ld	s0,64(sp)
 695              		.cfi_restore 8
 696              		.cfi_def_cfa 2, 80
 697 044c 13010105 		addi	sp,sp,80
 698              		.cfi_def_cfa_offset 0
 699 0450 67800000 		jr	ra
 700              		.cfi_endproc
 701              	.LFE51:
 703              		.align	2
 704              		.globl	put_in_scheduler
 706              	put_in_scheduler:
 707              	.LFB52:
 232:src/syscall_c.cpp **** 
 233:src/syscall_c.cpp **** void put_in_scheduler(thread_t tcb) {
 708              		.loc 1 233 37 is_stmt 1
 709              		.cfi_startproc
 710              	.LVL58:
 711 0454 130101FB 		addi	sp,sp,-80
 712              		.cfi_def_cfa_offset 80
 713 0458 23341104 		sd	ra,72(sp)
 714 045c 23308104 		sd	s0,64(sp)
 715              		.cfi_offset 1, -8
 716              		.cfi_offset 8, -16
 717 0460 13040105 		addi	s0,sp,80
 718              		.cfi_def_cfa 8, 0
 234:src/syscall_c.cpp ****     // kod sistemskog poziva
 235:src/syscall_c.cpp ****     uint64 a0 = 0x50;
 719              		.loc 1 235 5
 720              	.LVL59:
 236:src/syscall_c.cpp **** 
 237:src/syscall_c.cpp ****     // parametri
 238:src/syscall_c.cpp ****     uint64 a1, a2, a3, a4, a5, a6, a7;
 721              		.loc 1 238 5
 239:src/syscall_c.cpp ****     a1 = (uint64)tcb;
 722              		.loc 1 239 5
 240:src/syscall_c.cpp ****     a2 = a3 = a4 = a5 = a6 = a7 = 0;
 723              		.loc 1 240 5
 241:src/syscall_c.cpp **** 
GAS LISTING /tmp/ccoAAFXO.s 			page 18


 242:src/syscall_c.cpp ****     // void* pokazivac
 243:src/syscall_c.cpp ****     uint64 empty[8]= {a0, a1, a2, a3, a4, a5, a6, a7};
 724              		.loc 1 243 5
 725              		.loc 1 243 53 is_stmt 0
 726 0464 93070005 		li	a5,80
 727 0468 2338F4FA 		sd	a5,-80(s0)
 728 046c 233CA4FA 		sd	a0,-72(s0)
 729 0470 233004FC 		sd	zero,-64(s0)
 730 0474 233404FC 		sd	zero,-56(s0)
 731 0478 233804FC 		sd	zero,-48(s0)
 732 047c 233C04FC 		sd	zero,-40(s0)
 733 0480 233004FE 		sd	zero,-32(s0)
 734 0484 233404FE 		sd	zero,-24(s0)
 244:src/syscall_c.cpp **** 
 245:src/syscall_c.cpp ****     // sistemski poziv
 246:src/syscall_c.cpp ****     abi::sys_call(reinterpret_cast<void *>(empty));
 735              		.loc 1 246 5 is_stmt 1
 736              		.loc 1 246 18 is_stmt 0
 737 0488 130504FB 		addi	a0,s0,-80
 738              	.LVL60:
 739 048c 97000000 		call	_ZN3abi8sys_callEPv@plt
 739      E7800000 
 740              	.LVL61:
 247:src/syscall_c.cpp ****     return;
 741              		.loc 1 247 5 is_stmt 1
 248:src/syscall_c.cpp **** }
 742              		.loc 1 248 1 is_stmt 0
 743 0494 83308104 		ld	ra,72(sp)
 744              		.cfi_restore 1
 745 0498 03340104 		ld	s0,64(sp)
 746              		.cfi_restore 8
 747              		.cfi_def_cfa 2, 80
 748 049c 13010105 		addi	sp,sp,80
 749              		.cfi_def_cfa_offset 0
 750 04a0 67800000 		jr	ra
 751              		.cfi_endproc
 752              	.LFE52:
 754              		.align	2
 755              		.globl	switch_to_user
 757              	switch_to_user:
 758              	.LFB53:
 249:src/syscall_c.cpp **** 
 250:src/syscall_c.cpp **** void switch_to_user() {
 759              		.loc 1 250 23 is_stmt 1
 760              		.cfi_startproc
 761 04a4 130101FB 		addi	sp,sp,-80
 762              		.cfi_def_cfa_offset 80
 763 04a8 23341104 		sd	ra,72(sp)
 764 04ac 23308104 		sd	s0,64(sp)
 765              		.cfi_offset 1, -8
 766              		.cfi_offset 8, -16
 767 04b0 13040105 		addi	s0,sp,80
 768              		.cfi_def_cfa 8, 0
 251:src/syscall_c.cpp ****     // kod sistemskog poziva
 252:src/syscall_c.cpp ****     uint64 a0 = 0x60;
 769              		.loc 1 252 5
 770              	.LVL62:
GAS LISTING /tmp/ccoAAFXO.s 			page 19


 253:src/syscall_c.cpp **** 
 254:src/syscall_c.cpp ****     // parametri
 255:src/syscall_c.cpp ****     uint64 a1, a2, a3, a4, a5, a6, a7;
 771              		.loc 1 255 5
 256:src/syscall_c.cpp ****     a1 = a2 = a3 = a4 = a5 = a6 = a7 = 0;
 772              		.loc 1 256 5
 257:src/syscall_c.cpp **** 
 258:src/syscall_c.cpp ****     // void* pokazivac
 259:src/syscall_c.cpp ****     uint64 empty[8]= {a0, a1, a2, a3, a4, a5, a6, a7};
 773              		.loc 1 259 5
 774              		.loc 1 259 53 is_stmt 0
 775 04b4 93070006 		li	a5,96
 776 04b8 2338F4FA 		sd	a5,-80(s0)
 777 04bc 233C04FA 		sd	zero,-72(s0)
 778 04c0 233004FC 		sd	zero,-64(s0)
 779 04c4 233404FC 		sd	zero,-56(s0)
 780 04c8 233804FC 		sd	zero,-48(s0)
 781 04cc 233C04FC 		sd	zero,-40(s0)
 782 04d0 233004FE 		sd	zero,-32(s0)
 783 04d4 233404FE 		sd	zero,-24(s0)
 260:src/syscall_c.cpp **** 
 261:src/syscall_c.cpp ****     // sistemski poziv
 262:src/syscall_c.cpp ****     abi::sys_call(reinterpret_cast<void *>(empty));
 784              		.loc 1 262 5 is_stmt 1
 785              		.loc 1 262 18 is_stmt 0
 786 04d8 130504FB 		addi	a0,s0,-80
 787 04dc 97000000 		call	_ZN3abi8sys_callEPv@plt
 787      E7800000 
 788              	.LVL63:
 263:src/syscall_c.cpp ****     return;
 789              		.loc 1 263 5 is_stmt 1
 264:src/syscall_c.cpp **** }
 790              		.loc 1 264 1 is_stmt 0
 791 04e4 83308104 		ld	ra,72(sp)
 792              		.cfi_restore 1
 793 04e8 03340104 		ld	s0,64(sp)
 794              		.cfi_restore 8
 795              		.cfi_def_cfa 2, 80
 796 04ec 13010105 		addi	sp,sp,80
 797              		.cfi_def_cfa_offset 0
 798 04f0 67800000 		jr	ra
 799              		.cfi_endproc
 800              	.LFE53:
 802              		.align	2
 803              		.globl	switch_to_priviledged
 805              	switch_to_priviledged:
 806              	.LFB54:
 265:src/syscall_c.cpp **** 
 266:src/syscall_c.cpp **** void switch_to_priviledged() {
 807              		.loc 1 266 30 is_stmt 1
 808              		.cfi_startproc
 809 04f4 130101FB 		addi	sp,sp,-80
 810              		.cfi_def_cfa_offset 80
 811 04f8 23341104 		sd	ra,72(sp)
 812 04fc 23308104 		sd	s0,64(sp)
 813              		.cfi_offset 1, -8
 814              		.cfi_offset 8, -16
GAS LISTING /tmp/ccoAAFXO.s 			page 20


 815 0500 13040105 		addi	s0,sp,80
 816              		.cfi_def_cfa 8, 0
 267:src/syscall_c.cpp ****     // kod sistemskog poziva
 268:src/syscall_c.cpp ****     uint64 a0 = 0x61;
 817              		.loc 1 268 5
 818              	.LVL64:
 269:src/syscall_c.cpp **** 
 270:src/syscall_c.cpp ****     // parametri
 271:src/syscall_c.cpp ****     uint64 a1, a2, a3, a4, a5, a6, a7;
 819              		.loc 1 271 5
 272:src/syscall_c.cpp ****     a1 = a2 = a3 = a4 = a5 = a6 = a7 = 0;
 820              		.loc 1 272 5
 273:src/syscall_c.cpp **** 
 274:src/syscall_c.cpp ****     // void* pokazivac
 275:src/syscall_c.cpp ****     uint64 empty[8]= {a0, a1, a2, a3, a4, a5, a6, a7};
 821              		.loc 1 275 5
 822              		.loc 1 275 53 is_stmt 0
 823 0504 93071006 		li	a5,97
 824 0508 2338F4FA 		sd	a5,-80(s0)
 825 050c 233C04FA 		sd	zero,-72(s0)
 826 0510 233004FC 		sd	zero,-64(s0)
 827 0514 233404FC 		sd	zero,-56(s0)
 828 0518 233804FC 		sd	zero,-48(s0)
 829 051c 233C04FC 		sd	zero,-40(s0)
 830 0520 233004FE 		sd	zero,-32(s0)
 831 0524 233404FE 		sd	zero,-24(s0)
 276:src/syscall_c.cpp **** 
 277:src/syscall_c.cpp ****     // sistemski poziv
 278:src/syscall_c.cpp ****     abi::sys_call(reinterpret_cast<void *>(empty));
 832              		.loc 1 278 5 is_stmt 1
 833              		.loc 1 278 18 is_stmt 0
 834 0528 130504FB 		addi	a0,s0,-80
 835 052c 97000000 		call	_ZN3abi8sys_callEPv@plt
 835      E7800000 
 836              	.LVL65:
 279:src/syscall_c.cpp ****     return;
 837              		.loc 1 279 5 is_stmt 1
 280:src/syscall_c.cpp **** }
 838              		.loc 1 280 1 is_stmt 0
 839 0534 83308104 		ld	ra,72(sp)
 840              		.cfi_restore 1
 841 0538 03340104 		ld	s0,64(sp)
 842              		.cfi_restore 8
 843              		.cfi_def_cfa 2, 80
 844 053c 13010105 		addi	sp,sp,80
 845              		.cfi_def_cfa_offset 0
 846 0540 67800000 		jr	ra
 847              		.cfi_endproc
 848              	.LFE54:
 850              		.align	2
 851              		.globl	set_periodic
 853              	set_periodic:
 854              	.LFB55:
 281:src/syscall_c.cpp **** 
 282:src/syscall_c.cpp **** void set_periodic(thread_t periodic_thread) {
 855              		.loc 1 282 45 is_stmt 1
 856              		.cfi_startproc
GAS LISTING /tmp/ccoAAFXO.s 			page 21


 857              	.LVL66:
 858 0544 130101FB 		addi	sp,sp,-80
 859              		.cfi_def_cfa_offset 80
 860 0548 23341104 		sd	ra,72(sp)
 861 054c 23308104 		sd	s0,64(sp)
 862              		.cfi_offset 1, -8
 863              		.cfi_offset 8, -16
 864 0550 13040105 		addi	s0,sp,80
 865              		.cfi_def_cfa 8, 0
 283:src/syscall_c.cpp ****     // kod sistemskog poziva
 284:src/syscall_c.cpp ****     uint64 a0 = 0x70;
 866              		.loc 1 284 5
 867              	.LVL67:
 285:src/syscall_c.cpp **** 
 286:src/syscall_c.cpp ****     // parametri
 287:src/syscall_c.cpp ****     uint64 a1, a2, a3, a4, a5, a6, a7;
 868              		.loc 1 287 5
 288:src/syscall_c.cpp ****     a1 = (uint64)periodic_thread;
 869              		.loc 1 288 5
 289:src/syscall_c.cpp ****     a2 = a3 = a4 = a5 = a6 = a7 = 0;
 870              		.loc 1 289 5
 290:src/syscall_c.cpp **** 
 291:src/syscall_c.cpp ****     // void* pokazivac
 292:src/syscall_c.cpp ****     uint64 empty[8]= {a0, a1, a2, a3, a4, a5, a6, a7};
 871              		.loc 1 292 5
 872              		.loc 1 292 53 is_stmt 0
 873 0554 93070007 		li	a5,112
 874 0558 2338F4FA 		sd	a5,-80(s0)
 875 055c 233CA4FA 		sd	a0,-72(s0)
 876 0560 233004FC 		sd	zero,-64(s0)
 877 0564 233404FC 		sd	zero,-56(s0)
 878 0568 233804FC 		sd	zero,-48(s0)
 879 056c 233C04FC 		sd	zero,-40(s0)
 880 0570 233004FE 		sd	zero,-32(s0)
 881 0574 233404FE 		sd	zero,-24(s0)
 293:src/syscall_c.cpp **** 
 294:src/syscall_c.cpp ****     // sistemski poziv
 295:src/syscall_c.cpp ****     abi::sys_call(reinterpret_cast<void *>(empty));
 882              		.loc 1 295 5 is_stmt 1
 883              		.loc 1 295 18 is_stmt 0
 884 0578 130504FB 		addi	a0,s0,-80
 885              	.LVL68:
 886 057c 97000000 		call	_ZN3abi8sys_callEPv@plt
 886      E7800000 
 887              	.LVL69:
 296:src/syscall_c.cpp ****     return;
 888              		.loc 1 296 5 is_stmt 1
 297:src/syscall_c.cpp **** }
 889              		.loc 1 297 1 is_stmt 0
 890 0584 83308104 		ld	ra,72(sp)
 891              		.cfi_restore 1
 892 0588 03340104 		ld	s0,64(sp)
 893              		.cfi_restore 8
 894              		.cfi_def_cfa 2, 80
 895 058c 13010105 		addi	sp,sp,80
 896              		.cfi_def_cfa_offset 0
 897 0590 67800000 		jr	ra
GAS LISTING /tmp/ccoAAFXO.s 			page 22


 898              		.cfi_endproc
 899              	.LFE55:
 901              		.align	2
 902              		.globl	kill
 904              	kill:
 905              	.LFB56:
 298:src/syscall_c.cpp **** 
 299:src/syscall_c.cpp **** void kill(thread_t thread) {
 906              		.loc 1 299 28 is_stmt 1
 907              		.cfi_startproc
 908              	.LVL70:
 909 0594 130101FB 		addi	sp,sp,-80
 910              		.cfi_def_cfa_offset 80
 911 0598 23341104 		sd	ra,72(sp)
 912 059c 23308104 		sd	s0,64(sp)
 913              		.cfi_offset 1, -8
 914              		.cfi_offset 8, -16
 915 05a0 13040105 		addi	s0,sp,80
 916              		.cfi_def_cfa 8, 0
 300:src/syscall_c.cpp ****     // kod sistemskog poziva
 301:src/syscall_c.cpp ****     uint64 a0 = 0x111;
 917              		.loc 1 301 5
 918              	.LVL71:
 302:src/syscall_c.cpp **** 
 303:src/syscall_c.cpp ****     // parametri
 304:src/syscall_c.cpp ****     uint64 a1, a2, a3, a4, a5, a6, a7;
 919              		.loc 1 304 5
 305:src/syscall_c.cpp ****     a1 = (uint64)thread;
 920              		.loc 1 305 5
 306:src/syscall_c.cpp ****     a2 = a3 = a4 = a5 = a6 = a7 = 0;
 921              		.loc 1 306 5
 307:src/syscall_c.cpp **** 
 308:src/syscall_c.cpp ****     // void* pokazivac
 309:src/syscall_c.cpp ****     uint64 empty[8]= {a0, a1, a2, a3, a4, a5, a6, a7};
 922              		.loc 1 309 5
 923              		.loc 1 309 53 is_stmt 0
 924 05a4 93071011 		li	a5,273
 925 05a8 2338F4FA 		sd	a5,-80(s0)
 926 05ac 233CA4FA 		sd	a0,-72(s0)
 927 05b0 233004FC 		sd	zero,-64(s0)
 928 05b4 233404FC 		sd	zero,-56(s0)
 929 05b8 233804FC 		sd	zero,-48(s0)
 930 05bc 233C04FC 		sd	zero,-40(s0)
 931 05c0 233004FE 		sd	zero,-32(s0)
 932 05c4 233404FE 		sd	zero,-24(s0)
 310:src/syscall_c.cpp **** 
 311:src/syscall_c.cpp ****     // sistemski poziv
 312:src/syscall_c.cpp ****     abi::sys_call(reinterpret_cast<void *>(empty));
 933              		.loc 1 312 5 is_stmt 1
 934              		.loc 1 312 18 is_stmt 0
 935 05c8 130504FB 		addi	a0,s0,-80
 936              	.LVL72:
 937 05cc 97000000 		call	_ZN3abi8sys_callEPv@plt
 937      E7800000 
 938              	.LVL73:
 313:src/syscall_c.cpp ****     return;
 939              		.loc 1 313 5 is_stmt 1
GAS LISTING /tmp/ccoAAFXO.s 			page 23


 314:src/syscall_c.cpp **** }
 940              		.loc 1 314 1 is_stmt 0
 941 05d4 83308104 		ld	ra,72(sp)
 942              		.cfi_restore 1
 943 05d8 03340104 		ld	s0,64(sp)
 944              		.cfi_restore 8
 945              		.cfi_def_cfa 2, 80
 946 05dc 13010105 		addi	sp,sp,80
 947              		.cfi_def_cfa_offset 0
 948 05e0 67800000 		jr	ra
 949              		.cfi_endproc
 950              	.LFE56:
 952              	.Letext0:
 953              		.file 2 "src/../h/../h/../h/../lib/hw.h"
 954              		.file 3 "src/../h/syscall_c.h"
GAS LISTING /tmp/ccoAAFXO.s 			page 24

