GAS LISTING /tmp/ccrAcWjD.s 			page 1


   1              		.file	"syscall_c.cpp"
   2              		.option pic
   3              		.option norelax
   4              		.text
   5              	.Ltext0:
   6              		.align	2
   7              		.globl	mem_alloc
   9              	mem_alloc:
  10              	.LFB38:
  11              		.file 1 "src/syscall_c.cpp"
   1:src/syscall_c.cpp **** #include "../h/syscall_c.h"
   2:src/syscall_c.cpp **** void *mem_alloc(size_t size) {
  12              		.loc 1 2 30
  13              		.cfi_startproc
  14              	.LVL0:
  15 0000 130101FB 		addi	sp,sp,-80
  16              		.cfi_def_cfa_offset 80
  17 0004 23341104 		sd	ra,72(sp)
  18 0008 23308104 		sd	s0,64(sp)
  19              		.cfi_offset 1, -8
  20              		.cfi_offset 8, -16
  21 000c 13040105 		addi	s0,sp,80
  22              		.cfi_def_cfa 8, 0
   3:src/syscall_c.cpp ****     // prebaci u blokove i zaokruzi na gornji ceo
   4:src/syscall_c.cpp ****     size_t ssize = (size + MEM_BLOCK_SIZE - 1) / MEM_BLOCK_SIZE;
  23              		.loc 1 4 5
  24              		.loc 1 4 43 is_stmt 0
  25 0010 1305F503 		addi	a0,a0,63
  26              	.LVL1:
  27              		.loc 1 4 12
  28 0014 13556500 		srli	a0,a0,6
  29              	.LVL2:
   5:src/syscall_c.cpp **** 
   6:src/syscall_c.cpp ****     // kod sistemskog poziva
   7:src/syscall_c.cpp ****     uint64 a0 = 0x01;
  30              		.loc 1 7 5 is_stmt 1
   8:src/syscall_c.cpp ****     // priprema argumenata
   9:src/syscall_c.cpp ****     uint64 a1 = ssize;
  31              		.loc 1 9 5
  10:src/syscall_c.cpp ****     uint64 a2 = 0;
  32              		.loc 1 10 5
  11:src/syscall_c.cpp ****     uint64 a3 = 0;
  33              		.loc 1 11 5
  12:src/syscall_c.cpp ****     uint64 a4 = 0;
  34              		.loc 1 12 5
  13:src/syscall_c.cpp ****     uint64 a5 = 0;
  35              		.loc 1 13 5
  14:src/syscall_c.cpp ****     uint64 a6 = 0;
  36              		.loc 1 14 5
  15:src/syscall_c.cpp ****     uint64 a7 = 0;
  37              		.loc 1 15 5
  16:src/syscall_c.cpp **** 
  17:src/syscall_c.cpp ****     // void* pokazivac
  18:src/syscall_c.cpp ****     uint64 empty[8]= {a0, a1, a2, a3, a4, a5, a6, a7};
  38              		.loc 1 18 5
  39              		.loc 1 18 53 is_stmt 0
  40 0018 93071000 		li	a5,1
GAS LISTING /tmp/ccrAcWjD.s 			page 2


  41 001c 2338F4FA 		sd	a5,-80(s0)
  42 0020 233CA4FA 		sd	a0,-72(s0)
  43 0024 233004FC 		sd	zero,-64(s0)
  44 0028 233404FC 		sd	zero,-56(s0)
  45 002c 233804FC 		sd	zero,-48(s0)
  46 0030 233C04FC 		sd	zero,-40(s0)
  47 0034 233004FE 		sd	zero,-32(s0)
  48 0038 233404FE 		sd	zero,-24(s0)
  19:src/syscall_c.cpp **** 
  20:src/syscall_c.cpp ****     // sistemski poziv
  21:src/syscall_c.cpp ****     return abi::sys_call(reinterpret_cast<void*>(empty));
  49              		.loc 1 21 5 is_stmt 1
  50              		.loc 1 21 25 is_stmt 0
  51 003c 130504FB 		addi	a0,s0,-80
  52              	.LVL3:
  53 0040 97000000 		call	_ZN3abi8sys_callEPv@plt
  53      E7800000 
  54              	.LVL4:
  22:src/syscall_c.cpp **** }
  55              		.loc 1 22 1
  56 0048 83308104 		ld	ra,72(sp)
  57              		.cfi_restore 1
  58 004c 03340104 		ld	s0,64(sp)
  59              		.cfi_restore 8
  60              		.cfi_def_cfa 2, 80
  61 0050 13010105 		addi	sp,sp,80
  62              		.cfi_def_cfa_offset 0
  63 0054 67800000 		jr	ra
  64              		.cfi_endproc
  65              	.LFE38:
  67              		.align	2
  68              		.globl	mem_free
  70              	mem_free:
  71              	.LFB39:
  23:src/syscall_c.cpp **** 
  24:src/syscall_c.cpp **** int mem_free(void *addr) {
  72              		.loc 1 24 26 is_stmt 1
  73              		.cfi_startproc
  74              	.LVL5:
  75 0058 130101FB 		addi	sp,sp,-80
  76              		.cfi_def_cfa_offset 80
  77 005c 23341104 		sd	ra,72(sp)
  78 0060 23308104 		sd	s0,64(sp)
  79              		.cfi_offset 1, -8
  80              		.cfi_offset 8, -16
  81 0064 13040105 		addi	s0,sp,80
  82              		.cfi_def_cfa 8, 0
  25:src/syscall_c.cpp **** 
  26:src/syscall_c.cpp ****     // kod sistemskog poziva
  27:src/syscall_c.cpp ****     uint64 a0 = 0x02;
  83              		.loc 1 27 5
  84              	.LVL6:
  28:src/syscall_c.cpp ****     // priprema argumenata
  29:src/syscall_c.cpp ****     uint64 a1 = reinterpret_cast<uint64>(addr);
  85              		.loc 1 29 5
  30:src/syscall_c.cpp ****     uint64 a2 = 0;
  86              		.loc 1 30 5
GAS LISTING /tmp/ccrAcWjD.s 			page 3


  31:src/syscall_c.cpp ****     uint64 a3 = 0;
  87              		.loc 1 31 5
  32:src/syscall_c.cpp ****     uint64 a4 = 0;
  88              		.loc 1 32 5
  33:src/syscall_c.cpp ****     uint64 a5 = 0;
  89              		.loc 1 33 5
  34:src/syscall_c.cpp ****     uint64 a6 = 0;
  90              		.loc 1 34 5
  35:src/syscall_c.cpp ****     uint64 a7 = 0;
  91              		.loc 1 35 5
  36:src/syscall_c.cpp **** 
  37:src/syscall_c.cpp ****     // void* pokazivac
  38:src/syscall_c.cpp ****     uint64 empty[8]= {a0, a1, a2, a3, a4, a5, a6, a7};
  92              		.loc 1 38 5
  93              		.loc 1 38 53 is_stmt 0
  94 0068 93072000 		li	a5,2
  95 006c 2338F4FA 		sd	a5,-80(s0)
  96 0070 233CA4FA 		sd	a0,-72(s0)
  97 0074 233004FC 		sd	zero,-64(s0)
  98 0078 233404FC 		sd	zero,-56(s0)
  99 007c 233804FC 		sd	zero,-48(s0)
 100 0080 233C04FC 		sd	zero,-40(s0)
 101 0084 233004FE 		sd	zero,-32(s0)
 102 0088 233404FE 		sd	zero,-24(s0)
  39:src/syscall_c.cpp **** 
  40:src/syscall_c.cpp ****     // sistemski poziv
  41:src/syscall_c.cpp ****     return (uint64) abi::sys_call(reinterpret_cast<void *>(empty));
 103              		.loc 1 41 5 is_stmt 1
 104              		.loc 1 41 34 is_stmt 0
 105 008c 130504FB 		addi	a0,s0,-80
 106              	.LVL7:
 107 0090 97000000 		call	_ZN3abi8sys_callEPv@plt
 107      E7800000 
 108              	.LVL8:
  42:src/syscall_c.cpp **** }
 109              		.loc 1 42 1
 110 0098 1B050500 		sext.w	a0,a0
 111 009c 83308104 		ld	ra,72(sp)
 112              		.cfi_restore 1
 113 00a0 03340104 		ld	s0,64(sp)
 114              		.cfi_restore 8
 115              		.cfi_def_cfa 2, 80
 116 00a4 13010105 		addi	sp,sp,80
 117              		.cfi_def_cfa_offset 0
 118 00a8 67800000 		jr	ra
 119              		.cfi_endproc
 120              	.LFE39:
 122              		.align	2
 123              		.globl	thread_create
 125              	thread_create:
 126              	.LFB40:
  43:src/syscall_c.cpp **** 
  44:src/syscall_c.cpp **** int thread_create(thread_t *handle, void (*start_routine)(void *), void *arg) {
 127              		.loc 1 44 79 is_stmt 1
 128              		.cfi_startproc
 129              	.LVL9:
 130 00ac 130101F9 		addi	sp,sp,-112
GAS LISTING /tmp/ccrAcWjD.s 			page 4


 131              		.cfi_def_cfa_offset 112
 132 00b0 23341106 		sd	ra,104(sp)
 133 00b4 23308106 		sd	s0,96(sp)
 134 00b8 233C9104 		sd	s1,88(sp)
 135 00bc 23382105 		sd	s2,80(sp)
 136 00c0 23343105 		sd	s3,72(sp)
 137              		.cfi_offset 1, -8
 138              		.cfi_offset 8, -16
 139              		.cfi_offset 9, -24
 140              		.cfi_offset 18, -32
 141              		.cfi_offset 19, -40
 142 00c4 13040107 		addi	s0,sp,112
 143              		.cfi_def_cfa 8, 0
 144 00c8 93090500 		mv	s3,a0
 145 00cc 93840500 		mv	s1,a1
 146 00d0 13090600 		mv	s2,a2
  45:src/syscall_c.cpp **** 
  46:src/syscall_c.cpp ****     // inicijalizacija steka
  47:src/syscall_c.cpp ****     uint64 a4 = (start_routine != nullptr) ? (uint64)mem_alloc(DEFAULT_STACK_SIZE) : 0;
 147              		.loc 1 47 5
 148              		.loc 1 47 44 is_stmt 0
 149 00d4 63820506 		beqz	a1,.L7
 150              		.loc 1 47 63 discriminator 1
 151 00d8 37150000 		li	a0,4096
 152              	.LVL10:
 153 00dc 97000000 		call	mem_alloc
 153      E7800000 
 154              	.LVL11:
 155              	.L6:
  48:src/syscall_c.cpp **** 
  49:src/syscall_c.cpp ****     // kod sistemskog poziva
  50:src/syscall_c.cpp ****     uint64 a0 = 0x11;
 156              		.loc 1 50 5 is_stmt 1 discriminator 5
  51:src/syscall_c.cpp ****     // parametri
  52:src/syscall_c.cpp ****     uint64  a1, a2, a3, a5, a6, a7;
 157              		.loc 1 52 5 discriminator 5
  53:src/syscall_c.cpp ****     a1 = (uint64)handle;
 158              		.loc 1 53 5 discriminator 5
  54:src/syscall_c.cpp ****     a2 = (uint64)start_routine;
 159              		.loc 1 54 5 discriminator 5
  55:src/syscall_c.cpp ****     a3 = (uint64)arg;
 160              		.loc 1 55 5 discriminator 5
  56:src/syscall_c.cpp ****     a6 = (uint64)true;
 161              		.loc 1 56 5 discriminator 5
  57:src/syscall_c.cpp **** 
  58:src/syscall_c.cpp ****     a5 = a7 = 0;
 162              		.loc 1 58 5 discriminator 5
  59:src/syscall_c.cpp **** 
  60:src/syscall_c.cpp ****     // void* pokazivac
  61:src/syscall_c.cpp ****     uint64 empty[8]= {a0, a1, a2, a3, a4, a5, a6, a7};
 163              		.loc 1 61 5 discriminator 5
 164              		.loc 1 61 53 is_stmt 0 discriminator 5
 165 00e4 93071001 		li	a5,17
 166 00e8 2338F4F8 		sd	a5,-112(s0)
 167 00ec 233C34F9 		sd	s3,-104(s0)
 168 00f0 233094FA 		sd	s1,-96(s0)
 169 00f4 233424FB 		sd	s2,-88(s0)
GAS LISTING /tmp/ccrAcWjD.s 			page 5


 170 00f8 2338A4FA 		sd	a0,-80(s0)
 171 00fc 233C04FA 		sd	zero,-72(s0)
 172 0100 93071000 		li	a5,1
 173 0104 2330F4FC 		sd	a5,-64(s0)
 174 0108 233404FC 		sd	zero,-56(s0)
  62:src/syscall_c.cpp **** 
  63:src/syscall_c.cpp ****     // sistemski poziv
  64:src/syscall_c.cpp ****     return (uint64) abi::sys_call(reinterpret_cast<void *>(empty));
 175              		.loc 1 64 5 is_stmt 1 discriminator 5
 176              		.loc 1 64 34 is_stmt 0 discriminator 5
 177 010c 130504F9 		addi	a0,s0,-112
 178              	.LVL12:
 179 0110 97000000 		call	_ZN3abi8sys_callEPv@plt
 179      E7800000 
 180              	.LVL13:
  65:src/syscall_c.cpp **** 
  66:src/syscall_c.cpp **** }
 181              		.loc 1 66 1 discriminator 5
 182 0118 1B050500 		sext.w	a0,a0
 183 011c 83308106 		ld	ra,104(sp)
 184              		.cfi_remember_state
 185              		.cfi_restore 1
 186 0120 03340106 		ld	s0,96(sp)
 187              		.cfi_restore 8
 188              		.cfi_def_cfa 2, 112
 189 0124 83348105 		ld	s1,88(sp)
 190              		.cfi_restore 9
 191              	.LVL14:
 192 0128 03390105 		ld	s2,80(sp)
 193              		.cfi_restore 18
 194              	.LVL15:
 195 012c 83398104 		ld	s3,72(sp)
 196              		.cfi_restore 19
 197              	.LVL16:
 198 0130 13010107 		addi	sp,sp,112
 199              		.cfi_def_cfa_offset 0
 200 0134 67800000 		jr	ra
 201              	.LVL17:
 202              	.L7:
 203              		.cfi_restore_state
  47:src/syscall_c.cpp **** 
 204              		.loc 1 47 44
 205 0138 13050000 		li	a0,0
 206              	.LVL18:
 207 013c 6FF09FFA 		j	.L6
 208              		.cfi_endproc
 209              	.LFE40:
 211              		.align	2
 212              		.globl	thread_dispatch
 214              	thread_dispatch:
 215              	.LFB41:
  67:src/syscall_c.cpp **** 
  68:src/syscall_c.cpp **** void thread_dispatch() {
 216              		.loc 1 68 24 is_stmt 1
 217              		.cfi_startproc
 218 0140 130101FB 		addi	sp,sp,-80
 219              		.cfi_def_cfa_offset 80
GAS LISTING /tmp/ccrAcWjD.s 			page 6


 220 0144 23341104 		sd	ra,72(sp)
 221 0148 23308104 		sd	s0,64(sp)
 222              		.cfi_offset 1, -8
 223              		.cfi_offset 8, -16
 224 014c 13040105 		addi	s0,sp,80
 225              		.cfi_def_cfa 8, 0
  69:src/syscall_c.cpp **** 
  70:src/syscall_c.cpp ****     // kod sistemskog poziva
  71:src/syscall_c.cpp ****     uint64 a0 = 0x13;
 226              		.loc 1 71 5
 227              	.LVL19:
  72:src/syscall_c.cpp ****     // parametri
  73:src/syscall_c.cpp ****     uint64  a1, a2, a3, a4, a5, a6, a7;
 228              		.loc 1 73 5
  74:src/syscall_c.cpp **** 
  75:src/syscall_c.cpp ****     a1 = a2 = a3 = a4 = a5 = a6 = a7 = 0;
 229              		.loc 1 75 5
  76:src/syscall_c.cpp **** 
  77:src/syscall_c.cpp ****     // void* pokazivac
  78:src/syscall_c.cpp ****     uint64 empty[8]= {a0, a1, a2, a3, a4, a5, a6, a7};
 230              		.loc 1 78 5
 231              		.loc 1 78 53 is_stmt 0
 232 0150 93073001 		li	a5,19
 233 0154 2338F4FA 		sd	a5,-80(s0)
 234 0158 233C04FA 		sd	zero,-72(s0)
 235 015c 233004FC 		sd	zero,-64(s0)
 236 0160 233404FC 		sd	zero,-56(s0)
 237 0164 233804FC 		sd	zero,-48(s0)
 238 0168 233C04FC 		sd	zero,-40(s0)
 239 016c 233004FE 		sd	zero,-32(s0)
 240 0170 233404FE 		sd	zero,-24(s0)
  79:src/syscall_c.cpp **** 
  80:src/syscall_c.cpp ****     // sistemski poziv
  81:src/syscall_c.cpp ****     abi::sys_call(reinterpret_cast<void *>(empty));
 241              		.loc 1 81 5 is_stmt 1
 242              		.loc 1 81 18 is_stmt 0
 243 0174 130504FB 		addi	a0,s0,-80
 244 0178 97000000 		call	_ZN3abi8sys_callEPv@plt
 244      E7800000 
 245              	.LVL20:
  82:src/syscall_c.cpp **** 
  83:src/syscall_c.cpp ****     // povratak
  84:src/syscall_c.cpp ****     return;
 246              		.loc 1 84 5 is_stmt 1
  85:src/syscall_c.cpp **** 
  86:src/syscall_c.cpp **** }
 247              		.loc 1 86 1 is_stmt 0
 248 0180 83308104 		ld	ra,72(sp)
 249              		.cfi_restore 1
 250 0184 03340104 		ld	s0,64(sp)
 251              		.cfi_restore 8
 252              		.cfi_def_cfa 2, 80
 253 0188 13010105 		addi	sp,sp,80
 254              		.cfi_def_cfa_offset 0
 255 018c 67800000 		jr	ra
 256              		.cfi_endproc
 257              	.LFE41:
GAS LISTING /tmp/ccrAcWjD.s 			page 7


 259              		.align	2
 260              		.globl	thread_exit
 262              	thread_exit:
 263              	.LFB42:
  87:src/syscall_c.cpp **** 
  88:src/syscall_c.cpp **** int thread_exit() {
 264              		.loc 1 88 19 is_stmt 1
 265              		.cfi_startproc
 266 0190 130101FB 		addi	sp,sp,-80
 267              		.cfi_def_cfa_offset 80
 268 0194 23341104 		sd	ra,72(sp)
 269 0198 23308104 		sd	s0,64(sp)
 270              		.cfi_offset 1, -8
 271              		.cfi_offset 8, -16
 272 019c 13040105 		addi	s0,sp,80
 273              		.cfi_def_cfa 8, 0
  89:src/syscall_c.cpp **** 
  90:src/syscall_c.cpp ****     // kod sistemskog poziva
  91:src/syscall_c.cpp ****     uint64 a0 = 0x12;
 274              		.loc 1 91 5
 275              	.LVL21:
  92:src/syscall_c.cpp **** 
  93:src/syscall_c.cpp ****     // parametri
  94:src/syscall_c.cpp ****     uint64 a1, a2, a3, a4, a5, a6, a7;
 276              		.loc 1 94 5
  95:src/syscall_c.cpp ****     a1 = a2 = a3 = a4 = a5 = a6 = a7 = 0;
 277              		.loc 1 95 5
  96:src/syscall_c.cpp **** 
  97:src/syscall_c.cpp ****     // void* pokazivac
  98:src/syscall_c.cpp ****     uint64 empty[8]= {a0, a1, a2, a3, a4, a5, a6, a7};
 278              		.loc 1 98 5
 279              		.loc 1 98 53 is_stmt 0
 280 01a0 93072001 		li	a5,18
 281 01a4 2338F4FA 		sd	a5,-80(s0)
 282 01a8 233C04FA 		sd	zero,-72(s0)
 283 01ac 233004FC 		sd	zero,-64(s0)
 284 01b0 233404FC 		sd	zero,-56(s0)
 285 01b4 233804FC 		sd	zero,-48(s0)
 286 01b8 233C04FC 		sd	zero,-40(s0)
 287 01bc 233004FE 		sd	zero,-32(s0)
 288 01c0 233404FE 		sd	zero,-24(s0)
  99:src/syscall_c.cpp **** 
 100:src/syscall_c.cpp ****     // sistemski poziv
 101:src/syscall_c.cpp ****     return (uint64)abi::sys_call(reinterpret_cast<void *>(empty));
 289              		.loc 1 101 5 is_stmt 1
 290              		.loc 1 101 33 is_stmt 0
 291 01c4 130504FB 		addi	a0,s0,-80
 292 01c8 97000000 		call	_ZN3abi8sys_callEPv@plt
 292      E7800000 
 293              	.LVL22:
 102:src/syscall_c.cpp **** 
 103:src/syscall_c.cpp **** //    return 0;
 104:src/syscall_c.cpp **** }
 294              		.loc 1 104 1
 295 01d0 1B050500 		sext.w	a0,a0
 296 01d4 83308104 		ld	ra,72(sp)
 297              		.cfi_restore 1
GAS LISTING /tmp/ccrAcWjD.s 			page 8


 298 01d8 03340104 		ld	s0,64(sp)
 299              		.cfi_restore 8
 300              		.cfi_def_cfa 2, 80
 301 01dc 13010105 		addi	sp,sp,80
 302              		.cfi_def_cfa_offset 0
 303 01e0 67800000 		jr	ra
 304              		.cfi_endproc
 305              	.LFE42:
 307              		.align	2
 308              		.globl	time_sleep
 310              	time_sleep:
 311              	.LFB43:
 105:src/syscall_c.cpp **** 
 106:src/syscall_c.cpp **** int time_sleep(time_t time) {
 312              		.loc 1 106 29 is_stmt 1
 313              		.cfi_startproc
 314              	.LVL23:
 107:src/syscall_c.cpp **** 
 108:src/syscall_c.cpp ****     if(time == 0)return 0;
 315              		.loc 1 108 5
 316 01e4 63160500 		bnez	a0,.L20
 317              		.loc 1 108 25 is_stmt 0
 318 01e8 13050000 		li	a0,0
 319              	.LVL24:
 109:src/syscall_c.cpp **** 
 110:src/syscall_c.cpp ****     // kod sistemskog poziva
 111:src/syscall_c.cpp ****     uint64 a0 = 0x31;
 112:src/syscall_c.cpp **** 
 113:src/syscall_c.cpp ****     // parametri
 114:src/syscall_c.cpp ****     uint64 a1, a2, a3, a4, a5, a6, a7;
 115:src/syscall_c.cpp ****     a1 = (uint64)time;
 116:src/syscall_c.cpp ****     a2 = a3 = a4 = a5 = a6 = a7 = 0;
 117:src/syscall_c.cpp **** 
 118:src/syscall_c.cpp ****     // void* pokazivac
 119:src/syscall_c.cpp ****     uint64 empty[8]= {a0, a1, a2, a3, a4, a5, a6, a7};
 120:src/syscall_c.cpp **** 
 121:src/syscall_c.cpp ****     // sistemski poziv
 122:src/syscall_c.cpp ****     return (uint64)abi::sys_call(reinterpret_cast<void *>(empty));
 123:src/syscall_c.cpp **** 
 124:src/syscall_c.cpp **** //    return 0;
 125:src/syscall_c.cpp **** }
 320              		.loc 1 125 1
 321 01ec 67800000 		ret
 322              	.LVL25:
 323              	.L20:
 106:src/syscall_c.cpp **** 
 324              		.loc 1 106 29
 325 01f0 130101FB 		addi	sp,sp,-80
 326              		.cfi_def_cfa_offset 80
 327 01f4 23341104 		sd	ra,72(sp)
 328 01f8 23308104 		sd	s0,64(sp)
 329              		.cfi_offset 1, -8
 330              		.cfi_offset 8, -16
 331 01fc 13040105 		addi	s0,sp,80
 332              		.cfi_def_cfa 8, 0
 111:src/syscall_c.cpp **** 
 333              		.loc 1 111 5 is_stmt 1
GAS LISTING /tmp/ccrAcWjD.s 			page 9


 334              	.LVL26:
 114:src/syscall_c.cpp ****     a1 = (uint64)time;
 335              		.loc 1 114 5
 115:src/syscall_c.cpp ****     a2 = a3 = a4 = a5 = a6 = a7 = 0;
 336              		.loc 1 115 5
 116:src/syscall_c.cpp **** 
 337              		.loc 1 116 5
 119:src/syscall_c.cpp **** 
 338              		.loc 1 119 5
 119:src/syscall_c.cpp **** 
 339              		.loc 1 119 53 is_stmt 0
 340 0200 93071003 		li	a5,49
 341 0204 2338F4FA 		sd	a5,-80(s0)
 342 0208 233CA4FA 		sd	a0,-72(s0)
 343 020c 233004FC 		sd	zero,-64(s0)
 344 0210 233404FC 		sd	zero,-56(s0)
 345 0214 233804FC 		sd	zero,-48(s0)
 346 0218 233C04FC 		sd	zero,-40(s0)
 347 021c 233004FE 		sd	zero,-32(s0)
 348 0220 233404FE 		sd	zero,-24(s0)
 122:src/syscall_c.cpp **** 
 349              		.loc 1 122 5 is_stmt 1
 122:src/syscall_c.cpp **** 
 350              		.loc 1 122 33 is_stmt 0
 351 0224 130504FB 		addi	a0,s0,-80
 352              	.LVL27:
 353 0228 97000000 		call	_ZN3abi8sys_callEPv@plt
 353      E7800000 
 354              	.LVL28:
 122:src/syscall_c.cpp **** 
 355              		.loc 1 122 65
 356 0230 1B050500 		sext.w	a0,a0
 357              		.loc 1 125 1
 358 0234 83308104 		ld	ra,72(sp)
 359              		.cfi_restore 1
 360 0238 03340104 		ld	s0,64(sp)
 361              		.cfi_restore 8
 362              		.cfi_def_cfa 2, 80
 363 023c 13010105 		addi	sp,sp,80
 364              		.cfi_def_cfa_offset 0
 365 0240 67800000 		jr	ra
 366              		.cfi_endproc
 367              	.LFE43:
 369              		.align	2
 370              		.globl	sem_open
 372              	sem_open:
 373              	.LFB44:
 126:src/syscall_c.cpp **** 
 127:src/syscall_c.cpp **** int sem_open(sem_t *handle, uint64 init) {
 374              		.loc 1 127 42 is_stmt 1
 375              		.cfi_startproc
 376              	.LVL29:
 377 0244 130101FB 		addi	sp,sp,-80
 378              		.cfi_def_cfa_offset 80
 379 0248 23341104 		sd	ra,72(sp)
 380 024c 23308104 		sd	s0,64(sp)
 381              		.cfi_offset 1, -8
GAS LISTING /tmp/ccrAcWjD.s 			page 10


 382              		.cfi_offset 8, -16
 383 0250 13040105 		addi	s0,sp,80
 384              		.cfi_def_cfa 8, 0
 128:src/syscall_c.cpp ****     // kod sistemskog poziva
 129:src/syscall_c.cpp ****     uint64 a0 = 0x21;
 385              		.loc 1 129 5
 386              	.LVL30:
 130:src/syscall_c.cpp **** 
 131:src/syscall_c.cpp ****     // parametri
 132:src/syscall_c.cpp ****     uint64 a1, a2, a3, a4, a5, a6, a7;
 387              		.loc 1 132 5
 133:src/syscall_c.cpp ****     a1 = (uint64)handle;
 388              		.loc 1 133 5
 134:src/syscall_c.cpp ****     a2 = init;
 389              		.loc 1 134 5
 135:src/syscall_c.cpp ****     a3 = a4 = a5 = a6 = a7 = 0;
 390              		.loc 1 135 5
 136:src/syscall_c.cpp **** 
 137:src/syscall_c.cpp ****     // void* pokazivac
 138:src/syscall_c.cpp ****     uint64 empty[8]= {a0, a1, a2, a3, a4, a5, a6, a7};
 391              		.loc 1 138 5
 392              		.loc 1 138 53 is_stmt 0
 393 0254 93071002 		li	a5,33
 394 0258 2338F4FA 		sd	a5,-80(s0)
 395 025c 233CA4FA 		sd	a0,-72(s0)
 396 0260 2330B4FC 		sd	a1,-64(s0)
 397 0264 233404FC 		sd	zero,-56(s0)
 398 0268 233804FC 		sd	zero,-48(s0)
 399 026c 233C04FC 		sd	zero,-40(s0)
 400 0270 233004FE 		sd	zero,-32(s0)
 401 0274 233404FE 		sd	zero,-24(s0)
 139:src/syscall_c.cpp **** 
 140:src/syscall_c.cpp ****     // sistemski poziv
 141:src/syscall_c.cpp ****     return (uint64)abi::sys_call(reinterpret_cast<void *>(empty));
 402              		.loc 1 141 5 is_stmt 1
 403              		.loc 1 141 33 is_stmt 0
 404 0278 130504FB 		addi	a0,s0,-80
 405              	.LVL31:
 406 027c 97000000 		call	_ZN3abi8sys_callEPv@plt
 406      E7800000 
 407              	.LVL32:
 142:src/syscall_c.cpp **** }
 408              		.loc 1 142 1
 409 0284 1B050500 		sext.w	a0,a0
 410 0288 83308104 		ld	ra,72(sp)
 411              		.cfi_restore 1
 412 028c 03340104 		ld	s0,64(sp)
 413              		.cfi_restore 8
 414              		.cfi_def_cfa 2, 80
 415 0290 13010105 		addi	sp,sp,80
 416              		.cfi_def_cfa_offset 0
 417 0294 67800000 		jr	ra
 418              		.cfi_endproc
 419              	.LFE44:
 421              		.align	2
 422              		.globl	sem_close
 424              	sem_close:
GAS LISTING /tmp/ccrAcWjD.s 			page 11


 425              	.LFB45:
 143:src/syscall_c.cpp **** 
 144:src/syscall_c.cpp **** int sem_close(sem_t handle) {
 426              		.loc 1 144 29 is_stmt 1
 427              		.cfi_startproc
 428              	.LVL33:
 429 0298 130101FB 		addi	sp,sp,-80
 430              		.cfi_def_cfa_offset 80
 431 029c 23341104 		sd	ra,72(sp)
 432 02a0 23308104 		sd	s0,64(sp)
 433              		.cfi_offset 1, -8
 434              		.cfi_offset 8, -16
 435 02a4 13040105 		addi	s0,sp,80
 436              		.cfi_def_cfa 8, 0
 145:src/syscall_c.cpp ****     // kod sistemskog poziva
 146:src/syscall_c.cpp ****     uint64 a0 = 0x22;
 437              		.loc 1 146 5
 438              	.LVL34:
 147:src/syscall_c.cpp **** 
 148:src/syscall_c.cpp ****     // parametri
 149:src/syscall_c.cpp ****     uint64 a1, a2, a3, a4, a5, a6, a7;
 439              		.loc 1 149 5
 150:src/syscall_c.cpp ****     a1 = (uint64)handle;
 440              		.loc 1 150 5
 151:src/syscall_c.cpp ****     a2 = a3 = a4 = a5 = a6 = a7 = 0;
 441              		.loc 1 151 5
 152:src/syscall_c.cpp **** 
 153:src/syscall_c.cpp ****     // void* pokazivac
 154:src/syscall_c.cpp ****     uint64 empty[8]= {a0, a1, a2, a3, a4, a5, a6, a7};
 442              		.loc 1 154 5
 443              		.loc 1 154 53 is_stmt 0
 444 02a8 93072002 		li	a5,34
 445 02ac 2338F4FA 		sd	a5,-80(s0)
 446 02b0 233CA4FA 		sd	a0,-72(s0)
 447 02b4 233004FC 		sd	zero,-64(s0)
 448 02b8 233404FC 		sd	zero,-56(s0)
 449 02bc 233804FC 		sd	zero,-48(s0)
 450 02c0 233C04FC 		sd	zero,-40(s0)
 451 02c4 233004FE 		sd	zero,-32(s0)
 452 02c8 233404FE 		sd	zero,-24(s0)
 155:src/syscall_c.cpp **** 
 156:src/syscall_c.cpp ****     // sistemski poziv
 157:src/syscall_c.cpp ****     return (uint64)abi::sys_call(reinterpret_cast<void *>(empty));
 453              		.loc 1 157 5 is_stmt 1
 454              		.loc 1 157 33 is_stmt 0
 455 02cc 130504FB 		addi	a0,s0,-80
 456              	.LVL35:
 457 02d0 97000000 		call	_ZN3abi8sys_callEPv@plt
 457      E7800000 
 458              	.LVL36:
 158:src/syscall_c.cpp **** }
 459              		.loc 1 158 1
 460 02d8 1B050500 		sext.w	a0,a0
 461 02dc 83308104 		ld	ra,72(sp)
 462              		.cfi_restore 1
 463 02e0 03340104 		ld	s0,64(sp)
 464              		.cfi_restore 8
GAS LISTING /tmp/ccrAcWjD.s 			page 12


 465              		.cfi_def_cfa 2, 80
 466 02e4 13010105 		addi	sp,sp,80
 467              		.cfi_def_cfa_offset 0
 468 02e8 67800000 		jr	ra
 469              		.cfi_endproc
 470              	.LFE45:
 472              		.align	2
 473              		.globl	sem_wait
 475              	sem_wait:
 476              	.LFB46:
 159:src/syscall_c.cpp **** 
 160:src/syscall_c.cpp **** int sem_wait(sem_t id) {
 477              		.loc 1 160 24 is_stmt 1
 478              		.cfi_startproc
 479              	.LVL37:
 480 02ec 130101FB 		addi	sp,sp,-80
 481              		.cfi_def_cfa_offset 80
 482 02f0 23341104 		sd	ra,72(sp)
 483 02f4 23308104 		sd	s0,64(sp)
 484              		.cfi_offset 1, -8
 485              		.cfi_offset 8, -16
 486 02f8 13040105 		addi	s0,sp,80
 487              		.cfi_def_cfa 8, 0
 161:src/syscall_c.cpp ****     // kod sistemskog poziva
 162:src/syscall_c.cpp ****     uint64 a0 = 0x23;
 488              		.loc 1 162 5
 489              	.LVL38:
 163:src/syscall_c.cpp **** 
 164:src/syscall_c.cpp ****     // parametri
 165:src/syscall_c.cpp ****     uint64 a1, a2, a3, a4, a5, a6, a7;
 490              		.loc 1 165 5
 166:src/syscall_c.cpp ****     a1 = (uint64)id;
 491              		.loc 1 166 5
 167:src/syscall_c.cpp ****     a2 = a3 = a4 = a5 = a6 = a7 = 0;
 492              		.loc 1 167 5
 168:src/syscall_c.cpp **** 
 169:src/syscall_c.cpp ****     // void* pokazivac
 170:src/syscall_c.cpp ****     uint64 empty[8]= {a0, a1, a2, a3, a4, a5, a6, a7};
 493              		.loc 1 170 5
 494              		.loc 1 170 53 is_stmt 0
 495 02fc 93073002 		li	a5,35
 496 0300 2338F4FA 		sd	a5,-80(s0)
 497 0304 233CA4FA 		sd	a0,-72(s0)
 498 0308 233004FC 		sd	zero,-64(s0)
 499 030c 233404FC 		sd	zero,-56(s0)
 500 0310 233804FC 		sd	zero,-48(s0)
 501 0314 233C04FC 		sd	zero,-40(s0)
 502 0318 233004FE 		sd	zero,-32(s0)
 503 031c 233404FE 		sd	zero,-24(s0)
 171:src/syscall_c.cpp **** 
 172:src/syscall_c.cpp ****     // sistemski poziv
 173:src/syscall_c.cpp ****     return (uint64)abi::sys_call(reinterpret_cast<void *>(empty));
 504              		.loc 1 173 5 is_stmt 1
 505              		.loc 1 173 33 is_stmt 0
 506 0320 130504FB 		addi	a0,s0,-80
 507              	.LVL39:
 508 0324 97000000 		call	_ZN3abi8sys_callEPv@plt
GAS LISTING /tmp/ccrAcWjD.s 			page 13


 508      E7800000 
 509              	.LVL40:
 174:src/syscall_c.cpp **** }
 510              		.loc 1 174 1
 511 032c 1B050500 		sext.w	a0,a0
 512 0330 83308104 		ld	ra,72(sp)
 513              		.cfi_restore 1
 514 0334 03340104 		ld	s0,64(sp)
 515              		.cfi_restore 8
 516              		.cfi_def_cfa 2, 80
 517 0338 13010105 		addi	sp,sp,80
 518              		.cfi_def_cfa_offset 0
 519 033c 67800000 		jr	ra
 520              		.cfi_endproc
 521              	.LFE46:
 523              		.align	2
 524              		.globl	sem_signal
 526              	sem_signal:
 527              	.LFB47:
 175:src/syscall_c.cpp **** 
 176:src/syscall_c.cpp **** int sem_signal(sem_t id) {
 528              		.loc 1 176 26 is_stmt 1
 529              		.cfi_startproc
 530              	.LVL41:
 531 0340 130101FB 		addi	sp,sp,-80
 532              		.cfi_def_cfa_offset 80
 533 0344 23341104 		sd	ra,72(sp)
 534 0348 23308104 		sd	s0,64(sp)
 535              		.cfi_offset 1, -8
 536              		.cfi_offset 8, -16
 537 034c 13040105 		addi	s0,sp,80
 538              		.cfi_def_cfa 8, 0
 177:src/syscall_c.cpp ****     // kod sistemskog poziva
 178:src/syscall_c.cpp ****     uint64 a0 = 0x24;
 539              		.loc 1 178 5
 540              	.LVL42:
 179:src/syscall_c.cpp **** 
 180:src/syscall_c.cpp ****     // parametri
 181:src/syscall_c.cpp ****     uint64 a1, a2, a3, a4, a5, a6, a7;
 541              		.loc 1 181 5
 182:src/syscall_c.cpp ****     a1 = (uint64)id;
 542              		.loc 1 182 5
 183:src/syscall_c.cpp ****     a2 = a3 = a4 = a5 = a6 = a7 = 0;
 543              		.loc 1 183 5
 184:src/syscall_c.cpp **** 
 185:src/syscall_c.cpp ****     // void* pokazivac
 186:src/syscall_c.cpp ****     uint64 empty[8]= {a0, a1, a2, a3, a4, a5, a6, a7};
 544              		.loc 1 186 5
 545              		.loc 1 186 53 is_stmt 0
 546 0350 93074002 		li	a5,36
 547 0354 2338F4FA 		sd	a5,-80(s0)
 548 0358 233CA4FA 		sd	a0,-72(s0)
 549 035c 233004FC 		sd	zero,-64(s0)
 550 0360 233404FC 		sd	zero,-56(s0)
 551 0364 233804FC 		sd	zero,-48(s0)
 552 0368 233C04FC 		sd	zero,-40(s0)
 553 036c 233004FE 		sd	zero,-32(s0)
GAS LISTING /tmp/ccrAcWjD.s 			page 14


 554 0370 233404FE 		sd	zero,-24(s0)
 187:src/syscall_c.cpp **** 
 188:src/syscall_c.cpp ****     // sistemski poziv
 189:src/syscall_c.cpp ****     return (uint64)abi::sys_call(reinterpret_cast<void *>(empty));
 555              		.loc 1 189 5 is_stmt 1
 556              		.loc 1 189 33 is_stmt 0
 557 0374 130504FB 		addi	a0,s0,-80
 558              	.LVL43:
 559 0378 97000000 		call	_ZN3abi8sys_callEPv@plt
 559      E7800000 
 560              	.LVL44:
 190:src/syscall_c.cpp **** }
 561              		.loc 1 190 1
 562 0380 1B050500 		sext.w	a0,a0
 563 0384 83308104 		ld	ra,72(sp)
 564              		.cfi_restore 1
 565 0388 03340104 		ld	s0,64(sp)
 566              		.cfi_restore 8
 567              		.cfi_def_cfa 2, 80
 568 038c 13010105 		addi	sp,sp,80
 569              		.cfi_def_cfa_offset 0
 570 0390 67800000 		jr	ra
 571              		.cfi_endproc
 572              	.LFE47:
 574              		.align	2
 575              		.globl	getc
 577              	getc:
 578              	.LFB48:
 191:src/syscall_c.cpp **** 
 192:src/syscall_c.cpp **** char getc() {
 579              		.loc 1 192 13 is_stmt 1
 580              		.cfi_startproc
 581 0394 130101FB 		addi	sp,sp,-80
 582              		.cfi_def_cfa_offset 80
 583 0398 23341104 		sd	ra,72(sp)
 584 039c 23308104 		sd	s0,64(sp)
 585              		.cfi_offset 1, -8
 586              		.cfi_offset 8, -16
 587 03a0 13040105 		addi	s0,sp,80
 588              		.cfi_def_cfa 8, 0
 193:src/syscall_c.cpp ****     // kod sistemskog poziva
 194:src/syscall_c.cpp ****     uint64 a0 = 0x41;
 589              		.loc 1 194 5
 590              	.LVL45:
 195:src/syscall_c.cpp **** 
 196:src/syscall_c.cpp ****     // parametri
 197:src/syscall_c.cpp ****     uint64 a1, a2, a3, a4, a5, a6, a7;
 591              		.loc 1 197 5
 198:src/syscall_c.cpp ****     a1 = a2 = a3 = a4 = a5 = a6 = a7 = 0;
 592              		.loc 1 198 5
 199:src/syscall_c.cpp **** 
 200:src/syscall_c.cpp ****     // void* pokazivac
 201:src/syscall_c.cpp ****     uint64 empty[8]= {a0, a1, a2, a3, a4, a5, a6, a7};
 593              		.loc 1 201 5
 594              		.loc 1 201 53 is_stmt 0
 595 03a4 93071004 		li	a5,65
 596 03a8 2338F4FA 		sd	a5,-80(s0)
GAS LISTING /tmp/ccrAcWjD.s 			page 15


 597 03ac 233C04FA 		sd	zero,-72(s0)
 598 03b0 233004FC 		sd	zero,-64(s0)
 599 03b4 233404FC 		sd	zero,-56(s0)
 600 03b8 233804FC 		sd	zero,-48(s0)
 601 03bc 233C04FC 		sd	zero,-40(s0)
 602 03c0 233004FE 		sd	zero,-32(s0)
 603 03c4 233404FE 		sd	zero,-24(s0)
 202:src/syscall_c.cpp **** 
 203:src/syscall_c.cpp ****     // sistemski poziv
 204:src/syscall_c.cpp ****     uint64 ch = (uint64)abi::sys_call(reinterpret_cast<void *>(empty));
 604              		.loc 1 204 5 is_stmt 1
 605              		.loc 1 204 38 is_stmt 0
 606 03c8 130504FB 		addi	a0,s0,-80
 607 03cc 97000000 		call	_ZN3abi8sys_callEPv@plt
 607      E7800000 
 608              	.LVL46:
 205:src/syscall_c.cpp **** 
 206:src/syscall_c.cpp ****     return ch;
 609              		.loc 1 206 5 is_stmt 1
 207:src/syscall_c.cpp **** }
 610              		.loc 1 207 1 is_stmt 0
 611 03d4 1375F50F 		andi	a0,a0,0xff
 612              	.LVL47:
 613 03d8 83308104 		ld	ra,72(sp)
 614              		.cfi_restore 1
 615 03dc 03340104 		ld	s0,64(sp)
 616              		.cfi_restore 8
 617              		.cfi_def_cfa 2, 80
 618 03e0 13010105 		addi	sp,sp,80
 619              		.cfi_def_cfa_offset 0
 620 03e4 67800000 		jr	ra
 621              		.cfi_endproc
 622              	.LFE48:
 624              		.align	2
 625              		.globl	putc
 627              	putc:
 628              	.LFB49:
 208:src/syscall_c.cpp **** 
 209:src/syscall_c.cpp **** void putc(char c) {
 629              		.loc 1 209 19 is_stmt 1
 630              		.cfi_startproc
 631              	.LVL48:
 632 03e8 130101FB 		addi	sp,sp,-80
 633              		.cfi_def_cfa_offset 80
 634 03ec 23341104 		sd	ra,72(sp)
 635 03f0 23308104 		sd	s0,64(sp)
 636              		.cfi_offset 1, -8
 637              		.cfi_offset 8, -16
 638 03f4 13040105 		addi	s0,sp,80
 639              		.cfi_def_cfa 8, 0
 210:src/syscall_c.cpp ****     // kod sistemskog poziva
 211:src/syscall_c.cpp ****     uint64 a0 = 0x42;
 640              		.loc 1 211 5
 641              	.LVL49:
 212:src/syscall_c.cpp **** 
 213:src/syscall_c.cpp ****     // parametri
 214:src/syscall_c.cpp ****     uint64 a1, a2, a3, a4, a5, a6, a7;
GAS LISTING /tmp/ccrAcWjD.s 			page 16


 642              		.loc 1 214 5
 215:src/syscall_c.cpp ****     a1 = (uint64)c;
 643              		.loc 1 215 5
 216:src/syscall_c.cpp ****     a2 = a3 = a4 = a5 = a6 = a7 = 0;
 644              		.loc 1 216 5
 217:src/syscall_c.cpp **** 
 218:src/syscall_c.cpp ****     // void* pokazivac
 219:src/syscall_c.cpp ****     uint64 empty[8]= {a0, a1, a2, a3, a4, a5, a6, a7};
 645              		.loc 1 219 5
 646              		.loc 1 219 53 is_stmt 0
 647 03f8 93072004 		li	a5,66
 648 03fc 2338F4FA 		sd	a5,-80(s0)
 649 0400 233CA4FA 		sd	a0,-72(s0)
 650 0404 233004FC 		sd	zero,-64(s0)
 651 0408 233404FC 		sd	zero,-56(s0)
 652 040c 233804FC 		sd	zero,-48(s0)
 653 0410 233C04FC 		sd	zero,-40(s0)
 654 0414 233004FE 		sd	zero,-32(s0)
 655 0418 233404FE 		sd	zero,-24(s0)
 220:src/syscall_c.cpp **** 
 221:src/syscall_c.cpp ****     // sistemski poziv
 222:src/syscall_c.cpp ****     abi::sys_call(reinterpret_cast<void *>(empty));
 656              		.loc 1 222 5 is_stmt 1
 657              		.loc 1 222 18 is_stmt 0
 658 041c 130504FB 		addi	a0,s0,-80
 659              	.LVL50:
 660 0420 97000000 		call	_ZN3abi8sys_callEPv@plt
 660      E7800000 
 661              	.LVL51:
 223:src/syscall_c.cpp ****     return;
 662              		.loc 1 223 5 is_stmt 1
 224:src/syscall_c.cpp **** }
 663              		.loc 1 224 1 is_stmt 0
 664 0428 83308104 		ld	ra,72(sp)
 665              		.cfi_restore 1
 666 042c 03340104 		ld	s0,64(sp)
 667              		.cfi_restore 8
 668              		.cfi_def_cfa 2, 80
 669 0430 13010105 		addi	sp,sp,80
 670              		.cfi_def_cfa_offset 0
 671 0434 67800000 		jr	ra
 672              		.cfi_endproc
 673              	.LFE49:
 675              		.align	2
 676              		.globl	put_in_scheduler
 678              	put_in_scheduler:
 679              	.LFB50:
 225:src/syscall_c.cpp **** 
 226:src/syscall_c.cpp **** void put_in_scheduler(thread_t tcb) {
 680              		.loc 1 226 37 is_stmt 1
 681              		.cfi_startproc
 682              	.LVL52:
 683 0438 130101FB 		addi	sp,sp,-80
 684              		.cfi_def_cfa_offset 80
 685 043c 23341104 		sd	ra,72(sp)
 686 0440 23308104 		sd	s0,64(sp)
 687              		.cfi_offset 1, -8
GAS LISTING /tmp/ccrAcWjD.s 			page 17


 688              		.cfi_offset 8, -16
 689 0444 13040105 		addi	s0,sp,80
 690              		.cfi_def_cfa 8, 0
 227:src/syscall_c.cpp ****     // kod sistemskog poziva
 228:src/syscall_c.cpp ****     uint64 a0 = 0x50;
 691              		.loc 1 228 5
 692              	.LVL53:
 229:src/syscall_c.cpp **** 
 230:src/syscall_c.cpp ****     // parametri
 231:src/syscall_c.cpp ****     uint64 a1, a2, a3, a4, a5, a6, a7;
 693              		.loc 1 231 5
 232:src/syscall_c.cpp ****     a1 = (uint64)tcb;
 694              		.loc 1 232 5
 233:src/syscall_c.cpp ****     a2 = a3 = a4 = a5 = a6 = a7 = 0;
 695              		.loc 1 233 5
 234:src/syscall_c.cpp **** 
 235:src/syscall_c.cpp ****     // void* pokazivac
 236:src/syscall_c.cpp ****     uint64 empty[8]= {a0, a1, a2, a3, a4, a5, a6, a7};
 696              		.loc 1 236 5
 697              		.loc 1 236 53 is_stmt 0
 698 0448 93070005 		li	a5,80
 699 044c 2338F4FA 		sd	a5,-80(s0)
 700 0450 233CA4FA 		sd	a0,-72(s0)
 701 0454 233004FC 		sd	zero,-64(s0)
 702 0458 233404FC 		sd	zero,-56(s0)
 703 045c 233804FC 		sd	zero,-48(s0)
 704 0460 233C04FC 		sd	zero,-40(s0)
 705 0464 233004FE 		sd	zero,-32(s0)
 706 0468 233404FE 		sd	zero,-24(s0)
 237:src/syscall_c.cpp **** 
 238:src/syscall_c.cpp ****     // sistemski poziv
 239:src/syscall_c.cpp ****     abi::sys_call(reinterpret_cast<void *>(empty));
 707              		.loc 1 239 5 is_stmt 1
 708              		.loc 1 239 18 is_stmt 0
 709 046c 130504FB 		addi	a0,s0,-80
 710              	.LVL54:
 711 0470 97000000 		call	_ZN3abi8sys_callEPv@plt
 711      E7800000 
 712              	.LVL55:
 240:src/syscall_c.cpp ****     return;
 713              		.loc 1 240 5 is_stmt 1
 241:src/syscall_c.cpp **** }
 714              		.loc 1 241 1 is_stmt 0
 715 0478 83308104 		ld	ra,72(sp)
 716              		.cfi_restore 1
 717 047c 03340104 		ld	s0,64(sp)
 718              		.cfi_restore 8
 719              		.cfi_def_cfa 2, 80
 720 0480 13010105 		addi	sp,sp,80
 721              		.cfi_def_cfa_offset 0
 722 0484 67800000 		jr	ra
 723              		.cfi_endproc
 724              	.LFE50:
 726              		.align	2
 727              		.globl	switch_to_user
 729              	switch_to_user:
 730              	.LFB51:
GAS LISTING /tmp/ccrAcWjD.s 			page 18


 242:src/syscall_c.cpp **** 
 243:src/syscall_c.cpp **** void switch_to_user() {
 731              		.loc 1 243 23 is_stmt 1
 732              		.cfi_startproc
 733 0488 130101FB 		addi	sp,sp,-80
 734              		.cfi_def_cfa_offset 80
 735 048c 23341104 		sd	ra,72(sp)
 736 0490 23308104 		sd	s0,64(sp)
 737              		.cfi_offset 1, -8
 738              		.cfi_offset 8, -16
 739 0494 13040105 		addi	s0,sp,80
 740              		.cfi_def_cfa 8, 0
 244:src/syscall_c.cpp ****     // kod sistemskog poziva
 245:src/syscall_c.cpp ****     uint64 a0 = 0x60;
 741              		.loc 1 245 5
 742              	.LVL56:
 246:src/syscall_c.cpp **** 
 247:src/syscall_c.cpp ****     // parametri
 248:src/syscall_c.cpp ****     uint64 a1, a2, a3, a4, a5, a6, a7;
 743              		.loc 1 248 5
 249:src/syscall_c.cpp ****     a1 = a2 = a3 = a4 = a5 = a6 = a7 = 0;
 744              		.loc 1 249 5
 250:src/syscall_c.cpp **** 
 251:src/syscall_c.cpp ****     // void* pokazivac
 252:src/syscall_c.cpp ****     uint64 empty[8]= {a0, a1, a2, a3, a4, a5, a6, a7};
 745              		.loc 1 252 5
 746              		.loc 1 252 53 is_stmt 0
 747 0498 93070006 		li	a5,96
 748 049c 2338F4FA 		sd	a5,-80(s0)
 749 04a0 233C04FA 		sd	zero,-72(s0)
 750 04a4 233004FC 		sd	zero,-64(s0)
 751 04a8 233404FC 		sd	zero,-56(s0)
 752 04ac 233804FC 		sd	zero,-48(s0)
 753 04b0 233C04FC 		sd	zero,-40(s0)
 754 04b4 233004FE 		sd	zero,-32(s0)
 755 04b8 233404FE 		sd	zero,-24(s0)
 253:src/syscall_c.cpp **** 
 254:src/syscall_c.cpp ****     // sistemski poziv
 255:src/syscall_c.cpp ****     abi::sys_call(reinterpret_cast<void *>(empty));
 756              		.loc 1 255 5 is_stmt 1
 757              		.loc 1 255 18 is_stmt 0
 758 04bc 130504FB 		addi	a0,s0,-80
 759 04c0 97000000 		call	_ZN3abi8sys_callEPv@plt
 759      E7800000 
 760              	.LVL57:
 256:src/syscall_c.cpp ****     return;
 761              		.loc 1 256 5 is_stmt 1
 257:src/syscall_c.cpp **** }
 762              		.loc 1 257 1 is_stmt 0
 763 04c8 83308104 		ld	ra,72(sp)
 764              		.cfi_restore 1
 765 04cc 03340104 		ld	s0,64(sp)
 766              		.cfi_restore 8
 767              		.cfi_def_cfa 2, 80
 768 04d0 13010105 		addi	sp,sp,80
 769              		.cfi_def_cfa_offset 0
 770 04d4 67800000 		jr	ra
GAS LISTING /tmp/ccrAcWjD.s 			page 19


 771              		.cfi_endproc
 772              	.LFE51:
 774              		.align	2
 775              		.globl	switch_to_priviledged
 777              	switch_to_priviledged:
 778              	.LFB52:
 258:src/syscall_c.cpp **** 
 259:src/syscall_c.cpp **** void switch_to_priviledged() {
 779              		.loc 1 259 30 is_stmt 1
 780              		.cfi_startproc
 781 04d8 130101FB 		addi	sp,sp,-80
 782              		.cfi_def_cfa_offset 80
 783 04dc 23341104 		sd	ra,72(sp)
 784 04e0 23308104 		sd	s0,64(sp)
 785              		.cfi_offset 1, -8
 786              		.cfi_offset 8, -16
 787 04e4 13040105 		addi	s0,sp,80
 788              		.cfi_def_cfa 8, 0
 260:src/syscall_c.cpp ****     // kod sistemskog poziva
 261:src/syscall_c.cpp ****     uint64 a0 = 0x61;
 789              		.loc 1 261 5
 790              	.LVL58:
 262:src/syscall_c.cpp **** 
 263:src/syscall_c.cpp ****     // parametri
 264:src/syscall_c.cpp ****     uint64 a1, a2, a3, a4, a5, a6, a7;
 791              		.loc 1 264 5
 265:src/syscall_c.cpp ****     a1 = a2 = a3 = a4 = a5 = a6 = a7 = 0;
 792              		.loc 1 265 5
 266:src/syscall_c.cpp **** 
 267:src/syscall_c.cpp ****     // void* pokazivac
 268:src/syscall_c.cpp ****     uint64 empty[8]= {a0, a1, a2, a3, a4, a5, a6, a7};
 793              		.loc 1 268 5
 794              		.loc 1 268 53 is_stmt 0
 795 04e8 93071006 		li	a5,97
 796 04ec 2338F4FA 		sd	a5,-80(s0)
 797 04f0 233C04FA 		sd	zero,-72(s0)
 798 04f4 233004FC 		sd	zero,-64(s0)
 799 04f8 233404FC 		sd	zero,-56(s0)
 800 04fc 233804FC 		sd	zero,-48(s0)
 801 0500 233C04FC 		sd	zero,-40(s0)
 802 0504 233004FE 		sd	zero,-32(s0)
 803 0508 233404FE 		sd	zero,-24(s0)
 269:src/syscall_c.cpp **** 
 270:src/syscall_c.cpp ****     // sistemski poziv
 271:src/syscall_c.cpp ****     abi::sys_call(reinterpret_cast<void *>(empty));
 804              		.loc 1 271 5 is_stmt 1
 805              		.loc 1 271 18 is_stmt 0
 806 050c 130504FB 		addi	a0,s0,-80
 807 0510 97000000 		call	_ZN3abi8sys_callEPv@plt
 807      E7800000 
 808              	.LVL59:
 272:src/syscall_c.cpp ****     return;
 809              		.loc 1 272 5 is_stmt 1
 273:src/syscall_c.cpp **** }
 810              		.loc 1 273 1 is_stmt 0
 811 0518 83308104 		ld	ra,72(sp)
 812              		.cfi_restore 1
GAS LISTING /tmp/ccrAcWjD.s 			page 20


 813 051c 03340104 		ld	s0,64(sp)
 814              		.cfi_restore 8
 815              		.cfi_def_cfa 2, 80
 816 0520 13010105 		addi	sp,sp,80
 817              		.cfi_def_cfa_offset 0
 818 0524 67800000 		jr	ra
 819              		.cfi_endproc
 820              	.LFE52:
 822              		.align	2
 823              		.globl	set_periodic
 825              	set_periodic:
 826              	.LFB53:
 274:src/syscall_c.cpp **** 
 275:src/syscall_c.cpp **** void set_periodic(thread_t periodic_thread) {
 827              		.loc 1 275 45 is_stmt 1
 828              		.cfi_startproc
 829              	.LVL60:
 830 0528 130101FB 		addi	sp,sp,-80
 831              		.cfi_def_cfa_offset 80
 832 052c 23341104 		sd	ra,72(sp)
 833 0530 23308104 		sd	s0,64(sp)
 834              		.cfi_offset 1, -8
 835              		.cfi_offset 8, -16
 836 0534 13040105 		addi	s0,sp,80
 837              		.cfi_def_cfa 8, 0
 276:src/syscall_c.cpp ****     // kod sistemskog poziva
 277:src/syscall_c.cpp ****     uint64 a0 = 0x70;
 838              		.loc 1 277 5
 839              	.LVL61:
 278:src/syscall_c.cpp **** 
 279:src/syscall_c.cpp ****     // parametri
 280:src/syscall_c.cpp ****     uint64 a1, a2, a3, a4, a5, a6, a7;
 840              		.loc 1 280 5
 281:src/syscall_c.cpp ****     a1 = (uint64)periodic_thread;
 841              		.loc 1 281 5
 282:src/syscall_c.cpp ****     a2 = a3 = a4 = a5 = a6 = a7 = 0;
 842              		.loc 1 282 5
 283:src/syscall_c.cpp **** 
 284:src/syscall_c.cpp ****     // void* pokazivac
 285:src/syscall_c.cpp ****     uint64 empty[8]= {a0, a1, a2, a3, a4, a5, a6, a7};
 843              		.loc 1 285 5
 844              		.loc 1 285 53 is_stmt 0
 845 0538 93070007 		li	a5,112
 846 053c 2338F4FA 		sd	a5,-80(s0)
 847 0540 233CA4FA 		sd	a0,-72(s0)
 848 0544 233004FC 		sd	zero,-64(s0)
 849 0548 233404FC 		sd	zero,-56(s0)
 850 054c 233804FC 		sd	zero,-48(s0)
 851 0550 233C04FC 		sd	zero,-40(s0)
 852 0554 233004FE 		sd	zero,-32(s0)
 853 0558 233404FE 		sd	zero,-24(s0)
 286:src/syscall_c.cpp **** 
 287:src/syscall_c.cpp ****     // sistemski poziv
 288:src/syscall_c.cpp ****     abi::sys_call(reinterpret_cast<void *>(empty));
 854              		.loc 1 288 5 is_stmt 1
 855              		.loc 1 288 18 is_stmt 0
 856 055c 130504FB 		addi	a0,s0,-80
GAS LISTING /tmp/ccrAcWjD.s 			page 21


 857              	.LVL62:
 858 0560 97000000 		call	_ZN3abi8sys_callEPv@plt
 858      E7800000 
 859              	.LVL63:
 289:src/syscall_c.cpp ****     return;
 860              		.loc 1 289 5 is_stmt 1
 290:src/syscall_c.cpp **** }
 861              		.loc 1 290 1 is_stmt 0
 862 0568 83308104 		ld	ra,72(sp)
 863              		.cfi_restore 1
 864 056c 03340104 		ld	s0,64(sp)
 865              		.cfi_restore 8
 866              		.cfi_def_cfa 2, 80
 867 0570 13010105 		addi	sp,sp,80
 868              		.cfi_def_cfa_offset 0
 869 0574 67800000 		jr	ra
 870              		.cfi_endproc
 871              	.LFE53:
 873              		.align	2
 874              		.globl	kill
 876              	kill:
 877              	.LFB54:
 291:src/syscall_c.cpp **** 
 292:src/syscall_c.cpp **** void kill(thread_t thread) {
 878              		.loc 1 292 28 is_stmt 1
 879              		.cfi_startproc
 880              	.LVL64:
 881 0578 130101FB 		addi	sp,sp,-80
 882              		.cfi_def_cfa_offset 80
 883 057c 23341104 		sd	ra,72(sp)
 884 0580 23308104 		sd	s0,64(sp)
 885              		.cfi_offset 1, -8
 886              		.cfi_offset 8, -16
 887 0584 13040105 		addi	s0,sp,80
 888              		.cfi_def_cfa 8, 0
 293:src/syscall_c.cpp ****     // kod sistemskog poziva
 294:src/syscall_c.cpp ****     uint64 a0 = 0x111;
 889              		.loc 1 294 5
 890              	.LVL65:
 295:src/syscall_c.cpp **** 
 296:src/syscall_c.cpp ****     // parametri
 297:src/syscall_c.cpp ****     uint64 a1, a2, a3, a4, a5, a6, a7;
 891              		.loc 1 297 5
 298:src/syscall_c.cpp ****     a1 = (uint64)thread;
 892              		.loc 1 298 5
 299:src/syscall_c.cpp ****     a2 = a3 = a4 = a5 = a6 = a7 = 0;
 893              		.loc 1 299 5
 300:src/syscall_c.cpp **** 
 301:src/syscall_c.cpp ****     // void* pokazivac
 302:src/syscall_c.cpp ****     uint64 empty[8]= {a0, a1, a2, a3, a4, a5, a6, a7};
 894              		.loc 1 302 5
 895              		.loc 1 302 53 is_stmt 0
 896 0588 93071011 		li	a5,273
 897 058c 2338F4FA 		sd	a5,-80(s0)
 898 0590 233CA4FA 		sd	a0,-72(s0)
 899 0594 233004FC 		sd	zero,-64(s0)
 900 0598 233404FC 		sd	zero,-56(s0)
GAS LISTING /tmp/ccrAcWjD.s 			page 22


 901 059c 233804FC 		sd	zero,-48(s0)
 902 05a0 233C04FC 		sd	zero,-40(s0)
 903 05a4 233004FE 		sd	zero,-32(s0)
 904 05a8 233404FE 		sd	zero,-24(s0)
 303:src/syscall_c.cpp **** 
 304:src/syscall_c.cpp ****     // sistemski poziv
 305:src/syscall_c.cpp ****     abi::sys_call(reinterpret_cast<void *>(empty));
 905              		.loc 1 305 5 is_stmt 1
 906              		.loc 1 305 18 is_stmt 0
 907 05ac 130504FB 		addi	a0,s0,-80
 908              	.LVL66:
 909 05b0 97000000 		call	_ZN3abi8sys_callEPv@plt
 909      E7800000 
 910              	.LVL67:
 306:src/syscall_c.cpp ****     return;
 911              		.loc 1 306 5 is_stmt 1
 307:src/syscall_c.cpp **** }
 912              		.loc 1 307 1 is_stmt 0
 913 05b8 83308104 		ld	ra,72(sp)
 914              		.cfi_restore 1
 915 05bc 03340104 		ld	s0,64(sp)
 916              		.cfi_restore 8
 917              		.cfi_def_cfa 2, 80
 918 05c0 13010105 		addi	sp,sp,80
 919              		.cfi_def_cfa_offset 0
 920 05c4 67800000 		jr	ra
 921              		.cfi_endproc
 922              	.LFE54:
 924              	.Letext0:
 925              		.file 2 "src/../h/../h/../h/../lib/hw.h"
 926              		.file 3 "src/../h/syscall_c.h"
GAS LISTING /tmp/ccrAcWjD.s 			page 23


DEFINED SYMBOLS
                            *ABS*:0000000000000000 syscall_c.cpp
     /tmp/ccrAcWjD.s:9      .text:0000000000000000 mem_alloc
     /tmp/ccrAcWjD.s:13     .text:0000000000000000 .L0 
     /tmp/ccrAcWjD.s:15     .text:0000000000000000 .L0 
     /tmp/ccrAcWjD.s:16     .text:0000000000000004 .L0 
     /tmp/ccrAcWjD.s:19     .text:000000000000000c .L0 
     /tmp/ccrAcWjD.s:20     .text:000000000000000c .L0 
     /tmp/ccrAcWjD.s:22     .text:0000000000000010 .L0 
     /tmp/ccrAcWjD.s:24     .text:0000000000000010 .L0 
     /tmp/ccrAcWjD.s:25     .text:0000000000000010 .L0 
     /tmp/ccrAcWjD.s:28     .text:0000000000000014 .L0 
     /tmp/ccrAcWjD.s:31     .text:0000000000000018 .L0 
     /tmp/ccrAcWjD.s:32     .text:0000000000000018 .L0 
     /tmp/ccrAcWjD.s:33     .text:0000000000000018 .L0 
     /tmp/ccrAcWjD.s:34     .text:0000000000000018 .L0 
     /tmp/ccrAcWjD.s:35     .text:0000000000000018 .L0 
     /tmp/ccrAcWjD.s:36     .text:0000000000000018 .L0 
     /tmp/ccrAcWjD.s:37     .text:0000000000000018 .L0 
     /tmp/ccrAcWjD.s:38     .text:0000000000000018 .L0 
     /tmp/ccrAcWjD.s:39     .text:0000000000000018 .L0 
     /tmp/ccrAcWjD.s:40     .text:0000000000000018 .L0 
     /tmp/ccrAcWjD.s:50     .text:000000000000003c .L0 
     /tmp/ccrAcWjD.s:51     .text:000000000000003c .L0 
     /tmp/ccrAcWjD.s:56     .text:0000000000000048 .L0 
     /tmp/ccrAcWjD.s:57     .text:000000000000004c .L0 
     /tmp/ccrAcWjD.s:59     .text:0000000000000050 .L0 
     /tmp/ccrAcWjD.s:60     .text:0000000000000050 .L0 
     /tmp/ccrAcWjD.s:62     .text:0000000000000054 .L0 
     /tmp/ccrAcWjD.s:64     .text:0000000000000058 .L0 
     /tmp/ccrAcWjD.s:70     .text:0000000000000058 mem_free
     /tmp/ccrAcWjD.s:73     .text:0000000000000058 .L0 
     /tmp/ccrAcWjD.s:75     .text:0000000000000058 .L0 
     /tmp/ccrAcWjD.s:76     .text:000000000000005c .L0 
     /tmp/ccrAcWjD.s:79     .text:0000000000000064 .L0 
     /tmp/ccrAcWjD.s:80     .text:0000000000000064 .L0 
     /tmp/ccrAcWjD.s:82     .text:0000000000000068 .L0 
     /tmp/ccrAcWjD.s:85     .text:0000000000000068 .L0 
     /tmp/ccrAcWjD.s:86     .text:0000000000000068 .L0 
     /tmp/ccrAcWjD.s:87     .text:0000000000000068 .L0 
     /tmp/ccrAcWjD.s:88     .text:0000000000000068 .L0 
     /tmp/ccrAcWjD.s:89     .text:0000000000000068 .L0 
     /tmp/ccrAcWjD.s:90     .text:0000000000000068 .L0 
     /tmp/ccrAcWjD.s:91     .text:0000000000000068 .L0 
     /tmp/ccrAcWjD.s:92     .text:0000000000000068 .L0 
     /tmp/ccrAcWjD.s:93     .text:0000000000000068 .L0 
     /tmp/ccrAcWjD.s:94     .text:0000000000000068 .L0 
     /tmp/ccrAcWjD.s:104    .text:000000000000008c .L0 
     /tmp/ccrAcWjD.s:105    .text:000000000000008c .L0 
     /tmp/ccrAcWjD.s:110    .text:0000000000000098 .L0 
     /tmp/ccrAcWjD.s:112    .text:00000000000000a0 .L0 
     /tmp/ccrAcWjD.s:114    .text:00000000000000a4 .L0 
     /tmp/ccrAcWjD.s:115    .text:00000000000000a4 .L0 
     /tmp/ccrAcWjD.s:117    .text:00000000000000a8 .L0 
     /tmp/ccrAcWjD.s:119    .text:00000000000000ac .L0 
     /tmp/ccrAcWjD.s:125    .text:00000000000000ac thread_create
     /tmp/ccrAcWjD.s:128    .text:00000000000000ac .L0 
GAS LISTING /tmp/ccrAcWjD.s 			page 24


     /tmp/ccrAcWjD.s:130    .text:00000000000000ac .L0 
     /tmp/ccrAcWjD.s:131    .text:00000000000000b0 .L0 
     /tmp/ccrAcWjD.s:137    .text:00000000000000c4 .L0 
     /tmp/ccrAcWjD.s:138    .text:00000000000000c4 .L0 
     /tmp/ccrAcWjD.s:139    .text:00000000000000c4 .L0 
     /tmp/ccrAcWjD.s:140    .text:00000000000000c4 .L0 
     /tmp/ccrAcWjD.s:141    .text:00000000000000c4 .L0 
     /tmp/ccrAcWjD.s:143    .text:00000000000000c8 .L0 
     /tmp/ccrAcWjD.s:148    .text:00000000000000d4 .L0 
     /tmp/ccrAcWjD.s:149    .text:00000000000000d4 .L0 
     /tmp/ccrAcWjD.s:151    .text:00000000000000d8 .L0 
     /tmp/ccrAcWjD.s:157    .text:00000000000000e4 .L0 
     /tmp/ccrAcWjD.s:158    .text:00000000000000e4 .L0 
     /tmp/ccrAcWjD.s:159    .text:00000000000000e4 .L0 
     /tmp/ccrAcWjD.s:160    .text:00000000000000e4 .L0 
     /tmp/ccrAcWjD.s:161    .text:00000000000000e4 .L0 
     /tmp/ccrAcWjD.s:162    .text:00000000000000e4 .L0 
     /tmp/ccrAcWjD.s:163    .text:00000000000000e4 .L0 
     /tmp/ccrAcWjD.s:164    .text:00000000000000e4 .L0 
     /tmp/ccrAcWjD.s:165    .text:00000000000000e4 .L0 
     /tmp/ccrAcWjD.s:176    .text:000000000000010c .L0 
     /tmp/ccrAcWjD.s:177    .text:000000000000010c .L0 
     /tmp/ccrAcWjD.s:182    .text:0000000000000118 .L0 
     /tmp/ccrAcWjD.s:184    .text:0000000000000120 .L0 
     /tmp/ccrAcWjD.s:185    .text:0000000000000120 .L0 
     /tmp/ccrAcWjD.s:187    .text:0000000000000124 .L0 
     /tmp/ccrAcWjD.s:188    .text:0000000000000124 .L0 
     /tmp/ccrAcWjD.s:190    .text:0000000000000128 .L0 
     /tmp/ccrAcWjD.s:193    .text:000000000000012c .L0 
     /tmp/ccrAcWjD.s:196    .text:0000000000000130 .L0 
     /tmp/ccrAcWjD.s:199    .text:0000000000000134 .L0 
     /tmp/ccrAcWjD.s:203    .text:0000000000000138 .L0 
     /tmp/ccrAcWjD.s:205    .text:0000000000000138 .L0 
     /tmp/ccrAcWjD.s:208    .text:0000000000000140 .L0 
     /tmp/ccrAcWjD.s:214    .text:0000000000000140 thread_dispatch
     /tmp/ccrAcWjD.s:217    .text:0000000000000140 .L0 
     /tmp/ccrAcWjD.s:218    .text:0000000000000140 .L0 
     /tmp/ccrAcWjD.s:219    .text:0000000000000144 .L0 
     /tmp/ccrAcWjD.s:222    .text:000000000000014c .L0 
     /tmp/ccrAcWjD.s:223    .text:000000000000014c .L0 
     /tmp/ccrAcWjD.s:225    .text:0000000000000150 .L0 
     /tmp/ccrAcWjD.s:228    .text:0000000000000150 .L0 
     /tmp/ccrAcWjD.s:229    .text:0000000000000150 .L0 
     /tmp/ccrAcWjD.s:230    .text:0000000000000150 .L0 
     /tmp/ccrAcWjD.s:231    .text:0000000000000150 .L0 
     /tmp/ccrAcWjD.s:232    .text:0000000000000150 .L0 
     /tmp/ccrAcWjD.s:242    .text:0000000000000174 .L0 
     /tmp/ccrAcWjD.s:243    .text:0000000000000174 .L0 
     /tmp/ccrAcWjD.s:247    .text:0000000000000180 .L0 
     /tmp/ccrAcWjD.s:248    .text:0000000000000180 .L0 
     /tmp/ccrAcWjD.s:249    .text:0000000000000184 .L0 
     /tmp/ccrAcWjD.s:251    .text:0000000000000188 .L0 
     /tmp/ccrAcWjD.s:252    .text:0000000000000188 .L0 
     /tmp/ccrAcWjD.s:254    .text:000000000000018c .L0 
     /tmp/ccrAcWjD.s:256    .text:0000000000000190 .L0 
     /tmp/ccrAcWjD.s:262    .text:0000000000000190 thread_exit
     /tmp/ccrAcWjD.s:265    .text:0000000000000190 .L0 
GAS LISTING /tmp/ccrAcWjD.s 			page 25


     /tmp/ccrAcWjD.s:266    .text:0000000000000190 .L0 
     /tmp/ccrAcWjD.s:267    .text:0000000000000194 .L0 
     /tmp/ccrAcWjD.s:270    .text:000000000000019c .L0 
     /tmp/ccrAcWjD.s:271    .text:000000000000019c .L0 
     /tmp/ccrAcWjD.s:273    .text:00000000000001a0 .L0 
     /tmp/ccrAcWjD.s:276    .text:00000000000001a0 .L0 
     /tmp/ccrAcWjD.s:277    .text:00000000000001a0 .L0 
     /tmp/ccrAcWjD.s:278    .text:00000000000001a0 .L0 
     /tmp/ccrAcWjD.s:279    .text:00000000000001a0 .L0 
     /tmp/ccrAcWjD.s:280    .text:00000000000001a0 .L0 
     /tmp/ccrAcWjD.s:290    .text:00000000000001c4 .L0 
     /tmp/ccrAcWjD.s:291    .text:00000000000001c4 .L0 
     /tmp/ccrAcWjD.s:295    .text:00000000000001d0 .L0 
     /tmp/ccrAcWjD.s:297    .text:00000000000001d8 .L0 
     /tmp/ccrAcWjD.s:299    .text:00000000000001dc .L0 
     /tmp/ccrAcWjD.s:300    .text:00000000000001dc .L0 
     /tmp/ccrAcWjD.s:302    .text:00000000000001e0 .L0 
     /tmp/ccrAcWjD.s:304    .text:00000000000001e4 .L0 
     /tmp/ccrAcWjD.s:310    .text:00000000000001e4 time_sleep
     /tmp/ccrAcWjD.s:313    .text:00000000000001e4 .L0 
     /tmp/ccrAcWjD.s:315    .text:00000000000001e4 .L0 
     /tmp/ccrAcWjD.s:316    .text:00000000000001e4 .L0 
     /tmp/ccrAcWjD.s:318    .text:00000000000001e8 .L0 
     /tmp/ccrAcWjD.s:321    .text:00000000000001ec .L0 
     /tmp/ccrAcWjD.s:325    .text:00000000000001f0 .L0 
     /tmp/ccrAcWjD.s:326    .text:00000000000001f4 .L0 
     /tmp/ccrAcWjD.s:329    .text:00000000000001fc .L0 
     /tmp/ccrAcWjD.s:330    .text:00000000000001fc .L0 
     /tmp/ccrAcWjD.s:332    .text:0000000000000200 .L0 
     /tmp/ccrAcWjD.s:335    .text:0000000000000200 .L0 
     /tmp/ccrAcWjD.s:336    .text:0000000000000200 .L0 
     /tmp/ccrAcWjD.s:337    .text:0000000000000200 .L0 
     /tmp/ccrAcWjD.s:338    .text:0000000000000200 .L0 
     /tmp/ccrAcWjD.s:339    .text:0000000000000200 .L0 
     /tmp/ccrAcWjD.s:340    .text:0000000000000200 .L0 
     /tmp/ccrAcWjD.s:350    .text:0000000000000224 .L0 
     /tmp/ccrAcWjD.s:351    .text:0000000000000224 .L0 
     /tmp/ccrAcWjD.s:356    .text:0000000000000230 .L0 
     /tmp/ccrAcWjD.s:358    .text:0000000000000234 .L0 
     /tmp/ccrAcWjD.s:359    .text:0000000000000238 .L0 
     /tmp/ccrAcWjD.s:361    .text:000000000000023c .L0 
     /tmp/ccrAcWjD.s:362    .text:000000000000023c .L0 
     /tmp/ccrAcWjD.s:364    .text:0000000000000240 .L0 
     /tmp/ccrAcWjD.s:366    .text:0000000000000244 .L0 
     /tmp/ccrAcWjD.s:372    .text:0000000000000244 sem_open
     /tmp/ccrAcWjD.s:375    .text:0000000000000244 .L0 
     /tmp/ccrAcWjD.s:377    .text:0000000000000244 .L0 
     /tmp/ccrAcWjD.s:378    .text:0000000000000248 .L0 
     /tmp/ccrAcWjD.s:381    .text:0000000000000250 .L0 
     /tmp/ccrAcWjD.s:382    .text:0000000000000250 .L0 
     /tmp/ccrAcWjD.s:384    .text:0000000000000254 .L0 
     /tmp/ccrAcWjD.s:387    .text:0000000000000254 .L0 
     /tmp/ccrAcWjD.s:388    .text:0000000000000254 .L0 
     /tmp/ccrAcWjD.s:389    .text:0000000000000254 .L0 
     /tmp/ccrAcWjD.s:390    .text:0000000000000254 .L0 
     /tmp/ccrAcWjD.s:391    .text:0000000000000254 .L0 
     /tmp/ccrAcWjD.s:392    .text:0000000000000254 .L0 
GAS LISTING /tmp/ccrAcWjD.s 			page 26


     /tmp/ccrAcWjD.s:393    .text:0000000000000254 .L0 
     /tmp/ccrAcWjD.s:403    .text:0000000000000278 .L0 
     /tmp/ccrAcWjD.s:404    .text:0000000000000278 .L0 
     /tmp/ccrAcWjD.s:409    .text:0000000000000284 .L0 
     /tmp/ccrAcWjD.s:411    .text:000000000000028c .L0 
     /tmp/ccrAcWjD.s:413    .text:0000000000000290 .L0 
     /tmp/ccrAcWjD.s:414    .text:0000000000000290 .L0 
     /tmp/ccrAcWjD.s:416    .text:0000000000000294 .L0 
     /tmp/ccrAcWjD.s:418    .text:0000000000000298 .L0 
     /tmp/ccrAcWjD.s:424    .text:0000000000000298 sem_close
     /tmp/ccrAcWjD.s:427    .text:0000000000000298 .L0 
     /tmp/ccrAcWjD.s:429    .text:0000000000000298 .L0 
     /tmp/ccrAcWjD.s:430    .text:000000000000029c .L0 
     /tmp/ccrAcWjD.s:433    .text:00000000000002a4 .L0 
     /tmp/ccrAcWjD.s:434    .text:00000000000002a4 .L0 
     /tmp/ccrAcWjD.s:436    .text:00000000000002a8 .L0 
     /tmp/ccrAcWjD.s:439    .text:00000000000002a8 .L0 
     /tmp/ccrAcWjD.s:440    .text:00000000000002a8 .L0 
     /tmp/ccrAcWjD.s:441    .text:00000000000002a8 .L0 
     /tmp/ccrAcWjD.s:442    .text:00000000000002a8 .L0 
     /tmp/ccrAcWjD.s:443    .text:00000000000002a8 .L0 
     /tmp/ccrAcWjD.s:444    .text:00000000000002a8 .L0 
     /tmp/ccrAcWjD.s:454    .text:00000000000002cc .L0 
     /tmp/ccrAcWjD.s:455    .text:00000000000002cc .L0 
     /tmp/ccrAcWjD.s:460    .text:00000000000002d8 .L0 
     /tmp/ccrAcWjD.s:462    .text:00000000000002e0 .L0 
     /tmp/ccrAcWjD.s:464    .text:00000000000002e4 .L0 
     /tmp/ccrAcWjD.s:465    .text:00000000000002e4 .L0 
     /tmp/ccrAcWjD.s:467    .text:00000000000002e8 .L0 
     /tmp/ccrAcWjD.s:469    .text:00000000000002ec .L0 
     /tmp/ccrAcWjD.s:475    .text:00000000000002ec sem_wait
     /tmp/ccrAcWjD.s:478    .text:00000000000002ec .L0 
     /tmp/ccrAcWjD.s:480    .text:00000000000002ec .L0 
     /tmp/ccrAcWjD.s:481    .text:00000000000002f0 .L0 
     /tmp/ccrAcWjD.s:484    .text:00000000000002f8 .L0 
     /tmp/ccrAcWjD.s:485    .text:00000000000002f8 .L0 
     /tmp/ccrAcWjD.s:487    .text:00000000000002fc .L0 
     /tmp/ccrAcWjD.s:490    .text:00000000000002fc .L0 
     /tmp/ccrAcWjD.s:491    .text:00000000000002fc .L0 
     /tmp/ccrAcWjD.s:492    .text:00000000000002fc .L0 
     /tmp/ccrAcWjD.s:493    .text:00000000000002fc .L0 
     /tmp/ccrAcWjD.s:494    .text:00000000000002fc .L0 
     /tmp/ccrAcWjD.s:495    .text:00000000000002fc .L0 
     /tmp/ccrAcWjD.s:505    .text:0000000000000320 .L0 
     /tmp/ccrAcWjD.s:506    .text:0000000000000320 .L0 
     /tmp/ccrAcWjD.s:511    .text:000000000000032c .L0 
     /tmp/ccrAcWjD.s:513    .text:0000000000000334 .L0 
     /tmp/ccrAcWjD.s:515    .text:0000000000000338 .L0 
     /tmp/ccrAcWjD.s:516    .text:0000000000000338 .L0 
     /tmp/ccrAcWjD.s:518    .text:000000000000033c .L0 
     /tmp/ccrAcWjD.s:520    .text:0000000000000340 .L0 
     /tmp/ccrAcWjD.s:526    .text:0000000000000340 sem_signal
     /tmp/ccrAcWjD.s:529    .text:0000000000000340 .L0 
     /tmp/ccrAcWjD.s:531    .text:0000000000000340 .L0 
     /tmp/ccrAcWjD.s:532    .text:0000000000000344 .L0 
     /tmp/ccrAcWjD.s:535    .text:000000000000034c .L0 
     /tmp/ccrAcWjD.s:536    .text:000000000000034c .L0 
GAS LISTING /tmp/ccrAcWjD.s 			page 27


     /tmp/ccrAcWjD.s:538    .text:0000000000000350 .L0 
     /tmp/ccrAcWjD.s:541    .text:0000000000000350 .L0 
     /tmp/ccrAcWjD.s:542    .text:0000000000000350 .L0 
     /tmp/ccrAcWjD.s:543    .text:0000000000000350 .L0 
     /tmp/ccrAcWjD.s:544    .text:0000000000000350 .L0 
     /tmp/ccrAcWjD.s:545    .text:0000000000000350 .L0 
     /tmp/ccrAcWjD.s:546    .text:0000000000000350 .L0 
     /tmp/ccrAcWjD.s:556    .text:0000000000000374 .L0 
     /tmp/ccrAcWjD.s:557    .text:0000000000000374 .L0 
     /tmp/ccrAcWjD.s:562    .text:0000000000000380 .L0 
     /tmp/ccrAcWjD.s:564    .text:0000000000000388 .L0 
     /tmp/ccrAcWjD.s:566    .text:000000000000038c .L0 
     /tmp/ccrAcWjD.s:567    .text:000000000000038c .L0 
     /tmp/ccrAcWjD.s:569    .text:0000000000000390 .L0 
     /tmp/ccrAcWjD.s:571    .text:0000000000000394 .L0 
     /tmp/ccrAcWjD.s:577    .text:0000000000000394 getc
     /tmp/ccrAcWjD.s:580    .text:0000000000000394 .L0 
     /tmp/ccrAcWjD.s:581    .text:0000000000000394 .L0 
     /tmp/ccrAcWjD.s:582    .text:0000000000000398 .L0 
     /tmp/ccrAcWjD.s:585    .text:00000000000003a0 .L0 
     /tmp/ccrAcWjD.s:586    .text:00000000000003a0 .L0 
     /tmp/ccrAcWjD.s:588    .text:00000000000003a4 .L0 
     /tmp/ccrAcWjD.s:591    .text:00000000000003a4 .L0 
     /tmp/ccrAcWjD.s:592    .text:00000000000003a4 .L0 
     /tmp/ccrAcWjD.s:593    .text:00000000000003a4 .L0 
     /tmp/ccrAcWjD.s:594    .text:00000000000003a4 .L0 
     /tmp/ccrAcWjD.s:595    .text:00000000000003a4 .L0 
     /tmp/ccrAcWjD.s:605    .text:00000000000003c8 .L0 
     /tmp/ccrAcWjD.s:606    .text:00000000000003c8 .L0 
     /tmp/ccrAcWjD.s:610    .text:00000000000003d4 .L0 
     /tmp/ccrAcWjD.s:611    .text:00000000000003d4 .L0 
     /tmp/ccrAcWjD.s:614    .text:00000000000003dc .L0 
     /tmp/ccrAcWjD.s:616    .text:00000000000003e0 .L0 
     /tmp/ccrAcWjD.s:617    .text:00000000000003e0 .L0 
     /tmp/ccrAcWjD.s:619    .text:00000000000003e4 .L0 
     /tmp/ccrAcWjD.s:621    .text:00000000000003e8 .L0 
     /tmp/ccrAcWjD.s:627    .text:00000000000003e8 putc
     /tmp/ccrAcWjD.s:630    .text:00000000000003e8 .L0 
     /tmp/ccrAcWjD.s:632    .text:00000000000003e8 .L0 
     /tmp/ccrAcWjD.s:633    .text:00000000000003ec .L0 
     /tmp/ccrAcWjD.s:636    .text:00000000000003f4 .L0 
     /tmp/ccrAcWjD.s:637    .text:00000000000003f4 .L0 
     /tmp/ccrAcWjD.s:639    .text:00000000000003f8 .L0 
     /tmp/ccrAcWjD.s:642    .text:00000000000003f8 .L0 
     /tmp/ccrAcWjD.s:643    .text:00000000000003f8 .L0 
     /tmp/ccrAcWjD.s:644    .text:00000000000003f8 .L0 
     /tmp/ccrAcWjD.s:645    .text:00000000000003f8 .L0 
     /tmp/ccrAcWjD.s:646    .text:00000000000003f8 .L0 
     /tmp/ccrAcWjD.s:647    .text:00000000000003f8 .L0 
     /tmp/ccrAcWjD.s:657    .text:000000000000041c .L0 
     /tmp/ccrAcWjD.s:658    .text:000000000000041c .L0 
     /tmp/ccrAcWjD.s:663    .text:0000000000000428 .L0 
     /tmp/ccrAcWjD.s:664    .text:0000000000000428 .L0 
     /tmp/ccrAcWjD.s:665    .text:000000000000042c .L0 
     /tmp/ccrAcWjD.s:667    .text:0000000000000430 .L0 
     /tmp/ccrAcWjD.s:668    .text:0000000000000430 .L0 
     /tmp/ccrAcWjD.s:670    .text:0000000000000434 .L0 
GAS LISTING /tmp/ccrAcWjD.s 			page 28


     /tmp/ccrAcWjD.s:672    .text:0000000000000438 .L0 
     /tmp/ccrAcWjD.s:678    .text:0000000000000438 put_in_scheduler
     /tmp/ccrAcWjD.s:681    .text:0000000000000438 .L0 
     /tmp/ccrAcWjD.s:683    .text:0000000000000438 .L0 
     /tmp/ccrAcWjD.s:684    .text:000000000000043c .L0 
     /tmp/ccrAcWjD.s:687    .text:0000000000000444 .L0 
     /tmp/ccrAcWjD.s:688    .text:0000000000000444 .L0 
     /tmp/ccrAcWjD.s:690    .text:0000000000000448 .L0 
     /tmp/ccrAcWjD.s:693    .text:0000000000000448 .L0 
     /tmp/ccrAcWjD.s:694    .text:0000000000000448 .L0 
     /tmp/ccrAcWjD.s:695    .text:0000000000000448 .L0 
     /tmp/ccrAcWjD.s:696    .text:0000000000000448 .L0 
     /tmp/ccrAcWjD.s:697    .text:0000000000000448 .L0 
     /tmp/ccrAcWjD.s:698    .text:0000000000000448 .L0 
     /tmp/ccrAcWjD.s:708    .text:000000000000046c .L0 
     /tmp/ccrAcWjD.s:709    .text:000000000000046c .L0 
     /tmp/ccrAcWjD.s:714    .text:0000000000000478 .L0 
     /tmp/ccrAcWjD.s:715    .text:0000000000000478 .L0 
     /tmp/ccrAcWjD.s:716    .text:000000000000047c .L0 
     /tmp/ccrAcWjD.s:718    .text:0000000000000480 .L0 
     /tmp/ccrAcWjD.s:719    .text:0000000000000480 .L0 
     /tmp/ccrAcWjD.s:721    .text:0000000000000484 .L0 
     /tmp/ccrAcWjD.s:723    .text:0000000000000488 .L0 
     /tmp/ccrAcWjD.s:729    .text:0000000000000488 switch_to_user
     /tmp/ccrAcWjD.s:732    .text:0000000000000488 .L0 
     /tmp/ccrAcWjD.s:733    .text:0000000000000488 .L0 
     /tmp/ccrAcWjD.s:734    .text:000000000000048c .L0 
     /tmp/ccrAcWjD.s:737    .text:0000000000000494 .L0 
     /tmp/ccrAcWjD.s:738    .text:0000000000000494 .L0 
     /tmp/ccrAcWjD.s:740    .text:0000000000000498 .L0 
     /tmp/ccrAcWjD.s:743    .text:0000000000000498 .L0 
     /tmp/ccrAcWjD.s:744    .text:0000000000000498 .L0 
     /tmp/ccrAcWjD.s:745    .text:0000000000000498 .L0 
     /tmp/ccrAcWjD.s:746    .text:0000000000000498 .L0 
     /tmp/ccrAcWjD.s:747    .text:0000000000000498 .L0 
     /tmp/ccrAcWjD.s:757    .text:00000000000004bc .L0 
     /tmp/ccrAcWjD.s:758    .text:00000000000004bc .L0 
     /tmp/ccrAcWjD.s:762    .text:00000000000004c8 .L0 
     /tmp/ccrAcWjD.s:763    .text:00000000000004c8 .L0 
     /tmp/ccrAcWjD.s:764    .text:00000000000004cc .L0 
     /tmp/ccrAcWjD.s:766    .text:00000000000004d0 .L0 
     /tmp/ccrAcWjD.s:767    .text:00000000000004d0 .L0 
     /tmp/ccrAcWjD.s:769    .text:00000000000004d4 .L0 
     /tmp/ccrAcWjD.s:771    .text:00000000000004d8 .L0 
     /tmp/ccrAcWjD.s:777    .text:00000000000004d8 switch_to_priviledged
     /tmp/ccrAcWjD.s:780    .text:00000000000004d8 .L0 
     /tmp/ccrAcWjD.s:781    .text:00000000000004d8 .L0 
     /tmp/ccrAcWjD.s:782    .text:00000000000004dc .L0 
     /tmp/ccrAcWjD.s:785    .text:00000000000004e4 .L0 
     /tmp/ccrAcWjD.s:786    .text:00000000000004e4 .L0 
     /tmp/ccrAcWjD.s:788    .text:00000000000004e8 .L0 
     /tmp/ccrAcWjD.s:791    .text:00000000000004e8 .L0 
     /tmp/ccrAcWjD.s:792    .text:00000000000004e8 .L0 
     /tmp/ccrAcWjD.s:793    .text:00000000000004e8 .L0 
     /tmp/ccrAcWjD.s:794    .text:00000000000004e8 .L0 
     /tmp/ccrAcWjD.s:795    .text:00000000000004e8 .L0 
     /tmp/ccrAcWjD.s:805    .text:000000000000050c .L0 
GAS LISTING /tmp/ccrAcWjD.s 			page 29


     /tmp/ccrAcWjD.s:806    .text:000000000000050c .L0 
     /tmp/ccrAcWjD.s:810    .text:0000000000000518 .L0 
     /tmp/ccrAcWjD.s:811    .text:0000000000000518 .L0 
     /tmp/ccrAcWjD.s:812    .text:000000000000051c .L0 
     /tmp/ccrAcWjD.s:814    .text:0000000000000520 .L0 
     /tmp/ccrAcWjD.s:815    .text:0000000000000520 .L0 
     /tmp/ccrAcWjD.s:817    .text:0000000000000524 .L0 
     /tmp/ccrAcWjD.s:819    .text:0000000000000528 .L0 
     /tmp/ccrAcWjD.s:825    .text:0000000000000528 set_periodic
     /tmp/ccrAcWjD.s:828    .text:0000000000000528 .L0 
     /tmp/ccrAcWjD.s:830    .text:0000000000000528 .L0 
     /tmp/ccrAcWjD.s:831    .text:000000000000052c .L0 
     /tmp/ccrAcWjD.s:834    .text:0000000000000534 .L0 
     /tmp/ccrAcWjD.s:835    .text:0000000000000534 .L0 
     /tmp/ccrAcWjD.s:837    .text:0000000000000538 .L0 
     /tmp/ccrAcWjD.s:840    .text:0000000000000538 .L0 
     /tmp/ccrAcWjD.s:841    .text:0000000000000538 .L0 
     /tmp/ccrAcWjD.s:842    .text:0000000000000538 .L0 
     /tmp/ccrAcWjD.s:843    .text:0000000000000538 .L0 
     /tmp/ccrAcWjD.s:844    .text:0000000000000538 .L0 
     /tmp/ccrAcWjD.s:845    .text:0000000000000538 .L0 
     /tmp/ccrAcWjD.s:855    .text:000000000000055c .L0 
     /tmp/ccrAcWjD.s:856    .text:000000000000055c .L0 
     /tmp/ccrAcWjD.s:861    .text:0000000000000568 .L0 
     /tmp/ccrAcWjD.s:862    .text:0000000000000568 .L0 
     /tmp/ccrAcWjD.s:863    .text:000000000000056c .L0 
     /tmp/ccrAcWjD.s:865    .text:0000000000000570 .L0 
     /tmp/ccrAcWjD.s:866    .text:0000000000000570 .L0 
     /tmp/ccrAcWjD.s:868    .text:0000000000000574 .L0 
     /tmp/ccrAcWjD.s:870    .text:0000000000000578 .L0 
     /tmp/ccrAcWjD.s:876    .text:0000000000000578 kill
     /tmp/ccrAcWjD.s:879    .text:0000000000000578 .L0 
     /tmp/ccrAcWjD.s:881    .text:0000000000000578 .L0 
     /tmp/ccrAcWjD.s:882    .text:000000000000057c .L0 
     /tmp/ccrAcWjD.s:885    .text:0000000000000584 .L0 
     /tmp/ccrAcWjD.s:886    .text:0000000000000584 .L0 
     /tmp/ccrAcWjD.s:888    .text:0000000000000588 .L0 
     /tmp/ccrAcWjD.s:891    .text:0000000000000588 .L0 
     /tmp/ccrAcWjD.s:892    .text:0000000000000588 .L0 
     /tmp/ccrAcWjD.s:893    .text:0000000000000588 .L0 
     /tmp/ccrAcWjD.s:894    .text:0000000000000588 .L0 
     /tmp/ccrAcWjD.s:895    .text:0000000000000588 .L0 
     /tmp/ccrAcWjD.s:896    .text:0000000000000588 .L0 
     /tmp/ccrAcWjD.s:906    .text:00000000000005ac .L0 
     /tmp/ccrAcWjD.s:907    .text:00000000000005ac .L0 
     /tmp/ccrAcWjD.s:912    .text:00000000000005b8 .L0 
     /tmp/ccrAcWjD.s:913    .text:00000000000005b8 .L0 
     /tmp/ccrAcWjD.s:914    .text:00000000000005bc .L0 
     /tmp/ccrAcWjD.s:916    .text:00000000000005c0 .L0 
     /tmp/ccrAcWjD.s:917    .text:00000000000005c0 .L0 
     /tmp/ccrAcWjD.s:919    .text:00000000000005c4 .L0 
     /tmp/ccrAcWjD.s:921    .text:00000000000005c8 .L0 
     /tmp/ccrAcWjD.s:927    .text:00000000000005c8 .L0 
     /tmp/ccrAcWjD.s:202    .text:0000000000000138 .L7
     /tmp/ccrAcWjD.s:155    .text:00000000000000e4 .L6
     /tmp/ccrAcWjD.s:323    .text:00000000000001f0 .L20
     /tmp/ccrAcWjD.s:2714   .debug_abbrev:0000000000000000 .Ldebug_abbrev0
GAS LISTING /tmp/ccrAcWjD.s 			page 30


     /tmp/ccrAcWjD.s:3964   .debug_str:0000000000000243 .LASF52
     /tmp/ccrAcWjD.s:3930   .debug_str:0000000000000185 .LASF53
     /tmp/ccrAcWjD.s:3878   .debug_str:0000000000000023 .LASF54
     /tmp/ccrAcWjD.s:5      .text:0000000000000000 .Ltext0
     /tmp/ccrAcWjD.s:924    .text:00000000000005c8 .Letext0
     /tmp/ccrAcWjD.s:3870   .debug_line:0000000000000000 .Ldebug_line0
     /tmp/ccrAcWjD.s:3908   .debug_str:0000000000000101 .LASF0
     /tmp/ccrAcWjD.s:3920   .debug_str:000000000000014b .LASF1
     /tmp/ccrAcWjD.s:3948   .debug_str:00000000000001eb .LASF2
     /tmp/ccrAcWjD.s:3950   .debug_str:00000000000001f9 .LASF4
     /tmp/ccrAcWjD.s:3912   .debug_str:0000000000000113 .LASF3
     /tmp/ccrAcWjD.s:3876   .debug_str:000000000000001c .LASF5
     /tmp/ccrAcWjD.s:3936   .debug_str:00000000000001af .LASF6
     /tmp/ccrAcWjD.s:3932   .debug_str:0000000000000197 .LASF7
     /tmp/ccrAcWjD.s:3914   .debug_str:0000000000000125 .LASF8
     /tmp/ccrAcWjD.s:3902   .debug_str:00000000000000d8 .LASF9
     /tmp/ccrAcWjD.s:3904   .debug_str:00000000000000e8 .LASF10
     /tmp/ccrAcWjD.s:3888   .debug_str:0000000000000079 .LASF11
     /tmp/ccrAcWjD.s:3968   .debug_str:0000000000000311 .LASF12
     /tmp/ccrAcWjD.s:3900   .debug_str:00000000000000c9 .LASF13
     /tmp/ccrAcWjD.s:3892   .debug_str:000000000000008d .LASF14
     /tmp/ccrAcWjD.s:3886   .debug_str:0000000000000069 .LASF15
     /tmp/ccrAcWjD.s:3958   .debug_str:0000000000000229 .LASF16
     /tmp/ccrAcWjD.s:3898   .debug_str:00000000000000b3 .LASF17
     /tmp/ccrAcWjD.s:3952   .debug_str:0000000000000200 .LASF18
     /tmp/ccrAcWjD.s:3924   .debug_str:000000000000016f .LASF19
     /tmp/ccrAcWjD.s:3974   .debug_str:0000000000000338 .LASF20
     /tmp/ccrAcWjD.s:3880   .debug_str:0000000000000057 .LASF22
     /tmp/ccrAcWjD.s:3978   .debug_str:0000000000000348 .LASF21
     /tmp/ccrAcWjD.s:3954   .debug_str:0000000000000216 .LASF23
     /tmp/ccrAcWjD.s:3890   .debug_str:0000000000000088 .LASF25
     /tmp/ccrAcWjD.s:877    .text:0000000000000578 .LFB54
     /tmp/ccrAcWjD.s:922    .text:00000000000005c8 .LFE54
     /tmp/ccrAcWjD.s:3946   .debug_str:00000000000001e4 .LASF27
     /tmp/ccrAcWjD.s:3229   .debug_loc:0000000000000000 .LLST35
     /tmp/ccrAcWjD.s:3248   .debug_loc:000000000000004e .LLST36
     /tmp/ccrAcWjD.s:3896   .debug_str:00000000000000ad .LASF24
     /tmp/ccrAcWjD.s:910    .text:00000000000005b8 .LVL67
     /tmp/ccrAcWjD.s:3972   .debug_str:000000000000032b .LASF26
     /tmp/ccrAcWjD.s:826    .text:0000000000000528 .LFB53
     /tmp/ccrAcWjD.s:871    .text:0000000000000578 .LFE53
     /tmp/ccrAcWjD.s:3894   .debug_str:000000000000009d .LASF28
     /tmp/ccrAcWjD.s:3267   .debug_loc:000000000000009c .LLST33
     /tmp/ccrAcWjD.s:3286   .debug_loc:00000000000000ea .LLST34
     /tmp/ccrAcWjD.s:859    .text:0000000000000568 .LVL63
     /tmp/ccrAcWjD.s:3872   .debug_str:0000000000000000 .LASF29
     /tmp/ccrAcWjD.s:778    .text:00000000000004d8 .LFB52
     /tmp/ccrAcWjD.s:820    .text:0000000000000528 .LFE52
     /tmp/ccrAcWjD.s:808    .text:0000000000000518 .LVL59
     /tmp/ccrAcWjD.s:3970   .debug_str:000000000000031c .LASF30
     /tmp/ccrAcWjD.s:730    .text:0000000000000488 .LFB51
     /tmp/ccrAcWjD.s:772    .text:00000000000004d8 .LFE51
     /tmp/ccrAcWjD.s:760    .text:00000000000004c8 .LVL57
     /tmp/ccrAcWjD.s:3922   .debug_str:000000000000015e .LASF31
     /tmp/ccrAcWjD.s:679    .text:0000000000000438 .LFB50
     /tmp/ccrAcWjD.s:724    .text:0000000000000488 .LFE50
     /tmp/ccrAcWjD.s:3305   .debug_loc:0000000000000138 .LLST31
GAS LISTING /tmp/ccrAcWjD.s 			page 31


     /tmp/ccrAcWjD.s:3324   .debug_loc:0000000000000186 .LLST32
     /tmp/ccrAcWjD.s:712    .text:0000000000000478 .LVL55
     /tmp/ccrAcWjD.s:3928   .debug_str:0000000000000180 .LASF32
     /tmp/ccrAcWjD.s:628    .text:00000000000003e8 .LFB49
     /tmp/ccrAcWjD.s:673    .text:0000000000000438 .LFE49
     /tmp/ccrAcWjD.s:3343   .debug_loc:00000000000001d4 .LLST29
     /tmp/ccrAcWjD.s:3357   .debug_loc:000000000000020d .LLST30
     /tmp/ccrAcWjD.s:661    .text:0000000000000428 .LVL51
     /tmp/ccrAcWjD.s:3962   .debug_str:000000000000023e .LASF33
     /tmp/ccrAcWjD.s:3910   .debug_str:000000000000010e .LASF34
     /tmp/ccrAcWjD.s:578    .text:0000000000000394 .LFB48
     /tmp/ccrAcWjD.s:622    .text:00000000000003e8 .LFE48
     /tmp/ccrAcWjD.s:3369   .debug_loc:0000000000000245 .LLST28
     /tmp/ccrAcWjD.s:608    .text:00000000000003d4 .LVL46
     /tmp/ccrAcWjD.s:3906   .debug_str:00000000000000f6 .LASF35
     /tmp/ccrAcWjD.s:527    .text:0000000000000340 .LFB47
     /tmp/ccrAcWjD.s:572    .text:0000000000000394 .LFE47
     /tmp/ccrAcWjD.s:3376   .debug_loc:0000000000000268 .LLST26
     /tmp/ccrAcWjD.s:3395   .debug_loc:00000000000002b6 .LLST27
     /tmp/ccrAcWjD.s:560    .text:0000000000000380 .LVL44
     /tmp/ccrAcWjD.s:3980   .debug_str:000000000000034e .LASF36
     /tmp/ccrAcWjD.s:476    .text:00000000000002ec .LFB46
     /tmp/ccrAcWjD.s:521    .text:0000000000000340 .LFE46
     /tmp/ccrAcWjD.s:3414   .debug_loc:0000000000000304 .LLST24
     /tmp/ccrAcWjD.s:3433   .debug_loc:0000000000000352 .LLST25
     /tmp/ccrAcWjD.s:509    .text:000000000000032c .LVL40
     /tmp/ccrAcWjD.s:3938   .debug_str:00000000000001b6 .LASF37
     /tmp/ccrAcWjD.s:425    .text:0000000000000298 .LFB45
     /tmp/ccrAcWjD.s:470    .text:00000000000002ec .LFE45
     /tmp/ccrAcWjD.s:3976   .debug_str:0000000000000341 .LASF38
     /tmp/ccrAcWjD.s:3452   .debug_loc:00000000000003a0 .LLST22
     /tmp/ccrAcWjD.s:3471   .debug_loc:00000000000003ee .LLST23
     /tmp/ccrAcWjD.s:458    .text:00000000000002d8 .LVL36
     /tmp/ccrAcWjD.s:3942   .debug_str:00000000000001d0 .LASF39
     /tmp/ccrAcWjD.s:373    .text:0000000000000244 .LFB44
     /tmp/ccrAcWjD.s:419    .text:0000000000000298 .LFE44
     /tmp/ccrAcWjD.s:3490   .debug_loc:000000000000043c .LLST18
     /tmp/ccrAcWjD.s:3882   .debug_str:000000000000005f .LASF40
     /tmp/ccrAcWjD.s:3509   .debug_loc:000000000000048a .LLST19
     /tmp/ccrAcWjD.s:3523   .debug_loc:00000000000004c3 .LLST20
     /tmp/ccrAcWjD.s:3542   .debug_loc:0000000000000511 .LLST21
     /tmp/ccrAcWjD.s:407    .text:0000000000000284 .LVL32
     /tmp/ccrAcWjD.s:3944   .debug_str:00000000000001d9 .LASF41
     /tmp/ccrAcWjD.s:311    .text:00000000000001e4 .LFB43
     /tmp/ccrAcWjD.s:367    .text:0000000000000244 .LFE43
     /tmp/ccrAcWjD.s:3934   .debug_str:00000000000001aa .LASF42
     /tmp/ccrAcWjD.s:3556   .debug_loc:000000000000054a .LLST16
     /tmp/ccrAcWjD.s:3586   .debug_loc:00000000000005c1 .LLST17
     /tmp/ccrAcWjD.s:354    .text:0000000000000230 .LVL28
     /tmp/ccrAcWjD.s:3926   .debug_str:0000000000000174 .LASF43
     /tmp/ccrAcWjD.s:263    .text:0000000000000190 .LFB42
     /tmp/ccrAcWjD.s:305    .text:00000000000001e4 .LFE42
     /tmp/ccrAcWjD.s:293    .text:00000000000001d0 .LVL22
     /tmp/ccrAcWjD.s:3940   .debug_str:00000000000001c0 .LASF44
     /tmp/ccrAcWjD.s:215    .text:0000000000000140 .LFB41
     /tmp/ccrAcWjD.s:257    .text:0000000000000190 .LFE41
     /tmp/ccrAcWjD.s:245    .text:0000000000000180 .LVL20
GAS LISTING /tmp/ccrAcWjD.s 			page 32


     /tmp/ccrAcWjD.s:3956   .debug_str:000000000000021b .LASF45
     /tmp/ccrAcWjD.s:126    .text:00000000000000ac .LFB40
     /tmp/ccrAcWjD.s:209    .text:0000000000000140 .LFE40
     /tmp/ccrAcWjD.s:3605   .debug_loc:000000000000060f .LLST5
     /tmp/ccrAcWjD.s:3916   .debug_str:0000000000000138 .LASF46
     /tmp/ccrAcWjD.s:3631   .debug_loc:0000000000000681 .LLST6
     /tmp/ccrAcWjD.s:3653   .debug_loc:00000000000006e0 .LLST7
     /tmp/ccrAcWjD.s:3675   .debug_loc:000000000000073f .LLST8
     /tmp/ccrAcWjD.s:3687   .debug_loc:0000000000000777 .LLST9
     /tmp/ccrAcWjD.s:3695   .debug_loc:000000000000079b .LLST10
     /tmp/ccrAcWjD.s:3709   .debug_loc:00000000000007d4 .LLST11
     /tmp/ccrAcWjD.s:3723   .debug_loc:000000000000080d .LLST12
     /tmp/ccrAcWjD.s:3737   .debug_loc:0000000000000846 .LLST13
     /tmp/ccrAcWjD.s:3745   .debug_loc:000000000000086a .LLST14
     /tmp/ccrAcWjD.s:154    .text:00000000000000e4 .LVL11
     /tmp/ccrAcWjD.s:180    .text:0000000000000118 .LVL13
     /tmp/ccrAcWjD.s:3960   .debug_str:0000000000000235 .LASF47
     /tmp/ccrAcWjD.s:71     .text:0000000000000058 .LFB39
     /tmp/ccrAcWjD.s:120    .text:00000000000000ac .LFE39
     /tmp/ccrAcWjD.s:3884   .debug_str:0000000000000064 .LASF48
     /tmp/ccrAcWjD.s:3753   .debug_loc:000000000000088e .LLST3
     /tmp/ccrAcWjD.s:3772   .debug_loc:00000000000008dc .LLST4
     /tmp/ccrAcWjD.s:108    .text:0000000000000098 .LVL8
     /tmp/ccrAcWjD.s:3966   .debug_str:0000000000000307 .LASF49
     /tmp/ccrAcWjD.s:10     .text:0000000000000000 .LFB38
     /tmp/ccrAcWjD.s:65     .text:0000000000000058 .LFE38
     /tmp/ccrAcWjD.s:3918   .debug_str:0000000000000146 .LASF50
     /tmp/ccrAcWjD.s:3791   .debug_loc:000000000000092a .LLST0
     /tmp/ccrAcWjD.s:3874   .debug_str:0000000000000016 .LASF51
     /tmp/ccrAcWjD.s:3811   .debug_loc:0000000000000978 .LLST1
     /tmp/ccrAcWjD.s:3834   .debug_loc:00000000000009ca .LLST2
     /tmp/ccrAcWjD.s:54     .text:0000000000000048 .LVL4
     /tmp/ccrAcWjD.s:880    .text:0000000000000578 .LVL64
     /tmp/ccrAcWjD.s:908    .text:00000000000005b0 .LVL66
     /tmp/ccrAcWjD.s:890    .text:0000000000000588 .LVL65
     /tmp/ccrAcWjD.s:829    .text:0000000000000528 .LVL60
     /tmp/ccrAcWjD.s:857    .text:0000000000000560 .LVL62
     /tmp/ccrAcWjD.s:839    .text:0000000000000538 .LVL61
     /tmp/ccrAcWjD.s:682    .text:0000000000000438 .LVL52
     /tmp/ccrAcWjD.s:710    .text:0000000000000470 .LVL54
     /tmp/ccrAcWjD.s:692    .text:0000000000000448 .LVL53
     /tmp/ccrAcWjD.s:631    .text:00000000000003e8 .LVL48
     /tmp/ccrAcWjD.s:659    .text:0000000000000420 .LVL50
     /tmp/ccrAcWjD.s:641    .text:00000000000003f8 .LVL49
     /tmp/ccrAcWjD.s:612    .text:00000000000003d8 .LVL47
     /tmp/ccrAcWjD.s:530    .text:0000000000000340 .LVL41
     /tmp/ccrAcWjD.s:558    .text:0000000000000378 .LVL43
     /tmp/ccrAcWjD.s:540    .text:0000000000000350 .LVL42
     /tmp/ccrAcWjD.s:479    .text:00000000000002ec .LVL37
     /tmp/ccrAcWjD.s:507    .text:0000000000000324 .LVL39
     /tmp/ccrAcWjD.s:489    .text:00000000000002fc .LVL38
     /tmp/ccrAcWjD.s:428    .text:0000000000000298 .LVL33
     /tmp/ccrAcWjD.s:456    .text:00000000000002d0 .LVL35
     /tmp/ccrAcWjD.s:438    .text:00000000000002a8 .LVL34
     /tmp/ccrAcWjD.s:376    .text:0000000000000244 .LVL29
     /tmp/ccrAcWjD.s:405    .text:000000000000027c .LVL31
     /tmp/ccrAcWjD.s:386    .text:0000000000000254 .LVL30
GAS LISTING /tmp/ccrAcWjD.s 			page 33


     /tmp/ccrAcWjD.s:314    .text:00000000000001e4 .LVL23
     /tmp/ccrAcWjD.s:319    .text:00000000000001ec .LVL24
     /tmp/ccrAcWjD.s:322    .text:00000000000001f0 .LVL25
     /tmp/ccrAcWjD.s:352    .text:0000000000000228 .LVL27
     /tmp/ccrAcWjD.s:334    .text:0000000000000200 .LVL26
     /tmp/ccrAcWjD.s:129    .text:00000000000000ac .LVL9
     /tmp/ccrAcWjD.s:152    .text:00000000000000dc .LVL10
     /tmp/ccrAcWjD.s:197    .text:0000000000000130 .LVL16
     /tmp/ccrAcWjD.s:201    .text:0000000000000138 .LVL17
     /tmp/ccrAcWjD.s:206    .text:000000000000013c .LVL18
     /tmp/ccrAcWjD.s:191    .text:0000000000000128 .LVL14
     /tmp/ccrAcWjD.s:194    .text:000000000000012c .LVL15
     /tmp/ccrAcWjD.s:178    .text:0000000000000110 .LVL12
     /tmp/ccrAcWjD.s:74     .text:0000000000000058 .LVL5
     /tmp/ccrAcWjD.s:106    .text:0000000000000090 .LVL7
     /tmp/ccrAcWjD.s:84     .text:0000000000000068 .LVL6
     /tmp/ccrAcWjD.s:14     .text:0000000000000000 .LVL0
     /tmp/ccrAcWjD.s:26     .text:0000000000000014 .LVL1
     /tmp/ccrAcWjD.s:29     .text:0000000000000018 .LVL2
     /tmp/ccrAcWjD.s:52     .text:0000000000000040 .LVL3
     /tmp/ccrAcWjD.s:928    .debug_info:0000000000000000 .Ldebug_info0

UNDEFINED SYMBOLS
_ZN3abi8sys_callEPv
