GAS LISTING /tmp/ccdXOwLo.s 			page 1


   1              		.file	"syscall_cpp.cpp"
   2              		.option pic
   3              		.option norelax
   4              		.text
   5              	.Ltext0:
   6              		.section	.text._ZN6Thread3runEv,"axG",@progbits,_ZN6Thread3runEv,comdat
   7              		.align	2
   8              		.weak	_ZN6Thread3runEv
  10              	_ZN6Thread3runEv:
  11              	.LFB29:
  12              		.file 1 "src/../h/syscall_cpp.hpp"
   1:src/../h/syscall_cpp.hpp **** #ifndef _syscall_cpp_hpp_
   2:src/../h/syscall_cpp.hpp **** #define _syscall_cpp_hpp_
   3:src/../h/syscall_cpp.hpp **** 
   4:src/../h/syscall_cpp.hpp **** #include "../h/syscall_c.h"
   5:src/../h/syscall_cpp.hpp **** 
   6:src/../h/syscall_cpp.hpp **** 
   7:src/../h/syscall_cpp.hpp **** 
   8:src/../h/syscall_cpp.hpp **** void* operator new(size_t n);
   9:src/../h/syscall_cpp.hpp **** void* operator new[](size_t n);
  10:src/../h/syscall_cpp.hpp **** void operator delete(void* ptr);
  11:src/../h/syscall_cpp.hpp **** void operator delete[](void* ptr);
  12:src/../h/syscall_cpp.hpp **** 
  13:src/../h/syscall_cpp.hpp **** 
  14:src/../h/syscall_cpp.hpp **** 
  15:src/../h/syscall_cpp.hpp **** class Thread {
  16:src/../h/syscall_cpp.hpp **** public:
  17:src/../h/syscall_cpp.hpp ****     Thread(void (*body)(void*), void* arg);
  18:src/../h/syscall_cpp.hpp ****     virtual ~Thread();
  19:src/../h/syscall_cpp.hpp **** 
  20:src/../h/syscall_cpp.hpp **** 
  21:src/../h/syscall_cpp.hpp **** 
  22:src/../h/syscall_cpp.hpp ****     int start();
  23:src/../h/syscall_cpp.hpp **** 
  24:src/../h/syscall_cpp.hpp **** 
  25:src/../h/syscall_cpp.hpp **** 
  26:src/../h/syscall_cpp.hpp ****     static void dispatch();
  27:src/../h/syscall_cpp.hpp ****     static int sleep(time_t time);
  28:src/../h/syscall_cpp.hpp **** 
  29:src/../h/syscall_cpp.hpp **** 
  30:src/../h/syscall_cpp.hpp **** 
  31:src/../h/syscall_cpp.hpp **** protected:
  32:src/../h/syscall_cpp.hpp ****     Thread();
  33:src/../h/syscall_cpp.hpp ****     virtual void run() {}
  13              		.loc 1 33 18
  14              		.cfi_startproc
  15              	.LVL0:
  16 0000 130101FF 		addi	sp,sp,-16
  17              		.cfi_def_cfa_offset 16
  18 0004 23348100 		sd	s0,8(sp)
  19              		.cfi_offset 8, -8
  20 0008 13040101 		addi	s0,sp,16
  21              		.cfi_def_cfa 8, 0
  22              		.loc 1 33 25 is_stmt 0
  23 000c 03348100 		ld	s0,8(sp)
  24              		.cfi_restore 8
  25              		.cfi_def_cfa 2, 16
GAS LISTING /tmp/ccdXOwLo.s 			page 2


  26 0010 13010101 		addi	sp,sp,16
  27              		.cfi_def_cfa_offset 0
  28 0014 67800000 		jr	ra
  29              		.cfi_endproc
  30              	.LFE29:
  32              		.section	.text._ZN14PeriodicThread18periodicActivationEv,"axG",@progbits,_ZN14PeriodicThread18peri
  33              		.align	2
  34              		.weak	_ZN14PeriodicThread18periodicActivationEv
  36              	_ZN14PeriodicThread18periodicActivationEv:
  37              	.LFB31:
  34:src/../h/syscall_cpp.hpp **** 
  35:src/../h/syscall_cpp.hpp **** 
  36:src/../h/syscall_cpp.hpp **** 
  37:src/../h/syscall_cpp.hpp **** private:
  38:src/../h/syscall_cpp.hpp ****     static void wrapper_run(void* thread);
  39:src/../h/syscall_cpp.hpp **** 
  40:src/../h/syscall_cpp.hpp **** 
  41:src/../h/syscall_cpp.hpp **** 
  42:src/../h/syscall_cpp.hpp ****     thread_t myHandle;
  43:src/../h/syscall_cpp.hpp **** };
  44:src/../h/syscall_cpp.hpp **** 
  45:src/../h/syscall_cpp.hpp **** 
  46:src/../h/syscall_cpp.hpp **** 
  47:src/../h/syscall_cpp.hpp **** class Semaphore {
  48:src/../h/syscall_cpp.hpp **** public:
  49:src/../h/syscall_cpp.hpp ****     explicit Semaphore(unsigned init = 1);
  50:src/../h/syscall_cpp.hpp ****     virtual ~Semaphore();
  51:src/../h/syscall_cpp.hpp **** 
  52:src/../h/syscall_cpp.hpp **** 
  53:src/../h/syscall_cpp.hpp **** 
  54:src/../h/syscall_cpp.hpp ****     int wait();
  55:src/../h/syscall_cpp.hpp ****     int signal();
  56:src/../h/syscall_cpp.hpp **** 
  57:src/../h/syscall_cpp.hpp **** 
  58:src/../h/syscall_cpp.hpp **** 
  59:src/../h/syscall_cpp.hpp **** private:
  60:src/../h/syscall_cpp.hpp ****     sem_t myHandle;
  61:src/../h/syscall_cpp.hpp **** };
  62:src/../h/syscall_cpp.hpp **** 
  63:src/../h/syscall_cpp.hpp **** 
  64:src/../h/syscall_cpp.hpp **** 
  65:src/../h/syscall_cpp.hpp **** class PeriodicThread : public Thread {
  66:src/../h/syscall_cpp.hpp **** public:
  67:src/../h/syscall_cpp.hpp ****     void stop(){flag_stop = false;}
  68:src/../h/syscall_cpp.hpp **** //    uint64 getId()const{ id; }
  69:src/../h/syscall_cpp.hpp **** protected:
  70:src/../h/syscall_cpp.hpp ****     PeriodicThread(time_t period);
  71:src/../h/syscall_cpp.hpp ****     virtual void periodicActivation(){}
  38              		.loc 1 71 18 is_stmt 1
  39              		.cfi_startproc
  40              	.LVL1:
  41 0000 130101FF 		addi	sp,sp,-16
  42              		.cfi_def_cfa_offset 16
  43 0004 23348100 		sd	s0,8(sp)
  44              		.cfi_offset 8, -8
  45 0008 13040101 		addi	s0,sp,16
  46              		.cfi_def_cfa 8, 0
GAS LISTING /tmp/ccdXOwLo.s 			page 3


  47              		.loc 1 71 39 is_stmt 0
  48 000c 03348100 		ld	s0,8(sp)
  49              		.cfi_restore 8
  50              		.cfi_def_cfa 2, 16
  51 0010 13010101 		addi	sp,sp,16
  52              		.cfi_def_cfa_offset 0
  53 0014 67800000 		jr	ra
  54              		.cfi_endproc
  55              	.LFE31:
  57              		.text
  58              		.align	2
  59              		.globl	_ZN6Thread11wrapper_runEPv
  61              	_ZN6Thread11wrapper_runEPv:
  62              	.LFB57:
  63              		.file 2 "src/syscall_cpp.cpp"
   1:src/syscall_cpp.cpp **** #include "../h/syscall_cpp.hpp"
   2:src/syscall_cpp.cpp **** #include "../h/TCB.hpp"
   3:src/syscall_cpp.cpp **** #include "../h/semaphore.hpp"
   4:src/syscall_cpp.cpp **** #include "../h/SlabI.h"
   5:src/syscall_cpp.cpp **** 
   6:src/syscall_cpp.cpp **** 
   7:src/syscall_cpp.cpp **** void* operator new(size_t n) {
   8:src/syscall_cpp.cpp ****     return mem_alloc(n);
   9:src/syscall_cpp.cpp **** }
  10:src/syscall_cpp.cpp **** 
  11:src/syscall_cpp.cpp **** void* operator new[](size_t n) {
  12:src/syscall_cpp.cpp ****     return mem_alloc(n);
  13:src/syscall_cpp.cpp **** }
  14:src/syscall_cpp.cpp **** 
  15:src/syscall_cpp.cpp **** void operator delete(void* ptr) {
  16:src/syscall_cpp.cpp ****     mem_free(ptr);
  17:src/syscall_cpp.cpp **** }
  18:src/syscall_cpp.cpp **** 
  19:src/syscall_cpp.cpp **** void operator delete[](void* ptr) {
  20:src/syscall_cpp.cpp ****     mem_free(ptr);
  21:src/syscall_cpp.cpp **** }
  22:src/syscall_cpp.cpp **** 
  23:src/syscall_cpp.cpp **** Thread::Thread(void (*body)(void*), void *arg) {
  24:src/syscall_cpp.cpp ****     // inicijalizacija steka
  25:src/syscall_cpp.cpp ****     void* stack = kmalloc(DEFAULT_STACK_SIZE);
  26:src/syscall_cpp.cpp ****     if(stack == nullptr){
  27:src/syscall_cpp.cpp ****         this->myHandle = nullptr;
  28:src/syscall_cpp.cpp ****         return;
  29:src/syscall_cpp.cpp ****     }
  30:src/syscall_cpp.cpp **** 
  31:src/syscall_cpp.cpp ****     uint64 a4 = (body != nullptr) ? (uint64)stack : 0;
  32:src/syscall_cpp.cpp **** 
  33:src/syscall_cpp.cpp **** //    uint64 a4 = (body != nullptr) ? (uint64)mem_alloc(DEFAULT_STACK_SIZE) : 0;
  34:src/syscall_cpp.cpp **** 
  35:src/syscall_cpp.cpp ****     // kod sistemskog poziva
  36:src/syscall_cpp.cpp ****     uint64 a0 = 0x11;
  37:src/syscall_cpp.cpp ****     // parametri
  38:src/syscall_cpp.cpp ****     uint64  a1, a2, a3, a5, a6, a7;
  39:src/syscall_cpp.cpp ****     a1 = (uint64)&myHandle;
  40:src/syscall_cpp.cpp ****     a2 = (uint64)body;
  41:src/syscall_cpp.cpp ****     a3 = (uint64)arg;
  42:src/syscall_cpp.cpp ****     a6 = (uint64)false;
GAS LISTING /tmp/ccdXOwLo.s 			page 4


  43:src/syscall_cpp.cpp **** 
  44:src/syscall_cpp.cpp ****     a5 = a7 = 0;
  45:src/syscall_cpp.cpp **** 
  46:src/syscall_cpp.cpp ****     // void* pokazivac
  47:src/syscall_cpp.cpp ****     uint64 empty[8]= {a0, a1, a2, a3, a4, a5, a6, a7};
  48:src/syscall_cpp.cpp **** 
  49:src/syscall_cpp.cpp ****     // sistemski poziv
  50:src/syscall_cpp.cpp ****     abi::sys_call(reinterpret_cast<void *>(empty));
  51:src/syscall_cpp.cpp **** 
  52:src/syscall_cpp.cpp **** }
  53:src/syscall_cpp.cpp **** 
  54:src/syscall_cpp.cpp **** Thread::~Thread() {
  55:src/syscall_cpp.cpp ****     delete (TCB*)(myHandle);
  56:src/syscall_cpp.cpp **** }
  57:src/syscall_cpp.cpp **** 
  58:src/syscall_cpp.cpp **** int Thread::start() {
  59:src/syscall_cpp.cpp ****     put_in_scheduler(myHandle);
  60:src/syscall_cpp.cpp ****     return 0;
  61:src/syscall_cpp.cpp **** }
  62:src/syscall_cpp.cpp **** 
  63:src/syscall_cpp.cpp **** void Thread::dispatch() {
  64:src/syscall_cpp.cpp ****     thread_dispatch();
  65:src/syscall_cpp.cpp **** }
  66:src/syscall_cpp.cpp **** 
  67:src/syscall_cpp.cpp **** int Thread::sleep(time_t time) {
  68:src/syscall_cpp.cpp ****     return time_sleep(time);
  69:src/syscall_cpp.cpp **** }
  70:src/syscall_cpp.cpp **** 
  71:src/syscall_cpp.cpp **** Thread::Thread() {
  72:src/syscall_cpp.cpp ****     // inicijalizacija steka
  73:src/syscall_cpp.cpp ****     uint64 a4 = (uint64)mem_alloc(DEFAULT_STACK_SIZE);
  74:src/syscall_cpp.cpp **** 
  75:src/syscall_cpp.cpp ****     // kod sistemskog poziva
  76:src/syscall_cpp.cpp ****     uint64 a0 = 0x11;
  77:src/syscall_cpp.cpp ****     // parametri
  78:src/syscall_cpp.cpp ****     uint64  a1, a2, a3, a5, a6, a7;
  79:src/syscall_cpp.cpp ****     a1 = (uint64)&myHandle;
  80:src/syscall_cpp.cpp ****     a2 = (uint64)&wrapper_run;
  81:src/syscall_cpp.cpp ****     a3 = (uint64)this;
  82:src/syscall_cpp.cpp ****     a6 = (uint64)false;
  83:src/syscall_cpp.cpp **** 
  84:src/syscall_cpp.cpp ****     a5 = a7 = 0;
  85:src/syscall_cpp.cpp **** 
  86:src/syscall_cpp.cpp ****     // void* pokazivac
  87:src/syscall_cpp.cpp ****     uint64 empty[8]= {a0, a1, a2, a3, a4, a5, a6, a7};
  88:src/syscall_cpp.cpp **** 
  89:src/syscall_cpp.cpp ****     // sistemski poziv
  90:src/syscall_cpp.cpp ****     abi::sys_call(reinterpret_cast<void *>(empty));
  91:src/syscall_cpp.cpp **** 
  92:src/syscall_cpp.cpp **** }
  93:src/syscall_cpp.cpp **** 
  94:src/syscall_cpp.cpp **** void Thread::wrapper_run(void* thread) {
  64              		.loc 2 94 40 is_stmt 1
  65              		.cfi_startproc
  66              	.LVL2:
  67 0000 130101FF 		addi	sp,sp,-16
  68              		.cfi_def_cfa_offset 16
GAS LISTING /tmp/ccdXOwLo.s 			page 5


  69 0004 23341100 		sd	ra,8(sp)
  70 0008 23308100 		sd	s0,0(sp)
  71              		.cfi_offset 1, -8
  72              		.cfi_offset 8, -16
  73 000c 13040101 		addi	s0,sp,16
  74              		.cfi_def_cfa 8, 0
  95:src/syscall_cpp.cpp ****     ((Thread*)(thread))->run();
  75              		.loc 2 95 5
  76              		.loc 2 95 30 is_stmt 0
  77 0010 83370500 		ld	a5,0(a0)
  78 0014 83B70701 		ld	a5,16(a5)
  79              		.loc 2 95 29
  80 0018 E7800700 		jalr	a5
  81              	.LVL3:
  96:src/syscall_cpp.cpp **** }
  82              		.loc 2 96 1
  83 001c 83308100 		ld	ra,8(sp)
  84              		.cfi_restore 1
  85 0020 03340100 		ld	s0,0(sp)
  86              		.cfi_restore 8
  87              		.cfi_def_cfa 2, 16
  88 0024 13010101 		addi	sp,sp,16
  89              		.cfi_def_cfa_offset 0
  90 0028 67800000 		jr	ra
  91              		.cfi_endproc
  92              	.LFE57:
  94              		.align	2
  95              		.globl	_ZN6ThreadD2Ev
  97              	_ZN6ThreadD2Ev:
  98              	.LFB48:
  54:src/syscall_cpp.cpp ****     delete (TCB*)(myHandle);
  99              		.loc 2 54 1 is_stmt 1
 100              		.cfi_startproc
 101              		.cfi_personality 0x9b,DW.ref.__gxx_personality_v0
 102              		.cfi_lsda 0x1b,.LLSDA48
 103              	.LVL4:
 104 002c 130101FE 		addi	sp,sp,-32
 105              		.cfi_def_cfa_offset 32
 106 0030 233C1100 		sd	ra,24(sp)
 107 0034 23388100 		sd	s0,16(sp)
 108 0038 23349100 		sd	s1,8(sp)
 109              		.cfi_offset 1, -8
 110              		.cfi_offset 8, -16
 111              		.cfi_offset 9, -24
 112 003c 13040102 		addi	s0,sp,32
 113              		.cfi_def_cfa 8, 0
 114              	.LBB11:
  54:src/syscall_cpp.cpp ****     delete (TCB*)(myHandle);
 115              		.loc 2 54 17 is_stmt 0
 116 0040 97070000 		lla	a5,_ZTV6Thread+16
 116      93870700 
 117 0048 2330F500 		sd	a5,0(a0)
  55:src/syscall_cpp.cpp **** }
 118              		.loc 2 55 5 is_stmt 1
  55:src/syscall_cpp.cpp **** }
 119              		.loc 2 55 19 is_stmt 0
 120 004c 83348500 		ld	s1,8(a0)
GAS LISTING /tmp/ccdXOwLo.s 			page 6


  55:src/syscall_cpp.cpp **** }
 121              		.loc 2 55 28
 122 0050 638E0400 		beqz	s1,.L7
 123              	.LVL5:
 124              	.LBB12:
 125              	.LBB13:
 126              		.file 3 "src/../h/../h/../h/../h/TCB.hpp"
   1:src/../h/../h/../h/../h/TCB.hpp **** #ifndef _thread_hpp_
   2:src/../h/../h/../h/../h/TCB.hpp **** #define _thread_hpp_
   3:src/../h/../h/../h/../h/TCB.hpp **** 
   4:src/../h/../h/../h/../h/TCB.hpp **** #include "../lib/hw.h"
   5:src/../h/../h/../h/../h/TCB.hpp **** #include "../h/scheduler.hpp"
   6:src/../h/../h/../h/../h/TCB.hpp **** #include "../h/MemoryAllocator.hpp"
   7:src/../h/../h/../h/../h/TCB.hpp **** #include "../h/TS.hpp"
   8:src/../h/../h/../h/../h/TCB.hpp **** #include "../h/periodic_threads.hpp"
   9:src/../h/../h/../h/../h/TCB.hpp **** #include "SlabI.h"
  10:src/../h/../h/../h/../h/TCB.hpp **** 
  11:src/../h/../h/../h/../h/TCB.hpp **** class TCB{
  12:src/../h/../h/../h/../h/TCB.hpp **** public:
  13:src/../h/../h/../h/../h/TCB.hpp ****     using Body = void (*)(void*);
  14:src/../h/../h/../h/../h/TCB.hpp **** 
  15:src/../h/../h/../h/../h/TCB.hpp ****     // trazene
  16:src/../h/../h/../h/../h/TCB.hpp ****     static int thread_create(
  17:src/../h/../h/../h/../h/TCB.hpp ****         TCB** handle,
  18:src/../h/../h/../h/../h/TCB.hpp ****         void(*start_routine)(void*),
  19:src/../h/../h/../h/../h/TCB.hpp ****         void* arg,
  20:src/../h/../h/../h/../h/TCB.hpp ****         void* stack_space,
  21:src/../h/../h/../h/../h/TCB.hpp ****         bool flag
  22:src/../h/../h/../h/../h/TCB.hpp ****     );
  23:src/../h/../h/../h/../h/TCB.hpp **** 
  24:src/../h/../h/../h/../h/TCB.hpp ****     static int thread_exit();
  25:src/../h/../h/../h/../h/TCB.hpp **** 
  26:src/../h/../h/../h/../h/TCB.hpp ****     static void thread_dispatch();
  27:src/../h/../h/../h/../h/TCB.hpp **** 
  28:src/../h/../h/../h/../h/TCB.hpp ****     static int time_sleep(uint64 time);
  29:src/../h/../h/../h/../h/TCB.hpp **** 
  30:src/../h/../h/../h/../h/TCB.hpp ****     uint64 get_thread_id()const{ return id; }
  31:src/../h/../h/../h/../h/TCB.hpp **** 
  32:src/../h/../h/../h/../h/TCB.hpp ****     // getteri i setteri
  33:src/../h/../h/../h/../h/TCB.hpp ****     void set_finished(bool f){ this->finished = f; }
  34:src/../h/../h/../h/../h/TCB.hpp ****     bool is_finished()const{return finished;}
  35:src/../h/../h/../h/../h/TCB.hpp ****     void set_next_scheduler(TCB* nextThread){ next_scheduler = nextThread; }
  36:src/../h/../h/../h/../h/TCB.hpp ****     TCB* get_next_scheduler()const{ return next_scheduler; }
  37:src/../h/../h/../h/../h/TCB.hpp ****     void set_next_sleep(TCB* nextThread){ next_sleep = nextThread; }
  38:src/../h/../h/../h/../h/TCB.hpp ****     TCB* get_next_sleep()const{ return next_sleep; }
  39:src/../h/../h/../h/../h/TCB.hpp ****     void set_next_blocked(TCB* nextThread){ next_blocked = nextThread; }
  40:src/../h/../h/../h/../h/TCB.hpp ****     TCB* get_next_blocked()const{ return next_blocked; }
  41:src/../h/../h/../h/../h/TCB.hpp ****     uint64 get_time_sleep()const{ return sleep; }
  42:src/../h/../h/../h/../h/TCB.hpp ****     void set_time_sleep(uint64 new_time){ sleep = new_time; }
  43:src/../h/../h/../h/../h/TCB.hpp ****     uint64 get_time_slice()const{ return time_slice; }
  44:src/../h/../h/../h/../h/TCB.hpp ****     void set_periodic(bool b){
  45:src/../h/../h/../h/../h/TCB.hpp ****         periodic = b;
  46:src/../h/../h/../h/../h/TCB.hpp ****         periodicThread::getInstance().put(this);
  47:src/../h/../h/../h/../h/TCB.hpp ****     }
  48:src/../h/../h/../h/../h/TCB.hpp ****     void set_next_period(TCB* tcb){ next_period = tcb; }
  49:src/../h/../h/../h/../h/TCB.hpp ****     TCB* get_next_period()const{return next_period;}
  50:src/../h/../h/../h/../h/TCB.hpp **** 
GAS LISTING /tmp/ccdXOwLo.s 			page 7


  51:src/../h/../h/../h/../h/TCB.hpp ****     static void yield();
  52:src/../h/../h/../h/../h/TCB.hpp **** 
  53:src/../h/../h/../h/../h/TCB.hpp ****     // operatori
  54:src/../h/../h/../h/../h/TCB.hpp ****     void *operator new(uint64 n){
  55:src/../h/../h/../h/../h/TCB.hpp ****         return kmem_cache_alloc(get_tcb_cache());
  56:src/../h/../h/../h/../h/TCB.hpp ****     }
  57:src/../h/../h/../h/../h/TCB.hpp **** 
  58:src/../h/../h/../h/../h/TCB.hpp ****     void *operator new[](uint64 n){
  59:src/../h/../h/../h/../h/TCB.hpp ****         if(n == 0)return nullptr;
  60:src/../h/../h/../h/../h/TCB.hpp ****         size_t num_of_elem = n / sizeof(TCB);
  61:src/../h/../h/../h/../h/TCB.hpp ****         TCB** arr =  (TCB**)kmalloc(num_of_elem);
  62:src/../h/../h/../h/../h/TCB.hpp ****         return (void*)arr;
  63:src/../h/../h/../h/../h/TCB.hpp ****     }
  64:src/../h/../h/../h/../h/TCB.hpp **** 
  65:src/../h/../h/../h/../h/TCB.hpp ****     void operator delete(void* p)noexcept{
  66:src/../h/../h/../h/../h/TCB.hpp ****         kmem_cache_free(get_tcb_cache(), p);
 127              		.loc 3 66 9 is_stmt 1 discriminator 1
 128              		.loc 3 66 39 is_stmt 0 discriminator 1
 129 0054 97000000 		call	_ZN3TCB13get_tcb_cacheEv@plt
 129      E7800000 
 130              	.LVL6:
 131              		.loc 3 66 24 discriminator 1
 132 005c 93850400 		mv	a1,s1
 133 0060 03350500 		ld	a0,0(a0)
 134 0064 97000000 		call	_Z15kmem_cache_freeP12kmem_cache_sPv@plt
 134      E7800000 
 135              	.LVL7:
 136              	.L7:
 137              	.LBE13:
 138              	.LBE12:
 139              	.LBE11:
  56:src/syscall_cpp.cpp **** 
 140              		.loc 2 56 1
 141 006c 83308101 		ld	ra,24(sp)
 142              		.cfi_restore 1
 143 0070 03340101 		ld	s0,16(sp)
 144              		.cfi_restore 8
 145              		.cfi_def_cfa 2, 32
 146 0074 83348100 		ld	s1,8(sp)
 147              		.cfi_restore 9
 148 0078 13010102 		addi	sp,sp,32
 149              		.cfi_def_cfa_offset 0
 150 007c 67800000 		jr	ra
 151              		.cfi_endproc
 152              	.LFE48:
 153              		.globl	__gxx_personality_v0
 154              		.section	.gcc_except_table,"a",@progbits
 155              	.LLSDA48:
 156 0000 FF       		.byte	0xff
 157 0001 FF       		.byte	0xff
 158 0002 03       		.byte	0x3
 159 0003 00       		.byte	0
 160              		.text
 162              		.globl	_ZN6ThreadD1Ev
 163              		.set	_ZN6ThreadD1Ev,_ZN6ThreadD2Ev
 164              		.section	.text._ZN14PeriodicThreadD2Ev,"axG",@progbits,_ZN14PeriodicThreadD5Ev,comdat
 165              		.align	2
GAS LISTING /tmp/ccdXOwLo.s 			page 8


 166              		.weak	_ZN14PeriodicThreadD2Ev
 168              	_ZN14PeriodicThreadD2Ev:
 169              	.LFB74:
  65:src/../h/syscall_cpp.hpp **** public:
 170              		.loc 1 65 7 is_stmt 1
 171              		.cfi_startproc
 172              	.LVL8:
 173 0000 130101FF 		addi	sp,sp,-16
 174              		.cfi_def_cfa_offset 16
 175 0004 23341100 		sd	ra,8(sp)
 176 0008 23308100 		sd	s0,0(sp)
 177              		.cfi_offset 1, -8
 178              		.cfi_offset 8, -16
 179 000c 13040101 		addi	s0,sp,16
 180              		.cfi_def_cfa 8, 0
 181              	.LBB14:
  65:src/../h/syscall_cpp.hpp **** public:
 182              		.loc 1 65 7 is_stmt 0
 183 0010 97070000 		lla	a5,_ZTV14PeriodicThread+16
 183      93870700 
 184 0018 2330F500 		sd	a5,0(a0)
 185 001c 97000000 		call	_ZN6ThreadD2Ev
 185      E7800000 
 186              	.LVL9:
 187              	.LBE14:
 188 0024 83308100 		ld	ra,8(sp)
 189              		.cfi_restore 1
 190 0028 03340100 		ld	s0,0(sp)
 191              		.cfi_restore 8
 192              		.cfi_def_cfa 2, 16
 193 002c 13010101 		addi	sp,sp,16
 194              		.cfi_def_cfa_offset 0
 195 0030 67800000 		jr	ra
 196              		.cfi_endproc
 197              	.LFE74:
 199              		.weak	_ZN14PeriodicThreadD1Ev
 200              		.set	_ZN14PeriodicThreadD1Ev,_ZN14PeriodicThreadD2Ev
 201              		.text
 202              		.align	2
 203              		.globl	_ZN9SemaphoreD2Ev
 205              	_ZN9SemaphoreD2Ev:
 206              	.LFB62:
  97:src/syscall_cpp.cpp **** 
  98:src/syscall_cpp.cpp **** Semaphore::Semaphore(unsigned int init) {
  99:src/syscall_cpp.cpp ****     sem_open(&myHandle, init);
 100:src/syscall_cpp.cpp **** }
 101:src/syscall_cpp.cpp **** 
 102:src/syscall_cpp.cpp **** Semaphore::~Semaphore() {
 207              		.loc 2 102 1 is_stmt 1
 208              		.cfi_startproc
 209              		.cfi_personality 0x9b,DW.ref.__gxx_personality_v0
 210              		.cfi_lsda 0x1b,.LLSDA62
 211              	.LVL10:
 212 0080 130101FE 		addi	sp,sp,-32
 213              		.cfi_def_cfa_offset 32
 214 0084 233C1100 		sd	ra,24(sp)
 215 0088 23388100 		sd	s0,16(sp)
GAS LISTING /tmp/ccdXOwLo.s 			page 9


 216 008c 23349100 		sd	s1,8(sp)
 217              		.cfi_offset 1, -8
 218              		.cfi_offset 8, -16
 219              		.cfi_offset 9, -24
 220 0090 13040102 		addi	s0,sp,32
 221              		.cfi_def_cfa 8, 0
 222              	.LBB15:
 223              		.loc 2 102 23 is_stmt 0
 224 0094 97070000 		lla	a5,_ZTV9Semaphore+16
 224      93870700 
 225 009c 2330F500 		sd	a5,0(a0)
 103:src/syscall_cpp.cpp ****     delete (MySemaphore*)myHandle;
 226              		.loc 2 103 5 is_stmt 1
 227              		.loc 2 103 26 is_stmt 0
 228 00a0 83348500 		ld	s1,8(a0)
 229              		.loc 2 103 34
 230 00a4 638E0400 		beqz	s1,.L12
 231              	.LVL11:
 232              	.LBB16:
 233              	.LBB17:
 234              		.file 4 "src/../h/semaphore.hpp"
   1:src/../h/semaphore.hpp **** #ifndef _semaphore_hpp_
   2:src/../h/semaphore.hpp **** #define _semaphore_hpp_
   3:src/../h/semaphore.hpp **** 
   4:src/../h/semaphore.hpp **** #include "../lib/hw.h"
   5:src/../h/semaphore.hpp **** #include "../h/MemoryAllocator.hpp"
   6:src/../h/semaphore.hpp **** #include "SlabI.h"
   7:src/../h/semaphore.hpp **** 
   8:src/../h/semaphore.hpp **** class TCB;
   9:src/../h/semaphore.hpp **** 
  10:src/../h/semaphore.hpp **** class MySemaphore{
  11:src/../h/semaphore.hpp **** public:
  12:src/../h/semaphore.hpp **** 
  13:src/../h/semaphore.hpp ****     static int sem_open(
  14:src/../h/semaphore.hpp ****           MySemaphore** handle,
  15:src/../h/semaphore.hpp ****           uint64 init
  16:src/../h/semaphore.hpp ****           );
  17:src/../h/semaphore.hpp ****     static int sem_close(MySemaphore* handle);
  18:src/../h/semaphore.hpp ****     static int sem_wait(MySemaphore* id);
  19:src/../h/semaphore.hpp ****     static int sem_signal(MySemaphore* id);
  20:src/../h/semaphore.hpp **** 
  21:src/../h/semaphore.hpp ****     void put_in_blocked(TCB* tcb);
  22:src/../h/semaphore.hpp **** 
  23:src/../h/semaphore.hpp ****     TCB* get_from_blocked();
  24:src/../h/semaphore.hpp **** 
  25:src/../h/semaphore.hpp ****     void block();
  26:src/../h/semaphore.hpp **** 
  27:src/../h/semaphore.hpp ****     void unblock();
  28:src/../h/semaphore.hpp **** 
  29:src/../h/semaphore.hpp ****     // getteri i setteri
  30:src/../h/semaphore.hpp ****     bool get_indicator()const{ return indicator; }
  31:src/../h/semaphore.hpp ****     void set_indicator(bool v){ indicator = v; }
  32:src/../h/semaphore.hpp ****     int get_val()const{ return val; }
  33:src/../h/semaphore.hpp ****     void set_val(int v){ val = v; }
  34:src/../h/semaphore.hpp **** 
  35:src/../h/semaphore.hpp ****     // operatori
  36:src/../h/semaphore.hpp ****     void *operator new(uint64 n){
GAS LISTING /tmp/ccdXOwLo.s 			page 10


  37:src/../h/semaphore.hpp ****         return kmem_cache_alloc(get_sem_cache());
  38:src/../h/semaphore.hpp ****     }
  39:src/../h/semaphore.hpp **** 
  40:src/../h/semaphore.hpp ****     void *operator new[](uint64 n){
  41:src/../h/semaphore.hpp ****         if(n == 0)return nullptr;
  42:src/../h/semaphore.hpp ****         size_t num_of_elem = n / sizeof(MySemaphore);
  43:src/../h/semaphore.hpp ****         MySemaphore** arr =  (MySemaphore**)kmalloc(num_of_elem);
  44:src/../h/semaphore.hpp ****         return (void*)arr;
  45:src/../h/semaphore.hpp ****     }
  46:src/../h/semaphore.hpp **** 
  47:src/../h/semaphore.hpp ****     void operator delete(void* p)noexcept{
  48:src/../h/semaphore.hpp ****         kmem_cache_free(get_sem_cache(), p);
 235              		.loc 4 48 9 is_stmt 1 discriminator 1
 236              		.loc 4 48 39 is_stmt 0 discriminator 1
 237 00a8 97000000 		call	_ZN11MySemaphore13get_sem_cacheEv@plt
 237      E7800000 
 238              	.LVL12:
 239              		.loc 4 48 24 discriminator 1
 240 00b0 93850400 		mv	a1,s1
 241 00b4 03350500 		ld	a0,0(a0)
 242 00b8 97000000 		call	_Z15kmem_cache_freeP12kmem_cache_sPv@plt
 242      E7800000 
 243              	.LVL13:
 244              	.L12:
 245              	.LBE17:
 246              	.LBE16:
 247              	.LBE15:
 104:src/syscall_cpp.cpp **** }
 248              		.loc 2 104 1
 249 00c0 83308101 		ld	ra,24(sp)
 250              		.cfi_restore 1
 251 00c4 03340101 		ld	s0,16(sp)
 252              		.cfi_restore 8
 253              		.cfi_def_cfa 2, 32
 254 00c8 83348100 		ld	s1,8(sp)
 255              		.cfi_restore 9
 256 00cc 13010102 		addi	sp,sp,32
 257              		.cfi_def_cfa_offset 0
 258 00d0 67800000 		jr	ra
 259              		.cfi_endproc
 260              	.LFE62:
 261              		.section	.gcc_except_table
 262              	.LLSDA62:
 263 0004 FF       		.byte	0xff
 264 0005 FF       		.byte	0xff
 265 0006 03       		.byte	0x3
 266 0007 00       		.byte	0
 267              		.text
 269              		.globl	_ZN9SemaphoreD1Ev
 270              		.set	_ZN9SemaphoreD1Ev,_ZN9SemaphoreD2Ev
 271              		.align	2
 272              		.globl	_Znwm
 274              	_Znwm:
 275              	.LFB40:
   7:src/syscall_cpp.cpp ****     return mem_alloc(n);
 276              		.loc 2 7 30 is_stmt 1
 277              		.cfi_startproc
GAS LISTING /tmp/ccdXOwLo.s 			page 11


 278              	.LVL14:
 279 00d4 130101FF 		addi	sp,sp,-16
 280              		.cfi_def_cfa_offset 16
 281 00d8 23341100 		sd	ra,8(sp)
 282 00dc 23308100 		sd	s0,0(sp)
 283              		.cfi_offset 1, -8
 284              		.cfi_offset 8, -16
 285 00e0 13040101 		addi	s0,sp,16
 286              		.cfi_def_cfa 8, 0
   8:src/syscall_cpp.cpp **** }
 287              		.loc 2 8 5
   8:src/syscall_cpp.cpp **** }
 288              		.loc 2 8 21 is_stmt 0
 289 00e4 97000000 		call	mem_alloc@plt
 289      E7800000 
 290              	.LVL15:
   9:src/syscall_cpp.cpp **** 
 291              		.loc 2 9 1
 292 00ec 83308100 		ld	ra,8(sp)
 293              		.cfi_restore 1
 294 00f0 03340100 		ld	s0,0(sp)
 295              		.cfi_restore 8
 296              		.cfi_def_cfa 2, 16
 297 00f4 13010101 		addi	sp,sp,16
 298              		.cfi_def_cfa_offset 0
 299 00f8 67800000 		jr	ra
 300              		.cfi_endproc
 301              	.LFE40:
 303              		.align	2
 304              		.globl	_Znam
 306              	_Znam:
 307              	.LFB41:
  11:src/syscall_cpp.cpp ****     return mem_alloc(n);
 308              		.loc 2 11 32 is_stmt 1
 309              		.cfi_startproc
 310              	.LVL16:
 311 00fc 130101FF 		addi	sp,sp,-16
 312              		.cfi_def_cfa_offset 16
 313 0100 23341100 		sd	ra,8(sp)
 314 0104 23308100 		sd	s0,0(sp)
 315              		.cfi_offset 1, -8
 316              		.cfi_offset 8, -16
 317 0108 13040101 		addi	s0,sp,16
 318              		.cfi_def_cfa 8, 0
  12:src/syscall_cpp.cpp **** }
 319              		.loc 2 12 5
  12:src/syscall_cpp.cpp **** }
 320              		.loc 2 12 21 is_stmt 0
 321 010c 97000000 		call	mem_alloc@plt
 321      E7800000 
 322              	.LVL17:
  13:src/syscall_cpp.cpp **** 
 323              		.loc 2 13 1
 324 0114 83308100 		ld	ra,8(sp)
 325              		.cfi_restore 1
 326 0118 03340100 		ld	s0,0(sp)
 327              		.cfi_restore 8
GAS LISTING /tmp/ccdXOwLo.s 			page 12


 328              		.cfi_def_cfa 2, 16
 329 011c 13010101 		addi	sp,sp,16
 330              		.cfi_def_cfa_offset 0
 331 0120 67800000 		jr	ra
 332              		.cfi_endproc
 333              	.LFE41:
 335              		.align	2
 336              		.globl	_ZdlPv
 338              	_ZdlPv:
 339              	.LFB42:
  15:src/syscall_cpp.cpp ****     mem_free(ptr);
 340              		.loc 2 15 33 is_stmt 1
 341              		.cfi_startproc
 342              	.LVL18:
 343 0124 130101FF 		addi	sp,sp,-16
 344              		.cfi_def_cfa_offset 16
 345 0128 23341100 		sd	ra,8(sp)
 346 012c 23308100 		sd	s0,0(sp)
 347              		.cfi_offset 1, -8
 348              		.cfi_offset 8, -16
 349 0130 13040101 		addi	s0,sp,16
 350              		.cfi_def_cfa 8, 0
  16:src/syscall_cpp.cpp **** }
 351              		.loc 2 16 5
  16:src/syscall_cpp.cpp **** }
 352              		.loc 2 16 13 is_stmt 0
 353 0134 97000000 		call	mem_free@plt
 353      E7800000 
 354              	.LVL19:
  17:src/syscall_cpp.cpp **** 
 355              		.loc 2 17 1
 356 013c 83308100 		ld	ra,8(sp)
 357              		.cfi_restore 1
 358 0140 03340100 		ld	s0,0(sp)
 359              		.cfi_restore 8
 360              		.cfi_def_cfa 2, 16
 361 0144 13010101 		addi	sp,sp,16
 362              		.cfi_def_cfa_offset 0
 363 0148 67800000 		jr	ra
 364              		.cfi_endproc
 365              	.LFE42:
 367              		.align	2
 368              		.globl	_ZN6ThreadD0Ev
 370              	_ZN6ThreadD0Ev:
 371              	.LFB50:
  54:src/syscall_cpp.cpp ****     delete (TCB*)(myHandle);
 372              		.loc 2 54 1 is_stmt 1
 373              		.cfi_startproc
 374              	.LVL20:
 375 014c 130101FE 		addi	sp,sp,-32
 376              		.cfi_def_cfa_offset 32
 377 0150 233C1100 		sd	ra,24(sp)
 378 0154 23388100 		sd	s0,16(sp)
 379 0158 23349100 		sd	s1,8(sp)
 380              		.cfi_offset 1, -8
 381              		.cfi_offset 8, -16
 382              		.cfi_offset 9, -24
GAS LISTING /tmp/ccdXOwLo.s 			page 13


 383 015c 13040102 		addi	s0,sp,32
 384              		.cfi_def_cfa 8, 0
 385 0160 93040500 		mv	s1,a0
  56:src/syscall_cpp.cpp **** 
 386              		.loc 2 56 1 is_stmt 0
 387 0164 97000000 		call	_ZN6ThreadD1Ev
 387      E7800000 
 388              	.LVL21:
 389 016c 13850400 		mv	a0,s1
 390 0170 97000000 		call	_ZdlPv
 390      E7800000 
 391              	.LVL22:
 392 0178 83308101 		ld	ra,24(sp)
 393              		.cfi_restore 1
 394 017c 03340101 		ld	s0,16(sp)
 395              		.cfi_restore 8
 396              		.cfi_def_cfa 2, 32
 397 0180 83348100 		ld	s1,8(sp)
 398              		.cfi_restore 9
 399              	.LVL23:
 400 0184 13010102 		addi	sp,sp,32
 401              		.cfi_def_cfa_offset 0
 402 0188 67800000 		jr	ra
 403              		.cfi_endproc
 404              	.LFE50:
 406              		.align	2
 407              		.globl	_ZN9SemaphoreD0Ev
 409              	_ZN9SemaphoreD0Ev:
 410              	.LFB64:
 102:src/syscall_cpp.cpp ****     delete (MySemaphore*)myHandle;
 411              		.loc 2 102 1 is_stmt 1
 412              		.cfi_startproc
 413              	.LVL24:
 414 018c 130101FE 		addi	sp,sp,-32
 415              		.cfi_def_cfa_offset 32
 416 0190 233C1100 		sd	ra,24(sp)
 417 0194 23388100 		sd	s0,16(sp)
 418 0198 23349100 		sd	s1,8(sp)
 419              		.cfi_offset 1, -8
 420              		.cfi_offset 8, -16
 421              		.cfi_offset 9, -24
 422 019c 13040102 		addi	s0,sp,32
 423              		.cfi_def_cfa 8, 0
 424 01a0 93040500 		mv	s1,a0
 425              		.loc 2 104 1 is_stmt 0
 426 01a4 97000000 		call	_ZN9SemaphoreD1Ev
 426      E7800000 
 427              	.LVL25:
 428 01ac 13850400 		mv	a0,s1
 429 01b0 97000000 		call	_ZdlPv
 429      E7800000 
 430              	.LVL26:
 431 01b8 83308101 		ld	ra,24(sp)
 432              		.cfi_restore 1
 433 01bc 03340101 		ld	s0,16(sp)
 434              		.cfi_restore 8
 435              		.cfi_def_cfa 2, 32
GAS LISTING /tmp/ccdXOwLo.s 			page 14


 436 01c0 83348100 		ld	s1,8(sp)
 437              		.cfi_restore 9
 438              	.LVL27:
 439 01c4 13010102 		addi	sp,sp,32
 440              		.cfi_def_cfa_offset 0
 441 01c8 67800000 		jr	ra
 442              		.cfi_endproc
 443              	.LFE64:
 445              		.section	.text._ZN14PeriodicThreadD0Ev,"axG",@progbits,_ZN14PeriodicThreadD5Ev,comdat
 446              		.align	2
 447              		.weak	_ZN14PeriodicThreadD0Ev
 449              	_ZN14PeriodicThreadD0Ev:
 450              	.LFB76:
  65:src/../h/syscall_cpp.hpp **** public:
 451              		.loc 1 65 7 is_stmt 1
 452              		.cfi_startproc
 453              	.LVL28:
 454 0000 130101FE 		addi	sp,sp,-32
 455              		.cfi_def_cfa_offset 32
 456 0004 233C1100 		sd	ra,24(sp)
 457 0008 23388100 		sd	s0,16(sp)
 458 000c 23349100 		sd	s1,8(sp)
 459              		.cfi_offset 1, -8
 460              		.cfi_offset 8, -16
 461              		.cfi_offset 9, -24
 462 0010 13040102 		addi	s0,sp,32
 463              		.cfi_def_cfa 8, 0
 464 0014 93040500 		mv	s1,a0
 465              	.LVL29:
 466              	.LBB18:
 467              	.LBB19:
  65:src/../h/syscall_cpp.hpp **** public:
 468              		.loc 1 65 7 is_stmt 0
 469 0018 97070000 		lla	a5,_ZTV14PeriodicThread+16
 469      93870700 
 470 0020 2330F500 		sd	a5,0(a0)
 471 0024 97000000 		call	_ZN6ThreadD2Ev
 471      E7800000 
 472              	.LVL30:
 473              	.LBE19:
 474              	.LBE18:
 475 002c 13850400 		mv	a0,s1
 476 0030 97000000 		call	_ZdlPv
 476      E7800000 
 477              	.LVL31:
 478 0038 83308101 		ld	ra,24(sp)
 479              		.cfi_restore 1
 480 003c 03340101 		ld	s0,16(sp)
 481              		.cfi_restore 8
 482              		.cfi_def_cfa 2, 32
 483 0040 83348100 		ld	s1,8(sp)
 484              		.cfi_restore 9
 485              	.LVL32:
 486 0044 13010102 		addi	sp,sp,32
 487              		.cfi_def_cfa_offset 0
 488 0048 67800000 		jr	ra
 489              		.cfi_endproc
GAS LISTING /tmp/ccdXOwLo.s 			page 15


 490              	.LFE76:
 492              		.text
 493              		.align	2
 494              		.globl	_ZdaPv
 496              	_ZdaPv:
 497              	.LFB43:
  19:src/syscall_cpp.cpp ****     mem_free(ptr);
 498              		.loc 2 19 35 is_stmt 1
 499              		.cfi_startproc
 500              	.LVL33:
 501 01cc 130101FF 		addi	sp,sp,-16
 502              		.cfi_def_cfa_offset 16
 503 01d0 23341100 		sd	ra,8(sp)
 504 01d4 23308100 		sd	s0,0(sp)
 505              		.cfi_offset 1, -8
 506              		.cfi_offset 8, -16
 507 01d8 13040101 		addi	s0,sp,16
 508              		.cfi_def_cfa 8, 0
  20:src/syscall_cpp.cpp **** }
 509              		.loc 2 20 5
  20:src/syscall_cpp.cpp **** }
 510              		.loc 2 20 13 is_stmt 0
 511 01dc 97000000 		call	mem_free@plt
 511      E7800000 
 512              	.LVL34:
  21:src/syscall_cpp.cpp **** 
 513              		.loc 2 21 1
 514 01e4 83308100 		ld	ra,8(sp)
 515              		.cfi_restore 1
 516 01e8 03340100 		ld	s0,0(sp)
 517              		.cfi_restore 8
 518              		.cfi_def_cfa 2, 16
 519 01ec 13010101 		addi	sp,sp,16
 520              		.cfi_def_cfa_offset 0
 521 01f0 67800000 		jr	ra
 522              		.cfi_endproc
 523              	.LFE43:
 525              		.align	2
 526              		.globl	_ZN6ThreadC2EPFvPvES0_
 528              	_ZN6ThreadC2EPFvPvES0_:
 529              	.LFB45:
  23:src/syscall_cpp.cpp ****     // inicijalizacija steka
 530              		.loc 2 23 1 is_stmt 1
 531              		.cfi_startproc
 532              	.LVL35:
 533 01f4 130101F9 		addi	sp,sp,-112
 534              		.cfi_def_cfa_offset 112
 535 01f8 23341106 		sd	ra,104(sp)
 536 01fc 23308106 		sd	s0,96(sp)
 537 0200 233C9104 		sd	s1,88(sp)
 538 0204 23382105 		sd	s2,80(sp)
 539 0208 23343105 		sd	s3,72(sp)
 540              		.cfi_offset 1, -8
 541              		.cfi_offset 8, -16
 542              		.cfi_offset 9, -24
 543              		.cfi_offset 18, -32
 544              		.cfi_offset 19, -40
GAS LISTING /tmp/ccdXOwLo.s 			page 16


 545 020c 13040107 		addi	s0,sp,112
 546              		.cfi_def_cfa 8, 0
 547 0210 93040500 		mv	s1,a0
 548 0214 13890500 		mv	s2,a1
 549 0218 93090600 		mv	s3,a2
 550              	.LBB20:
  23:src/syscall_cpp.cpp ****     // inicijalizacija steka
 551              		.loc 2 23 46 is_stmt 0
 552 021c 97070000 		lla	a5,_ZTV6Thread+16
 552      93870700 
 553 0224 2330F500 		sd	a5,0(a0)
 554              	.LBB21:
  25:src/syscall_cpp.cpp ****     if(stack == nullptr){
 555              		.loc 2 25 5 is_stmt 1
  25:src/syscall_cpp.cpp ****     if(stack == nullptr){
 556              		.loc 2 25 26 is_stmt 0
 557 0228 37150000 		li	a0,4096
 558              	.LVL36:
 559 022c 97000000 		call	_Z7kmallocm@plt
 559      E7800000 
 560              	.LVL37:
  26:src/syscall_cpp.cpp ****         this->myHandle = nullptr;
 561              		.loc 2 26 5 is_stmt 1
 562 0234 630C0504 		beqz	a0,.L35
  31:src/syscall_cpp.cpp **** 
 563              		.loc 2 31 5
  31:src/syscall_cpp.cpp **** 
 564              		.loc 2 31 35 is_stmt 0
 565 0238 630E0904 		beqz	s2,.L36
 566              	.LVL38:
 567              	.L32:
  36:src/syscall_cpp.cpp ****     // parametri
 568              		.loc 2 36 5 is_stmt 1 discriminator 4
  38:src/syscall_cpp.cpp ****     a1 = (uint64)&myHandle;
 569              		.loc 2 38 5 discriminator 4
  39:src/syscall_cpp.cpp ****     a2 = (uint64)body;
 570              		.loc 2 39 5 discriminator 4
  39:src/syscall_cpp.cpp ****     a2 = (uint64)body;
 571              		.loc 2 39 18 is_stmt 0 discriminator 4
 572 023c 93848400 		addi	s1,s1,8
 573              	.LVL39:
  40:src/syscall_cpp.cpp ****     a3 = (uint64)arg;
 574              		.loc 2 40 5 is_stmt 1 discriminator 4
  41:src/syscall_cpp.cpp ****     a6 = (uint64)false;
 575              		.loc 2 41 5 discriminator 4
  42:src/syscall_cpp.cpp **** 
 576              		.loc 2 42 5 discriminator 4
  44:src/syscall_cpp.cpp **** 
 577              		.loc 2 44 5 discriminator 4
  47:src/syscall_cpp.cpp **** 
 578              		.loc 2 47 5 discriminator 4
  47:src/syscall_cpp.cpp **** 
 579              		.loc 2 47 53 is_stmt 0 discriminator 4
 580 0240 93071001 		li	a5,17
 581 0244 2338F4F8 		sd	a5,-112(s0)
 582 0248 233C94F8 		sd	s1,-104(s0)
 583 024c 233024FB 		sd	s2,-96(s0)
GAS LISTING /tmp/ccdXOwLo.s 			page 17


 584 0250 233434FB 		sd	s3,-88(s0)
 585 0254 2338A4FA 		sd	a0,-80(s0)
 586 0258 233C04FA 		sd	zero,-72(s0)
 587 025c 233004FC 		sd	zero,-64(s0)
 588 0260 233404FC 		sd	zero,-56(s0)
  50:src/syscall_cpp.cpp **** 
 589              		.loc 2 50 5 is_stmt 1 discriminator 4
  50:src/syscall_cpp.cpp **** 
 590              		.loc 2 50 18 is_stmt 0 discriminator 4
 591 0264 130504F9 		addi	a0,s0,-112
 592              	.LVL40:
 593 0268 97000000 		call	_ZN3abi8sys_callEPv@plt
 593      E7800000 
 594              	.LVL41:
 595              	.L29:
 596              	.LBE21:
 597              	.LBE20:
  52:src/syscall_cpp.cpp **** 
 598              		.loc 2 52 1
 599 0270 83308106 		ld	ra,104(sp)
 600              		.cfi_remember_state
 601              		.cfi_restore 1
 602 0274 03340106 		ld	s0,96(sp)
 603              		.cfi_restore 8
 604              		.cfi_def_cfa 2, 112
 605 0278 83348105 		ld	s1,88(sp)
 606              		.cfi_restore 9
 607 027c 03390105 		ld	s2,80(sp)
 608              		.cfi_restore 18
 609              	.LVL42:
 610 0280 83398104 		ld	s3,72(sp)
 611              		.cfi_restore 19
 612              	.LVL43:
 613 0284 13010107 		addi	sp,sp,112
 614              		.cfi_def_cfa_offset 0
 615 0288 67800000 		jr	ra
 616              	.LVL44:
 617              	.L35:
 618              		.cfi_restore_state
 619              	.LBB23:
 620              	.LBB22:
  27:src/syscall_cpp.cpp ****         return;
 621              		.loc 2 27 9 is_stmt 1
  27:src/syscall_cpp.cpp ****         return;
 622              		.loc 2 27 24 is_stmt 0
 623 028c 23B40400 		sd	zero,8(s1)
  28:src/syscall_cpp.cpp ****     }
 624              		.loc 2 28 9 is_stmt 1
 625 0290 6FF01FFE 		j	.L29
 626              	.L36:
  31:src/syscall_cpp.cpp **** 
 627              		.loc 2 31 35 is_stmt 0
 628 0294 13050000 		li	a0,0
 629              	.LVL45:
 630 0298 6FF05FFA 		j	.L32
 631              	.LBE22:
 632              	.LBE23:
GAS LISTING /tmp/ccdXOwLo.s 			page 18


 633              		.cfi_endproc
 634              	.LFE45:
 636              		.globl	_ZN6ThreadC1EPFvPvES0_
 637              		.set	_ZN6ThreadC1EPFvPvES0_,_ZN6ThreadC2EPFvPvES0_
 638              		.align	2
 639              		.globl	_ZN6Thread5startEv
 641              	_ZN6Thread5startEv:
 642              	.LFB51:
  58:src/syscall_cpp.cpp ****     put_in_scheduler(myHandle);
 643              		.loc 2 58 21 is_stmt 1
 644              		.cfi_startproc
 645              	.LVL46:
 646 029c 130101FF 		addi	sp,sp,-16
 647              		.cfi_def_cfa_offset 16
 648 02a0 23341100 		sd	ra,8(sp)
 649 02a4 23308100 		sd	s0,0(sp)
 650              		.cfi_offset 1, -8
 651              		.cfi_offset 8, -16
 652 02a8 13040101 		addi	s0,sp,16
 653              		.cfi_def_cfa 8, 0
  59:src/syscall_cpp.cpp ****     return 0;
 654              		.loc 2 59 5
  59:src/syscall_cpp.cpp ****     return 0;
 655              		.loc 2 59 21 is_stmt 0
 656 02ac 03358500 		ld	a0,8(a0)
 657              	.LVL47:
 658 02b0 97000000 		call	put_in_scheduler@plt
 658      E7800000 
 659              	.LVL48:
  60:src/syscall_cpp.cpp **** }
 660              		.loc 2 60 5 is_stmt 1
  61:src/syscall_cpp.cpp **** 
 661              		.loc 2 61 1 is_stmt 0
 662 02b8 13050000 		li	a0,0
 663 02bc 83308100 		ld	ra,8(sp)
 664              		.cfi_restore 1
 665 02c0 03340100 		ld	s0,0(sp)
 666              		.cfi_restore 8
 667              		.cfi_def_cfa 2, 16
 668 02c4 13010101 		addi	sp,sp,16
 669              		.cfi_def_cfa_offset 0
 670 02c8 67800000 		jr	ra
 671              		.cfi_endproc
 672              	.LFE51:
 674              		.align	2
 675              		.globl	_ZN6Thread8dispatchEv
 677              	_ZN6Thread8dispatchEv:
 678              	.LFB52:
  63:src/syscall_cpp.cpp ****     thread_dispatch();
 679              		.loc 2 63 25 is_stmt 1
 680              		.cfi_startproc
 681 02cc 130101FF 		addi	sp,sp,-16
 682              		.cfi_def_cfa_offset 16
 683 02d0 23341100 		sd	ra,8(sp)
 684 02d4 23308100 		sd	s0,0(sp)
 685              		.cfi_offset 1, -8
 686              		.cfi_offset 8, -16
GAS LISTING /tmp/ccdXOwLo.s 			page 19


 687 02d8 13040101 		addi	s0,sp,16
 688              		.cfi_def_cfa 8, 0
  64:src/syscall_cpp.cpp **** }
 689              		.loc 2 64 5
  64:src/syscall_cpp.cpp **** }
 690              		.loc 2 64 20 is_stmt 0
 691 02dc 97000000 		call	thread_dispatch@plt
 691      E7800000 
 692              	.LVL49:
  65:src/syscall_cpp.cpp **** 
 693              		.loc 2 65 1
 694 02e4 83308100 		ld	ra,8(sp)
 695              		.cfi_restore 1
 696 02e8 03340100 		ld	s0,0(sp)
 697              		.cfi_restore 8
 698              		.cfi_def_cfa 2, 16
 699 02ec 13010101 		addi	sp,sp,16
 700              		.cfi_def_cfa_offset 0
 701 02f0 67800000 		jr	ra
 702              		.cfi_endproc
 703              	.LFE52:
 705              		.align	2
 706              		.globl	_ZN6Thread5sleepEm
 708              	_ZN6Thread5sleepEm:
 709              	.LFB53:
  67:src/syscall_cpp.cpp ****     return time_sleep(time);
 710              		.loc 2 67 32 is_stmt 1
 711              		.cfi_startproc
 712              	.LVL50:
 713 02f4 130101FF 		addi	sp,sp,-16
 714              		.cfi_def_cfa_offset 16
 715 02f8 23341100 		sd	ra,8(sp)
 716 02fc 23308100 		sd	s0,0(sp)
 717              		.cfi_offset 1, -8
 718              		.cfi_offset 8, -16
 719 0300 13040101 		addi	s0,sp,16
 720              		.cfi_def_cfa 8, 0
  68:src/syscall_cpp.cpp **** }
 721              		.loc 2 68 5
  68:src/syscall_cpp.cpp **** }
 722              		.loc 2 68 22 is_stmt 0
 723 0304 97000000 		call	time_sleep@plt
 723      E7800000 
 724              	.LVL51:
  69:src/syscall_cpp.cpp **** 
 725              		.loc 2 69 1
 726 030c 83308100 		ld	ra,8(sp)
 727              		.cfi_restore 1
 728 0310 03340100 		ld	s0,0(sp)
 729              		.cfi_restore 8
 730              		.cfi_def_cfa 2, 16
 731 0314 13010101 		addi	sp,sp,16
 732              		.cfi_def_cfa_offset 0
 733 0318 67800000 		jr	ra
 734              		.cfi_endproc
 735              	.LFE53:
 737              		.align	2
GAS LISTING /tmp/ccdXOwLo.s 			page 20


 738              		.globl	_ZN14PeriodicThread3runEv
 740              	_ZN14PeriodicThread3runEv:
 741              	.LFB72:
 105:src/syscall_cpp.cpp **** 
 106:src/syscall_cpp.cpp **** int Semaphore::wait() {
 107:src/syscall_cpp.cpp ****     return sem_wait(myHandle);
 108:src/syscall_cpp.cpp **** }
 109:src/syscall_cpp.cpp **** 
 110:src/syscall_cpp.cpp **** int Semaphore::signal() {
 111:src/syscall_cpp.cpp ****     return sem_signal(myHandle);
 112:src/syscall_cpp.cpp **** }
 113:src/syscall_cpp.cpp **** 
 114:src/syscall_cpp.cpp **** char Console::getc() {
 115:src/syscall_cpp.cpp ****     return ::getc();
 116:src/syscall_cpp.cpp **** }
 117:src/syscall_cpp.cpp **** 
 118:src/syscall_cpp.cpp **** void Console::putc(char c) {
 119:src/syscall_cpp.cpp ****     ::putc(c);
 120:src/syscall_cpp.cpp **** }
 121:src/syscall_cpp.cpp **** 
 122:src/syscall_cpp.cpp **** uint64 PeriodicThread::ID = 0;
 123:src/syscall_cpp.cpp **** 
 124:src/syscall_cpp.cpp **** PeriodicThread::PeriodicThread(time_t period) {
 125:src/syscall_cpp.cpp ****     time = period;
 126:src/syscall_cpp.cpp ****     flag_stop = true;
 127:src/syscall_cpp.cpp ****     set_periodic((thread_t)this);
 128:src/syscall_cpp.cpp **** }
 129:src/syscall_cpp.cpp **** 
 130:src/syscall_cpp.cpp **** void PeriodicThread::run() {
 742              		.loc 2 130 28 is_stmt 1
 743              		.cfi_startproc
 744              	.LVL52:
 745 031c 130101FE 		addi	sp,sp,-32
 746              		.cfi_def_cfa_offset 32
 747 0320 233C1100 		sd	ra,24(sp)
 748 0324 23388100 		sd	s0,16(sp)
 749 0328 23349100 		sd	s1,8(sp)
 750              		.cfi_offset 1, -8
 751              		.cfi_offset 8, -16
 752              		.cfi_offset 9, -24
 753 032c 13040102 		addi	s0,sp,32
 754              		.cfi_def_cfa 8, 0
 755 0330 93040500 		mv	s1,a0
 756              	.LVL53:
 757              	.L45:
 131:src/syscall_cpp.cpp ****     while(flag_stop){
 758              		.loc 2 131 5
 759              		.loc 2 131 11
 760 0334 83C78401 		lbu	a5,24(s1)
 761 0338 63820702 		beqz	a5,.L43
 132:src/syscall_cpp.cpp ****         periodicActivation();
 762              		.loc 2 132 9
 763              		.loc 2 132 28 is_stmt 0
 764 033c 83B70400 		ld	a5,0(s1)
 765 0340 83B78701 		ld	a5,24(a5)
 766              		.loc 2 132 27
 767 0344 13850400 		mv	a0,s1
GAS LISTING /tmp/ccdXOwLo.s 			page 21


 768 0348 E7800700 		jalr	a5
 769              	.LVL54:
 133:src/syscall_cpp.cpp ****         sleep(time);
 770              		.loc 2 133 9 is_stmt 1
 771              		.loc 2 133 14 is_stmt 0
 772 034c 03B50401 		ld	a0,16(s1)
 773 0350 97000000 		call	_ZN6Thread5sleepEm
 773      E7800000 
 774              	.LVL55:
 131:src/syscall_cpp.cpp ****     while(flag_stop){
 775              		.loc 2 131 5
 776 0358 6FF0DFFD 		j	.L45
 777              	.L43:
 134:src/syscall_cpp.cpp ****     }
 135:src/syscall_cpp.cpp **** }
 778              		.loc 2 135 1
 779 035c 83308101 		ld	ra,24(sp)
 780              		.cfi_restore 1
 781 0360 03340101 		ld	s0,16(sp)
 782              		.cfi_restore 8
 783              		.cfi_def_cfa 2, 32
 784 0364 83348100 		ld	s1,8(sp)
 785              		.cfi_restore 9
 786              	.LVL56:
 787 0368 13010102 		addi	sp,sp,32
 788              		.cfi_def_cfa_offset 0
 789 036c 67800000 		jr	ra
 790              		.cfi_endproc
 791              	.LFE72:
 793              		.align	2
 794              		.globl	_ZN6ThreadC2Ev
 796              	_ZN6ThreadC2Ev:
 797              	.LFB55:
  71:src/syscall_cpp.cpp ****     // inicijalizacija steka
 798              		.loc 2 71 1 is_stmt 1
 799              		.cfi_startproc
 800              	.LVL57:
 801 0370 130101FA 		addi	sp,sp,-96
 802              		.cfi_def_cfa_offset 96
 803 0374 233C1104 		sd	ra,88(sp)
 804 0378 23388104 		sd	s0,80(sp)
 805 037c 23349104 		sd	s1,72(sp)
 806              		.cfi_offset 1, -8
 807              		.cfi_offset 8, -16
 808              		.cfi_offset 9, -24
 809 0380 13040106 		addi	s0,sp,96
 810              		.cfi_def_cfa 8, 0
 811 0384 93040500 		mv	s1,a0
 812              	.LBB24:
  71:src/syscall_cpp.cpp ****     // inicijalizacija steka
 813              		.loc 2 71 16 is_stmt 0
 814 0388 97070000 		lla	a5,_ZTV6Thread+16
 814      93870700 
 815 0390 2330F500 		sd	a5,0(a0)
 816              	.LBB25:
  73:src/syscall_cpp.cpp **** 
 817              		.loc 2 73 5 is_stmt 1
GAS LISTING /tmp/ccdXOwLo.s 			page 22


  73:src/syscall_cpp.cpp **** 
 818              		.loc 2 73 34 is_stmt 0
 819 0394 37150000 		li	a0,4096
 820              	.LVL58:
 821 0398 97000000 		call	mem_alloc@plt
 821      E7800000 
 822              	.LVL59:
  76:src/syscall_cpp.cpp ****     // parametri
 823              		.loc 2 76 5 is_stmt 1
  78:src/syscall_cpp.cpp ****     a1 = (uint64)&myHandle;
 824              		.loc 2 78 5
  79:src/syscall_cpp.cpp ****     a2 = (uint64)&wrapper_run;
 825              		.loc 2 79 5
  79:src/syscall_cpp.cpp ****     a2 = (uint64)&wrapper_run;
 826              		.loc 2 79 18 is_stmt 0
 827 03a0 93878400 		addi	a5,s1,8
 828              	.LVL60:
  80:src/syscall_cpp.cpp ****     a3 = (uint64)this;
 829              		.loc 2 80 5 is_stmt 1
  81:src/syscall_cpp.cpp ****     a6 = (uint64)false;
 830              		.loc 2 81 5
  82:src/syscall_cpp.cpp **** 
 831              		.loc 2 82 5
  84:src/syscall_cpp.cpp **** 
 832              		.loc 2 84 5
  87:src/syscall_cpp.cpp **** 
 833              		.loc 2 87 5
  87:src/syscall_cpp.cpp **** 
 834              		.loc 2 87 53 is_stmt 0
 835 03a4 13071001 		li	a4,17
 836 03a8 2330E4FA 		sd	a4,-96(s0)
 837 03ac 2334F4FA 		sd	a5,-88(s0)
 838 03b0 97070000 		lla	a5,_ZN6Thread11wrapper_runEPv
 838      93870700 
 839              	.LVL61:
 840 03b8 2338F4FA 		sd	a5,-80(s0)
 841 03bc 233C94FA 		sd	s1,-72(s0)
 842 03c0 2330A4FC 		sd	a0,-64(s0)
 843 03c4 233404FC 		sd	zero,-56(s0)
 844 03c8 233804FC 		sd	zero,-48(s0)
 845 03cc 233C04FC 		sd	zero,-40(s0)
  90:src/syscall_cpp.cpp **** 
 846              		.loc 2 90 5 is_stmt 1
  90:src/syscall_cpp.cpp **** 
 847              		.loc 2 90 18 is_stmt 0
 848 03d0 130504FA 		addi	a0,s0,-96
 849              	.LVL62:
 850 03d4 97000000 		call	_ZN3abi8sys_callEPv@plt
 850      E7800000 
 851              	.LVL63:
 852              	.LBE25:
 853              	.LBE24:
  92:src/syscall_cpp.cpp **** 
 854              		.loc 2 92 1
 855 03dc 83308105 		ld	ra,88(sp)
 856              		.cfi_restore 1
 857 03e0 03340105 		ld	s0,80(sp)
GAS LISTING /tmp/ccdXOwLo.s 			page 23


 858              		.cfi_restore 8
 859              		.cfi_def_cfa 2, 96
 860 03e4 83348104 		ld	s1,72(sp)
 861              		.cfi_restore 9
 862              	.LVL64:
 863 03e8 13010106 		addi	sp,sp,96
 864              		.cfi_def_cfa_offset 0
 865 03ec 67800000 		jr	ra
 866              		.cfi_endproc
 867              	.LFE55:
 869              		.globl	_ZN6ThreadC1Ev
 870              		.set	_ZN6ThreadC1Ev,_ZN6ThreadC2Ev
 871              		.align	2
 872              		.globl	_ZN9SemaphoreC2Ej
 874              	_ZN9SemaphoreC2Ej:
 875              	.LFB59:
  98:src/syscall_cpp.cpp ****     sem_open(&myHandle, init);
 876              		.loc 2 98 1 is_stmt 1
 877              		.cfi_startproc
 878              	.LVL65:
 879 03f0 130101FF 		addi	sp,sp,-16
 880              		.cfi_def_cfa_offset 16
 881 03f4 23341100 		sd	ra,8(sp)
 882 03f8 23308100 		sd	s0,0(sp)
 883              		.cfi_offset 1, -8
 884              		.cfi_offset 8, -16
 885 03fc 13040101 		addi	s0,sp,16
 886              		.cfi_def_cfa 8, 0
 887              	.LBB26:
  98:src/syscall_cpp.cpp ****     sem_open(&myHandle, init);
 888              		.loc 2 98 39 is_stmt 0
 889 0400 97070000 		lla	a5,_ZTV9Semaphore+16
 889      93870700 
 890 0408 2330F500 		sd	a5,0(a0)
  99:src/syscall_cpp.cpp **** }
 891              		.loc 2 99 5 is_stmt 1
  99:src/syscall_cpp.cpp **** }
 892              		.loc 2 99 13 is_stmt 0
 893 040c 93950502 		slli	a1,a1,32
 894              	.LVL66:
 895 0410 93D50502 		srli	a1,a1,32
 896 0414 13058500 		addi	a0,a0,8
 897              	.LVL67:
 898 0418 97000000 		call	sem_open@plt
 898      E7800000 
 899              	.LVL68:
 900              	.LBE26:
 100:src/syscall_cpp.cpp **** 
 901              		.loc 2 100 1
 902 0420 83308100 		ld	ra,8(sp)
 903              		.cfi_restore 1
 904 0424 03340100 		ld	s0,0(sp)
 905              		.cfi_restore 8
 906              		.cfi_def_cfa 2, 16
 907 0428 13010101 		addi	sp,sp,16
 908              		.cfi_def_cfa_offset 0
 909 042c 67800000 		jr	ra
GAS LISTING /tmp/ccdXOwLo.s 			page 24


 910              		.cfi_endproc
 911              	.LFE59:
 913              		.globl	_ZN9SemaphoreC1Ej
 914              		.set	_ZN9SemaphoreC1Ej,_ZN9SemaphoreC2Ej
 915              		.align	2
 916              		.globl	_ZN9Semaphore4waitEv
 918              	_ZN9Semaphore4waitEv:
 919              	.LFB65:
 106:src/syscall_cpp.cpp ****     return sem_wait(myHandle);
 920              		.loc 2 106 23 is_stmt 1
 921              		.cfi_startproc
 922              	.LVL69:
 923 0430 130101FF 		addi	sp,sp,-16
 924              		.cfi_def_cfa_offset 16
 925 0434 23341100 		sd	ra,8(sp)
 926 0438 23308100 		sd	s0,0(sp)
 927              		.cfi_offset 1, -8
 928              		.cfi_offset 8, -16
 929 043c 13040101 		addi	s0,sp,16
 930              		.cfi_def_cfa 8, 0
 107:src/syscall_cpp.cpp **** }
 931              		.loc 2 107 5
 107:src/syscall_cpp.cpp **** }
 932              		.loc 2 107 20 is_stmt 0
 933 0440 03358500 		ld	a0,8(a0)
 934              	.LVL70:
 935 0444 97000000 		call	sem_wait@plt
 935      E7800000 
 936              	.LVL71:
 108:src/syscall_cpp.cpp **** 
 937              		.loc 2 108 1
 938 044c 83308100 		ld	ra,8(sp)
 939              		.cfi_restore 1
 940 0450 03340100 		ld	s0,0(sp)
 941              		.cfi_restore 8
 942              		.cfi_def_cfa 2, 16
 943 0454 13010101 		addi	sp,sp,16
 944              		.cfi_def_cfa_offset 0
 945 0458 67800000 		jr	ra
 946              		.cfi_endproc
 947              	.LFE65:
 949              		.align	2
 950              		.globl	_ZN9Semaphore6signalEv
 952              	_ZN9Semaphore6signalEv:
 953              	.LFB66:
 110:src/syscall_cpp.cpp ****     return sem_signal(myHandle);
 954              		.loc 2 110 25 is_stmt 1
 955              		.cfi_startproc
 956              	.LVL72:
 957 045c 130101FF 		addi	sp,sp,-16
 958              		.cfi_def_cfa_offset 16
 959 0460 23341100 		sd	ra,8(sp)
 960 0464 23308100 		sd	s0,0(sp)
 961              		.cfi_offset 1, -8
 962              		.cfi_offset 8, -16
 963 0468 13040101 		addi	s0,sp,16
 964              		.cfi_def_cfa 8, 0
GAS LISTING /tmp/ccdXOwLo.s 			page 25


 111:src/syscall_cpp.cpp **** }
 965              		.loc 2 111 5
 111:src/syscall_cpp.cpp **** }
 966              		.loc 2 111 22 is_stmt 0
 967 046c 03358500 		ld	a0,8(a0)
 968              	.LVL73:
 969 0470 97000000 		call	sem_signal@plt
 969      E7800000 
 970              	.LVL74:
 112:src/syscall_cpp.cpp **** 
 971              		.loc 2 112 1
 972 0478 83308100 		ld	ra,8(sp)
 973              		.cfi_restore 1
 974 047c 03340100 		ld	s0,0(sp)
 975              		.cfi_restore 8
 976              		.cfi_def_cfa 2, 16
 977 0480 13010101 		addi	sp,sp,16
 978              		.cfi_def_cfa_offset 0
 979 0484 67800000 		jr	ra
 980              		.cfi_endproc
 981              	.LFE66:
 983              		.align	2
 984              		.globl	_ZN7Console4getcEv
 986              	_ZN7Console4getcEv:
 987              	.LFB67:
 114:src/syscall_cpp.cpp ****     return ::getc();
 988              		.loc 2 114 22 is_stmt 1
 989              		.cfi_startproc
 990 0488 130101FF 		addi	sp,sp,-16
 991              		.cfi_def_cfa_offset 16
 992 048c 23341100 		sd	ra,8(sp)
 993 0490 23308100 		sd	s0,0(sp)
 994              		.cfi_offset 1, -8
 995              		.cfi_offset 8, -16
 996 0494 13040101 		addi	s0,sp,16
 997              		.cfi_def_cfa 8, 0
 115:src/syscall_cpp.cpp **** }
 998              		.loc 2 115 5
 115:src/syscall_cpp.cpp **** }
 999              		.loc 2 115 18 is_stmt 0
 1000 0498 97000000 		call	getc@plt
 1000      E7800000 
 1001              	.LVL75:
 116:src/syscall_cpp.cpp **** 
 1002              		.loc 2 116 1
 1003 04a0 83308100 		ld	ra,8(sp)
 1004              		.cfi_restore 1
 1005 04a4 03340100 		ld	s0,0(sp)
 1006              		.cfi_restore 8
 1007              		.cfi_def_cfa 2, 16
 1008 04a8 13010101 		addi	sp,sp,16
 1009              		.cfi_def_cfa_offset 0
 1010 04ac 67800000 		jr	ra
 1011              		.cfi_endproc
 1012              	.LFE67:
 1014              		.align	2
 1015              		.globl	_ZN7Console4putcEc
GAS LISTING /tmp/ccdXOwLo.s 			page 26


 1017              	_ZN7Console4putcEc:
 1018              	.LFB68:
 118:src/syscall_cpp.cpp ****     ::putc(c);
 1019              		.loc 2 118 28 is_stmt 1
 1020              		.cfi_startproc
 1021              	.LVL76:
 1022 04b0 130101FF 		addi	sp,sp,-16
 1023              		.cfi_def_cfa_offset 16
 1024 04b4 23341100 		sd	ra,8(sp)
 1025 04b8 23308100 		sd	s0,0(sp)
 1026              		.cfi_offset 1, -8
 1027              		.cfi_offset 8, -16
 1028 04bc 13040101 		addi	s0,sp,16
 1029              		.cfi_def_cfa 8, 0
 119:src/syscall_cpp.cpp **** }
 1030              		.loc 2 119 5
 119:src/syscall_cpp.cpp **** }
 1031              		.loc 2 119 11 is_stmt 0
 1032 04c0 97000000 		call	putc@plt
 1032      E7800000 
 1033              	.LVL77:
 120:src/syscall_cpp.cpp **** 
 1034              		.loc 2 120 1
 1035 04c8 83308100 		ld	ra,8(sp)
 1036              		.cfi_restore 1
 1037 04cc 03340100 		ld	s0,0(sp)
 1038              		.cfi_restore 8
 1039              		.cfi_def_cfa 2, 16
 1040 04d0 13010101 		addi	sp,sp,16
 1041              		.cfi_def_cfa_offset 0
 1042 04d4 67800000 		jr	ra
 1043              		.cfi_endproc
 1044              	.LFE68:
 1046              		.align	2
 1047              		.globl	_ZN14PeriodicThreadC2Em
 1049              	_ZN14PeriodicThreadC2Em:
 1050              	.LFB70:
 124:src/syscall_cpp.cpp ****     time = period;
 1051              		.loc 2 124 1 is_stmt 1
 1052              		.cfi_startproc
 1053              		.cfi_personality 0x9b,DW.ref.__gxx_personality_v0
 1054              		.cfi_lsda 0x1b,.LLSDA70
 1055              	.LVL78:
 1056 04d8 130101FE 		addi	sp,sp,-32
 1057              		.cfi_def_cfa_offset 32
 1058 04dc 233C1100 		sd	ra,24(sp)
 1059 04e0 23388100 		sd	s0,16(sp)
 1060 04e4 23349100 		sd	s1,8(sp)
 1061 04e8 23302101 		sd	s2,0(sp)
 1062              		.cfi_offset 1, -8
 1063              		.cfi_offset 8, -16
 1064              		.cfi_offset 9, -24
 1065              		.cfi_offset 18, -32
 1066 04ec 13040102 		addi	s0,sp,32
 1067              		.cfi_def_cfa 8, 0
 1068 04f0 93040500 		mv	s1,a0
 1069 04f4 13890500 		mv	s2,a1
GAS LISTING /tmp/ccdXOwLo.s 			page 27


 1070              	.LEHB0:
 1071              	.LBB27:
 124:src/syscall_cpp.cpp ****     time = period;
 1072              		.loc 2 124 45 is_stmt 0
 1073 04f8 97000000 		call	_ZN6ThreadC2Ev
 1073      E7800000 
 1074              	.LVL79:
 1075              	.LEHE0:
 1076 0500 97070000 		lla	a5,_ZTV14PeriodicThread+16
 1076      93870700 
 1077 0508 23B0F400 		sd	a5,0(s1)
 1078 050c 17070000 		lla	a4,.LANCHOR0
 1078      13070700 
 1079 0514 83370700 		ld	a5,0(a4)
 1080 0518 93861700 		addi	a3,a5,1
 1081 051c 2330D700 		sd	a3,0(a4)
 1082 0520 23B0F402 		sd	a5,32(s1)
 125:src/syscall_cpp.cpp ****     flag_stop = true;
 1083              		.loc 2 125 5 is_stmt 1
 125:src/syscall_cpp.cpp ****     flag_stop = true;
 1084              		.loc 2 125 10 is_stmt 0
 1085 0524 23B82401 		sd	s2,16(s1)
 126:src/syscall_cpp.cpp ****     set_periodic((thread_t)this);
 1086              		.loc 2 126 5 is_stmt 1
 126:src/syscall_cpp.cpp ****     set_periodic((thread_t)this);
 1087              		.loc 2 126 15 is_stmt 0
 1088 0528 93071000 		li	a5,1
 1089 052c 238CF400 		sb	a5,24(s1)
 127:src/syscall_cpp.cpp **** }
 1090              		.loc 2 127 5 is_stmt 1
 127:src/syscall_cpp.cpp **** }
 1091              		.loc 2 127 17 is_stmt 0
 1092 0530 13850400 		mv	a0,s1
 1093              	.LEHB1:
 1094 0534 97000000 		call	set_periodic@plt
 1094      E7800000 
 1095              	.LVL80:
 1096              	.LEHE1:
 1097 053c 6F000002 		j	.L64
 1098              	.L61:
 1099 0540 13090500 		mv	s2,a0
 1100              	.LVL81:
 124:src/syscall_cpp.cpp ****     time = period;
 1101              		.loc 2 124 45
 1102 0544 13850400 		mv	a0,s1
 1103 0548 97000000 		call	_ZN6ThreadD2Ev
 1103      E7800000 
 1104              	.LVL82:
 1105 0550 13050900 		mv	a0,s2
 1106              	.LEHB2:
 1107 0554 97000000 		call	_Unwind_Resume@plt
 1107      E7800000 
 1108              	.LVL83:
 1109              	.LEHE2:
 1110              	.L64:
 1111              	.LBE27:
 128:src/syscall_cpp.cpp **** 
GAS LISTING /tmp/ccdXOwLo.s 			page 28


 1112              		.loc 2 128 1
 1113 055c 83308101 		ld	ra,24(sp)
 1114              		.cfi_restore 1
 1115 0560 03340101 		ld	s0,16(sp)
 1116              		.cfi_restore 8
 1117              		.cfi_def_cfa 2, 32
 1118 0564 83348100 		ld	s1,8(sp)
 1119              		.cfi_restore 9
 1120              	.LVL84:
 1121 0568 03390100 		ld	s2,0(sp)
 1122              		.cfi_restore 18
 1123              	.LVL85:
 1124 056c 13010102 		addi	sp,sp,32
 1125              		.cfi_def_cfa_offset 0
 1126 0570 67800000 		jr	ra
 1127              		.cfi_endproc
 1128              	.LFE70:
 1129              		.section	.gcc_except_table
 1130              	.LLSDA70:
 1131 0008 FF       		.byte	0xff
 1132 0009 FF       		.byte	0xff
 1133 000a 03       		.byte	0x3
 1134 000b 27       		.byte	0x27
 1135 000c 00000000 		.4byte	.LEHB0-.LFB70
 1136 0010 00000000 		.4byte	.LEHE0-.LEHB0
 1137 0014 00000000 		.4byte	0
 1138 0018 00       		.byte	0
 1139 0019 00000000 		.4byte	.LEHB1-.LFB70
 1140 001d 00000000 		.4byte	.LEHE1-.LEHB1
 1141 0021 00000000 		.4byte	.L61-.LFB70
 1142 0025 00       		.byte	0
 1143 0026 00000000 		.4byte	.LEHB2-.LFB70
 1144 002a 00000000 		.4byte	.LEHE2-.LEHB2
 1145 002e 00000000 		.4byte	0
 1146 0032 00       		.byte	0
 1147              		.text
 1149              		.globl	_ZN14PeriodicThreadC1Em
 1150              		.set	_ZN14PeriodicThreadC1Em,_ZN14PeriodicThreadC2Em
 1151              		.weak	_ZTV6Thread
 1152              		.section	.data.rel.ro.local._ZTV6Thread,"awG",@progbits,_ZTV6Thread,comdat
 1153              		.align	3
 1156              	_ZTV6Thread:
 1157 0000 00000000 		.dword	0
 1157      00000000 
 1158 0008 00000000 		.dword	0
 1158      00000000 
 1159 0010 00000000 		.dword	_ZN6ThreadD1Ev
 1159      00000000 
 1160 0018 00000000 		.dword	_ZN6ThreadD0Ev
 1160      00000000 
 1161 0020 00000000 		.dword	_ZN6Thread3runEv
 1161      00000000 
 1162              		.weak	_ZTV9Semaphore
 1163              		.section	.data.rel.ro.local._ZTV9Semaphore,"awG",@progbits,_ZTV9Semaphore,comdat
 1164              		.align	3
 1167              	_ZTV9Semaphore:
 1168 0000 00000000 		.dword	0
GAS LISTING /tmp/ccdXOwLo.s 			page 29


 1168      00000000 
 1169 0008 00000000 		.dword	0
 1169      00000000 
 1170 0010 00000000 		.dword	_ZN9SemaphoreD1Ev
 1170      00000000 
 1171 0018 00000000 		.dword	_ZN9SemaphoreD0Ev
 1171      00000000 
 1172              		.weak	_ZTV14PeriodicThread
 1173              		.section	.data.rel.ro.local._ZTV14PeriodicThread,"awG",@progbits,_ZTV14PeriodicThread,comdat
 1174              		.align	3
 1177              	_ZTV14PeriodicThread:
 1178 0000 00000000 		.dword	0
 1178      00000000 
 1179 0008 00000000 		.dword	0
 1179      00000000 
 1180 0010 00000000 		.dword	_ZN14PeriodicThreadD1Ev
 1180      00000000 
 1181 0018 00000000 		.dword	_ZN14PeriodicThreadD0Ev
 1181      00000000 
 1182 0020 00000000 		.dword	_ZN14PeriodicThread3runEv
 1182      00000000 
 1183 0028 00000000 		.dword	_ZN14PeriodicThread18periodicActivationEv
 1183      00000000 
 1184              		.globl	_ZN14PeriodicThread2IDE
 1185              		.bss
 1186              		.align	3
 1187              		.set	.LANCHOR0,. + 0
 1190              	_ZN14PeriodicThread2IDE:
 1191 0000 00000000 		.zero	8
 1191      00000000 
 1192              		.text
 1193              	.Letext0:
 1194              		.file 5 "src/../h/../h/../h/../h/../lib/hw.h"
 1195              		.file 6 "src/../h/../h/../h/../h/../h/SlabI.h"
 1196              		.file 7 "src/../h/../h/syscall_c.h"
 6307              		.align	3
 6310              	DW.ref.__gxx_personality_v0:
 6311 0000 00000000 		.dword	__gxx_personality_v0
 6311      00000000 
 6312              		.ident	"GCC: (Ubuntu 9.4.0-1ubuntu1~20.04) 9.4.0"
 6313              		.section	.note.GNU-stack,"",@progbits
GAS LISTING /tmp/ccdXOwLo.s 			page 30

