GAS LISTING /tmp/ccVGozWR.s 			page 1


   1              		.file	"TCB.cpp"
   2              		.option pic
   3              		.option norelax
   4              		.text
   5              	.Ltext0:
   6              		.align	2
   7              		.globl	_ZN3TCB15thread_dispatchEv
   9              	_ZN3TCB15thread_dispatchEv:
  10              	.LFB58:
  11              		.file 1 "src/TCB.cpp"
   1:src/TCB.cpp   **** #include "../h/TCB.hpp"
   2:src/TCB.cpp   **** #include "../h/riscv.hpp"
   3:src/TCB.cpp   **** 
   4:src/TCB.cpp   **** TCB* TCB::running = nullptr;
   5:src/TCB.cpp   **** TCB* TCB::idle = nullptr;
   6:src/TCB.cpp   **** uint64 TCB::time_slice_counter = 0;
   7:src/TCB.cpp   **** uint64 TCB::ID = 0;
   8:src/TCB.cpp   **** 
   9:src/TCB.cpp   **** int TCB::thread_create(TCB **handle,
  10:src/TCB.cpp   ****                        void (*start_routine)(void *),
  11:src/TCB.cpp   ****                        void *arg,
  12:src/TCB.cpp   ****                        void* stack_space,
  13:src/TCB.cpp   ****                        bool flag
  14:src/TCB.cpp   ****                        ) {
  15:src/TCB.cpp   ****     TCB* tmp = (TCB*)new TCB(start_routine, arg, stack_space, flag);
  16:src/TCB.cpp   ****     *handle = tmp;
  17:src/TCB.cpp   ****     if (start_routine != nullptr && tmp != TCB::idle && flag) {
  18:src/TCB.cpp   ****         Scheduler::getInstance().put(tmp);
  19:src/TCB.cpp   ****     }
  20:src/TCB.cpp   ****     if(*handle) return 0;
  21:src/TCB.cpp   ****     else return -1;
  22:src/TCB.cpp   **** }
  23:src/TCB.cpp   **** 
  24:src/TCB.cpp   **** int TCB::thread_exit() {
  25:src/TCB.cpp   ****     running->set_finished(true);
  26:src/TCB.cpp   ****     TCB::thread_dispatch();
  27:src/TCB.cpp   ****     // do ovog dela nece nikad doci jer thread_dispatch nece nit koju gasimo staviti u scheduler
  28:src/TCB.cpp   ****     return -1;
  29:src/TCB.cpp   **** }
  30:src/TCB.cpp   **** 
  31:src/TCB.cpp   **** void TCB::thread_dispatch() {
  12              		.loc 1 31 29
  13              		.cfi_startproc
  14              		.cfi_personality 0x9b,DW.ref.__gxx_personality_v0
  15              		.cfi_lsda 0x1b,.LLSDA58
  16 0000 130101FE 		addi	sp,sp,-32
  17              		.cfi_def_cfa_offset 32
  18 0004 233C1100 		sd	ra,24(sp)
  19 0008 23388100 		sd	s0,16(sp)
  20 000c 23349100 		sd	s1,8(sp)
  21              		.cfi_offset 1, -8
  22              		.cfi_offset 8, -16
  23              		.cfi_offset 9, -24
  24 0010 13040102 		addi	s0,sp,32
  25              		.cfi_def_cfa 8, 0
  32:src/TCB.cpp   **** //    Scheduler::printScheduler();
  33:src/TCB.cpp   ****     TCB * old = running;
GAS LISTING /tmp/ccVGozWR.s 			page 2


  26              		.loc 1 33 5
  27              		.loc 1 33 11 is_stmt 0
  28 0014 97040000 		ld	s1,.LANCHOR0
  28      83B40400 
  29              	.LVL0:
  34:src/TCB.cpp   ****     running = Scheduler::getInstance().get();
  30              		.loc 1 34 5 is_stmt 1
  31              	.LBB56:
  32              	.LBB57:
  33              		.file 2 "src/../h/../h/scheduler.hpp"
   1:src/../h/../h/scheduler.hpp **** #ifndef _scheduler_hpp_
   2:src/../h/../h/scheduler.hpp **** #define _scheduler_hpp_
   3:src/../h/../h/scheduler.hpp **** 
   4:src/../h/../h/scheduler.hpp **** //#include "../test/printing.hpp"
   5:src/../h/../h/scheduler.hpp **** 
   6:src/../h/../h/scheduler.hpp **** class TCB;
   7:src/../h/../h/scheduler.hpp **** 
   8:src/../h/../h/scheduler.hpp **** class Scheduler{
   9:src/../h/../h/scheduler.hpp **** public:
  10:src/../h/../h/scheduler.hpp **** 
  11:src/../h/../h/scheduler.hpp ****     static Scheduler& getInstance(){
  12:src/../h/../h/scheduler.hpp ****         static Scheduler instance;
  34              		.loc 2 12 9
  35              		.loc 2 12 26 is_stmt 0
  36 001c 97070000 		lbu	a5,_ZGVZN9Scheduler11getInstanceEvE8instance
  36      83C70700 
  37 0024 63940702 		bnez	a5,.L2
  38              	.LVL1:
  39              	.LBB58:
  40              	.LBB59:
  13:src/../h/../h/scheduler.hpp ****         return instance;
  14:src/../h/../h/scheduler.hpp ****     }
  15:src/../h/../h/scheduler.hpp **** 
  16:src/../h/../h/scheduler.hpp ****     Scheduler(const Scheduler&) = delete;
  17:src/../h/../h/scheduler.hpp ****     void operator=(Scheduler const&) = delete;
  18:src/../h/../h/scheduler.hpp **** 
  19:src/../h/../h/scheduler.hpp ****     TCB* get();
  20:src/../h/../h/scheduler.hpp **** 
  21:src/../h/../h/scheduler.hpp ****     void put(TCB* tcb);
  22:src/../h/../h/scheduler.hpp **** 
  23:src/../h/../h/scheduler.hpp **** //    static void printScheduler();
  24:src/../h/../h/scheduler.hpp **** 
  25:src/../h/../h/scheduler.hpp **** private:
  26:src/../h/../h/scheduler.hpp **** 
  27:src/../h/../h/scheduler.hpp ****     Scheduler(){
  28:src/../h/../h/scheduler.hpp ****         head = nullptr;
  41              		.loc 2 28 9 is_stmt 1
  42              		.loc 2 28 14 is_stmt 0
  43 0028 97070000 		la	a5,_ZN9Scheduler4headE
  43      83B70700 
  44 0030 23B00700 		sd	zero,0(a5)
  29:src/../h/../h/scheduler.hpp ****         tail = nullptr;
  45              		.loc 2 29 9 is_stmt 1
  46              		.loc 2 29 14 is_stmt 0
  47 0034 97070000 		la	a5,_ZN9Scheduler4tailE
  47      83B70700 
  48 003c 23B00700 		sd	zero,0(a5)
GAS LISTING /tmp/ccVGozWR.s 			page 3


  49              	.LBE59:
  50              	.LBE58:
  12:src/../h/../h/scheduler.hpp ****         return instance;
  51              		.loc 2 12 26
  52 0040 93071000 		li	a5,1
  53 0044 17070000 		sb	a5,_ZGVZN9Scheduler11getInstanceEvE8instance,a4
  53      2300F700 
  54              	.LVL2:
  55              	.L2:
  13:src/../h/../h/scheduler.hpp ****         return instance;
  56              		.loc 2 13 9 is_stmt 1
  57              	.LBE57:
  58              	.LBE56:
  59              		.loc 1 34 43 is_stmt 0
  60 004c 17050000 		lla	a0,_ZZN9Scheduler11getInstanceEvE8instance
  60      13050500 
  61              	.LEHB0:
  62 0054 97000000 		call	_ZN9Scheduler3getEv@plt
  62      E7800000 
  63              	.LVL3:
  64              		.loc 1 34 13
  65 005c 97070000 		sd	a0,.LANCHOR0,a5
  65      23B0A700 
  35:src/TCB.cpp   ****     if (!old->is_finished()) {
  66              		.loc 1 35 5 is_stmt 1
  67              	.LVL4:
  68              	.LBB60:
  69              	.LBB61:
  70              		.file 3 "src/../h/TCB.hpp"
   1:src/../h/TCB.hpp **** #ifndef _thread_hpp_
   2:src/../h/TCB.hpp **** #define _thread_hpp_
   3:src/../h/TCB.hpp **** 
   4:src/../h/TCB.hpp **** #include "../lib/hw.h"
   5:src/../h/TCB.hpp **** #include "../h/scheduler.hpp"
   6:src/../h/TCB.hpp **** #include "../h/MemoryAllocator.hpp"
   7:src/../h/TCB.hpp **** #include "../h/TS.hpp"
   8:src/../h/TCB.hpp **** #include "../h/periodic_threads.hpp"
   9:src/../h/TCB.hpp **** 
  10:src/../h/TCB.hpp **** class TCB{
  11:src/../h/TCB.hpp **** public:
  12:src/../h/TCB.hpp **** 
  13:src/../h/TCB.hpp ****     ~TCB(){
  14:src/../h/TCB.hpp ****         MemoryAllocator::getInstance().memory_free((void*)stack);
  15:src/../h/TCB.hpp ****     }
  16:src/../h/TCB.hpp **** 
  17:src/../h/TCB.hpp ****     using Body = void (*)(void*);
  18:src/../h/TCB.hpp **** 
  19:src/../h/TCB.hpp ****     // trazene
  20:src/../h/TCB.hpp ****     static int thread_create(
  21:src/../h/TCB.hpp ****         TCB** handle,
  22:src/../h/TCB.hpp ****         void(*start_routine)(void*),
  23:src/../h/TCB.hpp ****         void* arg,
  24:src/../h/TCB.hpp ****         void* stack_space,
  25:src/../h/TCB.hpp ****         bool flag
  26:src/../h/TCB.hpp ****     );
  27:src/../h/TCB.hpp **** 
  28:src/../h/TCB.hpp ****     static int thread_exit();
GAS LISTING /tmp/ccVGozWR.s 			page 4


  29:src/../h/TCB.hpp **** 
  30:src/../h/TCB.hpp ****     static void thread_dispatch();
  31:src/../h/TCB.hpp **** 
  32:src/../h/TCB.hpp ****     static int time_sleep(uint64 time);
  33:src/../h/TCB.hpp **** 
  34:src/../h/TCB.hpp ****     // getteri i setteri
  35:src/../h/TCB.hpp ****     void set_finished(bool f){ this->finished = f; }
  36:src/../h/TCB.hpp **** 
  37:src/../h/TCB.hpp ****     bool is_finished()const{return finished;}
  71              		.loc 3 37 29
  72              		.loc 3 37 36 is_stmt 0
  73 0064 83C78402 		lbu	a5,40(s1)
  74              	.LVL5:
  75              	.LBE61:
  76              	.LBE60:
  77              		.loc 1 35 5
  78 0068 639A0706 		bnez	a5,.L3
  36:src/TCB.cpp   ****         Scheduler::getInstance().put(old);
  79              		.loc 1 36 9 is_stmt 1
  80              	.LBB62:
  81              	.LBB63:
  12:src/../h/../h/scheduler.hpp ****         return instance;
  82              		.loc 2 12 9
  12:src/../h/../h/scheduler.hpp ****         return instance;
  83              		.loc 2 12 26 is_stmt 0
  84 006c 97070000 		lbu	a5,_ZGVZN9Scheduler11getInstanceEvE8instance
  84      83C70700 
  85 0074 63940702 		bnez	a5,.L4
  86              	.LVL6:
  87              	.LBB64:
  88              	.LBB65:
  28:src/../h/../h/scheduler.hpp ****         tail = nullptr;
  89              		.loc 2 28 9 is_stmt 1
  28:src/../h/../h/scheduler.hpp ****         tail = nullptr;
  90              		.loc 2 28 14 is_stmt 0
  91 0078 97070000 		la	a5,_ZN9Scheduler4headE
  91      83B70700 
  92 0080 23B00700 		sd	zero,0(a5)
  93              		.loc 2 29 9 is_stmt 1
  94              		.loc 2 29 14 is_stmt 0
  95 0084 97070000 		la	a5,_ZN9Scheduler4tailE
  95      83B70700 
  96 008c 23B00700 		sd	zero,0(a5)
  97              	.LBE65:
  98              	.LBE64:
  12:src/../h/../h/scheduler.hpp ****         return instance;
  99              		.loc 2 12 26
 100 0090 93071000 		li	a5,1
 101 0094 17070000 		sb	a5,_ZGVZN9Scheduler11getInstanceEvE8instance,a4
 101      2300F700 
 102              	.LVL7:
 103              	.L4:
  13:src/../h/../h/scheduler.hpp ****     }
 104              		.loc 2 13 9 is_stmt 1
 105              	.LBE63:
 106              	.LBE62:
 107              		.loc 1 36 37 is_stmt 0
GAS LISTING /tmp/ccVGozWR.s 			page 5


 108 009c 93850400 		mv	a1,s1
 109 00a0 17050000 		lla	a0,_ZZN9Scheduler11getInstanceEvE8instance
 109      13050500 
 110 00a8 97000000 		call	_ZN9Scheduler3putEP3TCB@plt
 110      E7800000 
 111              	.LVL8:
 112              	.L5:
  37:src/TCB.cpp   ****     }
  38:src/TCB.cpp   ****     else{
  39:src/TCB.cpp   ****         TCB::operator delete(old);
  40:src/TCB.cpp   ****     }
  41:src/TCB.cpp   **** //    TCB::time_slice_counter = 0;
  42:src/TCB.cpp   ****     TCB::context_switch(&old->context, &running->context);
 113              		.loc 1 42 5 is_stmt 1
 114              		.loc 1 42 24 is_stmt 0
 115 00b0 97050000 		ld	a1,.LANCHOR0
 115      83B50500 
 116 00b8 93858501 		addi	a1,a1,24
 117 00bc 13858401 		addi	a0,s1,24
 118 00c0 97000000 		call	_ZN3TCB14context_switchEPNS_7ContextES1_@plt
 118      E7800000 
 119              	.LVL9:
 120              	.LEHE0:
  43:src/TCB.cpp   **** }
 121              		.loc 1 43 1
 122 00c8 83308101 		ld	ra,24(sp)
 123              		.cfi_remember_state
 124              		.cfi_restore 1
 125 00cc 03340101 		ld	s0,16(sp)
 126              		.cfi_restore 8
 127              		.cfi_def_cfa 2, 32
 128 00d0 83348100 		ld	s1,8(sp)
 129              		.cfi_restore 9
 130              	.LVL10:
 131 00d4 13010102 		addi	sp,sp,32
 132              		.cfi_def_cfa_offset 0
 133 00d8 67800000 		jr	ra
 134              	.LVL11:
 135              	.L3:
 136              		.cfi_restore_state
  39:src/TCB.cpp   ****     }
 137              		.loc 1 39 9 is_stmt 1
 138              	.LBB66:
 139              	.LBB67:
  38:src/../h/TCB.hpp **** 
  39:src/../h/TCB.hpp ****     void set_next_scheduler(TCB* nextThread){ next_scheduler = nextThread; }
  40:src/../h/TCB.hpp **** 
  41:src/../h/TCB.hpp ****     TCB* get_next_scheduler()const{ return next_scheduler; }
  42:src/../h/TCB.hpp **** 
  43:src/../h/TCB.hpp ****     void set_next_sleep(TCB* nextThread){ next_sleep = nextThread; }
  44:src/../h/TCB.hpp **** 
  45:src/../h/TCB.hpp ****     TCB* get_next_sleep()const{ return next_sleep; }
  46:src/../h/TCB.hpp **** 
  47:src/../h/TCB.hpp ****     void set_next_blocked(TCB* nextThread){ next_blocked = nextThread; }
  48:src/../h/TCB.hpp **** 
  49:src/../h/TCB.hpp ****     TCB* get_next_blocked()const{ return next_blocked; }
  50:src/../h/TCB.hpp **** 
GAS LISTING /tmp/ccVGozWR.s 			page 6


  51:src/../h/TCB.hpp ****     uint64 get_thread_id()const{ return id; }
  52:src/../h/TCB.hpp **** 
  53:src/../h/TCB.hpp ****     uint64 get_time_sleep()const{ return sleep; }
  54:src/../h/TCB.hpp **** 
  55:src/../h/TCB.hpp ****     void set_time_sleep(uint64 new_time){ sleep = new_time; }
  56:src/../h/TCB.hpp **** 
  57:src/../h/TCB.hpp ****     uint64 get_time_slice()const{ return time_slice; }
  58:src/../h/TCB.hpp **** 
  59:src/../h/TCB.hpp ****     void set_periodic(bool b){
  60:src/../h/TCB.hpp ****         periodic = b;
  61:src/../h/TCB.hpp ****         periodicThread::getInstance().put(this);
  62:src/../h/TCB.hpp ****     }
  63:src/../h/TCB.hpp **** 
  64:src/../h/TCB.hpp ****     void set_next_period(TCB* tcb){ next_period = tcb; }
  65:src/../h/TCB.hpp **** 
  66:src/../h/TCB.hpp ****     TCB* get_next_period()const{return next_period;}
  67:src/../h/TCB.hpp **** 
  68:src/../h/TCB.hpp ****     static void yield();
  69:src/../h/TCB.hpp **** 
  70:src/../h/TCB.hpp ****     // operatori
  71:src/../h/TCB.hpp ****     void *operator new(uint64 n){
  72:src/../h/TCB.hpp ****         uint64 ssize = (n + MEM_BLOCK_SIZE - 1) / MEM_BLOCK_SIZE;
  73:src/../h/TCB.hpp ****         return MemoryAllocator::getInstance().memory_alloc(ssize);
  74:src/../h/TCB.hpp ****     }
  75:src/../h/TCB.hpp **** 
  76:src/../h/TCB.hpp ****     void *operator new[](uint64 n){
  77:src/../h/TCB.hpp ****         uint64 ssize = (n + MEM_BLOCK_SIZE - 1) / MEM_BLOCK_SIZE;
  78:src/../h/TCB.hpp ****         return MemoryAllocator::getInstance().memory_alloc(ssize);
  79:src/../h/TCB.hpp ****     }
  80:src/../h/TCB.hpp **** 
  81:src/../h/TCB.hpp ****     void operator delete(void* p)noexcept{
  82:src/../h/TCB.hpp ****         MemoryAllocator::getInstance().memory_free(p);
 140              		.loc 3 82 9
 141              	.LBB68:
 142              	.LBB69:
 143              		.file 4 "src/../h/../h/MemoryAllocator.hpp"
   1:src/../h/../h/MemoryAllocator.hpp **** #ifndef _memory_allocator_hpp_
   2:src/../h/../h/MemoryAllocator.hpp **** #define _memory_allocator_hpp_
   3:src/../h/../h/MemoryAllocator.hpp **** 
   4:src/../h/../h/MemoryAllocator.hpp **** #include "../lib/hw.h"
   5:src/../h/../h/MemoryAllocator.hpp **** 
   6:src/../h/../h/MemoryAllocator.hpp **** class MemoryAllocator{
   7:src/../h/../h/MemoryAllocator.hpp **** public:
   8:src/../h/../h/MemoryAllocator.hpp **** 
   9:src/../h/../h/MemoryAllocator.hpp ****     // dodaj instancu
  10:src/../h/../h/MemoryAllocator.hpp ****     static MemoryAllocator& getInstance(){
  11:src/../h/../h/MemoryAllocator.hpp ****         static MemoryAllocator instance;
 144              		.loc 4 11 9
 145              		.loc 4 11 32 is_stmt 0
 146 00dc 97070000 		lbu	a5,_ZGVZN15MemoryAllocator11getInstanceEvE8instance
 146      83C70700 
 147 00e4 638E0700 		beqz	a5,.L9
 148              	.L6:
  12:src/../h/../h/MemoryAllocator.hpp ****         return instance;
 149              		.loc 4 12 9 is_stmt 1
 150              	.LBE69:
 151              	.LBE68:
GAS LISTING /tmp/ccVGozWR.s 			page 7


 152              		.loc 3 82 51 is_stmt 0
 153 00e8 93850400 		mv	a1,s1
 154 00ec 17050000 		lla	a0,_ZZN15MemoryAllocator11getInstanceEvE8instance
 154      13050500 
 155 00f4 97000000 		call	_ZN15MemoryAllocator11memory_freeEPv@plt
 155      E7800000 
 156              	.LVL12:
  83:src/../h/TCB.hpp ****     }
 157              		.loc 3 83 5
 158 00fc 6FF05FFB 		j	.L5
 159              	.L9:
 160              	.LVL13:
 161              	.LBB75:
 162              	.LBB74:
 163              	.LBB70:
 164              	.LBB71:
 165              	.LBB72:
  13:src/../h/../h/MemoryAllocator.hpp ****     }
  14:src/../h/../h/MemoryAllocator.hpp **** 
  15:src/../h/../h/MemoryAllocator.hpp ****     MemoryAllocator(const MemoryAllocator&) = delete;
  16:src/../h/../h/MemoryAllocator.hpp ****     void operator=(MemoryAllocator const&) = delete;
  17:src/../h/../h/MemoryAllocator.hpp **** 
  18:src/../h/../h/MemoryAllocator.hpp ****     void* memory_alloc (size_t);
  19:src/../h/../h/MemoryAllocator.hpp **** 
  20:src/../h/../h/MemoryAllocator.hpp ****     int memory_free (void*);
  21:src/../h/../h/MemoryAllocator.hpp ****     int get_mem_alloc_heap_start(){return this->heapStart;}
  22:src/../h/../h/MemoryAllocator.hpp ****     int get_mem_alloc_heap_end(){return this->heapEnd;}
  23:src/../h/../h/MemoryAllocator.hpp **** 
  24:src/../h/../h/MemoryAllocator.hpp **** private:
  25:src/../h/../h/MemoryAllocator.hpp **** 
  26:src/../h/../h/MemoryAllocator.hpp ****     struct FreeMem{
  27:src/../h/../h/MemoryAllocator.hpp ****         size_t size;
  28:src/../h/../h/MemoryAllocator.hpp ****         FreeMem* next;
  29:src/../h/../h/MemoryAllocator.hpp ****         FreeMem* prev;
  30:src/../h/../h/MemoryAllocator.hpp ****     };
  31:src/../h/../h/MemoryAllocator.hpp **** 
  32:src/../h/../h/MemoryAllocator.hpp ****     FreeMem* fmem_head = nullptr;
  33:src/../h/../h/MemoryAllocator.hpp ****     size_t heapStart;
  34:src/../h/../h/MemoryAllocator.hpp ****     size_t heapEnd;
  35:src/../h/../h/MemoryAllocator.hpp **** 
  36:src/../h/../h/MemoryAllocator.hpp ****     MemoryAllocator(){
 166              		.loc 4 36 22
 167 0100 17060000 		lla	a2,_ZZN15MemoryAllocator11getInstanceEvE8instance
 167      13060600 
 168              	.LBB73:
  37:src/../h/../h/MemoryAllocator.hpp **** 
  38:src/../h/../h/MemoryAllocator.hpp ****         heapStart = (size_t)HEAP_START_ADDR + ((size_t)HEAP_END_ADDR - (size_t)HEAP_START_ADDR) / 8
 169              		.loc 4 38 9 is_stmt 1
 170              		.loc 4 38 70 is_stmt 0
 171 0108 97070000 		la	a5,HEAP_END_ADDR
 171      83B70700 
 172 0110 03B70700 		ld	a4,0(a5)
 173 0114 97070000 		la	a5,HEAP_START_ADDR
 173      83B70700 
 174 011c 83B70700 		ld	a5,0(a5)
 175 0120 B306F740 		sub	a3,a4,a5
 176              		.loc 4 38 97
GAS LISTING /tmp/ccVGozWR.s 			page 8


 177 0124 93D63600 		srli	a3,a3,3
 178              		.loc 4 38 45
 179 0128 B387D700 		add	a5,a5,a3
 180              		.loc 4 38 101
 181 012c 93871700 		addi	a5,a5,1
 182              		.loc 4 38 19
 183 0130 2334F600 		sd	a5,8(a2)
  39:src/../h/../h/MemoryAllocator.hpp ****         heapEnd = (size_t)HEAP_END_ADDR - 1;
 184              		.loc 4 39 9 is_stmt 1
 185              		.loc 4 39 41 is_stmt 0
 186 0134 1307F7FF 		addi	a4,a4,-1
 187              		.loc 4 39 17
 188 0138 2338E600 		sd	a4,16(a2)
  40:src/../h/../h/MemoryAllocator.hpp **** 
  41:src/../h/../h/MemoryAllocator.hpp ****         size_t sizeInBlocks = (heapEnd - heapStart) / MEM_BLOCK_SIZE;
 189              		.loc 4 41 9 is_stmt 1
 190              		.loc 4 41 40 is_stmt 0
 191 013c 3307F740 		sub	a4,a4,a5
 192              		.loc 4 41 16
 193 0140 13576700 		srli	a4,a4,6
 194              	.LVL14:
  42:src/../h/../h/MemoryAllocator.hpp **** 
  43:src/../h/../h/MemoryAllocator.hpp ****         // poravnaj na prvu krstenu adresu
  44:src/../h/../h/MemoryAllocator.hpp ****         fmem_head = (FreeMem*)(heapStart + ((heapStart % MEM_BLOCK_SIZE != 0)?(MEM_BLOCK_SIZE - hea
 195              		.loc 4 44 9 is_stmt 1
 196              		.loc 4 44 56 is_stmt 0
 197 0144 93F6F703 		andi	a3,a5,63
 198              		.loc 4 44 78
 199 0148 63860600 		beqz	a3,.L7
 200 014c 13060004 		li	a2,64
 201 0150 B306D640 		sub	a3,a2,a3
 202              	.L7:
 203              		.loc 4 44 42
 204 0154 B387D700 		add	a5,a5,a3
 205              		.loc 4 44 19
 206 0158 97060000 		sd	a5,_ZZN15MemoryAllocator11getInstanceEvE8instance,a3
 206      23B0F600 
  45:src/../h/../h/MemoryAllocator.hpp **** 
  46:src/../h/../h/MemoryAllocator.hpp ****         // napravi node
  47:src/../h/../h/MemoryAllocator.hpp **** 
  48:src/../h/../h/MemoryAllocator.hpp ****         fmem_head->next = nullptr;
 207              		.loc 4 48 9 is_stmt 1
 208              		.loc 4 48 25 is_stmt 0
 209 0160 23B40700 		sd	zero,8(a5)
  49:src/../h/../h/MemoryAllocator.hpp ****         fmem_head->prev = nullptr;
 210              		.loc 4 49 9 is_stmt 1
 211              		.loc 4 49 25 is_stmt 0
 212 0164 23B80700 		sd	zero,16(a5)
  50:src/../h/../h/MemoryAllocator.hpp ****         fmem_head->size = sizeInBlocks;
 213              		.loc 4 50 9 is_stmt 1
 214              		.loc 4 50 25 is_stmt 0
 215 0168 23B0E700 		sd	a4,0(a5)
 216              	.LVL15:
 217              	.LBE73:
 218              	.LBE72:
 219              	.LBE71:
 220              	.LBE70:
GAS LISTING /tmp/ccVGozWR.s 			page 9


  11:src/../h/../h/MemoryAllocator.hpp ****         return instance;
 221              		.loc 4 11 32
 222 016c 93071000 		li	a5,1
 223 0170 17070000 		sb	a5,_ZGVZN15MemoryAllocator11getInstanceEvE8instance,a4
 223      2300F700 
 224 0178 6FF01FF7 		j	.L6
 225              	.LBE74:
 226              	.LBE75:
 227              	.LBE67:
 228              	.LBE66:
 229              		.cfi_endproc
 230              	.LFE58:
 231              		.globl	__gxx_personality_v0
 232              		.section	.gcc_except_table,"a",@progbits
 233              	.LLSDA58:
 234 0000 FF       		.byte	0xff
 235 0001 FF       		.byte	0xff
 236 0002 03       		.byte	0x3
 237 0003 0D       		.byte	0xd
 238 0004 00000000 		.4byte	.LEHB0-.LFB58
 239 0008 00000000 		.4byte	.LEHE0-.LEHB0
 240 000c 00000000 		.4byte	0
 241 0010 00       		.byte	0
 242              		.text
 244              		.align	2
 245              		.globl	_ZN3TCB11thread_exitEv
 247              	_ZN3TCB11thread_exitEv:
 248              	.LFB57:
  24:src/TCB.cpp   ****     running->set_finished(true);
 249              		.loc 1 24 24 is_stmt 1
 250              		.cfi_startproc
 251 017c 130101FF 		addi	sp,sp,-16
 252              		.cfi_def_cfa_offset 16
 253 0180 23341100 		sd	ra,8(sp)
 254 0184 23308100 		sd	s0,0(sp)
 255              		.cfi_offset 1, -8
 256              		.cfi_offset 8, -16
 257 0188 13040101 		addi	s0,sp,16
 258              		.cfi_def_cfa 8, 0
  25:src/TCB.cpp   ****     TCB::thread_dispatch();
 259              		.loc 1 25 5
 260              	.LVL16:
 261              	.LBB76:
 262              	.LBB77:
  35:src/../h/TCB.hpp **** 
 263              		.loc 3 35 32
  35:src/../h/TCB.hpp **** 
 264              		.loc 3 35 47 is_stmt 0
 265 018c 97070000 		ld	a5,.LANCHOR0
 265      83B70700 
 266 0194 13071000 		li	a4,1
 267 0198 2384E702 		sb	a4,40(a5)
 268              	.LVL17:
 269              	.LBE77:
 270              	.LBE76:
  26:src/TCB.cpp   ****     // do ovog dela nece nikad doci jer thread_dispatch nece nit koju gasimo staviti u scheduler
 271              		.loc 1 26 5 is_stmt 1
GAS LISTING /tmp/ccVGozWR.s 			page 10


  26:src/TCB.cpp   ****     // do ovog dela nece nikad doci jer thread_dispatch nece nit koju gasimo staviti u scheduler
 272              		.loc 1 26 25 is_stmt 0
 273 019c 97000000 		call	_ZN3TCB15thread_dispatchEv
 273      E7800000 
 274              	.LVL18:
  28:src/TCB.cpp   **** }
 275              		.loc 1 28 5 is_stmt 1
  29:src/TCB.cpp   **** 
 276              		.loc 1 29 1 is_stmt 0
 277 01a4 1305F0FF 		li	a0,-1
 278 01a8 83308100 		ld	ra,8(sp)
 279              		.cfi_restore 1
 280 01ac 03340100 		ld	s0,0(sp)
 281              		.cfi_restore 8
 282              		.cfi_def_cfa 2, 16
 283 01b0 13010101 		addi	sp,sp,16
 284              		.cfi_def_cfa_offset 0
 285 01b4 67800000 		jr	ra
 286              		.cfi_endproc
 287              	.LFE57:
 289              		.align	2
 290              		.globl	_ZN3TCB14thread_wrapperEv
 292              	_ZN3TCB14thread_wrapperEv:
 293              	.LFB59:
  44:src/TCB.cpp   **** 
  45:src/TCB.cpp   **** void TCB::thread_wrapper() {
 294              		.loc 1 45 28 is_stmt 1
 295              		.cfi_startproc
 296 01b8 130101FF 		addi	sp,sp,-16
 297              		.cfi_def_cfa_offset 16
 298 01bc 23341100 		sd	ra,8(sp)
 299 01c0 23308100 		sd	s0,0(sp)
 300              		.cfi_offset 1, -8
 301              		.cfi_offset 8, -16
 302 01c4 13040101 		addi	s0,sp,16
 303              		.cfi_def_cfa 8, 0
  46:src/TCB.cpp   ****     Riscv::popSppSpie();
 304              		.loc 1 46 5
 305              		.loc 1 46 22 is_stmt 0
 306 01c8 97000000 		call	_ZN5Riscv10popSppSpieEv@plt
 306      E7800000 
 307              	.LVL19:
  47:src/TCB.cpp   ****     running->body(running->argument);
 308              		.loc 1 47 5 is_stmt 1
 309              		.loc 1 47 14 is_stmt 0
 310 01d0 97070000 		ld	a5,.LANCHOR0
 310      83B70700 
 311 01d8 03B70700 		ld	a4,0(a5)
 312              		.loc 1 47 18
 313 01dc 03B58700 		ld	a0,8(a5)
 314 01e0 E7000700 		jalr	a4
 315              	.LVL20:
  48:src/TCB.cpp   ****     thread_exit();
 316              		.loc 1 48 5 is_stmt 1
 317              		.loc 1 48 16 is_stmt 0
 318 01e4 97000000 		call	_ZN3TCB11thread_exitEv
 318      E7800000 
GAS LISTING /tmp/ccVGozWR.s 			page 11


 319              	.LVL21:
  49:src/TCB.cpp   **** }
 320              		.loc 1 49 1
 321 01ec 83308100 		ld	ra,8(sp)
 322              		.cfi_restore 1
 323 01f0 03340100 		ld	s0,0(sp)
 324              		.cfi_restore 8
 325              		.cfi_def_cfa 2, 16
 326 01f4 13010101 		addi	sp,sp,16
 327              		.cfi_def_cfa_offset 0
 328 01f8 67800000 		jr	ra
 329              		.cfi_endproc
 330              	.LFE59:
 332              		.align	2
 333              		.globl	_ZN3TCBC2EPFvPvES0_S0_b
 335              	_ZN3TCBC2EPFvPvES0_S0_b:
 336              	.LFB61:
  50:src/TCB.cpp   **** 
  51:src/TCB.cpp   **** TCB::TCB(Body body_init, void *arg, void *stack_space, bool b) {
 337              		.loc 1 51 1 is_stmt 1
 338              		.cfi_startproc
 339              	.LVL22:
 340 01fc 130101FF 		addi	sp,sp,-16
 341              		.cfi_def_cfa_offset 16
 342 0200 23348100 		sd	s0,8(sp)
 343              		.cfi_offset 8, -8
 344 0204 13040101 		addi	s0,sp,16
 345              		.cfi_def_cfa 8, 0
 346              	.LBB78:
  52:src/TCB.cpp   ****     body = body_init;
 347              		.loc 1 52 5
 348              		.loc 1 52 10 is_stmt 0
 349 0208 2330B500 		sd	a1,0(a0)
  53:src/TCB.cpp   ****     argument = arg;
 350              		.loc 1 53 5 is_stmt 1
 351              		.loc 1 53 14 is_stmt 0
 352 020c 2334C500 		sd	a2,8(a0)
  54:src/TCB.cpp   ****     stack = (uint64*)stack_space;
 353              		.loc 1 54 5 is_stmt 1
 354              		.loc 1 54 11 is_stmt 0
 355 0210 2338D500 		sd	a3,16(a0)
  55:src/TCB.cpp   ****     context.ra = (uint64) &thread_wrapper;
 356              		.loc 1 55 5 is_stmt 1
 357              		.loc 1 55 16 is_stmt 0
 358 0214 97070000 		lla	a5,_ZN3TCB14thread_wrapperEv
 358      93870700 
 359 021c 233CF500 		sd	a5,24(a0)
  56:src/TCB.cpp   ****     context.sp = stack_space != nullptr ? (uint64) &stack[DEFAULT_STACK_SIZE / sizeof(uint64)] : 0;
 360              		.loc 1 56 5 is_stmt 1
 361              		.loc 1 56 41 is_stmt 0
 362 0220 638E0604 		beqz	a3,.L16
 363              		.loc 1 56 52 discriminator 1
 364 0224 B7170000 		li	a5,4096
 365 0228 B386F600 		add	a3,a3,a5
 366              	.LVL23:
 367              	.L15:
 368              		.loc 1 56 16 discriminator 4
GAS LISTING /tmp/ccVGozWR.s 			page 12


 369 022c 2330D502 		sd	a3,32(a0)
  57:src/TCB.cpp   ****     finished = false;
 370              		.loc 1 57 5 is_stmt 1 discriminator 4
 371              		.loc 1 57 14 is_stmt 0 discriminator 4
 372 0230 23040502 		sb	zero,40(a0)
  58:src/TCB.cpp   ****     next_scheduler = nullptr;
 373              		.loc 1 58 5 is_stmt 1 discriminator 4
 374              		.loc 1 58 20 is_stmt 0 discriminator 4
 375 0234 23380502 		sd	zero,48(a0)
  59:src/TCB.cpp   ****     next_sleep = nullptr;
 376              		.loc 1 59 5 is_stmt 1 discriminator 4
 377              		.loc 1 59 16 is_stmt 0 discriminator 4
 378 0238 233C0502 		sd	zero,56(a0)
  60:src/TCB.cpp   ****     next_blocked = nullptr;
 379              		.loc 1 60 5 is_stmt 1 discriminator 4
 380              		.loc 1 60 18 is_stmt 0 discriminator 4
 381 023c 23300504 		sd	zero,64(a0)
  61:src/TCB.cpp   ****     time_slice = DEFAULT_TIME_SLICE;
 382              		.loc 1 61 5 is_stmt 1 discriminator 4
 383              		.loc 1 61 16 is_stmt 0 discriminator 4
 384 0240 93072000 		li	a5,2
 385 0244 2338F504 		sd	a5,80(a0)
  62:src/TCB.cpp   ****     sleep = 0;
 386              		.loc 1 62 5 is_stmt 1 discriminator 4
 387              		.loc 1 62 11 is_stmt 0 discriminator 4
 388 0248 23340504 		sd	zero,72(a0)
  63:src/TCB.cpp   ****     id = ID++;
 389              		.loc 1 63 5 is_stmt 1 discriminator 4
 390              		.loc 1 63 12 is_stmt 0 discriminator 4
 391 024c 97060000 		lla	a3,.LANCHOR0
 391      93860600 
 392 0254 83B78600 		ld	a5,8(a3)
 393 0258 13861700 		addi	a2,a5,1
 394              	.LVL24:
 395 025c 23B4C600 		sd	a2,8(a3)
 396              		.loc 1 63 8 discriminator 4
 397 0260 233CF504 		sd	a5,88(a0)
  64:src/TCB.cpp   ****     flag = b;
 398              		.loc 1 64 5 is_stmt 1 discriminator 4
 399              		.loc 1 64 10 is_stmt 0 discriminator 4
 400 0264 2300E506 		sb	a4,96(a0)
  65:src/TCB.cpp   ****     periodic = false;
 401              		.loc 1 65 5 is_stmt 1 discriminator 4
 402              		.loc 1 65 14 is_stmt 0 discriminator 4
 403 0268 A3000506 		sb	zero,97(a0)
  66:src/TCB.cpp   ****     next_period = nullptr;
 404              		.loc 1 66 5 is_stmt 1 discriminator 4
 405              		.loc 1 66 17 is_stmt 0 discriminator 4
 406 026c 23340506 		sd	zero,104(a0)
 407              	.LBE78:
  67:src/TCB.cpp   **** }
 408              		.loc 1 67 1 discriminator 4
 409 0270 03348100 		ld	s0,8(sp)
 410              		.cfi_remember_state
 411              		.cfi_restore 8
 412              		.cfi_def_cfa 2, 16
 413 0274 13010101 		addi	sp,sp,16
GAS LISTING /tmp/ccVGozWR.s 			page 13


 414              		.cfi_def_cfa_offset 0
 415 0278 67800000 		jr	ra
 416              	.LVL25:
 417              	.L16:
 418              		.cfi_restore_state
 419              	.LBB79:
  56:src/TCB.cpp   ****     finished = false;
 420              		.loc 1 56 41
 421 027c 93060000 		li	a3,0
 422              	.LVL26:
 423 0280 6FF0DFFA 		j	.L15
 424              	.LBE79:
 425              		.cfi_endproc
 426              	.LFE61:
 428              		.globl	_ZN3TCBC1EPFvPvES0_S0_b
 429              		.set	_ZN3TCBC1EPFvPvES0_S0_b,_ZN3TCBC2EPFvPvES0_S0_b
 430              		.align	2
 431              		.globl	_ZN3TCB13thread_createEPPS_PFvPvES2_S2_b
 433              	_ZN3TCB13thread_createEPPS_PFvPvES2_S2_b:
 434              	.LFB56:
  14:src/TCB.cpp   ****     TCB* tmp = (TCB*)new TCB(start_routine, arg, stack_space, flag);
 435              		.loc 1 14 26 is_stmt 1
 436              		.cfi_startproc
 437              	.LVL27:
 438 0284 130101FC 		addi	sp,sp,-64
 439              		.cfi_def_cfa_offset 64
 440 0288 233C1102 		sd	ra,56(sp)
 441 028c 23388102 		sd	s0,48(sp)
 442 0290 23349102 		sd	s1,40(sp)
 443 0294 23302103 		sd	s2,32(sp)
 444 0298 233C3101 		sd	s3,24(sp)
 445 029c 23384101 		sd	s4,16(sp)
 446 02a0 23345101 		sd	s5,8(sp)
 447 02a4 23306101 		sd	s6,0(sp)
 448              		.cfi_offset 1, -8
 449              		.cfi_offset 8, -16
 450              		.cfi_offset 9, -24
 451              		.cfi_offset 18, -32
 452              		.cfi_offset 19, -40
 453              		.cfi_offset 20, -48
 454              		.cfi_offset 21, -56
 455              		.cfi_offset 22, -64
 456 02a8 13040104 		addi	s0,sp,64
 457              		.cfi_def_cfa 8, 0
 458 02ac 93040500 		mv	s1,a0
 459 02b0 13890500 		mv	s2,a1
 460 02b4 930A0600 		mv	s5,a2
 461 02b8 138B0600 		mv	s6,a3
 462 02bc 130A0700 		mv	s4,a4
  15:src/TCB.cpp   ****     *handle = tmp;
 463              		.loc 1 15 5
 464              	.LVL28:
 465              	.LBB92:
 466              	.LBB93:
  72:src/../h/TCB.hpp ****         return MemoryAllocator::getInstance().memory_alloc(ssize);
 467              		.loc 3 72 9
  73:src/../h/TCB.hpp ****     }
GAS LISTING /tmp/ccVGozWR.s 			page 14


 468              		.loc 3 73 9
 469              	.LBB94:
 470              	.LBB95:
  11:src/../h/../h/MemoryAllocator.hpp ****         return instance;
 471              		.loc 4 11 9
  11:src/../h/../h/MemoryAllocator.hpp ****         return instance;
 472              		.loc 4 11 32 is_stmt 0
 473 02c0 97070000 		lbu	a5,_ZGVZN15MemoryAllocator11getInstanceEvE8instance
 473      83C70700 
 474 02c8 6382070C 		beqz	a5,.L26
 475              	.LVL29:
 476              	.L19:
  12:src/../h/../h/MemoryAllocator.hpp ****     }
 477              		.loc 4 12 9 is_stmt 1
 478              	.LBE95:
 479              	.LBE94:
  73:src/../h/TCB.hpp ****     }
 480              		.loc 3 73 59 is_stmt 0
 481 02cc 93052000 		li	a1,2
 482              	.LVL30:
 483 02d0 17050000 		lla	a0,_ZZN15MemoryAllocator11getInstanceEvE8instance
 483      13050500 
 484              	.LVL31:
 485 02d8 97000000 		call	_ZN15MemoryAllocator12memory_allocEm@plt
 485      E7800000 
 486              	.LVL32:
 487 02e0 93090500 		mv	s3,a0
 488              	.LVL33:
 489              	.LBE93:
 490              	.LBE92:
  15:src/TCB.cpp   ****     *handle = tmp;
 491              		.loc 1 15 67
 492 02e4 13070A00 		mv	a4,s4
 493 02e8 93060B00 		mv	a3,s6
 494 02ec 13860A00 		mv	a2,s5
 495 02f0 93050900 		mv	a1,s2
 496 02f4 97000000 		call	_ZN3TCBC1EPFvPvES0_S0_b
 496      E7800000 
 497              	.LVL34:
  16:src/TCB.cpp   ****     if (start_routine != nullptr && tmp != TCB::idle && flag) {
 498              		.loc 1 16 5 is_stmt 1
  16:src/TCB.cpp   ****     if (start_routine != nullptr && tmp != TCB::idle && flag) {
 499              		.loc 1 16 13 is_stmt 0
 500 02fc 23B03401 		sd	s3,0(s1)
  17:src/TCB.cpp   ****         Scheduler::getInstance().put(tmp);
 501              		.loc 1 17 5 is_stmt 1
 502 0300 630C0904 		beqz	s2,.L21
  17:src/TCB.cpp   ****         Scheduler::getInstance().put(tmp);
 503              		.loc 1 17 41 is_stmt 0 discriminator 1
 504 0304 97070000 		ld	a5,.LANCHOR0+16
 504      83B70700 
  17:src/TCB.cpp   ****         Scheduler::getInstance().put(tmp);
 505              		.loc 1 17 34 discriminator 1
 506 030c 63863705 		beq	a5,s3,.L21
  17:src/TCB.cpp   ****         Scheduler::getInstance().put(tmp);
 507              		.loc 1 17 54 discriminator 2
 508 0310 63040A04 		beqz	s4,.L21
GAS LISTING /tmp/ccVGozWR.s 			page 15


  18:src/TCB.cpp   ****     }
 509              		.loc 1 18 9 is_stmt 1
 510              	.LBB103:
 511              	.LBB104:
  12:src/../h/../h/scheduler.hpp ****         return instance;
 512              		.loc 2 12 9
  12:src/../h/../h/scheduler.hpp ****         return instance;
 513              		.loc 2 12 26 is_stmt 0
 514 0314 97070000 		lbu	a5,_ZGVZN9Scheduler11getInstanceEvE8instance
 514      83C70700 
 515 031c 63940702 		bnez	a5,.L22
 516              	.LVL35:
 517              	.LBB105:
 518              	.LBB106:
  28:src/../h/../h/scheduler.hpp ****         tail = nullptr;
 519              		.loc 2 28 9 is_stmt 1
  28:src/../h/../h/scheduler.hpp ****         tail = nullptr;
 520              		.loc 2 28 14 is_stmt 0
 521 0320 97070000 		la	a5,_ZN9Scheduler4headE
 521      83B70700 
 522 0328 23B00700 		sd	zero,0(a5)
 523              		.loc 2 29 9 is_stmt 1
 524              		.loc 2 29 14 is_stmt 0
 525 032c 97070000 		la	a5,_ZN9Scheduler4tailE
 525      83B70700 
 526 0334 23B00700 		sd	zero,0(a5)
 527              	.LBE106:
 528              	.LBE105:
  12:src/../h/../h/scheduler.hpp ****         return instance;
 529              		.loc 2 12 26
 530 0338 93071000 		li	a5,1
 531 033c 17070000 		sb	a5,_ZGVZN9Scheduler11getInstanceEvE8instance,a4
 531      2300F700 
 532              	.LVL36:
 533              	.L22:
  13:src/../h/../h/scheduler.hpp ****     }
 534              		.loc 2 13 9 is_stmt 1
 535              	.LBE104:
 536              	.LBE103:
  18:src/TCB.cpp   ****     }
 537              		.loc 1 18 37 is_stmt 0
 538 0344 93850900 		mv	a1,s3
 539 0348 17050000 		lla	a0,_ZZN9Scheduler11getInstanceEvE8instance
 539      13050500 
 540 0350 97000000 		call	_ZN9Scheduler3putEP3TCB@plt
 540      E7800000 
 541              	.LVL37:
 542              	.L21:
  20:src/TCB.cpp   ****     else return -1;
 543              		.loc 1 20 5 is_stmt 1
  20:src/TCB.cpp   ****     else return -1;
 544              		.loc 1 20 8 is_stmt 0
 545 0358 83B70400 		ld	a5,0(s1)
  20:src/TCB.cpp   ****     else return -1;
 546              		.loc 1 20 5
 547 035c 6386070A 		beqz	a5,.L24
  20:src/TCB.cpp   ****     else return -1;
GAS LISTING /tmp/ccVGozWR.s 			page 16


 548              		.loc 1 20 24
 549 0360 13050000 		li	a0,0
 550              	.L23:
  22:src/TCB.cpp   **** 
 551              		.loc 1 22 1
 552 0364 83308103 		ld	ra,56(sp)
 553              		.cfi_remember_state
 554              		.cfi_restore 1
 555 0368 03340103 		ld	s0,48(sp)
 556              		.cfi_restore 8
 557              		.cfi_def_cfa 2, 64
 558 036c 83348102 		ld	s1,40(sp)
 559              		.cfi_restore 9
 560              	.LVL38:
 561 0370 03390102 		ld	s2,32(sp)
 562              		.cfi_restore 18
 563              	.LVL39:
 564 0374 83398101 		ld	s3,24(sp)
 565              		.cfi_restore 19
 566              	.LVL40:
 567 0378 033A0101 		ld	s4,16(sp)
 568              		.cfi_restore 20
 569 037c 833A8100 		ld	s5,8(sp)
 570              		.cfi_restore 21
 571              	.LVL41:
 572 0380 033B0100 		ld	s6,0(sp)
 573              		.cfi_restore 22
 574              	.LVL42:
 575 0384 13010104 		addi	sp,sp,64
 576              		.cfi_def_cfa_offset 0
 577 0388 67800000 		jr	ra
 578              	.LVL43:
 579              	.L26:
 580              		.cfi_restore_state
 581              	.LBB107:
 582              	.LBB102:
 583              	.LBB101:
 584              	.LBB100:
 585              	.LBB96:
 586              	.LBB97:
 587              	.LBB98:
  36:src/../h/../h/MemoryAllocator.hpp **** 
 588              		.loc 4 36 22
 589 038c 17060000 		lla	a2,_ZZN15MemoryAllocator11getInstanceEvE8instance
 589      13060600 
 590              	.LVL44:
 591              	.LBB99:
  38:src/../h/../h/MemoryAllocator.hpp ****         heapEnd = (size_t)HEAP_END_ADDR - 1;
 592              		.loc 4 38 9 is_stmt 1
  38:src/../h/../h/MemoryAllocator.hpp ****         heapEnd = (size_t)HEAP_END_ADDR - 1;
 593              		.loc 4 38 70 is_stmt 0
 594 0394 97070000 		la	a5,HEAP_END_ADDR
 594      83B70700 
 595 039c 03B70700 		ld	a4,0(a5)
 596              	.LVL45:
 597 03a0 97070000 		la	a5,HEAP_START_ADDR
 597      83B70700 
GAS LISTING /tmp/ccVGozWR.s 			page 17


 598 03a8 83B70700 		ld	a5,0(a5)
 599 03ac B306F740 		sub	a3,a4,a5
 600              	.LVL46:
  38:src/../h/../h/MemoryAllocator.hpp ****         heapEnd = (size_t)HEAP_END_ADDR - 1;
 601              		.loc 4 38 97
 602 03b0 93D63600 		srli	a3,a3,3
  38:src/../h/../h/MemoryAllocator.hpp ****         heapEnd = (size_t)HEAP_END_ADDR - 1;
 603              		.loc 4 38 45
 604 03b4 B387D700 		add	a5,a5,a3
  38:src/../h/../h/MemoryAllocator.hpp ****         heapEnd = (size_t)HEAP_END_ADDR - 1;
 605              		.loc 4 38 101
 606 03b8 93871700 		addi	a5,a5,1
  38:src/../h/../h/MemoryAllocator.hpp ****         heapEnd = (size_t)HEAP_END_ADDR - 1;
 607              		.loc 4 38 19
 608 03bc 2334F600 		sd	a5,8(a2)
  39:src/../h/../h/MemoryAllocator.hpp **** 
 609              		.loc 4 39 9 is_stmt 1
  39:src/../h/../h/MemoryAllocator.hpp **** 
 610              		.loc 4 39 41 is_stmt 0
 611 03c0 1307F7FF 		addi	a4,a4,-1
  39:src/../h/../h/MemoryAllocator.hpp **** 
 612              		.loc 4 39 17
 613 03c4 2338E600 		sd	a4,16(a2)
  41:src/../h/../h/MemoryAllocator.hpp **** 
 614              		.loc 4 41 9 is_stmt 1
  41:src/../h/../h/MemoryAllocator.hpp **** 
 615              		.loc 4 41 40 is_stmt 0
 616 03c8 3307F740 		sub	a4,a4,a5
  41:src/../h/../h/MemoryAllocator.hpp **** 
 617              		.loc 4 41 16
 618 03cc 13576700 		srli	a4,a4,6
 619              	.LVL47:
  44:src/../h/../h/MemoryAllocator.hpp **** 
 620              		.loc 4 44 9 is_stmt 1
  44:src/../h/../h/MemoryAllocator.hpp **** 
 621              		.loc 4 44 56 is_stmt 0
 622 03d0 93F6F703 		andi	a3,a5,63
  44:src/../h/../h/MemoryAllocator.hpp **** 
 623              		.loc 4 44 78
 624 03d4 63860600 		beqz	a3,.L20
 625 03d8 13060004 		li	a2,64
 626 03dc B306D640 		sub	a3,a2,a3
 627              	.L20:
  44:src/../h/../h/MemoryAllocator.hpp **** 
 628              		.loc 4 44 42
 629 03e0 B387D700 		add	a5,a5,a3
  44:src/../h/../h/MemoryAllocator.hpp **** 
 630              		.loc 4 44 19
 631 03e4 97060000 		sd	a5,_ZZN15MemoryAllocator11getInstanceEvE8instance,a3
 631      23B0F600 
  48:src/../h/../h/MemoryAllocator.hpp ****         fmem_head->prev = nullptr;
 632              		.loc 4 48 9 is_stmt 1
  48:src/../h/../h/MemoryAllocator.hpp ****         fmem_head->prev = nullptr;
 633              		.loc 4 48 25 is_stmt 0
 634 03ec 23B40700 		sd	zero,8(a5)
  49:src/../h/../h/MemoryAllocator.hpp ****         fmem_head->size = sizeInBlocks;
 635              		.loc 4 49 9 is_stmt 1
GAS LISTING /tmp/ccVGozWR.s 			page 18


  49:src/../h/../h/MemoryAllocator.hpp ****         fmem_head->size = sizeInBlocks;
 636              		.loc 4 49 25 is_stmt 0
 637 03f0 23B80700 		sd	zero,16(a5)
 638              		.loc 4 50 9 is_stmt 1
 639              		.loc 4 50 25 is_stmt 0
 640 03f4 23B0E700 		sd	a4,0(a5)
 641              	.LVL48:
 642              	.LBE99:
 643              	.LBE98:
 644              	.LBE97:
 645              	.LBE96:
  11:src/../h/../h/MemoryAllocator.hpp ****         return instance;
 646              		.loc 4 11 32
 647 03f8 93071000 		li	a5,1
 648 03fc 17070000 		sb	a5,_ZGVZN15MemoryAllocator11getInstanceEvE8instance,a4
 648      2300F700 
 649 0404 6FF09FEC 		j	.L19
 650              	.LVL49:
 651              	.L24:
 652              	.LBE100:
 653              	.LBE101:
 654              	.LBE102:
 655              	.LBE107:
  21:src/TCB.cpp   **** }
 656              		.loc 1 21 18
 657 0408 1305F0FF 		li	a0,-1
 658 040c 6FF09FF5 		j	.L23
 659              		.cfi_endproc
 660              	.LFE56:
 662              		.align	2
 663              		.globl	_ZN3TCB5yieldEv
 665              	_ZN3TCB5yieldEv:
 666              	.LFB64:
  68:src/TCB.cpp   **** 
  69:src/TCB.cpp   **** int TCB::time_sleep(uint64 time) {
  70:src/TCB.cpp   **** 
  71:src/TCB.cpp   ****     running->set_time_sleep(time);
  72:src/TCB.cpp   ****     TS::getInstance().put(running);
  73:src/TCB.cpp   ****     TCB::yield();
  74:src/TCB.cpp   ****     return 0;
  75:src/TCB.cpp   **** }
  76:src/TCB.cpp   **** 
  77:src/TCB.cpp   **** void TCB::yield() {
 667              		.loc 1 77 19 is_stmt 1
 668              		.cfi_startproc
 669 0410 130101FE 		addi	sp,sp,-32
 670              		.cfi_def_cfa_offset 32
 671 0414 233C1100 		sd	ra,24(sp)
 672 0418 23388100 		sd	s0,16(sp)
 673 041c 23349100 		sd	s1,8(sp)
 674              		.cfi_offset 1, -8
 675              		.cfi_offset 8, -16
 676              		.cfi_offset 9, -24
 677 0420 13040102 		addi	s0,sp,32
 678              		.cfi_def_cfa 8, 0
  78:src/TCB.cpp   ****     TCB * old = running;
 679              		.loc 1 78 5
GAS LISTING /tmp/ccVGozWR.s 			page 19


 680              		.loc 1 78 11 is_stmt 0
 681 0424 97040000 		ld	s1,.LANCHOR0
 681      83B40400 
 682              	.LVL50:
  79:src/TCB.cpp   ****     running = Scheduler::getInstance().get();
 683              		.loc 1 79 5 is_stmt 1
 684              	.LBB108:
 685              	.LBB109:
  12:src/../h/../h/scheduler.hpp ****         return instance;
 686              		.loc 2 12 9
  12:src/../h/../h/scheduler.hpp ****         return instance;
 687              		.loc 2 12 26 is_stmt 0
 688 042c 97070000 		lbu	a5,_ZGVZN9Scheduler11getInstanceEvE8instance
 688      83C70700 
 689 0434 63940702 		bnez	a5,.L28
 690              	.LVL51:
 691              	.LBB110:
 692              	.LBB111:
  28:src/../h/../h/scheduler.hpp ****         tail = nullptr;
 693              		.loc 2 28 9 is_stmt 1
  28:src/../h/../h/scheduler.hpp ****         tail = nullptr;
 694              		.loc 2 28 14 is_stmt 0
 695 0438 97070000 		la	a5,_ZN9Scheduler4headE
 695      83B70700 
 696 0440 23B00700 		sd	zero,0(a5)
 697              		.loc 2 29 9 is_stmt 1
 698              		.loc 2 29 14 is_stmt 0
 699 0444 97070000 		la	a5,_ZN9Scheduler4tailE
 699      83B70700 
 700 044c 23B00700 		sd	zero,0(a5)
 701              	.LBE111:
 702              	.LBE110:
  12:src/../h/../h/scheduler.hpp ****         return instance;
 703              		.loc 2 12 26
 704 0450 93071000 		li	a5,1
 705 0454 17070000 		sb	a5,_ZGVZN9Scheduler11getInstanceEvE8instance,a4
 705      2300F700 
 706              	.LVL52:
 707              	.L28:
  13:src/../h/../h/scheduler.hpp ****     }
 708              		.loc 2 13 9 is_stmt 1
 709              	.LBE109:
 710              	.LBE108:
 711              		.loc 1 79 43 is_stmt 0
 712 045c 17050000 		lla	a0,_ZZN9Scheduler11getInstanceEvE8instance
 712      13050500 
 713 0464 97000000 		call	_ZN9Scheduler3getEv@plt
 713      E7800000 
 714              	.LVL53:
 715              		.loc 1 79 13
 716 046c 97070000 		lla	a5,.LANCHOR0
 716      93870700 
 717 0474 23B0A700 		sd	a0,0(a5)
  80:src/TCB.cpp   ****     TCB::time_slice_counter = 0;
 718              		.loc 1 80 5 is_stmt 1
 719              		.loc 1 80 29 is_stmt 0
 720 0478 23BC0700 		sd	zero,24(a5)
GAS LISTING /tmp/ccVGozWR.s 			page 20


  81:src/TCB.cpp   ****     TCB::context_switch(&old->context, &running->context);
 721              		.loc 1 81 5 is_stmt 1
 722              		.loc 1 81 24 is_stmt 0
 723 047c 93058501 		addi	a1,a0,24
 724 0480 13858401 		addi	a0,s1,24
 725 0484 97000000 		call	_ZN3TCB14context_switchEPNS_7ContextES1_@plt
 725      E7800000 
 726              	.LVL54:
  82:src/TCB.cpp   **** }
 727              		.loc 1 82 1
 728 048c 83308101 		ld	ra,24(sp)
 729              		.cfi_restore 1
 730 0490 03340101 		ld	s0,16(sp)
 731              		.cfi_restore 8
 732              		.cfi_def_cfa 2, 32
 733 0494 83348100 		ld	s1,8(sp)
 734              		.cfi_restore 9
 735              	.LVL55:
 736 0498 13010102 		addi	sp,sp,32
 737              		.cfi_def_cfa_offset 0
 738 049c 67800000 		jr	ra
 739              		.cfi_endproc
 740              	.LFE64:
 742              		.align	2
 743              		.globl	_ZN3TCB10time_sleepEm
 745              	_ZN3TCB10time_sleepEm:
 746              	.LFB63:
  69:src/TCB.cpp   **** 
 747              		.loc 1 69 34 is_stmt 1
 748              		.cfi_startproc
 749              	.LVL56:
 750 04a0 130101FF 		addi	sp,sp,-16
 751              		.cfi_def_cfa_offset 16
 752 04a4 23341100 		sd	ra,8(sp)
 753 04a8 23308100 		sd	s0,0(sp)
 754              		.cfi_offset 1, -8
 755              		.cfi_offset 8, -16
 756 04ac 13040101 		addi	s0,sp,16
 757              		.cfi_def_cfa 8, 0
  71:src/TCB.cpp   ****     TS::getInstance().put(running);
 758              		.loc 1 71 5
  71:src/TCB.cpp   ****     TS::getInstance().put(running);
 759              		.loc 1 71 28 is_stmt 0
 760 04b0 97070000 		ld	a5,.LANCHOR0
 760      83B70700 
 761              	.LVL57:
 762              	.LBB112:
 763              	.LBB113:
  55:src/../h/TCB.hpp **** 
 764              		.loc 3 55 43 is_stmt 1
  55:src/../h/TCB.hpp **** 
 765              		.loc 3 55 49 is_stmt 0
 766 04b8 23B4A704 		sd	a0,72(a5)
 767              	.LVL58:
 768              	.LBE113:
 769              	.LBE112:
  72:src/TCB.cpp   ****     TCB::yield();
GAS LISTING /tmp/ccVGozWR.s 			page 21


 770              		.loc 1 72 5 is_stmt 1
 771              	.LBB114:
 772              	.LBB115:
 773              		.file 5 "src/../h/../h/TS.hpp"
   1:src/../h/../h/TS.hpp **** #ifndef _thread_sleep_hpp_
   2:src/../h/../h/TS.hpp **** #define _thread_sleep_hpp_
   3:src/../h/../h/TS.hpp **** 
   4:src/../h/../h/TS.hpp **** class TCB;
   5:src/../h/../h/TS.hpp **** 
   6:src/../h/../h/TS.hpp **** class TS{
   7:src/../h/../h/TS.hpp **** public:
   8:src/../h/../h/TS.hpp **** 
   9:src/../h/../h/TS.hpp ****     static TS& getInstance(){
  10:src/../h/../h/TS.hpp ****         static TS instance;
 774              		.loc 5 10 9
 775              		.loc 5 10 19 is_stmt 0
 776 04bc 17070000 		lbu	a4,_ZGVZN2TS11getInstanceEvE8instance
 776      03470700 
 777 04c4 631E0700 		bnez	a4,.L31
 778              	.LVL59:
 779              	.LBB116:
 780              	.LBB117:
  11:src/../h/../h/TS.hpp ****         return instance;
  12:src/../h/../h/TS.hpp ****     }
  13:src/../h/../h/TS.hpp **** 
  14:src/../h/../h/TS.hpp ****     TS(const TS&) = delete;
  15:src/../h/../h/TS.hpp ****     void operator=(TS const&) = delete;
  16:src/../h/../h/TS.hpp **** 
  17:src/../h/../h/TS.hpp ****     static void put(TCB* tcb);
  18:src/../h/../h/TS.hpp ****     static void decrement_and_remove();
  19:src/../h/../h/TS.hpp **** 
  20:src/../h/../h/TS.hpp **** //    static void printTS();
  21:src/../h/../h/TS.hpp **** 
  22:src/../h/../h/TS.hpp **** private:
  23:src/../h/../h/TS.hpp ****     TS(){head = nullptr;}
 781              		.loc 5 23 10 is_stmt 1
 782              		.loc 5 23 15 is_stmt 0
 783 04c8 17070000 		la	a4,_ZN2TS4headE
 783      03370700 
 784 04d0 23300700 		sd	zero,0(a4)
 785              	.LBE117:
 786              	.LBE116:
  10:src/../h/../h/TS.hpp ****         return instance;
 787              		.loc 5 10 19
 788 04d4 13071000 		li	a4,1
 789 04d8 97060000 		sb	a4,_ZGVZN2TS11getInstanceEvE8instance,a3
 789      2380E600 
 790              	.LVL60:
 791              	.L31:
  11:src/../h/../h/TS.hpp ****         return instance;
 792              		.loc 5 11 9 is_stmt 1
 793              	.LBE115:
 794              	.LBE114:
  72:src/TCB.cpp   ****     TCB::yield();
 795              		.loc 1 72 34 is_stmt 0
 796 04e0 13850700 		mv	a0,a5
 797              	.LVL61:
GAS LISTING /tmp/ccVGozWR.s 			page 22


 798 04e4 97000000 		call	_ZN2TS3putEP3TCB@plt
 798      E7800000 
 799              	.LVL62:
  73:src/TCB.cpp   ****     return 0;
 800              		.loc 1 73 5 is_stmt 1
  73:src/TCB.cpp   ****     return 0;
 801              		.loc 1 73 15 is_stmt 0
 802 04ec 97000000 		call	_ZN3TCB5yieldEv
 802      E7800000 
 803              	.LVL63:
  74:src/TCB.cpp   **** }
 804              		.loc 1 74 5 is_stmt 1
  75:src/TCB.cpp   **** 
 805              		.loc 1 75 1 is_stmt 0
 806 04f4 13050000 		li	a0,0
 807 04f8 83308100 		ld	ra,8(sp)
 808              		.cfi_restore 1
 809 04fc 03340100 		ld	s0,0(sp)
 810              		.cfi_restore 8
 811              		.cfi_def_cfa 2, 16
 812 0500 13010101 		addi	sp,sp,16
 813              		.cfi_def_cfa_offset 0
 814 0504 67800000 		jr	ra
 815              		.cfi_endproc
 816              	.LFE63:
 818              		.globl	_ZN3TCB2IDE
 819              		.globl	_ZN3TCB18time_slice_counterE
 820              		.globl	_ZN3TCB4idleE
 821              		.globl	_ZN3TCB7runningE
 822              		.weak	_ZGVZN2TS11getInstanceEvE8instance
 823              		.section	.bss._ZGVZN2TS11getInstanceEvE8instance,"awG",@nobits,_ZGVZN2TS11getInstanceEvE8instance,
 824              		.align	3
 827              	_ZGVZN2TS11getInstanceEvE8instance:
 828 0000 00000000 		.zero	8
 828      00000000 
 829              		.weak	_ZGVZN15MemoryAllocator11getInstanceEvE8instance
 830              		.section	.bss._ZGVZN15MemoryAllocator11getInstanceEvE8instance,"awG",@nobits,_ZGVZN15MemoryAllocat
 831              		.align	3
 834              	_ZGVZN15MemoryAllocator11getInstanceEvE8instance:
 835 0000 00000000 		.zero	8
 835      00000000 
 836              		.weak	_ZZN15MemoryAllocator11getInstanceEvE8instance
 837              		.section	.bss._ZZN15MemoryAllocator11getInstanceEvE8instance,"awG",@nobits,_ZZN15MemoryAllocator11
 838              		.align	3
 841              	_ZZN15MemoryAllocator11getInstanceEvE8instance:
 842 0000 00000000 		.zero	24
 842      00000000 
 842      00000000 
 842      00000000 
 842      00000000 
 843              		.weak	_ZGVZN9Scheduler11getInstanceEvE8instance
 844              		.section	.bss._ZGVZN9Scheduler11getInstanceEvE8instance,"awG",@nobits,_ZGVZN9Scheduler11getInstanc
 845              		.align	3
 848              	_ZGVZN9Scheduler11getInstanceEvE8instance:
 849 0000 00000000 		.zero	8
 849      00000000 
 850              		.weak	_ZZN9Scheduler11getInstanceEvE8instance
GAS LISTING /tmp/ccVGozWR.s 			page 23


 851              		.section	.bss._ZZN9Scheduler11getInstanceEvE8instance,"awG",@nobits,_ZZN9Scheduler11getInstanceEvE
 852              		.align	3
 855              	_ZZN9Scheduler11getInstanceEvE8instance:
 856 0000 00       		.zero	1
 857              		.bss
 858              		.align	3
 859              		.set	.LANCHOR0,. + 0
 862              	_ZN3TCB7runningE:
 863 0000 00000000 		.zero	8
 863      00000000 
 866              	_ZN3TCB2IDE:
 867 0008 00000000 		.zero	8
 867      00000000 
 870              	_ZN3TCB4idleE:
 871 0010 00000000 		.zero	8
 871      00000000 
 874              	_ZN3TCB18time_slice_counterE:
 875 0018 00000000 		.zero	8
 875      00000000 
 876              		.text
 877              	.Letext0:
 878              		.file 6 "src/../h/../lib/hw.h"
 879              		.file 7 "src/../h/riscv.hpp"
 4926              		.align	3
 4929              	DW.ref.__gxx_personality_v0:
 4930 0000 00000000 		.dword	__gxx_personality_v0
 4930      00000000 
 4931              		.ident	"GCC: (Ubuntu 9.4.0-1ubuntu1~20.04) 9.4.0"
 4932              		.section	.note.GNU-stack,"",@progbits
GAS LISTING /tmp/ccVGozWR.s 			page 24


DEFINED SYMBOLS
                            *ABS*:0000000000000000 TCB.cpp
     /tmp/ccVGozWR.s:9      .text:0000000000000000 _ZN3TCB15thread_dispatchEv
     /tmp/ccVGozWR.s:13     .text:0000000000000000 .L0 
     /tmp/ccVGozWR.s:4929   .data.rel.local.DW.ref.__gxx_personality_v0:0000000000000000 DW.ref.__gxx_personality_v0
     /tmp/ccVGozWR.s:16     .text:0000000000000000 .L0 
     /tmp/ccVGozWR.s:17     .text:0000000000000004 .L0 
     /tmp/ccVGozWR.s:21     .text:0000000000000010 .L0 
     /tmp/ccVGozWR.s:22     .text:0000000000000010 .L0 
     /tmp/ccVGozWR.s:23     .text:0000000000000010 .L0 
     /tmp/ccVGozWR.s:25     .text:0000000000000014 .L0 
     /tmp/ccVGozWR.s:27     .text:0000000000000014 .L0 
     /tmp/ccVGozWR.s:28     .text:0000000000000014 .L0 
     /tmp/ccVGozWR.s:34     .text:000000000000001c .L0 
     /tmp/ccVGozWR.s:35     .text:000000000000001c .L0 
     /tmp/ccVGozWR.s:848    .bss._ZGVZN9Scheduler11getInstanceEvE8instance:0000000000000000 _ZGVZN9Scheduler11getInstanceEvE8instance
     /tmp/ccVGozWR.s:36     .text:000000000000001c .L0 
     /tmp/ccVGozWR.s:42     .text:0000000000000028 .L0 
     /tmp/ccVGozWR.s:43     .text:0000000000000028 .L0 
     /tmp/ccVGozWR.s:46     .text:0000000000000034 .L0 
     /tmp/ccVGozWR.s:47     .text:0000000000000034 .L0 
     /tmp/ccVGozWR.s:52     .text:0000000000000040 .L0 
     /tmp/ccVGozWR.s:59     .text:000000000000004c .L0 
     /tmp/ccVGozWR.s:855    .bss._ZZN9Scheduler11getInstanceEvE8instance:0000000000000000 _ZZN9Scheduler11getInstanceEvE8instance
     /tmp/ccVGozWR.s:60     .text:000000000000004c .L0 
     /tmp/ccVGozWR.s:65     .text:000000000000005c .L0 
     /tmp/ccVGozWR.s:71     .text:0000000000000064 .L0 
     /tmp/ccVGozWR.s:72     .text:0000000000000064 .L0 
     /tmp/ccVGozWR.s:73     .text:0000000000000064 .L0 
     /tmp/ccVGozWR.s:78     .text:0000000000000068 .L0 
     /tmp/ccVGozWR.s:82     .text:000000000000006c .L0 
     /tmp/ccVGozWR.s:83     .text:000000000000006c .L0 
     /tmp/ccVGozWR.s:84     .text:000000000000006c .L0 
     /tmp/ccVGozWR.s:90     .text:0000000000000078 .L0 
     /tmp/ccVGozWR.s:91     .text:0000000000000078 .L0 
     /tmp/ccVGozWR.s:94     .text:0000000000000084 .L0 
     /tmp/ccVGozWR.s:95     .text:0000000000000084 .L0 
     /tmp/ccVGozWR.s:100    .text:0000000000000090 .L0 
     /tmp/ccVGozWR.s:107    .text:000000000000009c .L0 
     /tmp/ccVGozWR.s:108    .text:000000000000009c .L0 
     /tmp/ccVGozWR.s:114    .text:00000000000000b0 .L0 
     /tmp/ccVGozWR.s:115    .text:00000000000000b0 .L0 
     /tmp/ccVGozWR.s:122    .text:00000000000000c8 .L0 
     /tmp/ccVGozWR.s:123    .text:00000000000000cc .L0 
     /tmp/ccVGozWR.s:124    .text:00000000000000cc .L0 
     /tmp/ccVGozWR.s:126    .text:00000000000000d0 .L0 
     /tmp/ccVGozWR.s:127    .text:00000000000000d0 .L0 
     /tmp/ccVGozWR.s:129    .text:00000000000000d4 .L0 
     /tmp/ccVGozWR.s:132    .text:00000000000000d8 .L0 
     /tmp/ccVGozWR.s:136    .text:00000000000000dc .L0 
     /tmp/ccVGozWR.s:140    .text:00000000000000dc .L0 
     /tmp/ccVGozWR.s:144    .text:00000000000000dc .L0 
     /tmp/ccVGozWR.s:145    .text:00000000000000dc .L0 
     /tmp/ccVGozWR.s:834    .bss._ZGVZN15MemoryAllocator11getInstanceEvE8instance:0000000000000000 _ZGVZN15MemoryAllocator11getInstanceEvE8instance
     /tmp/ccVGozWR.s:146    .text:00000000000000dc .L0 
     /tmp/ccVGozWR.s:152    .text:00000000000000e8 .L0 
     /tmp/ccVGozWR.s:153    .text:00000000000000e8 .L0 
GAS LISTING /tmp/ccVGozWR.s 			page 25


     /tmp/ccVGozWR.s:841    .bss._ZZN15MemoryAllocator11getInstanceEvE8instance:0000000000000000 _ZZN15MemoryAllocator11getInstanceEvE8instance
     /tmp/ccVGozWR.s:158    .text:00000000000000fc .L0 
     /tmp/ccVGozWR.s:167    .text:0000000000000100 .L0 
     /tmp/ccVGozWR.s:170    .text:0000000000000108 .L0 
     /tmp/ccVGozWR.s:171    .text:0000000000000108 .L0 
     /tmp/ccVGozWR.s:177    .text:0000000000000124 .L0 
     /tmp/ccVGozWR.s:179    .text:0000000000000128 .L0 
     /tmp/ccVGozWR.s:181    .text:000000000000012c .L0 
     /tmp/ccVGozWR.s:183    .text:0000000000000130 .L0 
     /tmp/ccVGozWR.s:185    .text:0000000000000134 .L0 
     /tmp/ccVGozWR.s:186    .text:0000000000000134 .L0 
     /tmp/ccVGozWR.s:188    .text:0000000000000138 .L0 
     /tmp/ccVGozWR.s:190    .text:000000000000013c .L0 
     /tmp/ccVGozWR.s:191    .text:000000000000013c .L0 
     /tmp/ccVGozWR.s:193    .text:0000000000000140 .L0 
     /tmp/ccVGozWR.s:196    .text:0000000000000144 .L0 
     /tmp/ccVGozWR.s:197    .text:0000000000000144 .L0 
     /tmp/ccVGozWR.s:199    .text:0000000000000148 .L0 
     /tmp/ccVGozWR.s:204    .text:0000000000000154 .L0 
     /tmp/ccVGozWR.s:206    .text:0000000000000158 .L0 
     /tmp/ccVGozWR.s:208    .text:0000000000000160 .L0 
     /tmp/ccVGozWR.s:209    .text:0000000000000160 .L0 
     /tmp/ccVGozWR.s:211    .text:0000000000000164 .L0 
     /tmp/ccVGozWR.s:212    .text:0000000000000164 .L0 
     /tmp/ccVGozWR.s:214    .text:0000000000000168 .L0 
     /tmp/ccVGozWR.s:215    .text:0000000000000168 .L0 
     /tmp/ccVGozWR.s:222    .text:000000000000016c .L0 
     /tmp/ccVGozWR.s:229    .text:000000000000017c .L0 
     /tmp/ccVGozWR.s:247    .text:000000000000017c _ZN3TCB11thread_exitEv
     /tmp/ccVGozWR.s:250    .text:000000000000017c .L0 
     /tmp/ccVGozWR.s:251    .text:000000000000017c .L0 
     /tmp/ccVGozWR.s:252    .text:0000000000000180 .L0 
     /tmp/ccVGozWR.s:255    .text:0000000000000188 .L0 
     /tmp/ccVGozWR.s:256    .text:0000000000000188 .L0 
     /tmp/ccVGozWR.s:258    .text:000000000000018c .L0 
     /tmp/ccVGozWR.s:263    .text:000000000000018c .L0 
     /tmp/ccVGozWR.s:264    .text:000000000000018c .L0 
     /tmp/ccVGozWR.s:265    .text:000000000000018c .L0 
     /tmp/ccVGozWR.s:272    .text:000000000000019c .L0 
     /tmp/ccVGozWR.s:273    .text:000000000000019c .L0 
     /tmp/ccVGozWR.s:276    .text:00000000000001a4 .L0 
     /tmp/ccVGozWR.s:277    .text:00000000000001a4 .L0 
     /tmp/ccVGozWR.s:279    .text:00000000000001ac .L0 
     /tmp/ccVGozWR.s:281    .text:00000000000001b0 .L0 
     /tmp/ccVGozWR.s:282    .text:00000000000001b0 .L0 
     /tmp/ccVGozWR.s:284    .text:00000000000001b4 .L0 
     /tmp/ccVGozWR.s:286    .text:00000000000001b8 .L0 
     /tmp/ccVGozWR.s:292    .text:00000000000001b8 _ZN3TCB14thread_wrapperEv
     /tmp/ccVGozWR.s:295    .text:00000000000001b8 .L0 
     /tmp/ccVGozWR.s:296    .text:00000000000001b8 .L0 
     /tmp/ccVGozWR.s:297    .text:00000000000001bc .L0 
     /tmp/ccVGozWR.s:300    .text:00000000000001c4 .L0 
     /tmp/ccVGozWR.s:301    .text:00000000000001c4 .L0 
     /tmp/ccVGozWR.s:303    .text:00000000000001c8 .L0 
     /tmp/ccVGozWR.s:305    .text:00000000000001c8 .L0 
     /tmp/ccVGozWR.s:306    .text:00000000000001c8 .L0 
     /tmp/ccVGozWR.s:309    .text:00000000000001d0 .L0 
GAS LISTING /tmp/ccVGozWR.s 			page 26


     /tmp/ccVGozWR.s:310    .text:00000000000001d0 .L0 
     /tmp/ccVGozWR.s:313    .text:00000000000001dc .L0 
     /tmp/ccVGozWR.s:317    .text:00000000000001e4 .L0 
     /tmp/ccVGozWR.s:318    .text:00000000000001e4 .L0 
     /tmp/ccVGozWR.s:321    .text:00000000000001ec .L0 
     /tmp/ccVGozWR.s:322    .text:00000000000001f0 .L0 
     /tmp/ccVGozWR.s:324    .text:00000000000001f4 .L0 
     /tmp/ccVGozWR.s:325    .text:00000000000001f4 .L0 
     /tmp/ccVGozWR.s:327    .text:00000000000001f8 .L0 
     /tmp/ccVGozWR.s:329    .text:00000000000001fc .L0 
     /tmp/ccVGozWR.s:335    .text:00000000000001fc _ZN3TCBC2EPFvPvES0_S0_b
     /tmp/ccVGozWR.s:338    .text:00000000000001fc .L0 
     /tmp/ccVGozWR.s:340    .text:00000000000001fc .L0 
     /tmp/ccVGozWR.s:341    .text:0000000000000200 .L0 
     /tmp/ccVGozWR.s:343    .text:0000000000000204 .L0 
     /tmp/ccVGozWR.s:345    .text:0000000000000208 .L0 
     /tmp/ccVGozWR.s:348    .text:0000000000000208 .L0 
     /tmp/ccVGozWR.s:349    .text:0000000000000208 .L0 
     /tmp/ccVGozWR.s:351    .text:000000000000020c .L0 
     /tmp/ccVGozWR.s:352    .text:000000000000020c .L0 
     /tmp/ccVGozWR.s:354    .text:0000000000000210 .L0 
     /tmp/ccVGozWR.s:355    .text:0000000000000210 .L0 
     /tmp/ccVGozWR.s:357    .text:0000000000000214 .L0 
     /tmp/ccVGozWR.s:358    .text:0000000000000214 .L0 
     /tmp/ccVGozWR.s:361    .text:0000000000000220 .L0 
     /tmp/ccVGozWR.s:362    .text:0000000000000220 .L0 
     /tmp/ccVGozWR.s:364    .text:0000000000000224 .L0 
     /tmp/ccVGozWR.s:369    .text:000000000000022c .L0 
     /tmp/ccVGozWR.s:371    .text:0000000000000230 .L0 
     /tmp/ccVGozWR.s:372    .text:0000000000000230 .L0 
     /tmp/ccVGozWR.s:374    .text:0000000000000234 .L0 
     /tmp/ccVGozWR.s:375    .text:0000000000000234 .L0 
     /tmp/ccVGozWR.s:377    .text:0000000000000238 .L0 
     /tmp/ccVGozWR.s:378    .text:0000000000000238 .L0 
     /tmp/ccVGozWR.s:380    .text:000000000000023c .L0 
     /tmp/ccVGozWR.s:381    .text:000000000000023c .L0 
     /tmp/ccVGozWR.s:383    .text:0000000000000240 .L0 
     /tmp/ccVGozWR.s:384    .text:0000000000000240 .L0 
     /tmp/ccVGozWR.s:387    .text:0000000000000248 .L0 
     /tmp/ccVGozWR.s:388    .text:0000000000000248 .L0 
     /tmp/ccVGozWR.s:390    .text:000000000000024c .L0 
     /tmp/ccVGozWR.s:391    .text:000000000000024c .L0 
     /tmp/ccVGozWR.s:397    .text:0000000000000260 .L0 
     /tmp/ccVGozWR.s:399    .text:0000000000000264 .L0 
     /tmp/ccVGozWR.s:400    .text:0000000000000264 .L0 
     /tmp/ccVGozWR.s:402    .text:0000000000000268 .L0 
     /tmp/ccVGozWR.s:403    .text:0000000000000268 .L0 
     /tmp/ccVGozWR.s:405    .text:000000000000026c .L0 
     /tmp/ccVGozWR.s:406    .text:000000000000026c .L0 
     /tmp/ccVGozWR.s:409    .text:0000000000000270 .L0 
     /tmp/ccVGozWR.s:410    .text:0000000000000274 .L0 
     /tmp/ccVGozWR.s:411    .text:0000000000000274 .L0 
     /tmp/ccVGozWR.s:412    .text:0000000000000274 .L0 
     /tmp/ccVGozWR.s:414    .text:0000000000000278 .L0 
     /tmp/ccVGozWR.s:418    .text:000000000000027c .L0 
     /tmp/ccVGozWR.s:421    .text:000000000000027c .L0 
     /tmp/ccVGozWR.s:425    .text:0000000000000284 .L0 
GAS LISTING /tmp/ccVGozWR.s 			page 27


     /tmp/ccVGozWR.s:335    .text:00000000000001fc _ZN3TCBC1EPFvPvES0_S0_b
     /tmp/ccVGozWR.s:433    .text:0000000000000284 _ZN3TCB13thread_createEPPS_PFvPvES2_S2_b
     /tmp/ccVGozWR.s:436    .text:0000000000000284 .L0 
     /tmp/ccVGozWR.s:438    .text:0000000000000284 .L0 
     /tmp/ccVGozWR.s:439    .text:0000000000000288 .L0 
     /tmp/ccVGozWR.s:448    .text:00000000000002a8 .L0 
     /tmp/ccVGozWR.s:449    .text:00000000000002a8 .L0 
     /tmp/ccVGozWR.s:450    .text:00000000000002a8 .L0 
     /tmp/ccVGozWR.s:451    .text:00000000000002a8 .L0 
     /tmp/ccVGozWR.s:452    .text:00000000000002a8 .L0 
     /tmp/ccVGozWR.s:453    .text:00000000000002a8 .L0 
     /tmp/ccVGozWR.s:454    .text:00000000000002a8 .L0 
     /tmp/ccVGozWR.s:455    .text:00000000000002a8 .L0 
     /tmp/ccVGozWR.s:457    .text:00000000000002ac .L0 
     /tmp/ccVGozWR.s:467    .text:00000000000002c0 .L0 
     /tmp/ccVGozWR.s:468    .text:00000000000002c0 .L0 
     /tmp/ccVGozWR.s:471    .text:00000000000002c0 .L0 
     /tmp/ccVGozWR.s:472    .text:00000000000002c0 .L0 
     /tmp/ccVGozWR.s:473    .text:00000000000002c0 .L0 
     /tmp/ccVGozWR.s:480    .text:00000000000002cc .L0 
     /tmp/ccVGozWR.s:481    .text:00000000000002cc .L0 
     /tmp/ccVGozWR.s:492    .text:00000000000002e4 .L0 
     /tmp/ccVGozWR.s:499    .text:00000000000002fc .L0 
     /tmp/ccVGozWR.s:500    .text:00000000000002fc .L0 
     /tmp/ccVGozWR.s:502    .text:0000000000000300 .L0 
     /tmp/ccVGozWR.s:504    .text:0000000000000304 .L0 
     /tmp/ccVGozWR.s:506    .text:000000000000030c .L0 
     /tmp/ccVGozWR.s:508    .text:0000000000000310 .L0 
     /tmp/ccVGozWR.s:512    .text:0000000000000314 .L0 
     /tmp/ccVGozWR.s:513    .text:0000000000000314 .L0 
     /tmp/ccVGozWR.s:514    .text:0000000000000314 .L0 
     /tmp/ccVGozWR.s:520    .text:0000000000000320 .L0 
     /tmp/ccVGozWR.s:521    .text:0000000000000320 .L0 
     /tmp/ccVGozWR.s:524    .text:000000000000032c .L0 
     /tmp/ccVGozWR.s:525    .text:000000000000032c .L0 
     /tmp/ccVGozWR.s:530    .text:0000000000000338 .L0 
     /tmp/ccVGozWR.s:537    .text:0000000000000344 .L0 
     /tmp/ccVGozWR.s:538    .text:0000000000000344 .L0 
     /tmp/ccVGozWR.s:544    .text:0000000000000358 .L0 
     /tmp/ccVGozWR.s:545    .text:0000000000000358 .L0 
     /tmp/ccVGozWR.s:547    .text:000000000000035c .L0 
     /tmp/ccVGozWR.s:549    .text:0000000000000360 .L0 
     /tmp/ccVGozWR.s:552    .text:0000000000000364 .L0 
     /tmp/ccVGozWR.s:553    .text:0000000000000368 .L0 
     /tmp/ccVGozWR.s:554    .text:0000000000000368 .L0 
     /tmp/ccVGozWR.s:556    .text:000000000000036c .L0 
     /tmp/ccVGozWR.s:557    .text:000000000000036c .L0 
     /tmp/ccVGozWR.s:559    .text:0000000000000370 .L0 
     /tmp/ccVGozWR.s:562    .text:0000000000000374 .L0 
     /tmp/ccVGozWR.s:565    .text:0000000000000378 .L0 
     /tmp/ccVGozWR.s:568    .text:000000000000037c .L0 
     /tmp/ccVGozWR.s:570    .text:0000000000000380 .L0 
     /tmp/ccVGozWR.s:573    .text:0000000000000384 .L0 
     /tmp/ccVGozWR.s:576    .text:0000000000000388 .L0 
     /tmp/ccVGozWR.s:580    .text:000000000000038c .L0 
     /tmp/ccVGozWR.s:589    .text:000000000000038c .L0 
     /tmp/ccVGozWR.s:593    .text:0000000000000394 .L0 
GAS LISTING /tmp/ccVGozWR.s 			page 28


     /tmp/ccVGozWR.s:594    .text:0000000000000394 .L0 
     /tmp/ccVGozWR.s:602    .text:00000000000003b0 .L0 
     /tmp/ccVGozWR.s:604    .text:00000000000003b4 .L0 
     /tmp/ccVGozWR.s:606    .text:00000000000003b8 .L0 
     /tmp/ccVGozWR.s:608    .text:00000000000003bc .L0 
     /tmp/ccVGozWR.s:610    .text:00000000000003c0 .L0 
     /tmp/ccVGozWR.s:611    .text:00000000000003c0 .L0 
     /tmp/ccVGozWR.s:613    .text:00000000000003c4 .L0 
     /tmp/ccVGozWR.s:615    .text:00000000000003c8 .L0 
     /tmp/ccVGozWR.s:616    .text:00000000000003c8 .L0 
     /tmp/ccVGozWR.s:618    .text:00000000000003cc .L0 
     /tmp/ccVGozWR.s:621    .text:00000000000003d0 .L0 
     /tmp/ccVGozWR.s:622    .text:00000000000003d0 .L0 
     /tmp/ccVGozWR.s:624    .text:00000000000003d4 .L0 
     /tmp/ccVGozWR.s:629    .text:00000000000003e0 .L0 
     /tmp/ccVGozWR.s:631    .text:00000000000003e4 .L0 
     /tmp/ccVGozWR.s:633    .text:00000000000003ec .L0 
     /tmp/ccVGozWR.s:634    .text:00000000000003ec .L0 
     /tmp/ccVGozWR.s:636    .text:00000000000003f0 .L0 
     /tmp/ccVGozWR.s:637    .text:00000000000003f0 .L0 
     /tmp/ccVGozWR.s:639    .text:00000000000003f4 .L0 
     /tmp/ccVGozWR.s:640    .text:00000000000003f4 .L0 
     /tmp/ccVGozWR.s:647    .text:00000000000003f8 .L0 
     /tmp/ccVGozWR.s:657    .text:0000000000000408 .L0 
     /tmp/ccVGozWR.s:659    .text:0000000000000410 .L0 
     /tmp/ccVGozWR.s:665    .text:0000000000000410 _ZN3TCB5yieldEv
     /tmp/ccVGozWR.s:668    .text:0000000000000410 .L0 
     /tmp/ccVGozWR.s:669    .text:0000000000000410 .L0 
     /tmp/ccVGozWR.s:670    .text:0000000000000414 .L0 
     /tmp/ccVGozWR.s:674    .text:0000000000000420 .L0 
     /tmp/ccVGozWR.s:675    .text:0000000000000420 .L0 
     /tmp/ccVGozWR.s:676    .text:0000000000000420 .L0 
     /tmp/ccVGozWR.s:678    .text:0000000000000424 .L0 
     /tmp/ccVGozWR.s:680    .text:0000000000000424 .L0 
     /tmp/ccVGozWR.s:681    .text:0000000000000424 .L0 
     /tmp/ccVGozWR.s:686    .text:000000000000042c .L0 
     /tmp/ccVGozWR.s:687    .text:000000000000042c .L0 
     /tmp/ccVGozWR.s:688    .text:000000000000042c .L0 
     /tmp/ccVGozWR.s:694    .text:0000000000000438 .L0 
     /tmp/ccVGozWR.s:695    .text:0000000000000438 .L0 
     /tmp/ccVGozWR.s:698    .text:0000000000000444 .L0 
     /tmp/ccVGozWR.s:699    .text:0000000000000444 .L0 
     /tmp/ccVGozWR.s:704    .text:0000000000000450 .L0 
     /tmp/ccVGozWR.s:711    .text:000000000000045c .L0 
     /tmp/ccVGozWR.s:712    .text:000000000000045c .L0 
     /tmp/ccVGozWR.s:716    .text:000000000000046c .L0 
     /tmp/ccVGozWR.s:719    .text:0000000000000478 .L0 
     /tmp/ccVGozWR.s:720    .text:0000000000000478 .L0 
     /tmp/ccVGozWR.s:722    .text:000000000000047c .L0 
     /tmp/ccVGozWR.s:723    .text:000000000000047c .L0 
     /tmp/ccVGozWR.s:728    .text:000000000000048c .L0 
     /tmp/ccVGozWR.s:729    .text:0000000000000490 .L0 
     /tmp/ccVGozWR.s:731    .text:0000000000000494 .L0 
     /tmp/ccVGozWR.s:732    .text:0000000000000494 .L0 
     /tmp/ccVGozWR.s:734    .text:0000000000000498 .L0 
     /tmp/ccVGozWR.s:737    .text:000000000000049c .L0 
     /tmp/ccVGozWR.s:739    .text:00000000000004a0 .L0 
GAS LISTING /tmp/ccVGozWR.s 			page 29


     /tmp/ccVGozWR.s:745    .text:00000000000004a0 _ZN3TCB10time_sleepEm
     /tmp/ccVGozWR.s:748    .text:00000000000004a0 .L0 
     /tmp/ccVGozWR.s:750    .text:00000000000004a0 .L0 
     /tmp/ccVGozWR.s:751    .text:00000000000004a4 .L0 
     /tmp/ccVGozWR.s:754    .text:00000000000004ac .L0 
     /tmp/ccVGozWR.s:755    .text:00000000000004ac .L0 
     /tmp/ccVGozWR.s:757    .text:00000000000004b0 .L0 
     /tmp/ccVGozWR.s:759    .text:00000000000004b0 .L0 
     /tmp/ccVGozWR.s:760    .text:00000000000004b0 .L0 
     /tmp/ccVGozWR.s:765    .text:00000000000004b8 .L0 
     /tmp/ccVGozWR.s:766    .text:00000000000004b8 .L0 
     /tmp/ccVGozWR.s:774    .text:00000000000004bc .L0 
     /tmp/ccVGozWR.s:775    .text:00000000000004bc .L0 
     /tmp/ccVGozWR.s:827    .bss._ZGVZN2TS11getInstanceEvE8instance:0000000000000000 _ZGVZN2TS11getInstanceEvE8instance
     /tmp/ccVGozWR.s:776    .text:00000000000004bc .L0 
     /tmp/ccVGozWR.s:782    .text:00000000000004c8 .L0 
     /tmp/ccVGozWR.s:783    .text:00000000000004c8 .L0 
     /tmp/ccVGozWR.s:788    .text:00000000000004d4 .L0 
     /tmp/ccVGozWR.s:795    .text:00000000000004e0 .L0 
     /tmp/ccVGozWR.s:796    .text:00000000000004e0 .L0 
     /tmp/ccVGozWR.s:801    .text:00000000000004ec .L0 
     /tmp/ccVGozWR.s:802    .text:00000000000004ec .L0 
     /tmp/ccVGozWR.s:805    .text:00000000000004f4 .L0 
     /tmp/ccVGozWR.s:806    .text:00000000000004f4 .L0 
     /tmp/ccVGozWR.s:808    .text:00000000000004fc .L0 
     /tmp/ccVGozWR.s:810    .text:0000000000000500 .L0 
     /tmp/ccVGozWR.s:811    .text:0000000000000500 .L0 
     /tmp/ccVGozWR.s:813    .text:0000000000000504 .L0 
     /tmp/ccVGozWR.s:815    .text:0000000000000508 .L0 
     /tmp/ccVGozWR.s:866    .bss:0000000000000008 _ZN3TCB2IDE
     /tmp/ccVGozWR.s:874    .bss:0000000000000018 _ZN3TCB18time_slice_counterE
     /tmp/ccVGozWR.s:870    .bss:0000000000000010 _ZN3TCB4idleE
     /tmp/ccVGozWR.s:862    .bss:0000000000000000 _ZN3TCB7runningE
     /tmp/ccVGozWR.s:859    .bss:0000000000000000 .LANCHOR0
     /tmp/ccVGozWR.s:880    .text:0000000000000508 .L0 
     /tmp/ccVGozWR.s:28     .text:0000000000000014 .L0 
     /tmp/ccVGozWR.s:36     .text:000000000000001c .L0 
     /tmp/ccVGozWR.s:43     .text:0000000000000028 .L0 
     /tmp/ccVGozWR.s:47     .text:0000000000000034 .L0 
     /tmp/ccVGozWR.s:53     .text:0000000000000044 .L0 
     /tmp/ccVGozWR.s:60     .text:000000000000004c .L0 
     /tmp/ccVGozWR.s:65     .text:000000000000005c .L0 
     /tmp/ccVGozWR.s:84     .text:000000000000006c .L0 
     /tmp/ccVGozWR.s:91     .text:0000000000000078 .L0 
     /tmp/ccVGozWR.s:95     .text:0000000000000084 .L0 
     /tmp/ccVGozWR.s:101    .text:0000000000000094 .L0 
     /tmp/ccVGozWR.s:109    .text:00000000000000a0 .L0 
     /tmp/ccVGozWR.s:115    .text:00000000000000b0 .L0 
     /tmp/ccVGozWR.s:146    .text:00000000000000dc .L0 
     /tmp/ccVGozWR.s:154    .text:00000000000000ec .L0 
     /tmp/ccVGozWR.s:167    .text:0000000000000100 .L0 
     /tmp/ccVGozWR.s:171    .text:0000000000000108 .L0 
     /tmp/ccVGozWR.s:173    .text:0000000000000114 .L0 
     /tmp/ccVGozWR.s:206    .text:0000000000000158 .L0 
     /tmp/ccVGozWR.s:223    .text:0000000000000170 .L0 
     /tmp/ccVGozWR.s:265    .text:000000000000018c .L0 
     /tmp/ccVGozWR.s:310    .text:00000000000001d0 .L0 
GAS LISTING /tmp/ccVGozWR.s 			page 30


     /tmp/ccVGozWR.s:358    .text:0000000000000214 .L0 
     /tmp/ccVGozWR.s:391    .text:000000000000024c .L0 
     /tmp/ccVGozWR.s:473    .text:00000000000002c0 .L0 
     /tmp/ccVGozWR.s:483    .text:00000000000002d0 .L0 
     /tmp/ccVGozWR.s:504    .text:0000000000000304 .L0 
     /tmp/ccVGozWR.s:514    .text:0000000000000314 .L0 
     /tmp/ccVGozWR.s:521    .text:0000000000000320 .L0 
     /tmp/ccVGozWR.s:525    .text:000000000000032c .L0 
     /tmp/ccVGozWR.s:531    .text:000000000000033c .L0 
     /tmp/ccVGozWR.s:539    .text:0000000000000348 .L0 
     /tmp/ccVGozWR.s:589    .text:000000000000038c .L0 
     /tmp/ccVGozWR.s:594    .text:0000000000000394 .L0 
     /tmp/ccVGozWR.s:597    .text:00000000000003a0 .L0 
     /tmp/ccVGozWR.s:631    .text:00000000000003e4 .L0 
     /tmp/ccVGozWR.s:648    .text:00000000000003fc .L0 
     /tmp/ccVGozWR.s:681    .text:0000000000000424 .L0 
     /tmp/ccVGozWR.s:688    .text:000000000000042c .L0 
     /tmp/ccVGozWR.s:695    .text:0000000000000438 .L0 
     /tmp/ccVGozWR.s:699    .text:0000000000000444 .L0 
     /tmp/ccVGozWR.s:705    .text:0000000000000454 .L0 
     /tmp/ccVGozWR.s:712    .text:000000000000045c .L0 
     /tmp/ccVGozWR.s:716    .text:000000000000046c .L0 
     /tmp/ccVGozWR.s:760    .text:00000000000004b0 .L0 
     /tmp/ccVGozWR.s:776    .text:00000000000004bc .L0 
     /tmp/ccVGozWR.s:783    .text:00000000000004c8 .L0 
     /tmp/ccVGozWR.s:789    .text:00000000000004d8 .L0 
     /tmp/ccVGozWR.s:55     .text:000000000000004c .L2
     /tmp/ccVGozWR.s:135    .text:00000000000000dc .L3
     /tmp/ccVGozWR.s:103    .text:000000000000009c .L4
     /tmp/ccVGozWR.s:159    .text:0000000000000100 .L9
     /tmp/ccVGozWR.s:112    .text:00000000000000b0 .L5
     /tmp/ccVGozWR.s:202    .text:0000000000000154 .L7
     /tmp/ccVGozWR.s:148    .text:00000000000000e8 .L6
     /tmp/ccVGozWR.s:417    .text:000000000000027c .L16
     /tmp/ccVGozWR.s:367    .text:000000000000022c .L15
     /tmp/ccVGozWR.s:579    .text:000000000000038c .L26
     /tmp/ccVGozWR.s:542    .text:0000000000000358 .L21
     /tmp/ccVGozWR.s:533    .text:0000000000000344 .L22
     /tmp/ccVGozWR.s:651    .text:0000000000000408 .L24
     /tmp/ccVGozWR.s:627    .text:00000000000003e0 .L20
     /tmp/ccVGozWR.s:476    .text:00000000000002cc .L19
     /tmp/ccVGozWR.s:550    .text:0000000000000364 .L23
     /tmp/ccVGozWR.s:707    .text:000000000000045c .L28
     /tmp/ccVGozWR.s:791    .text:00000000000004e0 .L31
     /tmp/ccVGozWR.s:61     .text:0000000000000054 .LEHB0
     /tmp/ccVGozWR.s:10     .text:0000000000000000 .LFB58
     /tmp/ccVGozWR.s:120    .text:00000000000000c8 .LEHE0
     /tmp/ccVGozWR.s:2945   .debug_abbrev:0000000000000000 .Ldebug_abbrev0
     /tmp/ccVGozWR.s:4849   .debug_str:0000000000000b5c .LASF194
     /tmp/ccVGozWR.s:4603   .debug_str:0000000000000289 .LASF195
     /tmp/ccVGozWR.s:4547   .debug_str:0000000000000098 .LASF196
     /tmp/ccVGozWR.s:5      .text:0000000000000000 .Ltext0
     /tmp/ccVGozWR.s:877    .text:0000000000000508 .Letext0
     /tmp/ccVGozWR.s:4519   .debug_line:0000000000000000 .Ldebug_line0
     /tmp/ccVGozWR.s:4651   .debug_str:000000000000046f .LASF0
     /tmp/ccVGozWR.s:4685   .debug_str:00000000000005cd .LASF1
     /tmp/ccVGozWR.s:4783   .debug_str:0000000000000983 .LASF2
GAS LISTING /tmp/ccVGozWR.s 			page 31


     /tmp/ccVGozWR.s:4795   .debug_str:00000000000009ea .LASF4
     /tmp/ccVGozWR.s:4661   .debug_str:00000000000004be .LASF3
     /tmp/ccVGozWR.s:4537   .debug_str:000000000000005a .LASF5
     /tmp/ccVGozWR.s:4741   .debug_str:00000000000007f5 .LASF6
     /tmp/ccVGozWR.s:4679   .debug_str:00000000000005a2 .LASF7
     /tmp/ccVGozWR.s:4625   .debug_str:000000000000034d .LASF8
     /tmp/ccVGozWR.s:4633   .debug_str:00000000000003b6 .LASF9
     /tmp/ccVGozWR.s:4567   .debug_str:000000000000014e .LASF10
     /tmp/ccVGozWR.s:4869   .debug_str:0000000000000ccc .LASF11
     /tmp/ccVGozWR.s:4615   .debug_str:000000000000031e .LASF12
     /tmp/ccVGozWR.s:4579   .debug_str:00000000000001a9 .LASF13
     /tmp/ccVGozWR.s:4565   .debug_str:000000000000013e .LASF14
     /tmp/ccVGozWR.s:4833   .debug_str:0000000000000afb .LASF15
     /tmp/ccVGozWR.s:4837   .debug_str:0000000000000b16 .LASF16
     /tmp/ccVGozWR.s:4819   .debug_str:0000000000000a9b .LASF17
     /tmp/ccVGozWR.s:4623   .debug_str:0000000000000343 .LASF18
     /tmp/ccVGozWR.s:4897   .debug_str:0000000000000d98 .LASF28
     /tmp/ccVGozWR.s:4677   .debug_str:0000000000000585 .LASF30
     /tmp/ccVGozWR.s:4563   .debug_str:0000000000000129 .LASF20
     /tmp/ccVGozWR.s:4787   .debug_str:000000000000099e .LASF19
     /tmp/ccVGozWR.s:4793   .debug_str:00000000000009d5 .LASF21
     /tmp/ccVGozWR.s:4907   .debug_str:0000000000000de4 .LASF117
     /tmp/ccVGozWR.s:4643   .debug_str:00000000000003fa .LASF197
     /tmp/ccVGozWR.s:4903   .debug_str:0000000000000dc1 .LASF73
     /tmp/ccVGozWR.s:4823   .debug_str:0000000000000ac2 .LASF22
     /tmp/ccVGozWR.s:4721   .debug_str:0000000000000748 .LASF23
     /tmp/ccVGozWR.s:4841   .debug_str:0000000000000b35 .LASF94
     /tmp/ccVGozWR.s:4797   .debug_str:00000000000009f1 .LASF24
     /tmp/ccVGozWR.s:4535   .debug_str:000000000000004e .LASF26
     /tmp/ccVGozWR.s:4831   .debug_str:0000000000000aed .LASF25
     /tmp/ccVGozWR.s:4645   .debug_str:0000000000000412 .LASF27
     /tmp/ccVGozWR.s:4703   .debug_str:0000000000000661 .LASF29
     /tmp/ccVGozWR.s:4613   .debug_str:0000000000000307 .LASF31
     /tmp/ccVGozWR.s:4763   .debug_str:00000000000008d9 .LASF64
     /tmp/ccVGozWR.s:4809   .debug_str:0000000000000a44 .LASF66
     /tmp/ccVGozWR.s:4775   .debug_str:000000000000094b .LASF32
     /tmp/ccVGozWR.s:4799   .debug_str:00000000000009f6 .LASF33
     /tmp/ccVGozWR.s:4883   .debug_str:0000000000000d3a .LASF34
     /tmp/ccVGozWR.s:4585   .debug_str:00000000000001d3 .LASF35
     /tmp/ccVGozWR.s:4737   .debug_str:00000000000007d9 .LASF36
     /tmp/ccVGozWR.s:4717   .debug_str:0000000000000728 .LASF37
     /tmp/ccVGozWR.s:4753   .debug_str:0000000000000873 .LASF38
     /tmp/ccVGozWR.s:4609   .debug_str:00000000000002ca .LASF39
     /tmp/ccVGozWR.s:4879   .debug_str:0000000000000d1a .LASF40
     /tmp/ccVGozWR.s:4751   .debug_str:0000000000000854 .LASF41
     /tmp/ccVGozWR.s:4835   .debug_str:0000000000000b07 .LASF42
     /tmp/ccVGozWR.s:4773   .debug_str:000000000000092f .LASF43
     /tmp/ccVGozWR.s:4669   .debug_str:0000000000000516 .LASF44
     /tmp/ccVGozWR.s:4765   .debug_str:00000000000008e9 .LASF45
     /tmp/ccVGozWR.s:4887   .debug_str:0000000000000d51 .LASF46
     /tmp/ccVGozWR.s:4851   .debug_str:0000000000000c20 .LASF47
     /tmp/ccVGozWR.s:4821   .debug_str:0000000000000ab1 .LASF48
     /tmp/ccVGozWR.s:4611   .debug_str:00000000000002ea .LASF49
     /tmp/ccVGozWR.s:4913   .debug_str:0000000000000e11 .LASF50
     /tmp/ccVGozWR.s:4817   .debug_str:0000000000000a81 .LASF51
     /tmp/ccVGozWR.s:4859   .debug_str:0000000000000c6b .LASF52
     /tmp/ccVGozWR.s:4767   .debug_str:0000000000000904 .LASF53
GAS LISTING /tmp/ccVGozWR.s 			page 32


     /tmp/ccVGozWR.s:4671   .debug_str:0000000000000525 .LASF54
     /tmp/ccVGozWR.s:4605   .debug_str:0000000000000295 .LASF55
     /tmp/ccVGozWR.s:4857   .debug_str:0000000000000c5c .LASF56
     /tmp/ccVGozWR.s:4659   .debug_str:00000000000004a3 .LASF57
     /tmp/ccVGozWR.s:4881   .debug_str:0000000000000d2d .LASF58
     /tmp/ccVGozWR.s:4867   .debug_str:0000000000000cb4 .LASF59
     /tmp/ccVGozWR.s:4807   .debug_str:0000000000000a34 .LASF60
     /tmp/ccVGozWR.s:4571   .debug_str:0000000000000162 .LASF61
     /tmp/ccVGozWR.s:4723   .debug_str:000000000000074d .LASF62
     /tmp/ccVGozWR.s:4747   .debug_str:0000000000000822 .LASF63
     /tmp/ccVGozWR.s:4687   .debug_str:00000000000005e0 .LASF65
     /tmp/ccVGozWR.s:4855   .debug_str:0000000000000c4c .LASF67
     /tmp/ccVGozWR.s:4915   .debug_str:0000000000000e1f .LASF68
     /tmp/ccVGozWR.s:4629   .debug_str:000000000000038e .LASF69
     /tmp/ccVGozWR.s:4561   .debug_str:0000000000000119 .LASF70
     /tmp/ccVGozWR.s:4621   .debug_str:0000000000000337 .LASF71
     /tmp/ccVGozWR.s:4531   .debug_str:0000000000000038 .LASF72
     /tmp/ccVGozWR.s:4699   .debug_str:0000000000000648 .LASF74
     /tmp/ccVGozWR.s:4911   .debug_str:0000000000000dfe .LASF75
     /tmp/ccVGozWR.s:4785   .debug_str:0000000000000991 .LASF76
     /tmp/ccVGozWR.s:4847   .debug_str:0000000000000b54 .LASF77
     /tmp/ccVGozWR.s:4617   .debug_str:000000000000032d .LASF78
     /tmp/ccVGozWR.s:4727   .debug_str:0000000000000764 .LASF120
     /tmp/ccVGozWR.s:4735   .debug_str:00000000000007d4 .LASF198
     /tmp/ccVGozWR.s:4697   .debug_str:0000000000000639 .LASF113
     /tmp/ccVGozWR.s:4689   .debug_str:00000000000005e6 .LASF114
     /tmp/ccVGozWR.s:4595   .debug_str:0000000000000249 .LASF171
     /tmp/ccVGozWR.s:4713   .debug_str:00000000000006ef .LASF173
     /tmp/ccVGozWR.s:4813   .debug_str:0000000000000a64 .LASF79
     /tmp/ccVGozWR.s:4529   .debug_str:0000000000000033 .LASF80
     /tmp/ccVGozWR.s:4667   .debug_str:000000000000050d .LASF81
     /tmp/ccVGozWR.s:4909   .debug_str:0000000000000df8 .LASF82
     /tmp/ccVGozWR.s:4863   .debug_str:0000000000000c97 .LASF83
     /tmp/ccVGozWR.s:4839   .debug_str:0000000000000b2c .LASF84
     /tmp/ccVGozWR.s:4843   .debug_str:0000000000000b3d .LASF85
     /tmp/ccVGozWR.s:4641   .debug_str:00000000000003ef .LASF86
     /tmp/ccVGozWR.s:4583   .debug_str:00000000000001c6 .LASF87
     /tmp/ccVGozWR.s:4551   .debug_str:00000000000000e5 .LASF88
     /tmp/ccVGozWR.s:4771   .debug_str:0000000000000924 .LASF89
     /tmp/ccVGozWR.s:4811   .debug_str:0000000000000a5f .LASF90
     /tmp/ccVGozWR.s:4691   .debug_str:000000000000060f .LASF91
     /tmp/ccVGozWR.s:4553   .debug_str:00000000000000eb .LASF92
     /tmp/ccVGozWR.s:4739   .debug_str:00000000000007e5 .LASF93
     /tmp/ccVGozWR.s:4845   .debug_str:0000000000000b4c .LASF95
     /tmp/ccVGozWR.s:4683   .debug_str:00000000000005c8 .LASF96
     /tmp/ccVGozWR.s:4569   .debug_str:000000000000015d .LASF97
     /tmp/ccVGozWR.s:4521   .debug_str:0000000000000000 .LASF98
     /tmp/ccVGozWR.s:4709   .debug_str:00000000000006a8 .LASF99
     /tmp/ccVGozWR.s:4665   .debug_str:00000000000004f1 .LASF100
     /tmp/ccVGozWR.s:4877   .debug_str:0000000000000cfe .LASF101
     /tmp/ccVGozWR.s:4581   .debug_str:00000000000001b9 .LASF102
     /tmp/ccVGozWR.s:4705   .debug_str:000000000000066d .LASF103
     /tmp/ccVGozWR.s:4545   .debug_str:000000000000008c .LASF104
     /tmp/ccVGozWR.s:4757   .debug_str:000000000000088d .LASF105
     /tmp/ccVGozWR.s:4779   .debug_str:000000000000095f .LASF106
     /tmp/ccVGozWR.s:4627   .debug_str:000000000000035d .LASF107
     /tmp/ccVGozWR.s:4589   .debug_str:00000000000001f8 .LASF108
GAS LISTING /tmp/ccVGozWR.s 			page 33


     /tmp/ccVGozWR.s:4675   .debug_str:0000000000000556 .LASF109
     /tmp/ccVGozWR.s:4815   .debug_str:0000000000000a77 .LASF110
     /tmp/ccVGozWR.s:4891   .debug_str:0000000000000d6c .LASF111
     /tmp/ccVGozWR.s:4917   .debug_str:0000000000000e2c .LASF112
     /tmp/ccVGozWR.s:4549   .debug_str:00000000000000cc .LASF115
     /tmp/ccVGozWR.s:4749   .debug_str:000000000000083e .LASF116
     /tmp/ccVGozWR.s:4525   .debug_str:000000000000001b .LASF118
     /tmp/ccVGozWR.s:4543   .debug_str:000000000000007e .LASF119
     /tmp/ccVGozWR.s:4905   .debug_str:0000000000000dd3 .LASF121
     /tmp/ccVGozWR.s:4791   .debug_str:00000000000009c0 .LASF122
     /tmp/ccVGozWR.s:4715   .debug_str:0000000000000709 .LASF123
     /tmp/ccVGozWR.s:4825   .debug_str:0000000000000ac7 .LASF124
     /tmp/ccVGozWR.s:4769   .debug_str:000000000000091f .LASF125
     /tmp/ccVGozWR.s:4555   .debug_str:00000000000000f7 .LASF126
     /tmp/ccVGozWR.s:4875   .debug_str:0000000000000cef .LASF127
     /tmp/ccVGozWR.s:4649   .debug_str:0000000000000453 .LASF128
     /tmp/ccVGozWR.s:4523   .debug_str:0000000000000005 .LASF129
     /tmp/ccVGozWR.s:4711   .debug_str:00000000000006cc .LASF130
     /tmp/ccVGozWR.s:4805   .debug_str:0000000000000a26 .LASF131
     /tmp/ccVGozWR.s:4607   .debug_str:00000000000002af .LASF132
     /tmp/ccVGozWR.s:4653   .debug_str:000000000000047c .LASF133
     /tmp/ccVGozWR.s:4893   .debug_str:0000000000000d76 .LASF134
     /tmp/ccVGozWR.s:4637   .debug_str:00000000000003d2 .LASF135
     /tmp/ccVGozWR.s:4647   .debug_str:000000000000043b .LASF136
     /tmp/ccVGozWR.s:4873   .debug_str:0000000000000ce6 .LASF137
     /tmp/ccVGozWR.s:4865   .debug_str:0000000000000c9f .LASF138
     /tmp/ccVGozWR.s:4777   .debug_str:0000000000000956 .LASF139
     /tmp/ccVGozWR.s:4733   .debug_str:00000000000007bf .LASF140
     /tmp/ccVGozWR.s:4755   .debug_str:0000000000000886 .LASF141
     /tmp/ccVGozWR.s:4759   .debug_str:00000000000008b2 .LASF142
     /tmp/ccVGozWR.s:4725   .debug_str:000000000000075d .LASF143
     /tmp/ccVGozWR.s:4681   .debug_str:00000000000005b5 .LASF144
     /tmp/ccVGozWR.s:4895   .debug_str:0000000000000d90 .LASF145
     /tmp/ccVGozWR.s:4829   .debug_str:0000000000000ad9 .LASF146
     /tmp/ccVGozWR.s:4719   .debug_str:0000000000000740 .LASF147
     /tmp/ccVGozWR.s:4731   .debug_str:00000000000007ab .LASF148
     /tmp/ccVGozWR.s:4693   .debug_str:0000000000000618 .LASF149
     /tmp/ccVGozWR.s:4761   .debug_str:00000000000008c5 .LASF150
     /tmp/ccVGozWR.s:4921   .debug_str:0000000000000e40 .LASF151
     /tmp/ccVGozWR.s:4657   .debug_str:000000000000048f .LASF152
     /tmp/ccVGozWR.s:4827   .debug_str:0000000000000ad2 .LASF153
     /tmp/ccVGozWR.s:4801   .debug_str:0000000000000a0c .LASF154
     /tmp/ccVGozWR.s:4803   .debug_str:0000000000000a1f .LASF155
     /tmp/ccVGozWR.s:4601   .debug_str:0000000000000276 .LASF156
     /tmp/ccVGozWR.s:4599   .debug_str:0000000000000270 .LASF157
     /tmp/ccVGozWR.s:4541   .debug_str:000000000000006c .LASF158
     /tmp/ccVGozWR.s:4655   .debug_str:0000000000000489 .LASF159
     /tmp/ccVGozWR.s:4591   .debug_str:000000000000020f .LASF160
     /tmp/ccVGozWR.s:4539   .debug_str:0000000000000061 .LASF161
     /tmp/ccVGozWR.s:4789   .debug_str:00000000000009a8 .LASF162
     /tmp/ccVGozWR.s:4781   .debug_str:0000000000000978 .LASF163
     /tmp/ccVGozWR.s:4597   .debug_str:0000000000000258 .LASF164
     /tmp/ccVGozWR.s:4889   .debug_str:0000000000000d62 .LASF165
     /tmp/ccVGozWR.s:4901   .debug_str:0000000000000dab .LASF166
     /tmp/ccVGozWR.s:4885   .debug_str:0000000000000d47 .LASF167
     /tmp/ccVGozWR.s:4707   .debug_str:0000000000000692 .LASF168
     /tmp/ccVGozWR.s:4871   .debug_str:0000000000000cd7 .LASF169
GAS LISTING /tmp/ccVGozWR.s 			page 34


     /tmp/ccVGozWR.s:4631   .debug_str:000000000000039a .LASF170
     /tmp/ccVGozWR.s:4745   .debug_str:000000000000080d .LASF172
     /tmp/ccVGozWR.s:4673   .debug_str:0000000000000534 .LASF174
     /tmp/ccVGozWR.s:4557   .debug_str:00000000000000fd .LASF175
     /tmp/ccVGozWR.s:4635   .debug_str:00000000000003c4 .LASF176
     /tmp/ccVGozWR.s:4861   .debug_str:0000000000000c7a .LASF177
     /tmp/ccVGozWR.s:4919   .debug_str:0000000000000e34 .LASF178
     /tmp/ccVGozWR.s:666    .text:0000000000000410 .LFB64
     /tmp/ccVGozWR.s:740    .text:00000000000004a0 .LFE64
     /tmp/ccVGozWR.s:4143   .debug_loc:0000000000000000 .LLST21
     /tmp/ccVGozWR.s:684    .text:000000000000042c .LBB108
     /tmp/ccVGozWR.s:710    .text:000000000000045c .LBE108
     /tmp/ccVGozWR.s:691    .text:0000000000000438 .LBB110
     /tmp/ccVGozWR.s:702    .text:0000000000000450 .LBE110
     /tmp/ccVGozWR.s:4150   .debug_loc:0000000000000023 .LLST22
     /tmp/ccVGozWR.s:714    .text:000000000000046c .LVL53
     /tmp/ccVGozWR.s:726    .text:000000000000048c .LVL54
     /tmp/ccVGozWR.s:746    .text:00000000000004a0 .LFB63
     /tmp/ccVGozWR.s:816    .text:0000000000000508 .LFE63
     /tmp/ccVGozWR.s:4743   .debug_str:0000000000000808 .LASF181
     /tmp/ccVGozWR.s:4159   .debug_loc:000000000000004f .LLST23
     /tmp/ccVGozWR.s:762    .text:00000000000004b8 .LBB112
     /tmp/ccVGozWR.s:769    .text:00000000000004bc .LBE112
     /tmp/ccVGozWR.s:4178   .debug_loc:000000000000009d .LLST24
     /tmp/ccVGozWR.s:4185   .debug_loc:00000000000000c0 .LLST25
     /tmp/ccVGozWR.s:771    .text:00000000000004bc .LBB114
     /tmp/ccVGozWR.s:794    .text:00000000000004e0 .LBE114
     /tmp/ccVGozWR.s:779    .text:00000000000004c8 .LBB116
     /tmp/ccVGozWR.s:786    .text:00000000000004d4 .LBE116
     /tmp/ccVGozWR.s:799    .text:00000000000004ec .LVL62
     /tmp/ccVGozWR.s:803    .text:00000000000004f4 .LVL63
     /tmp/ccVGozWR.s:4619   .debug_str:0000000000000332 .LASF184
     /tmp/ccVGozWR.s:4527   .debug_str:0000000000000029 .LASF179
     /tmp/ccVGozWR.s:4701   .debug_str:0000000000000655 .LASF180
     /tmp/ccVGozWR.s:4575   .debug_str:0000000000000188 .LASF199
     /tmp/ccVGozWR.s:336    .text:00000000000001fc .LFB61
     /tmp/ccVGozWR.s:426    .text:0000000000000284 .LFE61
     /tmp/ccVGozWR.s:4192   .debug_loc:00000000000000e3 .LLST8
     /tmp/ccVGozWR.s:4208   .debug_loc:000000000000012d .LLST9
     /tmp/ccVGozWR.s:293    .text:00000000000001b8 .LFB59
     /tmp/ccVGozWR.s:330    .text:00000000000001fc .LFE59
     /tmp/ccVGozWR.s:307    .text:00000000000001d0 .LVL19
     /tmp/ccVGozWR.s:319    .text:00000000000001ec .LVL21
     /tmp/ccVGozWR.s:230    .text:000000000000017c .LFE58
     /tmp/ccVGozWR.s:4229   .debug_loc:000000000000018b .LLST0
     /tmp/ccVGozWR.s:31     .text:000000000000001c .LBB56
     /tmp/ccVGozWR.s:58     .text:000000000000004c .LBE56
     /tmp/ccVGozWR.s:39     .text:0000000000000028 .LBB58
     /tmp/ccVGozWR.s:50     .text:0000000000000040 .LBE58
     /tmp/ccVGozWR.s:4240   .debug_loc:00000000000001c1 .LLST1
     /tmp/ccVGozWR.s:68     .text:0000000000000064 .LBB60
     /tmp/ccVGozWR.s:76     .text:0000000000000068 .LBE60
     /tmp/ccVGozWR.s:4249   .debug_loc:00000000000001ed .LLST2
     /tmp/ccVGozWR.s:80     .text:000000000000006c .LBB62
     /tmp/ccVGozWR.s:106    .text:000000000000009c .LBE62
     /tmp/ccVGozWR.s:87     .text:0000000000000078 .LBB64
     /tmp/ccVGozWR.s:98     .text:0000000000000090 .LBE64
GAS LISTING /tmp/ccVGozWR.s 			page 35


     /tmp/ccVGozWR.s:4256   .debug_loc:0000000000000210 .LLST3
     /tmp/ccVGozWR.s:138    .text:00000000000000dc .LBB66
     /tmp/ccVGozWR.s:228    .text:000000000000017c .LBE66
     /tmp/ccVGozWR.s:141    .text:00000000000000dc .LBB68
     /tmp/ccVGozWR.s:4499   .debug_ranges:0000000000000000 .Ldebug_ranges0
     /tmp/ccVGozWR.s:163    .text:0000000000000100 .LBB70
     /tmp/ccVGozWR.s:220    .text:000000000000016c .LBE70
     /tmp/ccVGozWR.s:4265   .debug_loc:000000000000023c .LLST4
     /tmp/ccVGozWR.s:168    .text:0000000000000108 .LBB73
     /tmp/ccVGozWR.s:217    .text:000000000000016c .LBE73
     /tmp/ccVGozWR.s:4274   .debug_loc:0000000000000268 .LLST5
     /tmp/ccVGozWR.s:156    .text:00000000000000fc .LVL12
     /tmp/ccVGozWR.s:63     .text:000000000000005c .LVL3
     /tmp/ccVGozWR.s:111    .text:00000000000000b0 .LVL8
     /tmp/ccVGozWR.s:119    .text:00000000000000c8 .LVL9
     /tmp/ccVGozWR.s:248    .text:000000000000017c .LFB57
     /tmp/ccVGozWR.s:287    .text:00000000000001b8 .LFE57
     /tmp/ccVGozWR.s:261    .text:000000000000018c .LBB76
     /tmp/ccVGozWR.s:270    .text:000000000000019c .LBE76
     /tmp/ccVGozWR.s:4281   .debug_loc:000000000000028b .LLST6
     /tmp/ccVGozWR.s:4289   .debug_loc:00000000000002af .LLST7
     /tmp/ccVGozWR.s:274    .text:00000000000001a4 .LVL18
     /tmp/ccVGozWR.s:434    .text:0000000000000284 .LFB56
     /tmp/ccVGozWR.s:660    .text:0000000000000410 .LFE56
     /tmp/ccVGozWR.s:4899   .debug_str:0000000000000da4 .LASF182
     /tmp/ccVGozWR.s:4297   .debug_loc:00000000000002da .LLST10
     /tmp/ccVGozWR.s:4853   .debug_str:0000000000000c3e .LASF183
     /tmp/ccVGozWR.s:4319   .debug_loc:0000000000000339 .LLST11
     /tmp/ccVGozWR.s:4345   .debug_loc:00000000000003ab .LLST12
     /tmp/ccVGozWR.s:4371   .debug_loc:000000000000041d .LLST13
     /tmp/ccVGozWR.s:4397   .debug_loc:000000000000048f .LLST14
     /tmp/ccVGozWR.s:4422   .debug_loc:00000000000004f1 .LLST15
     /tmp/ccVGozWR.s:465    .text:00000000000002c0 .LBB92
     /tmp/ccVGozWR.s:4433   .debug_loc:0000000000000527 .LLST16
     /tmp/ccVGozWR.s:4448   .debug_loc:0000000000000561 .LLST17
     /tmp/ccVGozWR.s:469    .text:00000000000002c0 .LBB94
     /tmp/ccVGozWR.s:585    .text:000000000000038c .LBB96
     /tmp/ccVGozWR.s:645    .text:00000000000003f8 .LBE96
     /tmp/ccVGozWR.s:4461   .debug_loc:0000000000000599 .LLST18
     /tmp/ccVGozWR.s:591    .text:0000000000000394 .LBB99
     /tmp/ccVGozWR.s:642    .text:00000000000003f8 .LBE99
     /tmp/ccVGozWR.s:4470   .debug_loc:00000000000005c5 .LLST19
     /tmp/ccVGozWR.s:486    .text:00000000000002e0 .LVL32
     /tmp/ccVGozWR.s:510    .text:0000000000000314 .LBB103
     /tmp/ccVGozWR.s:536    .text:0000000000000344 .LBE103
     /tmp/ccVGozWR.s:517    .text:0000000000000320 .LBB105
     /tmp/ccVGozWR.s:528    .text:0000000000000338 .LBE105
     /tmp/ccVGozWR.s:4477   .debug_loc:00000000000005e8 .LLST20
     /tmp/ccVGozWR.s:497    .text:00000000000002fc .LVL34
     /tmp/ccVGozWR.s:541    .text:0000000000000358 .LVL37
     /tmp/ccVGozWR.s:4533   .debug_str:0000000000000048 .LASF187
     /tmp/ccVGozWR.s:4577   .debug_str:00000000000001a0 .LASF185
     /tmp/ccVGozWR.s:4559   .debug_str:000000000000010e .LASF189
     /tmp/ccVGozWR.s:4573   .debug_str:000000000000017f .LASF186
     /tmp/ccVGozWR.s:4663   .debug_str:00000000000004d0 .LASF200
     /tmp/ccVGozWR.s:4587   .debug_str:00000000000001eb .LASF188
     /tmp/ccVGozWR.s:4695   .debug_str:0000000000000620 .LASF190
GAS LISTING /tmp/ccVGozWR.s 			page 36


     /tmp/ccVGozWR.s:4729   .debug_str:000000000000077c .LASF192
     /tmp/ccVGozWR.s:4639   .debug_str:00000000000003dd .LASF191
     /tmp/ccVGozWR.s:4593   .debug_str:0000000000000221 .LASF193
     /tmp/ccVGozWR.s:682    .text:000000000000042c .LVL50
     /tmp/ccVGozWR.s:735    .text:0000000000000498 .LVL55
     /tmp/ccVGozWR.s:690    .text:0000000000000438 .LVL51
     /tmp/ccVGozWR.s:706    .text:000000000000045c .LVL52
     /tmp/ccVGozWR.s:749    .text:00000000000004a0 .LVL56
     /tmp/ccVGozWR.s:797    .text:00000000000004e4 .LVL61
     /tmp/ccVGozWR.s:761    .text:00000000000004b8 .LVL57
     /tmp/ccVGozWR.s:767    .text:00000000000004bc .LVL58
     /tmp/ccVGozWR.s:339    .text:00000000000001fc .LVL22
     /tmp/ccVGozWR.s:394    .text:000000000000025c .LVL24
     /tmp/ccVGozWR.s:416    .text:000000000000027c .LVL25
     /tmp/ccVGozWR.s:366    .text:000000000000022c .LVL23
     /tmp/ccVGozWR.s:422    .text:0000000000000280 .LVL26
     /tmp/ccVGozWR.s:29     .text:000000000000001c .LVL0
     /tmp/ccVGozWR.s:130    .text:00000000000000d4 .LVL10
     /tmp/ccVGozWR.s:134    .text:00000000000000dc .LVL11
     /tmp/ccVGozWR.s:38     .text:0000000000000028 .LVL1
     /tmp/ccVGozWR.s:54     .text:000000000000004c .LVL2
     /tmp/ccVGozWR.s:67     .text:0000000000000064 .LVL4
     /tmp/ccVGozWR.s:74     .text:0000000000000068 .LVL5
     /tmp/ccVGozWR.s:86     .text:0000000000000078 .LVL6
     /tmp/ccVGozWR.s:102    .text:000000000000009c .LVL7
     /tmp/ccVGozWR.s:160    .text:0000000000000100 .LVL13
     /tmp/ccVGozWR.s:216    .text:000000000000016c .LVL15
     /tmp/ccVGozWR.s:194    .text:0000000000000144 .LVL14
     /tmp/ccVGozWR.s:260    .text:000000000000018c .LVL16
     /tmp/ccVGozWR.s:268    .text:000000000000019c .LVL17
     /tmp/ccVGozWR.s:437    .text:0000000000000284 .LVL27
     /tmp/ccVGozWR.s:484    .text:00000000000002d8 .LVL31
     /tmp/ccVGozWR.s:560    .text:0000000000000370 .LVL38
     /tmp/ccVGozWR.s:578    .text:000000000000038c .LVL43
     /tmp/ccVGozWR.s:482    .text:00000000000002d0 .LVL30
     /tmp/ccVGozWR.s:563    .text:0000000000000374 .LVL39
     /tmp/ccVGozWR.s:650    .text:0000000000000408 .LVL49
     /tmp/ccVGozWR.s:475    .text:00000000000002cc .LVL29
     /tmp/ccVGozWR.s:571    .text:0000000000000380 .LVL41
     /tmp/ccVGozWR.s:590    .text:0000000000000394 .LVL44
     /tmp/ccVGozWR.s:574    .text:0000000000000384 .LVL42
     /tmp/ccVGozWR.s:600    .text:00000000000003b0 .LVL46
     /tmp/ccVGozWR.s:596    .text:00000000000003a0 .LVL45
     /tmp/ccVGozWR.s:566    .text:0000000000000378 .LVL40
     /tmp/ccVGozWR.s:464    .text:00000000000002c0 .LVL28
     /tmp/ccVGozWR.s:488    .text:00000000000002e4 .LVL33
     /tmp/ccVGozWR.s:641    .text:00000000000003f8 .LVL48
     /tmp/ccVGozWR.s:619    .text:00000000000003d0 .LVL47
     /tmp/ccVGozWR.s:516    .text:0000000000000320 .LVL35
     /tmp/ccVGozWR.s:532    .text:0000000000000344 .LVL36
     /tmp/ccVGozWR.s:881    .debug_info:0000000000000000 .Ldebug_info0
     /tmp/ccVGozWR.s:151    .text:00000000000000e8 .LBE68
     /tmp/ccVGozWR.s:161    .text:0000000000000100 .LBB75
     /tmp/ccVGozWR.s:226    .text:000000000000017c .LBE75
     /tmp/ccVGozWR.s:490    .text:00000000000002e4 .LBE92
     /tmp/ccVGozWR.s:581    .text:000000000000038c .LBB107
     /tmp/ccVGozWR.s:655    .text:0000000000000408 .LBE107
GAS LISTING /tmp/ccVGozWR.s 			page 37


     /tmp/ccVGozWR.s:479    .text:00000000000002cc .LBE94
     /tmp/ccVGozWR.s:583    .text:000000000000038c .LBB101
     /tmp/ccVGozWR.s:653    .text:0000000000000408 .LBE101
     /tmp/ccVGozWR.s:233    .gcc_except_table:0000000000000000 .LLSDA58

UNDEFINED SYMBOLS
_ZN9Scheduler4headE
_ZN9Scheduler4tailE
_ZN9Scheduler3getEv
_ZN9Scheduler3putEP3TCB
_ZN3TCB14context_switchEPNS_7ContextES1_
_ZN15MemoryAllocator11memory_freeEPv
HEAP_END_ADDR
HEAP_START_ADDR
__gxx_personality_v0
_ZN5Riscv10popSppSpieEv
_ZN15MemoryAllocator12memory_allocEm
_ZN2TS4headE
_ZN2TS3putEP3TCB
