GAS LISTING /tmp/ccjfV70Y.s 			page 1


   1              		.file	"TCB.cpp"
   2              		.option pic
   3              		.option norelax
   4              		.text
   5              	.Ltext0:
   6              		.align	2
   7              		.globl	_ZN3TCB11tcb_destroyEPv
   9              	_ZN3TCB11tcb_destroyEPv:
  10              	.LFB53:
  11              		.file 1 "src/TCB.cpp"
   1:src/TCB.cpp   **** #include "../h/TCB.hpp"
   2:src/TCB.cpp   **** #include "../h/riscv.hpp"
   3:src/TCB.cpp   **** 
   4:src/TCB.cpp   **** TCB* TCB::running = nullptr;
   5:src/TCB.cpp   **** TCB* TCB::idle = nullptr;
   6:src/TCB.cpp   **** uint64 TCB::time_slice_counter = 0;
   7:src/TCB.cpp   **** kmem_cache_t* TCB::tcb_cache = nullptr;
   8:src/TCB.cpp   **** uint64 TCB::ID = 0;
   9:src/TCB.cpp   **** 
  10:src/TCB.cpp   **** int TCB::thread_create(TCB **handle,
  11:src/TCB.cpp   ****                        void (*start_routine)(void *),
  12:src/TCB.cpp   ****                        void *arg,
  13:src/TCB.cpp   ****                        void* stack_space,
  14:src/TCB.cpp   ****                        bool flag
  15:src/TCB.cpp   **** ) {
  16:src/TCB.cpp   **** //    size_t size_of_block_for_tcb = (sizeof(TCB) + MEM_BLOCK_SIZE - 1) / MEM_BLOCK_SIZE;
  17:src/TCB.cpp   **** //    TCB* tmp = (TCB*)MemoryAllocator::getInstance().memory_alloc(size_of_block_for_tcb);
  18:src/TCB.cpp   ****     TCB* tmp = (TCB*) kmem_cache_alloc(get_tcb_cache());
  19:src/TCB.cpp   ****     if(tmp)tmp->TCB_setup(start_routine, arg, stack_space, flag);
  20:src/TCB.cpp   ****     *handle = tmp;
  21:src/TCB.cpp   ****     if (tmp && start_routine != nullptr && tmp != TCB::idle && flag) {
  22:src/TCB.cpp   ****         Scheduler::getInstance().put(tmp);
  23:src/TCB.cpp   ****     }
  24:src/TCB.cpp   ****     if(*handle) return 0;
  25:src/TCB.cpp   ****     else return -1;
  26:src/TCB.cpp   **** }
  27:src/TCB.cpp   **** 
  28:src/TCB.cpp   **** int TCB::thread_exit() {
  29:src/TCB.cpp   ****     running->set_finished(true);
  30:src/TCB.cpp   ****     TCB::thread_dispatch();
  31:src/TCB.cpp   ****     // do ovog dela nece nikad doci jer thread_dispatch nece nit koju gasimo staviti u scheduler
  32:src/TCB.cpp   ****     return -1;
  33:src/TCB.cpp   **** }
  34:src/TCB.cpp   **** 
  35:src/TCB.cpp   **** void TCB::thread_dispatch() {
  36:src/TCB.cpp   **** //    Scheduler::printScheduler();
  37:src/TCB.cpp   ****     TCB * old = running;
  38:src/TCB.cpp   ****     running = Scheduler::getInstance().get();
  39:src/TCB.cpp   ****     if (!old->is_finished()) {
  40:src/TCB.cpp   ****         Scheduler::getInstance().put(old);
  41:src/TCB.cpp   ****     }
  42:src/TCB.cpp   ****     else{
  43:src/TCB.cpp   ****         TCB::operator delete(old);
  44:src/TCB.cpp   ****     }
  45:src/TCB.cpp   **** //    TCB::time_slice_counter = 0;
  46:src/TCB.cpp   ****     TCB::context_switch(&old->context, &running->context);
  47:src/TCB.cpp   **** }
GAS LISTING /tmp/ccjfV70Y.s 			page 2


  48:src/TCB.cpp   **** 
  49:src/TCB.cpp   **** void TCB::thread_wrapper() {
  50:src/TCB.cpp   ****     Riscv::popSppSpie();
  51:src/TCB.cpp   ****     running->body(running->argument);
  52:src/TCB.cpp   ****     thread_exit();
  53:src/TCB.cpp   **** }
  54:src/TCB.cpp   **** 
  55:src/TCB.cpp   **** int TCB::time_sleep(uint64 time) {
  56:src/TCB.cpp   **** 
  57:src/TCB.cpp   ****     running->set_time_sleep(time);
  58:src/TCB.cpp   ****     TS::getInstance().put(running);
  59:src/TCB.cpp   ****     TCB::yield();
  60:src/TCB.cpp   ****     return 0;
  61:src/TCB.cpp   **** }
  62:src/TCB.cpp   **** 
  63:src/TCB.cpp   **** void TCB::yield() {
  64:src/TCB.cpp   ****     TCB * old = running;
  65:src/TCB.cpp   ****     running = Scheduler::getInstance().get();
  66:src/TCB.cpp   ****     TCB::time_slice_counter = 0;
  67:src/TCB.cpp   ****     TCB::context_switch(&old->context, &running->context);
  68:src/TCB.cpp   **** }
  69:src/TCB.cpp   **** 
  70:src/TCB.cpp   **** void TCB::TCB_setup(TCB::Body body_init, void *arg, void *stack_space, bool b) {
  71:src/TCB.cpp   ****     body = body_init;
  72:src/TCB.cpp   ****     argument = arg;
  73:src/TCB.cpp   ****     stack = (uint64*)stack_space;
  74:src/TCB.cpp   ****     context.ra = (uint64) &thread_wrapper;
  75:src/TCB.cpp   ****     context.sp = stack_space != nullptr ? (uint64) &stack[DEFAULT_STACK_SIZE / sizeof(uint64)] : 0;
  76:src/TCB.cpp   ****     finished = false;
  77:src/TCB.cpp   ****     next_scheduler = nullptr;
  78:src/TCB.cpp   ****     next_sleep = nullptr;
  79:src/TCB.cpp   ****     next_blocked = nullptr;
  80:src/TCB.cpp   ****     time_slice = DEFAULT_TIME_SLICE;
  81:src/TCB.cpp   ****     sleep = 0;
  82:src/TCB.cpp   ****     id = ID++;
  83:src/TCB.cpp   ****     flag = b;
  84:src/TCB.cpp   ****     periodic = false;
  85:src/TCB.cpp   ****     next_period = nullptr;
  86:src/TCB.cpp   **** }
  87:src/TCB.cpp   **** 
  88:src/TCB.cpp   **** kmem_cache_t* &TCB::get_tcb_cache() {
  89:src/TCB.cpp   ****     if(!tcb_cache){
  90:src/TCB.cpp   ****         tcb_cache = (kmem_cache_t*) kmem_cache_create("tcb_cache", sizeof(TCB), nullptr, &tcb_destr
  91:src/TCB.cpp   ****     }
  92:src/TCB.cpp   ****     return tcb_cache;
  93:src/TCB.cpp   **** }
  94:src/TCB.cpp   **** 
  95:src/TCB.cpp   **** void TCB::tcb_destroy(void *MyTCB) {
  12              		.loc 1 95 36
  13              		.cfi_startproc
  14              	.LVL0:
  96:src/TCB.cpp   ****     TCB* tcb = (TCB*)MyTCB;
  15              		.loc 1 96 5
  97:src/TCB.cpp   ****     if(tcb->stack)kfree(tcb->stack);
  16              		.loc 1 97 5
  17              		.loc 1 97 13 is_stmt 0
  18 0000 03350501 		ld	a0,16(a0)
GAS LISTING /tmp/ccjfV70Y.s 			page 3


  19              	.LVL1:
  20              		.loc 1 97 5
  21 0004 63060502 		beqz	a0,.L4
  95:src/TCB.cpp   ****     TCB* tcb = (TCB*)MyTCB;
  22              		.loc 1 95 36 discriminator 1
  23 0008 130101FF 		addi	sp,sp,-16
  24              		.cfi_def_cfa_offset 16
  25 000c 23341100 		sd	ra,8(sp)
  26 0010 23308100 		sd	s0,0(sp)
  27              		.cfi_offset 1, -8
  28              		.cfi_offset 8, -16
  29 0014 13040101 		addi	s0,sp,16
  30              		.cfi_def_cfa 8, 0
  31              		.loc 1 97 19 is_stmt 1 discriminator 1
  32              		.loc 1 97 24 is_stmt 0 discriminator 1
  33 0018 97000000 		call	_Z5kfreePKv@plt
  33      E7800000 
  34              	.LVL2:
  98:src/TCB.cpp   **** }
  35              		.loc 1 98 1 discriminator 1
  36 0020 83308100 		ld	ra,8(sp)
  37              		.cfi_restore 1
  38 0024 03340100 		ld	s0,0(sp)
  39              		.cfi_restore 8
  40              		.cfi_def_cfa 2, 16
  41 0028 13010101 		addi	sp,sp,16
  42              		.cfi_def_cfa_offset 0
  43 002c 67800000 		jr	ra
  44              	.L4:
  45 0030 67800000 		ret
  46              		.cfi_endproc
  47              	.LFE53:
  49              		.align	2
  50              		.globl	_ZN3TCB5yieldEv
  52              	_ZN3TCB5yieldEv:
  53              	.LFB50:
  63:src/TCB.cpp   ****     TCB * old = running;
  54              		.loc 1 63 19 is_stmt 1
  55              		.cfi_startproc
  56 0034 130101FE 		addi	sp,sp,-32
  57              		.cfi_def_cfa_offset 32
  58 0038 233C1100 		sd	ra,24(sp)
  59 003c 23388100 		sd	s0,16(sp)
  60 0040 23349100 		sd	s1,8(sp)
  61 0044 23302101 		sd	s2,0(sp)
  62              		.cfi_offset 1, -8
  63              		.cfi_offset 8, -16
  64              		.cfi_offset 9, -24
  65              		.cfi_offset 18, -32
  66 0048 13040102 		addi	s0,sp,32
  67              		.cfi_def_cfa 8, 0
  64:src/TCB.cpp   ****     running = Scheduler::getInstance().get();
  68              		.loc 1 64 5
  64:src/TCB.cpp   ****     running = Scheduler::getInstance().get();
  69              		.loc 1 64 11 is_stmt 0
  70 004c 97040000 		lla	s1,.LANCHOR0
  70      93840400 
GAS LISTING /tmp/ccjfV70Y.s 			page 4


  71 0054 03B90400 		ld	s2,0(s1)
  72              	.LVL3:
  65:src/TCB.cpp   ****     TCB::time_slice_counter = 0;
  73              		.loc 1 65 5 is_stmt 1
  65:src/TCB.cpp   ****     TCB::time_slice_counter = 0;
  74              		.loc 1 65 38 is_stmt 0
  75 0058 97000000 		call	_ZN9Scheduler11getInstanceEv@plt
  75      E7800000 
  76              	.LVL4:
  65:src/TCB.cpp   ****     TCB::time_slice_counter = 0;
  77              		.loc 1 65 43
  78 0060 97000000 		call	_ZN9Scheduler3getEv@plt
  78      E7800000 
  79              	.LVL5:
  65:src/TCB.cpp   ****     TCB::time_slice_counter = 0;
  80              		.loc 1 65 13
  81 0068 23B0A400 		sd	a0,0(s1)
  66:src/TCB.cpp   ****     TCB::context_switch(&old->context, &running->context);
  82              		.loc 1 66 5 is_stmt 1
  66:src/TCB.cpp   ****     TCB::context_switch(&old->context, &running->context);
  83              		.loc 1 66 29 is_stmt 0
  84 006c 23B40400 		sd	zero,8(s1)
  67:src/TCB.cpp   **** }
  85              		.loc 1 67 5 is_stmt 1
  67:src/TCB.cpp   **** }
  86              		.loc 1 67 24 is_stmt 0
  87 0070 93058501 		addi	a1,a0,24
  88 0074 13058901 		addi	a0,s2,24
  89 0078 97000000 		call	_ZN3TCB14context_switchEPNS_7ContextES1_@plt
  89      E7800000 
  90              	.LVL6:
  68:src/TCB.cpp   **** 
  91              		.loc 1 68 1
  92 0080 83308101 		ld	ra,24(sp)
  93              		.cfi_restore 1
  94 0084 03340101 		ld	s0,16(sp)
  95              		.cfi_restore 8
  96              		.cfi_def_cfa 2, 32
  97 0088 83348100 		ld	s1,8(sp)
  98              		.cfi_restore 9
  99 008c 03390100 		ld	s2,0(sp)
 100              		.cfi_restore 18
 101              	.LVL7:
 102 0090 13010102 		addi	sp,sp,32
 103              		.cfi_def_cfa_offset 0
 104 0094 67800000 		jr	ra
 105              		.cfi_endproc
 106              	.LFE50:
 108              		.align	2
 109              		.globl	_ZN3TCB10time_sleepEm
 111              	_ZN3TCB10time_sleepEm:
 112              	.LFB49:
  55:src/TCB.cpp   **** 
 113              		.loc 1 55 34 is_stmt 1
 114              		.cfi_startproc
 115              	.LVL8:
 116 0098 130101FE 		addi	sp,sp,-32
GAS LISTING /tmp/ccjfV70Y.s 			page 5


 117              		.cfi_def_cfa_offset 32
 118 009c 233C1100 		sd	ra,24(sp)
 119 00a0 23388100 		sd	s0,16(sp)
 120 00a4 23349100 		sd	s1,8(sp)
 121              		.cfi_offset 1, -8
 122              		.cfi_offset 8, -16
 123              		.cfi_offset 9, -24
 124 00a8 13040102 		addi	s0,sp,32
 125              		.cfi_def_cfa 8, 0
  57:src/TCB.cpp   ****     TS::getInstance().put(running);
 126              		.loc 1 57 5
  57:src/TCB.cpp   ****     TS::getInstance().put(running);
 127              		.loc 1 57 28 is_stmt 0
 128 00ac 97040000 		lla	s1,.LANCHOR0
 128      93840400 
 129 00b4 83B70400 		ld	a5,0(s1)
 130              	.LVL9:
 131              	.LBB10:
 132              	.LBB11:
 133              		.file 2 "src/../h/TCB.hpp"
   1:src/../h/TCB.hpp **** #ifndef _thread_hpp_
   2:src/../h/TCB.hpp **** #define _thread_hpp_
   3:src/../h/TCB.hpp **** 
   4:src/../h/TCB.hpp **** #include "../lib/hw.h"
   5:src/../h/TCB.hpp **** #include "../h/scheduler.hpp"
   6:src/../h/TCB.hpp **** #include "../h/MemoryAllocator.hpp"
   7:src/../h/TCB.hpp **** #include "../h/TS.hpp"
   8:src/../h/TCB.hpp **** #include "../h/periodic_threads.hpp"
   9:src/../h/TCB.hpp **** #include "SlabI.h"
  10:src/../h/TCB.hpp **** 
  11:src/../h/TCB.hpp **** class TCB{
  12:src/../h/TCB.hpp **** public:
  13:src/../h/TCB.hpp ****     using Body = void (*)(void*);
  14:src/../h/TCB.hpp **** 
  15:src/../h/TCB.hpp ****     // trazene
  16:src/../h/TCB.hpp ****     static int thread_create(
  17:src/../h/TCB.hpp ****         TCB** handle,
  18:src/../h/TCB.hpp ****         void(*start_routine)(void*),
  19:src/../h/TCB.hpp ****         void* arg,
  20:src/../h/TCB.hpp ****         void* stack_space,
  21:src/../h/TCB.hpp ****         bool flag
  22:src/../h/TCB.hpp ****     );
  23:src/../h/TCB.hpp **** 
  24:src/../h/TCB.hpp ****     static int thread_exit();
  25:src/../h/TCB.hpp **** 
  26:src/../h/TCB.hpp ****     static void thread_dispatch();
  27:src/../h/TCB.hpp **** 
  28:src/../h/TCB.hpp ****     static int time_sleep(uint64 time);
  29:src/../h/TCB.hpp **** 
  30:src/../h/TCB.hpp ****     uint64 get_thread_id()const{ return id; }
  31:src/../h/TCB.hpp **** 
  32:src/../h/TCB.hpp ****     // getteri i setteri
  33:src/../h/TCB.hpp ****     void set_finished(bool f){ this->finished = f; }
  34:src/../h/TCB.hpp ****     bool is_finished()const{return finished;}
  35:src/../h/TCB.hpp ****     void set_next_scheduler(TCB* nextThread){ next_scheduler = nextThread; }
  36:src/../h/TCB.hpp ****     TCB* get_next_scheduler()const{ return next_scheduler; }
  37:src/../h/TCB.hpp ****     void set_next_sleep(TCB* nextThread){ next_sleep = nextThread; }
GAS LISTING /tmp/ccjfV70Y.s 			page 6


  38:src/../h/TCB.hpp ****     TCB* get_next_sleep()const{ return next_sleep; }
  39:src/../h/TCB.hpp ****     void set_next_blocked(TCB* nextThread){ next_blocked = nextThread; }
  40:src/../h/TCB.hpp ****     TCB* get_next_blocked()const{ return next_blocked; }
  41:src/../h/TCB.hpp ****     uint64 get_time_sleep()const{ return sleep; }
  42:src/../h/TCB.hpp ****     void set_time_sleep(uint64 new_time){ sleep = new_time; }
 134              		.loc 2 42 43 is_stmt 1
 135              		.loc 2 42 49 is_stmt 0
 136 00b8 23B4A704 		sd	a0,72(a5)
 137              	.LVL10:
 138              	.LBE11:
 139              	.LBE10:
  58:src/TCB.cpp   ****     TCB::yield();
 140              		.loc 1 58 5 is_stmt 1
  58:src/TCB.cpp   ****     TCB::yield();
 141              		.loc 1 58 21 is_stmt 0
 142 00bc 97000000 		call	_ZN2TS11getInstanceEv@plt
 142      E7800000 
 143              	.LVL11:
  58:src/TCB.cpp   ****     TCB::yield();
 144              		.loc 1 58 34
 145 00c4 03B50400 		ld	a0,0(s1)
 146 00c8 97000000 		call	_ZN2TS3putEP3TCB@plt
 146      E7800000 
 147              	.LVL12:
  59:src/TCB.cpp   ****     return 0;
 148              		.loc 1 59 5 is_stmt 1
  59:src/TCB.cpp   ****     return 0;
 149              		.loc 1 59 15 is_stmt 0
 150 00d0 97000000 		call	_ZN3TCB5yieldEv
 150      E7800000 
 151              	.LVL13:
  60:src/TCB.cpp   **** }
 152              		.loc 1 60 5 is_stmt 1
  61:src/TCB.cpp   **** 
 153              		.loc 1 61 1 is_stmt 0
 154 00d8 13050000 		li	a0,0
 155 00dc 83308101 		ld	ra,24(sp)
 156              		.cfi_restore 1
 157 00e0 03340101 		ld	s0,16(sp)
 158              		.cfi_restore 8
 159              		.cfi_def_cfa 2, 32
 160 00e4 83348100 		ld	s1,8(sp)
 161              		.cfi_restore 9
 162 00e8 13010102 		addi	sp,sp,32
 163              		.cfi_def_cfa_offset 0
 164 00ec 67800000 		jr	ra
 165              		.cfi_endproc
 166              	.LFE49:
 168              		.align	2
 169              		.globl	_ZN3TCB9TCB_setupEPFvPvES0_S0_b
 171              	_ZN3TCB9TCB_setupEPFvPvES0_S0_b:
 172              	.LFB51:
  70:src/TCB.cpp   ****     body = body_init;
 173              		.loc 1 70 80 is_stmt 1
 174              		.cfi_startproc
 175              	.LVL14:
 176 00f0 130101FF 		addi	sp,sp,-16
GAS LISTING /tmp/ccjfV70Y.s 			page 7


 177              		.cfi_def_cfa_offset 16
 178 00f4 23348100 		sd	s0,8(sp)
 179              		.cfi_offset 8, -8
 180 00f8 13040101 		addi	s0,sp,16
 181              		.cfi_def_cfa 8, 0
  71:src/TCB.cpp   ****     argument = arg;
 182              		.loc 1 71 5
  71:src/TCB.cpp   ****     argument = arg;
 183              		.loc 1 71 10 is_stmt 0
 184 00fc 2330B500 		sd	a1,0(a0)
  72:src/TCB.cpp   ****     stack = (uint64*)stack_space;
 185              		.loc 1 72 5 is_stmt 1
  72:src/TCB.cpp   ****     stack = (uint64*)stack_space;
 186              		.loc 1 72 14 is_stmt 0
 187 0100 2334C500 		sd	a2,8(a0)
  73:src/TCB.cpp   ****     context.ra = (uint64) &thread_wrapper;
 188              		.loc 1 73 5 is_stmt 1
  73:src/TCB.cpp   ****     context.ra = (uint64) &thread_wrapper;
 189              		.loc 1 73 11 is_stmt 0
 190 0104 2338D500 		sd	a3,16(a0)
  74:src/TCB.cpp   ****     context.sp = stack_space != nullptr ? (uint64) &stack[DEFAULT_STACK_SIZE / sizeof(uint64)] : 0;
 191              		.loc 1 74 5 is_stmt 1
  74:src/TCB.cpp   ****     context.sp = stack_space != nullptr ? (uint64) &stack[DEFAULT_STACK_SIZE / sizeof(uint64)] : 0;
 192              		.loc 1 74 16 is_stmt 0
 193 0108 97070000 		lla	a5,_ZN3TCB14thread_wrapperEv
 193      93870700 
 194 0110 233CF500 		sd	a5,24(a0)
  75:src/TCB.cpp   ****     finished = false;
 195              		.loc 1 75 5 is_stmt 1
  75:src/TCB.cpp   ****     finished = false;
 196              		.loc 1 75 41 is_stmt 0
 197 0114 638E0604 		beqz	a3,.L13
  75:src/TCB.cpp   ****     finished = false;
 198              		.loc 1 75 52 discriminator 1
 199 0118 B7170000 		li	a5,4096
 200 011c B386F600 		add	a3,a3,a5
 201              	.LVL15:
 202              	.L12:
  75:src/TCB.cpp   ****     finished = false;
 203              		.loc 1 75 16 discriminator 4
 204 0120 2330D502 		sd	a3,32(a0)
  76:src/TCB.cpp   ****     next_scheduler = nullptr;
 205              		.loc 1 76 5 is_stmt 1 discriminator 4
  76:src/TCB.cpp   ****     next_scheduler = nullptr;
 206              		.loc 1 76 14 is_stmt 0 discriminator 4
 207 0124 23040502 		sb	zero,40(a0)
  77:src/TCB.cpp   ****     next_sleep = nullptr;
 208              		.loc 1 77 5 is_stmt 1 discriminator 4
  77:src/TCB.cpp   ****     next_sleep = nullptr;
 209              		.loc 1 77 20 is_stmt 0 discriminator 4
 210 0128 23380502 		sd	zero,48(a0)
  78:src/TCB.cpp   ****     next_blocked = nullptr;
 211              		.loc 1 78 5 is_stmt 1 discriminator 4
  78:src/TCB.cpp   ****     next_blocked = nullptr;
 212              		.loc 1 78 16 is_stmt 0 discriminator 4
 213 012c 233C0502 		sd	zero,56(a0)
  79:src/TCB.cpp   ****     time_slice = DEFAULT_TIME_SLICE;
GAS LISTING /tmp/ccjfV70Y.s 			page 8


 214              		.loc 1 79 5 is_stmt 1 discriminator 4
  79:src/TCB.cpp   ****     time_slice = DEFAULT_TIME_SLICE;
 215              		.loc 1 79 18 is_stmt 0 discriminator 4
 216 0130 23300504 		sd	zero,64(a0)
  80:src/TCB.cpp   ****     sleep = 0;
 217              		.loc 1 80 5 is_stmt 1 discriminator 4
  80:src/TCB.cpp   ****     sleep = 0;
 218              		.loc 1 80 16 is_stmt 0 discriminator 4
 219 0134 93072000 		li	a5,2
 220 0138 2338F504 		sd	a5,80(a0)
  81:src/TCB.cpp   ****     id = ID++;
 221              		.loc 1 81 5 is_stmt 1 discriminator 4
  81:src/TCB.cpp   ****     id = ID++;
 222              		.loc 1 81 11 is_stmt 0 discriminator 4
 223 013c 23340504 		sd	zero,72(a0)
  82:src/TCB.cpp   ****     flag = b;
 224              		.loc 1 82 5 is_stmt 1 discriminator 4
  82:src/TCB.cpp   ****     flag = b;
 225              		.loc 1 82 12 is_stmt 0 discriminator 4
 226 0140 97060000 		lla	a3,.LANCHOR0
 226      93860600 
 227 0148 83B70601 		ld	a5,16(a3)
 228 014c 13861700 		addi	a2,a5,1
 229              	.LVL16:
 230 0150 23B8C600 		sd	a2,16(a3)
  82:src/TCB.cpp   ****     flag = b;
 231              		.loc 1 82 8 discriminator 4
 232 0154 233CF504 		sd	a5,88(a0)
  83:src/TCB.cpp   ****     periodic = false;
 233              		.loc 1 83 5 is_stmt 1 discriminator 4
  83:src/TCB.cpp   ****     periodic = false;
 234              		.loc 1 83 10 is_stmt 0 discriminator 4
 235 0158 2300E506 		sb	a4,96(a0)
  84:src/TCB.cpp   ****     next_period = nullptr;
 236              		.loc 1 84 5 is_stmt 1 discriminator 4
  84:src/TCB.cpp   ****     next_period = nullptr;
 237              		.loc 1 84 14 is_stmt 0 discriminator 4
 238 015c A3000506 		sb	zero,97(a0)
  85:src/TCB.cpp   **** }
 239              		.loc 1 85 5 is_stmt 1 discriminator 4
  85:src/TCB.cpp   **** }
 240              		.loc 1 85 17 is_stmt 0 discriminator 4
 241 0160 23340506 		sd	zero,104(a0)
  86:src/TCB.cpp   **** 
 242              		.loc 1 86 1 discriminator 4
 243 0164 03348100 		ld	s0,8(sp)
 244              		.cfi_remember_state
 245              		.cfi_restore 8
 246              		.cfi_def_cfa 2, 16
 247 0168 13010101 		addi	sp,sp,16
 248              		.cfi_def_cfa_offset 0
 249 016c 67800000 		jr	ra
 250              	.LVL17:
 251              	.L13:
 252              		.cfi_restore_state
  75:src/TCB.cpp   ****     finished = false;
 253              		.loc 1 75 41
GAS LISTING /tmp/ccjfV70Y.s 			page 9


 254 0170 93060000 		li	a3,0
 255              	.LVL18:
 256 0174 6FF0DFFA 		j	.L12
 257              		.cfi_endproc
 258              	.LFE51:
 260              		.section	.rodata.str1.8,"aMS",@progbits,1
 261              		.align	3
 262              	.LC0:
 263 0000 7463625F 		.string	"tcb_cache"
 263      63616368 
 263      6500
 264              		.text
 265              		.align	2
 266              		.globl	_ZN3TCB13get_tcb_cacheEv
 268              	_ZN3TCB13get_tcb_cacheEv:
 269              	.LFB52:
  88:src/TCB.cpp   ****     if(!tcb_cache){
 270              		.loc 1 88 37 is_stmt 1
 271              		.cfi_startproc
  89:src/TCB.cpp   ****         tcb_cache = (kmem_cache_t*) kmem_cache_create("tcb_cache", sizeof(TCB), nullptr, &tcb_destr
 272              		.loc 1 89 5
  89:src/TCB.cpp   ****         tcb_cache = (kmem_cache_t*) kmem_cache_create("tcb_cache", sizeof(TCB), nullptr, &tcb_destr
 273              		.loc 1 89 8 is_stmt 0
 274 0178 97070000 		ld	a5,.LANCHOR0+24
 274      83B70700 
  89:src/TCB.cpp   ****         tcb_cache = (kmem_cache_t*) kmem_cache_create("tcb_cache", sizeof(TCB), nullptr, &tcb_destr
 275              		.loc 1 89 5
 276 0180 63880700 		beqz	a5,.L21
  92:src/TCB.cpp   **** }
 277              		.loc 1 92 5 is_stmt 1
  93:src/TCB.cpp   **** 
 278              		.loc 1 93 1 is_stmt 0
 279 0184 17050000 		lla	a0,.LANCHOR0+24
 279      13050500 
 280 018c 67800000 		ret
 281              	.L21:
  88:src/TCB.cpp   ****     if(!tcb_cache){
 282              		.loc 1 88 37
 283 0190 130101FF 		addi	sp,sp,-16
 284              		.cfi_def_cfa_offset 16
 285 0194 23341100 		sd	ra,8(sp)
 286 0198 23308100 		sd	s0,0(sp)
 287              		.cfi_offset 1, -8
 288              		.cfi_offset 8, -16
 289 019c 13040101 		addi	s0,sp,16
 290              		.cfi_def_cfa 8, 0
  90:src/TCB.cpp   ****     }
 291              		.loc 1 90 9 is_stmt 1
  90:src/TCB.cpp   ****     }
 292              		.loc 1 90 54 is_stmt 0
 293 01a0 97060000 		lla	a3,_ZN3TCB11tcb_destroyEPv
 293      93860600 
 294 01a8 13060000 		li	a2,0
 295 01ac 93050007 		li	a1,112
 296 01b0 17050000 		lla	a0,.LC0
 296      13050500 
 297 01b8 97000000 		call	_Z17kmem_cache_createPKcmPFvPvES3_@plt
GAS LISTING /tmp/ccjfV70Y.s 			page 10


 297      E7800000 
 298              	.LVL19:
  90:src/TCB.cpp   ****     }
 299              		.loc 1 90 19
 300 01c0 97070000 		sd	a0,.LANCHOR0+24,a5
 300      23B0A700 
  92:src/TCB.cpp   **** }
 301              		.loc 1 92 5 is_stmt 1
  93:src/TCB.cpp   **** 
 302              		.loc 1 93 1 is_stmt 0
 303 01c8 17050000 		lla	a0,.LANCHOR0+24
 303      13050500 
 304 01d0 83308100 		ld	ra,8(sp)
 305              		.cfi_restore 1
 306 01d4 03340100 		ld	s0,0(sp)
 307              		.cfi_restore 8
 308              		.cfi_def_cfa 2, 16
 309 01d8 13010101 		addi	sp,sp,16
 310              		.cfi_def_cfa_offset 0
 311 01dc 67800000 		jr	ra
 312              		.cfi_endproc
 313              	.LFE52:
 315              		.align	2
 316              		.globl	_ZN3TCB13thread_createEPPS_PFvPvES2_S2_b
 318              	_ZN3TCB13thread_createEPPS_PFvPvES2_S2_b:
 319              	.LFB45:
  15:src/TCB.cpp   **** //    size_t size_of_block_for_tcb = (sizeof(TCB) + MEM_BLOCK_SIZE - 1) / MEM_BLOCK_SIZE;
 320              		.loc 1 15 3 is_stmt 1
 321              		.cfi_startproc
 322              	.LVL20:
 323 01e0 130101FC 		addi	sp,sp,-64
 324              		.cfi_def_cfa_offset 64
 325 01e4 233C1102 		sd	ra,56(sp)
 326 01e8 23388102 		sd	s0,48(sp)
 327 01ec 23349102 		sd	s1,40(sp)
 328 01f0 23302103 		sd	s2,32(sp)
 329 01f4 233C3101 		sd	s3,24(sp)
 330 01f8 23384101 		sd	s4,16(sp)
 331 01fc 23345101 		sd	s5,8(sp)
 332 0200 23306101 		sd	s6,0(sp)
 333              		.cfi_offset 1, -8
 334              		.cfi_offset 8, -16
 335              		.cfi_offset 9, -24
 336              		.cfi_offset 18, -32
 337              		.cfi_offset 19, -40
 338              		.cfi_offset 20, -48
 339              		.cfi_offset 21, -56
 340              		.cfi_offset 22, -64
 341 0204 13040104 		addi	s0,sp,64
 342              		.cfi_def_cfa 8, 0
 343 0208 13090500 		mv	s2,a0
 344 020c 93890500 		mv	s3,a1
 345 0210 930A0600 		mv	s5,a2
 346 0214 138B0600 		mv	s6,a3
 347 0218 130A0700 		mv	s4,a4
  18:src/TCB.cpp   ****     if(tmp)tmp->TCB_setup(start_routine, arg, stack_space, flag);
 348              		.loc 1 18 5
GAS LISTING /tmp/ccjfV70Y.s 			page 11


  18:src/TCB.cpp   ****     if(tmp)tmp->TCB_setup(start_routine, arg, stack_space, flag);
 349              		.loc 1 18 54 is_stmt 0
 350 021c 97000000 		call	_ZN3TCB13get_tcb_cacheEv
 350      E7800000 
 351              	.LVL21:
  18:src/TCB.cpp   ****     if(tmp)tmp->TCB_setup(start_routine, arg, stack_space, flag);
 352              		.loc 1 18 39
 353 0224 03350500 		ld	a0,0(a0)
 354 0228 97000000 		call	_Z16kmem_cache_allocP12kmem_cache_s@plt
 354      E7800000 
 355              	.LVL22:
 356 0230 93040500 		mv	s1,a0
 357              	.LVL23:
  19:src/TCB.cpp   ****     *handle = tmp;
 358              		.loc 1 19 5 is_stmt 1
 359 0234 630E0500 		beqz	a0,.L23
  19:src/TCB.cpp   ****     *handle = tmp;
 360              		.loc 1 19 12 discriminator 1
  19:src/TCB.cpp   ****     *handle = tmp;
 361              		.loc 1 19 26 is_stmt 0 discriminator 1
 362 0238 13070A00 		mv	a4,s4
 363 023c 93060B00 		mv	a3,s6
 364 0240 13860A00 		mv	a2,s5
 365 0244 93850900 		mv	a1,s3
 366 0248 97000000 		call	_ZN3TCB9TCB_setupEPFvPvES0_S0_b
 366      E7800000 
 367              	.LVL24:
 368              	.L23:
  20:src/TCB.cpp   ****     if (tmp && start_routine != nullptr && tmp != TCB::idle && flag) {
 369              		.loc 1 20 5 is_stmt 1
  20:src/TCB.cpp   ****     if (tmp && start_routine != nullptr && tmp != TCB::idle && flag) {
 370              		.loc 1 20 13 is_stmt 0
 371 0250 23309900 		sd	s1,0(s2)
  21:src/TCB.cpp   ****         Scheduler::getInstance().put(tmp);
 372              		.loc 1 21 5 is_stmt 1
 373 0254 638C0400 		beqz	s1,.L24
  21:src/TCB.cpp   ****         Scheduler::getInstance().put(tmp);
 374              		.loc 1 21 13 is_stmt 0 discriminator 1
 375 0258 638A0900 		beqz	s3,.L24
  21:src/TCB.cpp   ****         Scheduler::getInstance().put(tmp);
 376              		.loc 1 21 48 discriminator 2
 377 025c 97070000 		ld	a5,.LANCHOR0+32
 377      83B70700 
  21:src/TCB.cpp   ****         Scheduler::getInstance().put(tmp);
 378              		.loc 1 21 41 discriminator 2
 379 0264 63849700 		beq	a5,s1,.L24
  21:src/TCB.cpp   ****         Scheduler::getInstance().put(tmp);
 380              		.loc 1 21 61 discriminator 3
 381 0268 631C0A02 		bnez	s4,.L28
 382              	.L24:
  24:src/TCB.cpp   ****     else return -1;
 383              		.loc 1 24 5 is_stmt 1
  24:src/TCB.cpp   ****     else return -1;
 384              		.loc 1 24 8 is_stmt 0
 385 026c 83370900 		ld	a5,0(s2)
  24:src/TCB.cpp   ****     else return -1;
 386              		.loc 1 24 5
GAS LISTING /tmp/ccjfV70Y.s 			page 12


 387 0270 63840704 		beqz	a5,.L26
  24:src/TCB.cpp   ****     else return -1;
 388              		.loc 1 24 24
 389 0274 13050000 		li	a0,0
 390              	.L25:
  26:src/TCB.cpp   **** 
 391              		.loc 1 26 1
 392 0278 83308103 		ld	ra,56(sp)
 393              		.cfi_remember_state
 394              		.cfi_restore 1
 395 027c 03340103 		ld	s0,48(sp)
 396              		.cfi_restore 8
 397              		.cfi_def_cfa 2, 64
 398 0280 83348102 		ld	s1,40(sp)
 399              		.cfi_restore 9
 400              	.LVL25:
 401 0284 03390102 		ld	s2,32(sp)
 402              		.cfi_restore 18
 403              	.LVL26:
 404 0288 83398101 		ld	s3,24(sp)
 405              		.cfi_restore 19
 406              	.LVL27:
 407 028c 033A0101 		ld	s4,16(sp)
 408              		.cfi_restore 20
 409 0290 833A8100 		ld	s5,8(sp)
 410              		.cfi_restore 21
 411              	.LVL28:
 412 0294 033B0100 		ld	s6,0(sp)
 413              		.cfi_restore 22
 414              	.LVL29:
 415 0298 13010104 		addi	sp,sp,64
 416              		.cfi_def_cfa_offset 0
 417 029c 67800000 		jr	ra
 418              	.LVL30:
 419              	.L28:
 420              		.cfi_restore_state
  22:src/TCB.cpp   ****     }
 421              		.loc 1 22 9 is_stmt 1
  22:src/TCB.cpp   ****     }
 422              		.loc 1 22 32 is_stmt 0
 423 02a0 97000000 		call	_ZN9Scheduler11getInstanceEv@plt
 423      E7800000 
 424              	.LVL31:
  22:src/TCB.cpp   ****     }
 425              		.loc 1 22 37
 426 02a8 93850400 		mv	a1,s1
 427 02ac 97000000 		call	_ZN9Scheduler3putEP3TCB@plt
 427      E7800000 
 428              	.LVL32:
 429 02b4 6FF09FFB 		j	.L24
 430              	.L26:
  25:src/TCB.cpp   **** }
 431              		.loc 1 25 18
 432 02b8 1305F0FF 		li	a0,-1
 433 02bc 6FF0DFFB 		j	.L25
 434              		.cfi_endproc
 435              	.LFE45:
GAS LISTING /tmp/ccjfV70Y.s 			page 13


 437              		.align	2
 438              		.globl	_ZN3TCB15thread_dispatchEv
 440              	_ZN3TCB15thread_dispatchEv:
 441              	.LFB47:
  35:src/TCB.cpp   **** //    Scheduler::printScheduler();
 442              		.loc 1 35 29 is_stmt 1
 443              		.cfi_startproc
 444              		.cfi_personality 0x9b,DW.ref.__gxx_personality_v0
 445              		.cfi_lsda 0x1b,.LLSDA47
 446 02c0 130101FE 		addi	sp,sp,-32
 447              		.cfi_def_cfa_offset 32
 448 02c4 233C1100 		sd	ra,24(sp)
 449 02c8 23388100 		sd	s0,16(sp)
 450 02cc 23349100 		sd	s1,8(sp)
 451 02d0 23302101 		sd	s2,0(sp)
 452              		.cfi_offset 1, -8
 453              		.cfi_offset 8, -16
 454              		.cfi_offset 9, -24
 455              		.cfi_offset 18, -32
 456 02d4 13040102 		addi	s0,sp,32
 457              		.cfi_def_cfa 8, 0
  37:src/TCB.cpp   ****     running = Scheduler::getInstance().get();
 458              		.loc 1 37 5
  37:src/TCB.cpp   ****     running = Scheduler::getInstance().get();
 459              		.loc 1 37 11 is_stmt 0
 460 02d8 17090000 		lla	s2,.LANCHOR0
 460      13090900 
 461 02e0 83340900 		ld	s1,0(s2)
 462              	.LVL33:
  38:src/TCB.cpp   ****     if (!old->is_finished()) {
 463              		.loc 1 38 5 is_stmt 1
 464              	.LEHB0:
  38:src/TCB.cpp   ****     if (!old->is_finished()) {
 465              		.loc 1 38 38 is_stmt 0
 466 02e4 97000000 		call	_ZN9Scheduler11getInstanceEv@plt
 466      E7800000 
 467              	.LVL34:
  38:src/TCB.cpp   ****     if (!old->is_finished()) {
 468              		.loc 1 38 43
 469 02ec 97000000 		call	_ZN9Scheduler3getEv@plt
 469      E7800000 
 470              	.LVL35:
  38:src/TCB.cpp   ****     if (!old->is_finished()) {
 471              		.loc 1 38 13
 472 02f4 2330A900 		sd	a0,0(s2)
  39:src/TCB.cpp   ****         Scheduler::getInstance().put(old);
 473              		.loc 1 39 5 is_stmt 1
 474              	.LVL36:
 475              	.LBB12:
 476              	.LBB13:
  34:src/../h/TCB.hpp ****     void set_next_scheduler(TCB* nextThread){ next_scheduler = nextThread; }
 477              		.loc 2 34 29
  34:src/../h/TCB.hpp ****     void set_next_scheduler(TCB* nextThread){ next_scheduler = nextThread; }
 478              		.loc 2 34 36 is_stmt 0
 479 02f8 83C78402 		lbu	a5,40(s1)
 480              	.LVL37:
 481              	.LBE13:
GAS LISTING /tmp/ccjfV70Y.s 			page 14


 482              	.LBE12:
  39:src/TCB.cpp   ****         Scheduler::getInstance().put(old);
 483              		.loc 1 39 5
 484 02fc 63940704 		bnez	a5,.L30
  40:src/TCB.cpp   ****     }
 485              		.loc 1 40 9 is_stmt 1
  40:src/TCB.cpp   ****     }
 486              		.loc 1 40 32 is_stmt 0
 487 0300 97000000 		call	_ZN9Scheduler11getInstanceEv@plt
 487      E7800000 
 488              	.LVL38:
  40:src/TCB.cpp   ****     }
 489              		.loc 1 40 37
 490 0308 93850400 		mv	a1,s1
 491 030c 97000000 		call	_ZN9Scheduler3putEP3TCB@plt
 491      E7800000 
 492              	.LVL39:
 493              	.L31:
  46:src/TCB.cpp   **** }
 494              		.loc 1 46 5 is_stmt 1
  46:src/TCB.cpp   **** }
 495              		.loc 1 46 24 is_stmt 0
 496 0314 97050000 		ld	a1,.LANCHOR0
 496      83B50500 
 497 031c 93858501 		addi	a1,a1,24
 498 0320 13858401 		addi	a0,s1,24
 499 0324 97000000 		call	_ZN3TCB14context_switchEPNS_7ContextES1_@plt
 499      E7800000 
 500              	.LVL40:
 501              	.LEHE0:
  47:src/TCB.cpp   **** 
 502              		.loc 1 47 1
 503 032c 83308101 		ld	ra,24(sp)
 504              		.cfi_remember_state
 505              		.cfi_restore 1
 506 0330 03340101 		ld	s0,16(sp)
 507              		.cfi_restore 8
 508              		.cfi_def_cfa 2, 32
 509 0334 83348100 		ld	s1,8(sp)
 510              		.cfi_restore 9
 511              	.LVL41:
 512 0338 03390100 		ld	s2,0(sp)
 513              		.cfi_restore 18
 514 033c 13010102 		addi	sp,sp,32
 515              		.cfi_def_cfa_offset 0
 516 0340 67800000 		jr	ra
 517              	.LVL42:
 518              	.L30:
 519              		.cfi_restore_state
  43:src/TCB.cpp   ****     }
 520              		.loc 1 43 9 is_stmt 1
 521              	.LBB14:
 522              	.LBB15:
  43:src/../h/TCB.hpp ****     uint64 get_time_slice()const{ return time_slice; }
  44:src/../h/TCB.hpp ****     void set_periodic(bool b){
  45:src/../h/TCB.hpp ****         periodic = b;
  46:src/../h/TCB.hpp ****         periodicThread::getInstance().put(this);
GAS LISTING /tmp/ccjfV70Y.s 			page 15


  47:src/../h/TCB.hpp ****     }
  48:src/../h/TCB.hpp ****     void set_next_period(TCB* tcb){ next_period = tcb; }
  49:src/../h/TCB.hpp ****     TCB* get_next_period()const{return next_period;}
  50:src/../h/TCB.hpp **** 
  51:src/../h/TCB.hpp ****     static void yield();
  52:src/../h/TCB.hpp **** 
  53:src/../h/TCB.hpp ****     // operatori
  54:src/../h/TCB.hpp ****     void *operator new(uint64 n){
  55:src/../h/TCB.hpp ****         return kmem_cache_alloc(get_tcb_cache());
  56:src/../h/TCB.hpp ****     }
  57:src/../h/TCB.hpp **** 
  58:src/../h/TCB.hpp ****     void *operator new[](uint64 n){
  59:src/../h/TCB.hpp ****         if(n == 0)return nullptr;
  60:src/../h/TCB.hpp ****         size_t num_of_elem = n / sizeof(TCB);
  61:src/../h/TCB.hpp ****         TCB** arr =  (TCB**)kmalloc(num_of_elem);
  62:src/../h/TCB.hpp ****         return (void*)arr;
  63:src/../h/TCB.hpp ****     }
  64:src/../h/TCB.hpp **** 
  65:src/../h/TCB.hpp ****     void operator delete(void* p)noexcept{
  66:src/../h/TCB.hpp ****         kmem_cache_free(get_tcb_cache(), p);
 523              		.loc 2 66 9
 524              		.loc 2 66 39 is_stmt 0
 525 0344 97000000 		call	_ZN3TCB13get_tcb_cacheEv
 525      E7800000 
 526              	.LVL43:
 527              		.loc 2 66 24
 528 034c 93850400 		mv	a1,s1
 529 0350 03350500 		ld	a0,0(a0)
 530 0354 97000000 		call	_Z15kmem_cache_freeP12kmem_cache_sPv@plt
 530      E7800000 
 531              	.LVL44:
  67:src/../h/TCB.hpp ****     }
 532              		.loc 2 67 5
 533 035c 6FF09FFB 		j	.L31
 534              	.LBE15:
 535              	.LBE14:
 536              		.cfi_endproc
 537              	.LFE47:
 538              		.globl	__gxx_personality_v0
 539              		.section	.gcc_except_table,"a",@progbits
 540              	.LLSDA47:
 541 0000 FF       		.byte	0xff
 542 0001 FF       		.byte	0xff
 543 0002 03       		.byte	0x3
 544 0003 0D       		.byte	0xd
 545 0004 00000000 		.4byte	.LEHB0-.LFB47
 546 0008 00000000 		.4byte	.LEHE0-.LEHB0
 547 000c 00000000 		.4byte	0
 548 0010 00       		.byte	0
 549              		.text
 551              		.align	2
 552              		.globl	_ZN3TCB11thread_exitEv
 554              	_ZN3TCB11thread_exitEv:
 555              	.LFB46:
  28:src/TCB.cpp   ****     running->set_finished(true);
 556              		.loc 1 28 24 is_stmt 1
 557              		.cfi_startproc
GAS LISTING /tmp/ccjfV70Y.s 			page 16


 558 0360 130101FF 		addi	sp,sp,-16
 559              		.cfi_def_cfa_offset 16
 560 0364 23341100 		sd	ra,8(sp)
 561 0368 23308100 		sd	s0,0(sp)
 562              		.cfi_offset 1, -8
 563              		.cfi_offset 8, -16
 564 036c 13040101 		addi	s0,sp,16
 565              		.cfi_def_cfa 8, 0
  29:src/TCB.cpp   ****     TCB::thread_dispatch();
 566              		.loc 1 29 5
 567              	.LVL45:
 568              	.LBB16:
 569              	.LBB17:
  33:src/../h/TCB.hpp ****     bool is_finished()const{return finished;}
 570              		.loc 2 33 32
  33:src/../h/TCB.hpp ****     bool is_finished()const{return finished;}
 571              		.loc 2 33 47 is_stmt 0
 572 0370 97070000 		ld	a5,.LANCHOR0
 572      83B70700 
 573 0378 13071000 		li	a4,1
 574 037c 2384E702 		sb	a4,40(a5)
 575              	.LVL46:
 576              	.LBE17:
 577              	.LBE16:
  30:src/TCB.cpp   ****     // do ovog dela nece nikad doci jer thread_dispatch nece nit koju gasimo staviti u scheduler
 578              		.loc 1 30 5 is_stmt 1
  30:src/TCB.cpp   ****     // do ovog dela nece nikad doci jer thread_dispatch nece nit koju gasimo staviti u scheduler
 579              		.loc 1 30 25 is_stmt 0
 580 0380 97000000 		call	_ZN3TCB15thread_dispatchEv
 580      E7800000 
 581              	.LVL47:
  32:src/TCB.cpp   **** }
 582              		.loc 1 32 5 is_stmt 1
  33:src/TCB.cpp   **** 
 583              		.loc 1 33 1 is_stmt 0
 584 0388 1305F0FF 		li	a0,-1
 585 038c 83308100 		ld	ra,8(sp)
 586              		.cfi_restore 1
 587 0390 03340100 		ld	s0,0(sp)
 588              		.cfi_restore 8
 589              		.cfi_def_cfa 2, 16
 590 0394 13010101 		addi	sp,sp,16
 591              		.cfi_def_cfa_offset 0
 592 0398 67800000 		jr	ra
 593              		.cfi_endproc
 594              	.LFE46:
 596              		.align	2
 597              		.globl	_ZN3TCB14thread_wrapperEv
 599              	_ZN3TCB14thread_wrapperEv:
 600              	.LFB48:
  49:src/TCB.cpp   ****     Riscv::popSppSpie();
 601              		.loc 1 49 28 is_stmt 1
 602              		.cfi_startproc
 603 039c 130101FF 		addi	sp,sp,-16
 604              		.cfi_def_cfa_offset 16
 605 03a0 23341100 		sd	ra,8(sp)
 606 03a4 23308100 		sd	s0,0(sp)
GAS LISTING /tmp/ccjfV70Y.s 			page 17


 607              		.cfi_offset 1, -8
 608              		.cfi_offset 8, -16
 609 03a8 13040101 		addi	s0,sp,16
 610              		.cfi_def_cfa 8, 0
  50:src/TCB.cpp   ****     running->body(running->argument);
 611              		.loc 1 50 5
  50:src/TCB.cpp   ****     running->body(running->argument);
 612              		.loc 1 50 22 is_stmt 0
 613 03ac 97000000 		call	_ZN5Riscv10popSppSpieEv@plt
 613      E7800000 
 614              	.LVL48:
  51:src/TCB.cpp   ****     thread_exit();
 615              		.loc 1 51 5 is_stmt 1
  51:src/TCB.cpp   ****     thread_exit();
 616              		.loc 1 51 14 is_stmt 0
 617 03b4 97070000 		ld	a5,.LANCHOR0
 617      83B70700 
 618 03bc 03B70700 		ld	a4,0(a5)
  51:src/TCB.cpp   ****     thread_exit();
 619              		.loc 1 51 18
 620 03c0 03B58700 		ld	a0,8(a5)
 621 03c4 E7000700 		jalr	a4
 622              	.LVL49:
  52:src/TCB.cpp   **** }
 623              		.loc 1 52 5 is_stmt 1
  52:src/TCB.cpp   **** }
 624              		.loc 1 52 16 is_stmt 0
 625 03c8 97000000 		call	_ZN3TCB11thread_exitEv
 625      E7800000 
 626              	.LVL50:
  53:src/TCB.cpp   **** 
 627              		.loc 1 53 1
 628 03d0 83308100 		ld	ra,8(sp)
 629              		.cfi_restore 1
 630 03d4 03340100 		ld	s0,0(sp)
 631              		.cfi_restore 8
 632              		.cfi_def_cfa 2, 16
 633 03d8 13010101 		addi	sp,sp,16
 634              		.cfi_def_cfa_offset 0
 635 03dc 67800000 		jr	ra
 636              		.cfi_endproc
 637              	.LFE48:
 639              		.globl	_ZN3TCB2IDE
 640              		.globl	_ZN3TCB9tcb_cacheE
 641              		.globl	_ZN3TCB18time_slice_counterE
 642              		.globl	_ZN3TCB4idleE
 643              		.globl	_ZN3TCB7runningE
 644              		.bss
 645              		.align	3
 646              		.set	.LANCHOR0,. + 0
 649              	_ZN3TCB7runningE:
 650 0000 00000000 		.zero	8
 650      00000000 
 653              	_ZN3TCB18time_slice_counterE:
 654 0008 00000000 		.zero	8
 654      00000000 
 657              	_ZN3TCB2IDE:
GAS LISTING /tmp/ccjfV70Y.s 			page 18


 658 0010 00000000 		.zero	8
 658      00000000 
 661              	_ZN3TCB9tcb_cacheE:
 662 0018 00000000 		.zero	8
 662      00000000 
 665              	_ZN3TCB4idleE:
 666 0020 00000000 		.zero	8
 666      00000000 
 667              		.text
 668              	.Letext0:
 669              		.file 3 "src/../h/../lib/hw.h"
 670              		.file 4 "src/../h/../h/SlabI.h"
 671              		.file 5 "src/../h/../h/scheduler.hpp"
 672              		.file 6 "src/../h/../h/TS.hpp"
 673              		.file 7 "src/../h/riscv.hpp"
 674              		.file 8 "src/../h/../h/../test/../h/syscall_c.h"
 4086              		.align	3
 4089              	DW.ref.__gxx_personality_v0:
 4090 0000 00000000 		.dword	__gxx_personality_v0
 4090      00000000 
 4091              		.ident	"GCC: (Ubuntu 9.4.0-1ubuntu1~20.04) 9.4.0"
 4092              		.section	.note.GNU-stack,"",@progbits
GAS LISTING /tmp/ccjfV70Y.s 			page 19


DEFINED SYMBOLS
                            *ABS*:0000000000000000 TCB.cpp
     /tmp/ccjfV70Y.s:9      .text:0000000000000000 _ZN3TCB11tcb_destroyEPv
     /tmp/ccjfV70Y.s:13     .text:0000000000000000 .L0 
     /tmp/ccjfV70Y.s:15     .text:0000000000000000 .L0 
     /tmp/ccjfV70Y.s:16     .text:0000000000000000 .L0 
     /tmp/ccjfV70Y.s:17     .text:0000000000000000 .L0 
     /tmp/ccjfV70Y.s:18     .text:0000000000000000 .L0 
     /tmp/ccjfV70Y.s:21     .text:0000000000000004 .L0 
     /tmp/ccjfV70Y.s:23     .text:0000000000000008 .L0 
     /tmp/ccjfV70Y.s:24     .text:000000000000000c .L0 
     /tmp/ccjfV70Y.s:27     .text:0000000000000014 .L0 
     /tmp/ccjfV70Y.s:28     .text:0000000000000014 .L0 
     /tmp/ccjfV70Y.s:30     .text:0000000000000018 .L0 
     /tmp/ccjfV70Y.s:32     .text:0000000000000018 .L0 
     /tmp/ccjfV70Y.s:33     .text:0000000000000018 .L0 
     /tmp/ccjfV70Y.s:36     .text:0000000000000020 .L0 
     /tmp/ccjfV70Y.s:37     .text:0000000000000024 .L0 
     /tmp/ccjfV70Y.s:39     .text:0000000000000028 .L0 
     /tmp/ccjfV70Y.s:40     .text:0000000000000028 .L0 
     /tmp/ccjfV70Y.s:42     .text:000000000000002c .L0 
     /tmp/ccjfV70Y.s:46     .text:0000000000000034 .L0 
     /tmp/ccjfV70Y.s:52     .text:0000000000000034 _ZN3TCB5yieldEv
     /tmp/ccjfV70Y.s:55     .text:0000000000000034 .L0 
     /tmp/ccjfV70Y.s:56     .text:0000000000000034 .L0 
     /tmp/ccjfV70Y.s:57     .text:0000000000000038 .L0 
     /tmp/ccjfV70Y.s:62     .text:0000000000000048 .L0 
     /tmp/ccjfV70Y.s:63     .text:0000000000000048 .L0 
     /tmp/ccjfV70Y.s:64     .text:0000000000000048 .L0 
     /tmp/ccjfV70Y.s:65     .text:0000000000000048 .L0 
     /tmp/ccjfV70Y.s:67     .text:000000000000004c .L0 
     /tmp/ccjfV70Y.s:69     .text:000000000000004c .L0 
     /tmp/ccjfV70Y.s:70     .text:000000000000004c .L0 
     /tmp/ccjfV70Y.s:74     .text:0000000000000058 .L0 
     /tmp/ccjfV70Y.s:75     .text:0000000000000058 .L0 
     /tmp/ccjfV70Y.s:78     .text:0000000000000060 .L0 
     /tmp/ccjfV70Y.s:81     .text:0000000000000068 .L0 
     /tmp/ccjfV70Y.s:83     .text:000000000000006c .L0 
     /tmp/ccjfV70Y.s:84     .text:000000000000006c .L0 
     /tmp/ccjfV70Y.s:86     .text:0000000000000070 .L0 
     /tmp/ccjfV70Y.s:87     .text:0000000000000070 .L0 
     /tmp/ccjfV70Y.s:92     .text:0000000000000080 .L0 
     /tmp/ccjfV70Y.s:93     .text:0000000000000084 .L0 
     /tmp/ccjfV70Y.s:95     .text:0000000000000088 .L0 
     /tmp/ccjfV70Y.s:96     .text:0000000000000088 .L0 
     /tmp/ccjfV70Y.s:98     .text:000000000000008c .L0 
     /tmp/ccjfV70Y.s:100    .text:0000000000000090 .L0 
     /tmp/ccjfV70Y.s:103    .text:0000000000000094 .L0 
     /tmp/ccjfV70Y.s:105    .text:0000000000000098 .L0 
     /tmp/ccjfV70Y.s:111    .text:0000000000000098 _ZN3TCB10time_sleepEm
     /tmp/ccjfV70Y.s:114    .text:0000000000000098 .L0 
     /tmp/ccjfV70Y.s:116    .text:0000000000000098 .L0 
     /tmp/ccjfV70Y.s:117    .text:000000000000009c .L0 
     /tmp/ccjfV70Y.s:121    .text:00000000000000a8 .L0 
     /tmp/ccjfV70Y.s:122    .text:00000000000000a8 .L0 
     /tmp/ccjfV70Y.s:123    .text:00000000000000a8 .L0 
     /tmp/ccjfV70Y.s:125    .text:00000000000000ac .L0 
GAS LISTING /tmp/ccjfV70Y.s 			page 20


     /tmp/ccjfV70Y.s:127    .text:00000000000000ac .L0 
     /tmp/ccjfV70Y.s:128    .text:00000000000000ac .L0 
     /tmp/ccjfV70Y.s:135    .text:00000000000000b8 .L0 
     /tmp/ccjfV70Y.s:136    .text:00000000000000b8 .L0 
     /tmp/ccjfV70Y.s:141    .text:00000000000000bc .L0 
     /tmp/ccjfV70Y.s:142    .text:00000000000000bc .L0 
     /tmp/ccjfV70Y.s:145    .text:00000000000000c4 .L0 
     /tmp/ccjfV70Y.s:149    .text:00000000000000d0 .L0 
     /tmp/ccjfV70Y.s:150    .text:00000000000000d0 .L0 
     /tmp/ccjfV70Y.s:153    .text:00000000000000d8 .L0 
     /tmp/ccjfV70Y.s:154    .text:00000000000000d8 .L0 
     /tmp/ccjfV70Y.s:156    .text:00000000000000e0 .L0 
     /tmp/ccjfV70Y.s:158    .text:00000000000000e4 .L0 
     /tmp/ccjfV70Y.s:159    .text:00000000000000e4 .L0 
     /tmp/ccjfV70Y.s:161    .text:00000000000000e8 .L0 
     /tmp/ccjfV70Y.s:163    .text:00000000000000ec .L0 
     /tmp/ccjfV70Y.s:165    .text:00000000000000f0 .L0 
     /tmp/ccjfV70Y.s:171    .text:00000000000000f0 _ZN3TCB9TCB_setupEPFvPvES0_S0_b
     /tmp/ccjfV70Y.s:174    .text:00000000000000f0 .L0 
     /tmp/ccjfV70Y.s:176    .text:00000000000000f0 .L0 
     /tmp/ccjfV70Y.s:177    .text:00000000000000f4 .L0 
     /tmp/ccjfV70Y.s:179    .text:00000000000000f8 .L0 
     /tmp/ccjfV70Y.s:181    .text:00000000000000fc .L0 
     /tmp/ccjfV70Y.s:183    .text:00000000000000fc .L0 
     /tmp/ccjfV70Y.s:184    .text:00000000000000fc .L0 
     /tmp/ccjfV70Y.s:186    .text:0000000000000100 .L0 
     /tmp/ccjfV70Y.s:187    .text:0000000000000100 .L0 
     /tmp/ccjfV70Y.s:189    .text:0000000000000104 .L0 
     /tmp/ccjfV70Y.s:190    .text:0000000000000104 .L0 
     /tmp/ccjfV70Y.s:192    .text:0000000000000108 .L0 
     /tmp/ccjfV70Y.s:599    .text:000000000000039c _ZN3TCB14thread_wrapperEv
     /tmp/ccjfV70Y.s:193    .text:0000000000000108 .L0 
     /tmp/ccjfV70Y.s:196    .text:0000000000000114 .L0 
     /tmp/ccjfV70Y.s:197    .text:0000000000000114 .L0 
     /tmp/ccjfV70Y.s:199    .text:0000000000000118 .L0 
     /tmp/ccjfV70Y.s:204    .text:0000000000000120 .L0 
     /tmp/ccjfV70Y.s:206    .text:0000000000000124 .L0 
     /tmp/ccjfV70Y.s:207    .text:0000000000000124 .L0 
     /tmp/ccjfV70Y.s:209    .text:0000000000000128 .L0 
     /tmp/ccjfV70Y.s:210    .text:0000000000000128 .L0 
     /tmp/ccjfV70Y.s:212    .text:000000000000012c .L0 
     /tmp/ccjfV70Y.s:213    .text:000000000000012c .L0 
     /tmp/ccjfV70Y.s:215    .text:0000000000000130 .L0 
     /tmp/ccjfV70Y.s:216    .text:0000000000000130 .L0 
     /tmp/ccjfV70Y.s:218    .text:0000000000000134 .L0 
     /tmp/ccjfV70Y.s:219    .text:0000000000000134 .L0 
     /tmp/ccjfV70Y.s:222    .text:000000000000013c .L0 
     /tmp/ccjfV70Y.s:223    .text:000000000000013c .L0 
     /tmp/ccjfV70Y.s:225    .text:0000000000000140 .L0 
     /tmp/ccjfV70Y.s:226    .text:0000000000000140 .L0 
     /tmp/ccjfV70Y.s:232    .text:0000000000000154 .L0 
     /tmp/ccjfV70Y.s:234    .text:0000000000000158 .L0 
     /tmp/ccjfV70Y.s:235    .text:0000000000000158 .L0 
     /tmp/ccjfV70Y.s:237    .text:000000000000015c .L0 
     /tmp/ccjfV70Y.s:238    .text:000000000000015c .L0 
     /tmp/ccjfV70Y.s:240    .text:0000000000000160 .L0 
     /tmp/ccjfV70Y.s:241    .text:0000000000000160 .L0 
GAS LISTING /tmp/ccjfV70Y.s 			page 21


     /tmp/ccjfV70Y.s:243    .text:0000000000000164 .L0 
     /tmp/ccjfV70Y.s:244    .text:0000000000000168 .L0 
     /tmp/ccjfV70Y.s:245    .text:0000000000000168 .L0 
     /tmp/ccjfV70Y.s:246    .text:0000000000000168 .L0 
     /tmp/ccjfV70Y.s:248    .text:000000000000016c .L0 
     /tmp/ccjfV70Y.s:252    .text:0000000000000170 .L0 
     /tmp/ccjfV70Y.s:254    .text:0000000000000170 .L0 
     /tmp/ccjfV70Y.s:257    .text:0000000000000178 .L0 
     /tmp/ccjfV70Y.s:268    .text:0000000000000178 _ZN3TCB13get_tcb_cacheEv
     /tmp/ccjfV70Y.s:271    .text:0000000000000178 .L0 
     /tmp/ccjfV70Y.s:272    .text:0000000000000178 .L0 
     /tmp/ccjfV70Y.s:273    .text:0000000000000178 .L0 
     /tmp/ccjfV70Y.s:274    .text:0000000000000178 .L0 
     /tmp/ccjfV70Y.s:276    .text:0000000000000180 .L0 
     /tmp/ccjfV70Y.s:278    .text:0000000000000184 .L0 
     /tmp/ccjfV70Y.s:279    .text:0000000000000184 .L0 
     /tmp/ccjfV70Y.s:283    .text:0000000000000190 .L0 
     /tmp/ccjfV70Y.s:284    .text:0000000000000194 .L0 
     /tmp/ccjfV70Y.s:287    .text:000000000000019c .L0 
     /tmp/ccjfV70Y.s:288    .text:000000000000019c .L0 
     /tmp/ccjfV70Y.s:290    .text:00000000000001a0 .L0 
     /tmp/ccjfV70Y.s:292    .text:00000000000001a0 .L0 
     /tmp/ccjfV70Y.s:293    .text:00000000000001a0 .L0 
     /tmp/ccjfV70Y.s:300    .text:00000000000001c0 .L0 
     /tmp/ccjfV70Y.s:302    .text:00000000000001c8 .L0 
     /tmp/ccjfV70Y.s:303    .text:00000000000001c8 .L0 
     /tmp/ccjfV70Y.s:305    .text:00000000000001d4 .L0 
     /tmp/ccjfV70Y.s:307    .text:00000000000001d8 .L0 
     /tmp/ccjfV70Y.s:308    .text:00000000000001d8 .L0 
     /tmp/ccjfV70Y.s:310    .text:00000000000001dc .L0 
     /tmp/ccjfV70Y.s:312    .text:00000000000001e0 .L0 
     /tmp/ccjfV70Y.s:318    .text:00000000000001e0 _ZN3TCB13thread_createEPPS_PFvPvES2_S2_b
     /tmp/ccjfV70Y.s:321    .text:00000000000001e0 .L0 
     /tmp/ccjfV70Y.s:323    .text:00000000000001e0 .L0 
     /tmp/ccjfV70Y.s:324    .text:00000000000001e4 .L0 
     /tmp/ccjfV70Y.s:333    .text:0000000000000204 .L0 
     /tmp/ccjfV70Y.s:334    .text:0000000000000204 .L0 
     /tmp/ccjfV70Y.s:335    .text:0000000000000204 .L0 
     /tmp/ccjfV70Y.s:336    .text:0000000000000204 .L0 
     /tmp/ccjfV70Y.s:337    .text:0000000000000204 .L0 
     /tmp/ccjfV70Y.s:338    .text:0000000000000204 .L0 
     /tmp/ccjfV70Y.s:339    .text:0000000000000204 .L0 
     /tmp/ccjfV70Y.s:340    .text:0000000000000204 .L0 
     /tmp/ccjfV70Y.s:342    .text:0000000000000208 .L0 
     /tmp/ccjfV70Y.s:349    .text:000000000000021c .L0 
     /tmp/ccjfV70Y.s:350    .text:000000000000021c .L0 
     /tmp/ccjfV70Y.s:353    .text:0000000000000224 .L0 
     /tmp/ccjfV70Y.s:359    .text:0000000000000234 .L0 
     /tmp/ccjfV70Y.s:361    .text:0000000000000238 .L0 
     /tmp/ccjfV70Y.s:362    .text:0000000000000238 .L0 
     /tmp/ccjfV70Y.s:370    .text:0000000000000250 .L0 
     /tmp/ccjfV70Y.s:371    .text:0000000000000250 .L0 
     /tmp/ccjfV70Y.s:373    .text:0000000000000254 .L0 
     /tmp/ccjfV70Y.s:375    .text:0000000000000258 .L0 
     /tmp/ccjfV70Y.s:377    .text:000000000000025c .L0 
     /tmp/ccjfV70Y.s:379    .text:0000000000000264 .L0 
     /tmp/ccjfV70Y.s:381    .text:0000000000000268 .L0 
GAS LISTING /tmp/ccjfV70Y.s 			page 22


     /tmp/ccjfV70Y.s:384    .text:000000000000026c .L0 
     /tmp/ccjfV70Y.s:385    .text:000000000000026c .L0 
     /tmp/ccjfV70Y.s:387    .text:0000000000000270 .L0 
     /tmp/ccjfV70Y.s:389    .text:0000000000000274 .L0 
     /tmp/ccjfV70Y.s:392    .text:0000000000000278 .L0 
     /tmp/ccjfV70Y.s:393    .text:000000000000027c .L0 
     /tmp/ccjfV70Y.s:394    .text:000000000000027c .L0 
     /tmp/ccjfV70Y.s:396    .text:0000000000000280 .L0 
     /tmp/ccjfV70Y.s:397    .text:0000000000000280 .L0 
     /tmp/ccjfV70Y.s:399    .text:0000000000000284 .L0 
     /tmp/ccjfV70Y.s:402    .text:0000000000000288 .L0 
     /tmp/ccjfV70Y.s:405    .text:000000000000028c .L0 
     /tmp/ccjfV70Y.s:408    .text:0000000000000290 .L0 
     /tmp/ccjfV70Y.s:410    .text:0000000000000294 .L0 
     /tmp/ccjfV70Y.s:413    .text:0000000000000298 .L0 
     /tmp/ccjfV70Y.s:416    .text:000000000000029c .L0 
     /tmp/ccjfV70Y.s:420    .text:00000000000002a0 .L0 
     /tmp/ccjfV70Y.s:422    .text:00000000000002a0 .L0 
     /tmp/ccjfV70Y.s:423    .text:00000000000002a0 .L0 
     /tmp/ccjfV70Y.s:426    .text:00000000000002a8 .L0 
     /tmp/ccjfV70Y.s:432    .text:00000000000002b8 .L0 
     /tmp/ccjfV70Y.s:434    .text:00000000000002c0 .L0 
     /tmp/ccjfV70Y.s:440    .text:00000000000002c0 _ZN3TCB15thread_dispatchEv
     /tmp/ccjfV70Y.s:443    .text:00000000000002c0 .L0 
     /tmp/ccjfV70Y.s:4089   .data.rel.local.DW.ref.__gxx_personality_v0:0000000000000000 DW.ref.__gxx_personality_v0
     /tmp/ccjfV70Y.s:446    .text:00000000000002c0 .L0 
     /tmp/ccjfV70Y.s:447    .text:00000000000002c4 .L0 
     /tmp/ccjfV70Y.s:452    .text:00000000000002d4 .L0 
     /tmp/ccjfV70Y.s:453    .text:00000000000002d4 .L0 
     /tmp/ccjfV70Y.s:454    .text:00000000000002d4 .L0 
     /tmp/ccjfV70Y.s:455    .text:00000000000002d4 .L0 
     /tmp/ccjfV70Y.s:457    .text:00000000000002d8 .L0 
     /tmp/ccjfV70Y.s:459    .text:00000000000002d8 .L0 
     /tmp/ccjfV70Y.s:460    .text:00000000000002d8 .L0 
     /tmp/ccjfV70Y.s:465    .text:00000000000002e4 .L0 
     /tmp/ccjfV70Y.s:466    .text:00000000000002e4 .L0 
     /tmp/ccjfV70Y.s:469    .text:00000000000002ec .L0 
     /tmp/ccjfV70Y.s:472    .text:00000000000002f4 .L0 
     /tmp/ccjfV70Y.s:477    .text:00000000000002f8 .L0 
     /tmp/ccjfV70Y.s:478    .text:00000000000002f8 .L0 
     /tmp/ccjfV70Y.s:479    .text:00000000000002f8 .L0 
     /tmp/ccjfV70Y.s:484    .text:00000000000002fc .L0 
     /tmp/ccjfV70Y.s:486    .text:0000000000000300 .L0 
     /tmp/ccjfV70Y.s:487    .text:0000000000000300 .L0 
     /tmp/ccjfV70Y.s:490    .text:0000000000000308 .L0 
     /tmp/ccjfV70Y.s:495    .text:0000000000000314 .L0 
     /tmp/ccjfV70Y.s:496    .text:0000000000000314 .L0 
     /tmp/ccjfV70Y.s:503    .text:000000000000032c .L0 
     /tmp/ccjfV70Y.s:504    .text:0000000000000330 .L0 
     /tmp/ccjfV70Y.s:505    .text:0000000000000330 .L0 
     /tmp/ccjfV70Y.s:507    .text:0000000000000334 .L0 
     /tmp/ccjfV70Y.s:508    .text:0000000000000334 .L0 
     /tmp/ccjfV70Y.s:510    .text:0000000000000338 .L0 
     /tmp/ccjfV70Y.s:513    .text:000000000000033c .L0 
     /tmp/ccjfV70Y.s:515    .text:0000000000000340 .L0 
     /tmp/ccjfV70Y.s:519    .text:0000000000000344 .L0 
     /tmp/ccjfV70Y.s:523    .text:0000000000000344 .L0 
GAS LISTING /tmp/ccjfV70Y.s 			page 23


     /tmp/ccjfV70Y.s:524    .text:0000000000000344 .L0 
     /tmp/ccjfV70Y.s:525    .text:0000000000000344 .L0 
     /tmp/ccjfV70Y.s:528    .text:000000000000034c .L0 
     /tmp/ccjfV70Y.s:533    .text:000000000000035c .L0 
     /tmp/ccjfV70Y.s:536    .text:0000000000000360 .L0 
     /tmp/ccjfV70Y.s:554    .text:0000000000000360 _ZN3TCB11thread_exitEv
     /tmp/ccjfV70Y.s:557    .text:0000000000000360 .L0 
     /tmp/ccjfV70Y.s:558    .text:0000000000000360 .L0 
     /tmp/ccjfV70Y.s:559    .text:0000000000000364 .L0 
     /tmp/ccjfV70Y.s:562    .text:000000000000036c .L0 
     /tmp/ccjfV70Y.s:563    .text:000000000000036c .L0 
     /tmp/ccjfV70Y.s:565    .text:0000000000000370 .L0 
     /tmp/ccjfV70Y.s:570    .text:0000000000000370 .L0 
     /tmp/ccjfV70Y.s:571    .text:0000000000000370 .L0 
     /tmp/ccjfV70Y.s:572    .text:0000000000000370 .L0 
     /tmp/ccjfV70Y.s:579    .text:0000000000000380 .L0 
     /tmp/ccjfV70Y.s:580    .text:0000000000000380 .L0 
     /tmp/ccjfV70Y.s:583    .text:0000000000000388 .L0 
     /tmp/ccjfV70Y.s:584    .text:0000000000000388 .L0 
     /tmp/ccjfV70Y.s:586    .text:0000000000000390 .L0 
     /tmp/ccjfV70Y.s:588    .text:0000000000000394 .L0 
     /tmp/ccjfV70Y.s:589    .text:0000000000000394 .L0 
     /tmp/ccjfV70Y.s:591    .text:0000000000000398 .L0 
     /tmp/ccjfV70Y.s:593    .text:000000000000039c .L0 
     /tmp/ccjfV70Y.s:602    .text:000000000000039c .L0 
     /tmp/ccjfV70Y.s:603    .text:000000000000039c .L0 
     /tmp/ccjfV70Y.s:604    .text:00000000000003a0 .L0 
     /tmp/ccjfV70Y.s:607    .text:00000000000003a8 .L0 
     /tmp/ccjfV70Y.s:608    .text:00000000000003a8 .L0 
     /tmp/ccjfV70Y.s:610    .text:00000000000003ac .L0 
     /tmp/ccjfV70Y.s:612    .text:00000000000003ac .L0 
     /tmp/ccjfV70Y.s:613    .text:00000000000003ac .L0 
     /tmp/ccjfV70Y.s:616    .text:00000000000003b4 .L0 
     /tmp/ccjfV70Y.s:617    .text:00000000000003b4 .L0 
     /tmp/ccjfV70Y.s:620    .text:00000000000003c0 .L0 
     /tmp/ccjfV70Y.s:624    .text:00000000000003c8 .L0 
     /tmp/ccjfV70Y.s:625    .text:00000000000003c8 .L0 
     /tmp/ccjfV70Y.s:628    .text:00000000000003d0 .L0 
     /tmp/ccjfV70Y.s:629    .text:00000000000003d4 .L0 
     /tmp/ccjfV70Y.s:631    .text:00000000000003d8 .L0 
     /tmp/ccjfV70Y.s:632    .text:00000000000003d8 .L0 
     /tmp/ccjfV70Y.s:634    .text:00000000000003dc .L0 
     /tmp/ccjfV70Y.s:636    .text:00000000000003e0 .L0 
     /tmp/ccjfV70Y.s:657    .bss:0000000000000010 _ZN3TCB2IDE
     /tmp/ccjfV70Y.s:661    .bss:0000000000000018 _ZN3TCB9tcb_cacheE
     /tmp/ccjfV70Y.s:653    .bss:0000000000000008 _ZN3TCB18time_slice_counterE
     /tmp/ccjfV70Y.s:665    .bss:0000000000000020 _ZN3TCB4idleE
     /tmp/ccjfV70Y.s:649    .bss:0000000000000000 _ZN3TCB7runningE
     /tmp/ccjfV70Y.s:646    .bss:0000000000000000 .LANCHOR0
     /tmp/ccjfV70Y.s:675    .text:00000000000003e0 .L0 
     /tmp/ccjfV70Y.s:70     .text:000000000000004c .L0 
     /tmp/ccjfV70Y.s:128    .text:00000000000000ac .L0 
     /tmp/ccjfV70Y.s:193    .text:0000000000000108 .L0 
     /tmp/ccjfV70Y.s:226    .text:0000000000000140 .L0 
     /tmp/ccjfV70Y.s:274    .text:0000000000000178 .L0 
     /tmp/ccjfV70Y.s:279    .text:0000000000000184 .L0 
     /tmp/ccjfV70Y.s:293    .text:00000000000001a0 .L0 
GAS LISTING /tmp/ccjfV70Y.s 			page 24


     /tmp/ccjfV70Y.s:262    .rodata.str1.8:0000000000000000 .LC0
     /tmp/ccjfV70Y.s:296    .text:00000000000001b0 .L0 
     /tmp/ccjfV70Y.s:300    .text:00000000000001c0 .L0 
     /tmp/ccjfV70Y.s:303    .text:00000000000001c8 .L0 
     /tmp/ccjfV70Y.s:377    .text:000000000000025c .L0 
     /tmp/ccjfV70Y.s:460    .text:00000000000002d8 .L0 
     /tmp/ccjfV70Y.s:496    .text:0000000000000314 .L0 
     /tmp/ccjfV70Y.s:572    .text:0000000000000370 .L0 
     /tmp/ccjfV70Y.s:617    .text:00000000000003b4 .L0 
     /tmp/ccjfV70Y.s:44     .text:0000000000000030 .L4
     /tmp/ccjfV70Y.s:251    .text:0000000000000170 .L13
     /tmp/ccjfV70Y.s:202    .text:0000000000000120 .L12
     /tmp/ccjfV70Y.s:281    .text:0000000000000190 .L21
     /tmp/ccjfV70Y.s:368    .text:0000000000000250 .L23
     /tmp/ccjfV70Y.s:382    .text:000000000000026c .L24
     /tmp/ccjfV70Y.s:419    .text:00000000000002a0 .L28
     /tmp/ccjfV70Y.s:430    .text:00000000000002b8 .L26
     /tmp/ccjfV70Y.s:390    .text:0000000000000278 .L25
     /tmp/ccjfV70Y.s:518    .text:0000000000000344 .L30
     /tmp/ccjfV70Y.s:493    .text:0000000000000314 .L31
     /tmp/ccjfV70Y.s:464    .text:00000000000002e4 .LEHB0
     /tmp/ccjfV70Y.s:441    .text:00000000000002c0 .LFB47
     /tmp/ccjfV70Y.s:501    .text:000000000000032c .LEHE0
     /tmp/ccjfV70Y.s:2356   .debug_abbrev:0000000000000000 .Ldebug_abbrev0
     /tmp/ccjfV70Y.s:4019   .debug_str:0000000000000a67 .LASF182
     /tmp/ccjfV70Y.s:3769   .debug_str:0000000000000200 .LASF183
     /tmp/ccjfV70Y.s:3721   .debug_str:0000000000000075 .LASF184
     /tmp/ccjfV70Y.s:5      .text:0000000000000000 .Ltext0
     /tmp/ccjfV70Y.s:668    .text:00000000000003e0 .Letext0
     /tmp/ccjfV70Y.s:3701   .debug_line:0000000000000000 .Ldebug_line0
     /tmp/ccjfV70Y.s:3821   .debug_str:00000000000003e3 .LASF0
     /tmp/ccjfV70Y.s:3853   .debug_str:000000000000050a .LASF1
     /tmp/ccjfV70Y.s:3947   .debug_str:0000000000000834 .LASF2
     /tmp/ccjfV70Y.s:3959   .debug_str:000000000000089b .LASF4
     /tmp/ccjfV70Y.s:3835   .debug_str:0000000000000458 .LASF3
     /tmp/ccjfV70Y.s:3713   .debug_str:0000000000000043 .LASF5
     /tmp/ccjfV70Y.s:3909   .debug_str:00000000000006e4 .LASF6
     /tmp/ccjfV70Y.s:3847   .debug_str:00000000000004d0 .LASF7
     /tmp/ccjfV70Y.s:3871   .debug_str:000000000000059e .LASF8
     /tmp/ccjfV70Y.s:3799   .debug_str:0000000000000304 .LASF9
     /tmp/ccjfV70Y.s:3805   .debug_str:000000000000033c .LASF10
     /tmp/ccjfV70Y.s:3743   .debug_str:000000000000012d .LASF11
     /tmp/ccjfV70Y.s:4029   .debug_str:0000000000000b89 .LASF12
     /tmp/ccjfV70Y.s:3785   .debug_str:00000000000002aa .LASF13
     /tmp/ccjfV70Y.s:3749   .debug_str:0000000000000162 .LASF14
     /tmp/ccjfV70Y.s:3741   .debug_str:000000000000011d .LASF15
     /tmp/ccjfV70Y.s:3991   .debug_str:0000000000000992 .LASF16
     /tmp/ccjfV70Y.s:3995   .debug_str:00000000000009ad .LASF17
     /tmp/ccjfV70Y.s:3979   .debug_str:000000000000093d .LASF18
     /tmp/ccjfV70Y.s:3783   .debug_str:000000000000029d .LASF19
     /tmp/ccjfV70Y.s:3781   .debug_str:0000000000000290 .LASF185
     /tmp/ccjfV70Y.s:3797   .debug_str:00000000000002fa .LASF20
     /tmp/ccjfV70Y.s:4057   .debug_str:0000000000000c76 .LASF29
     /tmp/ccjfV70Y.s:3845   .debug_str:00000000000004b3 .LASF31
     /tmp/ccjfV70Y.s:3739   .debug_str:0000000000000108 .LASF22
     /tmp/ccjfV70Y.s:3951   .debug_str:000000000000084f .LASF21
     /tmp/ccjfV70Y.s:3957   .debug_str:0000000000000886 .LASF23
GAS LISTING /tmp/ccjfV70Y.s 			page 25


     /tmp/ccjfV70Y.s:4065   .debug_str:0000000000000cb0 .LASF104
     /tmp/ccjfV70Y.s:3813   .debug_str:000000000000036e .LASF186
     /tmp/ccjfV70Y.s:3875   .debug_str:00000000000005be .LASF24
     /tmp/ccjfV70Y.s:3885   .debug_str:000000000000063b .LASF25
     /tmp/ccjfV70Y.s:3983   .debug_str:0000000000000964 .LASF26
     /tmp/ccjfV70Y.s:3895   .debug_str:0000000000000699 .LASF27
     /tmp/ccjfV70Y.s:3999   .debug_str:00000000000009cc .LASF187
     /tmp/ccjfV70Y.s:3989   .debug_str:0000000000000984 .LASF28
     /tmp/ccjfV70Y.s:3815   .debug_str:0000000000000386 .LASF34
     /tmp/ccjfV70Y.s:3873   .debug_str:00000000000005b2 .LASF30
     /tmp/ccjfV70Y.s:3879   .debug_str:00000000000005e7 .LASF32
     /tmp/ccjfV70Y.s:3929   .debug_str:00000000000007a3 .LASF66
     /tmp/ccjfV70Y.s:3971   .debug_str:00000000000008f0 .LASF68
     /tmp/ccjfV70Y.s:3941   .debug_str:0000000000000815 .LASF33
     /tmp/ccjfV70Y.s:3961   .debug_str:00000000000008a2 .LASF35
     /tmp/ccjfV70Y.s:4075   .debug_str:0000000000000d01 .LASF36
     /tmp/ccjfV70Y.s:3977   .debug_str:0000000000000923 .LASF37
     /tmp/ccjfV70Y.s:4043   .debug_str:0000000000000bfe .LASF38
     /tmp/ccjfV70Y.s:3753   .debug_str:000000000000017f .LASF39
     /tmp/ccjfV70Y.s:3907   .debug_str:00000000000006d8 .LASF40
     /tmp/ccjfV70Y.s:3889   .debug_str:000000000000066a .LASF41
     /tmp/ccjfV70Y.s:3921   .debug_str:0000000000000762 .LASF42
     /tmp/ccjfV70Y.s:3775   .debug_str:0000000000000241 .LASF43
     /tmp/ccjfV70Y.s:4037   .debug_str:0000000000000bbb .LASF44
     /tmp/ccjfV70Y.s:3919   .debug_str:0000000000000743 .LASF45
     /tmp/ccjfV70Y.s:3993   .debug_str:000000000000099e .LASF46
     /tmp/ccjfV70Y.s:3939   .debug_str:00000000000007f9 .LASF47
     /tmp/ccjfV70Y.s:3839   .debug_str:0000000000000473 .LASF48
     /tmp/ccjfV70Y.s:3931   .debug_str:00000000000007b3 .LASF49
     /tmp/ccjfV70Y.s:4049   .debug_str:0000000000000c39 .LASF50
     /tmp/ccjfV70Y.s:4009   .debug_str:0000000000000a13 .LASF51
     /tmp/ccjfV70Y.s:3981   .debug_str:0000000000000953 .LASF52
     /tmp/ccjfV70Y.s:3779   .debug_str:0000000000000273 .LASF53
     /tmp/ccjfV70Y.s:3891   .debug_str:0000000000000682 .LASF54
     /tmp/ccjfV70Y.s:3933   .debug_str:00000000000007ce .LASF55
     /tmp/ccjfV70Y.s:3841   .debug_str:0000000000000482 .LASF56
     /tmp/ccjfV70Y.s:3771   .debug_str:000000000000020c .LASF57
     /tmp/ccjfV70Y.s:4015   .debug_str:0000000000000a4f .LASF58
     /tmp/ccjfV70Y.s:3831   .debug_str:000000000000042f .LASF59
     /tmp/ccjfV70Y.s:4041   .debug_str:0000000000000bf1 .LASF60
     /tmp/ccjfV70Y.s:4027   .debug_str:0000000000000b71 .LASF61
     /tmp/ccjfV70Y.s:3969   .debug_str:00000000000008e0 .LASF62
     /tmp/ccjfV70Y.s:3745   .debug_str:000000000000013c .LASF63
     /tmp/ccjfV70Y.s:3897   .debug_str:000000000000069e .LASF64
     /tmp/ccjfV70Y.s:3915   .debug_str:0000000000000711 .LASF65
     /tmp/ccjfV70Y.s:3855   .debug_str:000000000000051d .LASF67
     /tmp/ccjfV70Y.s:4013   .debug_str:0000000000000a3f .LASF69
     /tmp/ccjfV70Y.s:4077   .debug_str:0000000000000d0f .LASF70
     /tmp/ccjfV70Y.s:3801   .debug_str:0000000000000314 .LASF71
     /tmp/ccjfV70Y.s:3733   .debug_str:00000000000000dc .LASF72
     /tmp/ccjfV70Y.s:3793   .debug_str:00000000000002c9 .LASF73
     /tmp/ccjfV70Y.s:3711   .debug_str:0000000000000033 .LASF74
     /tmp/ccjfV70Y.s:3867   .debug_str:0000000000000578 .LASF76
     /tmp/ccjfV70Y.s:4073   .debug_str:0000000000000cee .LASF75
     /tmp/ccjfV70Y.s:3949   .debug_str:0000000000000842 .LASF77
     /tmp/ccjfV70Y.s:4003   .debug_str:00000000000009e3 .LASF78
     /tmp/ccjfV70Y.s:3787   .debug_str:00000000000002b9 .LASF79
GAS LISTING /tmp/ccjfV70Y.s 			page 26


     /tmp/ccjfV70Y.s:3903   .debug_str:00000000000006c9 .LASF80
     /tmp/ccjfV70Y.s:3829   .debug_str:000000000000040f .LASF81
     /tmp/ccjfV70Y.s:3905   .debug_str:00000000000006d3 .LASF188
     /tmp/ccjfV70Y.s:3823   .debug_str:00000000000003f0 .LASF82
     /tmp/ccjfV70Y.s:4071   .debug_str:0000000000000cd6 .LASF84
     /tmp/ccjfV70Y.s:3865   .debug_str:0000000000000569 .LASF83
     /tmp/ccjfV70Y.s:3859   .debug_str:000000000000052f .LASF85
     /tmp/ccjfV70Y.s:3761   .debug_str:00000000000001c0 .LASF157
     /tmp/ccjfV70Y.s:3883   .debug_str:0000000000000621 .LASF159
     /tmp/ccjfV70Y.s:3833   .debug_str:000000000000044a .LASF86
     /tmp/ccjfV70Y.s:3869   .debug_str:0000000000000585 .LASF87
     /tmp/ccjfV70Y.s:3975   .debug_str:0000000000000910 .LASF88
     /tmp/ccjfV70Y.s:3731   .debug_str:00000000000000d2 .LASF89
     /tmp/ccjfV70Y.s:3709   .debug_str:000000000000002e .LASF90
     /tmp/ccjfV70Y.s:3837   .debug_str:000000000000046a .LASF91
     /tmp/ccjfV70Y.s:4069   .debug_str:0000000000000cd0 .LASF92
     /tmp/ccjfV70Y.s:4023   .debug_str:0000000000000b54 .LASF93
     /tmp/ccjfV70Y.s:3997   .debug_str:00000000000009c3 .LASF94
     /tmp/ccjfV70Y.s:4001   .debug_str:00000000000009d4 .LASF95
     /tmp/ccjfV70Y.s:3811   .debug_str:0000000000000363 .LASF96
     /tmp/ccjfV70Y.s:3751   .debug_str:0000000000000172 .LASF97
     /tmp/ccjfV70Y.s:3723   .debug_str:00000000000000a9 .LASF98
     /tmp/ccjfV70Y.s:3937   .debug_str:00000000000007ee .LASF99
     /tmp/ccjfV70Y.s:3973   .debug_str:000000000000090b .LASF100
     /tmp/ccjfV70Y.s:3861   .debug_str:0000000000000558 .LASF101
     /tmp/ccjfV70Y.s:3725   .debug_str:00000000000000af .LASF102
     /tmp/ccjfV70Y.s:3917   .debug_str:000000000000072d .LASF103
     /tmp/ccjfV70Y.s:3705   .debug_str:0000000000000016 .LASF105
     /tmp/ccjfV70Y.s:3719   .debug_str:0000000000000067 .LASF106
     /tmp/ccjfV70Y.s:4063   .debug_str:0000000000000c9f .LASF189
     /tmp/ccjfV70Y.s:3955   .debug_str:0000000000000871 .LASF107
     /tmp/ccjfV70Y.s:3887   .debug_str:000000000000064b .LASF108
     /tmp/ccjfV70Y.s:3737   .debug_str:00000000000000fc .LASF109
     /tmp/ccjfV70Y.s:4017   .debug_str:0000000000000a5e .LASF110
     /tmp/ccjfV70Y.s:3935   .debug_str:00000000000007e9 .LASF111
     /tmp/ccjfV70Y.s:3727   .debug_str:00000000000000bb .LASF112
     /tmp/ccjfV70Y.s:4035   .debug_str:0000000000000bac .LASF113
     /tmp/ccjfV70Y.s:3819   .debug_str:00000000000003c7 .LASF114
     /tmp/ccjfV70Y.s:3703   .debug_str:0000000000000000 .LASF115
     /tmp/ccjfV70Y.s:3881   .debug_str:00000000000005fe .LASF116
     /tmp/ccjfV70Y.s:3967   .debug_str:00000000000008d2 .LASF117
     /tmp/ccjfV70Y.s:3773   .debug_str:0000000000000226 .LASF118
     /tmp/ccjfV70Y.s:3825   .debug_str:00000000000003fc .LASF119
     /tmp/ccjfV70Y.s:4053   .debug_str:0000000000000c54 .LASF120
     /tmp/ccjfV70Y.s:3809   .debug_str:0000000000000358 .LASF121
     /tmp/ccjfV70Y.s:3817   .debug_str:00000000000003af .LASF122
     /tmp/ccjfV70Y.s:4033   .debug_str:0000000000000ba3 .LASF123
     /tmp/ccjfV70Y.s:4025   .debug_str:0000000000000b5c .LASF124
     /tmp/ccjfV70Y.s:3943   .debug_str:0000000000000820 .LASF125
     /tmp/ccjfV70Y.s:4005   .debug_str:00000000000009eb .LASF126
     /tmp/ccjfV70Y.s:3923   .debug_str:0000000000000775 .LASF127
     /tmp/ccjfV70Y.s:3925   .debug_str:000000000000077c .LASF128
     /tmp/ccjfV70Y.s:3899   .debug_str:00000000000006ae .LASF129
     /tmp/ccjfV70Y.s:3849   .debug_str:00000000000004e3 .LASF130
     /tmp/ccjfV70Y.s:4055   .debug_str:0000000000000c6e .LASF131
     /tmp/ccjfV70Y.s:3987   .debug_str:0000000000000970 .LASF132
     /tmp/ccjfV70Y.s:3893   .debug_str:0000000000000691 .LASF133
GAS LISTING /tmp/ccjfV70Y.s 			page 27


     /tmp/ccjfV70Y.s:3901   .debug_str:00000000000006b5 .LASF134
     /tmp/ccjfV70Y.s:3863   .debug_str:0000000000000561 .LASF135
     /tmp/ccjfV70Y.s:3927   .debug_str:000000000000078f .LASF136
     /tmp/ccjfV70Y.s:4081   .debug_str:0000000000000d28 .LASF137
     /tmp/ccjfV70Y.s:3851   .debug_str:00000000000004f6 .LASF138
     /tmp/ccjfV70Y.s:3985   .debug_str:0000000000000969 .LASF139
     /tmp/ccjfV70Y.s:3963   .debug_str:00000000000008b8 .LASF140
     /tmp/ccjfV70Y.s:3965   .debug_str:00000000000008cb .LASF141
     /tmp/ccjfV70Y.s:3767   .debug_str:00000000000001ed .LASF142
     /tmp/ccjfV70Y.s:3765   .debug_str:00000000000001e7 .LASF143
     /tmp/ccjfV70Y.s:3717   .debug_str:0000000000000055 .LASF144
     /tmp/ccjfV70Y.s:3827   .debug_str:0000000000000409 .LASF145
     /tmp/ccjfV70Y.s:3757   .debug_str:000000000000019d .LASF146
     /tmp/ccjfV70Y.s:3715   .debug_str:000000000000004a .LASF147
     /tmp/ccjfV70Y.s:3953   .debug_str:0000000000000859 .LASF148
     /tmp/ccjfV70Y.s:3945   .debug_str:0000000000000829 .LASF149
     /tmp/ccjfV70Y.s:3763   .debug_str:00000000000001cf .LASF150
     /tmp/ccjfV70Y.s:4051   .debug_str:0000000000000c4a .LASF151
     /tmp/ccjfV70Y.s:4061   .debug_str:0000000000000c89 .LASF152
     /tmp/ccjfV70Y.s:4045   .debug_str:0000000000000c0b .LASF153
     /tmp/ccjfV70Y.s:3877   .debug_str:00000000000005d1 .LASF154
     /tmp/ccjfV70Y.s:4031   .debug_str:0000000000000b94 .LASF155
     /tmp/ccjfV70Y.s:3803   .debug_str:0000000000000320 .LASF156
     /tmp/ccjfV70Y.s:3913   .debug_str:00000000000006fc .LASF158
     /tmp/ccjfV70Y.s:3843   .debug_str:0000000000000491 .LASF160
     /tmp/ccjfV70Y.s:3729   .debug_str:00000000000000c1 .LASF161
     /tmp/ccjfV70Y.s:3807   .debug_str:000000000000034a .LASF162
     /tmp/ccjfV70Y.s:4021   .debug_str:0000000000000b37 .LASF163
     /tmp/ccjfV70Y.s:4007   .debug_str:0000000000000a00 .LASF164
     /tmp/ccjfV70Y.s:4079   .debug_str:0000000000000d1c .LASF165
     /tmp/ccjfV70Y.s:10     .text:0000000000000000 .LFB53
     /tmp/ccjfV70Y.s:47     .text:0000000000000034 .LFE53
     /tmp/ccjfV70Y.s:3755   .debug_str:0000000000000197 .LASF166
     /tmp/ccjfV70Y.s:3441   .debug_loc:0000000000000000 .LLST0
     /tmp/ccjfV70Y.s:3455   .debug_loc:0000000000000039 .LLST1
     /tmp/ccjfV70Y.s:34     .text:0000000000000020 .LVL2
     /tmp/ccjfV70Y.s:269    .text:0000000000000178 .LFB52
     /tmp/ccjfV70Y.s:313    .text:00000000000001e0 .LFE52
     /tmp/ccjfV70Y.s:298    .text:00000000000001c0 .LVL19
     /tmp/ccjfV70Y.s:172    .text:00000000000000f0 .LFB51
     /tmp/ccjfV70Y.s:258    .text:0000000000000178 .LFE51
     /tmp/ccjfV70Y.s:3789   .debug_str:00000000000002be .LASF173
     /tmp/ccjfV70Y.s:3707   .debug_str:0000000000000024 .LASF167
     /tmp/ccjfV70Y.s:3469   .debug_loc:0000000000000072 .LLST6
     /tmp/ccjfV70Y.s:4067   .debug_str:0000000000000cc4 .LASF168
     /tmp/ccjfV70Y.s:3485   .debug_loc:00000000000000bc .LLST7
     /tmp/ccjfV70Y.s:53     .text:0000000000000034 .LFB50
     /tmp/ccjfV70Y.s:106    .text:0000000000000098 .LFE50
     /tmp/ccjfV70Y.s:3506   .debug_loc:000000000000011a .LLST2
     /tmp/ccjfV70Y.s:76     .text:0000000000000060 .LVL4
     /tmp/ccjfV70Y.s:79     .text:0000000000000068 .LVL5
     /tmp/ccjfV70Y.s:90     .text:0000000000000080 .LVL6
     /tmp/ccjfV70Y.s:112    .text:0000000000000098 .LFB49
     /tmp/ccjfV70Y.s:166    .text:00000000000000f0 .LFE49
     /tmp/ccjfV70Y.s:3911   .debug_str:00000000000006f7 .LASF169
     /tmp/ccjfV70Y.s:3513   .debug_loc:000000000000013d .LLST3
     /tmp/ccjfV70Y.s:131    .text:00000000000000b8 .LBB10
GAS LISTING /tmp/ccjfV70Y.s 			page 28


     /tmp/ccjfV70Y.s:139    .text:00000000000000bc .LBE10
     /tmp/ccjfV70Y.s:3527   .debug_loc:0000000000000176 .LLST4
     /tmp/ccjfV70Y.s:3534   .debug_loc:0000000000000199 .LLST5
     /tmp/ccjfV70Y.s:143    .text:00000000000000c4 .LVL11
     /tmp/ccjfV70Y.s:147    .text:00000000000000d0 .LVL12
     /tmp/ccjfV70Y.s:151    .text:00000000000000d8 .LVL13
     /tmp/ccjfV70Y.s:600    .text:000000000000039c .LFB48
     /tmp/ccjfV70Y.s:637    .text:00000000000003e0 .LFE48
     /tmp/ccjfV70Y.s:614    .text:00000000000003b4 .LVL48
     /tmp/ccjfV70Y.s:626    .text:00000000000003d0 .LVL50
     /tmp/ccjfV70Y.s:537    .text:0000000000000360 .LFE47
     /tmp/ccjfV70Y.s:3541   .debug_loc:00000000000001bc .LLST14
     /tmp/ccjfV70Y.s:475    .text:00000000000002f8 .LBB12
     /tmp/ccjfV70Y.s:482    .text:00000000000002fc .LBE12
     /tmp/ccjfV70Y.s:3552   .debug_loc:00000000000001f2 .LLST15
     /tmp/ccjfV70Y.s:521    .text:0000000000000344 .LBB14
     /tmp/ccjfV70Y.s:535    .text:0000000000000360 .LBE14
     /tmp/ccjfV70Y.s:526    .text:000000000000034c .LVL43
     /tmp/ccjfV70Y.s:531    .text:000000000000035c .LVL44
     /tmp/ccjfV70Y.s:467    .text:00000000000002ec .LVL34
     /tmp/ccjfV70Y.s:470    .text:00000000000002f4 .LVL35
     /tmp/ccjfV70Y.s:488    .text:0000000000000308 .LVL38
     /tmp/ccjfV70Y.s:492    .text:0000000000000314 .LVL39
     /tmp/ccjfV70Y.s:500    .text:000000000000032c .LVL40
     /tmp/ccjfV70Y.s:555    .text:0000000000000360 .LFB46
     /tmp/ccjfV70Y.s:594    .text:000000000000039c .LFE46
     /tmp/ccjfV70Y.s:568    .text:0000000000000370 .LBB16
     /tmp/ccjfV70Y.s:577    .text:0000000000000380 .LBE16
     /tmp/ccjfV70Y.s:3559   .debug_loc:0000000000000215 .LLST16
     /tmp/ccjfV70Y.s:3567   .debug_loc:0000000000000239 .LLST17
     /tmp/ccjfV70Y.s:581    .text:0000000000000388 .LVL47
     /tmp/ccjfV70Y.s:319    .text:00000000000001e0 .LFB45
     /tmp/ccjfV70Y.s:435    .text:00000000000002c0 .LFE45
     /tmp/ccjfV70Y.s:4059   .debug_str:0000000000000c82 .LASF170
     /tmp/ccjfV70Y.s:3575   .debug_loc:0000000000000264 .LLST8
     /tmp/ccjfV70Y.s:4011   .debug_str:0000000000000a31 .LASF171
     /tmp/ccjfV70Y.s:3597   .debug_loc:00000000000002c3 .LLST9
     /tmp/ccjfV70Y.s:3619   .debug_loc:0000000000000322 .LLST10
     /tmp/ccjfV70Y.s:3641   .debug_loc:0000000000000381 .LLST11
     /tmp/ccjfV70Y.s:3663   .debug_loc:00000000000003e0 .LLST12
     /tmp/ccjfV70Y.s:3677   .debug_loc:0000000000000419 .LLST13
     /tmp/ccjfV70Y.s:351    .text:0000000000000224 .LVL21
     /tmp/ccjfV70Y.s:355    .text:0000000000000230 .LVL22
     /tmp/ccjfV70Y.s:367    .text:0000000000000250 .LVL24
     /tmp/ccjfV70Y.s:424    .text:00000000000002a8 .LVL31
     /tmp/ccjfV70Y.s:428    .text:00000000000002b4 .LVL32
     /tmp/ccjfV70Y.s:3747   .debug_str:0000000000000159 .LASF172
     /tmp/ccjfV70Y.s:3857   .debug_str:0000000000000523 .LASF174
     /tmp/ccjfV70Y.s:3791   .debug_str:00000000000002c3 .LASF176
     /tmp/ccjfV70Y.s:4039   .debug_str:0000000000000bce .LASF175
     /tmp/ccjfV70Y.s:3777   .debug_str:0000000000000261 .LASF177
     /tmp/ccjfV70Y.s:3795   .debug_str:00000000000002d5 .LASF178
     /tmp/ccjfV70Y.s:3735   .debug_str:00000000000000ec .LASF179
     /tmp/ccjfV70Y.s:4047   .debug_str:0000000000000c15 .LASF180
     /tmp/ccjfV70Y.s:3759   .debug_str:00000000000001af .LASF181
     /tmp/ccjfV70Y.s:14     .text:0000000000000000 .LVL0
     /tmp/ccjfV70Y.s:19     .text:0000000000000004 .LVL1
GAS LISTING /tmp/ccjfV70Y.s 			page 29


     /tmp/ccjfV70Y.s:175    .text:00000000000000f0 .LVL14
     /tmp/ccjfV70Y.s:229    .text:0000000000000150 .LVL16
     /tmp/ccjfV70Y.s:250    .text:0000000000000170 .LVL17
     /tmp/ccjfV70Y.s:201    .text:0000000000000120 .LVL15
     /tmp/ccjfV70Y.s:255    .text:0000000000000174 .LVL18
     /tmp/ccjfV70Y.s:72     .text:0000000000000058 .LVL3
     /tmp/ccjfV70Y.s:101    .text:0000000000000090 .LVL7
     /tmp/ccjfV70Y.s:115    .text:0000000000000098 .LVL8
     /tmp/ccjfV70Y.s:130    .text:00000000000000b8 .LVL9
     /tmp/ccjfV70Y.s:137    .text:00000000000000bc .LVL10
     /tmp/ccjfV70Y.s:462    .text:00000000000002e4 .LVL33
     /tmp/ccjfV70Y.s:511    .text:0000000000000338 .LVL41
     /tmp/ccjfV70Y.s:517    .text:0000000000000344 .LVL42
     /tmp/ccjfV70Y.s:474    .text:00000000000002f8 .LVL36
     /tmp/ccjfV70Y.s:480    .text:00000000000002fc .LVL37
     /tmp/ccjfV70Y.s:567    .text:0000000000000370 .LVL45
     /tmp/ccjfV70Y.s:575    .text:0000000000000380 .LVL46
     /tmp/ccjfV70Y.s:322    .text:00000000000001e0 .LVL20
     /tmp/ccjfV70Y.s:403    .text:0000000000000288 .LVL26
     /tmp/ccjfV70Y.s:418    .text:00000000000002a0 .LVL30
     /tmp/ccjfV70Y.s:406    .text:000000000000028c .LVL27
     /tmp/ccjfV70Y.s:411    .text:0000000000000294 .LVL28
     /tmp/ccjfV70Y.s:414    .text:0000000000000298 .LVL29
     /tmp/ccjfV70Y.s:357    .text:0000000000000234 .LVL23
     /tmp/ccjfV70Y.s:400    .text:0000000000000284 .LVL25
     /tmp/ccjfV70Y.s:676    .debug_info:0000000000000000 .Ldebug_info0
     /tmp/ccjfV70Y.s:540    .gcc_except_table:0000000000000000 .LLSDA47

UNDEFINED SYMBOLS
_Z5kfreePKv
_ZN9Scheduler11getInstanceEv
_ZN9Scheduler3getEv
_ZN3TCB14context_switchEPNS_7ContextES1_
_ZN2TS11getInstanceEv
_ZN2TS3putEP3TCB
_Z17kmem_cache_createPKcmPFvPvES3_
_Z16kmem_cache_allocP12kmem_cache_s
_ZN9Scheduler3putEP3TCB
_Z15kmem_cache_freeP12kmem_cache_sPv
__gxx_personality_v0
_ZN5Riscv10popSppSpieEv
