GAS LISTING /tmp/ccV7pxxx.s 			page 1


   1              		.file	"TCB.cpp"
   2              		.option pic
   3              		.option norelax
   4              		.text
   5              	.Ltext0:
   6              		.align	2
   7              		.globl	_ZN3TCB15thread_dispatchEv
   9              	_ZN3TCB15thread_dispatchEv:
  10              	.LFB58:
  11              		.file 1 "src/TCB.cpp"
   1:src/TCB.cpp   **** #include "../h/TCB.hpp"
   2:src/TCB.cpp   **** #include "../h/riscv.hpp"
   3:src/TCB.cpp   **** 
   4:src/TCB.cpp   **** TCB* TCB::running = nullptr;
   5:src/TCB.cpp   **** TCB* TCB::idle = nullptr;
   6:src/TCB.cpp   **** uint64 TCB::time_slice_counter = 0;
   7:src/TCB.cpp   **** uint64 TCB::ID = 0;
   8:src/TCB.cpp   **** 
   9:src/TCB.cpp   **** int TCB::thread_create(TCB **handle,
  10:src/TCB.cpp   ****                        void (*start_routine)(void *),
  11:src/TCB.cpp   ****                        void *arg,
  12:src/TCB.cpp   ****                        void* stack_space,
  13:src/TCB.cpp   ****                        bool flag
  14:src/TCB.cpp   **** ) {
  15:src/TCB.cpp   ****     size_t size_of_block_for_tcb = (sizeof(TCB) + MEM_BLOCK_SIZE - 1) / MEM_BLOCK_SIZE;
  16:src/TCB.cpp   ****     TCB* tmp = (TCB*)MemoryAllocator::getInstance().memory_alloc(size_of_block_for_tcb);
  17:src/TCB.cpp   ****     if(tmp)tmp->TCB_setup(start_routine, arg, stack_space, flag);
  18:src/TCB.cpp   **** //    TCB* tmp = (TCB*)new TCB(start_routine, arg, stack_space, flag);
  19:src/TCB.cpp   ****     *handle = tmp;
  20:src/TCB.cpp   ****     if (tmp && start_routine != nullptr && tmp != TCB::idle && flag) {
  21:src/TCB.cpp   ****         Scheduler::getInstance().put(tmp);
  22:src/TCB.cpp   ****     }
  23:src/TCB.cpp   ****     if(*handle) return 0;
  24:src/TCB.cpp   ****     else return -1;
  25:src/TCB.cpp   **** }
  26:src/TCB.cpp   **** 
  27:src/TCB.cpp   **** int TCB::thread_exit() {
  28:src/TCB.cpp   ****     running->set_finished(true);
  29:src/TCB.cpp   ****     TCB::thread_dispatch();
  30:src/TCB.cpp   ****     // do ovog dela nece nikad doci jer thread_dispatch nece nit koju gasimo staviti u scheduler
  31:src/TCB.cpp   ****     return -1;
  32:src/TCB.cpp   **** }
  33:src/TCB.cpp   **** 
  34:src/TCB.cpp   **** void TCB::thread_dispatch() {
  12              		.loc 1 34 29
  13              		.cfi_startproc
  14              		.cfi_personality 0x9b,DW.ref.__gxx_personality_v0
  15              		.cfi_lsda 0x1b,.LLSDA58
  16 0000 130101FE 		addi	sp,sp,-32
  17              		.cfi_def_cfa_offset 32
  18 0004 233C1100 		sd	ra,24(sp)
  19 0008 23388100 		sd	s0,16(sp)
  20 000c 23349100 		sd	s1,8(sp)
  21              		.cfi_offset 1, -8
  22              		.cfi_offset 8, -16
  23              		.cfi_offset 9, -24
  24 0010 13040102 		addi	s0,sp,32
GAS LISTING /tmp/ccV7pxxx.s 			page 2


  25              		.cfi_def_cfa 8, 0
  35:src/TCB.cpp   **** //    Scheduler::printScheduler();
  36:src/TCB.cpp   ****     TCB * old = running;
  26              		.loc 1 36 5
  27              		.loc 1 36 11 is_stmt 0
  28 0014 97040000 		ld	s1,.LANCHOR0
  28      83B40400 
  29              	.LVL0:
  37:src/TCB.cpp   ****     running = Scheduler::getInstance().get();
  30              		.loc 1 37 5 is_stmt 1
  31              	.LBB56:
  32              	.LBB57:
  33              		.file 2 "src/../h/../h/scheduler.hpp"
   1:src/../h/../h/scheduler.hpp **** #ifndef _scheduler_hpp_
   2:src/../h/../h/scheduler.hpp **** #define _scheduler_hpp_
   3:src/../h/../h/scheduler.hpp **** 
   4:src/../h/../h/scheduler.hpp **** //#include "../test/printing.hpp"
   5:src/../h/../h/scheduler.hpp **** 
   6:src/../h/../h/scheduler.hpp **** class TCB;
   7:src/../h/../h/scheduler.hpp **** 
   8:src/../h/../h/scheduler.hpp **** class Scheduler{
   9:src/../h/../h/scheduler.hpp **** public:
  10:src/../h/../h/scheduler.hpp **** 
  11:src/../h/../h/scheduler.hpp ****     static Scheduler& getInstance(){
  12:src/../h/../h/scheduler.hpp ****         static Scheduler instance;
  34              		.loc 2 12 9
  35              		.loc 2 12 26 is_stmt 0
  36 001c 97070000 		lbu	a5,_ZGVZN9Scheduler11getInstanceEvE8instance
  36      83C70700 
  37 0024 63940702 		bnez	a5,.L2
  38              	.LVL1:
  39              	.LBB58:
  40              	.LBB59:
  13:src/../h/../h/scheduler.hpp ****         return instance;
  14:src/../h/../h/scheduler.hpp ****     }
  15:src/../h/../h/scheduler.hpp **** 
  16:src/../h/../h/scheduler.hpp ****     Scheduler(const Scheduler&) = delete;
  17:src/../h/../h/scheduler.hpp ****     void operator=(Scheduler const&) = delete;
  18:src/../h/../h/scheduler.hpp **** 
  19:src/../h/../h/scheduler.hpp ****     TCB* get();
  20:src/../h/../h/scheduler.hpp **** 
  21:src/../h/../h/scheduler.hpp ****     void put(TCB* tcb);
  22:src/../h/../h/scheduler.hpp **** 
  23:src/../h/../h/scheduler.hpp **** //    static void printScheduler();
  24:src/../h/../h/scheduler.hpp **** 
  25:src/../h/../h/scheduler.hpp **** private:
  26:src/../h/../h/scheduler.hpp **** 
  27:src/../h/../h/scheduler.hpp ****     Scheduler(){
  28:src/../h/../h/scheduler.hpp ****         head = nullptr;
  41              		.loc 2 28 9 is_stmt 1
  42              		.loc 2 28 14 is_stmt 0
  43 0028 97070000 		la	a5,_ZN9Scheduler4headE
  43      83B70700 
  44 0030 23B00700 		sd	zero,0(a5)
  29:src/../h/../h/scheduler.hpp ****         tail = nullptr;
  45              		.loc 2 29 9 is_stmt 1
  46              		.loc 2 29 14 is_stmt 0
GAS LISTING /tmp/ccV7pxxx.s 			page 3


  47 0034 97070000 		la	a5,_ZN9Scheduler4tailE
  47      83B70700 
  48 003c 23B00700 		sd	zero,0(a5)
  49              	.LBE59:
  50              	.LBE58:
  12:src/../h/../h/scheduler.hpp ****         return instance;
  51              		.loc 2 12 26
  52 0040 93071000 		li	a5,1
  53 0044 17070000 		sb	a5,_ZGVZN9Scheduler11getInstanceEvE8instance,a4
  53      2300F700 
  54              	.LVL2:
  55              	.L2:
  13:src/../h/../h/scheduler.hpp ****         return instance;
  56              		.loc 2 13 9 is_stmt 1
  57              	.LBE57:
  58              	.LBE56:
  59              		.loc 1 37 43 is_stmt 0
  60 004c 17050000 		lla	a0,_ZZN9Scheduler11getInstanceEvE8instance
  60      13050500 
  61              	.LEHB0:
  62 0054 97000000 		call	_ZN9Scheduler3getEv@plt
  62      E7800000 
  63              	.LVL3:
  64              		.loc 1 37 13
  65 005c 97070000 		sd	a0,.LANCHOR0,a5
  65      23B0A700 
  38:src/TCB.cpp   ****     if (!old->is_finished()) {
  66              		.loc 1 38 5 is_stmt 1
  67              	.LVL4:
  68              	.LBB60:
  69              	.LBB61:
  70              		.file 3 "src/../h/TCB.hpp"
   1:src/../h/TCB.hpp **** #ifndef _thread_hpp_
   2:src/../h/TCB.hpp **** #define _thread_hpp_
   3:src/../h/TCB.hpp **** 
   4:src/../h/TCB.hpp **** #include "../lib/hw.h"
   5:src/../h/TCB.hpp **** #include "../h/scheduler.hpp"
   6:src/../h/TCB.hpp **** #include "../h/MemoryAllocator.hpp"
   7:src/../h/TCB.hpp **** #include "../h/TS.hpp"
   8:src/../h/TCB.hpp **** #include "../h/periodic_threads.hpp"
   9:src/../h/TCB.hpp **** 
  10:src/../h/TCB.hpp **** class TCB{
  11:src/../h/TCB.hpp **** public:
  12:src/../h/TCB.hpp **** 
  13:src/../h/TCB.hpp ****     ~TCB(){
  14:src/../h/TCB.hpp ****         MemoryAllocator::getInstance().memory_free((void*)stack);
  15:src/../h/TCB.hpp ****     }
  16:src/../h/TCB.hpp **** 
  17:src/../h/TCB.hpp ****     using Body = void (*)(void*);
  18:src/../h/TCB.hpp **** 
  19:src/../h/TCB.hpp ****     // trazene
  20:src/../h/TCB.hpp ****     static int thread_create(
  21:src/../h/TCB.hpp ****         TCB** handle,
  22:src/../h/TCB.hpp ****         void(*start_routine)(void*),
  23:src/../h/TCB.hpp ****         void* arg,
  24:src/../h/TCB.hpp ****         void* stack_space,
  25:src/../h/TCB.hpp ****         bool flag
GAS LISTING /tmp/ccV7pxxx.s 			page 4


  26:src/../h/TCB.hpp ****     );
  27:src/../h/TCB.hpp **** 
  28:src/../h/TCB.hpp ****     static int thread_exit();
  29:src/../h/TCB.hpp **** 
  30:src/../h/TCB.hpp ****     static void thread_dispatch();
  31:src/../h/TCB.hpp **** 
  32:src/../h/TCB.hpp ****     static int time_sleep(uint64 time);
  33:src/../h/TCB.hpp **** 
  34:src/../h/TCB.hpp ****     // getteri i setteri
  35:src/../h/TCB.hpp ****     void set_finished(bool f){ this->finished = f; }
  36:src/../h/TCB.hpp **** 
  37:src/../h/TCB.hpp ****     bool is_finished()const{return finished;}
  71              		.loc 3 37 29
  72              		.loc 3 37 36 is_stmt 0
  73 0064 83C78402 		lbu	a5,40(s1)
  74              	.LVL5:
  75              	.LBE61:
  76              	.LBE60:
  77              		.loc 1 38 5
  78 0068 639A0706 		bnez	a5,.L3
  39:src/TCB.cpp   ****         Scheduler::getInstance().put(old);
  79              		.loc 1 39 9 is_stmt 1
  80              	.LBB62:
  81              	.LBB63:
  12:src/../h/../h/scheduler.hpp ****         return instance;
  82              		.loc 2 12 9
  12:src/../h/../h/scheduler.hpp ****         return instance;
  83              		.loc 2 12 26 is_stmt 0
  84 006c 97070000 		lbu	a5,_ZGVZN9Scheduler11getInstanceEvE8instance
  84      83C70700 
  85 0074 63940702 		bnez	a5,.L4
  86              	.LVL6:
  87              	.LBB64:
  88              	.LBB65:
  28:src/../h/../h/scheduler.hpp ****         tail = nullptr;
  89              		.loc 2 28 9 is_stmt 1
  28:src/../h/../h/scheduler.hpp ****         tail = nullptr;
  90              		.loc 2 28 14 is_stmt 0
  91 0078 97070000 		la	a5,_ZN9Scheduler4headE
  91      83B70700 
  92 0080 23B00700 		sd	zero,0(a5)
  93              		.loc 2 29 9 is_stmt 1
  94              		.loc 2 29 14 is_stmt 0
  95 0084 97070000 		la	a5,_ZN9Scheduler4tailE
  95      83B70700 
  96 008c 23B00700 		sd	zero,0(a5)
  97              	.LBE65:
  98              	.LBE64:
  12:src/../h/../h/scheduler.hpp ****         return instance;
  99              		.loc 2 12 26
 100 0090 93071000 		li	a5,1
 101 0094 17070000 		sb	a5,_ZGVZN9Scheduler11getInstanceEvE8instance,a4
 101      2300F700 
 102              	.LVL7:
 103              	.L4:
  13:src/../h/../h/scheduler.hpp ****     }
 104              		.loc 2 13 9 is_stmt 1
GAS LISTING /tmp/ccV7pxxx.s 			page 5


 105              	.LBE63:
 106              	.LBE62:
 107              		.loc 1 39 37 is_stmt 0
 108 009c 93850400 		mv	a1,s1
 109 00a0 17050000 		lla	a0,_ZZN9Scheduler11getInstanceEvE8instance
 109      13050500 
 110 00a8 97000000 		call	_ZN9Scheduler3putEP3TCB@plt
 110      E7800000 
 111              	.LVL8:
 112              	.L5:
  40:src/TCB.cpp   ****     }
  41:src/TCB.cpp   ****     else{
  42:src/TCB.cpp   ****         TCB::operator delete(old);
  43:src/TCB.cpp   ****     }
  44:src/TCB.cpp   **** //    TCB::time_slice_counter = 0;
  45:src/TCB.cpp   ****     TCB::context_switch(&old->context, &running->context);
 113              		.loc 1 45 5 is_stmt 1
 114              		.loc 1 45 24 is_stmt 0
 115 00b0 97050000 		ld	a1,.LANCHOR0
 115      83B50500 
 116 00b8 93858501 		addi	a1,a1,24
 117 00bc 13858401 		addi	a0,s1,24
 118 00c0 97000000 		call	_ZN3TCB14context_switchEPNS_7ContextES1_@plt
 118      E7800000 
 119              	.LVL9:
 120              	.LEHE0:
  46:src/TCB.cpp   **** }
 121              		.loc 1 46 1
 122 00c8 83308101 		ld	ra,24(sp)
 123              		.cfi_remember_state
 124              		.cfi_restore 1
 125 00cc 03340101 		ld	s0,16(sp)
 126              		.cfi_restore 8
 127              		.cfi_def_cfa 2, 32
 128 00d0 83348100 		ld	s1,8(sp)
 129              		.cfi_restore 9
 130              	.LVL10:
 131 00d4 13010102 		addi	sp,sp,32
 132              		.cfi_def_cfa_offset 0
 133 00d8 67800000 		jr	ra
 134              	.LVL11:
 135              	.L3:
 136              		.cfi_restore_state
  42:src/TCB.cpp   ****     }
 137              		.loc 1 42 9 is_stmt 1
 138              	.LBB66:
 139              	.LBB67:
  38:src/../h/TCB.hpp **** 
  39:src/../h/TCB.hpp ****     void set_next_scheduler(TCB* nextThread){ next_scheduler = nextThread; }
  40:src/../h/TCB.hpp **** 
  41:src/../h/TCB.hpp ****     TCB* get_next_scheduler()const{ return next_scheduler; }
  42:src/../h/TCB.hpp **** 
  43:src/../h/TCB.hpp ****     void set_next_sleep(TCB* nextThread){ next_sleep = nextThread; }
  44:src/../h/TCB.hpp **** 
  45:src/../h/TCB.hpp ****     TCB* get_next_sleep()const{ return next_sleep; }
  46:src/../h/TCB.hpp **** 
  47:src/../h/TCB.hpp ****     void set_next_blocked(TCB* nextThread){ next_blocked = nextThread; }
GAS LISTING /tmp/ccV7pxxx.s 			page 6


  48:src/../h/TCB.hpp **** 
  49:src/../h/TCB.hpp ****     TCB* get_next_blocked()const{ return next_blocked; }
  50:src/../h/TCB.hpp **** 
  51:src/../h/TCB.hpp ****     uint64 get_thread_id()const{ return id; }
  52:src/../h/TCB.hpp **** 
  53:src/../h/TCB.hpp ****     uint64 get_time_sleep()const{ return sleep; }
  54:src/../h/TCB.hpp **** 
  55:src/../h/TCB.hpp ****     void set_time_sleep(uint64 new_time){ sleep = new_time; }
  56:src/../h/TCB.hpp **** 
  57:src/../h/TCB.hpp ****     uint64 get_time_slice()const{ return time_slice; }
  58:src/../h/TCB.hpp **** 
  59:src/../h/TCB.hpp ****     void set_periodic(bool b){
  60:src/../h/TCB.hpp ****         periodic = b;
  61:src/../h/TCB.hpp ****         periodicThread::getInstance().put(this);
  62:src/../h/TCB.hpp ****     }
  63:src/../h/TCB.hpp **** 
  64:src/../h/TCB.hpp ****     void set_next_period(TCB* tcb){ next_period = tcb; }
  65:src/../h/TCB.hpp **** 
  66:src/../h/TCB.hpp ****     TCB* get_next_period()const{return next_period;}
  67:src/../h/TCB.hpp **** 
  68:src/../h/TCB.hpp ****     static void yield();
  69:src/../h/TCB.hpp **** 
  70:src/../h/TCB.hpp ****     // operatori
  71:src/../h/TCB.hpp ****     void *operator new(uint64 n){
  72:src/../h/TCB.hpp ****         uint64 ssize = (n + MEM_BLOCK_SIZE - 1) / MEM_BLOCK_SIZE;
  73:src/../h/TCB.hpp ****         return MemoryAllocator::getInstance().memory_alloc(ssize);
  74:src/../h/TCB.hpp ****     }
  75:src/../h/TCB.hpp **** 
  76:src/../h/TCB.hpp ****     void *operator new[](uint64 n){
  77:src/../h/TCB.hpp ****         uint64 ssize = (n + MEM_BLOCK_SIZE - 1) / MEM_BLOCK_SIZE;
  78:src/../h/TCB.hpp ****         return MemoryAllocator::getInstance().memory_alloc(ssize);
  79:src/../h/TCB.hpp ****     }
  80:src/../h/TCB.hpp **** 
  81:src/../h/TCB.hpp ****     void operator delete(void* p)noexcept{
  82:src/../h/TCB.hpp ****         MemoryAllocator::getInstance().memory_free(p);
 140              		.loc 3 82 9
 141              	.LBB68:
 142              	.LBB69:
 143              		.file 4 "src/../h/../h/MemoryAllocator.hpp"
   1:src/../h/../h/MemoryAllocator.hpp **** #ifndef _memory_allocator_hpp_
   2:src/../h/../h/MemoryAllocator.hpp **** #define _memory_allocator_hpp_
   3:src/../h/../h/MemoryAllocator.hpp **** 
   4:src/../h/../h/MemoryAllocator.hpp **** #include "../lib/hw.h"
   5:src/../h/../h/MemoryAllocator.hpp **** 
   6:src/../h/../h/MemoryAllocator.hpp **** class MemoryAllocator{
   7:src/../h/../h/MemoryAllocator.hpp **** public:
   8:src/../h/../h/MemoryAllocator.hpp **** 
   9:src/../h/../h/MemoryAllocator.hpp ****     // dodaj instancu
  10:src/../h/../h/MemoryAllocator.hpp ****     static MemoryAllocator& getInstance(){
  11:src/../h/../h/MemoryAllocator.hpp ****         static MemoryAllocator instance;
 144              		.loc 4 11 9
 145              		.loc 4 11 32 is_stmt 0
 146 00dc 97070000 		lbu	a5,_ZGVZN15MemoryAllocator11getInstanceEvE8instance
 146      83C70700 
 147 00e4 638E0700 		beqz	a5,.L9
 148              	.L6:
  12:src/../h/../h/MemoryAllocator.hpp ****         return instance;
GAS LISTING /tmp/ccV7pxxx.s 			page 7


 149              		.loc 4 12 9 is_stmt 1
 150              	.LBE69:
 151              	.LBE68:
 152              		.loc 3 82 51 is_stmt 0
 153 00e8 93850400 		mv	a1,s1
 154 00ec 17050000 		lla	a0,_ZZN15MemoryAllocator11getInstanceEvE8instance
 154      13050500 
 155 00f4 97000000 		call	_ZN15MemoryAllocator11memory_freeEPv@plt
 155      E7800000 
 156              	.LVL12:
  83:src/../h/TCB.hpp ****     }
 157              		.loc 3 83 5
 158 00fc 6FF05FFB 		j	.L5
 159              	.L9:
 160              	.LVL13:
 161              	.LBB75:
 162              	.LBB74:
 163              	.LBB70:
 164              	.LBB71:
 165              	.LBB72:
  13:src/../h/../h/MemoryAllocator.hpp ****     }
  14:src/../h/../h/MemoryAllocator.hpp **** 
  15:src/../h/../h/MemoryAllocator.hpp ****     MemoryAllocator(const MemoryAllocator&) = delete;
  16:src/../h/../h/MemoryAllocator.hpp ****     void operator=(MemoryAllocator const&) = delete;
  17:src/../h/../h/MemoryAllocator.hpp **** 
  18:src/../h/../h/MemoryAllocator.hpp ****     void* memory_alloc (size_t);
  19:src/../h/../h/MemoryAllocator.hpp **** 
  20:src/../h/../h/MemoryAllocator.hpp ****     int memory_free (void*);
  21:src/../h/../h/MemoryAllocator.hpp ****     int get_mem_alloc_heap_start(){return this->heapStart;}
  22:src/../h/../h/MemoryAllocator.hpp ****     int get_mem_alloc_heap_end(){return this->heapEnd;}
  23:src/../h/../h/MemoryAllocator.hpp **** 
  24:src/../h/../h/MemoryAllocator.hpp **** private:
  25:src/../h/../h/MemoryAllocator.hpp **** 
  26:src/../h/../h/MemoryAllocator.hpp ****     struct FreeMem{
  27:src/../h/../h/MemoryAllocator.hpp ****         size_t size;
  28:src/../h/../h/MemoryAllocator.hpp ****         FreeMem* next;
  29:src/../h/../h/MemoryAllocator.hpp ****         FreeMem* prev;
  30:src/../h/../h/MemoryAllocator.hpp ****     };
  31:src/../h/../h/MemoryAllocator.hpp **** 
  32:src/../h/../h/MemoryAllocator.hpp ****     FreeMem* fmem_head = nullptr;
  33:src/../h/../h/MemoryAllocator.hpp ****     size_t heapStart;
  34:src/../h/../h/MemoryAllocator.hpp ****     size_t heapEnd;
  35:src/../h/../h/MemoryAllocator.hpp **** 
  36:src/../h/../h/MemoryAllocator.hpp ****     MemoryAllocator(){
 166              		.loc 4 36 22
 167 0100 17060000 		lla	a2,_ZZN15MemoryAllocator11getInstanceEvE8instance
 167      13060600 
 168              	.LBB73:
  37:src/../h/../h/MemoryAllocator.hpp **** 
  38:src/../h/../h/MemoryAllocator.hpp ****         heapStart = (size_t)HEAP_START_ADDR + ((size_t)HEAP_END_ADDR - (size_t)HEAP_START_ADDR) / 8
 169              		.loc 4 38 9 is_stmt 1
 170              		.loc 4 38 70 is_stmt 0
 171 0108 97070000 		la	a5,HEAP_END_ADDR
 171      83B70700 
 172 0110 03B70700 		ld	a4,0(a5)
 173 0114 97070000 		la	a5,HEAP_START_ADDR
 173      83B70700 
GAS LISTING /tmp/ccV7pxxx.s 			page 8


 174 011c 83B70700 		ld	a5,0(a5)
 175 0120 B306F740 		sub	a3,a4,a5
 176              		.loc 4 38 97
 177 0124 93D63600 		srli	a3,a3,3
 178              		.loc 4 38 45
 179 0128 B387D700 		add	a5,a5,a3
 180              		.loc 4 38 101
 181 012c 93871700 		addi	a5,a5,1
 182              		.loc 4 38 19
 183 0130 2334F600 		sd	a5,8(a2)
  39:src/../h/../h/MemoryAllocator.hpp ****         heapEnd = (size_t)HEAP_END_ADDR - 1;
 184              		.loc 4 39 9 is_stmt 1
 185              		.loc 4 39 41 is_stmt 0
 186 0134 1307F7FF 		addi	a4,a4,-1
 187              		.loc 4 39 17
 188 0138 2338E600 		sd	a4,16(a2)
  40:src/../h/../h/MemoryAllocator.hpp **** 
  41:src/../h/../h/MemoryAllocator.hpp ****         // poravnaj na prvu krstenu adresu
  42:src/../h/../h/MemoryAllocator.hpp ****         fmem_head = (FreeMem*)(heapStart + ((heapStart % MEM_BLOCK_SIZE != 0)?(MEM_BLOCK_SIZE - hea
 189              		.loc 4 42 9 is_stmt 1
 190              		.loc 4 42 56 is_stmt 0
 191 013c 93F6F703 		andi	a3,a5,63
 192              		.loc 4 42 78
 193 0140 63860600 		beqz	a3,.L7
 194 0144 13060004 		li	a2,64
 195 0148 B306D640 		sub	a3,a2,a3
 196              	.L7:
 197              		.loc 4 42 42
 198 014c B387D700 		add	a5,a5,a3
 199              		.loc 4 42 19
 200 0150 97060000 		sd	a5,_ZZN15MemoryAllocator11getInstanceEvE8instance,a3
 200      23B0F600 
  43:src/../h/../h/MemoryAllocator.hpp **** 
  44:src/../h/../h/MemoryAllocator.hpp ****         size_t sizeInBlocks = (heapEnd - (size_t)fmem_head) / MEM_BLOCK_SIZE;
 201              		.loc 4 44 9 is_stmt 1
 202              		.loc 4 44 40 is_stmt 0
 203 0158 3307F740 		sub	a4,a4,a5
 204              		.loc 4 44 16
 205 015c 13576700 		srli	a4,a4,6
 206              	.LVL14:
  45:src/../h/../h/MemoryAllocator.hpp **** 
  46:src/../h/../h/MemoryAllocator.hpp ****         // napravi node
  47:src/../h/../h/MemoryAllocator.hpp **** 
  48:src/../h/../h/MemoryAllocator.hpp ****         fmem_head->next = nullptr;
 207              		.loc 4 48 9 is_stmt 1
 208              		.loc 4 48 25 is_stmt 0
 209 0160 23B40700 		sd	zero,8(a5)
  49:src/../h/../h/MemoryAllocator.hpp ****         fmem_head->prev = nullptr;
 210              		.loc 4 49 9 is_stmt 1
 211              		.loc 4 49 25 is_stmt 0
 212 0164 23B80700 		sd	zero,16(a5)
  50:src/../h/../h/MemoryAllocator.hpp ****         fmem_head->size = sizeInBlocks;
 213              		.loc 4 50 9 is_stmt 1
 214              		.loc 4 50 25 is_stmt 0
 215 0168 23B0E700 		sd	a4,0(a5)
 216              	.LVL15:
 217              	.LBE73:
GAS LISTING /tmp/ccV7pxxx.s 			page 9


 218              	.LBE72:
 219              	.LBE71:
 220              	.LBE70:
  11:src/../h/../h/MemoryAllocator.hpp ****         return instance;
 221              		.loc 4 11 32
 222 016c 93071000 		li	a5,1
 223 0170 17070000 		sb	a5,_ZGVZN15MemoryAllocator11getInstanceEvE8instance,a4
 223      2300F700 
 224 0178 6FF01FF7 		j	.L6
 225              	.LBE74:
 226              	.LBE75:
 227              	.LBE67:
 228              	.LBE66:
 229              		.cfi_endproc
 230              	.LFE58:
 231              		.globl	__gxx_personality_v0
 232              		.section	.gcc_except_table,"a",@progbits
 233              	.LLSDA58:
 234 0000 FF       		.byte	0xff
 235 0001 FF       		.byte	0xff
 236 0002 03       		.byte	0x3
 237 0003 0D       		.byte	0xd
 238 0004 00000000 		.4byte	.LEHB0-.LFB58
 239 0008 00000000 		.4byte	.LEHE0-.LEHB0
 240 000c 00000000 		.4byte	0
 241 0010 00       		.byte	0
 242              		.text
 244              		.align	2
 245              		.globl	_ZN3TCB11thread_exitEv
 247              	_ZN3TCB11thread_exitEv:
 248              	.LFB57:
  27:src/TCB.cpp   ****     running->set_finished(true);
 249              		.loc 1 27 24 is_stmt 1
 250              		.cfi_startproc
 251 017c 130101FF 		addi	sp,sp,-16
 252              		.cfi_def_cfa_offset 16
 253 0180 23341100 		sd	ra,8(sp)
 254 0184 23308100 		sd	s0,0(sp)
 255              		.cfi_offset 1, -8
 256              		.cfi_offset 8, -16
 257 0188 13040101 		addi	s0,sp,16
 258              		.cfi_def_cfa 8, 0
  28:src/TCB.cpp   ****     TCB::thread_dispatch();
 259              		.loc 1 28 5
 260              	.LVL16:
 261              	.LBB76:
 262              	.LBB77:
  35:src/../h/TCB.hpp **** 
 263              		.loc 3 35 32
  35:src/../h/TCB.hpp **** 
 264              		.loc 3 35 47 is_stmt 0
 265 018c 97070000 		ld	a5,.LANCHOR0
 265      83B70700 
 266 0194 13071000 		li	a4,1
 267 0198 2384E702 		sb	a4,40(a5)
 268              	.LVL17:
 269              	.LBE77:
GAS LISTING /tmp/ccV7pxxx.s 			page 10


 270              	.LBE76:
  29:src/TCB.cpp   ****     // do ovog dela nece nikad doci jer thread_dispatch nece nit koju gasimo staviti u scheduler
 271              		.loc 1 29 5 is_stmt 1
  29:src/TCB.cpp   ****     // do ovog dela nece nikad doci jer thread_dispatch nece nit koju gasimo staviti u scheduler
 272              		.loc 1 29 25 is_stmt 0
 273 019c 97000000 		call	_ZN3TCB15thread_dispatchEv
 273      E7800000 
 274              	.LVL18:
  31:src/TCB.cpp   **** }
 275              		.loc 1 31 5 is_stmt 1
  32:src/TCB.cpp   **** 
 276              		.loc 1 32 1 is_stmt 0
 277 01a4 1305F0FF 		li	a0,-1
 278 01a8 83308100 		ld	ra,8(sp)
 279              		.cfi_restore 1
 280 01ac 03340100 		ld	s0,0(sp)
 281              		.cfi_restore 8
 282              		.cfi_def_cfa 2, 16
 283 01b0 13010101 		addi	sp,sp,16
 284              		.cfi_def_cfa_offset 0
 285 01b4 67800000 		jr	ra
 286              		.cfi_endproc
 287              	.LFE57:
 289              		.align	2
 290              		.globl	_ZN3TCB14thread_wrapperEv
 292              	_ZN3TCB14thread_wrapperEv:
 293              	.LFB59:
  47:src/TCB.cpp   **** 
  48:src/TCB.cpp   **** void TCB::thread_wrapper() {
 294              		.loc 1 48 28 is_stmt 1
 295              		.cfi_startproc
 296 01b8 130101FF 		addi	sp,sp,-16
 297              		.cfi_def_cfa_offset 16
 298 01bc 23341100 		sd	ra,8(sp)
 299 01c0 23308100 		sd	s0,0(sp)
 300              		.cfi_offset 1, -8
 301              		.cfi_offset 8, -16
 302 01c4 13040101 		addi	s0,sp,16
 303              		.cfi_def_cfa 8, 0
  49:src/TCB.cpp   ****     Riscv::popSppSpie();
 304              		.loc 1 49 5
 305              		.loc 1 49 22 is_stmt 0
 306 01c8 97000000 		call	_ZN5Riscv10popSppSpieEv@plt
 306      E7800000 
 307              	.LVL19:
  50:src/TCB.cpp   ****     running->body(running->argument);
 308              		.loc 1 50 5 is_stmt 1
 309              		.loc 1 50 14 is_stmt 0
 310 01d0 97070000 		ld	a5,.LANCHOR0
 310      83B70700 
 311 01d8 03B70700 		ld	a4,0(a5)
 312              		.loc 1 50 18
 313 01dc 03B58700 		ld	a0,8(a5)
 314 01e0 E7000700 		jalr	a4
 315              	.LVL20:
  51:src/TCB.cpp   ****     thread_exit();
 316              		.loc 1 51 5 is_stmt 1
GAS LISTING /tmp/ccV7pxxx.s 			page 11


 317              		.loc 1 51 16 is_stmt 0
 318 01e4 97000000 		call	_ZN3TCB11thread_exitEv
 318      E7800000 
 319              	.LVL21:
  52:src/TCB.cpp   **** }
 320              		.loc 1 52 1
 321 01ec 83308100 		ld	ra,8(sp)
 322              		.cfi_restore 1
 323 01f0 03340100 		ld	s0,0(sp)
 324              		.cfi_restore 8
 325              		.cfi_def_cfa 2, 16
 326 01f4 13010101 		addi	sp,sp,16
 327              		.cfi_def_cfa_offset 0
 328 01f8 67800000 		jr	ra
 329              		.cfi_endproc
 330              	.LFE59:
 332              		.align	2
 333              		.globl	_ZN3TCBC2EPFvPvES0_S0_b
 335              	_ZN3TCBC2EPFvPvES0_S0_b:
 336              	.LFB61:
  53:src/TCB.cpp   **** 
  54:src/TCB.cpp   **** TCB::TCB(Body body_init, void *arg, void *stack_space, bool b) {
 337              		.loc 1 54 1 is_stmt 1
 338              		.cfi_startproc
 339              	.LVL22:
 340 01fc 130101FF 		addi	sp,sp,-16
 341              		.cfi_def_cfa_offset 16
 342 0200 23348100 		sd	s0,8(sp)
 343              		.cfi_offset 8, -8
 344 0204 13040101 		addi	s0,sp,16
 345              		.cfi_def_cfa 8, 0
 346              	.LBB78:
  55:src/TCB.cpp   ****     body = body_init;
 347              		.loc 1 55 5
 348              		.loc 1 55 10 is_stmt 0
 349 0208 2330B500 		sd	a1,0(a0)
  56:src/TCB.cpp   ****     argument = arg;
 350              		.loc 1 56 5 is_stmt 1
 351              		.loc 1 56 14 is_stmt 0
 352 020c 2334C500 		sd	a2,8(a0)
  57:src/TCB.cpp   ****     stack = (uint64*)stack_space;
 353              		.loc 1 57 5 is_stmt 1
 354              		.loc 1 57 11 is_stmt 0
 355 0210 2338D500 		sd	a3,16(a0)
  58:src/TCB.cpp   ****     context.ra = (uint64) &thread_wrapper;
 356              		.loc 1 58 5 is_stmt 1
 357              		.loc 1 58 16 is_stmt 0
 358 0214 97070000 		lla	a5,_ZN3TCB14thread_wrapperEv
 358      93870700 
 359 021c 233CF500 		sd	a5,24(a0)
  59:src/TCB.cpp   ****     context.sp = stack_space != nullptr ? (uint64) &stack[DEFAULT_STACK_SIZE / sizeof(uint64)] : 0;
 360              		.loc 1 59 5 is_stmt 1
 361              		.loc 1 59 41 is_stmt 0
 362 0220 638E0604 		beqz	a3,.L16
 363              		.loc 1 59 52 discriminator 1
 364 0224 B7170000 		li	a5,4096
 365 0228 B386F600 		add	a3,a3,a5
GAS LISTING /tmp/ccV7pxxx.s 			page 12


 366              	.LVL23:
 367              	.L15:
 368              		.loc 1 59 16 discriminator 4
 369 022c 2330D502 		sd	a3,32(a0)
  60:src/TCB.cpp   ****     finished = false;
 370              		.loc 1 60 5 is_stmt 1 discriminator 4
 371              		.loc 1 60 14 is_stmt 0 discriminator 4
 372 0230 23040502 		sb	zero,40(a0)
  61:src/TCB.cpp   ****     next_scheduler = nullptr;
 373              		.loc 1 61 5 is_stmt 1 discriminator 4
 374              		.loc 1 61 20 is_stmt 0 discriminator 4
 375 0234 23380502 		sd	zero,48(a0)
  62:src/TCB.cpp   ****     next_sleep = nullptr;
 376              		.loc 1 62 5 is_stmt 1 discriminator 4
 377              		.loc 1 62 16 is_stmt 0 discriminator 4
 378 0238 233C0502 		sd	zero,56(a0)
  63:src/TCB.cpp   ****     next_blocked = nullptr;
 379              		.loc 1 63 5 is_stmt 1 discriminator 4
 380              		.loc 1 63 18 is_stmt 0 discriminator 4
 381 023c 23300504 		sd	zero,64(a0)
  64:src/TCB.cpp   ****     time_slice = DEFAULT_TIME_SLICE;
 382              		.loc 1 64 5 is_stmt 1 discriminator 4
 383              		.loc 1 64 16 is_stmt 0 discriminator 4
 384 0240 93072000 		li	a5,2
 385 0244 2338F504 		sd	a5,80(a0)
  65:src/TCB.cpp   ****     sleep = 0;
 386              		.loc 1 65 5 is_stmt 1 discriminator 4
 387              		.loc 1 65 11 is_stmt 0 discriminator 4
 388 0248 23340504 		sd	zero,72(a0)
  66:src/TCB.cpp   ****     id = ID++;
 389              		.loc 1 66 5 is_stmt 1 discriminator 4
 390              		.loc 1 66 12 is_stmt 0 discriminator 4
 391 024c 97060000 		lla	a3,.LANCHOR0
 391      93860600 
 392 0254 83B78600 		ld	a5,8(a3)
 393 0258 13861700 		addi	a2,a5,1
 394              	.LVL24:
 395 025c 23B4C600 		sd	a2,8(a3)
 396              		.loc 1 66 8 discriminator 4
 397 0260 233CF504 		sd	a5,88(a0)
  67:src/TCB.cpp   ****     flag = b;
 398              		.loc 1 67 5 is_stmt 1 discriminator 4
 399              		.loc 1 67 10 is_stmt 0 discriminator 4
 400 0264 2300E506 		sb	a4,96(a0)
  68:src/TCB.cpp   ****     periodic = false;
 401              		.loc 1 68 5 is_stmt 1 discriminator 4
 402              		.loc 1 68 14 is_stmt 0 discriminator 4
 403 0268 A3000506 		sb	zero,97(a0)
  69:src/TCB.cpp   ****     next_period = nullptr;
 404              		.loc 1 69 5 is_stmt 1 discriminator 4
 405              		.loc 1 69 17 is_stmt 0 discriminator 4
 406 026c 23340506 		sd	zero,104(a0)
 407              	.LBE78:
  70:src/TCB.cpp   **** }
 408              		.loc 1 70 1 discriminator 4
 409 0270 03348100 		ld	s0,8(sp)
 410              		.cfi_remember_state
GAS LISTING /tmp/ccV7pxxx.s 			page 13


 411              		.cfi_restore 8
 412              		.cfi_def_cfa 2, 16
 413 0274 13010101 		addi	sp,sp,16
 414              		.cfi_def_cfa_offset 0
 415 0278 67800000 		jr	ra
 416              	.LVL25:
 417              	.L16:
 418              		.cfi_restore_state
 419              	.LBB79:
  59:src/TCB.cpp   ****     finished = false;
 420              		.loc 1 59 41
 421 027c 93060000 		li	a3,0
 422              	.LVL26:
 423 0280 6FF0DFFA 		j	.L15
 424              	.LBE79:
 425              		.cfi_endproc
 426              	.LFE61:
 428              		.globl	_ZN3TCBC1EPFvPvES0_S0_b
 429              		.set	_ZN3TCBC1EPFvPvES0_S0_b,_ZN3TCBC2EPFvPvES0_S0_b
 430              		.align	2
 431              		.globl	_ZN3TCB5yieldEv
 433              	_ZN3TCB5yieldEv:
 434              	.LFB64:
  71:src/TCB.cpp   **** 
  72:src/TCB.cpp   **** int TCB::time_sleep(uint64 time) {
  73:src/TCB.cpp   **** 
  74:src/TCB.cpp   ****     running->set_time_sleep(time);
  75:src/TCB.cpp   ****     TS::getInstance().put(running);
  76:src/TCB.cpp   ****     TCB::yield();
  77:src/TCB.cpp   ****     return 0;
  78:src/TCB.cpp   **** }
  79:src/TCB.cpp   **** 
  80:src/TCB.cpp   **** void TCB::yield() {
 435              		.loc 1 80 19 is_stmt 1
 436              		.cfi_startproc
 437 0284 130101FE 		addi	sp,sp,-32
 438              		.cfi_def_cfa_offset 32
 439 0288 233C1100 		sd	ra,24(sp)
 440 028c 23388100 		sd	s0,16(sp)
 441 0290 23349100 		sd	s1,8(sp)
 442              		.cfi_offset 1, -8
 443              		.cfi_offset 8, -16
 444              		.cfi_offset 9, -24
 445 0294 13040102 		addi	s0,sp,32
 446              		.cfi_def_cfa 8, 0
  81:src/TCB.cpp   ****     TCB * old = running;
 447              		.loc 1 81 5
 448              		.loc 1 81 11 is_stmt 0
 449 0298 97040000 		ld	s1,.LANCHOR0
 449      83B40400 
 450              	.LVL27:
  82:src/TCB.cpp   ****     running = Scheduler::getInstance().get();
 451              		.loc 1 82 5 is_stmt 1
 452              	.LBB80:
 453              	.LBB81:
  12:src/../h/../h/scheduler.hpp ****         return instance;
 454              		.loc 2 12 9
GAS LISTING /tmp/ccV7pxxx.s 			page 14


  12:src/../h/../h/scheduler.hpp ****         return instance;
 455              		.loc 2 12 26 is_stmt 0
 456 02a0 97070000 		lbu	a5,_ZGVZN9Scheduler11getInstanceEvE8instance
 456      83C70700 
 457 02a8 63940702 		bnez	a5,.L19
 458              	.LVL28:
 459              	.LBB82:
 460              	.LBB83:
  28:src/../h/../h/scheduler.hpp ****         tail = nullptr;
 461              		.loc 2 28 9 is_stmt 1
  28:src/../h/../h/scheduler.hpp ****         tail = nullptr;
 462              		.loc 2 28 14 is_stmt 0
 463 02ac 97070000 		la	a5,_ZN9Scheduler4headE
 463      83B70700 
 464 02b4 23B00700 		sd	zero,0(a5)
 465              		.loc 2 29 9 is_stmt 1
 466              		.loc 2 29 14 is_stmt 0
 467 02b8 97070000 		la	a5,_ZN9Scheduler4tailE
 467      83B70700 
 468 02c0 23B00700 		sd	zero,0(a5)
 469              	.LBE83:
 470              	.LBE82:
  12:src/../h/../h/scheduler.hpp ****         return instance;
 471              		.loc 2 12 26
 472 02c4 93071000 		li	a5,1
 473 02c8 17070000 		sb	a5,_ZGVZN9Scheduler11getInstanceEvE8instance,a4
 473      2300F700 
 474              	.LVL29:
 475              	.L19:
  13:src/../h/../h/scheduler.hpp ****     }
 476              		.loc 2 13 9 is_stmt 1
 477              	.LBE81:
 478              	.LBE80:
 479              		.loc 1 82 43 is_stmt 0
 480 02d0 17050000 		lla	a0,_ZZN9Scheduler11getInstanceEvE8instance
 480      13050500 
 481 02d8 97000000 		call	_ZN9Scheduler3getEv@plt
 481      E7800000 
 482              	.LVL30:
 483              		.loc 1 82 13
 484 02e0 97070000 		lla	a5,.LANCHOR0
 484      93870700 
 485 02e8 23B0A700 		sd	a0,0(a5)
  83:src/TCB.cpp   ****     TCB::time_slice_counter = 0;
 486              		.loc 1 83 5 is_stmt 1
 487              		.loc 1 83 29 is_stmt 0
 488 02ec 23B80700 		sd	zero,16(a5)
  84:src/TCB.cpp   ****     TCB::context_switch(&old->context, &running->context);
 489              		.loc 1 84 5 is_stmt 1
 490              		.loc 1 84 24 is_stmt 0
 491 02f0 93058501 		addi	a1,a0,24
 492 02f4 13858401 		addi	a0,s1,24
 493 02f8 97000000 		call	_ZN3TCB14context_switchEPNS_7ContextES1_@plt
 493      E7800000 
 494              	.LVL31:
  85:src/TCB.cpp   **** }
 495              		.loc 1 85 1
GAS LISTING /tmp/ccV7pxxx.s 			page 15


 496 0300 83308101 		ld	ra,24(sp)
 497              		.cfi_restore 1
 498 0304 03340101 		ld	s0,16(sp)
 499              		.cfi_restore 8
 500              		.cfi_def_cfa 2, 32
 501 0308 83348100 		ld	s1,8(sp)
 502              		.cfi_restore 9
 503              	.LVL32:
 504 030c 13010102 		addi	sp,sp,32
 505              		.cfi_def_cfa_offset 0
 506 0310 67800000 		jr	ra
 507              		.cfi_endproc
 508              	.LFE64:
 510              		.align	2
 511              		.globl	_ZN3TCB10time_sleepEm
 513              	_ZN3TCB10time_sleepEm:
 514              	.LFB63:
  72:src/TCB.cpp   **** 
 515              		.loc 1 72 34 is_stmt 1
 516              		.cfi_startproc
 517              	.LVL33:
 518 0314 130101FF 		addi	sp,sp,-16
 519              		.cfi_def_cfa_offset 16
 520 0318 23341100 		sd	ra,8(sp)
 521 031c 23308100 		sd	s0,0(sp)
 522              		.cfi_offset 1, -8
 523              		.cfi_offset 8, -16
 524 0320 13040101 		addi	s0,sp,16
 525              		.cfi_def_cfa 8, 0
  74:src/TCB.cpp   ****     TS::getInstance().put(running);
 526              		.loc 1 74 5
  74:src/TCB.cpp   ****     TS::getInstance().put(running);
 527              		.loc 1 74 28 is_stmt 0
 528 0324 97070000 		ld	a5,.LANCHOR0
 528      83B70700 
 529              	.LVL34:
 530              	.LBB84:
 531              	.LBB85:
  55:src/../h/TCB.hpp **** 
 532              		.loc 3 55 43 is_stmt 1
  55:src/../h/TCB.hpp **** 
 533              		.loc 3 55 49 is_stmt 0
 534 032c 23B4A704 		sd	a0,72(a5)
 535              	.LVL35:
 536              	.LBE85:
 537              	.LBE84:
  75:src/TCB.cpp   ****     TCB::yield();
 538              		.loc 1 75 5 is_stmt 1
 539              	.LBB86:
 540              	.LBB87:
 541              		.file 5 "src/../h/../h/TS.hpp"
   1:src/../h/../h/TS.hpp **** #ifndef _thread_sleep_hpp_
   2:src/../h/../h/TS.hpp **** #define _thread_sleep_hpp_
   3:src/../h/../h/TS.hpp **** 
   4:src/../h/../h/TS.hpp **** class TCB;
   5:src/../h/../h/TS.hpp **** 
   6:src/../h/../h/TS.hpp **** class TS{
GAS LISTING /tmp/ccV7pxxx.s 			page 16


   7:src/../h/../h/TS.hpp **** public:
   8:src/../h/../h/TS.hpp **** 
   9:src/../h/../h/TS.hpp ****     static TS& getInstance(){
  10:src/../h/../h/TS.hpp ****         static TS instance;
 542              		.loc 5 10 9
 543              		.loc 5 10 19 is_stmt 0
 544 0330 17070000 		lbu	a4,_ZGVZN2TS11getInstanceEvE8instance
 544      03470700 
 545 0338 631E0700 		bnez	a4,.L22
 546              	.LVL36:
 547              	.LBB88:
 548              	.LBB89:
  11:src/../h/../h/TS.hpp ****         return instance;
  12:src/../h/../h/TS.hpp ****     }
  13:src/../h/../h/TS.hpp **** 
  14:src/../h/../h/TS.hpp ****     TS(const TS&) = delete;
  15:src/../h/../h/TS.hpp ****     void operator=(TS const&) = delete;
  16:src/../h/../h/TS.hpp **** 
  17:src/../h/../h/TS.hpp ****     static void put(TCB* tcb);
  18:src/../h/../h/TS.hpp ****     static void decrement_and_remove();
  19:src/../h/../h/TS.hpp **** 
  20:src/../h/../h/TS.hpp **** //    static void printTS();
  21:src/../h/../h/TS.hpp **** 
  22:src/../h/../h/TS.hpp **** private:
  23:src/../h/../h/TS.hpp ****     TS(){head = nullptr;}
 549              		.loc 5 23 10 is_stmt 1
 550              		.loc 5 23 15 is_stmt 0
 551 033c 17070000 		la	a4,_ZN2TS4headE
 551      03370700 
 552 0344 23300700 		sd	zero,0(a4)
 553              	.LBE89:
 554              	.LBE88:
  10:src/../h/../h/TS.hpp ****         return instance;
 555              		.loc 5 10 19
 556 0348 13071000 		li	a4,1
 557 034c 97060000 		sb	a4,_ZGVZN2TS11getInstanceEvE8instance,a3
 557      2380E600 
 558              	.LVL37:
 559              	.L22:
  11:src/../h/../h/TS.hpp ****         return instance;
 560              		.loc 5 11 9 is_stmt 1
 561              	.LBE87:
 562              	.LBE86:
  75:src/TCB.cpp   ****     TCB::yield();
 563              		.loc 1 75 34 is_stmt 0
 564 0354 13850700 		mv	a0,a5
 565              	.LVL38:
 566 0358 97000000 		call	_ZN2TS3putEP3TCB@plt
 566      E7800000 
 567              	.LVL39:
  76:src/TCB.cpp   ****     return 0;
 568              		.loc 1 76 5 is_stmt 1
  76:src/TCB.cpp   ****     return 0;
 569              		.loc 1 76 15 is_stmt 0
 570 0360 97000000 		call	_ZN3TCB5yieldEv
 570      E7800000 
 571              	.LVL40:
GAS LISTING /tmp/ccV7pxxx.s 			page 17


  77:src/TCB.cpp   **** }
 572              		.loc 1 77 5 is_stmt 1
  78:src/TCB.cpp   **** 
 573              		.loc 1 78 1 is_stmt 0
 574 0368 13050000 		li	a0,0
 575 036c 83308100 		ld	ra,8(sp)
 576              		.cfi_restore 1
 577 0370 03340100 		ld	s0,0(sp)
 578              		.cfi_restore 8
 579              		.cfi_def_cfa 2, 16
 580 0374 13010101 		addi	sp,sp,16
 581              		.cfi_def_cfa_offset 0
 582 0378 67800000 		jr	ra
 583              		.cfi_endproc
 584              	.LFE63:
 586              		.align	2
 587              		.globl	_ZN3TCB9TCB_setupEPFvPvES0_S0_b
 589              	_ZN3TCB9TCB_setupEPFvPvES0_S0_b:
 590              	.LFB65:
  86:src/TCB.cpp   **** 
  87:src/TCB.cpp   **** void TCB::TCB_setup(TCB::Body body_init, void *arg, void *stack_space, bool b) {
 591              		.loc 1 87 80 is_stmt 1
 592              		.cfi_startproc
 593              	.LVL41:
 594 037c 130101FF 		addi	sp,sp,-16
 595              		.cfi_def_cfa_offset 16
 596 0380 23348100 		sd	s0,8(sp)
 597              		.cfi_offset 8, -8
 598 0384 13040101 		addi	s0,sp,16
 599              		.cfi_def_cfa 8, 0
  88:src/TCB.cpp   ****     body = body_init;
 600              		.loc 1 88 5
 601              		.loc 1 88 10 is_stmt 0
 602 0388 2330B500 		sd	a1,0(a0)
  89:src/TCB.cpp   ****     argument = arg;
 603              		.loc 1 89 5 is_stmt 1
 604              		.loc 1 89 14 is_stmt 0
 605 038c 2334C500 		sd	a2,8(a0)
  90:src/TCB.cpp   ****     stack = (uint64*)stack_space;
 606              		.loc 1 90 5 is_stmt 1
 607              		.loc 1 90 11 is_stmt 0
 608 0390 2338D500 		sd	a3,16(a0)
  91:src/TCB.cpp   ****     context.ra = (uint64) &thread_wrapper;
 609              		.loc 1 91 5 is_stmt 1
 610              		.loc 1 91 16 is_stmt 0
 611 0394 97070000 		lla	a5,_ZN3TCB14thread_wrapperEv
 611      93870700 
 612 039c 233CF500 		sd	a5,24(a0)
  92:src/TCB.cpp   ****     context.sp = stack_space != nullptr ? (uint64) &stack[DEFAULT_STACK_SIZE / sizeof(uint64)] : 0;
 613              		.loc 1 92 5 is_stmt 1
 614              		.loc 1 92 41 is_stmt 0
 615 03a0 638E0604 		beqz	a3,.L26
 616              		.loc 1 92 52 discriminator 1
 617 03a4 B7170000 		li	a5,4096
 618 03a8 B386F600 		add	a3,a3,a5
 619              	.LVL42:
 620              	.L25:
GAS LISTING /tmp/ccV7pxxx.s 			page 18


 621              		.loc 1 92 16 discriminator 4
 622 03ac 2330D502 		sd	a3,32(a0)
  93:src/TCB.cpp   ****     finished = false;
 623              		.loc 1 93 5 is_stmt 1 discriminator 4
 624              		.loc 1 93 14 is_stmt 0 discriminator 4
 625 03b0 23040502 		sb	zero,40(a0)
  94:src/TCB.cpp   ****     next_scheduler = nullptr;
 626              		.loc 1 94 5 is_stmt 1 discriminator 4
 627              		.loc 1 94 20 is_stmt 0 discriminator 4
 628 03b4 23380502 		sd	zero,48(a0)
  95:src/TCB.cpp   ****     next_sleep = nullptr;
 629              		.loc 1 95 5 is_stmt 1 discriminator 4
 630              		.loc 1 95 16 is_stmt 0 discriminator 4
 631 03b8 233C0502 		sd	zero,56(a0)
  96:src/TCB.cpp   ****     next_blocked = nullptr;
 632              		.loc 1 96 5 is_stmt 1 discriminator 4
 633              		.loc 1 96 18 is_stmt 0 discriminator 4
 634 03bc 23300504 		sd	zero,64(a0)
  97:src/TCB.cpp   ****     time_slice = DEFAULT_TIME_SLICE;
 635              		.loc 1 97 5 is_stmt 1 discriminator 4
 636              		.loc 1 97 16 is_stmt 0 discriminator 4
 637 03c0 93072000 		li	a5,2
 638 03c4 2338F504 		sd	a5,80(a0)
  98:src/TCB.cpp   ****     sleep = 0;
 639              		.loc 1 98 5 is_stmt 1 discriminator 4
 640              		.loc 1 98 11 is_stmt 0 discriminator 4
 641 03c8 23340504 		sd	zero,72(a0)
  99:src/TCB.cpp   ****     id = ID++;
 642              		.loc 1 99 5 is_stmt 1 discriminator 4
 643              		.loc 1 99 12 is_stmt 0 discriminator 4
 644 03cc 97060000 		lla	a3,.LANCHOR0
 644      93860600 
 645 03d4 83B78600 		ld	a5,8(a3)
 646 03d8 13861700 		addi	a2,a5,1
 647              	.LVL43:
 648 03dc 23B4C600 		sd	a2,8(a3)
 649              		.loc 1 99 8 discriminator 4
 650 03e0 233CF504 		sd	a5,88(a0)
 100:src/TCB.cpp   ****     flag = b;
 651              		.loc 1 100 5 is_stmt 1 discriminator 4
 652              		.loc 1 100 10 is_stmt 0 discriminator 4
 653 03e4 2300E506 		sb	a4,96(a0)
 101:src/TCB.cpp   ****     periodic = false;
 654              		.loc 1 101 5 is_stmt 1 discriminator 4
 655              		.loc 1 101 14 is_stmt 0 discriminator 4
 656 03e8 A3000506 		sb	zero,97(a0)
 102:src/TCB.cpp   ****     next_period = nullptr;
 657              		.loc 1 102 5 is_stmt 1 discriminator 4
 658              		.loc 1 102 17 is_stmt 0 discriminator 4
 659 03ec 23340506 		sd	zero,104(a0)
 103:src/TCB.cpp   **** }
 660              		.loc 1 103 1 discriminator 4
 661 03f0 03348100 		ld	s0,8(sp)
 662              		.cfi_remember_state
 663              		.cfi_restore 8
 664              		.cfi_def_cfa 2, 16
 665 03f4 13010101 		addi	sp,sp,16
GAS LISTING /tmp/ccV7pxxx.s 			page 19


 666              		.cfi_def_cfa_offset 0
 667 03f8 67800000 		jr	ra
 668              	.LVL44:
 669              	.L26:
 670              		.cfi_restore_state
  92:src/TCB.cpp   ****     finished = false;
 671              		.loc 1 92 41
 672 03fc 93060000 		li	a3,0
 673              	.LVL45:
 674 0400 6FF0DFFA 		j	.L25
 675              		.cfi_endproc
 676              	.LFE65:
 678              		.align	2
 679              		.globl	_ZN3TCB13thread_createEPPS_PFvPvES2_S2_b
 681              	_ZN3TCB13thread_createEPPS_PFvPvES2_S2_b:
 682              	.LFB56:
  14:src/TCB.cpp   ****     size_t size_of_block_for_tcb = (sizeof(TCB) + MEM_BLOCK_SIZE - 1) / MEM_BLOCK_SIZE;
 683              		.loc 1 14 3 is_stmt 1
 684              		.cfi_startproc
 685              	.LVL46:
 686 0404 130101FC 		addi	sp,sp,-64
 687              		.cfi_def_cfa_offset 64
 688 0408 233C1102 		sd	ra,56(sp)
 689 040c 23388102 		sd	s0,48(sp)
 690 0410 23349102 		sd	s1,40(sp)
 691 0414 23302103 		sd	s2,32(sp)
 692 0418 233C3101 		sd	s3,24(sp)
 693 041c 23384101 		sd	s4,16(sp)
 694 0420 23345101 		sd	s5,8(sp)
 695 0424 23306101 		sd	s6,0(sp)
 696              		.cfi_offset 1, -8
 697              		.cfi_offset 8, -16
 698              		.cfi_offset 9, -24
 699              		.cfi_offset 18, -32
 700              		.cfi_offset 19, -40
 701              		.cfi_offset 20, -48
 702              		.cfi_offset 21, -56
 703              		.cfi_offset 22, -64
 704 0428 13040104 		addi	s0,sp,64
 705              		.cfi_def_cfa 8, 0
 706 042c 13090500 		mv	s2,a0
 707 0430 93890500 		mv	s3,a1
 708 0434 930A0600 		mv	s5,a2
 709 0438 138B0600 		mv	s6,a3
 710 043c 130A0700 		mv	s4,a4
  15:src/TCB.cpp   ****     TCB* tmp = (TCB*)MemoryAllocator::getInstance().memory_alloc(size_of_block_for_tcb);
 711              		.loc 1 15 5
 712              	.LVL47:
  16:src/TCB.cpp   ****     if(tmp)tmp->TCB_setup(start_routine, arg, stack_space, flag);
 713              		.loc 1 16 5
 714              	.LBB100:
 715              	.LBB101:
  11:src/../h/../h/MemoryAllocator.hpp ****         return instance;
 716              		.loc 4 11 9
  11:src/../h/../h/MemoryAllocator.hpp ****         return instance;
 717              		.loc 4 11 32 is_stmt 0
 718 0440 97070000 		lbu	a5,_ZGVZN15MemoryAllocator11getInstanceEvE8instance
GAS LISTING /tmp/ccV7pxxx.s 			page 20


 718      83C70700 
 719 0448 6386070C 		beqz	a5,.L37
 720              	.LVL48:
 721              	.L29:
  12:src/../h/../h/MemoryAllocator.hpp ****     }
 722              		.loc 4 12 9 is_stmt 1
 723              	.LBE101:
 724              	.LBE100:
  16:src/TCB.cpp   ****     if(tmp)tmp->TCB_setup(start_routine, arg, stack_space, flag);
 725              		.loc 1 16 65 is_stmt 0
 726 044c 93052000 		li	a1,2
 727              	.LVL49:
 728 0450 17050000 		lla	a0,_ZZN15MemoryAllocator11getInstanceEvE8instance
 728      13050500 
 729              	.LVL50:
 730 0458 97000000 		call	_ZN15MemoryAllocator12memory_allocEm@plt
 730      E7800000 
 731              	.LVL51:
 732 0460 93040500 		mv	s1,a0
 733              	.LVL52:
  17:src/TCB.cpp   **** //    TCB* tmp = (TCB*)new TCB(start_routine, arg, stack_space, flag);
 734              		.loc 1 17 5 is_stmt 1
 735 0464 630E0500 		beqz	a0,.L31
  17:src/TCB.cpp   **** //    TCB* tmp = (TCB*)new TCB(start_routine, arg, stack_space, flag);
 736              		.loc 1 17 12 discriminator 1
  17:src/TCB.cpp   **** //    TCB* tmp = (TCB*)new TCB(start_routine, arg, stack_space, flag);
 737              		.loc 1 17 26 is_stmt 0 discriminator 1
 738 0468 13070A00 		mv	a4,s4
 739 046c 93060B00 		mv	a3,s6
 740 0470 13860A00 		mv	a2,s5
 741 0474 93850900 		mv	a1,s3
 742 0478 97000000 		call	_ZN3TCB9TCB_setupEPFvPvES0_S0_b
 742      E7800000 
 743              	.LVL53:
 744              	.L31:
  19:src/TCB.cpp   ****     if (tmp && start_routine != nullptr && tmp != TCB::idle && flag) {
 745              		.loc 1 19 5 is_stmt 1
  19:src/TCB.cpp   ****     if (tmp && start_routine != nullptr && tmp != TCB::idle && flag) {
 746              		.loc 1 19 13 is_stmt 0
 747 0480 23309900 		sd	s1,0(s2)
  20:src/TCB.cpp   ****         Scheduler::getInstance().put(tmp);
 748              		.loc 1 20 5 is_stmt 1
 749 0484 638E0404 		beqz	s1,.L32
  20:src/TCB.cpp   ****         Scheduler::getInstance().put(tmp);
 750              		.loc 1 20 13 is_stmt 0 discriminator 1
 751 0488 638C0904 		beqz	s3,.L32
  20:src/TCB.cpp   ****         Scheduler::getInstance().put(tmp);
 752              		.loc 1 20 48 discriminator 2
 753 048c 97070000 		ld	a5,.LANCHOR0+24
 753      83B70700 
  20:src/TCB.cpp   ****         Scheduler::getInstance().put(tmp);
 754              		.loc 1 20 41 discriminator 2
 755 0494 63869704 		beq	a5,s1,.L32
  20:src/TCB.cpp   ****         Scheduler::getInstance().put(tmp);
 756              		.loc 1 20 61 discriminator 3
 757 0498 63040A04 		beqz	s4,.L32
  21:src/TCB.cpp   ****     }
GAS LISTING /tmp/ccV7pxxx.s 			page 21


 758              		.loc 1 21 9 is_stmt 1
 759              	.LBB107:
 760              	.LBB108:
  12:src/../h/../h/scheduler.hpp ****         return instance;
 761              		.loc 2 12 9
  12:src/../h/../h/scheduler.hpp ****         return instance;
 762              		.loc 2 12 26 is_stmt 0
 763 049c 97070000 		lbu	a5,_ZGVZN9Scheduler11getInstanceEvE8instance
 763      83C70700 
 764 04a4 63940702 		bnez	a5,.L33
 765              	.LVL54:
 766              	.LBB109:
 767              	.LBB110:
  28:src/../h/../h/scheduler.hpp ****         tail = nullptr;
 768              		.loc 2 28 9 is_stmt 1
  28:src/../h/../h/scheduler.hpp ****         tail = nullptr;
 769              		.loc 2 28 14 is_stmt 0
 770 04a8 97070000 		la	a5,_ZN9Scheduler4headE
 770      83B70700 
 771 04b0 23B00700 		sd	zero,0(a5)
 772              		.loc 2 29 9 is_stmt 1
 773              		.loc 2 29 14 is_stmt 0
 774 04b4 97070000 		la	a5,_ZN9Scheduler4tailE
 774      83B70700 
 775 04bc 23B00700 		sd	zero,0(a5)
 776              	.LBE110:
 777              	.LBE109:
  12:src/../h/../h/scheduler.hpp ****         return instance;
 778              		.loc 2 12 26
 779 04c0 93071000 		li	a5,1
 780 04c4 17070000 		sb	a5,_ZGVZN9Scheduler11getInstanceEvE8instance,a4
 780      2300F700 
 781              	.LVL55:
 782              	.L33:
  13:src/../h/../h/scheduler.hpp ****     }
 783              		.loc 2 13 9 is_stmt 1
 784              	.LBE108:
 785              	.LBE107:
  21:src/TCB.cpp   ****     }
 786              		.loc 1 21 37 is_stmt 0
 787 04cc 93850400 		mv	a1,s1
 788 04d0 17050000 		lla	a0,_ZZN9Scheduler11getInstanceEvE8instance
 788      13050500 
 789 04d8 97000000 		call	_ZN9Scheduler3putEP3TCB@plt
 789      E7800000 
 790              	.LVL56:
 791              	.L32:
  23:src/TCB.cpp   ****     else return -1;
 792              		.loc 1 23 5 is_stmt 1
  23:src/TCB.cpp   ****     else return -1;
 793              		.loc 1 23 8 is_stmt 0
 794 04e0 83370900 		ld	a5,0(s2)
  23:src/TCB.cpp   ****     else return -1;
 795              		.loc 1 23 5
 796 04e4 6386070A 		beqz	a5,.L35
  23:src/TCB.cpp   ****     else return -1;
 797              		.loc 1 23 24
GAS LISTING /tmp/ccV7pxxx.s 			page 22


 798 04e8 13050000 		li	a0,0
 799              	.L34:
  25:src/TCB.cpp   **** 
 800              		.loc 1 25 1
 801 04ec 83308103 		ld	ra,56(sp)
 802              		.cfi_remember_state
 803              		.cfi_restore 1
 804 04f0 03340103 		ld	s0,48(sp)
 805              		.cfi_restore 8
 806              		.cfi_def_cfa 2, 64
 807 04f4 83348102 		ld	s1,40(sp)
 808              		.cfi_restore 9
 809              	.LVL57:
 810 04f8 03390102 		ld	s2,32(sp)
 811              		.cfi_restore 18
 812              	.LVL58:
 813 04fc 83398101 		ld	s3,24(sp)
 814              		.cfi_restore 19
 815              	.LVL59:
 816 0500 033A0101 		ld	s4,16(sp)
 817              		.cfi_restore 20
 818 0504 833A8100 		ld	s5,8(sp)
 819              		.cfi_restore 21
 820              	.LVL60:
 821 0508 033B0100 		ld	s6,0(sp)
 822              		.cfi_restore 22
 823              	.LVL61:
 824 050c 13010104 		addi	sp,sp,64
 825              		.cfi_def_cfa_offset 0
 826 0510 67800000 		jr	ra
 827              	.LVL62:
 828              	.L37:
 829              		.cfi_restore_state
 830              	.LBB111:
 831              	.LBB106:
 832              	.LBB102:
 833              	.LBB103:
 834              	.LBB104:
  36:src/../h/../h/MemoryAllocator.hpp **** 
 835              		.loc 4 36 22
 836 0514 17060000 		lla	a2,_ZZN15MemoryAllocator11getInstanceEvE8instance
 836      13060600 
 837              	.LVL63:
 838              	.LBB105:
  38:src/../h/../h/MemoryAllocator.hpp ****         heapEnd = (size_t)HEAP_END_ADDR - 1;
 839              		.loc 4 38 9 is_stmt 1
  38:src/../h/../h/MemoryAllocator.hpp ****         heapEnd = (size_t)HEAP_END_ADDR - 1;
 840              		.loc 4 38 70 is_stmt 0
 841 051c 97070000 		la	a5,HEAP_END_ADDR
 841      83B70700 
 842 0524 03B70700 		ld	a4,0(a5)
 843              	.LVL64:
 844 0528 97070000 		la	a5,HEAP_START_ADDR
 844      83B70700 
 845 0530 83B70700 		ld	a5,0(a5)
 846 0534 B306F740 		sub	a3,a4,a5
 847              	.LVL65:
GAS LISTING /tmp/ccV7pxxx.s 			page 23


  38:src/../h/../h/MemoryAllocator.hpp ****         heapEnd = (size_t)HEAP_END_ADDR - 1;
 848              		.loc 4 38 97
 849 0538 93D63600 		srli	a3,a3,3
  38:src/../h/../h/MemoryAllocator.hpp ****         heapEnd = (size_t)HEAP_END_ADDR - 1;
 850              		.loc 4 38 45
 851 053c B387D700 		add	a5,a5,a3
  38:src/../h/../h/MemoryAllocator.hpp ****         heapEnd = (size_t)HEAP_END_ADDR - 1;
 852              		.loc 4 38 101
 853 0540 93871700 		addi	a5,a5,1
  38:src/../h/../h/MemoryAllocator.hpp ****         heapEnd = (size_t)HEAP_END_ADDR - 1;
 854              		.loc 4 38 19
 855 0544 2334F600 		sd	a5,8(a2)
  39:src/../h/../h/MemoryAllocator.hpp **** 
 856              		.loc 4 39 9 is_stmt 1
  39:src/../h/../h/MemoryAllocator.hpp **** 
 857              		.loc 4 39 41 is_stmt 0
 858 0548 1307F7FF 		addi	a4,a4,-1
  39:src/../h/../h/MemoryAllocator.hpp **** 
 859              		.loc 4 39 17
 860 054c 2338E600 		sd	a4,16(a2)
  42:src/../h/../h/MemoryAllocator.hpp **** 
 861              		.loc 4 42 9 is_stmt 1
  42:src/../h/../h/MemoryAllocator.hpp **** 
 862              		.loc 4 42 56 is_stmt 0
 863 0550 93F6F703 		andi	a3,a5,63
  42:src/../h/../h/MemoryAllocator.hpp **** 
 864              		.loc 4 42 78
 865 0554 63860600 		beqz	a3,.L30
 866 0558 13060004 		li	a2,64
 867 055c B306D640 		sub	a3,a2,a3
 868              	.L30:
  42:src/../h/../h/MemoryAllocator.hpp **** 
 869              		.loc 4 42 42
 870 0560 B387D700 		add	a5,a5,a3
  42:src/../h/../h/MemoryAllocator.hpp **** 
 871              		.loc 4 42 19
 872 0564 97060000 		sd	a5,_ZZN15MemoryAllocator11getInstanceEvE8instance,a3
 872      23B0F600 
  44:src/../h/../h/MemoryAllocator.hpp **** 
 873              		.loc 4 44 9 is_stmt 1
  44:src/../h/../h/MemoryAllocator.hpp **** 
 874              		.loc 4 44 40 is_stmt 0
 875 056c 3307F740 		sub	a4,a4,a5
  44:src/../h/../h/MemoryAllocator.hpp **** 
 876              		.loc 4 44 16
 877 0570 13576700 		srli	a4,a4,6
 878              	.LVL66:
  48:src/../h/../h/MemoryAllocator.hpp ****         fmem_head->prev = nullptr;
 879              		.loc 4 48 9 is_stmt 1
  48:src/../h/../h/MemoryAllocator.hpp ****         fmem_head->prev = nullptr;
 880              		.loc 4 48 25 is_stmt 0
 881 0574 23B40700 		sd	zero,8(a5)
  49:src/../h/../h/MemoryAllocator.hpp ****         fmem_head->size = sizeInBlocks;
 882              		.loc 4 49 9 is_stmt 1
  49:src/../h/../h/MemoryAllocator.hpp ****         fmem_head->size = sizeInBlocks;
 883              		.loc 4 49 25 is_stmt 0
 884 0578 23B80700 		sd	zero,16(a5)
GAS LISTING /tmp/ccV7pxxx.s 			page 24


 885              		.loc 4 50 9 is_stmt 1
 886              		.loc 4 50 25 is_stmt 0
 887 057c 23B0E700 		sd	a4,0(a5)
 888              	.LVL67:
 889              	.LBE105:
 890              	.LBE104:
 891              	.LBE103:
 892              	.LBE102:
  11:src/../h/../h/MemoryAllocator.hpp ****         return instance;
 893              		.loc 4 11 32
 894 0580 93071000 		li	a5,1
 895 0584 17070000 		sb	a5,_ZGVZN15MemoryAllocator11getInstanceEvE8instance,a4
 895      2300F700 
 896 058c 6FF01FEC 		j	.L29
 897              	.LVL68:
 898              	.L35:
 899              	.LBE106:
 900              	.LBE111:
  24:src/TCB.cpp   **** }
 901              		.loc 1 24 18
 902 0590 1305F0FF 		li	a0,-1
 903 0594 6FF09FF5 		j	.L34
 904              		.cfi_endproc
 905              	.LFE56:
 907              		.globl	_ZN3TCB2IDE
 908              		.globl	_ZN3TCB18time_slice_counterE
 909              		.globl	_ZN3TCB4idleE
 910              		.globl	_ZN3TCB7runningE
 911              		.weak	_ZGVZN2TS11getInstanceEvE8instance
 912              		.section	.bss._ZGVZN2TS11getInstanceEvE8instance,"awG",@nobits,_ZGVZN2TS11getInstanceEvE8instance,
 913              		.align	3
 916              	_ZGVZN2TS11getInstanceEvE8instance:
 917 0000 00000000 		.zero	8
 917      00000000 
 918              		.weak	_ZGVZN15MemoryAllocator11getInstanceEvE8instance
 919              		.section	.bss._ZGVZN15MemoryAllocator11getInstanceEvE8instance,"awG",@nobits,_ZGVZN15MemoryAllocat
 920              		.align	3
 923              	_ZGVZN15MemoryAllocator11getInstanceEvE8instance:
 924 0000 00000000 		.zero	8
 924      00000000 
 925              		.weak	_ZZN15MemoryAllocator11getInstanceEvE8instance
 926              		.section	.bss._ZZN15MemoryAllocator11getInstanceEvE8instance,"awG",@nobits,_ZZN15MemoryAllocator11
 927              		.align	3
 930              	_ZZN15MemoryAllocator11getInstanceEvE8instance:
 931 0000 00000000 		.zero	24
 931      00000000 
 931      00000000 
 931      00000000 
 931      00000000 
 932              		.weak	_ZGVZN9Scheduler11getInstanceEvE8instance
 933              		.section	.bss._ZGVZN9Scheduler11getInstanceEvE8instance,"awG",@nobits,_ZGVZN9Scheduler11getInstanc
 934              		.align	3
 937              	_ZGVZN9Scheduler11getInstanceEvE8instance:
 938 0000 00000000 		.zero	8
 938      00000000 
 939              		.weak	_ZZN9Scheduler11getInstanceEvE8instance
 940              		.section	.bss._ZZN9Scheduler11getInstanceEvE8instance,"awG",@nobits,_ZZN9Scheduler11getInstanceEvE
GAS LISTING /tmp/ccV7pxxx.s 			page 25


 941              		.align	3
 944              	_ZZN9Scheduler11getInstanceEvE8instance:
 945 0000 00       		.zero	1
 946              		.bss
 947              		.align	3
 948              		.set	.LANCHOR0,. + 0
 951              	_ZN3TCB7runningE:
 952 0000 00000000 		.zero	8
 952      00000000 
 955              	_ZN3TCB2IDE:
 956 0008 00000000 		.zero	8
 956      00000000 
 959              	_ZN3TCB18time_slice_counterE:
 960 0010 00000000 		.zero	8
 960      00000000 
 963              	_ZN3TCB4idleE:
 964 0018 00000000 		.zero	8
 964      00000000 
 965              		.text
 966              	.Letext0:
 967              		.file 6 "src/../h/../lib/hw.h"
 968              		.file 7 "src/../h/riscv.hpp"
 5115              		.align	3
 5118              	DW.ref.__gxx_personality_v0:
 5119 0000 00000000 		.dword	__gxx_personality_v0
 5119      00000000 
 5120              		.ident	"GCC: (Ubuntu 9.4.0-1ubuntu1~20.04) 9.4.0"
 5121              		.section	.note.GNU-stack,"",@progbits
GAS LISTING /tmp/ccV7pxxx.s 			page 26

