GAS LISTING /tmp/ccyarsbE.s 			page 1


   1              		.file	"TS.cpp"
   2              		.option pic
   3              		.option norelax
   4              		.text
   5              	.Ltext0:
   6              		.align	2
   7              		.globl	_ZN2TS3putEP3TCB
   9              	_ZN2TS3putEP3TCB:
  10              	.LFB29:
  11              		.file 1 "src/TS.cpp"
   1:src/TS.cpp    **** #include "../h/TS.hpp"
   2:src/TS.cpp    **** #include "../h/TCB.hpp"
   3:src/TS.cpp    **** #include "../h/scheduler.hpp"
   4:src/TS.cpp    **** 
   5:src/TS.cpp    **** TS* TS::ts_instance = nullptr;
   6:src/TS.cpp    **** kmem_cache_t* TS::ts_cache = nullptr;
   7:src/TS.cpp    **** TCB* TS::head = nullptr;
   8:src/TS.cpp    **** 
   9:src/TS.cpp    **** //void TS::printTS() {
  10:src/TS.cpp    **** //    TCB* tmp = head;
  11:src/TS.cpp    **** //    while(tmp){
  12:src/TS.cpp    **** //        printString("id: ");
  13:src/TS.cpp    **** //        printInt(tmp->get_thread_id());
  14:src/TS.cpp    **** //        printString(" time: ");
  15:src/TS.cpp    **** //        printInt(tmp->get_time_sleep());
  16:src/TS.cpp    **** //        printString("\t");
  17:src/TS.cpp    **** //
  18:src/TS.cpp    **** //        tmp = tmp->get_next_sleep();
  19:src/TS.cpp    **** //    }
  20:src/TS.cpp    **** //    printString("\n");
  21:src/TS.cpp    **** //}
  22:src/TS.cpp    **** 
  23:src/TS.cpp    **** void TS::put(TCB *tcb) {
  12              		.loc 1 23 24
  13              		.cfi_startproc
  14              	.LVL0:
  15 0000 130101FF 		addi	sp,sp,-16
  16              		.cfi_def_cfa_offset 16
  17 0004 23348100 		sd	s0,8(sp)
  18              		.cfi_offset 8, -8
  19 0008 13040101 		addi	s0,sp,16
  20              		.cfi_def_cfa 8, 0
  24:src/TS.cpp    **** 
  25:src/TS.cpp    ****     if(!head){
  21              		.loc 1 25 5
  22              		.loc 1 25 8 is_stmt 0
  23 000c 97070000 		ld	a5,.LANCHOR0
  23      83B70700 
  24              		.loc 1 25 5
  25 0014 63840702 		beqz	a5,.L9
  26:src/TS.cpp    ****         head = tcb;
  27:src/TS.cpp    ****         head->set_next_sleep(nullptr);
  28:src/TS.cpp    **** //        printTS();
  29:src/TS.cpp    ****         return;
  30:src/TS.cpp    ****     }
  31:src/TS.cpp    **** 
  32:src/TS.cpp    ****     TCB* tmp = head, *prev = nullptr;
GAS LISTING /tmp/ccyarsbE.s 			page 2


  26              		.loc 1 32 5 is_stmt 1
  27              	.LVL1:
  33:src/TS.cpp    ****     uint64 t_sleep = tcb->get_time_sleep();
  28              		.loc 1 33 5
  29              	.LBB32:
  30              	.LBB33:
  31              		.file 2 "src/../h/TCB.hpp"
   1:src/../h/TCB.hpp **** #ifndef _thread_hpp_
   2:src/../h/TCB.hpp **** #define _thread_hpp_
   3:src/../h/TCB.hpp **** 
   4:src/../h/TCB.hpp **** #include "../lib/hw.h"
   5:src/../h/TCB.hpp **** #include "../h/scheduler.hpp"
   6:src/../h/TCB.hpp **** #include "../h/MemoryAllocator.hpp"
   7:src/../h/TCB.hpp **** #include "../h/TS.hpp"
   8:src/../h/TCB.hpp **** #include "../h/periodic_threads.hpp"
   9:src/../h/TCB.hpp **** #include "SlabI.h"
  10:src/../h/TCB.hpp **** 
  11:src/../h/TCB.hpp **** class TCB{
  12:src/../h/TCB.hpp **** public:
  13:src/../h/TCB.hpp ****     using Body = void (*)(void*);
  14:src/../h/TCB.hpp **** 
  15:src/../h/TCB.hpp ****     // trazene
  16:src/../h/TCB.hpp ****     static int thread_create(
  17:src/../h/TCB.hpp ****         TCB** handle,
  18:src/../h/TCB.hpp ****         void(*start_routine)(void*),
  19:src/../h/TCB.hpp ****         void* arg,
  20:src/../h/TCB.hpp ****         void* stack_space,
  21:src/../h/TCB.hpp ****         bool flag
  22:src/../h/TCB.hpp ****     );
  23:src/../h/TCB.hpp **** 
  24:src/../h/TCB.hpp ****     static int thread_exit();
  25:src/../h/TCB.hpp **** 
  26:src/../h/TCB.hpp ****     static void thread_dispatch();
  27:src/../h/TCB.hpp **** 
  28:src/../h/TCB.hpp ****     static int time_sleep(uint64 time);
  29:src/../h/TCB.hpp **** 
  30:src/../h/TCB.hpp ****     uint64 get_thread_id()const{ return id; }
  31:src/../h/TCB.hpp **** 
  32:src/../h/TCB.hpp ****     // getteri i setteri
  33:src/../h/TCB.hpp ****     void set_finished(bool f){ this->finished = f; }
  34:src/../h/TCB.hpp ****     bool is_finished()const{return finished;}
  35:src/../h/TCB.hpp ****     void set_next_scheduler(TCB* nextThread){ next_scheduler = nextThread; }
  36:src/../h/TCB.hpp ****     TCB* get_next_scheduler()const{ return next_scheduler; }
  37:src/../h/TCB.hpp ****     void set_next_sleep(TCB* nextThread){ next_sleep = nextThread; }
  38:src/../h/TCB.hpp ****     TCB* get_next_sleep()const{ return next_sleep; }
  39:src/../h/TCB.hpp ****     void set_next_blocked(TCB* nextThread){ next_blocked = nextThread; }
  40:src/../h/TCB.hpp ****     TCB* get_next_blocked()const{ return next_blocked; }
  41:src/../h/TCB.hpp ****     uint64 get_time_sleep()const{ return sleep; }
  32              		.loc 2 41 35
  33              		.loc 2 41 42 is_stmt 0
  34 0018 03378504 		ld	a4,72(a0)
  35              	.LVL2:
  36              	.LBE33:
  37              	.LBE32:
  32:src/TS.cpp    ****     uint64 t_sleep = tcb->get_time_sleep();
  38              		.loc 1 32 23
  39 001c 13060000 		li	a2,0
GAS LISTING /tmp/ccyarsbE.s 			page 3


  40              	.LVL3:
  41              	.L5:
  34:src/TS.cpp    **** 
  35:src/TS.cpp    ****     while(tmp && t_sleep >= tmp->get_time_sleep()){
  42              		.loc 1 35 5 is_stmt 1
  43              		.loc 1 35 15
  44 0020 63860702 		beqz	a5,.L4
  45              	.LVL4:
  46              	.LBB34:
  47              	.LBB35:
  48              		.loc 2 41 35
  49              		.loc 2 41 42 is_stmt 0
  50 0024 83B68704 		ld	a3,72(a5)
  51              	.LVL5:
  52              	.LBE35:
  53              	.LBE34:
  54              		.loc 1 35 15
  55 0028 6362D702 		bltu	a4,a3,.L4
  36:src/TS.cpp    ****         t_sleep -= tmp->get_time_sleep();
  56              		.loc 1 36 9 is_stmt 1
  57              	.LVL6:
  58              		.loc 2 41 35
  59              		.loc 1 36 17 is_stmt 0
  60 002c 3307D740 		sub	a4,a4,a3
  61              	.LVL7:
  37:src/TS.cpp    ****         prev = tmp;
  62              		.loc 1 37 9 is_stmt 1
  38:src/TS.cpp    ****         tmp = tmp->get_next_sleep();
  63              		.loc 1 38 9
  64              	.LBB36:
  65              	.LBB37:
  38:src/../h/TCB.hpp ****     void set_next_blocked(TCB* nextThread){ next_blocked = nextThread; }
  66              		.loc 2 38 33
  67              	.LBE37:
  68              	.LBE36:
  37:src/TS.cpp    ****         prev = tmp;
  69              		.loc 1 37 14 is_stmt 0
  70 0030 13860700 		mv	a2,a5
  71              		.loc 1 38 34
  72 0034 83B78703 		ld	a5,56(a5)
  73              	.LVL8:
  35:src/TS.cpp    ****         t_sleep -= tmp->get_time_sleep();
  74              		.loc 1 35 5
  75 0038 6FF09FFE 		j	.L5
  76              	.LVL9:
  77              	.L9:
  26:src/TS.cpp    ****         head->set_next_sleep(nullptr);
  78              		.loc 1 26 9 is_stmt 1
  26:src/TS.cpp    ****         head->set_next_sleep(nullptr);
  79              		.loc 1 26 14 is_stmt 0
  80 003c 97070000 		sd	a0,.LANCHOR0,a5
  80      23B0A700 
  27:src/TS.cpp    **** //        printTS();
  81              		.loc 1 27 9 is_stmt 1
  82              	.LVL10:
  83              	.LBB38:
  84              	.LBB39:
GAS LISTING /tmp/ccyarsbE.s 			page 4


  37:src/../h/TCB.hpp ****     TCB* get_next_sleep()const{ return next_sleep; }
  85              		.loc 2 37 43
  37:src/../h/TCB.hpp ****     TCB* get_next_sleep()const{ return next_sleep; }
  86              		.loc 2 37 54 is_stmt 0
  87 0044 233C0502 		sd	zero,56(a0)
  88              	.LVL11:
  89              	.LBE39:
  90              	.LBE38:
  29:src/TS.cpp    ****     }
  91              		.loc 1 29 9 is_stmt 1
  92 0048 6F004002 		j	.L1
  93              	.LVL12:
  94              	.L4:
  39:src/TS.cpp    **** 
  40:src/TS.cpp    ****     }
  41:src/TS.cpp    **** 
  42:src/TS.cpp    ****     tcb->set_next_sleep(tmp);
  95              		.loc 1 42 5 discriminator 4
  96              	.LBB40:
  97              	.LBB41:
  37:src/../h/TCB.hpp ****     TCB* get_next_sleep()const{ return next_sleep; }
  98              		.loc 2 37 43 discriminator 4
  37:src/../h/TCB.hpp ****     TCB* get_next_sleep()const{ return next_sleep; }
  99              		.loc 2 37 54 is_stmt 0 discriminator 4
 100 004c 233CF502 		sd	a5,56(a0)
 101              	.LVL13:
 102              	.LBE41:
 103              	.LBE40:
  43:src/TS.cpp    ****     if(tmp)tmp->set_time_sleep(tmp->get_time_sleep() - t_sleep);
 104              		.loc 1 43 5 is_stmt 1 discriminator 4
 105 0050 63880700 		beqz	a5,.L6
 106              		.loc 1 43 12
 107              	.LVL14:
 108              	.LBB42:
 109              	.LBB43:
 110              		.loc 2 41 35
 111              		.loc 2 41 42 is_stmt 0
 112 0054 83B68704 		ld	a3,72(a5)
 113              	.LVL15:
 114              	.LBE43:
 115              	.LBE42:
 116              		.loc 1 43 31
 117 0058 B386E640 		sub	a3,a3,a4
 118              	.LVL16:
 119              	.LBB44:
 120              	.LBB45:
  42:src/../h/TCB.hpp ****     void set_time_sleep(uint64 new_time){ sleep = new_time; }
 121              		.loc 2 42 43 is_stmt 1
 122              		.loc 2 42 49 is_stmt 0
 123 005c 23B4D704 		sd	a3,72(a5)
 124              	.LVL17:
 125              	.L6:
 126              	.LBE45:
 127              	.LBE44:
  44:src/TS.cpp    ****     tcb->set_time_sleep(t_sleep);
 128              		.loc 1 44 5 is_stmt 1
 129              	.LBB46:
GAS LISTING /tmp/ccyarsbE.s 			page 5


 130              	.LBB47:
 131              		.loc 2 42 43
 132              		.loc 2 42 49 is_stmt 0
 133 0060 2334E504 		sd	a4,72(a0)
 134              	.LVL18:
 135              	.LBE47:
 136              	.LBE46:
  45:src/TS.cpp    ****     if(prev){
 137              		.loc 1 45 5 is_stmt 1
 138 0064 630A0600 		beqz	a2,.L7
  46:src/TS.cpp    ****         prev->set_next_sleep(tcb);
 139              		.loc 1 46 9
 140              	.LVL19:
 141              	.LBB48:
 142              	.LBB49:
  37:src/../h/TCB.hpp ****     TCB* get_next_sleep()const{ return next_sleep; }
 143              		.loc 2 37 43
  37:src/../h/TCB.hpp ****     TCB* get_next_sleep()const{ return next_sleep; }
 144              		.loc 2 37 54 is_stmt 0
 145 0068 233CA602 		sd	a0,56(a2)
 146              	.LVL20:
 147              	.L1:
 148              	.LBE49:
 149              	.LBE48:
  47:src/TS.cpp    ****     }
  48:src/TS.cpp    ****     else{
  49:src/TS.cpp    ****         head = tcb;
  50:src/TS.cpp    ****     }
  51:src/TS.cpp    **** //    printTS();
  52:src/TS.cpp    **** 
  53:src/TS.cpp    ****     return;
  54:src/TS.cpp    **** 
  55:src/TS.cpp    **** 
  56:src/TS.cpp    **** }
 150              		.loc 1 56 1
 151 006c 03348100 		ld	s0,8(sp)
 152              		.cfi_remember_state
 153              		.cfi_restore 8
 154              		.cfi_def_cfa 2, 16
 155 0070 13010101 		addi	sp,sp,16
 156              		.cfi_def_cfa_offset 0
 157 0074 67800000 		jr	ra
 158              	.LVL21:
 159              	.L7:
 160              		.cfi_restore_state
  49:src/TS.cpp    ****     }
 161              		.loc 1 49 9 is_stmt 1
  49:src/TS.cpp    ****     }
 162              		.loc 1 49 14 is_stmt 0
 163 0078 97070000 		sd	a0,.LANCHOR0,a5
 163      23B0A700 
 164              	.LVL22:
 165 0080 6FF0DFFE 		j	.L1
 166              		.cfi_endproc
 167              	.LFE29:
 169              		.align	2
 170              		.globl	_ZN2TS20decrement_and_removeEv
GAS LISTING /tmp/ccyarsbE.s 			page 6


 172              	_ZN2TS20decrement_and_removeEv:
 173              	.LFB30:
  57:src/TS.cpp    **** 
  58:src/TS.cpp    **** void TS::decrement_and_remove() {
 174              		.loc 1 58 33 is_stmt 1
 175              		.cfi_startproc
  59:src/TS.cpp    **** 
  60:src/TS.cpp    ****     if(!head)return;
 176              		.loc 1 60 5
 177              		.loc 1 60 8 is_stmt 0
 178 0084 97070000 		ld	a5,.LANCHOR0
 178      83B70700 
 179              		.loc 1 60 5
 180 008c 638A0706 		beqz	a5,.L14
  58:src/TS.cpp    **** 
 181              		.loc 1 58 33
 182 0090 130101FE 		addi	sp,sp,-32
 183              		.cfi_def_cfa_offset 32
 184 0094 233C1100 		sd	ra,24(sp)
 185 0098 23388100 		sd	s0,16(sp)
 186 009c 23349100 		sd	s1,8(sp)
 187              		.cfi_offset 1, -8
 188              		.cfi_offset 8, -16
 189              		.cfi_offset 9, -24
 190 00a0 13040102 		addi	s0,sp,32
 191              		.cfi_def_cfa 8, 0
  61:src/TS.cpp    **** 
  62:src/TS.cpp    ****     head->set_time_sleep(head->get_time_sleep() - 1);
 192              		.loc 1 62 5 is_stmt 1
 193              	.LVL23:
 194              	.LBB50:
 195              	.LBB51:
  41:src/../h/TCB.hpp ****     void set_time_sleep(uint64 new_time){ sleep = new_time; }
 196              		.loc 2 41 35
  41:src/../h/TCB.hpp ****     void set_time_sleep(uint64 new_time){ sleep = new_time; }
 197              		.loc 2 41 42 is_stmt 0
 198 00a4 03B78704 		ld	a4,72(a5)
 199              	.LVL24:
 200              	.LBE51:
 201              	.LBE50:
 202              		.loc 1 62 25
 203 00a8 1307F7FF 		addi	a4,a4,-1
 204              	.LVL25:
 205              	.LBB52:
 206              	.LBB53:
 207              		.loc 2 42 43 is_stmt 1
 208              		.loc 2 42 49 is_stmt 0
 209 00ac 23B4E704 		sd	a4,72(a5)
 210              	.LVL26:
 211              	.L12:
 212              	.LBE53:
 213              	.LBE52:
  63:src/TS.cpp    ****     TCB* tmp;
 214              		.loc 1 63 5 is_stmt 1
  64:src/TS.cpp    ****     while(head && !head->get_time_sleep()){
 215              		.loc 1 64 5
 216              		.loc 1 64 16
GAS LISTING /tmp/ccyarsbE.s 			page 7


 217              		.loc 1 64 41 is_stmt 0
 218 00b0 97040000 		ld	s1,.LANCHOR0
 218      83B40400 
 219              		.loc 1 64 16
 220 00b8 638A0402 		beqz	s1,.L10
 221              	.LVL27:
 222              	.LBB54:
 223              	.LBB55:
  41:src/../h/TCB.hpp ****     void set_time_sleep(uint64 new_time){ sleep = new_time; }
 224              		.loc 2 41 35 is_stmt 1 discriminator 1
  41:src/../h/TCB.hpp ****     void set_time_sleep(uint64 new_time){ sleep = new_time; }
 225              		.loc 2 41 42 is_stmt 0 discriminator 1
 226 00bc 83B78404 		ld	a5,72(s1)
 227              	.LVL28:
 228              	.LBE55:
 229              	.LBE54:
 230              		.loc 1 64 16 discriminator 1
 231 00c0 63960702 		bnez	a5,.L10
  65:src/TS.cpp    ****         tmp = head;
 232              		.loc 1 65 9 is_stmt 1
 233              	.LVL29:
  66:src/TS.cpp    ****         head = head->get_next_sleep();
 234              		.loc 1 66 9
 235              	.LBB56:
 236              	.LBB57:
  38:src/../h/TCB.hpp ****     void set_next_blocked(TCB* nextThread){ next_blocked = nextThread; }
 237              		.loc 2 38 33
  38:src/../h/TCB.hpp ****     void set_next_blocked(TCB* nextThread){ next_blocked = nextThread; }
 238              		.loc 2 38 40 is_stmt 0
 239 00c4 83B78403 		ld	a5,56(s1)
 240              	.LVL30:
 241              	.LBE57:
 242              	.LBE56:
 243              		.loc 1 66 14
 244 00c8 17070000 		sd	a5,.LANCHOR0,a4
 244      2330F700 
  67:src/TS.cpp    ****         tmp->set_next_sleep(nullptr);
 245              		.loc 1 67 9 is_stmt 1
 246              	.LVL31:
 247              	.LBB58:
 248              	.LBB59:
  37:src/../h/TCB.hpp ****     TCB* get_next_sleep()const{ return next_sleep; }
 249              		.loc 2 37 43
  37:src/../h/TCB.hpp ****     TCB* get_next_sleep()const{ return next_sleep; }
 250              		.loc 2 37 54 is_stmt 0
 251 00d0 23BC0402 		sd	zero,56(s1)
 252              	.LVL32:
 253              	.LBE59:
 254              	.LBE58:
  68:src/TS.cpp    ****         Scheduler::getInstance().put(tmp);
 255              		.loc 1 68 9 is_stmt 1
 256              		.loc 1 68 32 is_stmt 0
 257 00d4 97000000 		call	_ZN9Scheduler11getInstanceEv@plt
 257      E7800000 
 258              	.LVL33:
 259              		.loc 1 68 37
 260 00dc 93850400 		mv	a1,s1
GAS LISTING /tmp/ccyarsbE.s 			page 8


 261 00e0 97000000 		call	_ZN9Scheduler3putEP3TCB@plt
 261      E7800000 
 262              	.LVL34:
  64:src/TS.cpp    ****         tmp = head;
 263              		.loc 1 64 5
 264 00e8 6FF09FFC 		j	.L12
 265              	.LVL35:
 266              	.L10:
  69:src/TS.cpp    ****     }
  70:src/TS.cpp    ****     return;
  71:src/TS.cpp    **** 
  72:src/TS.cpp    **** }
 267              		.loc 1 72 1
 268 00ec 83308101 		ld	ra,24(sp)
 269              		.cfi_restore 1
 270 00f0 03340101 		ld	s0,16(sp)
 271              		.cfi_restore 8
 272              		.cfi_def_cfa 2, 32
 273 00f4 83348100 		ld	s1,8(sp)
 274              		.cfi_restore 9
 275 00f8 13010102 		addi	sp,sp,32
 276              		.cfi_def_cfa_offset 0
 277 00fc 67800000 		jr	ra
 278              	.L14:
 279 0100 67800000 		ret
 280              		.cfi_endproc
 281              	.LFE30:
 283              		.section	.rodata.str1.8,"aMS",@progbits,1
 284              		.align	3
 285              	.LC0:
 286 0000 74735F63 		.string	"ts_cache"
 286      61636865 
 286      00
 287              		.text
 288              		.align	2
 289              		.globl	_ZN2TS11getInstanceEv
 291              	_ZN2TS11getInstanceEv:
 292              	.LFB31:
  73:src/TS.cpp    **** 
  74:src/TS.cpp    **** TS &TS::getInstance() {
 293              		.loc 1 74 23 is_stmt 1
 294              		.cfi_startproc
  75:src/TS.cpp    ****     if(!ts_instance){
 295              		.loc 1 75 5
 296              		.loc 1 75 8 is_stmt 0
 297 0104 97070000 		ld	a5,.LANCHOR0+8
 297      83B70700 
 298              		.loc 1 75 5
 299 010c 63880700 		beqz	a5,.L23
  76:src/TS.cpp    ****         ts_cache = (kmem_cache_t*) kmem_cache_create("ts_cache", sizeof(TS), nullptr, nullptr);
  77:src/TS.cpp    ****         ts_instance = (TS*)kmem_cache_alloc(ts_cache);
  78:src/TS.cpp    ****     }
  79:src/TS.cpp    ****     return *ts_instance;
 300              		.loc 1 79 5 is_stmt 1
  80:src/TS.cpp    **** }
 301              		.loc 1 80 1 is_stmt 0
 302 0110 17050000 		ld	a0,.LANCHOR0+8
GAS LISTING /tmp/ccyarsbE.s 			page 9


 302      03350500 
 303 0118 67800000 		ret
 304              	.L23:
  74:src/TS.cpp    ****     if(!ts_instance){
 305              		.loc 1 74 23
 306 011c 130101FE 		addi	sp,sp,-32
 307              		.cfi_def_cfa_offset 32
 308 0120 233C1100 		sd	ra,24(sp)
 309 0124 23388100 		sd	s0,16(sp)
 310 0128 23349100 		sd	s1,8(sp)
 311              		.cfi_offset 1, -8
 312              		.cfi_offset 8, -16
 313              		.cfi_offset 9, -24
 314 012c 13040102 		addi	s0,sp,32
 315              		.cfi_def_cfa 8, 0
  76:src/TS.cpp    ****         ts_cache = (kmem_cache_t*) kmem_cache_create("ts_cache", sizeof(TS), nullptr, nullptr);
 316              		.loc 1 76 9 is_stmt 1
  76:src/TS.cpp    ****         ts_cache = (kmem_cache_t*) kmem_cache_create("ts_cache", sizeof(TS), nullptr, nullptr);
 317              		.loc 1 76 53 is_stmt 0
 318 0130 93060000 		li	a3,0
 319 0134 13060000 		li	a2,0
 320 0138 93051000 		li	a1,1
 321 013c 17050000 		lla	a0,.LC0
 321      13050500 
 322 0144 97000000 		call	_Z17kmem_cache_createPKcmPFvPvES3_@plt
 322      E7800000 
 323              	.LVL36:
  76:src/TS.cpp    ****         ts_cache = (kmem_cache_t*) kmem_cache_create("ts_cache", sizeof(TS), nullptr, nullptr);
 324              		.loc 1 76 18
 325 014c 97040000 		lla	s1,.LANCHOR0
 325      93840400 
 326 0154 23B8A400 		sd	a0,16(s1)
  77:src/TS.cpp    ****     }
 327              		.loc 1 77 9 is_stmt 1
  77:src/TS.cpp    ****     }
 328              		.loc 1 77 44 is_stmt 0
 329 0158 97000000 		call	_Z16kmem_cache_allocP12kmem_cache_s@plt
 329      E7800000 
 330              	.LVL37:
  77:src/TS.cpp    ****     }
 331              		.loc 1 77 21
 332 0160 23B4A400 		sd	a0,8(s1)
  79:src/TS.cpp    **** }
 333              		.loc 1 79 5 is_stmt 1
 334              		.loc 1 80 1 is_stmt 0
 335 0164 17050000 		ld	a0,.LANCHOR0+8
 335      03350500 
 336 016c 83308101 		ld	ra,24(sp)
 337              		.cfi_restore 1
 338 0170 03340101 		ld	s0,16(sp)
 339              		.cfi_restore 8
 340              		.cfi_def_cfa 2, 32
 341 0174 83348100 		ld	s1,8(sp)
 342              		.cfi_restore 9
 343 0178 13010102 		addi	sp,sp,32
 344              		.cfi_def_cfa_offset 0
 345 017c 67800000 		jr	ra
GAS LISTING /tmp/ccyarsbE.s 			page 10


 346              		.cfi_endproc
 347              	.LFE31:
 349              		.globl	_ZN2TS4headE
 350              		.globl	_ZN2TS8ts_cacheE
 351              		.globl	_ZN2TS11ts_instanceE
 352              		.bss
 353              		.align	3
 354              		.set	.LANCHOR0,. + 0
 357              	_ZN2TS4headE:
 358 0000 00000000 		.zero	8
 358      00000000 
 361              	_ZN2TS11ts_instanceE:
 362 0008 00000000 		.zero	8
 362      00000000 
 365              	_ZN2TS8ts_cacheE:
 366 0010 00000000 		.zero	8
 366      00000000 
 367              		.text
 368              	.Letext0:
 369              		.file 3 "src/../h/../lib/hw.h"
 370              		.file 4 "src/../h/SlabI.h"
 371              		.file 5 "src/../h/TS.hpp"
 372              		.file 6 "src/../h/../h/scheduler.hpp"
 373              		.file 7 "src/../h/../h/../test/../h/syscall_c.h"
GAS LISTING /tmp/ccyarsbE.s 			page 11

