GAS LISTING /tmp/cc1Iz4fH.s 			page 1


   1              		.file	"test_drugi.cpp"
   2              		.option pic
   3              		.option norelax
   4              		.text
   5              	.Ltext0:
   6              		.align	2
   7              		.globl	_Z6memsetPKvii
   9              	_Z6memsetPKvii:
  10              	.LFB40:
  11              		.file 1 "test/test_drugi.cpp"
   1:test/test_drugi.cpp **** //
   2:test/test_drugi.cpp **** // Created by os on 9/9/23.
   3:test/test_drugi.cpp **** //
   4:test/test_drugi.cpp **** #include "test_drugi.h"
   5:test/test_drugi.cpp **** 
   6:test/test_drugi.cpp **** #include "../h/SlabI.h"
   7:test/test_drugi.cpp **** #include "printing.hpp"
   8:test/test_drugi.cpp **** 
   9:test/test_drugi.cpp **** #define RUN_NUM (5)
  10:test/test_drugi.cpp **** #define ITERATIONS (1000)
  11:test/test_drugi.cpp **** 
  12:test/test_drugi.cpp **** #define shared_size (7)
  13:test/test_drugi.cpp **** #define MASK (0xA5)
  14:test/test_drugi.cpp **** 
  15:test/test_drugi.cpp **** struct data_s {
  16:test/test_drugi.cpp ****     int id;
  17:test/test_drugi.cpp ****     kmem_cache_t  *shared;
  18:test/test_drugi.cpp ****     int iterations;
  19:test/test_drugi.cpp **** };
  20:test/test_drugi.cpp **** 
  21:test/test_drugi.cpp **** const char * const CACHE_NAMES[] = {"tc_0",
  22:test/test_drugi.cpp ****                                     "tc_1",
  23:test/test_drugi.cpp ****                                     "tc_2",
  24:test/test_drugi.cpp ****                                     "tc_3",
  25:test/test_drugi.cpp ****                                     "tc_4"};
  26:test/test_drugi.cpp **** 
  27:test/test_drugi.cpp **** void memset(const void *data, int size, int value) {
  12              		.loc 1 27 52
  13              		.cfi_startproc
  14              	.LVL0:
  15 0000 130101FF 		addi	sp,sp,-16
  16              		.cfi_def_cfa_offset 16
  17 0004 23348100 		sd	s0,8(sp)
  18              		.cfi_offset 8, -8
  19 0008 13040101 		addi	s0,sp,16
  20              		.cfi_def_cfa 8, 0
  28:test/test_drugi.cpp ****     char *ptr = (char *)data;
  21              		.loc 1 28 5
  22              	.LVL1:
  29:test/test_drugi.cpp ****     for (int j = 0; j < size; j++) {
  23              		.loc 1 29 5
  24              	.LBB2:
  25              		.loc 1 29 14 is_stmt 0
  26 000c 93070000 		li	a5,0
  27              	.LVL2:
  28              	.L3:
  29              		.loc 1 29 23 is_stmt 1 discriminator 3
GAS LISTING /tmp/cc1Iz4fH.s 			page 2


  30 0010 63DAB700 		bge	a5,a1,.L1
  30:test/test_drugi.cpp ****         ptr[j] = (char)value;
  31              		.loc 1 30 9 discriminator 2
  32              		.loc 1 30 14 is_stmt 0 discriminator 2
  33 0014 3307F500 		add	a4,a0,a5
  34              		.loc 1 30 16 discriminator 2
  35 0018 2300C700 		sb	a2,0(a4)
  29:test/test_drugi.cpp ****     for (int j = 0; j < size; j++) {
  36              		.loc 1 29 5 is_stmt 1 discriminator 2
  37 001c 9B871700 		addiw	a5,a5,1
  38              	.LVL3:
  39 0020 6FF01FFF 		j	.L3
  40              	.LVL4:
  41              	.L1:
  42              	.LBE2:
  31:test/test_drugi.cpp ****     }
  32:test/test_drugi.cpp **** }
  43              		.loc 1 32 1 is_stmt 0
  44 0024 03348100 		ld	s0,8(sp)
  45              		.cfi_restore 8
  46              		.cfi_def_cfa 2, 16
  47 0028 13010101 		addi	sp,sp,16
  48              		.cfi_def_cfa_offset 0
  49 002c 67800000 		jr	ra
  50              		.cfi_endproc
  51              	.LFE40:
  53              		.section	.rodata.str1.8,"aMS",@progbits,1
  54              		.align	3
  55              	.LC0:
  56 0000 53686172 		.string	"Shared object constructed.\n"
  56      6564206F 
  56      626A6563 
  56      7420636F 
  56      6E737472 
  57              		.text
  58              		.align	2
  59              		.globl	_Z9constructPv
  61              	_Z9constructPv:
  62              	.LFB41:
  33:test/test_drugi.cpp **** 
  34:test/test_drugi.cpp **** void construct(void *data) {
  63              		.loc 1 34 28 is_stmt 1
  64              		.cfi_startproc
  65              	.LVL5:
  66 0030 130101FE 		addi	sp,sp,-32
  67              		.cfi_def_cfa_offset 32
  68 0034 233C1100 		sd	ra,24(sp)
  69 0038 23388100 		sd	s0,16(sp)
  70 003c 23349100 		sd	s1,8(sp)
  71              		.cfi_offset 1, -8
  72              		.cfi_offset 8, -16
  73              		.cfi_offset 9, -24
  74 0040 13040102 		addi	s0,sp,32
  75              		.cfi_def_cfa 8, 0
  76 0044 93040500 		mv	s1,a0
  35:test/test_drugi.cpp ****     static int i = 1;
  77              		.loc 1 35 5
GAS LISTING /tmp/cc1Iz4fH.s 			page 3


  36:test/test_drugi.cpp ****     printInt(i++);
  78              		.loc 1 36 5
  79              		.loc 1 36 13 is_stmt 0
  80 0048 97070000 		lla	a5,.LANCHOR0
  80      93870700 
  81 0050 03A50700 		lw	a0,0(a5)
  82              	.LVL6:
  83 0054 1B071500 		addiw	a4,a0,1
  84 0058 23A0E700 		sw	a4,0(a5)
  85 005c 13060000 		li	a2,0
  86 0060 9305A000 		li	a1,10
  87 0064 97000000 		call	_Z8printIntiii@plt
  87      E7800000 
  88              	.LVL7:
  37:test/test_drugi.cpp ****     printString("Shared object constructed.\n");
  89              		.loc 1 37 5 is_stmt 1
  90              		.loc 1 37 16 is_stmt 0
  91 006c 17050000 		lla	a0,.LC0
  91      13050500 
  92 0074 97000000 		call	_Z11printStringPKc@plt
  92      E7800000 
  93              	.LVL8:
  38:test/test_drugi.cpp ****     memset(data, shared_size, MASK);
  94              		.loc 1 38 5 is_stmt 1
  95              		.loc 1 38 11 is_stmt 0
  96 007c 1306500A 		li	a2,165
  97 0080 93057000 		li	a1,7
  98 0084 13850400 		mv	a0,s1
  99 0088 97000000 		call	_Z6memsetPKvii
  99      E7800000 
 100              	.LVL9:
  39:test/test_drugi.cpp **** }
 101              		.loc 1 39 1
 102 0090 83308101 		ld	ra,24(sp)
 103              		.cfi_restore 1
 104 0094 03340101 		ld	s0,16(sp)
 105              		.cfi_restore 8
 106              		.cfi_def_cfa 2, 32
 107 0098 83348100 		ld	s1,8(sp)
 108              		.cfi_restore 9
 109              	.LVL10:
 110 009c 13010102 		addi	sp,sp,32
 111              		.cfi_def_cfa_offset 0
 112 00a0 67800000 		jr	ra
 113              		.cfi_endproc
 114              	.LFE41:
 116              		.align	2
 117              		.globl	_Z5checkPvm
 119              	_Z5checkPvm:
 120              	.LFB42:
  40:test/test_drugi.cpp **** 
  41:test/test_drugi.cpp **** int check(void *data, size_t size) {
 121              		.loc 1 41 36 is_stmt 1
 122              		.cfi_startproc
 123              	.LVL11:
 124 00a4 130101FF 		addi	sp,sp,-16
 125              		.cfi_def_cfa_offset 16
GAS LISTING /tmp/cc1Iz4fH.s 			page 4


 126 00a8 23348100 		sd	s0,8(sp)
 127              		.cfi_offset 8, -8
 128 00ac 13040101 		addi	s0,sp,16
 129              		.cfi_def_cfa 8, 0
 130 00b0 13060500 		mv	a2,a0
  42:test/test_drugi.cpp ****     int ret = 1;
 131              		.loc 1 42 5
 132              	.LVL12:
  43:test/test_drugi.cpp ****     for (int i = 0; i < size; i++) {
 133              		.loc 1 43 5
 134              	.LBB3:
 135              		.loc 1 43 14 is_stmt 0
 136 00b4 93070000 		li	a5,0
 137              	.LBE3:
  42:test/test_drugi.cpp ****     int ret = 1;
 138              		.loc 1 42 9
 139 00b8 13051000 		li	a0,1
 140              	.LVL13:
 141 00bc 6F008000 		j	.L10
 142              	.LVL14:
 143              	.L9:
 144              	.LBB4:
 145              		.loc 1 43 5 is_stmt 1 discriminator 2
 146 00c0 9B871700 		addiw	a5,a5,1
 147              	.LVL15:
 148              	.L10:
 149              		.loc 1 43 23 discriminator 1
 150 00c4 63FEB700 		bgeu	a5,a1,.L8
  44:test/test_drugi.cpp ****         if (((unsigned char *)data)[i] != MASK) {
 151              		.loc 1 44 9
 152              		.loc 1 44 38 is_stmt 0
 153 00c8 3307F600 		add	a4,a2,a5
 154 00cc 83460700 		lbu	a3,0(a4)
 155              		.loc 1 44 9
 156 00d0 1307500A 		li	a4,165
 157 00d4 E386E6FE 		beq	a3,a4,.L9
  45:test/test_drugi.cpp ****             ret = 0;
 158              		.loc 1 45 17
 159 00d8 13050000 		li	a0,0
 160              	.LVL16:
 161 00dc 6FF05FFE 		j	.L9
 162              	.LVL17:
 163              	.L8:
 164              	.LBE4:
  46:test/test_drugi.cpp ****         }
  47:test/test_drugi.cpp ****     }
  48:test/test_drugi.cpp **** 
  49:test/test_drugi.cpp ****     return ret;
 165              		.loc 1 49 5 is_stmt 1
  50:test/test_drugi.cpp **** }
 166              		.loc 1 50 1 is_stmt 0
 167 00e0 03348100 		ld	s0,8(sp)
 168              		.cfi_restore 8
 169              		.cfi_def_cfa 2, 16
 170 00e4 13010101 		addi	sp,sp,16
 171              		.cfi_def_cfa_offset 0
 172 00e8 67800000 		jr	ra
GAS LISTING /tmp/cc1Iz4fH.s 			page 5


 173              		.cfi_endproc
 174              	.LFE42:
 176              		.section	.rodata.str1.8
 177 001c 00000000 		.align	3
 178              	.LC1:
 179 0020 56616C75 		.string	"Value not correct!"
 179      65206E6F 
 179      7420636F 
 179      72726563 
 179      742100
 180              		.text
 181              		.align	2
 182              		.globl	_Z4workPv
 184              	_Z4workPv:
 185              	.LFB43:
  51:test/test_drugi.cpp **** 
  52:test/test_drugi.cpp **** struct objects_s {
  53:test/test_drugi.cpp ****     kmem_cache_t *cache;
  54:test/test_drugi.cpp ****     void *data;
  55:test/test_drugi.cpp **** };
  56:test/test_drugi.cpp **** 
  57:test/test_drugi.cpp **** void work(void* pdata) {
 186              		.loc 1 57 24 is_stmt 1
 187              		.cfi_startproc
 188              	.LVL18:
 189 00ec 130101F8 		addi	sp,sp,-128
 190              		.cfi_def_cfa_offset 128
 191 00f0 233C1106 		sd	ra,120(sp)
 192 00f4 23388106 		sd	s0,112(sp)
 193 00f8 23349106 		sd	s1,104(sp)
 194 00fc 23302107 		sd	s2,96(sp)
 195 0100 233C3105 		sd	s3,88(sp)
 196 0104 23384105 		sd	s4,80(sp)
 197 0108 23345105 		sd	s5,72(sp)
 198 010c 23306105 		sd	s6,64(sp)
 199 0110 233C7103 		sd	s7,56(sp)
 200 0114 23388103 		sd	s8,48(sp)
 201 0118 23349103 		sd	s9,40(sp)
 202              		.cfi_offset 1, -8
 203              		.cfi_offset 8, -16
 204              		.cfi_offset 9, -24
 205              		.cfi_offset 18, -32
 206              		.cfi_offset 19, -40
 207              		.cfi_offset 20, -48
 208              		.cfi_offset 21, -56
 209              		.cfi_offset 22, -64
 210              		.cfi_offset 23, -72
 211              		.cfi_offset 24, -80
 212              		.cfi_offset 25, -88
 213 011c 13040108 		addi	s0,sp,128
 214              		.cfi_def_cfa 8, 0
  58:test/test_drugi.cpp ****     struct data_s data = *(struct data_s*) pdata;
 215              		.loc 1 58 5
 216              		.loc 1 58 19 is_stmt 0
 217 0120 033C0500 		ld	s8,0(a0)
 218 0124 233484F9 		sd	s8,-120(s0)
 219 0128 83378500 		ld	a5,8(a0)
GAS LISTING /tmp/cc1Iz4fH.s 			page 6


 220 012c 2338F4F8 		sd	a5,-112(s0)
 221 0130 83370501 		ld	a5,16(a0)
 222 0134 233CF4F8 		sd	a5,-104(s0)
  59:test/test_drugi.cpp ****     int size = 0;
 223              		.loc 1 59 5 is_stmt 1
 224              	.LVL19:
  60:test/test_drugi.cpp ****     int object_size = data.id + 1;
 225              		.loc 1 60 5
 226              		.loc 1 60 28 is_stmt 0
 227 0138 9B070C00 		sext.w	a5,s8
 228              		.loc 1 60 9
 229 013c 1B0C1C00 		addiw	s8,s8,1
 230              	.LVL20:
  61:test/test_drugi.cpp ****     kmem_cache_t *cache = kmem_cache_create(CACHE_NAMES[data.id], object_size, 0, 0);
 231              		.loc 1 61 5 is_stmt 1
 232              		.loc 1 61 64 is_stmt 0
 233 0140 13973700 		slli	a4,a5,3
 234 0144 97070000 		lla	a5,.LANCHOR1
 234      93870700 
 235              	.LVL21:
 236 014c B387E700 		add	a5,a5,a4
 237              		.loc 1 61 44
 238 0150 130B0C00 		mv	s6,s8
 239 0154 93060000 		li	a3,0
 240 0158 13060000 		li	a2,0
 241 015c 93050C00 		mv	a1,s8
 242 0160 03B50700 		ld	a0,0(a5)
 243              	.LVL22:
 244 0164 97000000 		call	_Z17kmem_cache_createPKcmPFvPvES3_@plt
 244      E7800000 
 245              	.LVL23:
 246 016c 130A0500 		mv	s4,a0
 247              	.LVL24:
  62:test/test_drugi.cpp **** 
  63:test/test_drugi.cpp ****     struct objects_s *objs = (struct objects_s*)(kmalloc(sizeof(struct objects_s) * data.iterations
 248              		.loc 1 63 5 is_stmt 1
 249              		.loc 1 63 90 is_stmt 0
 250 0170 832B84F9 		lw	s7,-104(s0)
 251              		.loc 1 63 57
 252 0174 13954B00 		slli	a0,s7,4
 253              	.LVL25:
 254 0178 97000000 		call	_Z7kmallocm@plt
 254      E7800000 
 255              	.LVL26:
 256 0180 930A0500 		mv	s5,a0
 257              	.LBB5:
  64:test/test_drugi.cpp **** 
  65:test/test_drugi.cpp ****     for (int i = 0; i < data.iterations; i++) {
 258              		.loc 1 65 14
 259 0184 93040000 		li	s1,0
 260              	.LBE5:
  59:test/test_drugi.cpp ****     int object_size = data.id + 1;
 261              		.loc 1 59 9
 262 0188 93090000 		li	s3,0
 263 018c 6F008003 		j	.L17
 264              	.LVL27:
 265              	.L15:
GAS LISTING /tmp/cc1Iz4fH.s 			page 7


 266              	.LBB6:
  66:test/test_drugi.cpp ****         if (i % 100 == 0) {
  67:test/test_drugi.cpp ****             objs[size].data = kmem_cache_alloc(data.shared);
  68:test/test_drugi.cpp ****             objs[size].cache = data.shared;
  69:test/test_drugi.cpp ****             if (!check(objs[size].data, shared_size)) {
  70:test/test_drugi.cpp ****                 printString("Value not correct!");
  71:test/test_drugi.cpp ****             }
  72:test/test_drugi.cpp ****         }
  73:test/test_drugi.cpp ****         else {
  74:test/test_drugi.cpp ****             objs[size].data = kmem_cache_alloc(cache);
 267              		.loc 1 74 13 is_stmt 1
 268              		.loc 1 74 22 is_stmt 0
 269 0190 13994900 		slli	s2,s3,4
 270 0194 33892A01 		add	s2,s5,s2
 271              		.loc 1 74 47
 272 0198 13050A00 		mv	a0,s4
 273 019c 97000000 		call	_Z16kmem_cache_allocP12kmem_cache_s@plt
 273      E7800000 
 274              	.LVL28:
 275              		.loc 1 74 29
 276 01a4 2334A900 		sd	a0,8(s2)
  75:test/test_drugi.cpp ****             objs[size].cache = cache;
 277              		.loc 1 75 13 is_stmt 1
 278              		.loc 1 75 30 is_stmt 0
 279 01a8 23304901 		sd	s4,0(s2)
  76:test/test_drugi.cpp ****             memset(objs[size].data, object_size, MASK);
 280              		.loc 1 76 13 is_stmt 1
 281              		.loc 1 76 19 is_stmt 0
 282 01ac 1306500A 		li	a2,165
 283 01b0 93050C00 		mv	a1,s8
 284 01b4 97000000 		call	_Z6memsetPKvii
 284      E7800000 
 285              	.LVL29:
 286              	.L16:
  77:test/test_drugi.cpp ****         }
  78:test/test_drugi.cpp ****         size++;
 287              		.loc 1 78 9 is_stmt 1 discriminator 2
 288              		.loc 1 78 13 is_stmt 0 discriminator 2
 289 01bc 9B891900 		addiw	s3,s3,1
 290              	.LVL30:
  65:test/test_drugi.cpp ****         if (i % 100 == 0) {
 291              		.loc 1 65 5 is_stmt 1 discriminator 2
 292 01c0 9B841400 		addiw	s1,s1,1
 293              	.LVL31:
 294              	.L17:
  65:test/test_drugi.cpp ****         if (i % 100 == 0) {
 295              		.loc 1 65 23 discriminator 1
 296 01c4 63DA7405 		ble	s7,s1,.L14
  66:test/test_drugi.cpp ****             objs[size].data = kmem_cache_alloc(data.shared);
 297              		.loc 1 66 9
  66:test/test_drugi.cpp ****             objs[size].data = kmem_cache_alloc(data.shared);
 298              		.loc 1 66 15 is_stmt 0
 299 01c8 93074006 		li	a5,100
 300 01cc BBE7F402 		remw	a5,s1,a5
  66:test/test_drugi.cpp ****             objs[size].data = kmem_cache_alloc(data.shared);
 301              		.loc 1 66 9
 302 01d0 E39007FC 		bnez	a5,.L15
GAS LISTING /tmp/cc1Iz4fH.s 			page 8


  67:test/test_drugi.cpp ****             objs[size].cache = data.shared;
 303              		.loc 1 67 13 is_stmt 1
  67:test/test_drugi.cpp ****             objs[size].cache = data.shared;
 304              		.loc 1 67 47 is_stmt 0
 305 01d4 833C04F9 		ld	s9,-112(s0)
  67:test/test_drugi.cpp ****             objs[size].cache = data.shared;
 306              		.loc 1 67 22
 307 01d8 13994900 		slli	s2,s3,4
 308 01dc 33892A01 		add	s2,s5,s2
  67:test/test_drugi.cpp ****             objs[size].cache = data.shared;
 309              		.loc 1 67 47
 310 01e0 13850C00 		mv	a0,s9
 311 01e4 97000000 		call	_Z16kmem_cache_allocP12kmem_cache_s@plt
 311      E7800000 
 312              	.LVL32:
  67:test/test_drugi.cpp ****             objs[size].cache = data.shared;
 313              		.loc 1 67 29
 314 01ec 2334A900 		sd	a0,8(s2)
  68:test/test_drugi.cpp ****             if (!check(objs[size].data, shared_size)) {
 315              		.loc 1 68 13 is_stmt 1
  68:test/test_drugi.cpp ****             if (!check(objs[size].data, shared_size)) {
 316              		.loc 1 68 30 is_stmt 0
 317 01f0 23309901 		sd	s9,0(s2)
  69:test/test_drugi.cpp ****                 printString("Value not correct!");
 318              		.loc 1 69 13 is_stmt 1
  69:test/test_drugi.cpp ****                 printString("Value not correct!");
 319              		.loc 1 69 23 is_stmt 0
 320 01f4 93057000 		li	a1,7
 321 01f8 97000000 		call	_Z5checkPvm
 321      E7800000 
 322              	.LVL33:
  69:test/test_drugi.cpp ****                 printString("Value not correct!");
 323              		.loc 1 69 13
 324 0200 E31E05FA 		bnez	a0,.L16
  70:test/test_drugi.cpp ****             }
 325              		.loc 1 70 17 is_stmt 1
  70:test/test_drugi.cpp ****             }
 326              		.loc 1 70 28 is_stmt 0
 327 0204 17050000 		lla	a0,.LC1
 327      13050500 
 328 020c 97000000 		call	_Z11printStringPKc@plt
 328      E7800000 
 329              	.LVL34:
 330 0214 6FF09FFA 		j	.L16
 331              	.L14:
 332              	.LBE6:
  79:test/test_drugi.cpp ****     }
  80:test/test_drugi.cpp **** 
  81:test/test_drugi.cpp ****     kmem_cache_info(cache);
 333              		.loc 1 81 5 is_stmt 1
 334              		.loc 1 81 20 is_stmt 0
 335 0218 13050A00 		mv	a0,s4
 336 021c 97000000 		call	_Z15kmem_cache_infoP12kmem_cache_s@plt
 336      E7800000 
 337              	.LVL35:
  82:test/test_drugi.cpp ****     kmem_cache_info(data.shared);
 338              		.loc 1 82 5 is_stmt 1
GAS LISTING /tmp/cc1Iz4fH.s 			page 9


 339              		.loc 1 82 20 is_stmt 0
 340 0224 033504F9 		ld	a0,-112(s0)
 341 0228 97000000 		call	_Z15kmem_cache_infoP12kmem_cache_s@plt
 341      E7800000 
 342              	.LVL36:
 343              	.LBB7:
  83:test/test_drugi.cpp **** 
  84:test/test_drugi.cpp ****     for (int i = 0; i < size; i++) {
 344              		.loc 1 84 14
 345 0230 13090000 		li	s2,0
 346 0234 6F000003 		j	.L21
 347              	.LVL37:
 348              	.L22:
  85:test/test_drugi.cpp ****         if (!check(objs[i].data, (cache == objs[i].cache) ? object_size : shared_size)) {
 349              		.loc 1 85 19
 350 0238 93050B00 		mv	a1,s6
 351 023c 6F004004 		j	.L19
 352              	.L24:
  86:test/test_drugi.cpp ****             printString("Value not correct!");
 353              		.loc 1 86 13 is_stmt 1
 354              		.loc 1 86 24 is_stmt 0
 355 0240 17050000 		lla	a0,.LC1
 355      13050500 
 356 0248 97000000 		call	_Z11printStringPKc@plt
 356      E7800000 
 357              	.LVL38:
 358              	.L20:
  87:test/test_drugi.cpp ****         }
  88:test/test_drugi.cpp ****         kmem_cache_free(objs[i].cache, objs[i].data);
 359              		.loc 1 88 9 is_stmt 1
 360              		.loc 1 88 24 is_stmt 0
 361 0250 83B58400 		ld	a1,8(s1)
 362 0254 03B50400 		ld	a0,0(s1)
 363 0258 97000000 		call	_Z15kmem_cache_freeP12kmem_cache_sPv@plt
 363      E7800000 
 364              	.LVL39:
  84:test/test_drugi.cpp ****         if (!check(objs[i].data, (cache == objs[i].cache) ? object_size : shared_size)) {
 365              		.loc 1 84 5 is_stmt 1
 366 0260 1B091900 		addiw	s2,s2,1
 367              	.LVL40:
 368              	.L21:
  84:test/test_drugi.cpp ****         if (!check(objs[i].data, (cache == objs[i].cache) ? object_size : shared_size)) {
 369              		.loc 1 84 23 discriminator 1
 370 0264 63563903 		ble	s3,s2,.L18
  85:test/test_drugi.cpp ****             printString("Value not correct!");
 371              		.loc 1 85 9
  85:test/test_drugi.cpp ****             printString("Value not correct!");
 372              		.loc 1 85 26 is_stmt 0
 373 0268 93144900 		slli	s1,s2,4
 374 026c B3849A00 		add	s1,s5,s1
  85:test/test_drugi.cpp ****             printString("Value not correct!");
 375              		.loc 1 85 19
 376 0270 03B58400 		ld	a0,8(s1)
  85:test/test_drugi.cpp ****             printString("Value not correct!");
 377              		.loc 1 85 52
 378 0274 83B70400 		ld	a5,0(s1)
  85:test/test_drugi.cpp ****             printString("Value not correct!");
GAS LISTING /tmp/cc1Iz4fH.s 			page 10


 379              		.loc 1 85 19
 380 0278 E38047FD 		beq	a5,s4,.L22
 381 027c 93057000 		li	a1,7
 382              	.L19:
  85:test/test_drugi.cpp ****             printString("Value not correct!");
 383              		.loc 1 85 19 discriminator 4
 384 0280 97000000 		call	_Z5checkPvm
 384      E7800000 
 385              	.LVL41:
  85:test/test_drugi.cpp ****             printString("Value not correct!");
 386              		.loc 1 85 9 discriminator 4
 387 0288 E31405FC 		bnez	a0,.L20
 388 028c 6FF05FFB 		j	.L24
 389              	.L18:
 390              	.LBE7:
  89:test/test_drugi.cpp ****     }
  90:test/test_drugi.cpp **** 
  91:test/test_drugi.cpp ****     kfree(objs);
 391              		.loc 1 91 5 is_stmt 1
 392              		.loc 1 91 10 is_stmt 0
 393 0290 13850A00 		mv	a0,s5
 394 0294 97000000 		call	_Z5kfreePKv@plt
 394      E7800000 
 395              	.LVL42:
  92:test/test_drugi.cpp ****     kmem_cache_destroy(cache);
 396              		.loc 1 92 5 is_stmt 1
 397              		.loc 1 92 23 is_stmt 0
 398 029c 13050A00 		mv	a0,s4
 399 02a0 97000000 		call	_Z18kmem_cache_destroyP12kmem_cache_s@plt
 399      E7800000 
 400              	.LVL43:
  93:test/test_drugi.cpp **** }
 401              		.loc 1 93 1
 402 02a8 83308107 		ld	ra,120(sp)
 403              		.cfi_restore 1
 404 02ac 03340107 		ld	s0,112(sp)
 405              		.cfi_restore 8
 406              		.cfi_def_cfa 2, 128
 407              	.LVL44:
 408 02b0 83348106 		ld	s1,104(sp)
 409              		.cfi_restore 9
 410 02b4 03390106 		ld	s2,96(sp)
 411              		.cfi_restore 18
 412              	.LVL45:
 413 02b8 83398105 		ld	s3,88(sp)
 414              		.cfi_restore 19
 415              	.LVL46:
 416 02bc 033A0105 		ld	s4,80(sp)
 417              		.cfi_restore 20
 418              	.LVL47:
 419 02c0 833A8104 		ld	s5,72(sp)
 420              		.cfi_restore 21
 421 02c4 033B0104 		ld	s6,64(sp)
 422              		.cfi_restore 22
 423 02c8 833B8103 		ld	s7,56(sp)
 424              		.cfi_restore 23
 425 02cc 033C0103 		ld	s8,48(sp)
GAS LISTING /tmp/cc1Iz4fH.s 			page 11


 426              		.cfi_restore 24
 427 02d0 833C8102 		ld	s9,40(sp)
 428              		.cfi_restore 25
 429 02d4 13010108 		addi	sp,sp,128
 430              		.cfi_def_cfa_offset 0
 431              	.LVL48:
 432 02d8 67800000 		jr	ra
 433              		.cfi_endproc
 434              	.LFE43:
 436              		.align	2
 437              		.globl	_Z4runsPFvPvEP6data_si
 439              	_Z4runsPFvPvEP6data_si:
 440              	.LFB44:
  94:test/test_drugi.cpp **** 
  95:test/test_drugi.cpp **** 
  96:test/test_drugi.cpp **** 
  97:test/test_drugi.cpp **** void runs(void(*work)(void*), struct data_s* data, int num) {
 441              		.loc 1 97 61 is_stmt 1
 442              		.cfi_startproc
 443              	.LVL49:
 444 02dc 130101FB 		addi	sp,sp,-80
 445              		.cfi_def_cfa_offset 80
 446 02e0 23341104 		sd	ra,72(sp)
 447 02e4 23308104 		sd	s0,64(sp)
 448 02e8 233C9102 		sd	s1,56(sp)
 449 02ec 23382103 		sd	s2,48(sp)
 450 02f0 23343103 		sd	s3,40(sp)
 451 02f4 23304103 		sd	s4,32(sp)
 452              		.cfi_offset 1, -8
 453              		.cfi_offset 8, -16
 454              		.cfi_offset 9, -24
 455              		.cfi_offset 18, -32
 456              		.cfi_offset 19, -40
 457              		.cfi_offset 20, -48
 458 02f8 13040105 		addi	s0,sp,80
 459              		.cfi_def_cfa 8, 0
 460 02fc 130A0500 		mv	s4,a0
 461 0300 13890500 		mv	s2,a1
 462 0304 93090600 		mv	s3,a2
  98:test/test_drugi.cpp ****     for (int i = 0; i < num; i++) { // 5 puta
 463              		.loc 1 98 5
 464              	.LVL50:
 465              	.LBB8:
 466              		.loc 1 98 14 is_stmt 0
 467 0308 93040000 		li	s1,0
 468              	.LVL51:
 469              	.L27:
 470              		.loc 1 98 23 is_stmt 1 discriminator 1
 471 030c 63D83403 		bge	s1,s3,.L25
 472              	.LBB9:
  99:test/test_drugi.cpp ****         struct data_s private_data;
 473              		.loc 1 99 9
 100:test/test_drugi.cpp ****         private_data = *(struct data_s*) data;
 474              		.loc 1 100 9
 475              		.loc 1 100 22 is_stmt 0
 476 0310 83370900 		ld	a5,0(s2)
 477 0314 233CF4FA 		sd	a5,-72(s0)
GAS LISTING /tmp/cc1Iz4fH.s 			page 12


 478 0318 83378900 		ld	a5,8(s2)
 479 031c 2330F4FC 		sd	a5,-64(s0)
 480 0320 83370901 		ld	a5,16(s2)
 481 0324 2334F4FC 		sd	a5,-56(s0)
 101:test/test_drugi.cpp ****         private_data.id = i;
 482              		.loc 1 101 9 is_stmt 1
 483              		.loc 1 101 25 is_stmt 0
 484 0328 232C94FA 		sw	s1,-72(s0)
 102:test/test_drugi.cpp ****         work(&private_data);
 485              		.loc 1 102 9 is_stmt 1
 486              		.loc 1 102 13 is_stmt 0
 487 032c 130584FB 		addi	a0,s0,-72
 488 0330 E7000A00 		jalr	s4
 489              	.LVL52:
 490              	.LBE9:
  98:test/test_drugi.cpp ****         struct data_s private_data;
 491              		.loc 1 98 5 is_stmt 1
 492 0334 9B841400 		addiw	s1,s1,1
 493              	.LVL53:
 494 0338 6FF05FFD 		j	.L27
 495              	.LVL54:
 496              	.L25:
 497              	.LBE8:
 103:test/test_drugi.cpp ****     }
 104:test/test_drugi.cpp **** }
 498              		.loc 1 104 1 is_stmt 0
 499 033c 83308104 		ld	ra,72(sp)
 500              		.cfi_restore 1
 501 0340 03340104 		ld	s0,64(sp)
 502              		.cfi_restore 8
 503              		.cfi_def_cfa 2, 80
 504 0344 83348103 		ld	s1,56(sp)
 505              		.cfi_restore 9
 506              	.LVL55:
 507 0348 03390103 		ld	s2,48(sp)
 508              		.cfi_restore 18
 509              	.LVL56:
 510 034c 83398102 		ld	s3,40(sp)
 511              		.cfi_restore 19
 512 0350 033A0102 		ld	s4,32(sp)
 513              		.cfi_restore 20
 514              	.LVL57:
 515 0354 13010105 		addi	sp,sp,80
 516              		.cfi_def_cfa_offset 0
 517 0358 67800000 		jr	ra
 518              		.cfi_endproc
 519              	.LFE44:
 521              		.section	.rodata.str1.8
 522 0033 00000000 		.align	3
 522      00
 523              	.LC2:
 524 0038 73686172 		.string	"shared object"
 524      6564206F 
 524      626A6563 
 524      7400
 525              		.text
 526              		.align	2
GAS LISTING /tmp/cc1Iz4fH.s 			page 13


 527              		.globl	_Z10test_drugiv
 529              	_Z10test_drugiv:
 530              	.LFB45:
 105:test/test_drugi.cpp **** 
 106:test/test_drugi.cpp **** void test_drugi() {
 531              		.loc 1 106 19 is_stmt 1
 532              		.cfi_startproc
 533 035c 130101FC 		addi	sp,sp,-64
 534              		.cfi_def_cfa_offset 64
 535 0360 233C1102 		sd	ra,56(sp)
 536 0364 23388102 		sd	s0,48(sp)
 537 0368 23349102 		sd	s1,40(sp)
 538              		.cfi_offset 1, -8
 539              		.cfi_offset 8, -16
 540              		.cfi_offset 9, -24
 541 036c 13040104 		addi	s0,sp,64
 542              		.cfi_def_cfa 8, 0
 107:test/test_drugi.cpp ****     kmem_cache_t *shared = kmem_cache_create("shared object", shared_size, construct, nullptr);
 543              		.loc 1 107 5
 544              		.loc 1 107 45 is_stmt 0
 545 0370 93060000 		li	a3,0
 546 0374 17060000 		lla	a2,_Z9constructPv
 546      13060600 
 547 037c 93057000 		li	a1,7
 548 0380 17050000 		lla	a0,.LC2
 548      13050500 
 549 0388 97000000 		call	_Z17kmem_cache_createPKcmPFvPvES3_@plt
 549      E7800000 
 550              	.LVL58:
 551 0390 93040500 		mv	s1,a0
 552              	.LVL59:
 108:test/test_drugi.cpp **** 
 109:test/test_drugi.cpp ****     struct data_s data;
 553              		.loc 1 109 5 is_stmt 1
 110:test/test_drugi.cpp ****     data.shared = shared;
 554              		.loc 1 110 5
 555              		.loc 1 110 17 is_stmt 0
 556 0394 2338A4FC 		sd	a0,-48(s0)
 111:test/test_drugi.cpp ****     data.iterations = ITERATIONS;
 557              		.loc 1 111 5 is_stmt 1
 558              		.loc 1 111 21 is_stmt 0
 559 0398 9307803E 		li	a5,1000
 560 039c 232CF4FC 		sw	a5,-40(s0)
 112:test/test_drugi.cpp ****     runs(work, &data, RUN_NUM);
 561              		.loc 1 112 5 is_stmt 1
 562              		.loc 1 112 9 is_stmt 0
 563 03a0 13065000 		li	a2,5
 564 03a4 930584FC 		addi	a1,s0,-56
 565 03a8 17050000 		lla	a0,_Z4workPv
 565      13050500 
 566 03b0 97000000 		call	_Z4runsPFvPvEP6data_si
 566      E7800000 
 567              	.LVL60:
 113:test/test_drugi.cpp **** 
 114:test/test_drugi.cpp ****     kmem_cache_destroy(shared);
 568              		.loc 1 114 5 is_stmt 1
 569              		.loc 1 114 23 is_stmt 0
GAS LISTING /tmp/cc1Iz4fH.s 			page 14


 570 03b8 13850400 		mv	a0,s1
 571 03bc 97000000 		call	_Z18kmem_cache_destroyP12kmem_cache_s@plt
 571      E7800000 
 572              	.LVL61:
 115:test/test_drugi.cpp **** }...
 573              		.loc 1 115 1
 574 03c4 83308103 		ld	ra,56(sp)
 575              		.cfi_restore 1
 576 03c8 03340103 		ld	s0,48(sp)
 577              		.cfi_restore 8
 578              		.cfi_def_cfa 2, 64
 579 03cc 83348102 		ld	s1,40(sp)
 580              		.cfi_restore 9
 581              	.LVL62:
 582 03d0 13010104 		addi	sp,sp,64
 583              		.cfi_def_cfa_offset 0
 584 03d4 67800000 		jr	ra
 585              		.cfi_endproc
 586              	.LFE45:
 588              		.section	.rodata.str1.8
 589 0046 0000     		.align	3
 590              	.LC3:
 591 0048 74635F30 		.string	"tc_0"
 591      00
 592 004d 000000   		.align	3
 593              	.LC4:
 594 0050 74635F31 		.string	"tc_1"
 594      00
 595 0055 000000   		.align	3
 596              	.LC5:
 597 0058 74635F32 		.string	"tc_2"
 597      00
 598 005d 000000   		.align	3
 599              	.LC6:
 600 0060 74635F33 		.string	"tc_3"
 600      00
 601 0065 000000   		.align	3
 602              	.LC7:
 603 0068 74635F34 		.string	"tc_4"
 603      00
 604              		.data
 605              		.align	2
 606              		.set	.LANCHOR0,. + 0
 609              	_ZZ9constructPvE1i:
 610 0000 01000000 		.word	1
 611              		.section	.data.rel.ro.local,"aw"
 612              		.align	3
 613              		.set	.LANCHOR1,. + 0
 616              	_ZL11CACHE_NAMES:
 617 0000 00000000 		.dword	.LC3
 617      00000000 
 618 0008 00000000 		.dword	.LC4
 618      00000000 
 619 0010 00000000 		.dword	.LC5
 619      00000000 
 620 0018 00000000 		.dword	.LC6
 620      00000000 
GAS LISTING /tmp/cc1Iz4fH.s 			page 15


 621 0020 00000000 		.dword	.LC7
 621      00000000 
 622              		.text
 623              	.Letext0:
 624              		.file 2 "test/../h/../lib/hw.h"
 625              		.file 3 "test/../h/SlabI.h"
 626              		.file 4 "test/../h/syscall_c.h"
 627              		.file 5 "test/printing.hpp"
GAS LISTING /tmp/cc1Iz4fH.s 			page 16

