GAS LISTING /tmp/cc5eykcM.s 			page 1


   1              		.file	"userMain.cpp"
   2              		.option pic
   3              		.option norelax
   4              		.text
   5              	.Ltext0:
   6              		.section	.rodata.str1.8,"aMS",@progbits,1
   7              		.align	3
   8              	.LC0:
   9 0000 45206669 		.string	"E finished!\n"
   9      6E697368 
   9      6564210A 
   9      00
  10              		.text
  11              		.align	2
  12              		.globl	_ZN18Threads_C_API_test11workerBodyEEPv
  14              	_ZN18Threads_C_API_test11workerBodyEEPv:
  15              	.LFB45:
  16              		.file 1 "test/../test/Threads_C_API_test.hpp"
   1:test/../test/Threads_C_API_test.hpp **** #ifndef XV6_THREADS_C_API_TEST_HPP
   2:test/../test/Threads_C_API_test.hpp **** #define XV6_THREADS_C_API_TEST_HPP
   3:test/../test/Threads_C_API_test.hpp **** 
   4:test/../test/Threads_C_API_test.hpp **** #include "../h/syscall_c.h"
   5:test/../test/Threads_C_API_test.hpp **** 
   6:test/../test/Threads_C_API_test.hpp **** #include "printing.hpp"
   7:test/../test/Threads_C_API_test.hpp **** 
   8:test/../test/Threads_C_API_test.hpp **** namespace Threads_C_API_test {
   9:test/../test/Threads_C_API_test.hpp **** 
  10:test/../test/Threads_C_API_test.hpp ****     bool finishedA = false;
  11:test/../test/Threads_C_API_test.hpp ****     bool finishedB = false;
  12:test/../test/Threads_C_API_test.hpp ****     bool finishedC = false;
  13:test/../test/Threads_C_API_test.hpp ****     bool finishedD = false;
  14:test/../test/Threads_C_API_test.hpp ****     bool finishedE = false;
  15:test/../test/Threads_C_API_test.hpp **** 
  16:test/../test/Threads_C_API_test.hpp ****     uint64 fibonacci(uint64 n) {
  17:test/../test/Threads_C_API_test.hpp ****         if (n == 0 || n == 1) { return n; }
  18:test/../test/Threads_C_API_test.hpp ****         if (n % 10 == 0) { thread_dispatch(); }
  19:test/../test/Threads_C_API_test.hpp ****         return fibonacci(n - 1) + fibonacci(n - 2);
  20:test/../test/Threads_C_API_test.hpp ****     }
  21:test/../test/Threads_C_API_test.hpp **** 
  22:test/../test/Threads_C_API_test.hpp ****     void workerBodyA(void* arg) {
  23:test/../test/Threads_C_API_test.hpp ****         for (uint64 i = 0; i < 10; i++) {
  24:test/../test/Threads_C_API_test.hpp ****             printString("A: i="); printInt(i); printString("\n");
  25:test/../test/Threads_C_API_test.hpp ****             for (uint64 j = 0; j < 10000; j++) {
  26:test/../test/Threads_C_API_test.hpp ****                 for (uint64 k = 0; k < 30000; k++) { /* busy wait */ }
  27:test/../test/Threads_C_API_test.hpp ****                 thread_dispatch();
  28:test/../test/Threads_C_API_test.hpp ****             }
  29:test/../test/Threads_C_API_test.hpp ****         }
  30:test/../test/Threads_C_API_test.hpp ****         printString("A finished!\n");
  31:test/../test/Threads_C_API_test.hpp ****         finishedA = true;
  32:test/../test/Threads_C_API_test.hpp ****     }
  33:test/../test/Threads_C_API_test.hpp **** 
  34:test/../test/Threads_C_API_test.hpp ****     void workerBodyB(void* arg) {
  35:test/../test/Threads_C_API_test.hpp ****         for (uint64 i = 0; i < 16; i++) {
  36:test/../test/Threads_C_API_test.hpp ****             printString("B: i="); printInt(i); printString("\n");
  37:test/../test/Threads_C_API_test.hpp ****             for (uint64 j = 0; j < 10000; j++) {
  38:test/../test/Threads_C_API_test.hpp ****                 for (uint64 k = 0; k < 30000; k++) { /* busy wait */ }
  39:test/../test/Threads_C_API_test.hpp ****                 thread_dispatch();
GAS LISTING /tmp/cc5eykcM.s 			page 2


  40:test/../test/Threads_C_API_test.hpp ****             }
  41:test/../test/Threads_C_API_test.hpp ****         }
  42:test/../test/Threads_C_API_test.hpp ****         printString("B finished!\n");
  43:test/../test/Threads_C_API_test.hpp ****         finishedB = true;
  44:test/../test/Threads_C_API_test.hpp ****         thread_dispatch();
  45:test/../test/Threads_C_API_test.hpp ****     }
  46:test/../test/Threads_C_API_test.hpp **** 
  47:test/../test/Threads_C_API_test.hpp ****     void workerBodyC(void* arg) {
  48:test/../test/Threads_C_API_test.hpp ****         uint8 i = 0;
  49:test/../test/Threads_C_API_test.hpp ****         for (; i < 3; i++) {
  50:test/../test/Threads_C_API_test.hpp ****             printString("C: i="); printInt(i); printString("\n");
  51:test/../test/Threads_C_API_test.hpp ****         }
  52:test/../test/Threads_C_API_test.hpp **** 
  53:test/../test/Threads_C_API_test.hpp ****         printString("C: dispatch\n");
  54:test/../test/Threads_C_API_test.hpp ****         __asm__ ("li t1, 7");
  55:test/../test/Threads_C_API_test.hpp ****         thread_dispatch();
  56:test/../test/Threads_C_API_test.hpp **** 
  57:test/../test/Threads_C_API_test.hpp ****         uint64 t1 = 0;
  58:test/../test/Threads_C_API_test.hpp ****         __asm__ ("mv %[t1], t1" : [t1] "=r"(t1));
  59:test/../test/Threads_C_API_test.hpp **** 
  60:test/../test/Threads_C_API_test.hpp ****         printString("C: t1="); printInt(t1); printString("\n");
  61:test/../test/Threads_C_API_test.hpp **** 
  62:test/../test/Threads_C_API_test.hpp ****         uint64 result = fibonacci(12);
  63:test/../test/Threads_C_API_test.hpp ****         printString("C: fibonaci="); printInt(result); printString("\n");
  64:test/../test/Threads_C_API_test.hpp **** 
  65:test/../test/Threads_C_API_test.hpp ****         for (; i < 6; i++) {
  66:test/../test/Threads_C_API_test.hpp ****             printString("C: i="); printInt(i); printString("\n");
  67:test/../test/Threads_C_API_test.hpp ****         }
  68:test/../test/Threads_C_API_test.hpp **** 
  69:test/../test/Threads_C_API_test.hpp ****         printString("A finished!\n");
  70:test/../test/Threads_C_API_test.hpp ****         finishedC = true;
  71:test/../test/Threads_C_API_test.hpp ****         thread_dispatch();
  72:test/../test/Threads_C_API_test.hpp ****     }
  73:test/../test/Threads_C_API_test.hpp **** 
  74:test/../test/Threads_C_API_test.hpp ****     void workerBodyD(void* arg) {
  75:test/../test/Threads_C_API_test.hpp ****         uint8 i = 10;
  76:test/../test/Threads_C_API_test.hpp ****         for (; i < 13; i++) {
  77:test/../test/Threads_C_API_test.hpp ****             printString("D: i="); printInt(i); printString("\n");
  78:test/../test/Threads_C_API_test.hpp ****         }
  79:test/../test/Threads_C_API_test.hpp **** 
  80:test/../test/Threads_C_API_test.hpp ****         printString("D: dispatch\n");
  81:test/../test/Threads_C_API_test.hpp ****         __asm__ ("li t1, 5");
  82:test/../test/Threads_C_API_test.hpp ****         thread_dispatch();
  83:test/../test/Threads_C_API_test.hpp **** 
  84:test/../test/Threads_C_API_test.hpp ****         uint64 result = fibonacci(16);
  85:test/../test/Threads_C_API_test.hpp ****         printString("D: fibonaci="); printInt(result); printString("\n");
  86:test/../test/Threads_C_API_test.hpp **** 
  87:test/../test/Threads_C_API_test.hpp ****         for (; i < 16; i++) {
  88:test/../test/Threads_C_API_test.hpp ****             printString("D: i="); printInt(i); printString("\n");
  89:test/../test/Threads_C_API_test.hpp ****         }
  90:test/../test/Threads_C_API_test.hpp **** 
  91:test/../test/Threads_C_API_test.hpp ****         printString("D finished!\n");
  92:test/../test/Threads_C_API_test.hpp ****         finishedD = true;
  93:test/../test/Threads_C_API_test.hpp ****         thread_dispatch();
  94:test/../test/Threads_C_API_test.hpp ****     }
  95:test/../test/Threads_C_API_test.hpp **** 
  96:test/../test/Threads_C_API_test.hpp ****     void workerBodyE(void* arg) {
GAS LISTING /tmp/cc5eykcM.s 			page 3


  17              		.loc 1 96 33
  18              		.cfi_startproc
  19              	.LVL0:
  20 0000 130101FF 		addi	sp,sp,-16
  21              		.cfi_def_cfa_offset 16
  22 0004 23341100 		sd	ra,8(sp)
  23 0008 23308100 		sd	s0,0(sp)
  24              		.cfi_offset 1, -8
  25              		.cfi_offset 8, -16
  26 000c 13040101 		addi	s0,sp,16
  27              		.cfi_def_cfa 8, 0
  97:test/../test/Threads_C_API_test.hpp **** //    uint8 i = 10;
  98:test/../test/Threads_C_API_test.hpp **** //    for (; i < 13; i++) {
  99:test/../test/Threads_C_API_test.hpp **** //        printString("D: i="); printInt(i); printString("\n");
 100:test/../test/Threads_C_API_test.hpp **** //    }
 101:test/../test/Threads_C_API_test.hpp **** //
 102:test/../test/Threads_C_API_test.hpp **** //    printString("D: dispatch\n");
 103:test/../test/Threads_C_API_test.hpp **** //    __asm__ ("li t1, 5");
 104:test/../test/Threads_C_API_test.hpp **** //    thread_dispatch();
 105:test/../test/Threads_C_API_test.hpp **** //
 106:test/../test/Threads_C_API_test.hpp **** //    uint64 result = fibonacci(16);
 107:test/../test/Threads_C_API_test.hpp **** //    printString("D: fibonaci="); printInt(result); printString("\n");
 108:test/../test/Threads_C_API_test.hpp **** //
 109:test/../test/Threads_C_API_test.hpp **** //    for (; i < 16; i++) {
 110:test/../test/Threads_C_API_test.hpp **** //        printString("D: i="); printInt(i); printString("\n");
 111:test/../test/Threads_C_API_test.hpp **** //    }
 112:test/../test/Threads_C_API_test.hpp **** 
 113:test/../test/Threads_C_API_test.hpp ****         printString("E finished!\n");
  28              		.loc 1 113 9
  29              		.loc 1 113 20 is_stmt 0
  30 0010 17050000 		lla	a0,.LC0
  30      13050500 
  31              	.LVL1:
  32 0018 97000000 		call	_Z11printStringPKc@plt
  32      E7800000 
  33              	.LVL2:
 114:test/../test/Threads_C_API_test.hpp ****         finishedE = true;
  34              		.loc 1 114 9 is_stmt 1
  35              		.loc 1 114 19 is_stmt 0
  36 0020 93071000 		li	a5,1
  37 0024 17070000 		sb	a5,.LANCHOR0,a4
  37      2300F700 
 115:test/../test/Threads_C_API_test.hpp ****         thread_dispatch();
  38              		.loc 1 115 9 is_stmt 1
  39              		.loc 1 115 24 is_stmt 0
  40 002c 97000000 		call	thread_dispatch@plt
  40      E7800000 
  41              	.LVL3:
 116:test/../test/Threads_C_API_test.hpp ****     }
  42              		.loc 1 116 5
  43 0034 83308100 		ld	ra,8(sp)
  44              		.cfi_restore 1
  45 0038 03340100 		ld	s0,0(sp)
  46              		.cfi_restore 8
  47              		.cfi_def_cfa 2, 16
  48 003c 13010101 		addi	sp,sp,16
  49              		.cfi_def_cfa_offset 0
GAS LISTING /tmp/cc5eykcM.s 			page 4


  50 0040 67800000 		jr	ra
  51              		.cfi_endproc
  52              	.LFE45:
  54              		.section	.rodata.str1.8
  55 000d 000000   		.align	3
  56              	.LC1:
  57 0010 413A2069 		.string	"A: i="
  57      3D00
  58 0016 0000     		.align	3
  59              	.LC2:
  60 0018 0A00     		.string	"\n"
  61 001a 00000000 		.align	3
  61      0000
  62              	.LC3:
  63 0020 41206669 		.string	"A finished!\n"
  63      6E697368 
  63      6564210A 
  63      00
  64              		.text
  65              		.align	2
  66              		.globl	_ZN18Threads_C_API_test11workerBodyAEPv
  68              	_ZN18Threads_C_API_test11workerBodyAEPv:
  69              	.LFB41:
  22:test/../test/Threads_C_API_test.hpp ****         for (uint64 i = 0; i < 10; i++) {
  70              		.loc 1 22 33 is_stmt 1
  71              		.cfi_startproc
  72              	.LVL4:
  73 0044 130101FE 		addi	sp,sp,-32
  74              		.cfi_def_cfa_offset 32
  75 0048 233C1100 		sd	ra,24(sp)
  76 004c 23388100 		sd	s0,16(sp)
  77 0050 23349100 		sd	s1,8(sp)
  78 0054 23302101 		sd	s2,0(sp)
  79              		.cfi_offset 1, -8
  80              		.cfi_offset 8, -16
  81              		.cfi_offset 9, -24
  82              		.cfi_offset 18, -32
  83 0058 13040102 		addi	s0,sp,32
  84              		.cfi_def_cfa 8, 0
  23:test/../test/Threads_C_API_test.hpp ****             printString("A: i="); printInt(i); printString("\n");
  85              		.loc 1 23 9
  86              	.LVL5:
  87              	.LBB74:
  23:test/../test/Threads_C_API_test.hpp ****             printString("A: i="); printInt(i); printString("\n");
  88              		.loc 1 23 21 is_stmt 0
  89 005c 13090000 		li	s2,0
  90 0060 6F008003 		j	.L9
  91              	.LVL6:
  92              	.L6:
  93              	.LBB75:
  94              	.LBB76:
  95              	.LBB77:
  27:test/../test/Threads_C_API_test.hpp ****             }
  96              		.loc 1 27 17 is_stmt 1 discriminator 2
  27:test/../test/Threads_C_API_test.hpp ****             }
  97              		.loc 1 27 32 is_stmt 0 discriminator 2
  98 0064 97000000 		call	thread_dispatch@plt
GAS LISTING /tmp/cc5eykcM.s 			page 5


  98      E7800000 
  99              	.LVL7:
 100              	.LBE77:
  25:test/../test/Threads_C_API_test.hpp ****                 for (uint64 k = 0; k < 30000; k++) { /* busy wait */ }
 101              		.loc 1 25 13 is_stmt 1 discriminator 2
 102 006c 93841400 		addi	s1,s1,1
 103              	.LVL8:
 104              	.L8:
  25:test/../test/Threads_C_API_test.hpp ****                 for (uint64 k = 0; k < 30000; k++) { /* busy wait */ }
 105              		.loc 1 25 34 discriminator 1
 106 0070 B7270000 		li	a5,8192
 107 0074 9387F770 		addi	a5,a5,1807
 108 0078 63EE9700 		bgtu	s1,a5,.L5
 109              	.LBB79:
 110              	.LBB78:
  26:test/../test/Threads_C_API_test.hpp ****                 thread_dispatch();
 111              		.loc 1 26 29 is_stmt 0
 112 007c 13070000 		li	a4,0
 113              	.L7:
 114              	.LVL9:
  26:test/../test/Threads_C_API_test.hpp ****                 thread_dispatch();
 115              		.loc 1 26 38 is_stmt 1 discriminator 3
 116 0080 B7770000 		li	a5,28672
 117 0084 9387F752 		addi	a5,a5,1327
 118 0088 E3EEE7FC 		bgtu	a4,a5,.L6
  26:test/../test/Threads_C_API_test.hpp ****                 thread_dispatch();
 119              		.loc 1 26 17 discriminator 2
 120 008c 13071700 		addi	a4,a4,1
 121              	.LVL10:
 122 0090 6FF01FFF 		j	.L7
 123              	.LVL11:
 124              	.L5:
 125              	.LBE78:
 126              	.LBE79:
 127              	.LBE76:
 128              	.LBE75:
  23:test/../test/Threads_C_API_test.hpp ****             printString("A: i="); printInt(i); printString("\n");
 129              		.loc 1 23 9 discriminator 2
 130 0094 13091900 		addi	s2,s2,1
 131              	.LVL12:
 132              	.L9:
  23:test/../test/Threads_C_API_test.hpp ****             printString("A: i="); printInt(i); printString("\n");
 133              		.loc 1 23 30 discriminator 1
 134 0098 93079000 		li	a5,9
 135 009c 63E02705 		bgtu	s2,a5,.L4
 136              	.LBB81:
  24:test/../test/Threads_C_API_test.hpp ****             for (uint64 j = 0; j < 10000; j++) {
 137              		.loc 1 24 13
  24:test/../test/Threads_C_API_test.hpp ****             for (uint64 j = 0; j < 10000; j++) {
 138              		.loc 1 24 24 is_stmt 0
 139 00a0 17050000 		lla	a0,.LC1
 139      13050500 
 140 00a8 97000000 		call	_Z11printStringPKc@plt
 140      E7800000 
 141              	.LVL13:
  24:test/../test/Threads_C_API_test.hpp ****             for (uint64 j = 0; j < 10000; j++) {
 142              		.loc 1 24 35 is_stmt 1
GAS LISTING /tmp/cc5eykcM.s 			page 6


  24:test/../test/Threads_C_API_test.hpp ****             for (uint64 j = 0; j < 10000; j++) {
 143              		.loc 1 24 43 is_stmt 0
 144 00b0 13060000 		li	a2,0
 145 00b4 9305A000 		li	a1,10
 146 00b8 1B050900 		sext.w	a0,s2
 147 00bc 97000000 		call	_Z8printIntiii@plt
 147      E7800000 
 148              	.LVL14:
  24:test/../test/Threads_C_API_test.hpp ****             for (uint64 j = 0; j < 10000; j++) {
 149              		.loc 1 24 48 is_stmt 1
  24:test/../test/Threads_C_API_test.hpp ****             for (uint64 j = 0; j < 10000; j++) {
 150              		.loc 1 24 59 is_stmt 0
 151 00c4 17050000 		lla	a0,.LC2
 151      13050500 
 152 00cc 97000000 		call	_Z11printStringPKc@plt
 152      E7800000 
 153              	.LVL15:
  25:test/../test/Threads_C_API_test.hpp ****                 for (uint64 k = 0; k < 30000; k++) { /* busy wait */ }
 154              		.loc 1 25 13 is_stmt 1
 155              	.LBB80:
  25:test/../test/Threads_C_API_test.hpp ****                 for (uint64 k = 0; k < 30000; k++) { /* busy wait */ }
 156              		.loc 1 25 25 is_stmt 0
 157 00d4 93040000 		li	s1,0
 158 00d8 6FF09FF9 		j	.L8
 159              	.LVL16:
 160              	.L4:
 161              	.LBE80:
 162              	.LBE81:
 163              	.LBE74:
  30:test/../test/Threads_C_API_test.hpp ****         finishedA = true;
 164              		.loc 1 30 9 is_stmt 1
  30:test/../test/Threads_C_API_test.hpp ****         finishedA = true;
 165              		.loc 1 30 20 is_stmt 0
 166 00dc 17050000 		lla	a0,.LC3
 166      13050500 
 167 00e4 97000000 		call	_Z11printStringPKc@plt
 167      E7800000 
 168              	.LVL17:
  31:test/../test/Threads_C_API_test.hpp ****     }
 169              		.loc 1 31 9 is_stmt 1
  31:test/../test/Threads_C_API_test.hpp ****     }
 170              		.loc 1 31 19 is_stmt 0
 171 00ec 93071000 		li	a5,1
 172 00f0 17070000 		sb	a5,.LANCHOR0+1,a4
 172      2300F700 
  32:test/../test/Threads_C_API_test.hpp **** 
 173              		.loc 1 32 5
 174 00f8 83308101 		ld	ra,24(sp)
 175              		.cfi_restore 1
 176 00fc 03340101 		ld	s0,16(sp)
 177              		.cfi_restore 8
 178              		.cfi_def_cfa 2, 32
 179 0100 83348100 		ld	s1,8(sp)
 180              		.cfi_restore 9
 181 0104 03390100 		ld	s2,0(sp)
 182              		.cfi_restore 18
 183              	.LVL18:
GAS LISTING /tmp/cc5eykcM.s 			page 7


 184 0108 13010102 		addi	sp,sp,32
 185              		.cfi_def_cfa_offset 0
 186 010c 67800000 		jr	ra
 187              		.cfi_endproc
 188              	.LFE41:
 190              		.section	.rodata.str1.8
 191 002d 000000   		.align	3
 192              	.LC4:
 193 0030 423A2069 		.string	"B: i="
 193      3D00
 194 0036 0000     		.align	3
 195              	.LC5:
 196 0038 42206669 		.string	"B finished!\n"
 196      6E697368 
 196      6564210A 
 196      00
 197              		.text
 198              		.align	2
 199              		.globl	_ZN18Threads_C_API_test11workerBodyBEPv
 201              	_ZN18Threads_C_API_test11workerBodyBEPv:
 202              	.LFB42:
  34:test/../test/Threads_C_API_test.hpp ****         for (uint64 i = 0; i < 16; i++) {
 203              		.loc 1 34 33 is_stmt 1
 204              		.cfi_startproc
 205              	.LVL19:
 206 0110 130101FE 		addi	sp,sp,-32
 207              		.cfi_def_cfa_offset 32
 208 0114 233C1100 		sd	ra,24(sp)
 209 0118 23388100 		sd	s0,16(sp)
 210 011c 23349100 		sd	s1,8(sp)
 211 0120 23302101 		sd	s2,0(sp)
 212              		.cfi_offset 1, -8
 213              		.cfi_offset 8, -16
 214              		.cfi_offset 9, -24
 215              		.cfi_offset 18, -32
 216 0124 13040102 		addi	s0,sp,32
 217              		.cfi_def_cfa 8, 0
  35:test/../test/Threads_C_API_test.hpp ****             printString("B: i="); printInt(i); printString("\n");
 218              		.loc 1 35 9
 219              	.LVL20:
 220              	.LBB82:
  35:test/../test/Threads_C_API_test.hpp ****             printString("B: i="); printInt(i); printString("\n");
 221              		.loc 1 35 21 is_stmt 0
 222 0128 13090000 		li	s2,0
 223 012c 6F008003 		j	.L17
 224              	.LVL21:
 225              	.L14:
 226              	.LBB83:
 227              	.LBB84:
 228              	.LBB85:
  39:test/../test/Threads_C_API_test.hpp ****             }
 229              		.loc 1 39 17 is_stmt 1 discriminator 2
  39:test/../test/Threads_C_API_test.hpp ****             }
 230              		.loc 1 39 32 is_stmt 0 discriminator 2
 231 0130 97000000 		call	thread_dispatch@plt
 231      E7800000 
 232              	.LVL22:
GAS LISTING /tmp/cc5eykcM.s 			page 8


 233              	.LBE85:
  37:test/../test/Threads_C_API_test.hpp ****                 for (uint64 k = 0; k < 30000; k++) { /* busy wait */ }
 234              		.loc 1 37 13 is_stmt 1 discriminator 2
 235 0138 93841400 		addi	s1,s1,1
 236              	.LVL23:
 237              	.L16:
  37:test/../test/Threads_C_API_test.hpp ****                 for (uint64 k = 0; k < 30000; k++) { /* busy wait */ }
 238              		.loc 1 37 34 discriminator 1
 239 013c B7270000 		li	a5,8192
 240 0140 9387F770 		addi	a5,a5,1807
 241 0144 63EE9700 		bgtu	s1,a5,.L13
 242              	.LBB87:
 243              	.LBB86:
  38:test/../test/Threads_C_API_test.hpp ****                 thread_dispatch();
 244              		.loc 1 38 29 is_stmt 0
 245 0148 13070000 		li	a4,0
 246              	.L15:
 247              	.LVL24:
  38:test/../test/Threads_C_API_test.hpp ****                 thread_dispatch();
 248              		.loc 1 38 38 is_stmt 1 discriminator 3
 249 014c B7770000 		li	a5,28672
 250 0150 9387F752 		addi	a5,a5,1327
 251 0154 E3EEE7FC 		bgtu	a4,a5,.L14
  38:test/../test/Threads_C_API_test.hpp ****                 thread_dispatch();
 252              		.loc 1 38 17 discriminator 2
 253 0158 13071700 		addi	a4,a4,1
 254              	.LVL25:
 255 015c 6FF01FFF 		j	.L15
 256              	.LVL26:
 257              	.L13:
 258              	.LBE86:
 259              	.LBE87:
 260              	.LBE84:
 261              	.LBE83:
  35:test/../test/Threads_C_API_test.hpp ****             printString("B: i="); printInt(i); printString("\n");
 262              		.loc 1 35 9 discriminator 2
 263 0160 13091900 		addi	s2,s2,1
 264              	.LVL27:
 265              	.L17:
  35:test/../test/Threads_C_API_test.hpp ****             printString("B: i="); printInt(i); printString("\n");
 266              		.loc 1 35 30 discriminator 1
 267 0164 9307F000 		li	a5,15
 268 0168 63E02705 		bgtu	s2,a5,.L12
 269              	.LBB89:
  36:test/../test/Threads_C_API_test.hpp ****             for (uint64 j = 0; j < 10000; j++) {
 270              		.loc 1 36 13
  36:test/../test/Threads_C_API_test.hpp ****             for (uint64 j = 0; j < 10000; j++) {
 271              		.loc 1 36 24 is_stmt 0
 272 016c 17050000 		lla	a0,.LC4
 272      13050500 
 273 0174 97000000 		call	_Z11printStringPKc@plt
 273      E7800000 
 274              	.LVL28:
  36:test/../test/Threads_C_API_test.hpp ****             for (uint64 j = 0; j < 10000; j++) {
 275              		.loc 1 36 35 is_stmt 1
  36:test/../test/Threads_C_API_test.hpp ****             for (uint64 j = 0; j < 10000; j++) {
 276              		.loc 1 36 43 is_stmt 0
GAS LISTING /tmp/cc5eykcM.s 			page 9


 277 017c 13060000 		li	a2,0
 278 0180 9305A000 		li	a1,10
 279 0184 1B050900 		sext.w	a0,s2
 280 0188 97000000 		call	_Z8printIntiii@plt
 280      E7800000 
 281              	.LVL29:
  36:test/../test/Threads_C_API_test.hpp ****             for (uint64 j = 0; j < 10000; j++) {
 282              		.loc 1 36 48 is_stmt 1
  36:test/../test/Threads_C_API_test.hpp ****             for (uint64 j = 0; j < 10000; j++) {
 283              		.loc 1 36 59 is_stmt 0
 284 0190 17050000 		lla	a0,.LC2
 284      13050500 
 285 0198 97000000 		call	_Z11printStringPKc@plt
 285      E7800000 
 286              	.LVL30:
  37:test/../test/Threads_C_API_test.hpp ****                 for (uint64 k = 0; k < 30000; k++) { /* busy wait */ }
 287              		.loc 1 37 13 is_stmt 1
 288              	.LBB88:
  37:test/../test/Threads_C_API_test.hpp ****                 for (uint64 k = 0; k < 30000; k++) { /* busy wait */ }
 289              		.loc 1 37 25 is_stmt 0
 290 01a0 93040000 		li	s1,0
 291 01a4 6FF09FF9 		j	.L16
 292              	.LVL31:
 293              	.L12:
 294              	.LBE88:
 295              	.LBE89:
 296              	.LBE82:
  42:test/../test/Threads_C_API_test.hpp ****         finishedB = true;
 297              		.loc 1 42 9 is_stmt 1
  42:test/../test/Threads_C_API_test.hpp ****         finishedB = true;
 298              		.loc 1 42 20 is_stmt 0
 299 01a8 17050000 		lla	a0,.LC5
 299      13050500 
 300 01b0 97000000 		call	_Z11printStringPKc@plt
 300      E7800000 
 301              	.LVL32:
  43:test/../test/Threads_C_API_test.hpp ****         thread_dispatch();
 302              		.loc 1 43 9 is_stmt 1
  43:test/../test/Threads_C_API_test.hpp ****         thread_dispatch();
 303              		.loc 1 43 19 is_stmt 0
 304 01b8 93071000 		li	a5,1
 305 01bc 17070000 		sb	a5,.LANCHOR0+2,a4
 305      2300F700 
  44:test/../test/Threads_C_API_test.hpp ****     }
 306              		.loc 1 44 9 is_stmt 1
  44:test/../test/Threads_C_API_test.hpp ****     }
 307              		.loc 1 44 24 is_stmt 0
 308 01c4 97000000 		call	thread_dispatch@plt
 308      E7800000 
 309              	.LVL33:
  45:test/../test/Threads_C_API_test.hpp **** 
 310              		.loc 1 45 5
 311 01cc 83308101 		ld	ra,24(sp)
 312              		.cfi_restore 1
 313 01d0 03340101 		ld	s0,16(sp)
 314              		.cfi_restore 8
 315              		.cfi_def_cfa 2, 32
GAS LISTING /tmp/cc5eykcM.s 			page 10


 316 01d4 83348100 		ld	s1,8(sp)
 317              		.cfi_restore 9
 318 01d8 03390100 		ld	s2,0(sp)
 319              		.cfi_restore 18
 320              	.LVL34:
 321 01dc 13010102 		addi	sp,sp,32
 322              		.cfi_def_cfa_offset 0
 323 01e0 67800000 		jr	ra
 324              		.cfi_endproc
 325              	.LFE42:
 327              		.section	.text._ZN20Threads_CPP_API_test7WorkerAD2Ev,"axG",@progbits,_ZN20Threads_CPP_API_test7Wor
 328              		.align	2
 329              		.weak	_ZN20Threads_CPP_API_test7WorkerAD2Ev
 331              	_ZN20Threads_CPP_API_test7WorkerAD2Ev:
 332              	.LFB158:
 333              		.file 2 "test/../test/Threads_CPP_API_test.hpp"
   1:test/../test/Threads_CPP_API_test.hpp **** #ifndef XV6_THREADS_CPP_API_TEST_HPP
   2:test/../test/Threads_CPP_API_test.hpp **** #define XV6_THREADS_CPP_API_TEST_HPP
   3:test/../test/Threads_CPP_API_test.hpp **** 
   4:test/../test/Threads_CPP_API_test.hpp **** #include "../h/syscall_cpp.hpp"
   5:test/../test/Threads_CPP_API_test.hpp **** 
   6:test/../test/Threads_CPP_API_test.hpp **** #include "printing.hpp"
   7:test/../test/Threads_CPP_API_test.hpp **** 
   8:test/../test/Threads_CPP_API_test.hpp **** namespace Threads_CPP_API_test{
   9:test/../test/Threads_CPP_API_test.hpp **** 
  10:test/../test/Threads_CPP_API_test.hpp ****     bool finishedA = false;
  11:test/../test/Threads_CPP_API_test.hpp ****     bool finishedB = false;
  12:test/../test/Threads_CPP_API_test.hpp ****     bool finishedC = false;
  13:test/../test/Threads_CPP_API_test.hpp ****     bool finishedD = false;
  14:test/../test/Threads_CPP_API_test.hpp **** 
  15:test/../test/Threads_CPP_API_test.hpp ****     uint64 fibonacci(uint64 n) {
  16:test/../test/Threads_CPP_API_test.hpp ****         if (n == 0 || n == 1) { return n; }
  17:test/../test/Threads_CPP_API_test.hpp ****         if (n % 10 == 0) { thread_dispatch(); }
  18:test/../test/Threads_CPP_API_test.hpp ****         return fibonacci(n - 1) + fibonacci(n - 2);
  19:test/../test/Threads_CPP_API_test.hpp ****     }
  20:test/../test/Threads_CPP_API_test.hpp **** 
  21:test/../test/Threads_CPP_API_test.hpp ****     class WorkerA: public Thread {
 334              		.loc 2 21 11 is_stmt 1
 335              		.cfi_startproc
 336              	.LVL35:
 337 0000 130101FF 		addi	sp,sp,-16
 338              		.cfi_def_cfa_offset 16
 339 0004 23341100 		sd	ra,8(sp)
 340 0008 23308100 		sd	s0,0(sp)
 341              		.cfi_offset 1, -8
 342              		.cfi_offset 8, -16
 343 000c 13040101 		addi	s0,sp,16
 344              		.cfi_def_cfa 8, 0
 345              	.LBB90:
 346              		.loc 2 21 11 is_stmt 0
 347 0010 97070000 		lla	a5,_ZTVN20Threads_CPP_API_test7WorkerAE+16
 347      93870700 
 348 0018 2330F500 		sd	a5,0(a0)
 349 001c 97000000 		call	_ZN6ThreadD2Ev@plt
 349      E7800000 
 350              	.LVL36:
 351              	.LBE90:
GAS LISTING /tmp/cc5eykcM.s 			page 11


 352 0024 83308100 		ld	ra,8(sp)
 353              		.cfi_restore 1
 354 0028 03340100 		ld	s0,0(sp)
 355              		.cfi_restore 8
 356              		.cfi_def_cfa 2, 16
 357 002c 13010101 		addi	sp,sp,16
 358              		.cfi_def_cfa_offset 0
 359 0030 67800000 		jr	ra
 360              		.cfi_endproc
 361              	.LFE158:
 363              		.weak	_ZN20Threads_CPP_API_test7WorkerAD1Ev
 364              		.set	_ZN20Threads_CPP_API_test7WorkerAD1Ev,_ZN20Threads_CPP_API_test7WorkerAD2Ev
 365              		.section	.text._ZN20Threads_CPP_API_test7WorkerAD0Ev,"axG",@progbits,_ZN20Threads_CPP_API_test7Wor
 366              		.align	2
 367              		.weak	_ZN20Threads_CPP_API_test7WorkerAD0Ev
 369              	_ZN20Threads_CPP_API_test7WorkerAD0Ev:
 370              	.LFB160:
 371              		.loc 2 21 11 is_stmt 1
 372              		.cfi_startproc
 373              	.LVL37:
 374 0000 130101FE 		addi	sp,sp,-32
 375              		.cfi_def_cfa_offset 32
 376 0004 233C1100 		sd	ra,24(sp)
 377 0008 23388100 		sd	s0,16(sp)
 378 000c 23349100 		sd	s1,8(sp)
 379              		.cfi_offset 1, -8
 380              		.cfi_offset 8, -16
 381              		.cfi_offset 9, -24
 382 0010 13040102 		addi	s0,sp,32
 383              		.cfi_def_cfa 8, 0
 384 0014 93040500 		mv	s1,a0
 385              	.LVL38:
 386              	.LBB91:
 387              	.LBB92:
 388              		.loc 2 21 11 is_stmt 0
 389 0018 97070000 		lla	a5,_ZTVN20Threads_CPP_API_test7WorkerAE+16
 389      93870700 
 390 0020 2330F500 		sd	a5,0(a0)
 391 0024 97000000 		call	_ZN6ThreadD2Ev@plt
 391      E7800000 
 392              	.LVL39:
 393              	.LBE92:
 394              	.LBE91:
 395 002c 13850400 		mv	a0,s1
 396 0030 97000000 		call	_ZdlPv@plt
 396      E7800000 
 397              	.LVL40:
 398 0038 83308101 		ld	ra,24(sp)
 399              		.cfi_restore 1
 400 003c 03340101 		ld	s0,16(sp)
 401              		.cfi_restore 8
 402              		.cfi_def_cfa 2, 32
 403 0040 83348100 		ld	s1,8(sp)
 404              		.cfi_restore 9
 405              	.LVL41:
 406 0044 13010102 		addi	sp,sp,32
 407              		.cfi_def_cfa_offset 0
GAS LISTING /tmp/cc5eykcM.s 			page 12


 408 0048 67800000 		jr	ra
 409              		.cfi_endproc
 410              	.LFE160:
 412              		.section	.text._ZN20Threads_CPP_API_test7WorkerBD2Ev,"axG",@progbits,_ZN20Threads_CPP_API_test7Wor
 413              		.align	2
 414              		.weak	_ZN20Threads_CPP_API_test7WorkerBD2Ev
 416              	_ZN20Threads_CPP_API_test7WorkerBD2Ev:
 417              	.LFB154:
  22:test/../test/Threads_CPP_API_test.hpp ****         void workerBodyA(void* arg);
  23:test/../test/Threads_CPP_API_test.hpp ****     public:
  24:test/../test/Threads_CPP_API_test.hpp ****         WorkerA():Thread() {}
  25:test/../test/Threads_CPP_API_test.hpp **** 
  26:test/../test/Threads_CPP_API_test.hpp ****         void run() override {
  27:test/../test/Threads_CPP_API_test.hpp ****             workerBodyA(nullptr);
  28:test/../test/Threads_CPP_API_test.hpp ****         }
  29:test/../test/Threads_CPP_API_test.hpp ****     };
  30:test/../test/Threads_CPP_API_test.hpp **** 
  31:test/../test/Threads_CPP_API_test.hpp ****     class WorkerB: public Thread {
 418              		.loc 2 31 11 is_stmt 1
 419              		.cfi_startproc
 420              	.LVL42:
 421 0000 130101FF 		addi	sp,sp,-16
 422              		.cfi_def_cfa_offset 16
 423 0004 23341100 		sd	ra,8(sp)
 424 0008 23308100 		sd	s0,0(sp)
 425              		.cfi_offset 1, -8
 426              		.cfi_offset 8, -16
 427 000c 13040101 		addi	s0,sp,16
 428              		.cfi_def_cfa 8, 0
 429              	.LBB93:
 430              		.loc 2 31 11 is_stmt 0
 431 0010 97070000 		lla	a5,_ZTVN20Threads_CPP_API_test7WorkerBE+16
 431      93870700 
 432 0018 2330F500 		sd	a5,0(a0)
 433 001c 97000000 		call	_ZN6ThreadD2Ev@plt
 433      E7800000 
 434              	.LVL43:
 435              	.LBE93:
 436 0024 83308100 		ld	ra,8(sp)
 437              		.cfi_restore 1
 438 0028 03340100 		ld	s0,0(sp)
 439              		.cfi_restore 8
 440              		.cfi_def_cfa 2, 16
 441 002c 13010101 		addi	sp,sp,16
 442              		.cfi_def_cfa_offset 0
 443 0030 67800000 		jr	ra
 444              		.cfi_endproc
 445              	.LFE154:
 447              		.weak	_ZN20Threads_CPP_API_test7WorkerBD1Ev
 448              		.set	_ZN20Threads_CPP_API_test7WorkerBD1Ev,_ZN20Threads_CPP_API_test7WorkerBD2Ev
 449              		.section	.text._ZN20Threads_CPP_API_test7WorkerBD0Ev,"axG",@progbits,_ZN20Threads_CPP_API_test7Wor
 450              		.align	2
 451              		.weak	_ZN20Threads_CPP_API_test7WorkerBD0Ev
 453              	_ZN20Threads_CPP_API_test7WorkerBD0Ev:
 454              	.LFB156:
 455              		.loc 2 31 11 is_stmt 1
 456              		.cfi_startproc
GAS LISTING /tmp/cc5eykcM.s 			page 13


 457              	.LVL44:
 458 0000 130101FE 		addi	sp,sp,-32
 459              		.cfi_def_cfa_offset 32
 460 0004 233C1100 		sd	ra,24(sp)
 461 0008 23388100 		sd	s0,16(sp)
 462 000c 23349100 		sd	s1,8(sp)
 463              		.cfi_offset 1, -8
 464              		.cfi_offset 8, -16
 465              		.cfi_offset 9, -24
 466 0010 13040102 		addi	s0,sp,32
 467              		.cfi_def_cfa 8, 0
 468 0014 93040500 		mv	s1,a0
 469              	.LVL45:
 470              	.LBB94:
 471              	.LBB95:
 472              		.loc 2 31 11 is_stmt 0
 473 0018 97070000 		lla	a5,_ZTVN20Threads_CPP_API_test7WorkerBE+16
 473      93870700 
 474 0020 2330F500 		sd	a5,0(a0)
 475 0024 97000000 		call	_ZN6ThreadD2Ev@plt
 475      E7800000 
 476              	.LVL46:
 477              	.LBE95:
 478              	.LBE94:
 479 002c 13850400 		mv	a0,s1
 480 0030 97000000 		call	_ZdlPv@plt
 480      E7800000 
 481              	.LVL47:
 482 0038 83308101 		ld	ra,24(sp)
 483              		.cfi_restore 1
 484 003c 03340101 		ld	s0,16(sp)
 485              		.cfi_restore 8
 486              		.cfi_def_cfa 2, 32
 487 0040 83348100 		ld	s1,8(sp)
 488              		.cfi_restore 9
 489              	.LVL48:
 490 0044 13010102 		addi	sp,sp,32
 491              		.cfi_def_cfa_offset 0
 492 0048 67800000 		jr	ra
 493              		.cfi_endproc
 494              	.LFE156:
 496              		.section	.text._ZN20Threads_CPP_API_test7WorkerCD2Ev,"axG",@progbits,_ZN20Threads_CPP_API_test7Wor
 497              		.align	2
 498              		.weak	_ZN20Threads_CPP_API_test7WorkerCD2Ev
 500              	_ZN20Threads_CPP_API_test7WorkerCD2Ev:
 501              	.LFB150:
  32:test/../test/Threads_CPP_API_test.hpp ****         void workerBodyB(void* arg);
  33:test/../test/Threads_CPP_API_test.hpp ****     public:
  34:test/../test/Threads_CPP_API_test.hpp ****         WorkerB():Thread() {}
  35:test/../test/Threads_CPP_API_test.hpp **** 
  36:test/../test/Threads_CPP_API_test.hpp ****         void run() override {
  37:test/../test/Threads_CPP_API_test.hpp ****             workerBodyB(nullptr);
  38:test/../test/Threads_CPP_API_test.hpp ****         }
  39:test/../test/Threads_CPP_API_test.hpp ****     };
  40:test/../test/Threads_CPP_API_test.hpp **** 
  41:test/../test/Threads_CPP_API_test.hpp ****     class WorkerC: public Thread {
 502              		.loc 2 41 11 is_stmt 1
GAS LISTING /tmp/cc5eykcM.s 			page 14


 503              		.cfi_startproc
 504              	.LVL49:
 505 0000 130101FF 		addi	sp,sp,-16
 506              		.cfi_def_cfa_offset 16
 507 0004 23341100 		sd	ra,8(sp)
 508 0008 23308100 		sd	s0,0(sp)
 509              		.cfi_offset 1, -8
 510              		.cfi_offset 8, -16
 511 000c 13040101 		addi	s0,sp,16
 512              		.cfi_def_cfa 8, 0
 513              	.LBB96:
 514              		.loc 2 41 11 is_stmt 0
 515 0010 97070000 		lla	a5,_ZTVN20Threads_CPP_API_test7WorkerCE+16
 515      93870700 
 516 0018 2330F500 		sd	a5,0(a0)
 517 001c 97000000 		call	_ZN6ThreadD2Ev@plt
 517      E7800000 
 518              	.LVL50:
 519              	.LBE96:
 520 0024 83308100 		ld	ra,8(sp)
 521              		.cfi_restore 1
 522 0028 03340100 		ld	s0,0(sp)
 523              		.cfi_restore 8
 524              		.cfi_def_cfa 2, 16
 525 002c 13010101 		addi	sp,sp,16
 526              		.cfi_def_cfa_offset 0
 527 0030 67800000 		jr	ra
 528              		.cfi_endproc
 529              	.LFE150:
 531              		.weak	_ZN20Threads_CPP_API_test7WorkerCD1Ev
 532              		.set	_ZN20Threads_CPP_API_test7WorkerCD1Ev,_ZN20Threads_CPP_API_test7WorkerCD2Ev
 533              		.section	.text._ZN20Threads_CPP_API_test7WorkerCD0Ev,"axG",@progbits,_ZN20Threads_CPP_API_test7Wor
 534              		.align	2
 535              		.weak	_ZN20Threads_CPP_API_test7WorkerCD0Ev
 537              	_ZN20Threads_CPP_API_test7WorkerCD0Ev:
 538              	.LFB152:
 539              		.loc 2 41 11 is_stmt 1
 540              		.cfi_startproc
 541              	.LVL51:
 542 0000 130101FE 		addi	sp,sp,-32
 543              		.cfi_def_cfa_offset 32
 544 0004 233C1100 		sd	ra,24(sp)
 545 0008 23388100 		sd	s0,16(sp)
 546 000c 23349100 		sd	s1,8(sp)
 547              		.cfi_offset 1, -8
 548              		.cfi_offset 8, -16
 549              		.cfi_offset 9, -24
 550 0010 13040102 		addi	s0,sp,32
 551              		.cfi_def_cfa 8, 0
 552 0014 93040500 		mv	s1,a0
 553              	.LVL52:
 554              	.LBB97:
 555              	.LBB98:
 556              		.loc 2 41 11 is_stmt 0
 557 0018 97070000 		lla	a5,_ZTVN20Threads_CPP_API_test7WorkerCE+16
 557      93870700 
 558 0020 2330F500 		sd	a5,0(a0)
GAS LISTING /tmp/cc5eykcM.s 			page 15


 559 0024 97000000 		call	_ZN6ThreadD2Ev@plt
 559      E7800000 
 560              	.LVL53:
 561              	.LBE98:
 562              	.LBE97:
 563 002c 13850400 		mv	a0,s1
 564 0030 97000000 		call	_ZdlPv@plt
 564      E7800000 
 565              	.LVL54:
 566 0038 83308101 		ld	ra,24(sp)
 567              		.cfi_restore 1
 568 003c 03340101 		ld	s0,16(sp)
 569              		.cfi_restore 8
 570              		.cfi_def_cfa 2, 32
 571 0040 83348100 		ld	s1,8(sp)
 572              		.cfi_restore 9
 573              	.LVL55:
 574 0044 13010102 		addi	sp,sp,32
 575              		.cfi_def_cfa_offset 0
 576 0048 67800000 		jr	ra
 577              		.cfi_endproc
 578              	.LFE152:
 580              		.section	.text._ZN20Threads_CPP_API_test7WorkerDD2Ev,"axG",@progbits,_ZN20Threads_CPP_API_test7Wor
 581              		.align	2
 582              		.weak	_ZN20Threads_CPP_API_test7WorkerDD2Ev
 584              	_ZN20Threads_CPP_API_test7WorkerDD2Ev:
 585              	.LFB146:
  42:test/../test/Threads_CPP_API_test.hpp ****         void workerBodyC(void* arg);
  43:test/../test/Threads_CPP_API_test.hpp ****     public:
  44:test/../test/Threads_CPP_API_test.hpp ****         WorkerC():Thread() {}
  45:test/../test/Threads_CPP_API_test.hpp **** 
  46:test/../test/Threads_CPP_API_test.hpp ****         void run() override {
  47:test/../test/Threads_CPP_API_test.hpp ****             workerBodyC(nullptr);
  48:test/../test/Threads_CPP_API_test.hpp ****         }
  49:test/../test/Threads_CPP_API_test.hpp ****     };
  50:test/../test/Threads_CPP_API_test.hpp **** 
  51:test/../test/Threads_CPP_API_test.hpp ****     class WorkerD: public Thread {
 586              		.loc 2 51 11 is_stmt 1
 587              		.cfi_startproc
 588              	.LVL56:
 589 0000 130101FF 		addi	sp,sp,-16
 590              		.cfi_def_cfa_offset 16
 591 0004 23341100 		sd	ra,8(sp)
 592 0008 23308100 		sd	s0,0(sp)
 593              		.cfi_offset 1, -8
 594              		.cfi_offset 8, -16
 595 000c 13040101 		addi	s0,sp,16
 596              		.cfi_def_cfa 8, 0
 597              	.LBB99:
 598              		.loc 2 51 11 is_stmt 0
 599 0010 97070000 		lla	a5,_ZTVN20Threads_CPP_API_test7WorkerDE+16
 599      93870700 
 600 0018 2330F500 		sd	a5,0(a0)
 601 001c 97000000 		call	_ZN6ThreadD2Ev@plt
 601      E7800000 
 602              	.LVL57:
 603              	.LBE99:
GAS LISTING /tmp/cc5eykcM.s 			page 16


 604 0024 83308100 		ld	ra,8(sp)
 605              		.cfi_restore 1
 606 0028 03340100 		ld	s0,0(sp)
 607              		.cfi_restore 8
 608              		.cfi_def_cfa 2, 16
 609 002c 13010101 		addi	sp,sp,16
 610              		.cfi_def_cfa_offset 0
 611 0030 67800000 		jr	ra
 612              		.cfi_endproc
 613              	.LFE146:
 615              		.weak	_ZN20Threads_CPP_API_test7WorkerDD1Ev
 616              		.set	_ZN20Threads_CPP_API_test7WorkerDD1Ev,_ZN20Threads_CPP_API_test7WorkerDD2Ev
 617              		.section	.text._ZN20Threads_CPP_API_test7WorkerDD0Ev,"axG",@progbits,_ZN20Threads_CPP_API_test7Wor
 618              		.align	2
 619              		.weak	_ZN20Threads_CPP_API_test7WorkerDD0Ev
 621              	_ZN20Threads_CPP_API_test7WorkerDD0Ev:
 622              	.LFB148:
 623              		.loc 2 51 11 is_stmt 1
 624              		.cfi_startproc
 625              	.LVL58:
 626 0000 130101FE 		addi	sp,sp,-32
 627              		.cfi_def_cfa_offset 32
 628 0004 233C1100 		sd	ra,24(sp)
 629 0008 23388100 		sd	s0,16(sp)
 630 000c 23349100 		sd	s1,8(sp)
 631              		.cfi_offset 1, -8
 632              		.cfi_offset 8, -16
 633              		.cfi_offset 9, -24
 634 0010 13040102 		addi	s0,sp,32
 635              		.cfi_def_cfa 8, 0
 636 0014 93040500 		mv	s1,a0
 637              	.LVL59:
 638              	.LBB100:
 639              	.LBB101:
 640              		.loc 2 51 11 is_stmt 0
 641 0018 97070000 		lla	a5,_ZTVN20Threads_CPP_API_test7WorkerDE+16
 641      93870700 
 642 0020 2330F500 		sd	a5,0(a0)
 643 0024 97000000 		call	_ZN6ThreadD2Ev@plt
 643      E7800000 
 644              	.LVL60:
 645              	.LBE101:
 646              	.LBE100:
 647 002c 13850400 		mv	a0,s1
 648 0030 97000000 		call	_ZdlPv@plt
 648      E7800000 
 649              	.LVL61:
 650 0038 83308101 		ld	ra,24(sp)
 651              		.cfi_restore 1
 652 003c 03340101 		ld	s0,16(sp)
 653              		.cfi_restore 8
 654              		.cfi_def_cfa 2, 32
 655 0040 83348100 		ld	s1,8(sp)
 656              		.cfi_restore 9
 657              	.LVL62:
 658 0044 13010102 		addi	sp,sp,32
 659              		.cfi_def_cfa_offset 0
GAS LISTING /tmp/cc5eykcM.s 			page 17


 660 0048 67800000 		jr	ra
 661              		.cfi_endproc
 662              	.LFE148:
 664              		.section	.text._ZN34ConsumerProducer_CPP_Sync_API_test8ConsumerD2Ev,"axG",@progbits,_ZN34ConsumerP
 665              		.align	2
 666              		.weak	_ZN34ConsumerProducer_CPP_Sync_API_test8ConsumerD2Ev
 668              	_ZN34ConsumerProducer_CPP_Sync_API_test8ConsumerD2Ev:
 669              	.LFB134:
 670              		.file 3 "test/../test/ConsumerProducer_CPP_Sync_API_test.hpp"
   1:test/../test/ConsumerProducer_CPP_Sync_API_test.hpp **** //
   2:test/../test/ConsumerProducer_CPP_Sync_API_test.hpp **** // Created by os on 4/17/22.
   3:test/../test/ConsumerProducer_CPP_Sync_API_test.hpp **** //
   4:test/../test/ConsumerProducer_CPP_Sync_API_test.hpp **** 
   5:test/../test/ConsumerProducer_CPP_Sync_API_test.hpp **** #ifndef XV6_CONSUMERPRODUCER_CPP_Sync_API_TEST_H
   6:test/../test/ConsumerProducer_CPP_Sync_API_test.hpp **** #define XV6_CONSUMERPRODUCER_CPP_Sync_API_TEST_H
   7:test/../test/ConsumerProducer_CPP_Sync_API_test.hpp **** 
   8:test/../test/ConsumerProducer_CPP_Sync_API_test.hpp **** #include "../h/syscall_cpp.hpp"
   9:test/../test/ConsumerProducer_CPP_Sync_API_test.hpp **** 
  10:test/../test/ConsumerProducer_CPP_Sync_API_test.hpp **** #include "../test/buffer_CPP_API.hpp"
  11:test/../test/ConsumerProducer_CPP_Sync_API_test.hpp **** 
  12:test/../test/ConsumerProducer_CPP_Sync_API_test.hpp **** namespace ConsumerProducer_CPP_Sync_API_test {
  13:test/../test/ConsumerProducer_CPP_Sync_API_test.hpp **** 
  14:test/../test/ConsumerProducer_CPP_Sync_API_test.hpp ****     Semaphore* waitForAll;
  15:test/../test/ConsumerProducer_CPP_Sync_API_test.hpp **** 
  16:test/../test/ConsumerProducer_CPP_Sync_API_test.hpp ****     struct thread_data {
  17:test/../test/ConsumerProducer_CPP_Sync_API_test.hpp ****         int id;
  18:test/../test/ConsumerProducer_CPP_Sync_API_test.hpp ****         BufferCPP *buffer;
  19:test/../test/ConsumerProducer_CPP_Sync_API_test.hpp ****         Semaphore* wait;
  20:test/../test/ConsumerProducer_CPP_Sync_API_test.hpp ****     };
  21:test/../test/ConsumerProducer_CPP_Sync_API_test.hpp **** 
  22:test/../test/ConsumerProducer_CPP_Sync_API_test.hpp ****     volatile int threadEnd = 0;
  23:test/../test/ConsumerProducer_CPP_Sync_API_test.hpp **** 
  24:test/../test/ConsumerProducer_CPP_Sync_API_test.hpp ****     class ProducerKeyboard:public Thread {
  25:test/../test/ConsumerProducer_CPP_Sync_API_test.hpp ****         thread_data* td;
  26:test/../test/ConsumerProducer_CPP_Sync_API_test.hpp ****         void producerKeyboard(void *arg);
  27:test/../test/ConsumerProducer_CPP_Sync_API_test.hpp ****     public:
  28:test/../test/ConsumerProducer_CPP_Sync_API_test.hpp ****         ProducerKeyboard(thread_data* _td):Thread(), td(_td) {}
  29:test/../test/ConsumerProducer_CPP_Sync_API_test.hpp **** 
  30:test/../test/ConsumerProducer_CPP_Sync_API_test.hpp ****         void run() override {
  31:test/../test/ConsumerProducer_CPP_Sync_API_test.hpp ****             producerKeyboard(td);
  32:test/../test/ConsumerProducer_CPP_Sync_API_test.hpp ****         }
  33:test/../test/ConsumerProducer_CPP_Sync_API_test.hpp ****     };
  34:test/../test/ConsumerProducer_CPP_Sync_API_test.hpp **** 
  35:test/../test/ConsumerProducer_CPP_Sync_API_test.hpp ****     void ProducerKeyboard::producerKeyboard(void *arg) {
  36:test/../test/ConsumerProducer_CPP_Sync_API_test.hpp ****         struct thread_data *data = (struct thread_data *) arg;
  37:test/../test/ConsumerProducer_CPP_Sync_API_test.hpp **** 
  38:test/../test/ConsumerProducer_CPP_Sync_API_test.hpp ****         int key;
  39:test/../test/ConsumerProducer_CPP_Sync_API_test.hpp ****         int i = 0;
  40:test/../test/ConsumerProducer_CPP_Sync_API_test.hpp ****         while ((key = getc()) != 0x1b) {
  41:test/../test/ConsumerProducer_CPP_Sync_API_test.hpp ****             data->buffer->put(key);
  42:test/../test/ConsumerProducer_CPP_Sync_API_test.hpp ****             i++;
  43:test/../test/ConsumerProducer_CPP_Sync_API_test.hpp **** 
  44:test/../test/ConsumerProducer_CPP_Sync_API_test.hpp ****             if (i % (10 * data->id) == 0) {
  45:test/../test/ConsumerProducer_CPP_Sync_API_test.hpp ****                 Thread::dispatch();
  46:test/../test/ConsumerProducer_CPP_Sync_API_test.hpp ****             }
  47:test/../test/ConsumerProducer_CPP_Sync_API_test.hpp ****         }
  48:test/../test/ConsumerProducer_CPP_Sync_API_test.hpp **** 
GAS LISTING /tmp/cc5eykcM.s 			page 18


  49:test/../test/ConsumerProducer_CPP_Sync_API_test.hpp ****         threadEnd = 1;
  50:test/../test/ConsumerProducer_CPP_Sync_API_test.hpp ****         td->buffer->put('!');
  51:test/../test/ConsumerProducer_CPP_Sync_API_test.hpp **** 
  52:test/../test/ConsumerProducer_CPP_Sync_API_test.hpp ****         data->wait->signal();
  53:test/../test/ConsumerProducer_CPP_Sync_API_test.hpp ****     }
  54:test/../test/ConsumerProducer_CPP_Sync_API_test.hpp **** 
  55:test/../test/ConsumerProducer_CPP_Sync_API_test.hpp ****     class Producer:public Thread {
  56:test/../test/ConsumerProducer_CPP_Sync_API_test.hpp ****         thread_data* td;
  57:test/../test/ConsumerProducer_CPP_Sync_API_test.hpp ****         void producer(void *arg);
  58:test/../test/ConsumerProducer_CPP_Sync_API_test.hpp ****     public:
  59:test/../test/ConsumerProducer_CPP_Sync_API_test.hpp ****         Producer(thread_data* _td):Thread(), td(_td) {}
  60:test/../test/ConsumerProducer_CPP_Sync_API_test.hpp **** 
  61:test/../test/ConsumerProducer_CPP_Sync_API_test.hpp ****         void run() override {
  62:test/../test/ConsumerProducer_CPP_Sync_API_test.hpp ****             producer(td);
  63:test/../test/ConsumerProducer_CPP_Sync_API_test.hpp ****         }
  64:test/../test/ConsumerProducer_CPP_Sync_API_test.hpp ****     };
  65:test/../test/ConsumerProducer_CPP_Sync_API_test.hpp **** 
  66:test/../test/ConsumerProducer_CPP_Sync_API_test.hpp ****     void Producer::producer(void *arg) {
  67:test/../test/ConsumerProducer_CPP_Sync_API_test.hpp ****         struct thread_data *data = (struct thread_data *) arg;
  68:test/../test/ConsumerProducer_CPP_Sync_API_test.hpp **** 
  69:test/../test/ConsumerProducer_CPP_Sync_API_test.hpp ****         int i = 0;
  70:test/../test/ConsumerProducer_CPP_Sync_API_test.hpp ****         while (!threadEnd) {
  71:test/../test/ConsumerProducer_CPP_Sync_API_test.hpp ****             data->buffer->put(data->id + '0');
  72:test/../test/ConsumerProducer_CPP_Sync_API_test.hpp ****             i++;
  73:test/../test/ConsumerProducer_CPP_Sync_API_test.hpp **** 
  74:test/../test/ConsumerProducer_CPP_Sync_API_test.hpp ****             if (i % (10 * data->id) == 0) {
  75:test/../test/ConsumerProducer_CPP_Sync_API_test.hpp ****                 Thread::dispatch();
  76:test/../test/ConsumerProducer_CPP_Sync_API_test.hpp ****             }
  77:test/../test/ConsumerProducer_CPP_Sync_API_test.hpp ****         }
  78:test/../test/ConsumerProducer_CPP_Sync_API_test.hpp **** 
  79:test/../test/ConsumerProducer_CPP_Sync_API_test.hpp ****         data->wait->signal();
  80:test/../test/ConsumerProducer_CPP_Sync_API_test.hpp ****     }
  81:test/../test/ConsumerProducer_CPP_Sync_API_test.hpp **** 
  82:test/../test/ConsumerProducer_CPP_Sync_API_test.hpp ****     class Consumer:public Thread {
 671              		.loc 3 82 11 is_stmt 1
 672              		.cfi_startproc
 673              	.LVL63:
 674 0000 130101FF 		addi	sp,sp,-16
 675              		.cfi_def_cfa_offset 16
 676 0004 23341100 		sd	ra,8(sp)
 677 0008 23308100 		sd	s0,0(sp)
 678              		.cfi_offset 1, -8
 679              		.cfi_offset 8, -16
 680 000c 13040101 		addi	s0,sp,16
 681              		.cfi_def_cfa 8, 0
 682              	.LBB102:
 683              		.loc 3 82 11 is_stmt 0
 684 0010 97070000 		lla	a5,_ZTVN34ConsumerProducer_CPP_Sync_API_test8ConsumerE+16
 684      93870700 
 685 0018 2330F500 		sd	a5,0(a0)
 686 001c 97000000 		call	_ZN6ThreadD2Ev@plt
 686      E7800000 
 687              	.LVL64:
 688              	.LBE102:
 689 0024 83308100 		ld	ra,8(sp)
 690              		.cfi_restore 1
 691 0028 03340100 		ld	s0,0(sp)
GAS LISTING /tmp/cc5eykcM.s 			page 19


 692              		.cfi_restore 8
 693              		.cfi_def_cfa 2, 16
 694 002c 13010101 		addi	sp,sp,16
 695              		.cfi_def_cfa_offset 0
 696 0030 67800000 		jr	ra
 697              		.cfi_endproc
 698              	.LFE134:
 700              		.weak	_ZN34ConsumerProducer_CPP_Sync_API_test8ConsumerD1Ev
 701              		.set	_ZN34ConsumerProducer_CPP_Sync_API_test8ConsumerD1Ev,_ZN34ConsumerProducer_CPP_Sync_API_test8
 702              		.section	.text._ZN34ConsumerProducer_CPP_Sync_API_test8ConsumerD0Ev,"axG",@progbits,_ZN34ConsumerP
 703              		.align	2
 704              		.weak	_ZN34ConsumerProducer_CPP_Sync_API_test8ConsumerD0Ev
 706              	_ZN34ConsumerProducer_CPP_Sync_API_test8ConsumerD0Ev:
 707              	.LFB136:
 708              		.loc 3 82 11 is_stmt 1
 709              		.cfi_startproc
 710              	.LVL65:
 711 0000 130101FE 		addi	sp,sp,-32
 712              		.cfi_def_cfa_offset 32
 713 0004 233C1100 		sd	ra,24(sp)
 714 0008 23388100 		sd	s0,16(sp)
 715 000c 23349100 		sd	s1,8(sp)
 716              		.cfi_offset 1, -8
 717              		.cfi_offset 8, -16
 718              		.cfi_offset 9, -24
 719 0010 13040102 		addi	s0,sp,32
 720              		.cfi_def_cfa 8, 0
 721 0014 93040500 		mv	s1,a0
 722              	.LVL66:
 723              	.LBB103:
 724              	.LBB104:
 725              		.loc 3 82 11 is_stmt 0
 726 0018 97070000 		lla	a5,_ZTVN34ConsumerProducer_CPP_Sync_API_test8ConsumerE+16
 726      93870700 
 727 0020 2330F500 		sd	a5,0(a0)
 728 0024 97000000 		call	_ZN6ThreadD2Ev@plt
 728      E7800000 
 729              	.LVL67:
 730              	.LBE104:
 731              	.LBE103:
 732 002c 13850400 		mv	a0,s1
 733 0030 97000000 		call	_ZdlPv@plt
 733      E7800000 
 734              	.LVL68:
 735 0038 83308101 		ld	ra,24(sp)
 736              		.cfi_restore 1
 737 003c 03340101 		ld	s0,16(sp)
 738              		.cfi_restore 8
 739              		.cfi_def_cfa 2, 32
 740 0040 83348100 		ld	s1,8(sp)
 741              		.cfi_restore 9
 742              	.LVL69:
 743 0044 13010102 		addi	sp,sp,32
 744              		.cfi_def_cfa_offset 0
 745 0048 67800000 		jr	ra
 746              		.cfi_endproc
 747              	.LFE136:
GAS LISTING /tmp/cc5eykcM.s 			page 20


 749              		.section	.text._ZN34ConsumerProducer_CPP_Sync_API_test8ProducerD2Ev,"axG",@progbits,_ZN34ConsumerP
 750              		.align	2
 751              		.weak	_ZN34ConsumerProducer_CPP_Sync_API_test8ProducerD2Ev
 753              	_ZN34ConsumerProducer_CPP_Sync_API_test8ProducerD2Ev:
 754              	.LFB138:
  55:test/../test/ConsumerProducer_CPP_Sync_API_test.hpp ****         thread_data* td;
 755              		.loc 3 55 11 is_stmt 1
 756              		.cfi_startproc
 757              	.LVL70:
 758 0000 130101FF 		addi	sp,sp,-16
 759              		.cfi_def_cfa_offset 16
 760 0004 23341100 		sd	ra,8(sp)
 761 0008 23308100 		sd	s0,0(sp)
 762              		.cfi_offset 1, -8
 763              		.cfi_offset 8, -16
 764 000c 13040101 		addi	s0,sp,16
 765              		.cfi_def_cfa 8, 0
 766              	.LBB105:
  55:test/../test/ConsumerProducer_CPP_Sync_API_test.hpp ****         thread_data* td;
 767              		.loc 3 55 11 is_stmt 0
 768 0010 97070000 		lla	a5,_ZTVN34ConsumerProducer_CPP_Sync_API_test8ProducerE+16
 768      93870700 
 769 0018 2330F500 		sd	a5,0(a0)
 770 001c 97000000 		call	_ZN6ThreadD2Ev@plt
 770      E7800000 
 771              	.LVL71:
 772              	.LBE105:
 773 0024 83308100 		ld	ra,8(sp)
 774              		.cfi_restore 1
 775 0028 03340100 		ld	s0,0(sp)
 776              		.cfi_restore 8
 777              		.cfi_def_cfa 2, 16
 778 002c 13010101 		addi	sp,sp,16
 779              		.cfi_def_cfa_offset 0
 780 0030 67800000 		jr	ra
 781              		.cfi_endproc
 782              	.LFE138:
 784              		.weak	_ZN34ConsumerProducer_CPP_Sync_API_test8ProducerD1Ev
 785              		.set	_ZN34ConsumerProducer_CPP_Sync_API_test8ProducerD1Ev,_ZN34ConsumerProducer_CPP_Sync_API_test8
 786              		.section	.text._ZN34ConsumerProducer_CPP_Sync_API_test8ProducerD0Ev,"axG",@progbits,_ZN34ConsumerP
 787              		.align	2
 788              		.weak	_ZN34ConsumerProducer_CPP_Sync_API_test8ProducerD0Ev
 790              	_ZN34ConsumerProducer_CPP_Sync_API_test8ProducerD0Ev:
 791              	.LFB140:
  55:test/../test/ConsumerProducer_CPP_Sync_API_test.hpp ****         thread_data* td;
 792              		.loc 3 55 11 is_stmt 1
 793              		.cfi_startproc
 794              	.LVL72:
 795 0000 130101FE 		addi	sp,sp,-32
 796              		.cfi_def_cfa_offset 32
 797 0004 233C1100 		sd	ra,24(sp)
 798 0008 23388100 		sd	s0,16(sp)
 799 000c 23349100 		sd	s1,8(sp)
 800              		.cfi_offset 1, -8
 801              		.cfi_offset 8, -16
 802              		.cfi_offset 9, -24
 803 0010 13040102 		addi	s0,sp,32
GAS LISTING /tmp/cc5eykcM.s 			page 21


 804              		.cfi_def_cfa 8, 0
 805 0014 93040500 		mv	s1,a0
 806              	.LVL73:
 807              	.LBB106:
 808              	.LBB107:
  55:test/../test/ConsumerProducer_CPP_Sync_API_test.hpp ****         thread_data* td;
 809              		.loc 3 55 11 is_stmt 0
 810 0018 97070000 		lla	a5,_ZTVN34ConsumerProducer_CPP_Sync_API_test8ProducerE+16
 810      93870700 
 811 0020 2330F500 		sd	a5,0(a0)
 812 0024 97000000 		call	_ZN6ThreadD2Ev@plt
 812      E7800000 
 813              	.LVL74:
 814              	.LBE107:
 815              	.LBE106:
 816 002c 13850400 		mv	a0,s1
 817 0030 97000000 		call	_ZdlPv@plt
 817      E7800000 
 818              	.LVL75:
 819 0038 83308101 		ld	ra,24(sp)
 820              		.cfi_restore 1
 821 003c 03340101 		ld	s0,16(sp)
 822              		.cfi_restore 8
 823              		.cfi_def_cfa 2, 32
 824 0040 83348100 		ld	s1,8(sp)
 825              		.cfi_restore 9
 826              	.LVL76:
 827 0044 13010102 		addi	sp,sp,32
 828              		.cfi_def_cfa_offset 0
 829 0048 67800000 		jr	ra
 830              		.cfi_endproc
 831              	.LFE140:
 833              		.section	.text._ZN34ConsumerProducer_CPP_Sync_API_test16ProducerKeyboardD2Ev,"axG",@progbits,_ZN34
 834              		.align	2
 835              		.weak	_ZN34ConsumerProducer_CPP_Sync_API_test16ProducerKeyboardD2Ev
 837              	_ZN34ConsumerProducer_CPP_Sync_API_test16ProducerKeyboardD2Ev:
 838              	.LFB142:
  24:test/../test/ConsumerProducer_CPP_Sync_API_test.hpp ****         thread_data* td;
 839              		.loc 3 24 11 is_stmt 1
 840              		.cfi_startproc
 841              	.LVL77:
 842 0000 130101FF 		addi	sp,sp,-16
 843              		.cfi_def_cfa_offset 16
 844 0004 23341100 		sd	ra,8(sp)
 845 0008 23308100 		sd	s0,0(sp)
 846              		.cfi_offset 1, -8
 847              		.cfi_offset 8, -16
 848 000c 13040101 		addi	s0,sp,16
 849              		.cfi_def_cfa 8, 0
 850              	.LBB108:
  24:test/../test/ConsumerProducer_CPP_Sync_API_test.hpp ****         thread_data* td;
 851              		.loc 3 24 11 is_stmt 0
 852 0010 97070000 		lla	a5,_ZTVN34ConsumerProducer_CPP_Sync_API_test16ProducerKeyboardE+16
 852      93870700 
 853 0018 2330F500 		sd	a5,0(a0)
 854 001c 97000000 		call	_ZN6ThreadD2Ev@plt
 854      E7800000 
GAS LISTING /tmp/cc5eykcM.s 			page 22


 855              	.LVL78:
 856              	.LBE108:
 857 0024 83308100 		ld	ra,8(sp)
 858              		.cfi_restore 1
 859 0028 03340100 		ld	s0,0(sp)
 860              		.cfi_restore 8
 861              		.cfi_def_cfa 2, 16
 862 002c 13010101 		addi	sp,sp,16
 863              		.cfi_def_cfa_offset 0
 864 0030 67800000 		jr	ra
 865              		.cfi_endproc
 866              	.LFE142:
 868              		.weak	_ZN34ConsumerProducer_CPP_Sync_API_test16ProducerKeyboardD1Ev
 869              		.set	_ZN34ConsumerProducer_CPP_Sync_API_test16ProducerKeyboardD1Ev,_ZN34ConsumerProducer_CPP_Sync_
 870              		.section	.text._ZN34ConsumerProducer_CPP_Sync_API_test16ProducerKeyboardD0Ev,"axG",@progbits,_ZN34
 871              		.align	2
 872              		.weak	_ZN34ConsumerProducer_CPP_Sync_API_test16ProducerKeyboardD0Ev
 874              	_ZN34ConsumerProducer_CPP_Sync_API_test16ProducerKeyboardD0Ev:
 875              	.LFB144:
  24:test/../test/ConsumerProducer_CPP_Sync_API_test.hpp ****         thread_data* td;
 876              		.loc 3 24 11 is_stmt 1
 877              		.cfi_startproc
 878              	.LVL79:
 879 0000 130101FE 		addi	sp,sp,-32
 880              		.cfi_def_cfa_offset 32
 881 0004 233C1100 		sd	ra,24(sp)
 882 0008 23388100 		sd	s0,16(sp)
 883 000c 23349100 		sd	s1,8(sp)
 884              		.cfi_offset 1, -8
 885              		.cfi_offset 8, -16
 886              		.cfi_offset 9, -24
 887 0010 13040102 		addi	s0,sp,32
 888              		.cfi_def_cfa 8, 0
 889 0014 93040500 		mv	s1,a0
 890              	.LVL80:
 891              	.LBB109:
 892              	.LBB110:
  24:test/../test/ConsumerProducer_CPP_Sync_API_test.hpp ****         thread_data* td;
 893              		.loc 3 24 11 is_stmt 0
 894 0018 97070000 		lla	a5,_ZTVN34ConsumerProducer_CPP_Sync_API_test16ProducerKeyboardE+16
 894      93870700 
 895 0020 2330F500 		sd	a5,0(a0)
 896 0024 97000000 		call	_ZN6ThreadD2Ev@plt
 896      E7800000 
 897              	.LVL81:
 898              	.LBE110:
 899              	.LBE109:
 900 002c 13850400 		mv	a0,s1
 901 0030 97000000 		call	_ZdlPv@plt
 901      E7800000 
 902              	.LVL82:
 903 0038 83308101 		ld	ra,24(sp)
 904              		.cfi_restore 1
 905 003c 03340101 		ld	s0,16(sp)
 906              		.cfi_restore 8
 907              		.cfi_def_cfa 2, 32
 908 0040 83348100 		ld	s1,8(sp)
GAS LISTING /tmp/cc5eykcM.s 			page 23


 909              		.cfi_restore 9
 910              	.LVL83:
 911 0044 13010102 		addi	sp,sp,32
 912              		.cfi_def_cfa_offset 0
 913 0048 67800000 		jr	ra
 914              		.cfi_endproc
 915              	.LFE144:
 917              		.section	.text._ZN28ConsumerProducerCPP_API_test8ConsumerD2Ev,"axG",@progbits,_ZN28ConsumerProduce
 918              		.align	2
 919              		.weak	_ZN28ConsumerProducerCPP_API_test8ConsumerD2Ev
 921              	_ZN28ConsumerProducerCPP_API_test8ConsumerD2Ev:
 922              	.LFB122:
 923              		.file 4 "test/../test/ConsumerProducer_CPP_API_test.hpp"
   1:test/../test/ConsumerProducer_CPP_API_test.hpp **** //
   2:test/../test/ConsumerProducer_CPP_API_test.hpp **** // Created by os on 4/17/22.
   3:test/../test/ConsumerProducer_CPP_API_test.hpp **** //
   4:test/../test/ConsumerProducer_CPP_API_test.hpp **** 
   5:test/../test/ConsumerProducer_CPP_API_test.hpp **** #ifndef XV6_CONSUMERPRODUCER_CPP_API_TEST_HPP
   6:test/../test/ConsumerProducer_CPP_API_test.hpp **** #define XV6_CONSUMERPRODUCER_CPP_API_TEST_HPP
   7:test/../test/ConsumerProducer_CPP_API_test.hpp **** 
   8:test/../test/ConsumerProducer_CPP_API_test.hpp **** #include "../h/syscall_cpp.hpp"
   9:test/../test/ConsumerProducer_CPP_API_test.hpp **** 
  10:test/../test/ConsumerProducer_CPP_API_test.hpp **** #include "buffer_CPP_API.hpp"
  11:test/../test/ConsumerProducer_CPP_API_test.hpp **** #include "printing.hpp"
  12:test/../test/ConsumerProducer_CPP_API_test.hpp **** 
  13:test/../test/ConsumerProducer_CPP_API_test.hpp **** namespace ConsumerProducerCPP_API_test {
  14:test/../test/ConsumerProducer_CPP_API_test.hpp **** 
  15:test/../test/ConsumerProducer_CPP_API_test.hpp ****     Semaphore *waitForAll;
  16:test/../test/ConsumerProducer_CPP_API_test.hpp **** 
  17:test/../test/ConsumerProducer_CPP_API_test.hpp ****     struct thread_data {
  18:test/../test/ConsumerProducer_CPP_API_test.hpp ****         int id;
  19:test/../test/ConsumerProducer_CPP_API_test.hpp ****         BufferCPP *buffer;
  20:test/../test/ConsumerProducer_CPP_API_test.hpp ****         Semaphore *sem;
  21:test/../test/ConsumerProducer_CPP_API_test.hpp ****     };
  22:test/../test/ConsumerProducer_CPP_API_test.hpp **** 
  23:test/../test/ConsumerProducer_CPP_API_test.hpp ****     volatile int threadEnd = 0;
  24:test/../test/ConsumerProducer_CPP_API_test.hpp **** 
  25:test/../test/ConsumerProducer_CPP_API_test.hpp ****     class ProducerKeyborad : public Thread {
  26:test/../test/ConsumerProducer_CPP_API_test.hpp ****         thread_data *td;
  27:test/../test/ConsumerProducer_CPP_API_test.hpp ****     public:
  28:test/../test/ConsumerProducer_CPP_API_test.hpp ****         ProducerKeyborad(thread_data *_td) : Thread(), td(_td) {}
  29:test/../test/ConsumerProducer_CPP_API_test.hpp **** 
  30:test/../test/ConsumerProducer_CPP_API_test.hpp ****         void run() override {
  31:test/../test/ConsumerProducer_CPP_API_test.hpp ****             int key;
  32:test/../test/ConsumerProducer_CPP_API_test.hpp ****             int i = 0;
  33:test/../test/ConsumerProducer_CPP_API_test.hpp ****             while ((key = getc()) != 0x1b) {
  34:test/../test/ConsumerProducer_CPP_API_test.hpp ****                 td->buffer->put(key);
  35:test/../test/ConsumerProducer_CPP_API_test.hpp ****                 i++;
  36:test/../test/ConsumerProducer_CPP_API_test.hpp ****             }
  37:test/../test/ConsumerProducer_CPP_API_test.hpp ****             threadEnd = 1;
  38:test/../test/ConsumerProducer_CPP_API_test.hpp ****             td->buffer->put('!');
  39:test/../test/ConsumerProducer_CPP_API_test.hpp **** 
  40:test/../test/ConsumerProducer_CPP_API_test.hpp ****             td->sem->signal();
  41:test/../test/ConsumerProducer_CPP_API_test.hpp ****         }
  42:test/../test/ConsumerProducer_CPP_API_test.hpp ****     };
  43:test/../test/ConsumerProducer_CPP_API_test.hpp **** 
  44:test/../test/ConsumerProducer_CPP_API_test.hpp ****     class Producer : public Thread {
GAS LISTING /tmp/cc5eykcM.s 			page 24


  45:test/../test/ConsumerProducer_CPP_API_test.hpp ****         thread_data *td;
  46:test/../test/ConsumerProducer_CPP_API_test.hpp ****     public:
  47:test/../test/ConsumerProducer_CPP_API_test.hpp ****         Producer(thread_data *_td) : Thread(), td(_td) {}
  48:test/../test/ConsumerProducer_CPP_API_test.hpp **** 
  49:test/../test/ConsumerProducer_CPP_API_test.hpp ****         void run() override {
  50:test/../test/ConsumerProducer_CPP_API_test.hpp ****             int i = 0;
  51:test/../test/ConsumerProducer_CPP_API_test.hpp ****             while (!threadEnd) {
  52:test/../test/ConsumerProducer_CPP_API_test.hpp ****                 td->buffer->put(td->id + '0');
  53:test/../test/ConsumerProducer_CPP_API_test.hpp ****                 i++;
  54:test/../test/ConsumerProducer_CPP_API_test.hpp ****                 Thread::sleep((i+td->id)%5);
  55:test/../test/ConsumerProducer_CPP_API_test.hpp ****             }
  56:test/../test/ConsumerProducer_CPP_API_test.hpp **** 
  57:test/../test/ConsumerProducer_CPP_API_test.hpp ****             td->sem->signal();
  58:test/../test/ConsumerProducer_CPP_API_test.hpp ****         }
  59:test/../test/ConsumerProducer_CPP_API_test.hpp ****     };
  60:test/../test/ConsumerProducer_CPP_API_test.hpp **** 
  61:test/../test/ConsumerProducer_CPP_API_test.hpp ****     class Consumer : public Thread {
 924              		.loc 4 61 11 is_stmt 1
 925              		.cfi_startproc
 926              	.LVL84:
 927 0000 130101FF 		addi	sp,sp,-16
 928              		.cfi_def_cfa_offset 16
 929 0004 23341100 		sd	ra,8(sp)
 930 0008 23308100 		sd	s0,0(sp)
 931              		.cfi_offset 1, -8
 932              		.cfi_offset 8, -16
 933 000c 13040101 		addi	s0,sp,16
 934              		.cfi_def_cfa 8, 0
 935              	.LBB111:
 936              		.loc 4 61 11 is_stmt 0
 937 0010 97070000 		lla	a5,_ZTVN28ConsumerProducerCPP_API_test8ConsumerE+16
 937      93870700 
 938 0018 2330F500 		sd	a5,0(a0)
 939 001c 97000000 		call	_ZN6ThreadD2Ev@plt
 939      E7800000 
 940              	.LVL85:
 941              	.LBE111:
 942 0024 83308100 		ld	ra,8(sp)
 943              		.cfi_restore 1
 944 0028 03340100 		ld	s0,0(sp)
 945              		.cfi_restore 8
 946              		.cfi_def_cfa 2, 16
 947 002c 13010101 		addi	sp,sp,16
 948              		.cfi_def_cfa_offset 0
 949 0030 67800000 		jr	ra
 950              		.cfi_endproc
 951              	.LFE122:
 953              		.weak	_ZN28ConsumerProducerCPP_API_test8ConsumerD1Ev
 954              		.set	_ZN28ConsumerProducerCPP_API_test8ConsumerD1Ev,_ZN28ConsumerProducerCPP_API_test8ConsumerD2Ev
 955              		.section	.text._ZN28ConsumerProducerCPP_API_test8ConsumerD0Ev,"axG",@progbits,_ZN28ConsumerProduce
 956              		.align	2
 957              		.weak	_ZN28ConsumerProducerCPP_API_test8ConsumerD0Ev
 959              	_ZN28ConsumerProducerCPP_API_test8ConsumerD0Ev:
 960              	.LFB124:
 961              		.loc 4 61 11 is_stmt 1
 962              		.cfi_startproc
 963              	.LVL86:
GAS LISTING /tmp/cc5eykcM.s 			page 25


 964 0000 130101FE 		addi	sp,sp,-32
 965              		.cfi_def_cfa_offset 32
 966 0004 233C1100 		sd	ra,24(sp)
 967 0008 23388100 		sd	s0,16(sp)
 968 000c 23349100 		sd	s1,8(sp)
 969              		.cfi_offset 1, -8
 970              		.cfi_offset 8, -16
 971              		.cfi_offset 9, -24
 972 0010 13040102 		addi	s0,sp,32
 973              		.cfi_def_cfa 8, 0
 974 0014 93040500 		mv	s1,a0
 975              	.LVL87:
 976              	.LBB112:
 977              	.LBB113:
 978              		.loc 4 61 11 is_stmt 0
 979 0018 97070000 		lla	a5,_ZTVN28ConsumerProducerCPP_API_test8ConsumerE+16
 979      93870700 
 980 0020 2330F500 		sd	a5,0(a0)
 981 0024 97000000 		call	_ZN6ThreadD2Ev@plt
 981      E7800000 
 982              	.LVL88:
 983              	.LBE113:
 984              	.LBE112:
 985 002c 13850400 		mv	a0,s1
 986 0030 97000000 		call	_ZdlPv@plt
 986      E7800000 
 987              	.LVL89:
 988 0038 83308101 		ld	ra,24(sp)
 989              		.cfi_restore 1
 990 003c 03340101 		ld	s0,16(sp)
 991              		.cfi_restore 8
 992              		.cfi_def_cfa 2, 32
 993 0040 83348100 		ld	s1,8(sp)
 994              		.cfi_restore 9
 995              	.LVL90:
 996 0044 13010102 		addi	sp,sp,32
 997              		.cfi_def_cfa_offset 0
 998 0048 67800000 		jr	ra
 999              		.cfi_endproc
 1000              	.LFE124:
 1002              		.section	.text._ZN28ConsumerProducerCPP_API_test16ProducerKeyboradD2Ev,"axG",@progbits,_ZN28Consum
 1003              		.align	2
 1004              		.weak	_ZN28ConsumerProducerCPP_API_test16ProducerKeyboradD2Ev
 1006              	_ZN28ConsumerProducerCPP_API_test16ProducerKeyboradD2Ev:
 1007              	.LFB130:
  25:test/../test/ConsumerProducer_CPP_API_test.hpp ****         thread_data *td;
 1008              		.loc 4 25 11 is_stmt 1
 1009              		.cfi_startproc
 1010              	.LVL91:
 1011 0000 130101FF 		addi	sp,sp,-16
 1012              		.cfi_def_cfa_offset 16
 1013 0004 23341100 		sd	ra,8(sp)
 1014 0008 23308100 		sd	s0,0(sp)
 1015              		.cfi_offset 1, -8
 1016              		.cfi_offset 8, -16
 1017 000c 13040101 		addi	s0,sp,16
 1018              		.cfi_def_cfa 8, 0
GAS LISTING /tmp/cc5eykcM.s 			page 26


 1019              	.LBB114:
  25:test/../test/ConsumerProducer_CPP_API_test.hpp ****         thread_data *td;
 1020              		.loc 4 25 11 is_stmt 0
 1021 0010 97070000 		lla	a5,_ZTVN28ConsumerProducerCPP_API_test16ProducerKeyboradE+16
 1021      93870700 
 1022 0018 2330F500 		sd	a5,0(a0)
 1023 001c 97000000 		call	_ZN6ThreadD2Ev@plt
 1023      E7800000 
 1024              	.LVL92:
 1025              	.LBE114:
 1026 0024 83308100 		ld	ra,8(sp)
 1027              		.cfi_restore 1
 1028 0028 03340100 		ld	s0,0(sp)
 1029              		.cfi_restore 8
 1030              		.cfi_def_cfa 2, 16
 1031 002c 13010101 		addi	sp,sp,16
 1032              		.cfi_def_cfa_offset 0
 1033 0030 67800000 		jr	ra
 1034              		.cfi_endproc
 1035              	.LFE130:
 1037              		.weak	_ZN28ConsumerProducerCPP_API_test16ProducerKeyboradD1Ev
 1038              		.set	_ZN28ConsumerProducerCPP_API_test16ProducerKeyboradD1Ev,_ZN28ConsumerProducerCPP_API_test16Pr
 1039              		.section	.text._ZN28ConsumerProducerCPP_API_test16ProducerKeyboradD0Ev,"axG",@progbits,_ZN28Consum
 1040              		.align	2
 1041              		.weak	_ZN28ConsumerProducerCPP_API_test16ProducerKeyboradD0Ev
 1043              	_ZN28ConsumerProducerCPP_API_test16ProducerKeyboradD0Ev:
 1044              	.LFB132:
  25:test/../test/ConsumerProducer_CPP_API_test.hpp ****         thread_data *td;
 1045              		.loc 4 25 11 is_stmt 1
 1046              		.cfi_startproc
 1047              	.LVL93:
 1048 0000 130101FE 		addi	sp,sp,-32
 1049              		.cfi_def_cfa_offset 32
 1050 0004 233C1100 		sd	ra,24(sp)
 1051 0008 23388100 		sd	s0,16(sp)
 1052 000c 23349100 		sd	s1,8(sp)
 1053              		.cfi_offset 1, -8
 1054              		.cfi_offset 8, -16
 1055              		.cfi_offset 9, -24
 1056 0010 13040102 		addi	s0,sp,32
 1057              		.cfi_def_cfa 8, 0
 1058 0014 93040500 		mv	s1,a0
 1059              	.LVL94:
 1060              	.LBB115:
 1061              	.LBB116:
  25:test/../test/ConsumerProducer_CPP_API_test.hpp ****         thread_data *td;
 1062              		.loc 4 25 11 is_stmt 0
 1063 0018 97070000 		lla	a5,_ZTVN28ConsumerProducerCPP_API_test16ProducerKeyboradE+16
 1063      93870700 
 1064 0020 2330F500 		sd	a5,0(a0)
 1065 0024 97000000 		call	_ZN6ThreadD2Ev@plt
 1065      E7800000 
 1066              	.LVL95:
 1067              	.LBE116:
 1068              	.LBE115:
 1069 002c 13850400 		mv	a0,s1
 1070 0030 97000000 		call	_ZdlPv@plt
GAS LISTING /tmp/cc5eykcM.s 			page 27


 1070      E7800000 
 1071              	.LVL96:
 1072 0038 83308101 		ld	ra,24(sp)
 1073              		.cfi_restore 1
 1074 003c 03340101 		ld	s0,16(sp)
 1075              		.cfi_restore 8
 1076              		.cfi_def_cfa 2, 32
 1077 0040 83348100 		ld	s1,8(sp)
 1078              		.cfi_restore 9
 1079              	.LVL97:
 1080 0044 13010102 		addi	sp,sp,32
 1081              		.cfi_def_cfa_offset 0
 1082 0048 67800000 		jr	ra
 1083              		.cfi_endproc
 1084              	.LFE132:
 1086              		.section	.text._ZN28ConsumerProducerCPP_API_test8ProducerD2Ev,"axG",@progbits,_ZN28ConsumerProduce
 1087              		.align	2
 1088              		.weak	_ZN28ConsumerProducerCPP_API_test8ProducerD2Ev
 1090              	_ZN28ConsumerProducerCPP_API_test8ProducerD2Ev:
 1091              	.LFB126:
  44:test/../test/ConsumerProducer_CPP_API_test.hpp ****         thread_data *td;
 1092              		.loc 4 44 11 is_stmt 1
 1093              		.cfi_startproc
 1094              	.LVL98:
 1095 0000 130101FF 		addi	sp,sp,-16
 1096              		.cfi_def_cfa_offset 16
 1097 0004 23341100 		sd	ra,8(sp)
 1098 0008 23308100 		sd	s0,0(sp)
 1099              		.cfi_offset 1, -8
 1100              		.cfi_offset 8, -16
 1101 000c 13040101 		addi	s0,sp,16
 1102              		.cfi_def_cfa 8, 0
 1103              	.LBB117:
  44:test/../test/ConsumerProducer_CPP_API_test.hpp ****         thread_data *td;
 1104              		.loc 4 44 11 is_stmt 0
 1105 0010 97070000 		lla	a5,_ZTVN28ConsumerProducerCPP_API_test8ProducerE+16
 1105      93870700 
 1106 0018 2330F500 		sd	a5,0(a0)
 1107 001c 97000000 		call	_ZN6ThreadD2Ev@plt
 1107      E7800000 
 1108              	.LVL99:
 1109              	.LBE117:
 1110 0024 83308100 		ld	ra,8(sp)
 1111              		.cfi_restore 1
 1112 0028 03340100 		ld	s0,0(sp)
 1113              		.cfi_restore 8
 1114              		.cfi_def_cfa 2, 16
 1115 002c 13010101 		addi	sp,sp,16
 1116              		.cfi_def_cfa_offset 0
 1117 0030 67800000 		jr	ra
 1118              		.cfi_endproc
 1119              	.LFE126:
 1121              		.weak	_ZN28ConsumerProducerCPP_API_test8ProducerD1Ev
 1122              		.set	_ZN28ConsumerProducerCPP_API_test8ProducerD1Ev,_ZN28ConsumerProducerCPP_API_test8ProducerD2Ev
 1123              		.section	.text._ZN28ConsumerProducerCPP_API_test8ProducerD0Ev,"axG",@progbits,_ZN28ConsumerProduce
 1124              		.align	2
 1125              		.weak	_ZN28ConsumerProducerCPP_API_test8ProducerD0Ev
GAS LISTING /tmp/cc5eykcM.s 			page 28


 1127              	_ZN28ConsumerProducerCPP_API_test8ProducerD0Ev:
 1128              	.LFB128:
  44:test/../test/ConsumerProducer_CPP_API_test.hpp ****         thread_data *td;
 1129              		.loc 4 44 11 is_stmt 1
 1130              		.cfi_startproc
 1131              	.LVL100:
 1132 0000 130101FE 		addi	sp,sp,-32
 1133              		.cfi_def_cfa_offset 32
 1134 0004 233C1100 		sd	ra,24(sp)
 1135 0008 23388100 		sd	s0,16(sp)
 1136 000c 23349100 		sd	s1,8(sp)
 1137              		.cfi_offset 1, -8
 1138              		.cfi_offset 8, -16
 1139              		.cfi_offset 9, -24
 1140 0010 13040102 		addi	s0,sp,32
 1141              		.cfi_def_cfa 8, 0
 1142 0014 93040500 		mv	s1,a0
 1143              	.LVL101:
 1144              	.LBB118:
 1145              	.LBB119:
  44:test/../test/ConsumerProducer_CPP_API_test.hpp ****         thread_data *td;
 1146              		.loc 4 44 11 is_stmt 0
 1147 0018 97070000 		lla	a5,_ZTVN28ConsumerProducerCPP_API_test8ProducerE+16
 1147      93870700 
 1148 0020 2330F500 		sd	a5,0(a0)
 1149 0024 97000000 		call	_ZN6ThreadD2Ev@plt
 1149      E7800000 
 1150              	.LVL102:
 1151              	.LBE119:
 1152              	.LBE118:
 1153 002c 13850400 		mv	a0,s1
 1154 0030 97000000 		call	_ZdlPv@plt
 1154      E7800000 
 1155              	.LVL103:
 1156 0038 83308101 		ld	ra,24(sp)
 1157              		.cfi_restore 1
 1158 003c 03340101 		ld	s0,16(sp)
 1159              		.cfi_restore 8
 1160              		.cfi_def_cfa 2, 32
 1161 0040 83348100 		ld	s1,8(sp)
 1162              		.cfi_restore 9
 1163              	.LVL104:
 1164 0044 13010102 		addi	sp,sp,32
 1165              		.cfi_def_cfa_offset 0
 1166 0048 67800000 		jr	ra
 1167              		.cfi_endproc
 1168              	.LFE128:
 1170              		.text
 1171              		.align	2
 1172              		.globl	_ZN27ConsumerProducer_C_API_test16producerKeyboardEPv
 1174              	_ZN27ConsumerProducer_C_API_test16producerKeyboardEPv:
 1175              	.LFB76:
 1176              		.file 5 "test/../test/ConsumerProducer_C_API_test.h"
   1:test/../test/ConsumerProducer_C_API_test.h **** //
   2:test/../test/ConsumerProducer_C_API_test.h **** // Created by os on 4/17/22.
   3:test/../test/ConsumerProducer_C_API_test.h **** //
   4:test/../test/ConsumerProducer_C_API_test.h **** 
GAS LISTING /tmp/cc5eykcM.s 			page 29


   5:test/../test/ConsumerProducer_C_API_test.h **** #ifndef XV6_CONSUMERPRODUCER_C_API_TEST_H
   6:test/../test/ConsumerProducer_C_API_test.h **** #define XV6_CONSUMERPRODUCER_C_API_TEST_H
   7:test/../test/ConsumerProducer_C_API_test.h **** 
   8:test/../test/ConsumerProducer_C_API_test.h **** #include "../h/syscall_c.h"
   9:test/../test/ConsumerProducer_C_API_test.h **** 
  10:test/../test/ConsumerProducer_C_API_test.h **** #include "buffer.hpp"
  11:test/../test/ConsumerProducer_C_API_test.h **** 
  12:test/../test/ConsumerProducer_C_API_test.h **** namespace ConsumerProducer_C_API_test{
  13:test/../test/ConsumerProducer_C_API_test.h ****     sem_t waitForAll;
  14:test/../test/ConsumerProducer_C_API_test.h **** 
  15:test/../test/ConsumerProducer_C_API_test.h ****     struct thread_data {
  16:test/../test/ConsumerProducer_C_API_test.h ****         int id;
  17:test/../test/ConsumerProducer_C_API_test.h ****         Buffer *buffer;
  18:test/../test/ConsumerProducer_C_API_test.h ****         sem_t wait;
  19:test/../test/ConsumerProducer_C_API_test.h ****     };
  20:test/../test/ConsumerProducer_C_API_test.h **** 
  21:test/../test/ConsumerProducer_C_API_test.h ****     volatile int threadEnd = 0;
  22:test/../test/ConsumerProducer_C_API_test.h **** 
  23:test/../test/ConsumerProducer_C_API_test.h ****     void producerKeyboard(void *arg) {
 1177              		.loc 5 23 38 is_stmt 1
 1178              		.cfi_startproc
 1179              	.LVL105:
 1180 01e4 130101FE 		addi	sp,sp,-32
 1181              		.cfi_def_cfa_offset 32
 1182 01e8 233C1100 		sd	ra,24(sp)
 1183 01ec 23388100 		sd	s0,16(sp)
 1184 01f0 23349100 		sd	s1,8(sp)
 1185 01f4 23302101 		sd	s2,0(sp)
 1186              		.cfi_offset 1, -8
 1187              		.cfi_offset 8, -16
 1188              		.cfi_offset 9, -24
 1189              		.cfi_offset 18, -32
 1190 01f8 13040102 		addi	s0,sp,32
 1191              		.cfi_def_cfa 8, 0
 1192 01fc 93040500 		mv	s1,a0
  24:test/../test/ConsumerProducer_C_API_test.h ****         struct thread_data *data = (struct thread_data *) arg;
 1193              		.loc 5 24 9
 1194              	.LVL106:
  25:test/../test/ConsumerProducer_C_API_test.h **** 
  26:test/../test/ConsumerProducer_C_API_test.h ****         int key;
 1195              		.loc 5 26 9
  27:test/../test/ConsumerProducer_C_API_test.h ****         int i = 0;
 1196              		.loc 5 27 9
 1197              		.loc 5 27 13 is_stmt 0
 1198 0200 13090000 		li	s2,0
 1199 0204 6F00C000 		j	.L60
 1200              	.LVL107:
 1201              	.L64:
  28:test/../test/ConsumerProducer_C_API_test.h ****         while ((key = getc()) != 0x1b) {
  29:test/../test/ConsumerProducer_C_API_test.h ****             data->buffer->put(key);
  30:test/../test/ConsumerProducer_C_API_test.h ****             i++;
  31:test/../test/ConsumerProducer_C_API_test.h **** 
  32:test/../test/ConsumerProducer_C_API_test.h ****             if (i % (10 * data->id) == 0) {
  33:test/../test/ConsumerProducer_C_API_test.h ****                 thread_dispatch();
 1202              		.loc 5 33 17 is_stmt 1
 1203              		.loc 5 33 32 is_stmt 0
 1204 0208 97000000 		call	thread_dispatch@plt
GAS LISTING /tmp/cc5eykcM.s 			page 30


 1204      E7800000 
 1205              	.LVL108:
 1206              	.L60:
  28:test/../test/ConsumerProducer_C_API_test.h ****         while ((key = getc()) != 0x1b) {
 1207              		.loc 5 28 9 is_stmt 1
  28:test/../test/ConsumerProducer_C_API_test.h ****         while ((key = getc()) != 0x1b) {
 1208              		.loc 5 28 31
  28:test/../test/ConsumerProducer_C_API_test.h ****         while ((key = getc()) != 0x1b) {
 1209              		.loc 5 28 27 is_stmt 0
 1210 0210 97000000 		call	getc@plt
 1210      E7800000 
 1211              	.LVL109:
  28:test/../test/ConsumerProducer_C_API_test.h ****         while ((key = getc()) != 0x1b) {
 1212              		.loc 5 28 21
 1213 0218 9B050500 		sext.w	a1,a0
 1214              	.LVL110:
  28:test/../test/ConsumerProducer_C_API_test.h ****         while ((key = getc()) != 0x1b) {
 1215              		.loc 5 28 31
 1216 021c 9307B001 		li	a5,27
 1217 0220 638AF502 		beq	a1,a5,.L61
  29:test/../test/ConsumerProducer_C_API_test.h ****             i++;
 1218              		.loc 5 29 13 is_stmt 1
  29:test/../test/ConsumerProducer_C_API_test.h ****             i++;
 1219              		.loc 5 29 30 is_stmt 0
 1220 0224 03B58400 		ld	a0,8(s1)
 1221 0228 97000000 		call	_ZN6Buffer3putEi@plt
 1221      E7800000 
 1222              	.LVL111:
  30:test/../test/ConsumerProducer_C_API_test.h **** 
 1223              		.loc 5 30 13 is_stmt 1
  30:test/../test/ConsumerProducer_C_API_test.h **** 
 1224              		.loc 5 30 14 is_stmt 0
 1225 0230 1B071900 		addiw	a4,s2,1
 1226 0234 1B090700 		sext.w	s2,a4
 1227              	.LVL112:
  32:test/../test/ConsumerProducer_C_API_test.h ****                 thread_dispatch();
 1228              		.loc 5 32 13 is_stmt 1
  32:test/../test/ConsumerProducer_C_API_test.h ****                 thread_dispatch();
 1229              		.loc 5 32 33 is_stmt 0
 1230 0238 83A60400 		lw	a3,0(s1)
  32:test/../test/ConsumerProducer_C_API_test.h ****                 thread_dispatch();
 1231              		.loc 5 32 25
 1232 023c 9B972600 		slliw	a5,a3,2
 1233 0240 BB87D700 		addw	a5,a5,a3
 1234 0244 9B971700 		slliw	a5,a5,1
  32:test/../test/ConsumerProducer_C_API_test.h ****                 thread_dispatch();
 1235              		.loc 5 32 19
 1236 0248 BB67F702 		remw	a5,a4,a5
  32:test/../test/ConsumerProducer_C_API_test.h ****                 thread_dispatch();
 1237              		.loc 5 32 13
 1238 024c E39207FC 		bnez	a5,.L60
 1239 0250 6FF09FFB 		j	.L64
 1240              	.LVL113:
 1241              	.L61:
  34:test/../test/ConsumerProducer_C_API_test.h ****             }
  35:test/../test/ConsumerProducer_C_API_test.h ****         }
  36:test/../test/ConsumerProducer_C_API_test.h **** 
GAS LISTING /tmp/cc5eykcM.s 			page 31


  37:test/../test/ConsumerProducer_C_API_test.h ****         threadEnd = 1;
 1242              		.loc 5 37 9 is_stmt 1
 1243              		.loc 5 37 19 is_stmt 0
 1244 0254 93071000 		li	a5,1
 1245 0258 17070000 		sw	a5,.LANCHOR0+4,a4
 1245      2320F700 
  38:test/../test/ConsumerProducer_C_API_test.h ****         data->buffer->put('!');
 1246              		.loc 5 38 9 is_stmt 1
 1247              		.loc 5 38 26 is_stmt 0
 1248 0260 93051002 		li	a1,33
 1249              	.LVL114:
 1250 0264 03B58400 		ld	a0,8(s1)
 1251              	.LVL115:
 1252 0268 97000000 		call	_ZN6Buffer3putEi@plt
 1252      E7800000 
 1253              	.LVL116:
  39:test/../test/ConsumerProducer_C_API_test.h **** 
  40:test/../test/ConsumerProducer_C_API_test.h ****         sem_signal(data->wait);
 1254              		.loc 5 40 9 is_stmt 1
 1255              		.loc 5 40 19 is_stmt 0
 1256 0270 03B50401 		ld	a0,16(s1)
 1257 0274 97000000 		call	sem_signal@plt
 1257      E7800000 
 1258              	.LVL117:
  41:test/../test/ConsumerProducer_C_API_test.h ****     }
 1259              		.loc 5 41 5
 1260 027c 83308101 		ld	ra,24(sp)
 1261              		.cfi_restore 1
 1262 0280 03340101 		ld	s0,16(sp)
 1263              		.cfi_restore 8
 1264              		.cfi_def_cfa 2, 32
 1265 0284 83348100 		ld	s1,8(sp)
 1266              		.cfi_restore 9
 1267              	.LVL118:
 1268 0288 03390100 		ld	s2,0(sp)
 1269              		.cfi_restore 18
 1270              	.LVL119:
 1271 028c 13010102 		addi	sp,sp,32
 1272              		.cfi_def_cfa_offset 0
 1273 0290 67800000 		jr	ra
 1274              		.cfi_endproc
 1275              	.LFE76:
 1277              		.align	2
 1278              		.globl	_ZN27ConsumerProducer_C_API_test8producerEPv
 1280              	_ZN27ConsumerProducer_C_API_test8producerEPv:
 1281              	.LFB77:
  42:test/../test/ConsumerProducer_C_API_test.h **** 
  43:test/../test/ConsumerProducer_C_API_test.h ****     void producer(void *arg) {
 1282              		.loc 5 43 30 is_stmt 1
 1283              		.cfi_startproc
 1284              	.LVL120:
 1285 0294 130101FE 		addi	sp,sp,-32
 1286              		.cfi_def_cfa_offset 32
 1287 0298 233C1100 		sd	ra,24(sp)
 1288 029c 23388100 		sd	s0,16(sp)
 1289 02a0 23349100 		sd	s1,8(sp)
 1290 02a4 23302101 		sd	s2,0(sp)
GAS LISTING /tmp/cc5eykcM.s 			page 32


 1291              		.cfi_offset 1, -8
 1292              		.cfi_offset 8, -16
 1293              		.cfi_offset 9, -24
 1294              		.cfi_offset 18, -32
 1295 02a8 13040102 		addi	s0,sp,32
 1296              		.cfi_def_cfa 8, 0
 1297 02ac 93040500 		mv	s1,a0
  44:test/../test/ConsumerProducer_C_API_test.h ****         struct thread_data *data = (struct thread_data *) arg;
 1298              		.loc 5 44 9
 1299              	.LVL121:
  45:test/../test/ConsumerProducer_C_API_test.h **** 
  46:test/../test/ConsumerProducer_C_API_test.h ****         int i = 0;
 1300              		.loc 5 46 9
 1301              		.loc 5 46 13 is_stmt 0
 1302 02b0 13090000 		li	s2,0
 1303 02b4 6F00C000 		j	.L66
 1304              	.LVL122:
 1305              	.L70:
  47:test/../test/ConsumerProducer_C_API_test.h ****         while (!threadEnd) {
  48:test/../test/ConsumerProducer_C_API_test.h ****             data->buffer->put(data->id + '0');
  49:test/../test/ConsumerProducer_C_API_test.h ****             i++;
  50:test/../test/ConsumerProducer_C_API_test.h **** 
  51:test/../test/ConsumerProducer_C_API_test.h ****             if (i % (10 * data->id) == 0) {
  52:test/../test/ConsumerProducer_C_API_test.h ****                 thread_dispatch();
 1306              		.loc 5 52 17 is_stmt 1
 1307              		.loc 5 52 32 is_stmt 0
 1308 02b8 97000000 		call	thread_dispatch@plt
 1308      E7800000 
 1309              	.LVL123:
 1310              	.L66:
  47:test/../test/ConsumerProducer_C_API_test.h ****         while (!threadEnd) {
 1311              		.loc 5 47 9 is_stmt 1
  47:test/../test/ConsumerProducer_C_API_test.h ****         while (!threadEnd) {
 1312              		.loc 5 47 16
 1313 02c0 97070000 		lw	a5,.LANCHOR0+4
 1313      83A70700 
 1314 02c8 639E0702 		bnez	a5,.L67
  48:test/../test/ConsumerProducer_C_API_test.h ****             i++;
 1315              		.loc 5 48 13
  48:test/../test/ConsumerProducer_C_API_test.h ****             i++;
 1316              		.loc 5 48 37 is_stmt 0
 1317 02cc 83A50400 		lw	a1,0(s1)
  48:test/../test/ConsumerProducer_C_API_test.h ****             i++;
 1318              		.loc 5 48 30
 1319 02d0 9B850503 		addiw	a1,a1,48
 1320 02d4 03B58400 		ld	a0,8(s1)
 1321 02d8 97000000 		call	_ZN6Buffer3putEi@plt
 1321      E7800000 
 1322              	.LVL124:
  49:test/../test/ConsumerProducer_C_API_test.h **** 
 1323              		.loc 5 49 13 is_stmt 1
  49:test/../test/ConsumerProducer_C_API_test.h **** 
 1324              		.loc 5 49 14 is_stmt 0
 1325 02e0 1B071900 		addiw	a4,s2,1
 1326 02e4 1B090700 		sext.w	s2,a4
 1327              	.LVL125:
  51:test/../test/ConsumerProducer_C_API_test.h ****                 thread_dispatch();
GAS LISTING /tmp/cc5eykcM.s 			page 33


 1328              		.loc 5 51 13 is_stmt 1
  51:test/../test/ConsumerProducer_C_API_test.h ****                 thread_dispatch();
 1329              		.loc 5 51 33 is_stmt 0
 1330 02e8 83A60400 		lw	a3,0(s1)
  51:test/../test/ConsumerProducer_C_API_test.h ****                 thread_dispatch();
 1331              		.loc 5 51 25
 1332 02ec 9B972600 		slliw	a5,a3,2
 1333 02f0 BB87D700 		addw	a5,a5,a3
 1334 02f4 9B971700 		slliw	a5,a5,1
  51:test/../test/ConsumerProducer_C_API_test.h ****                 thread_dispatch();
 1335              		.loc 5 51 19
 1336 02f8 BB67F702 		remw	a5,a4,a5
  51:test/../test/ConsumerProducer_C_API_test.h ****                 thread_dispatch();
 1337              		.loc 5 51 13
 1338 02fc E39207FC 		bnez	a5,.L66
 1339 0300 6FF09FFB 		j	.L70
 1340              	.LVL126:
 1341              	.L67:
  53:test/../test/ConsumerProducer_C_API_test.h ****             }
  54:test/../test/ConsumerProducer_C_API_test.h ****         }
  55:test/../test/ConsumerProducer_C_API_test.h **** 
  56:test/../test/ConsumerProducer_C_API_test.h ****         sem_signal(data->wait);
 1342              		.loc 5 56 9 is_stmt 1
 1343              		.loc 5 56 19 is_stmt 0
 1344 0304 03B50401 		ld	a0,16(s1)
 1345 0308 97000000 		call	sem_signal@plt
 1345      E7800000 
 1346              	.LVL127:
  57:test/../test/ConsumerProducer_C_API_test.h ****     }
 1347              		.loc 5 57 5
 1348 0310 83308101 		ld	ra,24(sp)
 1349              		.cfi_restore 1
 1350 0314 03340101 		ld	s0,16(sp)
 1351              		.cfi_restore 8
 1352              		.cfi_def_cfa 2, 32
 1353 0318 83348100 		ld	s1,8(sp)
 1354              		.cfi_restore 9
 1355              	.LVL128:
 1356 031c 03390100 		ld	s2,0(sp)
 1357              		.cfi_restore 18
 1358              	.LVL129:
 1359 0320 13010102 		addi	sp,sp,32
 1360              		.cfi_def_cfa_offset 0
 1361 0324 67800000 		jr	ra
 1362              		.cfi_endproc
 1363              	.LFE77:
 1365              		.align	2
 1366              		.globl	_ZN27ConsumerProducer_C_API_test8consumerEPv
 1368              	_ZN27ConsumerProducer_C_API_test8consumerEPv:
 1369              	.LFB78:
  58:test/../test/ConsumerProducer_C_API_test.h **** 
  59:test/../test/ConsumerProducer_C_API_test.h ****     void consumer(void *arg) {
 1370              		.loc 5 59 30 is_stmt 1
 1371              		.cfi_startproc
 1372              	.LVL130:
 1373 0328 130101FD 		addi	sp,sp,-48
 1374              		.cfi_def_cfa_offset 48
GAS LISTING /tmp/cc5eykcM.s 			page 34


 1375 032c 23341102 		sd	ra,40(sp)
 1376 0330 23308102 		sd	s0,32(sp)
 1377 0334 233C9100 		sd	s1,24(sp)
 1378 0338 23382101 		sd	s2,16(sp)
 1379 033c 23343101 		sd	s3,8(sp)
 1380              		.cfi_offset 1, -8
 1381              		.cfi_offset 8, -16
 1382              		.cfi_offset 9, -24
 1383              		.cfi_offset 18, -32
 1384              		.cfi_offset 19, -40
 1385 0340 13040103 		addi	s0,sp,48
 1386              		.cfi_def_cfa 8, 0
 1387 0344 13090500 		mv	s2,a0
  60:test/../test/ConsumerProducer_C_API_test.h ****         struct thread_data *data = (struct thread_data *) arg;
 1388              		.loc 5 60 9
 1389              	.LVL131:
  61:test/../test/ConsumerProducer_C_API_test.h **** 
  62:test/../test/ConsumerProducer_C_API_test.h ****         int i = 0;
 1390              		.loc 5 62 9
 1391              		.loc 5 62 13 is_stmt 0
 1392 0348 93090000 		li	s3,0
 1393 034c 6F00C001 		j	.L72
 1394              	.LVL132:
 1395              	.L78:
 1396              	.LBB120:
  63:test/../test/ConsumerProducer_C_API_test.h ****         while (!threadEnd) {
  64:test/../test/ConsumerProducer_C_API_test.h ****             int key = data->buffer->get();
  65:test/../test/ConsumerProducer_C_API_test.h ****             i++;
  66:test/../test/ConsumerProducer_C_API_test.h **** 
  67:test/../test/ConsumerProducer_C_API_test.h ****             putc(key);
  68:test/../test/ConsumerProducer_C_API_test.h **** 
  69:test/../test/ConsumerProducer_C_API_test.h ****             if (i % (5 * data->id) == 0) {
  70:test/../test/ConsumerProducer_C_API_test.h ****                 thread_dispatch();
 1397              		.loc 5 70 17 is_stmt 1
 1398              		.loc 5 70 32 is_stmt 0
 1399 0350 97000000 		call	thread_dispatch@plt
 1399      E7800000 
 1400              	.LVL133:
 1401 0358 6F000005 		j	.L74
 1402              	.LVL134:
 1403              	.L79:
  71:test/../test/ConsumerProducer_C_API_test.h ****             }
  72:test/../test/ConsumerProducer_C_API_test.h **** 
  73:test/../test/ConsumerProducer_C_API_test.h ****             if (i % 80 == 0) {
  74:test/../test/ConsumerProducer_C_API_test.h ****                 putc('\n');
 1404              		.loc 5 74 17 is_stmt 1
 1405              		.loc 5 74 21 is_stmt 0
 1406 035c 1305A000 		li	a0,10
 1407 0360 97000000 		call	putc@plt
 1407      E7800000 
 1408              	.LVL135:
 1409              	.L72:
 1410              	.LBE120:
  63:test/../test/ConsumerProducer_C_API_test.h ****         while (!threadEnd) {
 1411              		.loc 5 63 9 is_stmt 1
  63:test/../test/ConsumerProducer_C_API_test.h ****         while (!threadEnd) {
 1412              		.loc 5 63 16
GAS LISTING /tmp/cc5eykcM.s 			page 35


 1413 0368 97070000 		lw	a5,.LANCHOR0+4
 1413      83A70700 
 1414 0370 63900706 		bnez	a5,.L73
 1415              	.LBB121:
  64:test/../test/ConsumerProducer_C_API_test.h ****             i++;
 1416              		.loc 5 64 13
  64:test/../test/ConsumerProducer_C_API_test.h ****             i++;
 1417              		.loc 5 64 40 is_stmt 0
 1418 0374 03358900 		ld	a0,8(s2)
 1419 0378 97000000 		call	_ZN6Buffer3getEv@plt
 1419      E7800000 
 1420              	.LVL136:
  65:test/../test/ConsumerProducer_C_API_test.h **** 
 1421              		.loc 5 65 13 is_stmt 1
  65:test/../test/ConsumerProducer_C_API_test.h **** 
 1422              		.loc 5 65 14 is_stmt 0
 1423 0380 9B841900 		addiw	s1,s3,1
 1424 0384 9B890400 		sext.w	s3,s1
 1425              	.LVL137:
  67:test/../test/ConsumerProducer_C_API_test.h **** 
 1426              		.loc 5 67 13 is_stmt 1
  67:test/../test/ConsumerProducer_C_API_test.h **** 
 1427              		.loc 5 67 17 is_stmt 0
 1428 0388 1375F50F 		andi	a0,a0,0xff
 1429              	.LVL138:
 1430 038c 97000000 		call	putc@plt
 1430      E7800000 
 1431              	.LVL139:
  69:test/../test/ConsumerProducer_C_API_test.h ****                 thread_dispatch();
 1432              		.loc 5 69 13 is_stmt 1
  69:test/../test/ConsumerProducer_C_API_test.h ****                 thread_dispatch();
 1433              		.loc 5 69 32 is_stmt 0
 1434 0394 03270900 		lw	a4,0(s2)
  69:test/../test/ConsumerProducer_C_API_test.h ****                 thread_dispatch();
 1435              		.loc 5 69 24
 1436 0398 9B172700 		slliw	a5,a4,2
 1437 039c BB87E700 		addw	a5,a5,a4
  69:test/../test/ConsumerProducer_C_API_test.h ****                 thread_dispatch();
 1438              		.loc 5 69 19
 1439 03a0 BBE7F402 		remw	a5,s1,a5
  69:test/../test/ConsumerProducer_C_API_test.h ****                 thread_dispatch();
 1440              		.loc 5 69 13
 1441 03a4 E38607FA 		beqz	a5,.L78
 1442              	.L74:
  73:test/../test/ConsumerProducer_C_API_test.h ****                 putc('\n');
 1443              		.loc 5 73 13 is_stmt 1
  73:test/../test/ConsumerProducer_C_API_test.h ****                 putc('\n');
 1444              		.loc 5 73 19 is_stmt 0
 1445 03a8 93070005 		li	a5,80
 1446 03ac BBE4F402 		remw	s1,s1,a5
 1447              	.LVL140:
  73:test/../test/ConsumerProducer_C_API_test.h ****                 putc('\n');
 1448              		.loc 5 73 13
 1449 03b0 E39C04FA 		bnez	s1,.L72
 1450 03b4 6FF09FFA 		j	.L79
 1451              	.L80:
 1452              	.LBE121:
GAS LISTING /tmp/cc5eykcM.s 			page 36


 1453              	.LBB122:
  75:test/../test/ConsumerProducer_C_API_test.h ****             }
  76:test/../test/ConsumerProducer_C_API_test.h ****         }
  77:test/../test/ConsumerProducer_C_API_test.h **** 
  78:test/../test/ConsumerProducer_C_API_test.h ****         while (data->buffer->getCnt() > 0) {
  79:test/../test/ConsumerProducer_C_API_test.h ****             int key = data->buffer->get();
 1454              		.loc 5 79 13 is_stmt 1
 1455              		.loc 5 79 40 is_stmt 0
 1456 03b8 03358900 		ld	a0,8(s2)
 1457 03bc 97000000 		call	_ZN6Buffer3getEv@plt
 1457      E7800000 
 1458              	.LVL141:
  80:test/../test/ConsumerProducer_C_API_test.h ****             putc(key);
 1459              		.loc 5 80 13 is_stmt 1
 1460              		.loc 5 80 17 is_stmt 0
 1461 03c4 1375F50F 		andi	a0,a0,0xff
 1462              	.LVL142:
 1463 03c8 97000000 		call	putc@plt
 1463      E7800000 
 1464              	.LVL143:
 1465              	.L73:
 1466              	.LBE122:
  78:test/../test/ConsumerProducer_C_API_test.h ****             int key = data->buffer->get();
 1467              		.loc 5 78 9 is_stmt 1
  78:test/../test/ConsumerProducer_C_API_test.h ****             int key = data->buffer->get();
 1468              		.loc 5 78 39
  78:test/../test/ConsumerProducer_C_API_test.h ****             int key = data->buffer->get();
 1469              		.loc 5 78 36 is_stmt 0
 1470 03d0 03358900 		ld	a0,8(s2)
 1471 03d4 97000000 		call	_ZN6Buffer6getCntEv@plt
 1471      E7800000 
 1472              	.LVL144:
  78:test/../test/ConsumerProducer_C_API_test.h ****             int key = data->buffer->get();
 1473              		.loc 5 78 39
 1474 03dc E34EA0FC 		bgtz	a0,.L80
  81:test/../test/ConsumerProducer_C_API_test.h ****         }
  82:test/../test/ConsumerProducer_C_API_test.h **** 
  83:test/../test/ConsumerProducer_C_API_test.h ****         sem_signal(data->wait);
 1475              		.loc 5 83 9 is_stmt 1
 1476              		.loc 5 83 19 is_stmt 0
 1477 03e0 03350901 		ld	a0,16(s2)
 1478 03e4 97000000 		call	sem_signal@plt
 1478      E7800000 
 1479              	.LVL145:
  84:test/../test/ConsumerProducer_C_API_test.h ****     }
 1480              		.loc 5 84 5
 1481 03ec 83308102 		ld	ra,40(sp)
 1482              		.cfi_restore 1
 1483 03f0 03340102 		ld	s0,32(sp)
 1484              		.cfi_restore 8
 1485              		.cfi_def_cfa 2, 48
 1486 03f4 83348101 		ld	s1,24(sp)
 1487              		.cfi_restore 9
 1488 03f8 03390101 		ld	s2,16(sp)
 1489              		.cfi_restore 18
 1490              	.LVL146:
 1491 03fc 83398100 		ld	s3,8(sp)
GAS LISTING /tmp/cc5eykcM.s 			page 37


 1492              		.cfi_restore 19
 1493              	.LVL147:
 1494 0400 13010103 		addi	sp,sp,48
 1495              		.cfi_def_cfa_offset 0
 1496 0404 67800000 		jr	ra
 1497              		.cfi_endproc
 1498              	.LFE78:
 1500              		.section	.text._ZN28ConsumerProducerCPP_API_test16ProducerKeyborad3runEv,"axG",@progbits,_ZN28Cons
 1501              		.align	2
 1502              		.weak	_ZN28ConsumerProducerCPP_API_test16ProducerKeyborad3runEv
 1504              	_ZN28ConsumerProducerCPP_API_test16ProducerKeyborad3runEv:
 1505              	.LFB101:
  30:test/../test/ConsumerProducer_CPP_API_test.hpp ****             int key;
 1506              		.loc 4 30 14 is_stmt 1
 1507              		.cfi_startproc
 1508              	.LVL148:
 1509 0000 130101FE 		addi	sp,sp,-32
 1510              		.cfi_def_cfa_offset 32
 1511 0004 233C1100 		sd	ra,24(sp)
 1512 0008 23388100 		sd	s0,16(sp)
 1513 000c 23349100 		sd	s1,8(sp)
 1514              		.cfi_offset 1, -8
 1515              		.cfi_offset 8, -16
 1516              		.cfi_offset 9, -24
 1517 0010 13040102 		addi	s0,sp,32
 1518              		.cfi_def_cfa 8, 0
 1519 0014 93040500 		mv	s1,a0
  31:test/../test/ConsumerProducer_CPP_API_test.hpp ****             int i = 0;
 1520              		.loc 4 31 13
  32:test/../test/ConsumerProducer_CPP_API_test.hpp ****             while ((key = getc()) != 0x1b) {
 1521              		.loc 4 32 13
 1522              	.LVL149:
 1523              	.L83:
  33:test/../test/ConsumerProducer_CPP_API_test.hpp ****                 td->buffer->put(key);
 1524              		.loc 4 33 13
  33:test/../test/ConsumerProducer_CPP_API_test.hpp ****                 td->buffer->put(key);
 1525              		.loc 4 33 35
  33:test/../test/ConsumerProducer_CPP_API_test.hpp ****                 td->buffer->put(key);
 1526              		.loc 4 33 31 is_stmt 0
 1527 0018 97000000 		call	getc@plt
 1527      E7800000 
 1528              	.LVL150:
  33:test/../test/ConsumerProducer_CPP_API_test.hpp ****                 td->buffer->put(key);
 1529              		.loc 4 33 25
 1530 0020 9B050500 		sext.w	a1,a0
 1531              	.LVL151:
  33:test/../test/ConsumerProducer_CPP_API_test.hpp ****                 td->buffer->put(key);
 1532              		.loc 4 33 35
 1533 0024 9307B001 		li	a5,27
 1534 0028 638CF500 		beq	a1,a5,.L82
  34:test/../test/ConsumerProducer_CPP_API_test.hpp ****                 i++;
 1535              		.loc 4 34 17 is_stmt 1
 1536 002c 83B70401 		ld	a5,16(s1)
  34:test/../test/ConsumerProducer_CPP_API_test.hpp ****                 i++;
 1537              		.loc 4 34 32 is_stmt 0
 1538 0030 03B58700 		ld	a0,8(a5)
 1539 0034 97000000 		call	_ZN9BufferCPP3putEi@plt
GAS LISTING /tmp/cc5eykcM.s 			page 38


 1539      E7800000 
 1540              	.LVL152:
  35:test/../test/ConsumerProducer_CPP_API_test.hpp ****             }
 1541              		.loc 4 35 17 is_stmt 1
  33:test/../test/ConsumerProducer_CPP_API_test.hpp ****                 td->buffer->put(key);
 1542              		.loc 4 33 13 is_stmt 0
 1543 003c 6FF0DFFD 		j	.L83
 1544              	.LVL153:
 1545              	.L82:
  37:test/../test/ConsumerProducer_CPP_API_test.hpp ****             td->buffer->put('!');
 1546              		.loc 4 37 13 is_stmt 1
  37:test/../test/ConsumerProducer_CPP_API_test.hpp ****             td->buffer->put('!');
 1547              		.loc 4 37 23 is_stmt 0
 1548 0040 93071000 		li	a5,1
 1549 0044 17070000 		sw	a5,.LANCHOR0+8,a4
 1549      2320F700 
  38:test/../test/ConsumerProducer_CPP_API_test.hpp **** 
 1550              		.loc 4 38 13 is_stmt 1
 1551 004c 83B70401 		ld	a5,16(s1)
  38:test/../test/ConsumerProducer_CPP_API_test.hpp **** 
 1552              		.loc 4 38 28 is_stmt 0
 1553 0050 93051002 		li	a1,33
 1554              	.LVL154:
 1555 0054 03B58700 		ld	a0,8(a5)
 1556              	.LVL155:
 1557 0058 97000000 		call	_ZN9BufferCPP3putEi@plt
 1557      E7800000 
 1558              	.LVL156:
  40:test/../test/ConsumerProducer_CPP_API_test.hpp ****         }
 1559              		.loc 4 40 13 is_stmt 1
 1560 0060 83B70401 		ld	a5,16(s1)
  40:test/../test/ConsumerProducer_CPP_API_test.hpp ****         }
 1561              		.loc 4 40 28 is_stmt 0
 1562 0064 03B50701 		ld	a0,16(a5)
 1563 0068 97000000 		call	_ZN9Semaphore6signalEv@plt
 1563      E7800000 
 1564              	.LVL157:
  41:test/../test/ConsumerProducer_CPP_API_test.hpp ****     };
 1565              		.loc 4 41 9
 1566 0070 83308101 		ld	ra,24(sp)
 1567              		.cfi_restore 1
 1568 0074 03340101 		ld	s0,16(sp)
 1569              		.cfi_restore 8
 1570              		.cfi_def_cfa 2, 32
 1571 0078 83348100 		ld	s1,8(sp)
 1572              		.cfi_restore 9
 1573              	.LVL158:
 1574 007c 13010102 		addi	sp,sp,32
 1575              		.cfi_def_cfa_offset 0
 1576 0080 67800000 		jr	ra
 1577              		.cfi_endproc
 1578              	.LFE101:
 1580              		.section	.text._ZN28ConsumerProducerCPP_API_test8Consumer3runEv,"axG",@progbits,_ZN28ConsumerProdu
 1581              		.align	2
 1582              		.weak	_ZN28ConsumerProducerCPP_API_test8Consumer3runEv
 1584              	_ZN28ConsumerProducerCPP_API_test8Consumer3runEv:
 1585              	.LFB109:
GAS LISTING /tmp/cc5eykcM.s 			page 39


  62:test/../test/ConsumerProducer_CPP_API_test.hpp ****         thread_data *td;
  63:test/../test/ConsumerProducer_CPP_API_test.hpp ****     public:
  64:test/../test/ConsumerProducer_CPP_API_test.hpp ****         Consumer(thread_data *_td) : Thread(), td(_td) {}
  65:test/../test/ConsumerProducer_CPP_API_test.hpp **** 
  66:test/../test/ConsumerProducer_CPP_API_test.hpp ****         void run() override {
 1586              		.loc 4 66 14 is_stmt 1
 1587              		.cfi_startproc
 1588              	.LVL159:
 1589 0000 130101FD 		addi	sp,sp,-48
 1590              		.cfi_def_cfa_offset 48
 1591 0004 23341102 		sd	ra,40(sp)
 1592 0008 23308102 		sd	s0,32(sp)
 1593 000c 233C9100 		sd	s1,24(sp)
 1594 0010 23382101 		sd	s2,16(sp)
 1595 0014 23343101 		sd	s3,8(sp)
 1596              		.cfi_offset 1, -8
 1597              		.cfi_offset 8, -16
 1598              		.cfi_offset 9, -24
 1599              		.cfi_offset 18, -32
 1600              		.cfi_offset 19, -40
 1601 0018 13040103 		addi	s0,sp,48
 1602              		.cfi_def_cfa 8, 0
 1603 001c 13090500 		mv	s2,a0
  67:test/../test/ConsumerProducer_CPP_API_test.hpp ****             int i = 0;
 1604              		.loc 4 67 13
 1605              	.LVL160:
 1606              		.loc 4 67 17 is_stmt 0
 1607 0020 93090000 		li	s3,0
 1608 0024 6F000001 		j	.L86
 1609              	.LVL161:
 1610              	.L91:
 1611              	.LBB123:
  68:test/../test/ConsumerProducer_CPP_API_test.hpp ****             while (!threadEnd) {
  69:test/../test/ConsumerProducer_CPP_API_test.hpp ****                 int key = td->buffer->get();
  70:test/../test/ConsumerProducer_CPP_API_test.hpp ****                 i++;
  71:test/../test/ConsumerProducer_CPP_API_test.hpp **** 
  72:test/../test/ConsumerProducer_CPP_API_test.hpp ****                 Console::putc(key);
  73:test/../test/ConsumerProducer_CPP_API_test.hpp **** 
  74:test/../test/ConsumerProducer_CPP_API_test.hpp ****                 if (i % 80 == 0) {
  75:test/../test/ConsumerProducer_CPP_API_test.hpp ****                     Console::putc('\n');
 1612              		.loc 4 75 21 is_stmt 1
 1613              		.loc 4 75 34 is_stmt 0
 1614 0028 1305A000 		li	a0,10
 1615 002c 97000000 		call	_ZN7Console4putcEc@plt
 1615      E7800000 
 1616              	.LVL162:
 1617              	.L86:
 1618              	.LBE123:
  68:test/../test/ConsumerProducer_CPP_API_test.hpp ****             while (!threadEnd) {
 1619              		.loc 4 68 13 is_stmt 1
  68:test/../test/ConsumerProducer_CPP_API_test.hpp ****             while (!threadEnd) {
 1620              		.loc 4 68 20
 1621 0034 97070000 		lw	a5,.LANCHOR0+8
 1621      83A70700 
 1622 003c 639A0704 		bnez	a5,.L87
 1623              	.LBB124:
  69:test/../test/ConsumerProducer_CPP_API_test.hpp ****                 i++;
GAS LISTING /tmp/cc5eykcM.s 			page 40


 1624              		.loc 4 69 17
  69:test/../test/ConsumerProducer_CPP_API_test.hpp ****                 i++;
 1625              		.loc 4 69 27 is_stmt 0
 1626 0040 83370901 		ld	a5,16(s2)
  69:test/../test/ConsumerProducer_CPP_API_test.hpp ****                 i++;
 1627              		.loc 4 69 42
 1628 0044 03B58700 		ld	a0,8(a5)
 1629 0048 97000000 		call	_ZN9BufferCPP3getEv@plt
 1629      E7800000 
 1630              	.LVL163:
  70:test/../test/ConsumerProducer_CPP_API_test.hpp **** 
 1631              		.loc 4 70 17 is_stmt 1
  70:test/../test/ConsumerProducer_CPP_API_test.hpp **** 
 1632              		.loc 4 70 18 is_stmt 0
 1633 0050 9B841900 		addiw	s1,s3,1
 1634 0054 9B890400 		sext.w	s3,s1
 1635              	.LVL164:
  72:test/../test/ConsumerProducer_CPP_API_test.hpp **** 
 1636              		.loc 4 72 17 is_stmt 1
  72:test/../test/ConsumerProducer_CPP_API_test.hpp **** 
 1637              		.loc 4 72 30 is_stmt 0
 1638 0058 1375F50F 		andi	a0,a0,0xff
 1639              	.LVL165:
 1640 005c 97000000 		call	_ZN7Console4putcEc@plt
 1640      E7800000 
 1641              	.LVL166:
  74:test/../test/ConsumerProducer_CPP_API_test.hpp ****                     Console::putc('\n');
 1642              		.loc 4 74 17 is_stmt 1
  74:test/../test/ConsumerProducer_CPP_API_test.hpp ****                     Console::putc('\n');
 1643              		.loc 4 74 23 is_stmt 0
 1644 0064 93070005 		li	a5,80
 1645 0068 BBE4F402 		remw	s1,s1,a5
 1646              	.LVL167:
  74:test/../test/ConsumerProducer_CPP_API_test.hpp ****                     Console::putc('\n');
 1647              		.loc 4 74 17
 1648 006c E39404FC 		bnez	s1,.L86
 1649 0070 6FF09FFB 		j	.L91
 1650              	.L92:
 1651              	.LBE124:
 1652              	.LBB125:
  76:test/../test/ConsumerProducer_CPP_API_test.hpp ****                 }
  77:test/../test/ConsumerProducer_CPP_API_test.hpp ****             }
  78:test/../test/ConsumerProducer_CPP_API_test.hpp **** 
  79:test/../test/ConsumerProducer_CPP_API_test.hpp ****             while (td->buffer->getCnt() > 0) {
  80:test/../test/ConsumerProducer_CPP_API_test.hpp ****                 int key = td->buffer->get();
 1653              		.loc 4 80 17 is_stmt 1
 1654              		.loc 4 80 27 is_stmt 0
 1655 0074 83370901 		ld	a5,16(s2)
 1656              		.loc 4 80 42
 1657 0078 03B58700 		ld	a0,8(a5)
 1658 007c 97000000 		call	_ZN9BufferCPP3getEv@plt
 1658      E7800000 
 1659              	.LVL168:
  81:test/../test/ConsumerProducer_CPP_API_test.hpp ****                 Console::putc(key);
 1660              		.loc 4 81 17 is_stmt 1
 1661              		.loc 4 81 30 is_stmt 0
 1662 0084 1375F50F 		andi	a0,a0,0xff
GAS LISTING /tmp/cc5eykcM.s 			page 41


 1663              	.LVL169:
 1664 0088 97000000 		call	_ZN7Console4putcEc@plt
 1664      E7800000 
 1665              	.LVL170:
 1666              	.L87:
 1667              	.LBE125:
  79:test/../test/ConsumerProducer_CPP_API_test.hpp ****                 int key = td->buffer->get();
 1668              		.loc 4 79 13 is_stmt 1
  79:test/../test/ConsumerProducer_CPP_API_test.hpp ****                 int key = td->buffer->get();
 1669              		.loc 4 79 41
  79:test/../test/ConsumerProducer_CPP_API_test.hpp ****                 int key = td->buffer->get();
 1670              		.loc 4 79 20 is_stmt 0
 1671 0090 83370901 		ld	a5,16(s2)
  79:test/../test/ConsumerProducer_CPP_API_test.hpp ****                 int key = td->buffer->get();
 1672              		.loc 4 79 38
 1673 0094 03B58700 		ld	a0,8(a5)
 1674 0098 97000000 		call	_ZN9BufferCPP6getCntEv@plt
 1674      E7800000 
 1675              	.LVL171:
  79:test/../test/ConsumerProducer_CPP_API_test.hpp ****                 int key = td->buffer->get();
 1676              		.loc 4 79 41
 1677 00a0 E34AA0FC 		bgtz	a0,.L92
  82:test/../test/ConsumerProducer_CPP_API_test.hpp ****             }
  83:test/../test/ConsumerProducer_CPP_API_test.hpp **** 
  84:test/../test/ConsumerProducer_CPP_API_test.hpp ****             td->sem->signal();
 1678              		.loc 4 84 13 is_stmt 1
 1679 00a4 83370901 		ld	a5,16(s2)
 1680              		.loc 4 84 28 is_stmt 0
 1681 00a8 03B50701 		ld	a0,16(a5)
 1682 00ac 97000000 		call	_ZN9Semaphore6signalEv@plt
 1682      E7800000 
 1683              	.LVL172:
  85:test/../test/ConsumerProducer_CPP_API_test.hpp ****         }
 1684              		.loc 4 85 9
 1685 00b4 83308102 		ld	ra,40(sp)
 1686              		.cfi_restore 1
 1687 00b8 03340102 		ld	s0,32(sp)
 1688              		.cfi_restore 8
 1689              		.cfi_def_cfa 2, 48
 1690 00bc 83348101 		ld	s1,24(sp)
 1691              		.cfi_restore 9
 1692 00c0 03390101 		ld	s2,16(sp)
 1693              		.cfi_restore 18
 1694              	.LVL173:
 1695 00c4 83398100 		ld	s3,8(sp)
 1696              		.cfi_restore 19
 1697              	.LVL174:
 1698 00c8 13010103 		addi	sp,sp,48
 1699              		.cfi_def_cfa_offset 0
 1700 00cc 67800000 		jr	ra
 1701              		.cfi_endproc
 1702              	.LFE109:
 1704              		.section	.rodata.str1.8
 1705 0045 000000   		.align	3
 1706              	.LC6:
 1707 0048 48656C6C 		.string	"Hello "
 1707      6F2000
GAS LISTING /tmp/cc5eykcM.s 			page 42


 1708 004f 00       		.align	3
 1709              	.LC7:
 1710 0050 20210A00 		.string	" !\n"
 1711              		.text
 1712              		.align	2
 1713              		.globl	_ZN22ThreadSleep_C_API_test9sleepyRunEPv
 1715              	_ZN22ThreadSleep_C_API_test9sleepyRunEPv:
 1716              	.LFB96:
 1717              		.file 6 "test/../test/ThreadSleep_C_API_test.hpp"
   1:test/../test/ThreadSleep_C_API_test.hpp **** //
   2:test/../test/ThreadSleep_C_API_test.hpp **** // Created by os on 4/17/22.
   3:test/../test/ThreadSleep_C_API_test.hpp **** //
   4:test/../test/ThreadSleep_C_API_test.hpp **** 
   5:test/../test/ThreadSleep_C_API_test.hpp **** #ifndef XV6_THREADSLEEP_C_API_TEST_HPP
   6:test/../test/ThreadSleep_C_API_test.hpp **** #define XV6_THREADSLEEP_C_API_TEST_HPP
   7:test/../test/ThreadSleep_C_API_test.hpp **** 
   8:test/../test/ThreadSleep_C_API_test.hpp **** #include "../h/syscall_c.h"
   9:test/../test/ThreadSleep_C_API_test.hpp **** 
  10:test/../test/ThreadSleep_C_API_test.hpp **** #include "printing.hpp"
  11:test/../test/ThreadSleep_C_API_test.hpp **** 
  12:test/../test/ThreadSleep_C_API_test.hpp **** namespace ThreadSleep_C_API_test {
  13:test/../test/ThreadSleep_C_API_test.hpp **** 
  14:test/../test/ThreadSleep_C_API_test.hpp ****     bool finished[2];
  15:test/../test/ThreadSleep_C_API_test.hpp **** 
  16:test/../test/ThreadSleep_C_API_test.hpp ****     void sleepyRun(void *arg) {
 1718              		.loc 6 16 31 is_stmt 1
 1719              		.cfi_startproc
 1720              	.LVL175:
 1721 0408 130101FE 		addi	sp,sp,-32
 1722              		.cfi_def_cfa_offset 32
 1723 040c 233C1100 		sd	ra,24(sp)
 1724 0410 23388100 		sd	s0,16(sp)
 1725 0414 23349100 		sd	s1,8(sp)
 1726 0418 23302101 		sd	s2,0(sp)
 1727              		.cfi_offset 1, -8
 1728              		.cfi_offset 8, -16
 1729              		.cfi_offset 9, -24
 1730              		.cfi_offset 18, -32
 1731 041c 13040102 		addi	s0,sp,32
 1732              		.cfi_def_cfa 8, 0
  17:test/../test/ThreadSleep_C_API_test.hpp ****         time_t sleep_time = *((time_t *) arg);
 1733              		.loc 6 17 9
 1734              		.loc 6 17 16 is_stmt 0
 1735 0420 03390500 		ld	s2,0(a0)
 1736              	.LVL176:
  18:test/../test/ThreadSleep_C_API_test.hpp ****         int i = 6;
 1737              		.loc 6 18 9 is_stmt 1
 1738              		.loc 6 18 13 is_stmt 0
 1739 0424 93046000 		li	s1,6
 1740              	.LVL177:
 1741              	.L95:
  19:test/../test/ThreadSleep_C_API_test.hpp ****         while (--i > 0) {
 1742              		.loc 6 19 9 is_stmt 1
 1743              		.loc 6 19 20
 1744 0428 9B84F4FF 		addiw	s1,s1,-1
 1745              	.LVL178:
 1746 042c 63549004 		blez	s1,.L94
GAS LISTING /tmp/cc5eykcM.s 			page 43


  20:test/../test/ThreadSleep_C_API_test.hpp **** 
  21:test/../test/ThreadSleep_C_API_test.hpp ****             printString("Hello ");
 1747              		.loc 6 21 13
 1748              		.loc 6 21 24 is_stmt 0
 1749 0430 17050000 		lla	a0,.LC6
 1749      13050500 
 1750 0438 97000000 		call	_Z11printStringPKc@plt
 1750      E7800000 
 1751              	.LVL179:
  22:test/../test/ThreadSleep_C_API_test.hpp ****             printInt(sleep_time);
 1752              		.loc 6 22 13 is_stmt 1
 1753              		.loc 6 22 21 is_stmt 0
 1754 0440 13060000 		li	a2,0
 1755 0444 9305A000 		li	a1,10
 1756 0448 1B050900 		sext.w	a0,s2
 1757 044c 97000000 		call	_Z8printIntiii@plt
 1757      E7800000 
 1758              	.LVL180:
  23:test/../test/ThreadSleep_C_API_test.hpp ****             printString(" !\n");
 1759              		.loc 6 23 13 is_stmt 1
 1760              		.loc 6 23 24 is_stmt 0
 1761 0454 17050000 		lla	a0,.LC7
 1761      13050500 
 1762 045c 97000000 		call	_Z11printStringPKc@plt
 1762      E7800000 
 1763              	.LVL181:
  24:test/../test/ThreadSleep_C_API_test.hpp ****             time_sleep(sleep_time);
 1764              		.loc 6 24 13 is_stmt 1
 1765              		.loc 6 24 23 is_stmt 0
 1766 0464 13050900 		mv	a0,s2
 1767 0468 97000000 		call	time_sleep@plt
 1767      E7800000 
 1768              	.LVL182:
  19:test/../test/ThreadSleep_C_API_test.hpp **** 
 1769              		.loc 6 19 9
 1770 0470 6FF09FFB 		j	.L95
 1771              	.L94:
  25:test/../test/ThreadSleep_C_API_test.hpp ****         }
  26:test/../test/ThreadSleep_C_API_test.hpp ****         finished[sleep_time/10-1] = true;
 1772              		.loc 6 26 9 is_stmt 1
 1773              		.loc 6 26 28 is_stmt 0
 1774 0474 9307A000 		li	a5,10
 1775 0478 3359F902 		divu	s2,s2,a5
 1776              	.LVL183:
 1777              		.loc 6 26 31
 1778 047c 1309F9FF 		addi	s2,s2,-1
 1779              		.loc 6 26 35
 1780 0480 97070000 		lla	a5,.LANCHOR0
 1780      93870700 
 1781 0488 33892701 		add	s2,a5,s2
 1782 048c 93071000 		li	a5,1
 1783 0490 2308F900 		sb	a5,16(s2)
  27:test/../test/ThreadSleep_C_API_test.hpp ****     }
 1784              		.loc 6 27 5
 1785 0494 83308101 		ld	ra,24(sp)
 1786              		.cfi_restore 1
 1787 0498 03340101 		ld	s0,16(sp)
GAS LISTING /tmp/cc5eykcM.s 			page 44


 1788              		.cfi_restore 8
 1789              		.cfi_def_cfa 2, 32
 1790 049c 83348100 		ld	s1,8(sp)
 1791              		.cfi_restore 9
 1792 04a0 03390100 		ld	s2,0(sp)
 1793              		.cfi_restore 18
 1794 04a4 13010102 		addi	sp,sp,32
 1795              		.cfi_def_cfa_offset 0
 1796 04a8 67800000 		jr	ra
 1797              		.cfi_endproc
 1798              	.LFE96:
 1800              		.section	.text._ZN28ConsumerProducerCPP_API_test8Producer3runEv,"axG",@progbits,_ZN28ConsumerProdu
 1801              		.align	2
 1802              		.weak	_ZN28ConsumerProducerCPP_API_test8Producer3runEv
 1804              	_ZN28ConsumerProducerCPP_API_test8Producer3runEv:
 1805              	.LFB105:
  49:test/../test/ConsumerProducer_CPP_API_test.hpp ****             int i = 0;
 1806              		.loc 4 49 14 is_stmt 1
 1807              		.cfi_startproc
 1808              	.LVL184:
 1809 0000 130101FE 		addi	sp,sp,-32
 1810              		.cfi_def_cfa_offset 32
 1811 0004 233C1100 		sd	ra,24(sp)
 1812 0008 23388100 		sd	s0,16(sp)
 1813 000c 23349100 		sd	s1,8(sp)
 1814 0010 23302101 		sd	s2,0(sp)
 1815              		.cfi_offset 1, -8
 1816              		.cfi_offset 8, -16
 1817              		.cfi_offset 9, -24
 1818              		.cfi_offset 18, -32
 1819 0014 13040102 		addi	s0,sp,32
 1820              		.cfi_def_cfa 8, 0
 1821 0018 93040500 		mv	s1,a0
  50:test/../test/ConsumerProducer_CPP_API_test.hpp ****             while (!threadEnd) {
 1822              		.loc 4 50 13
 1823              	.LVL185:
  50:test/../test/ConsumerProducer_CPP_API_test.hpp ****             while (!threadEnd) {
 1824              		.loc 4 50 17 is_stmt 0
 1825 001c 13090000 		li	s2,0
 1826              	.LVL186:
 1827              	.L99:
  51:test/../test/ConsumerProducer_CPP_API_test.hpp ****                 td->buffer->put(td->id + '0');
 1828              		.loc 4 51 13 is_stmt 1
  51:test/../test/ConsumerProducer_CPP_API_test.hpp ****                 td->buffer->put(td->id + '0');
 1829              		.loc 4 51 20
 1830 0020 97070000 		lw	a5,.LANCHOR0+8
 1830      83A70700 
 1831 0028 63920704 		bnez	a5,.L98
  52:test/../test/ConsumerProducer_CPP_API_test.hpp ****                 i++;
 1832              		.loc 4 52 17
 1833 002c 83B70401 		ld	a5,16(s1)
  52:test/../test/ConsumerProducer_CPP_API_test.hpp ****                 i++;
 1834              		.loc 4 52 37 is_stmt 0
 1835 0030 83A50700 		lw	a1,0(a5)
  52:test/../test/ConsumerProducer_CPP_API_test.hpp ****                 i++;
 1836              		.loc 4 52 32
 1837 0034 9B850503 		addiw	a1,a1,48
GAS LISTING /tmp/cc5eykcM.s 			page 45


 1838 0038 03B58700 		ld	a0,8(a5)
 1839 003c 97000000 		call	_ZN9BufferCPP3putEi@plt
 1839      E7800000 
 1840              	.LVL187:
  53:test/../test/ConsumerProducer_CPP_API_test.hpp ****                 Thread::sleep((i+td->id)%5);
 1841              		.loc 4 53 17 is_stmt 1
  53:test/../test/ConsumerProducer_CPP_API_test.hpp ****                 Thread::sleep((i+td->id)%5);
 1842              		.loc 4 53 18 is_stmt 0
 1843 0044 1B071900 		addiw	a4,s2,1
 1844 0048 1B090700 		sext.w	s2,a4
 1845              	.LVL188:
  54:test/../test/ConsumerProducer_CPP_API_test.hpp ****             }
 1846              		.loc 4 54 17 is_stmt 1
  54:test/../test/ConsumerProducer_CPP_API_test.hpp ****             }
 1847              		.loc 4 54 34 is_stmt 0
 1848 004c 83B70401 		ld	a5,16(s1)
  54:test/../test/ConsumerProducer_CPP_API_test.hpp ****             }
 1849              		.loc 4 54 38
 1850 0050 83A70700 		lw	a5,0(a5)
  54:test/../test/ConsumerProducer_CPP_API_test.hpp ****             }
 1851              		.loc 4 54 33
 1852 0054 BB87E700 		addw	a5,a5,a4
  54:test/../test/ConsumerProducer_CPP_API_test.hpp ****             }
 1853              		.loc 4 54 30
 1854 0058 13055000 		li	a0,5
 1855 005c 3BE5A702 		remw	a0,a5,a0
 1856 0060 97000000 		call	_ZN6Thread5sleepEm@plt
 1856      E7800000 
 1857              	.LVL189:
  51:test/../test/ConsumerProducer_CPP_API_test.hpp ****                 td->buffer->put(td->id + '0');
 1858              		.loc 4 51 13
 1859 0068 6FF09FFB 		j	.L99
 1860              	.L98:
  57:test/../test/ConsumerProducer_CPP_API_test.hpp ****         }
 1861              		.loc 4 57 13 is_stmt 1
 1862 006c 83B70401 		ld	a5,16(s1)
  57:test/../test/ConsumerProducer_CPP_API_test.hpp ****         }
 1863              		.loc 4 57 28 is_stmt 0
 1864 0070 03B50701 		ld	a0,16(a5)
 1865 0074 97000000 		call	_ZN9Semaphore6signalEv@plt
 1865      E7800000 
 1866              	.LVL190:
  58:test/../test/ConsumerProducer_CPP_API_test.hpp ****     };
 1867              		.loc 4 58 9
 1868 007c 83308101 		ld	ra,24(sp)
 1869              		.cfi_restore 1
 1870 0080 03340101 		ld	s0,16(sp)
 1871              		.cfi_restore 8
 1872              		.cfi_def_cfa 2, 32
 1873 0084 83348100 		ld	s1,8(sp)
 1874              		.cfi_restore 9
 1875              	.LVL191:
 1876 0088 03390100 		ld	s2,0(sp)
 1877              		.cfi_restore 18
 1878              	.LVL192:
 1879 008c 13010102 		addi	sp,sp,32
 1880              		.cfi_def_cfa_offset 0
GAS LISTING /tmp/cc5eykcM.s 			page 46


 1881 0090 67800000 		jr	ra
 1882              		.cfi_endproc
 1883              	.LFE105:
 1885              		.text
 1886              		.align	2
 1887              		.globl	_ZN18Threads_C_API_test9fibonacciEm
 1889              	_ZN18Threads_C_API_test9fibonacciEm:
 1890              	.LFB40:
  16:test/../test/Threads_C_API_test.hpp ****         if (n == 0 || n == 1) { return n; }
 1891              		.loc 1 16 32 is_stmt 1
 1892              		.cfi_startproc
 1893              	.LVL193:
 1894 04ac 130101FE 		addi	sp,sp,-32
 1895              		.cfi_def_cfa_offset 32
 1896 04b0 233C1100 		sd	ra,24(sp)
 1897 04b4 23388100 		sd	s0,16(sp)
 1898 04b8 23349100 		sd	s1,8(sp)
 1899 04bc 23302101 		sd	s2,0(sp)
 1900              		.cfi_offset 1, -8
 1901              		.cfi_offset 8, -16
 1902              		.cfi_offset 9, -24
 1903              		.cfi_offset 18, -32
 1904 04c0 13040102 		addi	s0,sp,32
 1905              		.cfi_def_cfa 8, 0
 1906 04c4 93040500 		mv	s1,a0
  17:test/../test/Threads_C_API_test.hpp ****         if (n % 10 == 0) { thread_dispatch(); }
 1907              		.loc 1 17 9
 1908 04c8 93071000 		li	a5,1
 1909 04cc 63F8A702 		bleu	a0,a5,.L101
  18:test/../test/Threads_C_API_test.hpp ****         return fibonacci(n - 1) + fibonacci(n - 2);
 1910              		.loc 1 18 9
  18:test/../test/Threads_C_API_test.hpp ****         return fibonacci(n - 1) + fibonacci(n - 2);
 1911              		.loc 1 18 15 is_stmt 0
 1912 04d0 9307A000 		li	a5,10
 1913 04d4 B377F502 		remu	a5,a0,a5
  18:test/../test/Threads_C_API_test.hpp ****         return fibonacci(n - 1) + fibonacci(n - 2);
 1914              		.loc 1 18 9
 1915 04d8 638E0702 		beqz	a5,.L106
 1916              	.LVL194:
 1917              	.L103:
  19:test/../test/Threads_C_API_test.hpp ****     }
 1918              		.loc 1 19 9 is_stmt 1
  19:test/../test/Threads_C_API_test.hpp ****     }
 1919              		.loc 1 19 25 is_stmt 0
 1920 04dc 1385F4FF 		addi	a0,s1,-1
 1921 04e0 97000000 		call	_ZN18Threads_C_API_test9fibonacciEm
 1921      E7800000 
 1922              	.LVL195:
 1923 04e8 13090500 		mv	s2,a0
  19:test/../test/Threads_C_API_test.hpp ****     }
 1924              		.loc 1 19 44
 1925 04ec 1385E4FF 		addi	a0,s1,-2
 1926 04f0 97000000 		call	_ZN18Threads_C_API_test9fibonacciEm
 1926      E7800000 
 1927              	.LVL196:
  19:test/../test/Threads_C_API_test.hpp ****     }
 1928              		.loc 1 19 50
GAS LISTING /tmp/cc5eykcM.s 			page 47


 1929 04f8 3305A900 		add	a0,s2,a0
 1930              	.L101:
  20:test/../test/Threads_C_API_test.hpp **** 
 1931              		.loc 1 20 5
 1932 04fc 83308101 		ld	ra,24(sp)
 1933              		.cfi_remember_state
 1934              		.cfi_restore 1
 1935 0500 03340101 		ld	s0,16(sp)
 1936              		.cfi_restore 8
 1937              		.cfi_def_cfa 2, 32
 1938 0504 83348100 		ld	s1,8(sp)
 1939              		.cfi_restore 9
 1940              	.LVL197:
 1941 0508 03390100 		ld	s2,0(sp)
 1942              		.cfi_restore 18
 1943 050c 13010102 		addi	sp,sp,32
 1944              		.cfi_def_cfa_offset 0
 1945 0510 67800000 		jr	ra
 1946              	.LVL198:
 1947              	.L106:
 1948              		.cfi_restore_state
  18:test/../test/Threads_C_API_test.hpp ****         return fibonacci(n - 1) + fibonacci(n - 2);
 1949              		.loc 1 18 28 is_stmt 1 discriminator 1
  18:test/../test/Threads_C_API_test.hpp ****         return fibonacci(n - 1) + fibonacci(n - 2);
 1950              		.loc 1 18 43 is_stmt 0 discriminator 1
 1951 0514 97000000 		call	thread_dispatch@plt
 1951      E7800000 
 1952              	.LVL199:
 1953 051c 6FF01FFC 		j	.L103
 1954              		.cfi_endproc
 1955              	.LFE40:
 1957              		.section	.rodata.str1.8
 1958 0054 00000000 		.align	3
 1959              	.LC8:
 1960 0058 433A2069 		.string	"C: i="
 1960      3D00
 1961 005e 0000     		.align	3
 1962              	.LC9:
 1963 0060 433A2064 		.string	"C: dispatch\n"
 1963      69737061 
 1963      7463680A 
 1963      00
 1964 006d 000000   		.align	3
 1965              	.LC10:
 1966 0070 433A2074 		.string	"C: t1="
 1966      313D00
 1967 0077 00       		.align	3
 1968              	.LC11:
 1969 0078 433A2066 		.string	"C: fibonaci="
 1969      69626F6E 
 1969      6163693D 
 1969      00
 1970              		.text
 1971              		.align	2
 1972              		.globl	_ZN18Threads_C_API_test11workerBodyCEPv
 1974              	_ZN18Threads_C_API_test11workerBodyCEPv:
 1975              	.LFB43:
GAS LISTING /tmp/cc5eykcM.s 			page 48


  47:test/../test/Threads_C_API_test.hpp ****         uint8 i = 0;
 1976              		.loc 1 47 33 is_stmt 1
 1977              		.cfi_startproc
 1978              	.LVL200:
 1979 0520 130101FE 		addi	sp,sp,-32
 1980              		.cfi_def_cfa_offset 32
 1981 0524 233C1100 		sd	ra,24(sp)
 1982 0528 23388100 		sd	s0,16(sp)
 1983 052c 23349100 		sd	s1,8(sp)
 1984 0530 23302101 		sd	s2,0(sp)
 1985              		.cfi_offset 1, -8
 1986              		.cfi_offset 8, -16
 1987              		.cfi_offset 9, -24
 1988              		.cfi_offset 18, -32
 1989 0534 13040102 		addi	s0,sp,32
 1990              		.cfi_def_cfa 8, 0
  48:test/../test/Threads_C_API_test.hpp ****         for (; i < 3; i++) {
 1991              		.loc 1 48 9
 1992              	.LVL201:
  48:test/../test/Threads_C_API_test.hpp ****         for (; i < 3; i++) {
 1993              		.loc 1 48 15 is_stmt 0
 1994 0538 93040000 		li	s1,0
 1995 053c 6F000004 		j	.L109
 1996              	.LVL202:
 1997              	.L113:
  50:test/../test/Threads_C_API_test.hpp ****         }
 1998              		.loc 1 50 13 is_stmt 1 discriminator 1
  50:test/../test/Threads_C_API_test.hpp ****         }
 1999              		.loc 1 50 24 is_stmt 0 discriminator 1
 2000 0540 17050000 		lla	a0,.LC8
 2000      13050500 
 2001 0548 97000000 		call	_Z11printStringPKc@plt
 2001      E7800000 
 2002              	.LVL203:
  50:test/../test/Threads_C_API_test.hpp ****         }
 2003              		.loc 1 50 35 is_stmt 1 discriminator 1
  50:test/../test/Threads_C_API_test.hpp ****         }
 2004              		.loc 1 50 43 is_stmt 0 discriminator 1
 2005 0550 13060000 		li	a2,0
 2006 0554 9305A000 		li	a1,10
 2007 0558 13850400 		mv	a0,s1
 2008 055c 97000000 		call	_Z8printIntiii@plt
 2008      E7800000 
 2009              	.LVL204:
  50:test/../test/Threads_C_API_test.hpp ****         }
 2010              		.loc 1 50 48 is_stmt 1 discriminator 1
  50:test/../test/Threads_C_API_test.hpp ****         }
 2011              		.loc 1 50 59 is_stmt 0 discriminator 1
 2012 0564 17050000 		lla	a0,.LC2
 2012      13050500 
 2013 056c 97000000 		call	_Z11printStringPKc@plt
 2013      E7800000 
 2014              	.LVL205:
  49:test/../test/Threads_C_API_test.hpp ****             printString("C: i="); printInt(i); printString("\n");
 2015              		.loc 1 49 9 is_stmt 1 discriminator 1
 2016 0574 9B841400 		addiw	s1,s1,1
 2017              	.LVL206:
GAS LISTING /tmp/cc5eykcM.s 			page 49


 2018 0578 93F4F40F 		andi	s1,s1,0xff
 2019              	.LVL207:
 2020              	.L109:
  49:test/../test/Threads_C_API_test.hpp ****             printString("C: i="); printInt(i); printString("\n");
 2021              		.loc 1 49 9 discriminator 2
  49:test/../test/Threads_C_API_test.hpp ****             printString("C: i="); printInt(i); printString("\n");
 2022              		.loc 1 49 18 discriminator 2
 2023 057c 93072000 		li	a5,2
 2024 0580 E3F097FC 		bleu	s1,a5,.L113
  53:test/../test/Threads_C_API_test.hpp ****         __asm__ ("li t1, 7");
 2025              		.loc 1 53 9
  53:test/../test/Threads_C_API_test.hpp ****         __asm__ ("li t1, 7");
 2026              		.loc 1 53 20 is_stmt 0
 2027 0584 17050000 		lla	a0,.LC9
 2027      13050500 
 2028 058c 97000000 		call	_Z11printStringPKc@plt
 2028      E7800000 
 2029              	.LVL208:
  54:test/../test/Threads_C_API_test.hpp ****         thread_dispatch();
 2030              		.loc 1 54 9 is_stmt 1
  54:test/../test/Threads_C_API_test.hpp ****         thread_dispatch();
 2031              		.loc 1 54 29 is_stmt 0
 2032              	#APP
 2033              	# 54 "test/../test/Threads_C_API_test.hpp" 1
  55:test/../test/Threads_C_API_test.hpp **** 
 2034              		li t1, 7
 2035              	# 0 "" 2
 2036              		.loc 1 55 9 is_stmt 1
  55:test/../test/Threads_C_API_test.hpp **** 
 2037              		.loc 1 55 24 is_stmt 0
 2038              	#NO_APP
 2039 0598 97000000 		call	thread_dispatch@plt
 2039      E7800000 
 2040              	.LVL209:
  57:test/../test/Threads_C_API_test.hpp ****         __asm__ ("mv %[t1], t1" : [t1] "=r"(t1));
 2041              		.loc 1 57 9 is_stmt 1
  58:test/../test/Threads_C_API_test.hpp **** 
 2042              		.loc 1 58 9
  58:test/../test/Threads_C_API_test.hpp **** 
 2043              		.loc 1 58 49 is_stmt 0
 2044              	#APP
 2045              	# 58 "test/../test/Threads_C_API_test.hpp" 1
 2046              		mv s2, t1
 2047              	# 0 "" 2
 2048              	.LVL210:
  60:test/../test/Threads_C_API_test.hpp **** 
 2049              		.loc 1 60 9 is_stmt 1
  60:test/../test/Threads_C_API_test.hpp **** 
 2050              		.loc 1 60 20 is_stmt 0
 2051              	#NO_APP
 2052 05a4 17050000 		lla	a0,.LC10
 2052      13050500 
 2053 05ac 97000000 		call	_Z11printStringPKc@plt
 2053      E7800000 
 2054              	.LVL211:
  60:test/../test/Threads_C_API_test.hpp **** 
 2055              		.loc 1 60 32 is_stmt 1
GAS LISTING /tmp/cc5eykcM.s 			page 50


  60:test/../test/Threads_C_API_test.hpp **** 
 2056              		.loc 1 60 40 is_stmt 0
 2057 05b4 13060000 		li	a2,0
 2058 05b8 9305A000 		li	a1,10
 2059 05bc 1B050900 		sext.w	a0,s2
 2060 05c0 97000000 		call	_Z8printIntiii@plt
 2060      E7800000 
 2061              	.LVL212:
  60:test/../test/Threads_C_API_test.hpp **** 
 2062              		.loc 1 60 46 is_stmt 1
  60:test/../test/Threads_C_API_test.hpp **** 
 2063              		.loc 1 60 57 is_stmt 0
 2064 05c8 17050000 		lla	a0,.LC2
 2064      13050500 
 2065 05d0 97000000 		call	_Z11printStringPKc@plt
 2065      E7800000 
 2066              	.LVL213:
  62:test/../test/Threads_C_API_test.hpp ****         printString("C: fibonaci="); printInt(result); printString("\n");
 2067              		.loc 1 62 9 is_stmt 1
  62:test/../test/Threads_C_API_test.hpp ****         printString("C: fibonaci="); printInt(result); printString("\n");
 2068              		.loc 1 62 34 is_stmt 0
 2069 05d8 1305C000 		li	a0,12
 2070 05dc 97000000 		call	_ZN18Threads_C_API_test9fibonacciEm
 2070      E7800000 
 2071              	.LVL214:
 2072 05e4 13090500 		mv	s2,a0
 2073              	.LVL215:
  63:test/../test/Threads_C_API_test.hpp **** 
 2074              		.loc 1 63 9 is_stmt 1
  63:test/../test/Threads_C_API_test.hpp **** 
 2075              		.loc 1 63 20 is_stmt 0
 2076 05e8 17050000 		lla	a0,.LC11
 2076      13050500 
 2077              	.LVL216:
 2078 05f0 97000000 		call	_Z11printStringPKc@plt
 2078      E7800000 
 2079              	.LVL217:
  63:test/../test/Threads_C_API_test.hpp **** 
 2080              		.loc 1 63 38 is_stmt 1
  63:test/../test/Threads_C_API_test.hpp **** 
 2081              		.loc 1 63 46 is_stmt 0
 2082 05f8 13060000 		li	a2,0
 2083 05fc 9305A000 		li	a1,10
 2084 0600 1B050900 		sext.w	a0,s2
 2085 0604 97000000 		call	_Z8printIntiii@plt
 2085      E7800000 
 2086              	.LVL218:
  63:test/../test/Threads_C_API_test.hpp **** 
 2087              		.loc 1 63 56 is_stmt 1
  63:test/../test/Threads_C_API_test.hpp **** 
 2088              		.loc 1 63 67 is_stmt 0
 2089 060c 17050000 		lla	a0,.LC2
 2089      13050500 
 2090 0614 97000000 		call	_Z11printStringPKc@plt
 2090      E7800000 
 2091              	.LVL219:
 2092 061c 6F000004 		j	.L111
GAS LISTING /tmp/cc5eykcM.s 			page 51


 2093              	.L114:
  66:test/../test/Threads_C_API_test.hpp ****         }
 2094              		.loc 1 66 13 is_stmt 1 discriminator 1
  66:test/../test/Threads_C_API_test.hpp ****         }
 2095              		.loc 1 66 24 is_stmt 0 discriminator 1
 2096 0620 17050000 		lla	a0,.LC8
 2096      13050500 
 2097 0628 97000000 		call	_Z11printStringPKc@plt
 2097      E7800000 
 2098              	.LVL220:
  66:test/../test/Threads_C_API_test.hpp ****         }
 2099              		.loc 1 66 35 is_stmt 1 discriminator 1
  66:test/../test/Threads_C_API_test.hpp ****         }
 2100              		.loc 1 66 43 is_stmt 0 discriminator 1
 2101 0630 13060000 		li	a2,0
 2102 0634 9305A000 		li	a1,10
 2103 0638 13850400 		mv	a0,s1
 2104 063c 97000000 		call	_Z8printIntiii@plt
 2104      E7800000 
 2105              	.LVL221:
  66:test/../test/Threads_C_API_test.hpp ****         }
 2106              		.loc 1 66 48 is_stmt 1 discriminator 1
  66:test/../test/Threads_C_API_test.hpp ****         }
 2107              		.loc 1 66 59 is_stmt 0 discriminator 1
 2108 0644 17050000 		lla	a0,.LC2
 2108      13050500 
 2109 064c 97000000 		call	_Z11printStringPKc@plt
 2109      E7800000 
 2110              	.LVL222:
  65:test/../test/Threads_C_API_test.hpp ****             printString("C: i="); printInt(i); printString("\n");
 2111              		.loc 1 65 9 is_stmt 1 discriminator 1
 2112 0654 9B841400 		addiw	s1,s1,1
 2113              	.LVL223:
 2114 0658 93F4F40F 		andi	s1,s1,0xff
 2115              	.LVL224:
 2116              	.L111:
  65:test/../test/Threads_C_API_test.hpp ****             printString("C: i="); printInt(i); printString("\n");
 2117              		.loc 1 65 9 discriminator 2
  65:test/../test/Threads_C_API_test.hpp ****             printString("C: i="); printInt(i); printString("\n");
 2118              		.loc 1 65 18 discriminator 2
 2119 065c 93075000 		li	a5,5
 2120 0660 E3F097FC 		bleu	s1,a5,.L114
  69:test/../test/Threads_C_API_test.hpp ****         finishedC = true;
 2121              		.loc 1 69 9
  69:test/../test/Threads_C_API_test.hpp ****         finishedC = true;
 2122              		.loc 1 69 20 is_stmt 0
 2123 0664 17050000 		lla	a0,.LC3
 2123      13050500 
 2124 066c 97000000 		call	_Z11printStringPKc@plt
 2124      E7800000 
 2125              	.LVL225:
  70:test/../test/Threads_C_API_test.hpp ****         thread_dispatch();
 2126              		.loc 1 70 9 is_stmt 1
  70:test/../test/Threads_C_API_test.hpp ****         thread_dispatch();
 2127              		.loc 1 70 19 is_stmt 0
 2128 0674 93071000 		li	a5,1
 2129 0678 17070000 		sb	a5,.LANCHOR0+18,a4
GAS LISTING /tmp/cc5eykcM.s 			page 52


 2129      2300F700 
  71:test/../test/Threads_C_API_test.hpp ****     }
 2130              		.loc 1 71 9 is_stmt 1
  71:test/../test/Threads_C_API_test.hpp ****     }
 2131              		.loc 1 71 24 is_stmt 0
 2132 0680 97000000 		call	thread_dispatch@plt
 2132      E7800000 
 2133              	.LVL226:
  72:test/../test/Threads_C_API_test.hpp **** 
 2134              		.loc 1 72 5
 2135 0688 83308101 		ld	ra,24(sp)
 2136              		.cfi_restore 1
 2137 068c 03340101 		ld	s0,16(sp)
 2138              		.cfi_restore 8
 2139              		.cfi_def_cfa 2, 32
 2140 0690 83348100 		ld	s1,8(sp)
 2141              		.cfi_restore 9
 2142              	.LVL227:
 2143 0694 03390100 		ld	s2,0(sp)
 2144              		.cfi_restore 18
 2145              	.LVL228:
 2146 0698 13010102 		addi	sp,sp,32
 2147              		.cfi_def_cfa_offset 0
 2148 069c 67800000 		jr	ra
 2149              		.cfi_endproc
 2150              	.LFE43:
 2152              		.section	.rodata.str1.8
 2153 0085 000000   		.align	3
 2154              	.LC12:
 2155 0088 443A2069 		.string	"D: i="
 2155      3D00
 2156 008e 0000     		.align	3
 2157              	.LC13:
 2158 0090 443A2064 		.string	"D: dispatch\n"
 2158      69737061 
 2158      7463680A 
 2158      00
 2159 009d 000000   		.align	3
 2160              	.LC14:
 2161 00a0 443A2066 		.string	"D: fibonaci="
 2161      69626F6E 
 2161      6163693D 
 2161      00
 2162 00ad 000000   		.align	3
 2163              	.LC15:
 2164 00b0 44206669 		.string	"D finished!\n"
 2164      6E697368 
 2164      6564210A 
 2164      00
 2165              		.text
 2166              		.align	2
 2167              		.globl	_ZN18Threads_C_API_test11workerBodyDEPv
 2169              	_ZN18Threads_C_API_test11workerBodyDEPv:
 2170              	.LFB44:
  74:test/../test/Threads_C_API_test.hpp ****         uint8 i = 10;
 2171              		.loc 1 74 33 is_stmt 1
 2172              		.cfi_startproc
GAS LISTING /tmp/cc5eykcM.s 			page 53


 2173              	.LVL229:
 2174 06a0 130101FE 		addi	sp,sp,-32
 2175              		.cfi_def_cfa_offset 32
 2176 06a4 233C1100 		sd	ra,24(sp)
 2177 06a8 23388100 		sd	s0,16(sp)
 2178 06ac 23349100 		sd	s1,8(sp)
 2179 06b0 23302101 		sd	s2,0(sp)
 2180              		.cfi_offset 1, -8
 2181              		.cfi_offset 8, -16
 2182              		.cfi_offset 9, -24
 2183              		.cfi_offset 18, -32
 2184 06b4 13040102 		addi	s0,sp,32
 2185              		.cfi_def_cfa 8, 0
  75:test/../test/Threads_C_API_test.hpp ****         for (; i < 13; i++) {
 2186              		.loc 1 75 9
 2187              	.LVL230:
  75:test/../test/Threads_C_API_test.hpp ****         for (; i < 13; i++) {
 2188              		.loc 1 75 15 is_stmt 0
 2189 06b8 9304A000 		li	s1,10
 2190 06bc 6F000004 		j	.L117
 2191              	.LVL231:
 2192              	.L121:
  77:test/../test/Threads_C_API_test.hpp ****         }
 2193              		.loc 1 77 13 is_stmt 1 discriminator 1
  77:test/../test/Threads_C_API_test.hpp ****         }
 2194              		.loc 1 77 24 is_stmt 0 discriminator 1
 2195 06c0 17050000 		lla	a0,.LC12
 2195      13050500 
 2196 06c8 97000000 		call	_Z11printStringPKc@plt
 2196      E7800000 
 2197              	.LVL232:
  77:test/../test/Threads_C_API_test.hpp ****         }
 2198              		.loc 1 77 35 is_stmt 1 discriminator 1
  77:test/../test/Threads_C_API_test.hpp ****         }
 2199              		.loc 1 77 43 is_stmt 0 discriminator 1
 2200 06d0 13060000 		li	a2,0
 2201 06d4 9305A000 		li	a1,10
 2202 06d8 13850400 		mv	a0,s1
 2203 06dc 97000000 		call	_Z8printIntiii@plt
 2203      E7800000 
 2204              	.LVL233:
  77:test/../test/Threads_C_API_test.hpp ****         }
 2205              		.loc 1 77 48 is_stmt 1 discriminator 1
  77:test/../test/Threads_C_API_test.hpp ****         }
 2206              		.loc 1 77 59 is_stmt 0 discriminator 1
 2207 06e4 17050000 		lla	a0,.LC2
 2207      13050500 
 2208 06ec 97000000 		call	_Z11printStringPKc@plt
 2208      E7800000 
 2209              	.LVL234:
  76:test/../test/Threads_C_API_test.hpp ****             printString("D: i="); printInt(i); printString("\n");
 2210              		.loc 1 76 9 is_stmt 1 discriminator 1
 2211 06f4 9B841400 		addiw	s1,s1,1
 2212              	.LVL235:
 2213 06f8 93F4F40F 		andi	s1,s1,0xff
 2214              	.LVL236:
 2215              	.L117:
GAS LISTING /tmp/cc5eykcM.s 			page 54


  76:test/../test/Threads_C_API_test.hpp ****             printString("D: i="); printInt(i); printString("\n");
 2216              		.loc 1 76 9 discriminator 2
  76:test/../test/Threads_C_API_test.hpp ****             printString("D: i="); printInt(i); printString("\n");
 2217              		.loc 1 76 18 discriminator 2
 2218 06fc 9307C000 		li	a5,12
 2219 0700 E3F097FC 		bleu	s1,a5,.L121
  80:test/../test/Threads_C_API_test.hpp ****         __asm__ ("li t1, 5");
 2220              		.loc 1 80 9
  80:test/../test/Threads_C_API_test.hpp ****         __asm__ ("li t1, 5");
 2221              		.loc 1 80 20 is_stmt 0
 2222 0704 17050000 		lla	a0,.LC13
 2222      13050500 
 2223 070c 97000000 		call	_Z11printStringPKc@plt
 2223      E7800000 
 2224              	.LVL237:
  81:test/../test/Threads_C_API_test.hpp ****         thread_dispatch();
 2225              		.loc 1 81 9 is_stmt 1
  81:test/../test/Threads_C_API_test.hpp ****         thread_dispatch();
 2226              		.loc 1 81 29 is_stmt 0
 2227              	#APP
 2228              	# 81 "test/../test/Threads_C_API_test.hpp" 1
  82:test/../test/Threads_C_API_test.hpp **** 
 2229              		li t1, 5
 2230              	# 0 "" 2
 2231              		.loc 1 82 9 is_stmt 1
  82:test/../test/Threads_C_API_test.hpp **** 
 2232              		.loc 1 82 24 is_stmt 0
 2233              	#NO_APP
 2234 0718 97000000 		call	thread_dispatch@plt
 2234      E7800000 
 2235              	.LVL238:
  84:test/../test/Threads_C_API_test.hpp ****         printString("D: fibonaci="); printInt(result); printString("\n");
 2236              		.loc 1 84 9 is_stmt 1
  84:test/../test/Threads_C_API_test.hpp ****         printString("D: fibonaci="); printInt(result); printString("\n");
 2237              		.loc 1 84 34 is_stmt 0
 2238 0720 13050001 		li	a0,16
 2239 0724 97000000 		call	_ZN18Threads_C_API_test9fibonacciEm
 2239      E7800000 
 2240              	.LVL239:
 2241 072c 13090500 		mv	s2,a0
 2242              	.LVL240:
  85:test/../test/Threads_C_API_test.hpp **** 
 2243              		.loc 1 85 9 is_stmt 1
  85:test/../test/Threads_C_API_test.hpp **** 
 2244              		.loc 1 85 20 is_stmt 0
 2245 0730 17050000 		lla	a0,.LC14
 2245      13050500 
 2246              	.LVL241:
 2247 0738 97000000 		call	_Z11printStringPKc@plt
 2247      E7800000 
 2248              	.LVL242:
  85:test/../test/Threads_C_API_test.hpp **** 
 2249              		.loc 1 85 38 is_stmt 1
  85:test/../test/Threads_C_API_test.hpp **** 
 2250              		.loc 1 85 46 is_stmt 0
 2251 0740 13060000 		li	a2,0
 2252 0744 9305A000 		li	a1,10
GAS LISTING /tmp/cc5eykcM.s 			page 55


 2253 0748 1B050900 		sext.w	a0,s2
 2254 074c 97000000 		call	_Z8printIntiii@plt
 2254      E7800000 
 2255              	.LVL243:
  85:test/../test/Threads_C_API_test.hpp **** 
 2256              		.loc 1 85 56 is_stmt 1
  85:test/../test/Threads_C_API_test.hpp **** 
 2257              		.loc 1 85 67 is_stmt 0
 2258 0754 17050000 		lla	a0,.LC2
 2258      13050500 
 2259 075c 97000000 		call	_Z11printStringPKc@plt
 2259      E7800000 
 2260              	.LVL244:
 2261 0764 6F000004 		j	.L119
 2262              	.L122:
  88:test/../test/Threads_C_API_test.hpp ****         }
 2263              		.loc 1 88 13 is_stmt 1 discriminator 1
  88:test/../test/Threads_C_API_test.hpp ****         }
 2264              		.loc 1 88 24 is_stmt 0 discriminator 1
 2265 0768 17050000 		lla	a0,.LC12
 2265      13050500 
 2266 0770 97000000 		call	_Z11printStringPKc@plt
 2266      E7800000 
 2267              	.LVL245:
  88:test/../test/Threads_C_API_test.hpp ****         }
 2268              		.loc 1 88 35 is_stmt 1 discriminator 1
  88:test/../test/Threads_C_API_test.hpp ****         }
 2269              		.loc 1 88 43 is_stmt 0 discriminator 1
 2270 0778 13060000 		li	a2,0
 2271 077c 9305A000 		li	a1,10
 2272 0780 13850400 		mv	a0,s1
 2273 0784 97000000 		call	_Z8printIntiii@plt
 2273      E7800000 
 2274              	.LVL246:
  88:test/../test/Threads_C_API_test.hpp ****         }
 2275              		.loc 1 88 48 is_stmt 1 discriminator 1
  88:test/../test/Threads_C_API_test.hpp ****         }
 2276              		.loc 1 88 59 is_stmt 0 discriminator 1
 2277 078c 17050000 		lla	a0,.LC2
 2277      13050500 
 2278 0794 97000000 		call	_Z11printStringPKc@plt
 2278      E7800000 
 2279              	.LVL247:
  87:test/../test/Threads_C_API_test.hpp ****             printString("D: i="); printInt(i); printString("\n");
 2280              		.loc 1 87 9 is_stmt 1 discriminator 1
 2281 079c 9B841400 		addiw	s1,s1,1
 2282              	.LVL248:
 2283 07a0 93F4F40F 		andi	s1,s1,0xff
 2284              	.LVL249:
 2285              	.L119:
  87:test/../test/Threads_C_API_test.hpp ****             printString("D: i="); printInt(i); printString("\n");
 2286              		.loc 1 87 9 discriminator 2
  87:test/../test/Threads_C_API_test.hpp ****             printString("D: i="); printInt(i); printString("\n");
 2287              		.loc 1 87 18 discriminator 2
 2288 07a4 9307F000 		li	a5,15
 2289 07a8 E3F097FC 		bleu	s1,a5,.L122
  91:test/../test/Threads_C_API_test.hpp ****         finishedD = true;
GAS LISTING /tmp/cc5eykcM.s 			page 56


 2290              		.loc 1 91 9
  91:test/../test/Threads_C_API_test.hpp ****         finishedD = true;
 2291              		.loc 1 91 20 is_stmt 0
 2292 07ac 17050000 		lla	a0,.LC15
 2292      13050500 
 2293 07b4 97000000 		call	_Z11printStringPKc@plt
 2293      E7800000 
 2294              	.LVL250:
  92:test/../test/Threads_C_API_test.hpp ****         thread_dispatch();
 2295              		.loc 1 92 9 is_stmt 1
  92:test/../test/Threads_C_API_test.hpp ****         thread_dispatch();
 2296              		.loc 1 92 19 is_stmt 0
 2297 07bc 93071000 		li	a5,1
 2298 07c0 17070000 		sb	a5,.LANCHOR0+19,a4
 2298      2300F700 
  93:test/../test/Threads_C_API_test.hpp ****     }
 2299              		.loc 1 93 9 is_stmt 1
  93:test/../test/Threads_C_API_test.hpp ****     }
 2300              		.loc 1 93 24 is_stmt 0
 2301 07c8 97000000 		call	thread_dispatch@plt
 2301      E7800000 
 2302              	.LVL251:
  94:test/../test/Threads_C_API_test.hpp **** 
 2303              		.loc 1 94 5
 2304 07d0 83308101 		ld	ra,24(sp)
 2305              		.cfi_restore 1
 2306 07d4 03340101 		ld	s0,16(sp)
 2307              		.cfi_restore 8
 2308              		.cfi_def_cfa 2, 32
 2309 07d8 83348100 		ld	s1,8(sp)
 2310              		.cfi_restore 9
 2311              	.LVL252:
 2312 07dc 03390100 		ld	s2,0(sp)
 2313              		.cfi_restore 18
 2314              	.LVL253:
 2315 07e0 13010102 		addi	sp,sp,32
 2316              		.cfi_def_cfa_offset 0
 2317 07e4 67800000 		jr	ra
 2318              		.cfi_endproc
 2319              	.LFE44:
 2321              		.section	.rodata.str1.8
 2322 00bd 000000   		.align	3
 2323              	.LC16:
 2324 00c0 54687265 		.string	"ThreadA created\n"
 2324      61644120 
 2324      63726561 
 2324      7465640A 
 2324      00
 2325 00d1 00000000 		.align	3
 2325      000000
 2326              	.LC17:
 2327 00d8 54687265 		.string	"ThreadB created\n"
 2327      61644220 
 2327      63726561 
 2327      7465640A 
 2327      00
 2328 00e9 00000000 		.align	3
GAS LISTING /tmp/cc5eykcM.s 			page 57


 2328      000000
 2329              	.LC18:
 2330 00f0 54687265 		.string	"ThreadC created\n"
 2330      61644320 
 2330      63726561 
 2330      7465640A 
 2330      00
 2331 0101 00000000 		.align	3
 2331      000000
 2332              	.LC19:
 2333 0108 54687265 		.string	"ThreadD created\n"
 2333      61644420 
 2333      63726561 
 2333      7465640A 
 2333      00
 2334 0119 00000000 		.align	3
 2334      000000
 2335              	.LC20:
 2336 0120 54687265 		.string	"ThreadE created\n"
 2336      61644520 
 2336      63726561 
 2336      7465640A 
 2336      00
 2337              		.text
 2338              		.align	2
 2339              		.globl	_ZN18Threads_C_API_test18Threads_C_API_testEv
 2341              	_ZN18Threads_C_API_test18Threads_C_API_testEv:
 2342              	.LFB46:
 117:test/../test/Threads_C_API_test.hpp **** 
 118:test/../test/Threads_C_API_test.hpp **** 
 119:test/../test/Threads_C_API_test.hpp ****     void Threads_C_API_test() {
 2343              		.loc 1 119 31 is_stmt 1
 2344              		.cfi_startproc
 2345 07e8 130101FC 		addi	sp,sp,-64
 2346              		.cfi_def_cfa_offset 64
 2347 07ec 233C1102 		sd	ra,56(sp)
 2348 07f0 23388102 		sd	s0,48(sp)
 2349              		.cfi_offset 1, -8
 2350              		.cfi_offset 8, -16
 2351 07f4 13040104 		addi	s0,sp,64
 2352              		.cfi_def_cfa 8, 0
 120:test/../test/Threads_C_API_test.hpp ****         thread_t threads[5];
 2353              		.loc 1 120 9
 121:test/../test/Threads_C_API_test.hpp ****         thread_create(&threads[0], workerBodyA, nullptr);
 2354              		.loc 1 121 9
 2355              		.loc 1 121 22 is_stmt 0
 2356 07f8 13060000 		li	a2,0
 2357 07fc 97050000 		lla	a1,_ZN18Threads_C_API_test11workerBodyAEPv
 2357      93850500 
 2358 0804 130584FC 		addi	a0,s0,-56
 2359 0808 97000000 		call	thread_create@plt
 2359      E7800000 
 2360              	.LVL254:
 122:test/../test/Threads_C_API_test.hpp ****         printString("ThreadA created\n");
 2361              		.loc 1 122 9 is_stmt 1
 2362              		.loc 1 122 20 is_stmt 0
 2363 0810 17050000 		lla	a0,.LC16
GAS LISTING /tmp/cc5eykcM.s 			page 58


 2363      13050500 
 2364 0818 97000000 		call	_Z11printStringPKc@plt
 2364      E7800000 
 2365              	.LVL255:
 123:test/../test/Threads_C_API_test.hpp **** 
 124:test/../test/Threads_C_API_test.hpp ****         thread_create(&threads[1], workerBodyB, nullptr);
 2366              		.loc 1 124 9 is_stmt 1
 2367              		.loc 1 124 22 is_stmt 0
 2368 0820 13060000 		li	a2,0
 2369 0824 97050000 		lla	a1,_ZN18Threads_C_API_test11workerBodyBEPv
 2369      93850500 
 2370 082c 130504FD 		addi	a0,s0,-48
 2371 0830 97000000 		call	thread_create@plt
 2371      E7800000 
 2372              	.LVL256:
 125:test/../test/Threads_C_API_test.hpp ****         printString("ThreadB created\n");
 2373              		.loc 1 125 9 is_stmt 1
 2374              		.loc 1 125 20 is_stmt 0
 2375 0838 17050000 		lla	a0,.LC17
 2375      13050500 
 2376 0840 97000000 		call	_Z11printStringPKc@plt
 2376      E7800000 
 2377              	.LVL257:
 126:test/../test/Threads_C_API_test.hpp **** 
 127:test/../test/Threads_C_API_test.hpp ****         thread_create(&threads[2], workerBodyC, nullptr);
 2378              		.loc 1 127 9 is_stmt 1
 2379              		.loc 1 127 22 is_stmt 0
 2380 0848 13060000 		li	a2,0
 2381 084c 97050000 		lla	a1,_ZN18Threads_C_API_test11workerBodyCEPv
 2381      93850500 
 2382 0854 130584FD 		addi	a0,s0,-40
 2383 0858 97000000 		call	thread_create@plt
 2383      E7800000 
 2384              	.LVL258:
 128:test/../test/Threads_C_API_test.hpp ****         printString("ThreadC created\n");
 2385              		.loc 1 128 9 is_stmt 1
 2386              		.loc 1 128 20 is_stmt 0
 2387 0860 17050000 		lla	a0,.LC18
 2387      13050500 
 2388 0868 97000000 		call	_Z11printStringPKc@plt
 2388      E7800000 
 2389              	.LVL259:
 129:test/../test/Threads_C_API_test.hpp **** 
 130:test/../test/Threads_C_API_test.hpp ****         thread_create(&threads[3], workerBodyD, nullptr);
 2390              		.loc 1 130 9 is_stmt 1
 2391              		.loc 1 130 22 is_stmt 0
 2392 0870 13060000 		li	a2,0
 2393 0874 97050000 		lla	a1,_ZN18Threads_C_API_test11workerBodyDEPv
 2393      93850500 
 2394 087c 130504FE 		addi	a0,s0,-32
 2395 0880 97000000 		call	thread_create@plt
 2395      E7800000 
 2396              	.LVL260:
 131:test/../test/Threads_C_API_test.hpp ****         printString("ThreadD created\n");
 2397              		.loc 1 131 9 is_stmt 1
 2398              		.loc 1 131 20 is_stmt 0
 2399 0888 17050000 		lla	a0,.LC19
GAS LISTING /tmp/cc5eykcM.s 			page 59


 2399      13050500 
 2400 0890 97000000 		call	_Z11printStringPKc@plt
 2400      E7800000 
 2401              	.LVL261:
 132:test/../test/Threads_C_API_test.hpp **** 
 133:test/../test/Threads_C_API_test.hpp ****         thread_create(&threads[4], workerBodyE, nullptr);
 2402              		.loc 1 133 9 is_stmt 1
 2403              		.loc 1 133 22 is_stmt 0
 2404 0898 13060000 		li	a2,0
 2405 089c 97050000 		lla	a1,_ZN18Threads_C_API_test11workerBodyEEPv
 2405      93850500 
 2406 08a4 130584FE 		addi	a0,s0,-24
 2407 08a8 97000000 		call	thread_create@plt
 2407      E7800000 
 2408              	.LVL262:
 134:test/../test/Threads_C_API_test.hpp ****         printString("ThreadE created\n");
 2409              		.loc 1 134 9 is_stmt 1
 2410              		.loc 1 134 20 is_stmt 0
 2411 08b0 17050000 		lla	a0,.LC20
 2411      13050500 
 2412 08b8 97000000 		call	_Z11printStringPKc@plt
 2412      E7800000 
 2413              	.LVL263:
 2414 08c0 6F00C000 		j	.L126
 2415              	.L124:
 135:test/../test/Threads_C_API_test.hpp **** 
 136:test/../test/Threads_C_API_test.hpp **** 
 137:test/../test/Threads_C_API_test.hpp ****         while (!(finishedA && finishedB && finishedC && finishedD && finishedE)) {
 138:test/../test/Threads_C_API_test.hpp ****             thread_dispatch();
 2416              		.loc 1 138 13 is_stmt 1
 2417              		.loc 1 138 28 is_stmt 0
 2418 08c4 97000000 		call	thread_dispatch@plt
 2418      E7800000 
 2419              	.LVL264:
 2420              	.L126:
 137:test/../test/Threads_C_API_test.hpp ****             thread_dispatch();
 2421              		.loc 1 137 9 is_stmt 1
 137:test/../test/Threads_C_API_test.hpp ****             thread_dispatch();
 2422              		.loc 1 137 16
 2423 08cc 97070000 		lbu	a5,.LANCHOR0+1
 2423      83C70700 
 2424 08d4 E38807FE 		beqz	a5,.L124
 137:test/../test/Threads_C_API_test.hpp ****             thread_dispatch();
 2425              		.loc 1 137 28 is_stmt 0 discriminator 1
 2426 08d8 97070000 		lbu	a5,.LANCHOR0+2
 2426      83C70700 
 2427 08e0 E38207FE 		beqz	a5,.L124
 137:test/../test/Threads_C_API_test.hpp ****             thread_dispatch();
 2428              		.loc 1 137 41 discriminator 2
 2429 08e4 97070000 		lbu	a5,.LANCHOR0+18
 2429      83C70700 
 2430 08ec E38C07FC 		beqz	a5,.L124
 137:test/../test/Threads_C_API_test.hpp ****             thread_dispatch();
 2431              		.loc 1 137 54 discriminator 3
 2432 08f0 97070000 		lbu	a5,.LANCHOR0+19
 2432      83C70700 
 2433 08f8 E38607FC 		beqz	a5,.L124
GAS LISTING /tmp/cc5eykcM.s 			page 60


 137:test/../test/Threads_C_API_test.hpp ****             thread_dispatch();
 2434              		.loc 1 137 16 discriminator 4
 2435 08fc 97070000 		lbu	a5,.LANCHOR0
 2435      83C70700 
 2436 0904 E38007FC 		beqz	a5,.L124
 139:test/../test/Threads_C_API_test.hpp ****         }
 140:test/../test/Threads_C_API_test.hpp **** 
 141:test/../test/Threads_C_API_test.hpp ****     }
 2437              		.loc 1 141 5
 2438 0908 83308103 		ld	ra,56(sp)
 2439              		.cfi_restore 1
 2440 090c 03340103 		ld	s0,48(sp)
 2441              		.cfi_restore 8
 2442              		.cfi_def_cfa 2, 64
 2443 0910 13010104 		addi	sp,sp,64
 2444              		.cfi_def_cfa_offset 0
 2445 0914 67800000 		jr	ra
 2446              		.cfi_endproc
 2447              	.LFE46:
 2449              		.align	2
 2450              		.globl	_ZN20Threads_CPP_API_test9fibonacciEm
 2452              	_ZN20Threads_CPP_API_test9fibonacciEm:
 2453              	.LFB50:
  15:test/../test/Threads_CPP_API_test.hpp ****         if (n == 0 || n == 1) { return n; }
 2454              		.loc 2 15 32 is_stmt 1
 2455              		.cfi_startproc
 2456              	.LVL265:
 2457 0918 130101FE 		addi	sp,sp,-32
 2458              		.cfi_def_cfa_offset 32
 2459 091c 233C1100 		sd	ra,24(sp)
 2460 0920 23388100 		sd	s0,16(sp)
 2461 0924 23349100 		sd	s1,8(sp)
 2462 0928 23302101 		sd	s2,0(sp)
 2463              		.cfi_offset 1, -8
 2464              		.cfi_offset 8, -16
 2465              		.cfi_offset 9, -24
 2466              		.cfi_offset 18, -32
 2467 092c 13040102 		addi	s0,sp,32
 2468              		.cfi_def_cfa 8, 0
 2469 0930 93040500 		mv	s1,a0
  16:test/../test/Threads_CPP_API_test.hpp ****         if (n % 10 == 0) { thread_dispatch(); }
 2470              		.loc 2 16 9
 2471 0934 93071000 		li	a5,1
 2472 0938 63F8A702 		bleu	a0,a5,.L128
  17:test/../test/Threads_CPP_API_test.hpp ****         return fibonacci(n - 1) + fibonacci(n - 2);
 2473              		.loc 2 17 9
  17:test/../test/Threads_CPP_API_test.hpp ****         return fibonacci(n - 1) + fibonacci(n - 2);
 2474              		.loc 2 17 15 is_stmt 0
 2475 093c 9307A000 		li	a5,10
 2476 0940 B377F502 		remu	a5,a0,a5
  17:test/../test/Threads_CPP_API_test.hpp ****         return fibonacci(n - 1) + fibonacci(n - 2);
 2477              		.loc 2 17 9
 2478 0944 638E0702 		beqz	a5,.L133
 2479              	.LVL266:
 2480              	.L130:
  18:test/../test/Threads_CPP_API_test.hpp ****     }
 2481              		.loc 2 18 9 is_stmt 1
GAS LISTING /tmp/cc5eykcM.s 			page 61


  18:test/../test/Threads_CPP_API_test.hpp ****     }
 2482              		.loc 2 18 25 is_stmt 0
 2483 0948 1385F4FF 		addi	a0,s1,-1
 2484 094c 97000000 		call	_ZN20Threads_CPP_API_test9fibonacciEm
 2484      E7800000 
 2485              	.LVL267:
 2486 0954 13090500 		mv	s2,a0
  18:test/../test/Threads_CPP_API_test.hpp ****     }
 2487              		.loc 2 18 44
 2488 0958 1385E4FF 		addi	a0,s1,-2
 2489 095c 97000000 		call	_ZN20Threads_CPP_API_test9fibonacciEm
 2489      E7800000 
 2490              	.LVL268:
  18:test/../test/Threads_CPP_API_test.hpp ****     }
 2491              		.loc 2 18 50
 2492 0964 3305A900 		add	a0,s2,a0
 2493              	.L128:
  19:test/../test/Threads_CPP_API_test.hpp **** 
 2494              		.loc 2 19 5
 2495 0968 83308101 		ld	ra,24(sp)
 2496              		.cfi_remember_state
 2497              		.cfi_restore 1
 2498 096c 03340101 		ld	s0,16(sp)
 2499              		.cfi_restore 8
 2500              		.cfi_def_cfa 2, 32
 2501 0970 83348100 		ld	s1,8(sp)
 2502              		.cfi_restore 9
 2503              	.LVL269:
 2504 0974 03390100 		ld	s2,0(sp)
 2505              		.cfi_restore 18
 2506 0978 13010102 		addi	sp,sp,32
 2507              		.cfi_def_cfa_offset 0
 2508 097c 67800000 		jr	ra
 2509              	.LVL270:
 2510              	.L133:
 2511              		.cfi_restore_state
  17:test/../test/Threads_CPP_API_test.hpp ****         return fibonacci(n - 1) + fibonacci(n - 2);
 2512              		.loc 2 17 28 is_stmt 1 discriminator 1
  17:test/../test/Threads_CPP_API_test.hpp ****         return fibonacci(n - 1) + fibonacci(n - 2);
 2513              		.loc 2 17 43 is_stmt 0 discriminator 1
 2514 0980 97000000 		call	thread_dispatch@plt
 2514      E7800000 
 2515              	.LVL271:
 2516 0988 6FF01FFC 		j	.L130
 2517              		.cfi_endproc
 2518              	.LFE50:
 2520              		.align	2
 2521              		.globl	_ZN20Threads_CPP_API_test7WorkerA11workerBodyAEPv
 2523              	_ZN20Threads_CPP_API_test7WorkerA11workerBodyAEPv:
 2524              	.LFB67:
  52:test/../test/Threads_CPP_API_test.hpp ****         void workerBodyD(void* arg);
  53:test/../test/Threads_CPP_API_test.hpp ****     public:
  54:test/../test/Threads_CPP_API_test.hpp ****         WorkerD():Thread() {}
  55:test/../test/Threads_CPP_API_test.hpp **** 
  56:test/../test/Threads_CPP_API_test.hpp ****         void run() override {
  57:test/../test/Threads_CPP_API_test.hpp ****             workerBodyD(nullptr);
  58:test/../test/Threads_CPP_API_test.hpp ****         }
GAS LISTING /tmp/cc5eykcM.s 			page 62


  59:test/../test/Threads_CPP_API_test.hpp ****     };
  60:test/../test/Threads_CPP_API_test.hpp **** 
  61:test/../test/Threads_CPP_API_test.hpp ****     void WorkerA::workerBodyA(void *arg) {
 2525              		.loc 2 61 42 is_stmt 1
 2526              		.cfi_startproc
 2527              	.LVL272:
 2528 098c 130101FE 		addi	sp,sp,-32
 2529              		.cfi_def_cfa_offset 32
 2530 0990 233C1100 		sd	ra,24(sp)
 2531 0994 23388100 		sd	s0,16(sp)
 2532 0998 23349100 		sd	s1,8(sp)
 2533 099c 23302101 		sd	s2,0(sp)
 2534              		.cfi_offset 1, -8
 2535              		.cfi_offset 8, -16
 2536              		.cfi_offset 9, -24
 2537              		.cfi_offset 18, -32
 2538 09a0 13040102 		addi	s0,sp,32
 2539              		.cfi_def_cfa 8, 0
  62:test/../test/Threads_CPP_API_test.hpp ****         for (uint64 i = 0; i < 10; i++) {
 2540              		.loc 2 62 9
 2541              	.LVL273:
 2542              	.LBB126:
 2543              		.loc 2 62 21 is_stmt 0
 2544 09a4 13090000 		li	s2,0
 2545 09a8 6F008003 		j	.L140
 2546              	.LVL274:
 2547              	.L137:
 2548              	.LBB127:
 2549              	.LBB128:
 2550              	.LBB129:
  63:test/../test/Threads_CPP_API_test.hpp ****             printString("A: i="); printInt(i); printString("\n");
  64:test/../test/Threads_CPP_API_test.hpp ****             for (uint64 j = 0; j < 10000; j++) {
  65:test/../test/Threads_CPP_API_test.hpp ****                 for (uint64 k = 0; k < 30000; k++) { /* busy wait */ }
  66:test/../test/Threads_CPP_API_test.hpp ****                 thread_dispatch();
 2551              		.loc 2 66 17 is_stmt 1 discriminator 2
 2552              		.loc 2 66 32 is_stmt 0 discriminator 2
 2553 09ac 97000000 		call	thread_dispatch@plt
 2553      E7800000 
 2554              	.LVL275:
 2555              	.LBE129:
  64:test/../test/Threads_CPP_API_test.hpp ****                 for (uint64 k = 0; k < 30000; k++) { /* busy wait */ }
 2556              		.loc 2 64 13 is_stmt 1 discriminator 2
 2557 09b4 93841400 		addi	s1,s1,1
 2558              	.LVL276:
 2559              	.L139:
  64:test/../test/Threads_CPP_API_test.hpp ****                 for (uint64 k = 0; k < 30000; k++) { /* busy wait */ }
 2560              		.loc 2 64 34 discriminator 1
 2561 09b8 B7270000 		li	a5,8192
 2562 09bc 9387F770 		addi	a5,a5,1807
 2563 09c0 63EE9700 		bgtu	s1,a5,.L136
 2564              	.LBB131:
 2565              	.LBB130:
  65:test/../test/Threads_CPP_API_test.hpp ****                 thread_dispatch();
 2566              		.loc 2 65 29 is_stmt 0
 2567 09c4 13070000 		li	a4,0
 2568              	.L138:
 2569              	.LVL277:
GAS LISTING /tmp/cc5eykcM.s 			page 63


  65:test/../test/Threads_CPP_API_test.hpp ****                 thread_dispatch();
 2570              		.loc 2 65 38 is_stmt 1 discriminator 3
 2571 09c8 B7770000 		li	a5,28672
 2572 09cc 9387F752 		addi	a5,a5,1327
 2573 09d0 E3EEE7FC 		bgtu	a4,a5,.L137
  65:test/../test/Threads_CPP_API_test.hpp ****                 thread_dispatch();
 2574              		.loc 2 65 17 discriminator 2
 2575 09d4 13071700 		addi	a4,a4,1
 2576              	.LVL278:
 2577 09d8 6FF01FFF 		j	.L138
 2578              	.LVL279:
 2579              	.L136:
 2580              	.LBE130:
 2581              	.LBE131:
 2582              	.LBE128:
 2583              	.LBE127:
  62:test/../test/Threads_CPP_API_test.hpp ****             printString("A: i="); printInt(i); printString("\n");
 2584              		.loc 2 62 9 discriminator 2
 2585 09dc 13091900 		addi	s2,s2,1
 2586              	.LVL280:
 2587              	.L140:
  62:test/../test/Threads_CPP_API_test.hpp ****             printString("A: i="); printInt(i); printString("\n");
 2588              		.loc 2 62 30 discriminator 1
 2589 09e0 93079000 		li	a5,9
 2590 09e4 63E02705 		bgtu	s2,a5,.L135
 2591              	.LBB133:
  63:test/../test/Threads_CPP_API_test.hpp ****             for (uint64 j = 0; j < 10000; j++) {
 2592              		.loc 2 63 13
  63:test/../test/Threads_CPP_API_test.hpp ****             for (uint64 j = 0; j < 10000; j++) {
 2593              		.loc 2 63 24 is_stmt 0
 2594 09e8 17050000 		lla	a0,.LC1
 2594      13050500 
 2595 09f0 97000000 		call	_Z11printStringPKc@plt
 2595      E7800000 
 2596              	.LVL281:
  63:test/../test/Threads_CPP_API_test.hpp ****             for (uint64 j = 0; j < 10000; j++) {
 2597              		.loc 2 63 35 is_stmt 1
  63:test/../test/Threads_CPP_API_test.hpp ****             for (uint64 j = 0; j < 10000; j++) {
 2598              		.loc 2 63 43 is_stmt 0
 2599 09f8 13060000 		li	a2,0
 2600 09fc 9305A000 		li	a1,10
 2601 0a00 1B050900 		sext.w	a0,s2
 2602 0a04 97000000 		call	_Z8printIntiii@plt
 2602      E7800000 
 2603              	.LVL282:
  63:test/../test/Threads_CPP_API_test.hpp ****             for (uint64 j = 0; j < 10000; j++) {
 2604              		.loc 2 63 48 is_stmt 1
  63:test/../test/Threads_CPP_API_test.hpp ****             for (uint64 j = 0; j < 10000; j++) {
 2605              		.loc 2 63 59 is_stmt 0
 2606 0a0c 17050000 		lla	a0,.LC2
 2606      13050500 
 2607 0a14 97000000 		call	_Z11printStringPKc@plt
 2607      E7800000 
 2608              	.LVL283:
  64:test/../test/Threads_CPP_API_test.hpp ****                 for (uint64 k = 0; k < 30000; k++) { /* busy wait */ }
 2609              		.loc 2 64 13 is_stmt 1
 2610              	.LBB132:
GAS LISTING /tmp/cc5eykcM.s 			page 64


  64:test/../test/Threads_CPP_API_test.hpp ****                 for (uint64 k = 0; k < 30000; k++) { /* busy wait */ }
 2611              		.loc 2 64 25 is_stmt 0
 2612 0a1c 93040000 		li	s1,0
 2613 0a20 6FF09FF9 		j	.L139
 2614              	.LVL284:
 2615              	.L135:
 2616              	.LBE132:
 2617              	.LBE133:
 2618              	.LBE126:
  67:test/../test/Threads_CPP_API_test.hpp ****             }
  68:test/../test/Threads_CPP_API_test.hpp ****         }
  69:test/../test/Threads_CPP_API_test.hpp ****         printString("A finished!\n");
 2619              		.loc 2 69 9 is_stmt 1
 2620              		.loc 2 69 20 is_stmt 0
 2621 0a24 17050000 		lla	a0,.LC3
 2621      13050500 
 2622 0a2c 97000000 		call	_Z11printStringPKc@plt
 2622      E7800000 
 2623              	.LVL285:
  70:test/../test/Threads_CPP_API_test.hpp ****         finishedA = true;
 2624              		.loc 2 70 9 is_stmt 1
 2625              		.loc 2 70 19 is_stmt 0
 2626 0a34 93071000 		li	a5,1
 2627 0a38 17070000 		sb	a5,.LANCHOR0+20,a4
 2627      2300F700 
  71:test/../test/Threads_CPP_API_test.hpp ****     }
 2628              		.loc 2 71 5
 2629 0a40 83308101 		ld	ra,24(sp)
 2630              		.cfi_restore 1
 2631 0a44 03340101 		ld	s0,16(sp)
 2632              		.cfi_restore 8
 2633              		.cfi_def_cfa 2, 32
 2634 0a48 83348100 		ld	s1,8(sp)
 2635              		.cfi_restore 9
 2636 0a4c 03390100 		ld	s2,0(sp)
 2637              		.cfi_restore 18
 2638              	.LVL286:
 2639 0a50 13010102 		addi	sp,sp,32
 2640              		.cfi_def_cfa_offset 0
 2641 0a54 67800000 		jr	ra
 2642              		.cfi_endproc
 2643              	.LFE67:
 2645              		.section	.text._ZN20Threads_CPP_API_test7WorkerA3runEv,"axG",@progbits,_ZN20Threads_CPP_API_test7W
 2646              		.align	2
 2647              		.weak	_ZN20Threads_CPP_API_test7WorkerA3runEv
 2649              	_ZN20Threads_CPP_API_test7WorkerA3runEv:
 2650              	.LFB54:
  26:test/../test/Threads_CPP_API_test.hpp ****             workerBodyA(nullptr);
 2651              		.loc 2 26 14 is_stmt 1
 2652              		.cfi_startproc
 2653              	.LVL287:
 2654 0000 130101FF 		addi	sp,sp,-16
 2655              		.cfi_def_cfa_offset 16
 2656 0004 23341100 		sd	ra,8(sp)
 2657 0008 23308100 		sd	s0,0(sp)
 2658              		.cfi_offset 1, -8
 2659              		.cfi_offset 8, -16
GAS LISTING /tmp/cc5eykcM.s 			page 65


 2660 000c 13040101 		addi	s0,sp,16
 2661              		.cfi_def_cfa 8, 0
  27:test/../test/Threads_CPP_API_test.hpp ****         }
 2662              		.loc 2 27 13
  27:test/../test/Threads_CPP_API_test.hpp ****         }
 2663              		.loc 2 27 24 is_stmt 0
 2664 0010 93050000 		li	a1,0
 2665 0014 97000000 		call	_ZN20Threads_CPP_API_test7WorkerA11workerBodyAEPv
 2665      E7800000 
 2666              	.LVL288:
  28:test/../test/Threads_CPP_API_test.hpp ****     };
 2667              		.loc 2 28 9
 2668 001c 83308100 		ld	ra,8(sp)
 2669              		.cfi_restore 1
 2670 0020 03340100 		ld	s0,0(sp)
 2671              		.cfi_restore 8
 2672              		.cfi_def_cfa 2, 16
 2673 0024 13010101 		addi	sp,sp,16
 2674              		.cfi_def_cfa_offset 0
 2675 0028 67800000 		jr	ra
 2676              		.cfi_endproc
 2677              	.LFE54:
 2679              		.text
 2680              		.align	2
 2681              		.globl	_ZN20Threads_CPP_API_test7WorkerB11workerBodyBEPv
 2683              	_ZN20Threads_CPP_API_test7WorkerB11workerBodyBEPv:
 2684              	.LFB68:
  72:test/../test/Threads_CPP_API_test.hpp **** 
  73:test/../test/Threads_CPP_API_test.hpp ****     void WorkerB::workerBodyB(void *arg) {
 2685              		.loc 2 73 42 is_stmt 1
 2686              		.cfi_startproc
 2687              	.LVL289:
 2688 0a58 130101FE 		addi	sp,sp,-32
 2689              		.cfi_def_cfa_offset 32
 2690 0a5c 233C1100 		sd	ra,24(sp)
 2691 0a60 23388100 		sd	s0,16(sp)
 2692 0a64 23349100 		sd	s1,8(sp)
 2693 0a68 23302101 		sd	s2,0(sp)
 2694              		.cfi_offset 1, -8
 2695              		.cfi_offset 8, -16
 2696              		.cfi_offset 9, -24
 2697              		.cfi_offset 18, -32
 2698 0a6c 13040102 		addi	s0,sp,32
 2699              		.cfi_def_cfa 8, 0
  74:test/../test/Threads_CPP_API_test.hpp ****         for (uint64 i = 0; i < 16; i++) {
 2700              		.loc 2 74 9
 2701              	.LVL290:
 2702              	.LBB134:
 2703              		.loc 2 74 21 is_stmt 0
 2704 0a70 13090000 		li	s2,0
 2705 0a74 6F008003 		j	.L150
 2706              	.LVL291:
 2707              	.L147:
 2708              	.LBB135:
 2709              	.LBB136:
 2710              	.LBB137:
  75:test/../test/Threads_CPP_API_test.hpp ****             printString("B: i="); printInt(i); printString("\n");
GAS LISTING /tmp/cc5eykcM.s 			page 66


  76:test/../test/Threads_CPP_API_test.hpp ****             for (uint64 j = 0; j < 10000; j++) {
  77:test/../test/Threads_CPP_API_test.hpp ****                 for (uint64 k = 0; k < 30000; k++) { /* busy wait */ }
  78:test/../test/Threads_CPP_API_test.hpp ****                 thread_dispatch();
 2711              		.loc 2 78 17 is_stmt 1 discriminator 2
 2712              		.loc 2 78 32 is_stmt 0 discriminator 2
 2713 0a78 97000000 		call	thread_dispatch@plt
 2713      E7800000 
 2714              	.LVL292:
 2715              	.LBE137:
  76:test/../test/Threads_CPP_API_test.hpp ****                 for (uint64 k = 0; k < 30000; k++) { /* busy wait */ }
 2716              		.loc 2 76 13 is_stmt 1 discriminator 2
 2717 0a80 93841400 		addi	s1,s1,1
 2718              	.LVL293:
 2719              	.L149:
  76:test/../test/Threads_CPP_API_test.hpp ****                 for (uint64 k = 0; k < 30000; k++) { /* busy wait */ }
 2720              		.loc 2 76 34 discriminator 1
 2721 0a84 B7270000 		li	a5,8192
 2722 0a88 9387F770 		addi	a5,a5,1807
 2723 0a8c 63EE9700 		bgtu	s1,a5,.L146
 2724              	.LBB139:
 2725              	.LBB138:
  77:test/../test/Threads_CPP_API_test.hpp ****                 thread_dispatch();
 2726              		.loc 2 77 29 is_stmt 0
 2727 0a90 13070000 		li	a4,0
 2728              	.L148:
 2729              	.LVL294:
  77:test/../test/Threads_CPP_API_test.hpp ****                 thread_dispatch();
 2730              		.loc 2 77 38 is_stmt 1 discriminator 3
 2731 0a94 B7770000 		li	a5,28672
 2732 0a98 9387F752 		addi	a5,a5,1327
 2733 0a9c E3EEE7FC 		bgtu	a4,a5,.L147
  77:test/../test/Threads_CPP_API_test.hpp ****                 thread_dispatch();
 2734              		.loc 2 77 17 discriminator 2
 2735 0aa0 13071700 		addi	a4,a4,1
 2736              	.LVL295:
 2737 0aa4 6FF01FFF 		j	.L148
 2738              	.LVL296:
 2739              	.L146:
 2740              	.LBE138:
 2741              	.LBE139:
 2742              	.LBE136:
 2743              	.LBE135:
  74:test/../test/Threads_CPP_API_test.hpp ****             printString("B: i="); printInt(i); printString("\n");
 2744              		.loc 2 74 9 discriminator 2
 2745 0aa8 13091900 		addi	s2,s2,1
 2746              	.LVL297:
 2747              	.L150:
  74:test/../test/Threads_CPP_API_test.hpp ****             printString("B: i="); printInt(i); printString("\n");
 2748              		.loc 2 74 30 discriminator 1
 2749 0aac 9307F000 		li	a5,15
 2750 0ab0 63E02705 		bgtu	s2,a5,.L145
 2751              	.LBB141:
  75:test/../test/Threads_CPP_API_test.hpp ****             for (uint64 j = 0; j < 10000; j++) {
 2752              		.loc 2 75 13
  75:test/../test/Threads_CPP_API_test.hpp ****             for (uint64 j = 0; j < 10000; j++) {
 2753              		.loc 2 75 24 is_stmt 0
 2754 0ab4 17050000 		lla	a0,.LC4
GAS LISTING /tmp/cc5eykcM.s 			page 67


 2754      13050500 
 2755 0abc 97000000 		call	_Z11printStringPKc@plt
 2755      E7800000 
 2756              	.LVL298:
  75:test/../test/Threads_CPP_API_test.hpp ****             for (uint64 j = 0; j < 10000; j++) {
 2757              		.loc 2 75 35 is_stmt 1
  75:test/../test/Threads_CPP_API_test.hpp ****             for (uint64 j = 0; j < 10000; j++) {
 2758              		.loc 2 75 43 is_stmt 0
 2759 0ac4 13060000 		li	a2,0
 2760 0ac8 9305A000 		li	a1,10
 2761 0acc 1B050900 		sext.w	a0,s2
 2762 0ad0 97000000 		call	_Z8printIntiii@plt
 2762      E7800000 
 2763              	.LVL299:
  75:test/../test/Threads_CPP_API_test.hpp ****             for (uint64 j = 0; j < 10000; j++) {
 2764              		.loc 2 75 48 is_stmt 1
  75:test/../test/Threads_CPP_API_test.hpp ****             for (uint64 j = 0; j < 10000; j++) {
 2765              		.loc 2 75 59 is_stmt 0
 2766 0ad8 17050000 		lla	a0,.LC2
 2766      13050500 
 2767 0ae0 97000000 		call	_Z11printStringPKc@plt
 2767      E7800000 
 2768              	.LVL300:
  76:test/../test/Threads_CPP_API_test.hpp ****                 for (uint64 k = 0; k < 30000; k++) { /* busy wait */ }
 2769              		.loc 2 76 13 is_stmt 1
 2770              	.LBB140:
  76:test/../test/Threads_CPP_API_test.hpp ****                 for (uint64 k = 0; k < 30000; k++) { /* busy wait */ }
 2771              		.loc 2 76 25 is_stmt 0
 2772 0ae8 93040000 		li	s1,0
 2773 0aec 6FF09FF9 		j	.L149
 2774              	.LVL301:
 2775              	.L145:
 2776              	.LBE140:
 2777              	.LBE141:
 2778              	.LBE134:
  79:test/../test/Threads_CPP_API_test.hpp ****             }
  80:test/../test/Threads_CPP_API_test.hpp ****         }
  81:test/../test/Threads_CPP_API_test.hpp ****         printString("B finished!\n");
 2779              		.loc 2 81 9 is_stmt 1
 2780              		.loc 2 81 20 is_stmt 0
 2781 0af0 17050000 		lla	a0,.LC5
 2781      13050500 
 2782 0af8 97000000 		call	_Z11printStringPKc@plt
 2782      E7800000 
 2783              	.LVL302:
  82:test/../test/Threads_CPP_API_test.hpp ****         finishedB = true;
 2784              		.loc 2 82 9 is_stmt 1
 2785              		.loc 2 82 19 is_stmt 0
 2786 0b00 93071000 		li	a5,1
 2787 0b04 17070000 		sb	a5,.LANCHOR0+21,a4
 2787      2300F700 
  83:test/../test/Threads_CPP_API_test.hpp ****         thread_dispatch();
 2788              		.loc 2 83 9 is_stmt 1
 2789              		.loc 2 83 24 is_stmt 0
 2790 0b0c 97000000 		call	thread_dispatch@plt
 2790      E7800000 
 2791              	.LVL303:
GAS LISTING /tmp/cc5eykcM.s 			page 68


  84:test/../test/Threads_CPP_API_test.hpp ****     }
 2792              		.loc 2 84 5
 2793 0b14 83308101 		ld	ra,24(sp)
 2794              		.cfi_restore 1
 2795 0b18 03340101 		ld	s0,16(sp)
 2796              		.cfi_restore 8
 2797              		.cfi_def_cfa 2, 32
 2798 0b1c 83348100 		ld	s1,8(sp)
 2799              		.cfi_restore 9
 2800 0b20 03390100 		ld	s2,0(sp)
 2801              		.cfi_restore 18
 2802              	.LVL304:
 2803 0b24 13010102 		addi	sp,sp,32
 2804              		.cfi_def_cfa_offset 0
 2805 0b28 67800000 		jr	ra
 2806              		.cfi_endproc
 2807              	.LFE68:
 2809              		.section	.text._ZN20Threads_CPP_API_test7WorkerB3runEv,"axG",@progbits,_ZN20Threads_CPP_API_test7W
 2810              		.align	2
 2811              		.weak	_ZN20Threads_CPP_API_test7WorkerB3runEv
 2813              	_ZN20Threads_CPP_API_test7WorkerB3runEv:
 2814              	.LFB58:
  36:test/../test/Threads_CPP_API_test.hpp ****             workerBodyB(nullptr);
 2815              		.loc 2 36 14 is_stmt 1
 2816              		.cfi_startproc
 2817              	.LVL305:
 2818 0000 130101FF 		addi	sp,sp,-16
 2819              		.cfi_def_cfa_offset 16
 2820 0004 23341100 		sd	ra,8(sp)
 2821 0008 23308100 		sd	s0,0(sp)
 2822              		.cfi_offset 1, -8
 2823              		.cfi_offset 8, -16
 2824 000c 13040101 		addi	s0,sp,16
 2825              		.cfi_def_cfa 8, 0
  37:test/../test/Threads_CPP_API_test.hpp ****         }
 2826              		.loc 2 37 13
  37:test/../test/Threads_CPP_API_test.hpp ****         }
 2827              		.loc 2 37 24 is_stmt 0
 2828 0010 93050000 		li	a1,0
 2829 0014 97000000 		call	_ZN20Threads_CPP_API_test7WorkerB11workerBodyBEPv
 2829      E7800000 
 2830              	.LVL306:
  38:test/../test/Threads_CPP_API_test.hpp ****     };
 2831              		.loc 2 38 9
 2832 001c 83308100 		ld	ra,8(sp)
 2833              		.cfi_restore 1
 2834 0020 03340100 		ld	s0,0(sp)
 2835              		.cfi_restore 8
 2836              		.cfi_def_cfa 2, 16
 2837 0024 13010101 		addi	sp,sp,16
 2838              		.cfi_def_cfa_offset 0
 2839 0028 67800000 		jr	ra
 2840              		.cfi_endproc
 2841              	.LFE58:
 2843              		.text
 2844              		.align	2
 2845              		.globl	_ZN20Threads_CPP_API_test7WorkerC11workerBodyCEPv
GAS LISTING /tmp/cc5eykcM.s 			page 69


 2847              	_ZN20Threads_CPP_API_test7WorkerC11workerBodyCEPv:
 2848              	.LFB69:
  85:test/../test/Threads_CPP_API_test.hpp **** 
  86:test/../test/Threads_CPP_API_test.hpp ****     void WorkerC::workerBodyC(void *arg) {
 2849              		.loc 2 86 42 is_stmt 1
 2850              		.cfi_startproc
 2851              	.LVL307:
 2852 0b2c 130101FE 		addi	sp,sp,-32
 2853              		.cfi_def_cfa_offset 32
 2854 0b30 233C1100 		sd	ra,24(sp)
 2855 0b34 23388100 		sd	s0,16(sp)
 2856 0b38 23349100 		sd	s1,8(sp)
 2857 0b3c 23302101 		sd	s2,0(sp)
 2858              		.cfi_offset 1, -8
 2859              		.cfi_offset 8, -16
 2860              		.cfi_offset 9, -24
 2861              		.cfi_offset 18, -32
 2862 0b40 13040102 		addi	s0,sp,32
 2863              		.cfi_def_cfa 8, 0
  87:test/../test/Threads_CPP_API_test.hpp ****         uint8 i = 0;
 2864              		.loc 2 87 9
 2865              	.LVL308:
 2866              		.loc 2 87 15 is_stmt 0
 2867 0b44 93040000 		li	s1,0
 2868 0b48 6F000004 		j	.L156
 2869              	.LVL309:
 2870              	.L160:
  88:test/../test/Threads_CPP_API_test.hpp ****         for (; i < 3; i++) {
  89:test/../test/Threads_CPP_API_test.hpp ****             printString("C: i="); printInt(i); printString("\n");
 2871              		.loc 2 89 13 is_stmt 1 discriminator 1
 2872              		.loc 2 89 24 is_stmt 0 discriminator 1
 2873 0b4c 17050000 		lla	a0,.LC8
 2873      13050500 
 2874 0b54 97000000 		call	_Z11printStringPKc@plt
 2874      E7800000 
 2875              	.LVL310:
 2876              		.loc 2 89 35 is_stmt 1 discriminator 1
 2877              		.loc 2 89 43 is_stmt 0 discriminator 1
 2878 0b5c 13060000 		li	a2,0
 2879 0b60 9305A000 		li	a1,10
 2880 0b64 13850400 		mv	a0,s1
 2881 0b68 97000000 		call	_Z8printIntiii@plt
 2881      E7800000 
 2882              	.LVL311:
 2883              		.loc 2 89 48 is_stmt 1 discriminator 1
 2884              		.loc 2 89 59 is_stmt 0 discriminator 1
 2885 0b70 17050000 		lla	a0,.LC2
 2885      13050500 
 2886 0b78 97000000 		call	_Z11printStringPKc@plt
 2886      E7800000 
 2887              	.LVL312:
  88:test/../test/Threads_CPP_API_test.hpp ****         for (; i < 3; i++) {
 2888              		.loc 2 88 9 is_stmt 1 discriminator 1
 2889 0b80 9B841400 		addiw	s1,s1,1
 2890              	.LVL313:
 2891 0b84 93F4F40F 		andi	s1,s1,0xff
 2892              	.LVL314:
GAS LISTING /tmp/cc5eykcM.s 			page 70


 2893              	.L156:
  88:test/../test/Threads_CPP_API_test.hpp ****         for (; i < 3; i++) {
 2894              		.loc 2 88 9 discriminator 2
  88:test/../test/Threads_CPP_API_test.hpp ****         for (; i < 3; i++) {
 2895              		.loc 2 88 18 discriminator 2
 2896 0b88 93072000 		li	a5,2
 2897 0b8c E3F097FC 		bleu	s1,a5,.L160
  90:test/../test/Threads_CPP_API_test.hpp ****         }
  91:test/../test/Threads_CPP_API_test.hpp **** 
  92:test/../test/Threads_CPP_API_test.hpp ****         printString("C: dispatch\n");
 2898              		.loc 2 92 9
 2899              		.loc 2 92 20 is_stmt 0
 2900 0b90 17050000 		lla	a0,.LC9
 2900      13050500 
 2901 0b98 97000000 		call	_Z11printStringPKc@plt
 2901      E7800000 
 2902              	.LVL315:
  93:test/../test/Threads_CPP_API_test.hpp ****         __asm__ ("li t1, 7");
 2903              		.loc 2 93 9 is_stmt 1
 2904              		.loc 2 93 29 is_stmt 0
 2905              	#APP
 2906              	# 93 "test/../test/Threads_CPP_API_test.hpp" 1
  94              	        thread_dispatch();
 2907              		li t1, 7
 2908              	# 0 "" 2
 2909              		.loc 2 94 9 is_stmt 1
 2910              		.loc 2 94 24 is_stmt 0
 2911              	#NO_APP
 2912 0ba4 97000000 		call	thread_dispatch@plt
 2912      E7800000 
 2913              	.LVL316:
  95:test/../test/Threads_CPP_API_test.hpp **** 
  96:test/../test/Threads_CPP_API_test.hpp ****         uint64 t1 = 0;
 2914              		.loc 2 96 9 is_stmt 1
  97:test/../test/Threads_CPP_API_test.hpp ****         __asm__ ("mv %[t1], t1" : [t1] "=r"(t1));
 2915              		.loc 2 97 9
 2916              		.loc 2 97 49 is_stmt 0
 2917              	#APP
 2918              	# 97 "test/../test/Threads_CPP_API_test.hpp" 1
  98              	
 2919              		mv s2, t1
 2920              	# 0 "" 2
 2921              	.LVL317:
  99:test/../test/Threads_CPP_API_test.hpp ****         printString("C: t1="); printInt(t1); printString("\n");
 2922              		.loc 2 99 9 is_stmt 1
 2923              		.loc 2 99 20 is_stmt 0
 2924              	#NO_APP
 2925 0bb0 17050000 		lla	a0,.LC10
 2925      13050500 
 2926 0bb8 97000000 		call	_Z11printStringPKc@plt
 2926      E7800000 
 2927              	.LVL318:
 2928              		.loc 2 99 32 is_stmt 1
 2929              		.loc 2 99 40 is_stmt 0
 2930 0bc0 13060000 		li	a2,0
 2931 0bc4 9305A000 		li	a1,10
 2932 0bc8 1B050900 		sext.w	a0,s2
GAS LISTING /tmp/cc5eykcM.s 			page 71


 2933 0bcc 97000000 		call	_Z8printIntiii@plt
 2933      E7800000 
 2934              	.LVL319:
 2935              		.loc 2 99 46 is_stmt 1
 2936              		.loc 2 99 57 is_stmt 0
 2937 0bd4 17050000 		lla	a0,.LC2
 2937      13050500 
 2938 0bdc 97000000 		call	_Z11printStringPKc@plt
 2938      E7800000 
 2939              	.LVL320:
 100:test/../test/Threads_CPP_API_test.hpp **** 
 101:test/../test/Threads_CPP_API_test.hpp ****         uint64 result = fibonacci(12);
 2940              		.loc 2 101 9 is_stmt 1
 2941              		.loc 2 101 34 is_stmt 0
 2942 0be4 1305C000 		li	a0,12
 2943 0be8 97000000 		call	_ZN20Threads_CPP_API_test9fibonacciEm
 2943      E7800000 
 2944              	.LVL321:
 2945 0bf0 13090500 		mv	s2,a0
 2946              	.LVL322:
 102:test/../test/Threads_CPP_API_test.hpp ****         printString("C: fibonaci="); printInt(result); printString("\n");
 2947              		.loc 2 102 9 is_stmt 1
 2948              		.loc 2 102 20 is_stmt 0
 2949 0bf4 17050000 		lla	a0,.LC11
 2949      13050500 
 2950              	.LVL323:
 2951 0bfc 97000000 		call	_Z11printStringPKc@plt
 2951      E7800000 
 2952              	.LVL324:
 2953              		.loc 2 102 38 is_stmt 1
 2954              		.loc 2 102 46 is_stmt 0
 2955 0c04 13060000 		li	a2,0
 2956 0c08 9305A000 		li	a1,10
 2957 0c0c 1B050900 		sext.w	a0,s2
 2958 0c10 97000000 		call	_Z8printIntiii@plt
 2958      E7800000 
 2959              	.LVL325:
 2960              		.loc 2 102 56 is_stmt 1
 2961              		.loc 2 102 67 is_stmt 0
 2962 0c18 17050000 		lla	a0,.LC2
 2962      13050500 
 2963 0c20 97000000 		call	_Z11printStringPKc@plt
 2963      E7800000 
 2964              	.LVL326:
 2965 0c28 6F000004 		j	.L158
 2966              	.L161:
 103:test/../test/Threads_CPP_API_test.hpp **** 
 104:test/../test/Threads_CPP_API_test.hpp ****         for (; i < 6; i++) {
 105:test/../test/Threads_CPP_API_test.hpp ****             printString("C: i="); printInt(i); printString("\n");
 2967              		.loc 2 105 13 is_stmt 1 discriminator 1
 2968              		.loc 2 105 24 is_stmt 0 discriminator 1
 2969 0c2c 17050000 		lla	a0,.LC8
 2969      13050500 
 2970 0c34 97000000 		call	_Z11printStringPKc@plt
 2970      E7800000 
 2971              	.LVL327:
 2972              		.loc 2 105 35 is_stmt 1 discriminator 1
GAS LISTING /tmp/cc5eykcM.s 			page 72


 2973              		.loc 2 105 43 is_stmt 0 discriminator 1
 2974 0c3c 13060000 		li	a2,0
 2975 0c40 9305A000 		li	a1,10
 2976 0c44 13850400 		mv	a0,s1
 2977 0c48 97000000 		call	_Z8printIntiii@plt
 2977      E7800000 
 2978              	.LVL328:
 2979              		.loc 2 105 48 is_stmt 1 discriminator 1
 2980              		.loc 2 105 59 is_stmt 0 discriminator 1
 2981 0c50 17050000 		lla	a0,.LC2
 2981      13050500 
 2982 0c58 97000000 		call	_Z11printStringPKc@plt
 2982      E7800000 
 2983              	.LVL329:
 104:test/../test/Threads_CPP_API_test.hpp ****             printString("C: i="); printInt(i); printString("\n");
 2984              		.loc 2 104 9 is_stmt 1 discriminator 1
 2985 0c60 9B841400 		addiw	s1,s1,1
 2986              	.LVL330:
 2987 0c64 93F4F40F 		andi	s1,s1,0xff
 2988              	.LVL331:
 2989              	.L158:
 104:test/../test/Threads_CPP_API_test.hpp ****             printString("C: i="); printInt(i); printString("\n");
 2990              		.loc 2 104 9 discriminator 2
 104:test/../test/Threads_CPP_API_test.hpp ****             printString("C: i="); printInt(i); printString("\n");
 2991              		.loc 2 104 18 discriminator 2
 2992 0c68 93075000 		li	a5,5
 2993 0c6c E3F097FC 		bleu	s1,a5,.L161
 106:test/../test/Threads_CPP_API_test.hpp ****         }
 107:test/../test/Threads_CPP_API_test.hpp **** 
 108:test/../test/Threads_CPP_API_test.hpp ****         printString("A finished!\n");
 2994              		.loc 2 108 9
 2995              		.loc 2 108 20 is_stmt 0
 2996 0c70 17050000 		lla	a0,.LC3
 2996      13050500 
 2997 0c78 97000000 		call	_Z11printStringPKc@plt
 2997      E7800000 
 2998              	.LVL332:
 109:test/../test/Threads_CPP_API_test.hpp ****         finishedC = true;
 2999              		.loc 2 109 9 is_stmt 1
 3000              		.loc 2 109 19 is_stmt 0
 3001 0c80 93071000 		li	a5,1
 3002 0c84 17070000 		sb	a5,.LANCHOR0+22,a4
 3002      2300F700 
 110:test/../test/Threads_CPP_API_test.hpp ****         thread_dispatch();
 3003              		.loc 2 110 9 is_stmt 1
 3004              		.loc 2 110 24 is_stmt 0
 3005 0c8c 97000000 		call	thread_dispatch@plt
 3005      E7800000 
 3006              	.LVL333:
 111:test/../test/Threads_CPP_API_test.hpp ****     }
 3007              		.loc 2 111 5
 3008 0c94 83308101 		ld	ra,24(sp)
 3009              		.cfi_restore 1
 3010 0c98 03340101 		ld	s0,16(sp)
 3011              		.cfi_restore 8
 3012              		.cfi_def_cfa 2, 32
 3013 0c9c 83348100 		ld	s1,8(sp)
GAS LISTING /tmp/cc5eykcM.s 			page 73


 3014              		.cfi_restore 9
 3015              	.LVL334:
 3016 0ca0 03390100 		ld	s2,0(sp)
 3017              		.cfi_restore 18
 3018              	.LVL335:
 3019 0ca4 13010102 		addi	sp,sp,32
 3020              		.cfi_def_cfa_offset 0
 3021 0ca8 67800000 		jr	ra
 3022              		.cfi_endproc
 3023              	.LFE69:
 3025              		.section	.text._ZN20Threads_CPP_API_test7WorkerC3runEv,"axG",@progbits,_ZN20Threads_CPP_API_test7W
 3026              		.align	2
 3027              		.weak	_ZN20Threads_CPP_API_test7WorkerC3runEv
 3029              	_ZN20Threads_CPP_API_test7WorkerC3runEv:
 3030              	.LFB62:
  46:test/../test/Threads_CPP_API_test.hpp ****             workerBodyC(nullptr);
 3031              		.loc 2 46 14 is_stmt 1
 3032              		.cfi_startproc
 3033              	.LVL336:
 3034 0000 130101FF 		addi	sp,sp,-16
 3035              		.cfi_def_cfa_offset 16
 3036 0004 23341100 		sd	ra,8(sp)
 3037 0008 23308100 		sd	s0,0(sp)
 3038              		.cfi_offset 1, -8
 3039              		.cfi_offset 8, -16
 3040 000c 13040101 		addi	s0,sp,16
 3041              		.cfi_def_cfa 8, 0
  47:test/../test/Threads_CPP_API_test.hpp ****         }
 3042              		.loc 2 47 13
  47:test/../test/Threads_CPP_API_test.hpp ****         }
 3043              		.loc 2 47 24 is_stmt 0
 3044 0010 93050000 		li	a1,0
 3045 0014 97000000 		call	_ZN20Threads_CPP_API_test7WorkerC11workerBodyCEPv
 3045      E7800000 
 3046              	.LVL337:
  48:test/../test/Threads_CPP_API_test.hpp ****     };
 3047              		.loc 2 48 9
 3048 001c 83308100 		ld	ra,8(sp)
 3049              		.cfi_restore 1
 3050 0020 03340100 		ld	s0,0(sp)
 3051              		.cfi_restore 8
 3052              		.cfi_def_cfa 2, 16
 3053 0024 13010101 		addi	sp,sp,16
 3054              		.cfi_def_cfa_offset 0
 3055 0028 67800000 		jr	ra
 3056              		.cfi_endproc
 3057              	.LFE62:
 3059              		.text
 3060              		.align	2
 3061              		.globl	_ZN20Threads_CPP_API_test7WorkerD11workerBodyDEPv
 3063              	_ZN20Threads_CPP_API_test7WorkerD11workerBodyDEPv:
 3064              	.LFB70:
 112:test/../test/Threads_CPP_API_test.hpp **** 
 113:test/../test/Threads_CPP_API_test.hpp ****     void WorkerD::workerBodyD(void* arg) {
 3065              		.loc 2 113 42 is_stmt 1
 3066              		.cfi_startproc
 3067              	.LVL338:
GAS LISTING /tmp/cc5eykcM.s 			page 74


 3068 0cac 130101FE 		addi	sp,sp,-32
 3069              		.cfi_def_cfa_offset 32
 3070 0cb0 233C1100 		sd	ra,24(sp)
 3071 0cb4 23388100 		sd	s0,16(sp)
 3072 0cb8 23349100 		sd	s1,8(sp)
 3073 0cbc 23302101 		sd	s2,0(sp)
 3074              		.cfi_offset 1, -8
 3075              		.cfi_offset 8, -16
 3076              		.cfi_offset 9, -24
 3077              		.cfi_offset 18, -32
 3078 0cc0 13040102 		addi	s0,sp,32
 3079              		.cfi_def_cfa 8, 0
 114:test/../test/Threads_CPP_API_test.hpp ****         uint8 i = 10;
 3080              		.loc 2 114 9
 3081              	.LVL339:
 3082              		.loc 2 114 15 is_stmt 0
 3083 0cc4 9304A000 		li	s1,10
 3084 0cc8 6F000004 		j	.L166
 3085              	.LVL340:
 3086              	.L170:
 115:test/../test/Threads_CPP_API_test.hpp ****         for (; i < 13; i++) {
 116:test/../test/Threads_CPP_API_test.hpp ****             printString("D: i="); printInt(i); printString("\n");
 3087              		.loc 2 116 13 is_stmt 1 discriminator 1
 3088              		.loc 2 116 24 is_stmt 0 discriminator 1
 3089 0ccc 17050000 		lla	a0,.LC12
 3089      13050500 
 3090 0cd4 97000000 		call	_Z11printStringPKc@plt
 3090      E7800000 
 3091              	.LVL341:
 3092              		.loc 2 116 35 is_stmt 1 discriminator 1
 3093              		.loc 2 116 43 is_stmt 0 discriminator 1
 3094 0cdc 13060000 		li	a2,0
 3095 0ce0 9305A000 		li	a1,10
 3096 0ce4 13850400 		mv	a0,s1
 3097 0ce8 97000000 		call	_Z8printIntiii@plt
 3097      E7800000 
 3098              	.LVL342:
 3099              		.loc 2 116 48 is_stmt 1 discriminator 1
 3100              		.loc 2 116 59 is_stmt 0 discriminator 1
 3101 0cf0 17050000 		lla	a0,.LC2
 3101      13050500 
 3102 0cf8 97000000 		call	_Z11printStringPKc@plt
 3102      E7800000 
 3103              	.LVL343:
 115:test/../test/Threads_CPP_API_test.hpp ****         for (; i < 13; i++) {
 3104              		.loc 2 115 9 is_stmt 1 discriminator 1
 3105 0d00 9B841400 		addiw	s1,s1,1
 3106              	.LVL344:
 3107 0d04 93F4F40F 		andi	s1,s1,0xff
 3108              	.LVL345:
 3109              	.L166:
 115:test/../test/Threads_CPP_API_test.hpp ****         for (; i < 13; i++) {
 3110              		.loc 2 115 9 discriminator 2
 115:test/../test/Threads_CPP_API_test.hpp ****         for (; i < 13; i++) {
 3111              		.loc 2 115 18 discriminator 2
 3112 0d08 9307C000 		li	a5,12
 3113 0d0c E3F097FC 		bleu	s1,a5,.L170
GAS LISTING /tmp/cc5eykcM.s 			page 75


 117:test/../test/Threads_CPP_API_test.hpp ****         }
 118:test/../test/Threads_CPP_API_test.hpp **** 
 119:test/../test/Threads_CPP_API_test.hpp ****         printString("D: dispatch\n");
 3114              		.loc 2 119 9
 3115              		.loc 2 119 20 is_stmt 0
 3116 0d10 17050000 		lla	a0,.LC13
 3116      13050500 
 3117 0d18 97000000 		call	_Z11printStringPKc@plt
 3117      E7800000 
 3118              	.LVL346:
 120:test/../test/Threads_CPP_API_test.hpp ****         __asm__ ("li t1, 5");
 3119              		.loc 2 120 9 is_stmt 1
 3120              		.loc 2 120 29 is_stmt 0
 3121              	#APP
 3122              	# 120 "test/../test/Threads_CPP_API_test.hpp" 1
 121              	        thread_dispatch();
 3123              		li t1, 5
 3124              	# 0 "" 2
 3125              		.loc 2 121 9 is_stmt 1
 3126              		.loc 2 121 24 is_stmt 0
 3127              	#NO_APP
 3128 0d24 97000000 		call	thread_dispatch@plt
 3128      E7800000 
 3129              	.LVL347:
 122:test/../test/Threads_CPP_API_test.hpp **** 
 123:test/../test/Threads_CPP_API_test.hpp ****         uint64 result = fibonacci(16);
 3130              		.loc 2 123 9 is_stmt 1
 3131              		.loc 2 123 34 is_stmt 0
 3132 0d2c 13050001 		li	a0,16
 3133 0d30 97000000 		call	_ZN20Threads_CPP_API_test9fibonacciEm
 3133      E7800000 
 3134              	.LVL348:
 3135 0d38 13090500 		mv	s2,a0
 3136              	.LVL349:
 124:test/../test/Threads_CPP_API_test.hpp ****         printString("D: fibonaci="); printInt(result); printString("\n");
 3137              		.loc 2 124 9 is_stmt 1
 3138              		.loc 2 124 20 is_stmt 0
 3139 0d3c 17050000 		lla	a0,.LC14
 3139      13050500 
 3140              	.LVL350:
 3141 0d44 97000000 		call	_Z11printStringPKc@plt
 3141      E7800000 
 3142              	.LVL351:
 3143              		.loc 2 124 38 is_stmt 1
 3144              		.loc 2 124 46 is_stmt 0
 3145 0d4c 13060000 		li	a2,0
 3146 0d50 9305A000 		li	a1,10
 3147 0d54 1B050900 		sext.w	a0,s2
 3148 0d58 97000000 		call	_Z8printIntiii@plt
 3148      E7800000 
 3149              	.LVL352:
 3150              		.loc 2 124 56 is_stmt 1
 3151              		.loc 2 124 67 is_stmt 0
 3152 0d60 17050000 		lla	a0,.LC2
 3152      13050500 
 3153 0d68 97000000 		call	_Z11printStringPKc@plt
 3153      E7800000 
GAS LISTING /tmp/cc5eykcM.s 			page 76


 3154              	.LVL353:
 3155 0d70 6F000004 		j	.L168
 3156              	.L171:
 125:test/../test/Threads_CPP_API_test.hpp **** 
 126:test/../test/Threads_CPP_API_test.hpp ****         for (; i < 16; i++) {
 127:test/../test/Threads_CPP_API_test.hpp ****             printString("D: i="); printInt(i); printString("\n");
 3157              		.loc 2 127 13 is_stmt 1 discriminator 1
 3158              		.loc 2 127 24 is_stmt 0 discriminator 1
 3159 0d74 17050000 		lla	a0,.LC12
 3159      13050500 
 3160 0d7c 97000000 		call	_Z11printStringPKc@plt
 3160      E7800000 
 3161              	.LVL354:
 3162              		.loc 2 127 35 is_stmt 1 discriminator 1
 3163              		.loc 2 127 43 is_stmt 0 discriminator 1
 3164 0d84 13060000 		li	a2,0
 3165 0d88 9305A000 		li	a1,10
 3166 0d8c 13850400 		mv	a0,s1
 3167 0d90 97000000 		call	_Z8printIntiii@plt
 3167      E7800000 
 3168              	.LVL355:
 3169              		.loc 2 127 48 is_stmt 1 discriminator 1
 3170              		.loc 2 127 59 is_stmt 0 discriminator 1
 3171 0d98 17050000 		lla	a0,.LC2
 3171      13050500 
 3172 0da0 97000000 		call	_Z11printStringPKc@plt
 3172      E7800000 
 3173              	.LVL356:
 126:test/../test/Threads_CPP_API_test.hpp ****             printString("D: i="); printInt(i); printString("\n");
 3174              		.loc 2 126 9 is_stmt 1 discriminator 1
 3175 0da8 9B841400 		addiw	s1,s1,1
 3176              	.LVL357:
 3177 0dac 93F4F40F 		andi	s1,s1,0xff
 3178              	.LVL358:
 3179              	.L168:
 126:test/../test/Threads_CPP_API_test.hpp ****             printString("D: i="); printInt(i); printString("\n");
 3180              		.loc 2 126 9 discriminator 2
 126:test/../test/Threads_CPP_API_test.hpp ****             printString("D: i="); printInt(i); printString("\n");
 3181              		.loc 2 126 18 discriminator 2
 3182 0db0 9307F000 		li	a5,15
 3183 0db4 E3F097FC 		bleu	s1,a5,.L171
 128:test/../test/Threads_CPP_API_test.hpp ****         }
 129:test/../test/Threads_CPP_API_test.hpp **** 
 130:test/../test/Threads_CPP_API_test.hpp ****         printString("D finished!\n");
 3184              		.loc 2 130 9
 3185              		.loc 2 130 20 is_stmt 0
 3186 0db8 17050000 		lla	a0,.LC15
 3186      13050500 
 3187 0dc0 97000000 		call	_Z11printStringPKc@plt
 3187      E7800000 
 3188              	.LVL359:
 131:test/../test/Threads_CPP_API_test.hpp ****         finishedD = true;
 3189              		.loc 2 131 9 is_stmt 1
 3190              		.loc 2 131 19 is_stmt 0
 3191 0dc8 93071000 		li	a5,1
 3192 0dcc 17070000 		sb	a5,.LANCHOR0+23,a4
 3192      2300F700 
GAS LISTING /tmp/cc5eykcM.s 			page 77


 132:test/../test/Threads_CPP_API_test.hpp ****         thread_dispatch();
 3193              		.loc 2 132 9 is_stmt 1
 3194              		.loc 2 132 24 is_stmt 0
 3195 0dd4 97000000 		call	thread_dispatch@plt
 3195      E7800000 
 3196              	.LVL360:
 133:test/../test/Threads_CPP_API_test.hpp ****     }
 3197              		.loc 2 133 5
 3198 0ddc 83308101 		ld	ra,24(sp)
 3199              		.cfi_restore 1
 3200 0de0 03340101 		ld	s0,16(sp)
 3201              		.cfi_restore 8
 3202              		.cfi_def_cfa 2, 32
 3203 0de4 83348100 		ld	s1,8(sp)
 3204              		.cfi_restore 9
 3205              	.LVL361:
 3206 0de8 03390100 		ld	s2,0(sp)
 3207              		.cfi_restore 18
 3208              	.LVL362:
 3209 0dec 13010102 		addi	sp,sp,32
 3210              		.cfi_def_cfa_offset 0
 3211 0df0 67800000 		jr	ra
 3212              		.cfi_endproc
 3213              	.LFE70:
 3215              		.section	.text._ZN20Threads_CPP_API_test7WorkerD3runEv,"axG",@progbits,_ZN20Threads_CPP_API_test7W
 3216              		.align	2
 3217              		.weak	_ZN20Threads_CPP_API_test7WorkerD3runEv
 3219              	_ZN20Threads_CPP_API_test7WorkerD3runEv:
 3220              	.LFB66:
  56:test/../test/Threads_CPP_API_test.hpp ****             workerBodyD(nullptr);
 3221              		.loc 2 56 14 is_stmt 1
 3222              		.cfi_startproc
 3223              	.LVL363:
 3224 0000 130101FF 		addi	sp,sp,-16
 3225              		.cfi_def_cfa_offset 16
 3226 0004 23341100 		sd	ra,8(sp)
 3227 0008 23308100 		sd	s0,0(sp)
 3228              		.cfi_offset 1, -8
 3229              		.cfi_offset 8, -16
 3230 000c 13040101 		addi	s0,sp,16
 3231              		.cfi_def_cfa 8, 0
  57:test/../test/Threads_CPP_API_test.hpp ****         }
 3232              		.loc 2 57 13
  57:test/../test/Threads_CPP_API_test.hpp ****         }
 3233              		.loc 2 57 24 is_stmt 0
 3234 0010 93050000 		li	a1,0
 3235 0014 97000000 		call	_ZN20Threads_CPP_API_test7WorkerD11workerBodyDEPv
 3235      E7800000 
 3236              	.LVL364:
  58:test/../test/Threads_CPP_API_test.hpp ****     };
 3237              		.loc 2 58 9
 3238 001c 83308100 		ld	ra,8(sp)
 3239              		.cfi_restore 1
 3240 0020 03340100 		ld	s0,0(sp)
 3241              		.cfi_restore 8
 3242              		.cfi_def_cfa 2, 16
 3243 0024 13010101 		addi	sp,sp,16
GAS LISTING /tmp/cc5eykcM.s 			page 78


 3244              		.cfi_def_cfa_offset 0
 3245 0028 67800000 		jr	ra
 3246              		.cfi_endproc
 3247              	.LFE66:
 3249              		.text
 3250              		.align	2
 3251              		.globl	_ZN20Threads_CPP_API_test20Threads_CPP_API_testEv
 3253              	_ZN20Threads_CPP_API_test20Threads_CPP_API_testEv:
 3254              	.LFB71:
 134:test/../test/Threads_CPP_API_test.hpp **** 
 135:test/../test/Threads_CPP_API_test.hpp **** 
 136:test/../test/Threads_CPP_API_test.hpp ****     void Threads_CPP_API_test() {
 3255              		.loc 2 136 33 is_stmt 1
 3256              		.cfi_startproc
 3257              		.cfi_personality 0x9b,DW.ref.__gxx_personality_v0
 3258              		.cfi_lsda 0x1b,.LLSDA71
 3259 0df4 130101FC 		addi	sp,sp,-64
 3260              		.cfi_def_cfa_offset 64
 3261 0df8 233C1102 		sd	ra,56(sp)
 3262 0dfc 23388102 		sd	s0,48(sp)
 3263 0e00 23349102 		sd	s1,40(sp)
 3264 0e04 23302103 		sd	s2,32(sp)
 3265              		.cfi_offset 1, -8
 3266              		.cfi_offset 8, -16
 3267              		.cfi_offset 9, -24
 3268              		.cfi_offset 18, -32
 3269 0e08 13040104 		addi	s0,sp,64
 3270              		.cfi_def_cfa 8, 0
 137:test/../test/Threads_CPP_API_test.hpp ****         Thread* threads[4];
 3271              		.loc 2 137 9
 138:test/../test/Threads_CPP_API_test.hpp **** 
 139:test/../test/Threads_CPP_API_test.hpp ****         threads[0] = new WorkerA();
 3272              		.loc 2 139 9
 3273              		.loc 2 139 34 is_stmt 0
 3274 0e0c 13050001 		li	a0,16
 3275              	.LEHB0:
 3276 0e10 97000000 		call	_Znwm@plt
 3276      E7800000 
 3277              	.LVL365:
 3278              	.LEHE0:
 3279 0e18 93040500 		mv	s1,a0
 3280              		.loc 2 139 22
 3281 0e1c 630C0500 		beqz	a0,.L175
 3282              	.LVL366:
 3283              	.LEHB1:
 3284              	.LBB142:
 3285              	.LBB143:
  24:test/../test/Threads_CPP_API_test.hpp **** 
 3286              		.loc 2 24 26
 3287 0e20 97000000 		call	_ZN6ThreadC2Ev@plt
 3287      E7800000 
 3288              	.LVL367:
 3289              	.LEHE1:
 3290 0e28 97070000 		lla	a5,_ZTVN20Threads_CPP_API_test7WorkerAE+16
 3290      93870700 
 3291 0e30 23B0F400 		sd	a5,0(s1)
 3292              	.LVL368:
GAS LISTING /tmp/cc5eykcM.s 			page 79


 3293              	.L175:
 3294              	.LBE143:
 3295              	.LBE142:
 3296              		.loc 2 139 20 discriminator 4
 3297 0e34 233094FC 		sd	s1,-64(s0)
 140:test/../test/Threads_CPP_API_test.hpp ****         printString("ThreadA created\n");
 3298              		.loc 2 140 9 is_stmt 1 discriminator 4
 3299              		.loc 2 140 20 is_stmt 0 discriminator 4
 3300 0e38 17050000 		lla	a0,.LC16
 3300      13050500 
 3301              	.LEHB2:
 3302 0e40 97000000 		call	_Z11printStringPKc@plt
 3302      E7800000 
 3303              	.LVL369:
 141:test/../test/Threads_CPP_API_test.hpp **** 
 142:test/../test/Threads_CPP_API_test.hpp ****         threads[1] = new WorkerB();
 3304              		.loc 2 142 9 is_stmt 1 discriminator 4
 3305              		.loc 2 142 34 is_stmt 0 discriminator 4
 3306 0e48 13050001 		li	a0,16
 3307 0e4c 97000000 		call	_Znwm@plt
 3307      E7800000 
 3308              	.LVL370:
 3309              	.LEHE2:
 3310 0e54 93040500 		mv	s1,a0
 3311              		.loc 2 142 22 discriminator 4
 3312 0e58 630C0500 		beqz	a0,.L176
 3313              	.LVL371:
 3314              	.LEHB3:
 3315              	.LBB144:
 3316              	.LBB145:
  34:test/../test/Threads_CPP_API_test.hpp **** 
 3317              		.loc 2 34 26
 3318 0e5c 97000000 		call	_ZN6ThreadC2Ev@plt
 3318      E7800000 
 3319              	.LVL372:
 3320              	.LEHE3:
 3321 0e64 97070000 		lla	a5,_ZTVN20Threads_CPP_API_test7WorkerBE+16
 3321      93870700 
 3322 0e6c 23B0F400 		sd	a5,0(s1)
 3323              	.LVL373:
 3324              	.L176:
 3325              	.LBE145:
 3326              	.LBE144:
 3327              		.loc 2 142 20 discriminator 4
 3328 0e70 233494FC 		sd	s1,-56(s0)
 143:test/../test/Threads_CPP_API_test.hpp ****         printString("ThreadB created\n");
 3329              		.loc 2 143 9 is_stmt 1 discriminator 4
 3330              		.loc 2 143 20 is_stmt 0 discriminator 4
 3331 0e74 17050000 		lla	a0,.LC17
 3331      13050500 
 3332              	.LEHB4:
 3333 0e7c 97000000 		call	_Z11printStringPKc@plt
 3333      E7800000 
 3334              	.LVL374:
 144:test/../test/Threads_CPP_API_test.hpp **** 
 145:test/../test/Threads_CPP_API_test.hpp ****         threads[2] = new WorkerC();
 3335              		.loc 2 145 9 is_stmt 1 discriminator 4
GAS LISTING /tmp/cc5eykcM.s 			page 80


 3336              		.loc 2 145 34 is_stmt 0 discriminator 4
 3337 0e84 13050001 		li	a0,16
 3338 0e88 97000000 		call	_Znwm@plt
 3338      E7800000 
 3339              	.LVL375:
 3340              	.LEHE4:
 3341 0e90 93040500 		mv	s1,a0
 3342              		.loc 2 145 22 discriminator 4
 3343 0e94 630C0500 		beqz	a0,.L177
 3344              	.LVL376:
 3345              	.LEHB5:
 3346              	.LBB146:
 3347              	.LBB147:
  44:test/../test/Threads_CPP_API_test.hpp **** 
 3348              		.loc 2 44 26
 3349 0e98 97000000 		call	_ZN6ThreadC2Ev@plt
 3349      E7800000 
 3350              	.LVL377:
 3351              	.LEHE5:
 3352 0ea0 97070000 		lla	a5,_ZTVN20Threads_CPP_API_test7WorkerCE+16
 3352      93870700 
 3353 0ea8 23B0F400 		sd	a5,0(s1)
 3354              	.LVL378:
 3355              	.L177:
 3356              	.LBE147:
 3357              	.LBE146:
 3358              		.loc 2 145 20 discriminator 4
 3359 0eac 233894FC 		sd	s1,-48(s0)
 146:test/../test/Threads_CPP_API_test.hpp ****         printString("ThreadC created\n");
 3360              		.loc 2 146 9 is_stmt 1 discriminator 4
 3361              		.loc 2 146 20 is_stmt 0 discriminator 4
 3362 0eb0 17050000 		lla	a0,.LC18
 3362      13050500 
 3363              	.LEHB6:
 3364 0eb8 97000000 		call	_Z11printStringPKc@plt
 3364      E7800000 
 3365              	.LVL379:
 147:test/../test/Threads_CPP_API_test.hpp **** 
 148:test/../test/Threads_CPP_API_test.hpp ****         threads[3] = new WorkerD();
 3366              		.loc 2 148 9 is_stmt 1 discriminator 4
 3367              		.loc 2 148 34 is_stmt 0 discriminator 4
 3368 0ec0 13050001 		li	a0,16
 3369 0ec4 97000000 		call	_Znwm@plt
 3369      E7800000 
 3370              	.LVL380:
 3371              	.LEHE6:
 3372 0ecc 93040500 		mv	s1,a0
 3373              		.loc 2 148 22 discriminator 4
 3374 0ed0 630C0500 		beqz	a0,.L178
 3375              	.LVL381:
 3376              	.LEHB7:
 3377              	.LBB148:
 3378              	.LBB149:
  54:test/../test/Threads_CPP_API_test.hpp **** 
 3379              		.loc 2 54 26
 3380 0ed4 97000000 		call	_ZN6ThreadC2Ev@plt
 3380      E7800000 
GAS LISTING /tmp/cc5eykcM.s 			page 81


 3381              	.LVL382:
 3382              	.LEHE7:
 3383 0edc 97070000 		lla	a5,_ZTVN20Threads_CPP_API_test7WorkerDE+16
 3383      93870700 
 3384 0ee4 23B0F400 		sd	a5,0(s1)
 3385              	.LVL383:
 3386              	.L178:
 3387              	.LBE149:
 3388              	.LBE148:
 3389              		.loc 2 148 20 discriminator 4
 3390 0ee8 233C94FC 		sd	s1,-40(s0)
 149:test/../test/Threads_CPP_API_test.hpp ****         printString("ThreadD created\n");
 3391              		.loc 2 149 9 is_stmt 1 discriminator 4
 3392              		.loc 2 149 20 is_stmt 0 discriminator 4
 3393 0eec 17050000 		lla	a0,.LC19
 3393      13050500 
 3394              	.LEHB8:
 3395 0ef4 97000000 		call	_Z11printStringPKc@plt
 3395      E7800000 
 3396              	.LVL384:
 3397              	.LBB150:
 150:test/../test/Threads_CPP_API_test.hpp **** 
 151:test/../test/Threads_CPP_API_test.hpp ****         for(int i=0; i<4; i++) {
 3398              		.loc 2 151 17 discriminator 4
 3399 0efc 93040000 		li	s1,0
 3400              	.L180:
 3401              	.LVL385:
 3402              		.loc 2 151 23 is_stmt 1 discriminator 1
 3403 0f00 93073000 		li	a5,3
 3404 0f04 63C69702 		bgt	s1,a5,.L179
 152:test/../test/Threads_CPP_API_test.hpp ****             threads[i]->start();
 3405              		.loc 2 152 13
 3406              		.loc 2 152 22 is_stmt 0
 3407 0f08 93973400 		slli	a5,s1,3
 3408 0f0c 130704FE 		addi	a4,s0,-32
 3409 0f10 B307F700 		add	a5,a4,a5
 3410              		.loc 2 152 30
 3411 0f14 03B507FE 		ld	a0,-32(a5)
 3412 0f18 97000000 		call	_ZN6Thread5startEv@plt
 3412      E7800000 
 3413              	.LVL386:
 151:test/../test/Threads_CPP_API_test.hpp ****             threads[i]->start();
 3414              		.loc 2 151 9 is_stmt 1
 3415 0f20 9B841400 		addiw	s1,s1,1
 3416              	.LVL387:
 3417 0f24 6FF0DFFD 		j	.L180
 3418              	.LVL388:
 3419              	.L181:
 3420              	.LBE150:
 153:test/../test/Threads_CPP_API_test.hpp ****         }
 154:test/../test/Threads_CPP_API_test.hpp **** 
 155:test/../test/Threads_CPP_API_test.hpp ****         while (!(finishedA && finishedB && finishedC && finishedD)) {
 156:test/../test/Threads_CPP_API_test.hpp ****             Thread::dispatch();
 3421              		.loc 2 156 13
 3422              		.loc 2 156 29 is_stmt 0
 3423 0f28 97000000 		call	_ZN6Thread8dispatchEv@plt
 3423      E7800000 
GAS LISTING /tmp/cc5eykcM.s 			page 82


 3424              	.LVL389:
 3425              	.LEHE8:
 3426              	.L179:
 155:test/../test/Threads_CPP_API_test.hpp ****             Thread::dispatch();
 3427              		.loc 2 155 9 is_stmt 1
 155:test/../test/Threads_CPP_API_test.hpp ****             Thread::dispatch();
 3428              		.loc 2 155 16
 3429 0f30 97070000 		lbu	a5,.LANCHOR0+20
 3429      83C70700 
 3430 0f38 E38807FE 		beqz	a5,.L181
 155:test/../test/Threads_CPP_API_test.hpp ****             Thread::dispatch();
 3431              		.loc 2 155 28 is_stmt 0 discriminator 1
 3432 0f3c 97070000 		lbu	a5,.LANCHOR0+21
 3432      83C70700 
 3433 0f44 E38207FE 		beqz	a5,.L181
 155:test/../test/Threads_CPP_API_test.hpp ****             Thread::dispatch();
 3434              		.loc 2 155 41 discriminator 2
 3435 0f48 97070000 		lbu	a5,.LANCHOR0+22
 3435      83C70700 
 3436 0f50 E38C07FC 		beqz	a5,.L181
 155:test/../test/Threads_CPP_API_test.hpp ****             Thread::dispatch();
 3437              		.loc 2 155 16 discriminator 3
 3438 0f54 97070000 		lbu	a5,.LANCHOR0+23
 3438      83C70700 
 3439 0f5c E38607FC 		beqz	a5,.L181
 3440              	.LBB151:
 157:test/../test/Threads_CPP_API_test.hpp ****         }
 158:test/../test/Threads_CPP_API_test.hpp **** 
 159:test/../test/Threads_CPP_API_test.hpp ****         for (auto thread: threads) { delete thread; }
 3441              		.loc 2 159 27
 3442 0f60 930404FC 		addi	s1,s0,-64
 3443              	.LVL390:
 3444 0f64 6F008000 		j	.L182
 3445              	.LVL391:
 3446              	.L184:
 3447              		.loc 2 159 9 is_stmt 1 discriminator 5
 3448 0f68 93848400 		addi	s1,s1,8
 3449              	.LVL392:
 3450              	.L182:
 3451              		.loc 2 159 27 discriminator 6
 3452 0f6c 930704FE 		addi	a5,s0,-32
 3453 0f70 6386F408 		beq	s1,a5,.L174
 3454              		.loc 2 159 19 is_stmt 0 discriminator 2
 3455 0f74 03B50400 		ld	a0,0(s1)
 3456              	.LVL393:
 3457              		.loc 2 159 38 is_stmt 1 discriminator 2
 3458              		.loc 2 159 51 is_stmt 0 discriminator 2
 3459 0f78 E30805FE 		beqz	a0,.L184
 3460              		.loc 2 159 45 discriminator 3
 3461 0f7c 83370500 		ld	a5,0(a0)
 3462 0f80 83B78700 		ld	a5,8(a5)
 3463 0f84 E7800700 		jalr	a5
 3464              	.LVL394:
 3465 0f88 6FF01FFE 		j	.L184
 3466              	.LVL395:
 3467              	.L190:
 3468 0f8c 13090500 		mv	s2,a0
GAS LISTING /tmp/cc5eykcM.s 			page 83


 3469              	.LBE151:
 139:test/../test/Threads_CPP_API_test.hpp ****         printString("ThreadA created\n");
 3470              		.loc 2 139 34
 3471 0f90 13850400 		mv	a0,s1
 3472 0f94 97000000 		call	_ZdlPv@plt
 3472      E7800000 
 3473              	.LVL396:
 3474 0f9c 13050900 		mv	a0,s2
 3475              	.LEHB9:
 3476 0fa0 97000000 		call	_Unwind_Resume@plt
 3476      E7800000 
 3477              	.LVL397:
 3478              	.LEHE9:
 3479              	.L191:
 3480 0fa8 13090500 		mv	s2,a0
 142:test/../test/Threads_CPP_API_test.hpp ****         printString("ThreadB created\n");
 3481              		.loc 2 142 34
 3482 0fac 13850400 		mv	a0,s1
 3483 0fb0 97000000 		call	_ZdlPv@plt
 3483      E7800000 
 3484              	.LVL398:
 3485 0fb8 13050900 		mv	a0,s2
 3486              	.LEHB10:
 3487 0fbc 97000000 		call	_Unwind_Resume@plt
 3487      E7800000 
 3488              	.LVL399:
 3489              	.LEHE10:
 3490              	.L192:
 3491 0fc4 13090500 		mv	s2,a0
 145:test/../test/Threads_CPP_API_test.hpp ****         printString("ThreadC created\n");
 3492              		.loc 2 145 34
 3493 0fc8 13850400 		mv	a0,s1
 3494 0fcc 97000000 		call	_ZdlPv@plt
 3494      E7800000 
 3495              	.LVL400:
 3496 0fd4 13050900 		mv	a0,s2
 3497              	.LEHB11:
 3498 0fd8 97000000 		call	_Unwind_Resume@plt
 3498      E7800000 
 3499              	.LVL401:
 3500              	.LEHE11:
 3501              	.L193:
 3502 0fe0 13090500 		mv	s2,a0
 148:test/../test/Threads_CPP_API_test.hpp ****         printString("ThreadD created\n");
 3503              		.loc 2 148 34
 3504 0fe4 13850400 		mv	a0,s1
 3505 0fe8 97000000 		call	_ZdlPv@plt
 3505      E7800000 
 3506              	.LVL402:
 3507 0ff0 13050900 		mv	a0,s2
 3508              	.LEHB12:
 3509 0ff4 97000000 		call	_Unwind_Resume@plt
 3509      E7800000 
 3510              	.LVL403:
 3511              	.LEHE12:
 3512              	.L174:
 160:test/../test/Threads_CPP_API_test.hpp ****     }
GAS LISTING /tmp/cc5eykcM.s 			page 84


 3513              		.loc 2 160 5
 3514 0ffc 83308103 		ld	ra,56(sp)
 3515              		.cfi_restore 1
 3516 1000 03340103 		ld	s0,48(sp)
 3517              		.cfi_restore 8
 3518              		.cfi_def_cfa 2, 64
 3519 1004 83348102 		ld	s1,40(sp)
 3520              		.cfi_restore 9
 3521              	.LVL404:
 3522 1008 03390102 		ld	s2,32(sp)
 3523              		.cfi_restore 18
 3524 100c 13010104 		addi	sp,sp,64
 3525              		.cfi_def_cfa_offset 0
 3526 1010 67800000 		jr	ra
 3527              		.cfi_endproc
 3528              	.LFE71:
 3529              		.globl	__gxx_personality_v0
 3530              		.section	.gcc_except_table,"a",@progbits
 3531              	.LLSDA71:
 3532 0000 FF       		.byte	0xff
 3533 0001 FF       		.byte	0xff
 3534 0002 03       		.byte	0x3
 3535 0003 A901     		.byte	0xa9,0x1
 3536 0005 00000000 		.4byte	.LEHB0-.LFB71
 3537 0009 00000000 		.4byte	.LEHE0-.LEHB0
 3538 000d 00000000 		.4byte	0
 3539 0011 00       		.byte	0
 3540 0012 00000000 		.4byte	.LEHB1-.LFB71
 3541 0016 00000000 		.4byte	.LEHE1-.LEHB1
 3542 001a 00000000 		.4byte	.L190-.LFB71
 3543 001e 00       		.byte	0
 3544 001f 00000000 		.4byte	.LEHB2-.LFB71
 3545 0023 00000000 		.4byte	.LEHE2-.LEHB2
 3546 0027 00000000 		.4byte	0
 3547 002b 00       		.byte	0
 3548 002c 00000000 		.4byte	.LEHB3-.LFB71
 3549 0030 00000000 		.4byte	.LEHE3-.LEHB3
 3550 0034 00000000 		.4byte	.L191-.LFB71
 3551 0038 00       		.byte	0
 3552 0039 00000000 		.4byte	.LEHB4-.LFB71
 3553 003d 00000000 		.4byte	.LEHE4-.LEHB4
 3554 0041 00000000 		.4byte	0
 3555 0045 00       		.byte	0
 3556 0046 00000000 		.4byte	.LEHB5-.LFB71
 3557 004a 00000000 		.4byte	.LEHE5-.LEHB5
 3558 004e 00000000 		.4byte	.L192-.LFB71
 3559 0052 00       		.byte	0
 3560 0053 00000000 		.4byte	.LEHB6-.LFB71
 3561 0057 00000000 		.4byte	.LEHE6-.LEHB6
 3562 005b 00000000 		.4byte	0
 3563 005f 00       		.byte	0
 3564 0060 00000000 		.4byte	.LEHB7-.LFB71
 3565 0064 00000000 		.4byte	.LEHE7-.LEHB7
 3566 0068 00000000 		.4byte	.L193-.LFB71
 3567 006c 00       		.byte	0
 3568 006d 00000000 		.4byte	.LEHB8-.LFB71
 3569 0071 00000000 		.4byte	.LEHE8-.LEHB8
GAS LISTING /tmp/cc5eykcM.s 			page 85


 3570 0075 00000000 		.4byte	0
 3571 0079 00       		.byte	0
 3572 007a 00000000 		.4byte	.LEHB9-.LFB71
 3573 007e 00000000 		.4byte	.LEHE9-.LEHB9
 3574 0082 00000000 		.4byte	0
 3575 0086 00       		.byte	0
 3576 0087 00000000 		.4byte	.LEHB10-.LFB71
 3577 008b 00000000 		.4byte	.LEHE10-.LEHB10
 3578 008f 00000000 		.4byte	0
 3579 0093 00       		.byte	0
 3580 0094 00000000 		.4byte	.LEHB11-.LFB71
 3581 0098 00000000 		.4byte	.LEHE11-.LEHB11
 3582 009c 00000000 		.4byte	0
 3583 00a0 00       		.byte	0
 3584 00a1 00000000 		.4byte	.LEHB12-.LFB71
 3585 00a5 00000000 		.4byte	.LEHE12-.LEHB12
 3586 00a9 00000000 		.4byte	0
 3587 00ad 00       		.byte	0
 3588              		.text
 3590              		.section	.text._ZN6BufferdlEPv,"axG",@progbits,_ZN6BufferdlEPv,comdat
 3591              		.align	2
 3592              		.weak	_ZN6BufferdlEPv
 3594              	_ZN6BufferdlEPv:
 3595              	.LFB74:
 3596              		.file 7 "test/../test/buffer.hpp"
   1:test/../test/buffer.hpp **** #ifndef _buffer_hpp_
   2:test/../test/buffer.hpp **** #define _buffer_hpp_
   3:test/../test/buffer.hpp **** 
   4:test/../test/buffer.hpp **** #include "../h/syscall_c.h"
   5:test/../test/buffer.hpp **** #include "printing.hpp"
   6:test/../test/buffer.hpp **** #include "../h/MemoryAllocator.hpp"
   7:test/../test/buffer.hpp **** #include "../lib/hw.h"
   8:test/../test/buffer.hpp **** 
   9:test/../test/buffer.hpp **** class Buffer {
  10:test/../test/buffer.hpp **** private:
  11:test/../test/buffer.hpp ****     int cap;
  12:test/../test/buffer.hpp ****     int *buffer;
  13:test/../test/buffer.hpp ****     int head, tail;
  14:test/../test/buffer.hpp **** 
  15:test/../test/buffer.hpp ****     sem_t spaceAvailable;
  16:test/../test/buffer.hpp ****     sem_t itemAvailable;
  17:test/../test/buffer.hpp ****     sem_t mutexHead;
  18:test/../test/buffer.hpp ****     sem_t mutexTail;
  19:test/../test/buffer.hpp **** 
  20:test/../test/buffer.hpp **** 
  21:test/../test/buffer.hpp **** 
  22:test/../test/buffer.hpp **** public:
  23:test/../test/buffer.hpp ****     Buffer(int _cap);
  24:test/../test/buffer.hpp ****     ~Buffer();
  25:test/../test/buffer.hpp **** 
  26:test/../test/buffer.hpp ****     void put(int val);
  27:test/../test/buffer.hpp ****     int get();
  28:test/../test/buffer.hpp **** 
  29:test/../test/buffer.hpp ****     int getCnt();
  30:test/../test/buffer.hpp **** 
  31:test/../test/buffer.hpp ****     // operatori
  32:test/../test/buffer.hpp ****     void *operator new(uint64 n){
GAS LISTING /tmp/cc5eykcM.s 			page 86


  33:test/../test/buffer.hpp ****         uint64 ssize = (n + MEM_BLOCK_SIZE - 1) / MEM_BLOCK_SIZE;
  34:test/../test/buffer.hpp ****         return MemoryAllocator::getInstance().memory_alloc(ssize);
  35:test/../test/buffer.hpp ****     }
  36:test/../test/buffer.hpp **** 
  37:test/../test/buffer.hpp ****     void *operator new[](uint64 n){
  38:test/../test/buffer.hpp ****         uint64 ssize = (n + MEM_BLOCK_SIZE - 1) / MEM_BLOCK_SIZE;
  39:test/../test/buffer.hpp ****         return MemoryAllocator::getInstance().memory_alloc(ssize);
  40:test/../test/buffer.hpp ****     }
  41:test/../test/buffer.hpp **** 
  42:test/../test/buffer.hpp ****     void operator delete(void* p)noexcept{
 3597              		.loc 7 42 10 is_stmt 1
 3598              		.cfi_startproc
 3599              		.cfi_personality 0x9b,DW.ref.__gxx_personality_v0
 3600              		.cfi_lsda 0x1b,.LLSDA74
 3601              	.LVL405:
 3602 0000 130101FF 		addi	sp,sp,-16
 3603              		.cfi_def_cfa_offset 16
 3604 0004 23341100 		sd	ra,8(sp)
 3605 0008 23308100 		sd	s0,0(sp)
 3606              		.cfi_offset 1, -8
 3607              		.cfi_offset 8, -16
 3608 000c 13040101 		addi	s0,sp,16
 3609              		.cfi_def_cfa 8, 0
 3610 0010 93050500 		mv	a1,a0
  43:test/../test/buffer.hpp ****         MemoryAllocator::getInstance().memory_free(p);
 3611              		.loc 7 43 9
 3612              	.LBB160:
 3613              	.LBB161:
 3614              		.file 8 "test/../test/../h/../h/../h/MemoryAllocator.hpp"
   1:test/../test/../h/../h/../h/MemoryAllocator.hpp **** #ifndef _memory_allocator_hpp_
   2:test/../test/../h/../h/../h/MemoryAllocator.hpp **** #define _memory_allocator_hpp_
   3:test/../test/../h/../h/../h/MemoryAllocator.hpp **** 
   4:test/../test/../h/../h/../h/MemoryAllocator.hpp **** #include "../lib/hw.h"
   5:test/../test/../h/../h/../h/MemoryAllocator.hpp **** 
   6:test/../test/../h/../h/../h/MemoryAllocator.hpp **** class MemoryAllocator{
   7:test/../test/../h/../h/../h/MemoryAllocator.hpp **** public:
   8:test/../test/../h/../h/../h/MemoryAllocator.hpp **** 
   9:test/../test/../h/../h/../h/MemoryAllocator.hpp ****     // dodaj instancu
  10:test/../test/../h/../h/../h/MemoryAllocator.hpp ****     static MemoryAllocator& getInstance(){
  11:test/../test/../h/../h/../h/MemoryAllocator.hpp ****         static MemoryAllocator instance;
 3615              		.loc 8 11 9
 3616              		.loc 8 11 32 is_stmt 0
 3617 0014 97070000 		lbu	a5,_ZGVZN15MemoryAllocator11getInstanceEvE8instance
 3617      83C70700 
 3618 001c 63820702 		beqz	a5,.L199
 3619              	.L196:
  12:test/../test/../h/../h/../h/MemoryAllocator.hpp ****         return instance;
 3620              		.loc 8 12 9 is_stmt 1
 3621              	.LBE161:
 3622              	.LBE160:
 3623              		.loc 7 43 51 is_stmt 0
 3624 0020 17050000 		lla	a0,_ZZN15MemoryAllocator11getInstanceEvE8instance
 3624      13050500 
 3625              	.LVL406:
 3626 0028 97000000 		call	_ZN15MemoryAllocator11memory_freeEPv@plt
 3626      E7800000 
 3627              	.LVL407:
GAS LISTING /tmp/cc5eykcM.s 			page 87


  44:test/../test/buffer.hpp ****     }
 3628              		.loc 7 44 5
 3629 0030 83308100 		ld	ra,8(sp)
 3630              		.cfi_remember_state
 3631              		.cfi_restore 1
 3632 0034 03340100 		ld	s0,0(sp)
 3633              		.cfi_restore 8
 3634              		.cfi_def_cfa 2, 16
 3635 0038 13010101 		addi	sp,sp,16
 3636              		.cfi_def_cfa_offset 0
 3637 003c 67800000 		jr	ra
 3638              	.LVL408:
 3639              	.L199:
 3640              		.cfi_restore_state
 3641              	.LBB167:
 3642              	.LBB166:
 3643              	.LBB162:
 3644              	.LBB163:
 3645              	.LBB164:
  13:test/../test/../h/../h/../h/MemoryAllocator.hpp ****     }
  14:test/../test/../h/../h/../h/MemoryAllocator.hpp **** 
  15:test/../test/../h/../h/../h/MemoryAllocator.hpp ****     MemoryAllocator(const MemoryAllocator&) = delete;
  16:test/../test/../h/../h/../h/MemoryAllocator.hpp ****     void operator=(MemoryAllocator const&) = delete;
  17:test/../test/../h/../h/../h/MemoryAllocator.hpp **** 
  18:test/../test/../h/../h/../h/MemoryAllocator.hpp ****     void* memory_alloc (size_t);
  19:test/../test/../h/../h/../h/MemoryAllocator.hpp **** 
  20:test/../test/../h/../h/../h/MemoryAllocator.hpp ****     int memory_free (void*);
  21:test/../test/../h/../h/../h/MemoryAllocator.hpp ****     int get_mem_alloc_heap_start(){return this->heapStart;}
  22:test/../test/../h/../h/../h/MemoryAllocator.hpp ****     int get_mem_alloc_heap_end(){return this->heapEnd;}
  23:test/../test/../h/../h/../h/MemoryAllocator.hpp **** 
  24:test/../test/../h/../h/../h/MemoryAllocator.hpp **** private:
  25:test/../test/../h/../h/../h/MemoryAllocator.hpp **** 
  26:test/../test/../h/../h/../h/MemoryAllocator.hpp ****     struct FreeMem{
  27:test/../test/../h/../h/../h/MemoryAllocator.hpp ****         size_t size;
  28:test/../test/../h/../h/../h/MemoryAllocator.hpp ****         FreeMem* next;
  29:test/../test/../h/../h/../h/MemoryAllocator.hpp ****         FreeMem* prev;
  30:test/../test/../h/../h/../h/MemoryAllocator.hpp ****     };
  31:test/../test/../h/../h/../h/MemoryAllocator.hpp **** 
  32:test/../test/../h/../h/../h/MemoryAllocator.hpp ****     FreeMem* fmem_head = nullptr;
  33:test/../test/../h/../h/../h/MemoryAllocator.hpp ****     size_t heapStart;
  34:test/../test/../h/../h/../h/MemoryAllocator.hpp ****     size_t heapEnd;
  35:test/../test/../h/../h/../h/MemoryAllocator.hpp **** 
  36:test/../test/../h/../h/../h/MemoryAllocator.hpp ****     MemoryAllocator(){
 3646              		.loc 8 36 22
 3647 0040 17060000 		lla	a2,_ZZN15MemoryAllocator11getInstanceEvE8instance
 3647      13060600 
 3648              	.LBB165:
  37:test/../test/../h/../h/../h/MemoryAllocator.hpp **** 
  38:test/../test/../h/../h/../h/MemoryAllocator.hpp ****         heapStart = (size_t)HEAP_START_ADDR + ((size_t)HEAP_END_ADDR - (size_t)HEAP_START_ADDR) / 8
 3649              		.loc 8 38 9 is_stmt 1
 3650              		.loc 8 38 70 is_stmt 0
 3651 0048 97070000 		la	a5,HEAP_END_ADDR
 3651      83B70700 
 3652 0050 03B70700 		ld	a4,0(a5)
 3653 0054 97070000 		la	a5,HEAP_START_ADDR
 3653      83B70700 
 3654 005c 83B70700 		ld	a5,0(a5)
GAS LISTING /tmp/cc5eykcM.s 			page 88


 3655 0060 B306F740 		sub	a3,a4,a5
 3656              		.loc 8 38 97
 3657 0064 93D63600 		srli	a3,a3,3
 3658              		.loc 8 38 45
 3659 0068 B387D700 		add	a5,a5,a3
 3660              		.loc 8 38 101
 3661 006c 93871700 		addi	a5,a5,1
 3662              		.loc 8 38 19
 3663 0070 2334F600 		sd	a5,8(a2)
  39:test/../test/../h/../h/../h/MemoryAllocator.hpp ****         heapEnd = (size_t)HEAP_END_ADDR - 1;
 3664              		.loc 8 39 9 is_stmt 1
 3665              		.loc 8 39 41 is_stmt 0
 3666 0074 1307F7FF 		addi	a4,a4,-1
 3667              		.loc 8 39 17
 3668 0078 2338E600 		sd	a4,16(a2)
  40:test/../test/../h/../h/../h/MemoryAllocator.hpp **** 
  41:test/../test/../h/../h/../h/MemoryAllocator.hpp ****         // poravnaj na prvu krstenu adresu
  42:test/../test/../h/../h/../h/MemoryAllocator.hpp ****         fmem_head = (FreeMem*)(heapStart + ((heapStart % MEM_BLOCK_SIZE != 0)?(MEM_BLOCK_SIZE - hea
 3669              		.loc 8 42 9 is_stmt 1
 3670              		.loc 8 42 56 is_stmt 0
 3671 007c 93F6F703 		andi	a3,a5,63
 3672              		.loc 8 42 78
 3673 0080 63860600 		beqz	a3,.L197
 3674 0084 13060004 		li	a2,64
 3675 0088 B306D640 		sub	a3,a2,a3
 3676              	.L197:
 3677              		.loc 8 42 42
 3678 008c B387D700 		add	a5,a5,a3
 3679              		.loc 8 42 19
 3680 0090 97060000 		sd	a5,_ZZN15MemoryAllocator11getInstanceEvE8instance,a3
 3680      23B0F600 
  43:test/../test/../h/../h/../h/MemoryAllocator.hpp **** 
  44:test/../test/../h/../h/../h/MemoryAllocator.hpp ****         size_t sizeInBlocks = (heapEnd - (size_t)fmem_head) / MEM_BLOCK_SIZE;
 3681              		.loc 8 44 9 is_stmt 1
 3682              		.loc 8 44 40 is_stmt 0
 3683 0098 3307F740 		sub	a4,a4,a5
 3684              		.loc 8 44 16
 3685 009c 13576700 		srli	a4,a4,6
 3686              	.LVL409:
  45:test/../test/../h/../h/../h/MemoryAllocator.hpp **** 
  46:test/../test/../h/../h/../h/MemoryAllocator.hpp ****         // napravi node
  47:test/../test/../h/../h/../h/MemoryAllocator.hpp **** 
  48:test/../test/../h/../h/../h/MemoryAllocator.hpp ****         fmem_head->next = nullptr;
 3687              		.loc 8 48 9 is_stmt 1
 3688              		.loc 8 48 25 is_stmt 0
 3689 00a0 23B40700 		sd	zero,8(a5)
  49:test/../test/../h/../h/../h/MemoryAllocator.hpp ****         fmem_head->prev = nullptr;
 3690              		.loc 8 49 9 is_stmt 1
 3691              		.loc 8 49 25 is_stmt 0
 3692 00a4 23B80700 		sd	zero,16(a5)
  50:test/../test/../h/../h/../h/MemoryAllocator.hpp ****         fmem_head->size = sizeInBlocks;
 3693              		.loc 8 50 9 is_stmt 1
 3694              		.loc 8 50 25 is_stmt 0
 3695 00a8 23B0E700 		sd	a4,0(a5)
 3696              	.LVL410:
 3697              	.LBE165:
 3698              	.LBE164:
GAS LISTING /tmp/cc5eykcM.s 			page 89


 3699              	.LBE163:
 3700              	.LBE162:
  11:test/../test/../h/../h/../h/MemoryAllocator.hpp ****         return instance;
 3701              		.loc 8 11 32
 3702 00ac 93071000 		li	a5,1
 3703 00b0 17070000 		sb	a5,_ZGVZN15MemoryAllocator11getInstanceEvE8instance,a4
 3703      2300F700 
 3704 00b8 6FF09FF6 		j	.L196
 3705              	.LBE166:
 3706              	.LBE167:
 3707              		.cfi_endproc
 3708              	.LFE74:
 3709              		.section	.gcc_except_table
 3710              	.LLSDA74:
 3711 00ae FF       		.byte	0xff
 3712 00af FF       		.byte	0xff
 3713 00b0 03       		.byte	0x3
 3714 00b1 00       		.byte	0
 3715              		.section	.text._ZN6BufferdlEPv,"axG",@progbits,_ZN6BufferdlEPv,comdat
 3717              		.section	.rodata.str1.8
 3718 0131 00000000 		.align	3
 3718      000000
 3719              	.LC21:
 3720 0138 556E6573 		.string	"Unesite broj proizvodjaca?\n"
 3720      69746520 
 3720      62726F6A 
 3720      2070726F 
 3720      697A766F 
 3721 0154 00000000 		.align	3
 3722              	.LC22:
 3723 0158 556E6573 		.string	"Unesite velicinu bafera?\n"
 3723      69746520 
 3723      76656C69 
 3723      63696E75 
 3723      20626166 
 3724 0172 00000000 		.align	3
 3724      0000
 3725              	.LC23:
 3726 0178 42726F6A 		.string	"Broj proizvodjaca "
 3726      2070726F 
 3726      697A766F 
 3726      646A6163 
 3726      612000
 3727 018b 00000000 		.align	3
 3727      00
 3728              	.LC24:
 3729 0190 20692076 		.string	" i velicina bafera "
 3729      656C6963 
 3729      696E6120 
 3729      62616665 
 3729      72612000 
 3730 01a4 00000000 		.align	3
 3731              	.LC25:
 3732 01a8 2E0A00   		.string	".\n"
 3733 01ab 00000000 		.align	3
 3733      00
 3734              	.LC26:
GAS LISTING /tmp/cc5eykcM.s 			page 90


 3735 01b0 42726F6A 		.string	"Broj proizvodjaca ne sme biti manji od velicine bafera!\n"
 3735      2070726F 
 3735      697A766F 
 3735      646A6163 
 3735      61206E65 
 3736 01e9 00000000 		.align	3
 3736      000000
 3737              	.LC27:
 3738 01f0 42726F6A 		.string	"Broj proizvodjaca mora biti veci od nula!\n"
 3738      2070726F 
 3738      697A766F 
 3738      646A6163 
 3738      61206D6F 
 3739              		.text
 3740              		.align	2
 3741              		.globl	_ZN27ConsumerProducer_C_API_test22producerConsumer_C_APIEv
 3743              	_ZN27ConsumerProducer_C_API_test22producerConsumer_C_APIEv:
 3744              	.LFB79:
  85:test/../test/ConsumerProducer_C_API_test.h **** 
  86:test/../test/ConsumerProducer_C_API_test.h ****     void producerConsumer_C_API() {
 3745              		.loc 5 86 35 is_stmt 1
 3746              		.cfi_startproc
 3747              		.cfi_personality 0x9b,DW.ref.__gxx_personality_v0
 3748              		.cfi_lsda 0x1b,.LLSDA79
 3749 1014 130101F9 		addi	sp,sp,-112
 3750              		.cfi_def_cfa_offset 112
 3751 1018 23341106 		sd	ra,104(sp)
 3752 101c 23308106 		sd	s0,96(sp)
 3753 1020 233C9104 		sd	s1,88(sp)
 3754 1024 23382105 		sd	s2,80(sp)
 3755 1028 23343105 		sd	s3,72(sp)
 3756 102c 23304105 		sd	s4,64(sp)
 3757 1030 233C5103 		sd	s5,56(sp)
 3758 1034 23386103 		sd	s6,48(sp)
 3759              		.cfi_offset 1, -8
 3760              		.cfi_offset 8, -16
 3761              		.cfi_offset 9, -24
 3762              		.cfi_offset 18, -32
 3763              		.cfi_offset 19, -40
 3764              		.cfi_offset 20, -48
 3765              		.cfi_offset 21, -56
 3766              		.cfi_offset 22, -64
 3767 1038 13040107 		addi	s0,sp,112
 3768              		.cfi_def_cfa 8, 0
  87:test/../test/ConsumerProducer_C_API_test.h ****         char input[30];
  88:test/../test/ConsumerProducer_C_API_test.h ****         int n, threadNum;
  89:test/../test/ConsumerProducer_C_API_test.h **** 
  90:test/../test/ConsumerProducer_C_API_test.h ****         printString("Unesite broj proizvodjaca?\n");
  91:test/../test/ConsumerProducer_C_API_test.h ****         getString(input, 30);
  92:test/../test/ConsumerProducer_C_API_test.h ****         threadNum = stringToInt(input);
  93:test/../test/ConsumerProducer_C_API_test.h **** 
  94:test/../test/ConsumerProducer_C_API_test.h ****         printString("Unesite velicinu bafera?\n");
  95:test/../test/ConsumerProducer_C_API_test.h ****         getString(input, 30);
  96:test/../test/ConsumerProducer_C_API_test.h ****         n = stringToInt(input);
  97:test/../test/ConsumerProducer_C_API_test.h **** 
  98:test/../test/ConsumerProducer_C_API_test.h ****         printString("Broj proizvodjaca "); printInt(threadNum);
  99:test/../test/ConsumerProducer_C_API_test.h ****         printString(" i velicina bafera "); printInt(n);
GAS LISTING /tmp/cc5eykcM.s 			page 91


 100:test/../test/ConsumerProducer_C_API_test.h ****         printString(".\n");
 101:test/../test/ConsumerProducer_C_API_test.h **** 
 102:test/../test/ConsumerProducer_C_API_test.h ****         if(threadNum > n) {
 103:test/../test/ConsumerProducer_C_API_test.h ****             printString("Broj proizvodjaca ne sme biti manji od velicine bafera!\n");
 104:test/../test/ConsumerProducer_C_API_test.h ****             return;
 105:test/../test/ConsumerProducer_C_API_test.h ****         } else if (threadNum < 1) {
 106:test/../test/ConsumerProducer_C_API_test.h ****             printString("Broj proizvodjaca mora biti veci od nula!\n");
 107:test/../test/ConsumerProducer_C_API_test.h ****             return;
 108:test/../test/ConsumerProducer_C_API_test.h ****         }
 109:test/../test/ConsumerProducer_C_API_test.h **** 
 110:test/../test/ConsumerProducer_C_API_test.h ****         Buffer *buffer = new Buffer(n);
 111:test/../test/ConsumerProducer_C_API_test.h **** 
 112:test/../test/ConsumerProducer_C_API_test.h ****         sem_open(&waitForAll, 0);
 113:test/../test/ConsumerProducer_C_API_test.h **** 
 114:test/../test/ConsumerProducer_C_API_test.h ****         thread_t threads[threadNum];
 115:test/../test/ConsumerProducer_C_API_test.h ****         thread_t consumerThread;
 116:test/../test/ConsumerProducer_C_API_test.h **** 
 117:test/../test/ConsumerProducer_C_API_test.h ****         struct thread_data data[threadNum + 1];
 118:test/../test/ConsumerProducer_C_API_test.h **** 
 119:test/../test/ConsumerProducer_C_API_test.h ****         data[threadNum].id = threadNum;
 120:test/../test/ConsumerProducer_C_API_test.h ****         data[threadNum].buffer = buffer;
 121:test/../test/ConsumerProducer_C_API_test.h ****         data[threadNum].wait = waitForAll;
 122:test/../test/ConsumerProducer_C_API_test.h ****         thread_create(&consumerThread, consumer, data + threadNum);
 123:test/../test/ConsumerProducer_C_API_test.h **** 
 124:test/../test/ConsumerProducer_C_API_test.h ****         for (int i = 0; i < threadNum; i++) {
 125:test/../test/ConsumerProducer_C_API_test.h ****             data[i].id = i;
 126:test/../test/ConsumerProducer_C_API_test.h ****             data[i].buffer = buffer;
 127:test/../test/ConsumerProducer_C_API_test.h ****             data[i].wait = waitForAll;
 128:test/../test/ConsumerProducer_C_API_test.h **** 
 129:test/../test/ConsumerProducer_C_API_test.h ****             thread_create(threads + i,
 130:test/../test/ConsumerProducer_C_API_test.h ****                           i > 0 ? producer : producerKeyboard,
 131:test/../test/ConsumerProducer_C_API_test.h ****                           data + i);
 132:test/../test/ConsumerProducer_C_API_test.h ****         }
 133:test/../test/ConsumerProducer_C_API_test.h **** 
 134:test/../test/ConsumerProducer_C_API_test.h ****         thread_dispatch();
 135:test/../test/ConsumerProducer_C_API_test.h **** 
 136:test/../test/ConsumerProducer_C_API_test.h ****         for (int i = 0; i <= threadNum; i++) {
 137:test/../test/ConsumerProducer_C_API_test.h ****             sem_wait(waitForAll);
 138:test/../test/ConsumerProducer_C_API_test.h ****         }
 139:test/../test/ConsumerProducer_C_API_test.h **** 
 140:test/../test/ConsumerProducer_C_API_test.h ****         sem_close(waitForAll);
 141:test/../test/ConsumerProducer_C_API_test.h **** 
 142:test/../test/ConsumerProducer_C_API_test.h ****         delete buffer;
 3769              		.loc 5 142 22 is_stmt 0
 3770 103c 130B0100 		mv	s6,sp
  87:test/../test/ConsumerProducer_C_API_test.h ****         char input[30];
 3771              		.loc 5 87 9 is_stmt 1
  88:test/../test/ConsumerProducer_C_API_test.h **** 
 3772              		.loc 5 88 9
  90:test/../test/ConsumerProducer_C_API_test.h ****         getString(input, 30);
 3773              		.loc 5 90 9
  90:test/../test/ConsumerProducer_C_API_test.h ****         getString(input, 30);
 3774              		.loc 5 90 20 is_stmt 0
 3775 1040 17050000 		lla	a0,.LC21
 3775      13050500 
 3776              	.LEHB13:
 3777 1048 97000000 		call	_Z11printStringPKc@plt
GAS LISTING /tmp/cc5eykcM.s 			page 92


 3777      E7800000 
 3778              	.LVL411:
  91:test/../test/ConsumerProducer_C_API_test.h ****         threadNum = stringToInt(input);
 3779              		.loc 5 91 9 is_stmt 1
  91:test/../test/ConsumerProducer_C_API_test.h ****         threadNum = stringToInt(input);
 3780              		.loc 5 91 18 is_stmt 0
 3781 1050 9305E001 		li	a1,30
 3782 1054 930404FA 		addi	s1,s0,-96
 3783 1058 13850400 		mv	a0,s1
 3784 105c 97000000 		call	_Z9getStringPci@plt
 3784      E7800000 
 3785              	.LVL412:
  92:test/../test/ConsumerProducer_C_API_test.h **** 
 3786              		.loc 5 92 9 is_stmt 1
  92:test/../test/ConsumerProducer_C_API_test.h **** 
 3787              		.loc 5 92 32 is_stmt 0
 3788 1064 13850400 		mv	a0,s1
 3789 1068 97000000 		call	_Z11stringToIntPKc@plt
 3789      E7800000 
 3790              	.LVL413:
 3791 1070 13090500 		mv	s2,a0
 3792              	.LVL414:
  94:test/../test/ConsumerProducer_C_API_test.h ****         getString(input, 30);
 3793              		.loc 5 94 9 is_stmt 1
  94:test/../test/ConsumerProducer_C_API_test.h ****         getString(input, 30);
 3794              		.loc 5 94 20 is_stmt 0
 3795 1074 17050000 		lla	a0,.LC22
 3795      13050500 
 3796 107c 97000000 		call	_Z11printStringPKc@plt
 3796      E7800000 
 3797              	.LVL415:
  95:test/../test/ConsumerProducer_C_API_test.h ****         n = stringToInt(input);
 3798              		.loc 5 95 9 is_stmt 1
  95:test/../test/ConsumerProducer_C_API_test.h ****         n = stringToInt(input);
 3799              		.loc 5 95 18 is_stmt 0
 3800 1084 9305E001 		li	a1,30
 3801 1088 13850400 		mv	a0,s1
 3802 108c 97000000 		call	_Z9getStringPci@plt
 3802      E7800000 
 3803              	.LVL416:
  96:test/../test/ConsumerProducer_C_API_test.h **** 
 3804              		.loc 5 96 9 is_stmt 1
  96:test/../test/ConsumerProducer_C_API_test.h **** 
 3805              		.loc 5 96 24 is_stmt 0
 3806 1094 13850400 		mv	a0,s1
 3807 1098 97000000 		call	_Z11stringToIntPKc@plt
 3807      E7800000 
 3808              	.LVL417:
 3809 10a0 93040500 		mv	s1,a0
 3810              	.LVL418:
  98:test/../test/ConsumerProducer_C_API_test.h ****         printString(" i velicina bafera "); printInt(n);
 3811              		.loc 5 98 9 is_stmt 1
  98:test/../test/ConsumerProducer_C_API_test.h ****         printString(" i velicina bafera "); printInt(n);
 3812              		.loc 5 98 20 is_stmt 0
 3813 10a4 17050000 		lla	a0,.LC23
 3813      13050500 
 3814 10ac 97000000 		call	_Z11printStringPKc@plt
GAS LISTING /tmp/cc5eykcM.s 			page 93


 3814      E7800000 
 3815              	.LVL419:
  98:test/../test/ConsumerProducer_C_API_test.h ****         printString(" i velicina bafera "); printInt(n);
 3816              		.loc 5 98 44 is_stmt 1
  98:test/../test/ConsumerProducer_C_API_test.h ****         printString(" i velicina bafera "); printInt(n);
 3817              		.loc 5 98 52 is_stmt 0
 3818 10b4 13060000 		li	a2,0
 3819 10b8 9305A000 		li	a1,10
 3820 10bc 13050900 		mv	a0,s2
 3821 10c0 97000000 		call	_Z8printIntiii@plt
 3821      E7800000 
 3822              	.LVL420:
  99:test/../test/ConsumerProducer_C_API_test.h ****         printString(".\n");
 3823              		.loc 5 99 9 is_stmt 1
  99:test/../test/ConsumerProducer_C_API_test.h ****         printString(".\n");
 3824              		.loc 5 99 20 is_stmt 0
 3825 10c8 17050000 		lla	a0,.LC24
 3825      13050500 
 3826 10d0 97000000 		call	_Z11printStringPKc@plt
 3826      E7800000 
 3827              	.LVL421:
  99:test/../test/ConsumerProducer_C_API_test.h ****         printString(".\n");
 3828              		.loc 5 99 45 is_stmt 1
  99:test/../test/ConsumerProducer_C_API_test.h ****         printString(".\n");
 3829              		.loc 5 99 53 is_stmt 0
 3830 10d8 13060000 		li	a2,0
 3831 10dc 9305A000 		li	a1,10
 3832 10e0 13850400 		mv	a0,s1
 3833 10e4 97000000 		call	_Z8printIntiii@plt
 3833      E7800000 
 3834              	.LVL422:
 100:test/../test/ConsumerProducer_C_API_test.h **** 
 3835              		.loc 5 100 9 is_stmt 1
 100:test/../test/ConsumerProducer_C_API_test.h **** 
 3836              		.loc 5 100 20 is_stmt 0
 3837 10ec 17050000 		lla	a0,.LC25
 3837      13050500 
 3838 10f4 97000000 		call	_Z11printStringPKc@plt
 3838      E7800000 
 3839              	.LVL423:
 102:test/../test/ConsumerProducer_C_API_test.h ****             printString("Broj proizvodjaca ne sme biti manji od velicine bafera!\n");
 3840              		.loc 5 102 9 is_stmt 1
 3841 10fc 63C02405 		bgt	s2,s1,.L220
 105:test/../test/ConsumerProducer_C_API_test.h ****             printString("Broj proizvodjaca mora biti veci od nula!\n");
 3842              		.loc 5 105 16
 3843 1100 63582005 		blez	s2,.L221
 110:test/../test/ConsumerProducer_C_API_test.h **** 
 3844              		.loc 5 110 9
 3845              	.LVL424:
 3846              	.LBB186:
 3847              	.LBB187:
  33:test/../test/buffer.hpp ****         return MemoryAllocator::getInstance().memory_alloc(ssize);
 3848              		.loc 7 33 9
  34:test/../test/buffer.hpp ****     }
 3849              		.loc 7 34 9
 3850              	.LBB188:
 3851              	.LBB189:
GAS LISTING /tmp/cc5eykcM.s 			page 94


  11:test/../test/../h/../h/../h/MemoryAllocator.hpp ****         return instance;
 3852              		.loc 8 11 9
  11:test/../test/../h/../h/../h/MemoryAllocator.hpp ****         return instance;
 3853              		.loc 8 11 32 is_stmt 0
 3854 1104 97070000 		lbu	a5,_ZGVZN15MemoryAllocator11getInstanceEvE8instance
 3854      83C70700 
 3855 110c 638E0704 		beqz	a5,.L222
 3856              	.L204:
  12:test/../test/../h/../h/../h/MemoryAllocator.hpp ****     }
 3857              		.loc 8 12 9 is_stmt 1
 3858              	.LBE189:
 3859              	.LBE188:
  34:test/../test/buffer.hpp ****     }
 3860              		.loc 7 34 59 is_stmt 0
 3861 1110 93051000 		li	a1,1
 3862 1114 17050000 		lla	a0,_ZZN15MemoryAllocator11getInstanceEvE8instance
 3862      13050500 
 3863 111c 97000000 		call	_ZN15MemoryAllocator12memory_allocEm@plt
 3863      E7800000 
 3864              	.LVL425:
 3865              	.LEHE13:
 3866 1124 130A0500 		mv	s4,a0
 3867              	.LVL426:
 3868              	.LBE187:
 3869              	.LBE186:
 110:test/../test/ConsumerProducer_C_API_test.h **** 
 3870              		.loc 5 110 38
 3871 1128 630E050A 		beqz	a0,.L206
 110:test/../test/ConsumerProducer_C_API_test.h **** 
 3872              		.loc 5 110 38 discriminator 2
 3873 112c 93850400 		mv	a1,s1
 3874              	.LEHB14:
 3875 1130 97000000 		call	_ZN6BufferC1Ei@plt
 3875      E7800000 
 3876              	.LVL427:
 3877              	.LEHE14:
 3878 1138 6F00C00A 		j	.L206
 3879              	.L220:
 103:test/../test/ConsumerProducer_C_API_test.h ****             return;
 3880              		.loc 5 103 13 is_stmt 1
 103:test/../test/ConsumerProducer_C_API_test.h ****             return;
 3881              		.loc 5 103 24 is_stmt 0
 3882 113c 17050000 		lla	a0,.LC26
 3882      13050500 
 3883              	.LEHB15:
 3884 1144 97000000 		call	_Z11printStringPKc@plt
 3884      E7800000 
 3885              	.LVL428:
 104:test/../test/ConsumerProducer_C_API_test.h ****         } else if (threadNum < 1) {
 3886              		.loc 5 104 13 is_stmt 1
 3887 114c 6F004001 		j	.L202
 3888              	.L221:
 106:test/../test/ConsumerProducer_C_API_test.h ****             return;
 3889              		.loc 5 106 13
 106:test/../test/ConsumerProducer_C_API_test.h ****             return;
 3890              		.loc 5 106 24 is_stmt 0
 3891 1150 17050000 		lla	a0,.LC27
GAS LISTING /tmp/cc5eykcM.s 			page 95


 3891      13050500 
 3892 1158 97000000 		call	_Z11printStringPKc@plt
 3892      E7800000 
 3893              	.LVL429:
 107:test/../test/ConsumerProducer_C_API_test.h ****         }
 3894              		.loc 5 107 13 is_stmt 1
 3895              	.L202:
 3896 1160 13010B00 		mv	sp,s6
 3897 1164 6F00001E 		j	.L200
 3898              	.LVL430:
 3899              	.L222:
 3900              	.LBB197:
 3901              	.LBB196:
 3902              	.LBB195:
 3903              	.LBB194:
 3904              	.LBB190:
 3905              	.LBB191:
 3906              	.LBB192:
  36:test/../test/../h/../h/../h/MemoryAllocator.hpp **** 
 3907              		.loc 8 36 22 is_stmt 0
 3908 1168 17060000 		lla	a2,_ZZN15MemoryAllocator11getInstanceEvE8instance
 3908      13060600 
 3909              	.LBB193:
  38:test/../test/../h/../h/../h/MemoryAllocator.hpp ****         heapEnd = (size_t)HEAP_END_ADDR - 1;
 3910              		.loc 8 38 9 is_stmt 1
  38:test/../test/../h/../h/../h/MemoryAllocator.hpp ****         heapEnd = (size_t)HEAP_END_ADDR - 1;
 3911              		.loc 8 38 70 is_stmt 0
 3912 1170 97070000 		la	a5,HEAP_END_ADDR
 3912      83B70700 
 3913 1178 03B70700 		ld	a4,0(a5)
 3914 117c 97070000 		la	a5,HEAP_START_ADDR
 3914      83B70700 
 3915 1184 83B70700 		ld	a5,0(a5)
 3916 1188 B306F740 		sub	a3,a4,a5
  38:test/../test/../h/../h/../h/MemoryAllocator.hpp ****         heapEnd = (size_t)HEAP_END_ADDR - 1;
 3917              		.loc 8 38 97
 3918 118c 93D63600 		srli	a3,a3,3
  38:test/../test/../h/../h/../h/MemoryAllocator.hpp ****         heapEnd = (size_t)HEAP_END_ADDR - 1;
 3919              		.loc 8 38 45
 3920 1190 B387D700 		add	a5,a5,a3
  38:test/../test/../h/../h/../h/MemoryAllocator.hpp ****         heapEnd = (size_t)HEAP_END_ADDR - 1;
 3921              		.loc 8 38 101
 3922 1194 93871700 		addi	a5,a5,1
  38:test/../test/../h/../h/../h/MemoryAllocator.hpp ****         heapEnd = (size_t)HEAP_END_ADDR - 1;
 3923              		.loc 8 38 19
 3924 1198 2334F600 		sd	a5,8(a2)
  39:test/../test/../h/../h/../h/MemoryAllocator.hpp **** 
 3925              		.loc 8 39 9 is_stmt 1
  39:test/../test/../h/../h/../h/MemoryAllocator.hpp **** 
 3926              		.loc 8 39 41 is_stmt 0
 3927 119c 1307F7FF 		addi	a4,a4,-1
  39:test/../test/../h/../h/../h/MemoryAllocator.hpp **** 
 3928              		.loc 8 39 17
 3929 11a0 2338E600 		sd	a4,16(a2)
  42:test/../test/../h/../h/../h/MemoryAllocator.hpp **** 
 3930              		.loc 8 42 9 is_stmt 1
  42:test/../test/../h/../h/../h/MemoryAllocator.hpp **** 
GAS LISTING /tmp/cc5eykcM.s 			page 96


 3931              		.loc 8 42 56 is_stmt 0
 3932 11a4 93F6F703 		andi	a3,a5,63
  42:test/../test/../h/../h/../h/MemoryAllocator.hpp **** 
 3933              		.loc 8 42 78
 3934 11a8 63860600 		beqz	a3,.L205
 3935 11ac 13060004 		li	a2,64
 3936 11b0 B306D640 		sub	a3,a2,a3
 3937              	.L205:
  42:test/../test/../h/../h/../h/MemoryAllocator.hpp **** 
 3938              		.loc 8 42 42
 3939 11b4 B387D700 		add	a5,a5,a3
  42:test/../test/../h/../h/../h/MemoryAllocator.hpp **** 
 3940              		.loc 8 42 19
 3941 11b8 97060000 		sd	a5,_ZZN15MemoryAllocator11getInstanceEvE8instance,a3
 3941      23B0F600 
  44:test/../test/../h/../h/../h/MemoryAllocator.hpp **** 
 3942              		.loc 8 44 9 is_stmt 1
  44:test/../test/../h/../h/../h/MemoryAllocator.hpp **** 
 3943              		.loc 8 44 40 is_stmt 0
 3944 11c0 3307F740 		sub	a4,a4,a5
  44:test/../test/../h/../h/../h/MemoryAllocator.hpp **** 
 3945              		.loc 8 44 16
 3946 11c4 13576700 		srli	a4,a4,6
 3947              	.LVL431:
  48:test/../test/../h/../h/../h/MemoryAllocator.hpp ****         fmem_head->prev = nullptr;
 3948              		.loc 8 48 9 is_stmt 1
  48:test/../test/../h/../h/../h/MemoryAllocator.hpp ****         fmem_head->prev = nullptr;
 3949              		.loc 8 48 25 is_stmt 0
 3950 11c8 23B40700 		sd	zero,8(a5)
  49:test/../test/../h/../h/../h/MemoryAllocator.hpp ****         fmem_head->size = sizeInBlocks;
 3951              		.loc 8 49 9 is_stmt 1
  49:test/../test/../h/../h/../h/MemoryAllocator.hpp ****         fmem_head->size = sizeInBlocks;
 3952              		.loc 8 49 25 is_stmt 0
 3953 11cc 23B80700 		sd	zero,16(a5)
 3954              		.loc 8 50 9 is_stmt 1
 3955              		.loc 8 50 25 is_stmt 0
 3956 11d0 23B0E700 		sd	a4,0(a5)
 3957              	.LVL432:
 3958              	.LBE193:
 3959              	.LBE192:
 3960              	.LBE191:
 3961              	.LBE190:
  11:test/../test/../h/../h/../h/MemoryAllocator.hpp ****         return instance;
 3962              		.loc 8 11 32
 3963 11d4 93071000 		li	a5,1
 3964 11d8 17070000 		sb	a5,_ZGVZN15MemoryAllocator11getInstanceEvE8instance,a4
 3964      2300F700 
 3965 11e0 6FF01FF3 		j	.L204
 3966              	.LVL433:
 3967              	.L206:
 3968              	.LBE194:
 3969              	.LBE195:
 3970              	.LBE196:
 3971              	.LBE197:
 112:test/../test/ConsumerProducer_C_API_test.h **** 
 3972              		.loc 5 112 9 is_stmt 1 discriminator 7
 112:test/../test/ConsumerProducer_C_API_test.h **** 
GAS LISTING /tmp/cc5eykcM.s 			page 97


 3973              		.loc 5 112 17 is_stmt 0 discriminator 7
 3974 11e4 93050000 		li	a1,0
 3975 11e8 17050000 		lla	a0,.LANCHOR0+24
 3975      13050500 
 3976 11f0 97000000 		call	sem_open@plt
 3976      E7800000 
 3977              	.LVL434:
 114:test/../test/ConsumerProducer_C_API_test.h ****         thread_t consumerThread;
 3978              		.loc 5 114 9 is_stmt 1 discriminator 7
 114:test/../test/ConsumerProducer_C_API_test.h ****         thread_t consumerThread;
 3979              		.loc 5 114 18 is_stmt 0 discriminator 7
 3980 11f8 93173900 		slli	a5,s2,3
 3981 11fc 9387F700 		addi	a5,a5,15
 3982 1200 93F707FF 		andi	a5,a5,-16
 3983 1204 3301F140 		sub	sp,sp,a5
 3984 1208 930A0100 		mv	s5,sp
 3985              	.LVL435:
 115:test/../test/ConsumerProducer_C_API_test.h **** 
 3986              		.loc 5 115 9 is_stmt 1 discriminator 7
 117:test/../test/ConsumerProducer_C_API_test.h **** 
 3987              		.loc 5 117 9 discriminator 7
 117:test/../test/ConsumerProducer_C_API_test.h **** 
 3988              		.loc 5 117 43 is_stmt 0 discriminator 7
 3989 120c 1B071900 		addiw	a4,s2,1
 3990              	.LVL436:
 117:test/../test/ConsumerProducer_C_API_test.h **** 
 3991              		.loc 5 117 28 discriminator 7
 3992 1210 93171700 		slli	a5,a4,1
 3993 1214 B387E700 		add	a5,a5,a4
 3994 1218 93973700 		slli	a5,a5,3
 3995 121c 9387F700 		addi	a5,a5,15
 3996 1220 93F707FF 		andi	a5,a5,-16
 3997 1224 3301F140 		sub	sp,sp,a5
 3998              	.LVL437:
 3999 1228 93090100 		mv	s3,sp
 4000              	.LVL438:
 119:test/../test/ConsumerProducer_C_API_test.h ****         data[threadNum].buffer = buffer;
 4001              		.loc 5 119 9 is_stmt 1 discriminator 7
 119:test/../test/ConsumerProducer_C_API_test.h ****         data[threadNum].buffer = buffer;
 4002              		.loc 5 119 28 is_stmt 0 discriminator 7
 4003 122c 13161900 		slli	a2,s2,1
 4004 1230 B3072601 		add	a5,a2,s2
 4005 1234 93973700 		slli	a5,a5,3
 4006 1238 B387F900 		add	a5,s3,a5
 4007 123c 23A02701 		sw	s2,0(a5)
 120:test/../test/ConsumerProducer_C_API_test.h ****         data[threadNum].wait = waitForAll;
 4008              		.loc 5 120 9 is_stmt 1 discriminator 7
 120:test/../test/ConsumerProducer_C_API_test.h ****         data[threadNum].wait = waitForAll;
 4009              		.loc 5 120 32 is_stmt 0 discriminator 7
 4010 1240 23B44701 		sd	s4,8(a5)
 121:test/../test/ConsumerProducer_C_API_test.h ****         thread_create(&consumerThread, consumer, data + threadNum);
 4011              		.loc 5 121 9 is_stmt 1 discriminator 7
 121:test/../test/ConsumerProducer_C_API_test.h ****         thread_create(&consumerThread, consumer, data + threadNum);
 4012              		.loc 5 121 30 is_stmt 0 discriminator 7
 4013 1244 17070000 		ld	a4,.LANCHOR0+24
 4013      03370700 
 4014 124c 23B8E700 		sd	a4,16(a5)
GAS LISTING /tmp/cc5eykcM.s 			page 98


 122:test/../test/ConsumerProducer_C_API_test.h **** 
 4015              		.loc 5 122 9 is_stmt 1 discriminator 7
 122:test/../test/ConsumerProducer_C_API_test.h **** 
 4016              		.loc 5 122 22 is_stmt 0 discriminator 7
 4017 1250 13860700 		mv	a2,a5
 4018 1254 97050000 		lla	a1,_ZN27ConsumerProducer_C_API_test8consumerEPv
 4018      93850500 
 4019 125c 130584F9 		addi	a0,s0,-104
 4020 1260 97000000 		call	thread_create@plt
 4020      E7800000 
 4021              	.LVL439:
 4022              	.LBB198:
 124:test/../test/ConsumerProducer_C_API_test.h ****             data[i].id = i;
 4023              		.loc 5 124 18 discriminator 7
 4024 1268 93040000 		li	s1,0
 4025              	.LVL440:
 4026 126c 6F008002 		j	.L209
 4027              	.LVL441:
 4028              	.L217:
 129:test/../test/ConsumerProducer_C_API_test.h ****                           i > 0 ? producer : producerKeyboard,
 4029              		.loc 5 129 26
 4030 1270 97050000 		lla	a1,_ZN27ConsumerProducer_C_API_test16producerKeyboardEPv
 4030      93850500 
 4031              	.L208:
 131:test/../test/ConsumerProducer_C_API_test.h ****         }
 4032              		.loc 5 131 32 discriminator 4
 4033 1278 13961700 		slli	a2,a5,1
 4034 127c 3306F600 		add	a2,a2,a5
 4035 1280 13163600 		slli	a2,a2,3
 129:test/../test/ConsumerProducer_C_API_test.h ****                           i > 0 ? producer : producerKeyboard,
 4036              		.loc 5 129 26 discriminator 4
 4037 1284 3386C900 		add	a2,s3,a2
 4038 1288 97000000 		call	thread_create@plt
 4038      E7800000 
 4039              	.LVL442:
 124:test/../test/ConsumerProducer_C_API_test.h ****             data[i].id = i;
 4040              		.loc 5 124 9 is_stmt 1 discriminator 4
 4041 1290 9B841400 		addiw	s1,s1,1
 4042              	.LVL443:
 4043              	.L209:
 124:test/../test/ConsumerProducer_C_API_test.h ****             data[i].id = i;
 4044              		.loc 5 124 27 discriminator 1
 4045 1294 63D22405 		bge	s1,s2,.L207
 125:test/../test/ConsumerProducer_C_API_test.h ****             data[i].buffer = buffer;
 4046              		.loc 5 125 13
 125:test/../test/ConsumerProducer_C_API_test.h ****             data[i].buffer = buffer;
 4047              		.loc 5 125 24 is_stmt 0
 4048 1298 93971400 		slli	a5,s1,1
 4049 129c B3879700 		add	a5,a5,s1
 4050 12a0 93973700 		slli	a5,a5,3
 4051 12a4 B387F900 		add	a5,s3,a5
 4052 12a8 23A09700 		sw	s1,0(a5)
 126:test/../test/ConsumerProducer_C_API_test.h ****             data[i].wait = waitForAll;
 4053              		.loc 5 126 13 is_stmt 1
 126:test/../test/ConsumerProducer_C_API_test.h ****             data[i].wait = waitForAll;
 4054              		.loc 5 126 28 is_stmt 0
 4055 12ac 23B44701 		sd	s4,8(a5)
GAS LISTING /tmp/cc5eykcM.s 			page 99


 127:test/../test/ConsumerProducer_C_API_test.h **** 
 4056              		.loc 5 127 13 is_stmt 1
 127:test/../test/ConsumerProducer_C_API_test.h **** 
 4057              		.loc 5 127 26 is_stmt 0
 4058 12b0 17070000 		ld	a4,.LANCHOR0+24
 4058      03370700 
 4059 12b8 23B8E700 		sd	a4,16(a5)
 129:test/../test/ConsumerProducer_C_API_test.h ****                           i > 0 ? producer : producerKeyboard,
 4060              		.loc 5 129 13 is_stmt 1
 129:test/../test/ConsumerProducer_C_API_test.h ****                           i > 0 ? producer : producerKeyboard,
 4061              		.loc 5 129 37 is_stmt 0
 4062 12bc 93870400 		mv	a5,s1
 129:test/../test/ConsumerProducer_C_API_test.h ****                           i > 0 ? producer : producerKeyboard,
 4063              		.loc 5 129 35
 4064 12c0 13953400 		slli	a0,s1,3
 129:test/../test/ConsumerProducer_C_API_test.h ****                           i > 0 ? producer : producerKeyboard,
 4065              		.loc 5 129 26
 4066 12c4 3385AA00 		add	a0,s5,a0
 4067 12c8 E35490FA 		blez	s1,.L217
 4068 12cc 97050000 		lla	a1,_ZN27ConsumerProducer_C_API_test8producerEPv
 4068      93850500 
 4069 12d4 6FF05FFA 		j	.L208
 4070              	.L207:
 4071              	.LBE198:
 134:test/../test/ConsumerProducer_C_API_test.h **** 
 4072              		.loc 5 134 9 is_stmt 1
 134:test/../test/ConsumerProducer_C_API_test.h **** 
 4073              		.loc 5 134 24 is_stmt 0
 4074 12d8 97000000 		call	thread_dispatch@plt
 4074      E7800000 
 4075              	.LVL444:
 4076              	.LBB199:
 136:test/../test/ConsumerProducer_C_API_test.h ****             sem_wait(waitForAll);
 4077              		.loc 5 136 18
 4078 12e0 93040000 		li	s1,0
 4079              	.LVL445:
 4080              	.L211:
 136:test/../test/ConsumerProducer_C_API_test.h ****             sem_wait(waitForAll);
 4081              		.loc 5 136 27 is_stmt 1 discriminator 1
 4082 12e4 634E9900 		bgt	s1,s2,.L210
 137:test/../test/ConsumerProducer_C_API_test.h ****         }
 4083              		.loc 5 137 13
 137:test/../test/ConsumerProducer_C_API_test.h ****         }
 4084              		.loc 5 137 21 is_stmt 0
 4085 12e8 17050000 		ld	a0,.LANCHOR0+24
 4085      03350500 
 4086 12f0 97000000 		call	sem_wait@plt
 4086      E7800000 
 4087              	.LVL446:
 136:test/../test/ConsumerProducer_C_API_test.h ****             sem_wait(waitForAll);
 4088              		.loc 5 136 9 is_stmt 1
 4089 12f8 9B841400 		addiw	s1,s1,1
 4090              	.LVL447:
 4091 12fc 6FF09FFE 		j	.L211
 4092              	.LVL448:
 4093              	.L210:
 4094              	.LBE199:
GAS LISTING /tmp/cc5eykcM.s 			page 100


 140:test/../test/ConsumerProducer_C_API_test.h **** 
 4095              		.loc 5 140 9
 140:test/../test/ConsumerProducer_C_API_test.h **** 
 4096              		.loc 5 140 18 is_stmt 0
 4097 1300 17050000 		ld	a0,.LANCHOR0+24
 4097      03350500 
 4098 1308 97000000 		call	sem_close@plt
 4098      E7800000 
 4099              	.LVL449:
 4100              	.LEHE15:
 4101              		.loc 5 142 9 is_stmt 1
 4102              		.loc 5 142 22 is_stmt 0
 4103 1310 63080A02 		beqz	s4,.L212
 4104              		.loc 5 142 16 discriminator 1
 4105 1314 13050A00 		mv	a0,s4
 4106 1318 97000000 		call	_ZN6BufferD1Ev@plt
 4106      E7800000 
 4107              	.LVL450:
 4108              	.LBB200:
 4109              	.LBB201:
  43:test/../test/buffer.hpp ****     }
 4110              		.loc 7 43 9 is_stmt 1 discriminator 1
 4111              	.LBB202:
 4112              	.LBB203:
  11:test/../test/../h/../h/../h/MemoryAllocator.hpp ****         return instance;
 4113              		.loc 8 11 9 discriminator 1
  11:test/../test/../h/../h/../h/MemoryAllocator.hpp ****         return instance;
 4114              		.loc 8 11 32 is_stmt 0 discriminator 1
 4115 1320 97070000 		lbu	a5,_ZGVZN15MemoryAllocator11getInstanceEvE8instance
 4115      83C70700 
 4116 1328 63840704 		beqz	a5,.L223
 4117              	.L213:
  12:test/../test/../h/../h/../h/MemoryAllocator.hpp ****     }
 4118              		.loc 8 12 9 is_stmt 1
 4119              	.LBE203:
 4120              	.LBE202:
  43:test/../test/buffer.hpp ****     }
 4121              		.loc 7 43 51 is_stmt 0
 4122 132c 93050A00 		mv	a1,s4
 4123 1330 17050000 		lla	a0,_ZZN15MemoryAllocator11getInstanceEvE8instance
 4123      13050500 
 4124 1338 97000000 		call	_ZN15MemoryAllocator11memory_freeEPv@plt
 4124      E7800000 
 4125              	.LVL451:
 4126              	.L212:
 4127 1340 13010B00 		mv	sp,s6
 4128              	.LVL452:
 4129              	.L200:
 4130              	.LBE201:
 4131              	.LBE200:
 143:test/../test/ConsumerProducer_C_API_test.h **** 
 144:test/../test/ConsumerProducer_C_API_test.h ****     }
 4132              		.loc 5 144 5
 4133 1344 130104F9 		addi	sp,s0,-112
 4134              		.cfi_remember_state
 4135              		.cfi_def_cfa 2, 112
 4136 1348 83308106 		ld	ra,104(sp)
GAS LISTING /tmp/cc5eykcM.s 			page 101


 4137              		.cfi_restore 1
 4138 134c 03340106 		ld	s0,96(sp)
 4139              		.cfi_restore 8
 4140 1350 83348105 		ld	s1,88(sp)
 4141              		.cfi_restore 9
 4142 1354 03390105 		ld	s2,80(sp)
 4143              		.cfi_restore 18
 4144              	.LVL453:
 4145 1358 83398104 		ld	s3,72(sp)
 4146              		.cfi_restore 19
 4147 135c 033A0104 		ld	s4,64(sp)
 4148              		.cfi_restore 20
 4149 1360 833A8103 		ld	s5,56(sp)
 4150              		.cfi_restore 21
 4151 1364 033B0103 		ld	s6,48(sp)
 4152              		.cfi_restore 22
 4153 1368 13010107 		addi	sp,sp,112
 4154              		.cfi_def_cfa_offset 0
 4155 136c 67800000 		jr	ra
 4156              	.LVL454:
 4157              	.L223:
 4158              		.cfi_restore_state
 4159              	.LBB211:
 4160              	.LBB210:
 4161              	.LBB209:
 4162              	.LBB208:
 4163              	.LBB204:
 4164              	.LBB205:
 4165              	.LBB206:
  36:test/../test/../h/../h/../h/MemoryAllocator.hpp **** 
 4166              		.loc 8 36 22
 4167 1370 17060000 		lla	a2,_ZZN15MemoryAllocator11getInstanceEvE8instance
 4167      13060600 
 4168              	.LBB207:
  38:test/../test/../h/../h/../h/MemoryAllocator.hpp ****         heapEnd = (size_t)HEAP_END_ADDR - 1;
 4169              		.loc 8 38 9 is_stmt 1
  38:test/../test/../h/../h/../h/MemoryAllocator.hpp ****         heapEnd = (size_t)HEAP_END_ADDR - 1;
 4170              		.loc 8 38 70 is_stmt 0
 4171 1378 97070000 		la	a5,HEAP_END_ADDR
 4171      83B70700 
 4172 1380 03B70700 		ld	a4,0(a5)
 4173 1384 97070000 		la	a5,HEAP_START_ADDR
 4173      83B70700 
 4174 138c 83B70700 		ld	a5,0(a5)
 4175 1390 B306F740 		sub	a3,a4,a5
  38:test/../test/../h/../h/../h/MemoryAllocator.hpp ****         heapEnd = (size_t)HEAP_END_ADDR - 1;
 4176              		.loc 8 38 97
 4177 1394 93D63600 		srli	a3,a3,3
  38:test/../test/../h/../h/../h/MemoryAllocator.hpp ****         heapEnd = (size_t)HEAP_END_ADDR - 1;
 4178              		.loc 8 38 45
 4179 1398 B387D700 		add	a5,a5,a3
  38:test/../test/../h/../h/../h/MemoryAllocator.hpp ****         heapEnd = (size_t)HEAP_END_ADDR - 1;
 4180              		.loc 8 38 101
 4181 139c 93871700 		addi	a5,a5,1
  38:test/../test/../h/../h/../h/MemoryAllocator.hpp ****         heapEnd = (size_t)HEAP_END_ADDR - 1;
 4182              		.loc 8 38 19
 4183 13a0 2334F600 		sd	a5,8(a2)
GAS LISTING /tmp/cc5eykcM.s 			page 102


  39:test/../test/../h/../h/../h/MemoryAllocator.hpp **** 
 4184              		.loc 8 39 9 is_stmt 1
  39:test/../test/../h/../h/../h/MemoryAllocator.hpp **** 
 4185              		.loc 8 39 41 is_stmt 0
 4186 13a4 1307F7FF 		addi	a4,a4,-1
  39:test/../test/../h/../h/../h/MemoryAllocator.hpp **** 
 4187              		.loc 8 39 17
 4188 13a8 2338E600 		sd	a4,16(a2)
  42:test/../test/../h/../h/../h/MemoryAllocator.hpp **** 
 4189              		.loc 8 42 9 is_stmt 1
  42:test/../test/../h/../h/../h/MemoryAllocator.hpp **** 
 4190              		.loc 8 42 56 is_stmt 0
 4191 13ac 93F6F703 		andi	a3,a5,63
  42:test/../test/../h/../h/../h/MemoryAllocator.hpp **** 
 4192              		.loc 8 42 78
 4193 13b0 63860600 		beqz	a3,.L214
 4194 13b4 13060004 		li	a2,64
 4195 13b8 B306D640 		sub	a3,a2,a3
 4196              	.L214:
  42:test/../test/../h/../h/../h/MemoryAllocator.hpp **** 
 4197              		.loc 8 42 42
 4198 13bc B387D700 		add	a5,a5,a3
  42:test/../test/../h/../h/../h/MemoryAllocator.hpp **** 
 4199              		.loc 8 42 19
 4200 13c0 97060000 		sd	a5,_ZZN15MemoryAllocator11getInstanceEvE8instance,a3
 4200      23B0F600 
  44:test/../test/../h/../h/../h/MemoryAllocator.hpp **** 
 4201              		.loc 8 44 9 is_stmt 1
  44:test/../test/../h/../h/../h/MemoryAllocator.hpp **** 
 4202              		.loc 8 44 40 is_stmt 0
 4203 13c8 3307F740 		sub	a4,a4,a5
  44:test/../test/../h/../h/../h/MemoryAllocator.hpp **** 
 4204              		.loc 8 44 16
 4205 13cc 13576700 		srli	a4,a4,6
 4206              	.LVL455:
  48:test/../test/../h/../h/../h/MemoryAllocator.hpp ****         fmem_head->prev = nullptr;
 4207              		.loc 8 48 9 is_stmt 1
  48:test/../test/../h/../h/../h/MemoryAllocator.hpp ****         fmem_head->prev = nullptr;
 4208              		.loc 8 48 25 is_stmt 0
 4209 13d0 23B40700 		sd	zero,8(a5)
  49:test/../test/../h/../h/../h/MemoryAllocator.hpp ****         fmem_head->size = sizeInBlocks;
 4210              		.loc 8 49 9 is_stmt 1
  49:test/../test/../h/../h/../h/MemoryAllocator.hpp ****         fmem_head->size = sizeInBlocks;
 4211              		.loc 8 49 25 is_stmt 0
 4212 13d4 23B80700 		sd	zero,16(a5)
 4213              		.loc 8 50 9 is_stmt 1
 4214              		.loc 8 50 25 is_stmt 0
 4215 13d8 23B0E700 		sd	a4,0(a5)
 4216              	.LVL456:
 4217              	.LBE207:
 4218              	.LBE206:
 4219              	.LBE205:
 4220              	.LBE204:
  11:test/../test/../h/../h/../h/MemoryAllocator.hpp ****         return instance;
 4221              		.loc 8 11 32
 4222 13dc 93071000 		li	a5,1
 4223 13e0 17070000 		sb	a5,_ZGVZN15MemoryAllocator11getInstanceEvE8instance,a4
GAS LISTING /tmp/cc5eykcM.s 			page 103


 4223      2300F700 
 4224 13e8 6FF05FF4 		j	.L213
 4225              	.LVL457:
 4226              	.L218:
 4227 13ec 93040500 		mv	s1,a0
 4228              	.LVL458:
 4229              	.LBE208:
 4230              	.LBE209:
 4231              	.LBE210:
 4232              	.LBE211:
 110:test/../test/ConsumerProducer_C_API_test.h **** 
 4233              		.loc 5 110 38
 4234 13f0 13050A00 		mv	a0,s4
 4235 13f4 97000000 		call	_ZN6BufferdlEPv
 4235      E7800000 
 4236              	.LVL459:
 4237 13fc 13850400 		mv	a0,s1
 4238              	.LEHB16:
 4239 1400 97000000 		call	_Unwind_Resume@plt
 4239      E7800000 
 4240              	.LVL460:
 4241              	.LEHE16:
 4242              		.cfi_endproc
 4243              	.LFE79:
 4244              		.section	.gcc_except_table
 4245              	.LLSDA79:
 4246 00b2 FF       		.byte	0xff
 4247 00b3 FF       		.byte	0xff
 4248 00b4 03       		.byte	0x3
 4249 00b5 34       		.byte	0x34
 4250 00b6 00000000 		.4byte	.LEHB13-.LFB79
 4251 00ba 00000000 		.4byte	.LEHE13-.LEHB13
 4252 00be 00000000 		.4byte	0
 4253 00c2 00       		.byte	0
 4254 00c3 00000000 		.4byte	.LEHB14-.LFB79
 4255 00c7 00000000 		.4byte	.LEHE14-.LEHB14
 4256 00cb 00000000 		.4byte	.L218-.LFB79
 4257 00cf 00       		.byte	0
 4258 00d0 00000000 		.4byte	.LEHB15-.LFB79
 4259 00d4 00000000 		.4byte	.LEHE15-.LEHB15
 4260 00d8 00000000 		.4byte	0
 4261 00dc 00       		.byte	0
 4262 00dd 00000000 		.4byte	.LEHB16-.LFB79
 4263 00e1 00000000 		.4byte	.LEHE16-.LEHB16
 4264 00e5 00000000 		.4byte	0
 4265 00e9 00       		.byte	0
 4266              		.text
 4268              		.align	2
 4269              		.globl	_ZN34ConsumerProducer_CPP_Sync_API_test16ProducerKeyboard16producerKeyboardEPv
 4271              	_ZN34ConsumerProducer_CPP_Sync_API_test16ProducerKeyboard16producerKeyboardEPv:
 4272              	.LFB84:
  35:test/../test/ConsumerProducer_CPP_Sync_API_test.hpp ****         struct thread_data *data = (struct thread_data *) arg;
 4273              		.loc 3 35 56 is_stmt 1
 4274              		.cfi_startproc
 4275              	.LVL461:
 4276 1408 130101FD 		addi	sp,sp,-48
 4277              		.cfi_def_cfa_offset 48
GAS LISTING /tmp/cc5eykcM.s 			page 104


 4278 140c 23341102 		sd	ra,40(sp)
 4279 1410 23308102 		sd	s0,32(sp)
 4280 1414 233C9100 		sd	s1,24(sp)
 4281 1418 23382101 		sd	s2,16(sp)
 4282 141c 23343101 		sd	s3,8(sp)
 4283              		.cfi_offset 1, -8
 4284              		.cfi_offset 8, -16
 4285              		.cfi_offset 9, -24
 4286              		.cfi_offset 18, -32
 4287              		.cfi_offset 19, -40
 4288 1420 13040103 		addi	s0,sp,48
 4289              		.cfi_def_cfa 8, 0
 4290 1424 93090500 		mv	s3,a0
 4291 1428 93840500 		mv	s1,a1
  36:test/../test/ConsumerProducer_CPP_Sync_API_test.hpp **** 
 4292              		.loc 3 36 9
 4293              	.LVL462:
  38:test/../test/ConsumerProducer_CPP_Sync_API_test.hpp ****         int i = 0;
 4294              		.loc 3 38 9
  39:test/../test/ConsumerProducer_CPP_Sync_API_test.hpp ****         while ((key = getc()) != 0x1b) {
 4295              		.loc 3 39 9
  39:test/../test/ConsumerProducer_CPP_Sync_API_test.hpp ****         while ((key = getc()) != 0x1b) {
 4296              		.loc 3 39 13 is_stmt 0
 4297 142c 13090000 		li	s2,0
 4298 1430 6F00C000 		j	.L225
 4299              	.LVL463:
 4300              	.L229:
  45:test/../test/ConsumerProducer_CPP_Sync_API_test.hpp ****             }
 4301              		.loc 3 45 17 is_stmt 1
  45:test/../test/ConsumerProducer_CPP_Sync_API_test.hpp ****             }
 4302              		.loc 3 45 33 is_stmt 0
 4303 1434 97000000 		call	_ZN6Thread8dispatchEv@plt
 4303      E7800000 
 4304              	.LVL464:
 4305              	.L225:
  40:test/../test/ConsumerProducer_CPP_Sync_API_test.hpp ****             data->buffer->put(key);
 4306              		.loc 3 40 9 is_stmt 1
  40:test/../test/ConsumerProducer_CPP_Sync_API_test.hpp ****             data->buffer->put(key);
 4307              		.loc 3 40 31
  40:test/../test/ConsumerProducer_CPP_Sync_API_test.hpp ****             data->buffer->put(key);
 4308              		.loc 3 40 27 is_stmt 0
 4309 143c 97000000 		call	getc@plt
 4309      E7800000 
 4310              	.LVL465:
  40:test/../test/ConsumerProducer_CPP_Sync_API_test.hpp ****             data->buffer->put(key);
 4311              		.loc 3 40 21
 4312 1444 9B050500 		sext.w	a1,a0
 4313              	.LVL466:
  40:test/../test/ConsumerProducer_CPP_Sync_API_test.hpp ****             data->buffer->put(key);
 4314              		.loc 3 40 31
 4315 1448 9307B001 		li	a5,27
 4316 144c 638AF502 		beq	a1,a5,.L226
  41:test/../test/ConsumerProducer_CPP_Sync_API_test.hpp ****             i++;
 4317              		.loc 3 41 13 is_stmt 1
  41:test/../test/ConsumerProducer_CPP_Sync_API_test.hpp ****             i++;
 4318              		.loc 3 41 30 is_stmt 0
 4319 1450 03B58400 		ld	a0,8(s1)
GAS LISTING /tmp/cc5eykcM.s 			page 105


 4320 1454 97000000 		call	_ZN9BufferCPP3putEi@plt
 4320      E7800000 
 4321              	.LVL467:
  42:test/../test/ConsumerProducer_CPP_Sync_API_test.hpp **** 
 4322              		.loc 3 42 13 is_stmt 1
  42:test/../test/ConsumerProducer_CPP_Sync_API_test.hpp **** 
 4323              		.loc 3 42 14 is_stmt 0
 4324 145c 1B071900 		addiw	a4,s2,1
 4325 1460 1B090700 		sext.w	s2,a4
 4326              	.LVL468:
  44:test/../test/ConsumerProducer_CPP_Sync_API_test.hpp ****                 Thread::dispatch();
 4327              		.loc 3 44 13 is_stmt 1
  44:test/../test/ConsumerProducer_CPP_Sync_API_test.hpp ****                 Thread::dispatch();
 4328              		.loc 3 44 33 is_stmt 0
 4329 1464 83A60400 		lw	a3,0(s1)
  44:test/../test/ConsumerProducer_CPP_Sync_API_test.hpp ****                 Thread::dispatch();
 4330              		.loc 3 44 25
 4331 1468 9B972600 		slliw	a5,a3,2
 4332 146c BB87D700 		addw	a5,a5,a3
 4333 1470 9B971700 		slliw	a5,a5,1
  44:test/../test/ConsumerProducer_CPP_Sync_API_test.hpp ****                 Thread::dispatch();
 4334              		.loc 3 44 19
 4335 1474 BB67F702 		remw	a5,a4,a5
  44:test/../test/ConsumerProducer_CPP_Sync_API_test.hpp ****                 Thread::dispatch();
 4336              		.loc 3 44 13
 4337 1478 E39207FC 		bnez	a5,.L225
 4338 147c 6FF09FFB 		j	.L229
 4339              	.LVL469:
 4340              	.L226:
  49:test/../test/ConsumerProducer_CPP_Sync_API_test.hpp ****         td->buffer->put('!');
 4341              		.loc 3 49 9 is_stmt 1
  49:test/../test/ConsumerProducer_CPP_Sync_API_test.hpp ****         td->buffer->put('!');
 4342              		.loc 3 49 19 is_stmt 0
 4343 1480 93071000 		li	a5,1
 4344 1484 17070000 		sw	a5,.LANCHOR0+32,a4
 4344      2320F700 
  50:test/../test/ConsumerProducer_CPP_Sync_API_test.hpp **** 
 4345              		.loc 3 50 9 is_stmt 1
 4346 148c 83B70901 		ld	a5,16(s3)
  50:test/../test/ConsumerProducer_CPP_Sync_API_test.hpp **** 
 4347              		.loc 3 50 24 is_stmt 0
 4348 1490 93051002 		li	a1,33
 4349              	.LVL470:
 4350 1494 03B58700 		ld	a0,8(a5)
 4351              	.LVL471:
 4352 1498 97000000 		call	_ZN9BufferCPP3putEi@plt
 4352      E7800000 
 4353              	.LVL472:
  52:test/../test/ConsumerProducer_CPP_Sync_API_test.hpp ****     }
 4354              		.loc 3 52 9 is_stmt 1
  52:test/../test/ConsumerProducer_CPP_Sync_API_test.hpp ****     }
 4355              		.loc 3 52 27 is_stmt 0
 4356 14a0 03B50401 		ld	a0,16(s1)
 4357 14a4 97000000 		call	_ZN9Semaphore6signalEv@plt
 4357      E7800000 
 4358              	.LVL473:
  53:test/../test/ConsumerProducer_CPP_Sync_API_test.hpp **** 
GAS LISTING /tmp/cc5eykcM.s 			page 106


 4359              		.loc 3 53 5
 4360 14ac 83308102 		ld	ra,40(sp)
 4361              		.cfi_restore 1
 4362 14b0 03340102 		ld	s0,32(sp)
 4363              		.cfi_restore 8
 4364              		.cfi_def_cfa 2, 48
 4365 14b4 83348101 		ld	s1,24(sp)
 4366              		.cfi_restore 9
 4367              	.LVL474:
 4368 14b8 03390101 		ld	s2,16(sp)
 4369              		.cfi_restore 18
 4370              	.LVL475:
 4371 14bc 83398100 		ld	s3,8(sp)
 4372              		.cfi_restore 19
 4373              	.LVL476:
 4374 14c0 13010103 		addi	sp,sp,48
 4375              		.cfi_def_cfa_offset 0
 4376 14c4 67800000 		jr	ra
 4377              		.cfi_endproc
 4378              	.LFE84:
 4380              		.section	.text._ZN34ConsumerProducer_CPP_Sync_API_test16ProducerKeyboard3runEv,"axG",@progbits,_ZN
 4381              		.align	2
 4382              		.weak	_ZN34ConsumerProducer_CPP_Sync_API_test16ProducerKeyboard3runEv
 4384              	_ZN34ConsumerProducer_CPP_Sync_API_test16ProducerKeyboard3runEv:
 4385              	.LFB83:
  30:test/../test/ConsumerProducer_CPP_Sync_API_test.hpp ****             producerKeyboard(td);
 4386              		.loc 3 30 14 is_stmt 1
 4387              		.cfi_startproc
 4388              	.LVL477:
 4389 0000 130101FF 		addi	sp,sp,-16
 4390              		.cfi_def_cfa_offset 16
 4391 0004 23341100 		sd	ra,8(sp)
 4392 0008 23308100 		sd	s0,0(sp)
 4393              		.cfi_offset 1, -8
 4394              		.cfi_offset 8, -16
 4395 000c 13040101 		addi	s0,sp,16
 4396              		.cfi_def_cfa 8, 0
  31:test/../test/ConsumerProducer_CPP_Sync_API_test.hpp ****         }
 4397              		.loc 3 31 13
  31:test/../test/ConsumerProducer_CPP_Sync_API_test.hpp ****         }
 4398              		.loc 3 31 29 is_stmt 0
 4399 0010 83350501 		ld	a1,16(a0)
 4400 0014 97000000 		call	_ZN34ConsumerProducer_CPP_Sync_API_test16ProducerKeyboard16producerKeyboardEPv
 4400      E7800000 
 4401              	.LVL478:
  32:test/../test/ConsumerProducer_CPP_Sync_API_test.hpp ****     };
 4402              		.loc 3 32 9
 4403 001c 83308100 		ld	ra,8(sp)
 4404              		.cfi_restore 1
 4405 0020 03340100 		ld	s0,0(sp)
 4406              		.cfi_restore 8
 4407              		.cfi_def_cfa 2, 16
 4408 0024 13010101 		addi	sp,sp,16
 4409              		.cfi_def_cfa_offset 0
 4410 0028 67800000 		jr	ra
 4411              		.cfi_endproc
 4412              	.LFE83:
GAS LISTING /tmp/cc5eykcM.s 			page 107


 4414              		.text
 4415              		.align	2
 4416              		.globl	_ZN34ConsumerProducer_CPP_Sync_API_test8Producer8producerEPv
 4418              	_ZN34ConsumerProducer_CPP_Sync_API_test8Producer8producerEPv:
 4419              	.LFB89:
  66:test/../test/ConsumerProducer_CPP_Sync_API_test.hpp ****         struct thread_data *data = (struct thread_data *) arg;
 4420              		.loc 3 66 40 is_stmt 1
 4421              		.cfi_startproc
 4422              	.LVL479:
 4423 14c8 130101FE 		addi	sp,sp,-32
 4424              		.cfi_def_cfa_offset 32
 4425 14cc 233C1100 		sd	ra,24(sp)
 4426 14d0 23388100 		sd	s0,16(sp)
 4427 14d4 23349100 		sd	s1,8(sp)
 4428 14d8 23302101 		sd	s2,0(sp)
 4429              		.cfi_offset 1, -8
 4430              		.cfi_offset 8, -16
 4431              		.cfi_offset 9, -24
 4432              		.cfi_offset 18, -32
 4433 14dc 13040102 		addi	s0,sp,32
 4434              		.cfi_def_cfa 8, 0
 4435 14e0 93840500 		mv	s1,a1
  67:test/../test/ConsumerProducer_CPP_Sync_API_test.hpp **** 
 4436              		.loc 3 67 9
 4437              	.LVL480:
  69:test/../test/ConsumerProducer_CPP_Sync_API_test.hpp ****         while (!threadEnd) {
 4438              		.loc 3 69 9
  69:test/../test/ConsumerProducer_CPP_Sync_API_test.hpp ****         while (!threadEnd) {
 4439              		.loc 3 69 13 is_stmt 0
 4440 14e4 13090000 		li	s2,0
 4441 14e8 6F00C000 		j	.L233
 4442              	.LVL481:
 4443              	.L237:
  75:test/../test/ConsumerProducer_CPP_Sync_API_test.hpp ****             }
 4444              		.loc 3 75 17 is_stmt 1
  75:test/../test/ConsumerProducer_CPP_Sync_API_test.hpp ****             }
 4445              		.loc 3 75 33 is_stmt 0
 4446 14ec 97000000 		call	_ZN6Thread8dispatchEv@plt
 4446      E7800000 
 4447              	.LVL482:
 4448              	.L233:
  70:test/../test/ConsumerProducer_CPP_Sync_API_test.hpp ****             data->buffer->put(data->id + '0');
 4449              		.loc 3 70 9 is_stmt 1
  70:test/../test/ConsumerProducer_CPP_Sync_API_test.hpp ****             data->buffer->put(data->id + '0');
 4450              		.loc 3 70 16
 4451 14f4 97070000 		lw	a5,.LANCHOR0+32
 4451      83A70700 
 4452 14fc 639E0702 		bnez	a5,.L234
  71:test/../test/ConsumerProducer_CPP_Sync_API_test.hpp ****             i++;
 4453              		.loc 3 71 13
  71:test/../test/ConsumerProducer_CPP_Sync_API_test.hpp ****             i++;
 4454              		.loc 3 71 37 is_stmt 0
 4455 1500 83A50400 		lw	a1,0(s1)
  71:test/../test/ConsumerProducer_CPP_Sync_API_test.hpp ****             i++;
 4456              		.loc 3 71 30
 4457 1504 9B850503 		addiw	a1,a1,48
 4458 1508 03B58400 		ld	a0,8(s1)
GAS LISTING /tmp/cc5eykcM.s 			page 108


 4459 150c 97000000 		call	_ZN9BufferCPP3putEi@plt
 4459      E7800000 
 4460              	.LVL483:
  72:test/../test/ConsumerProducer_CPP_Sync_API_test.hpp **** 
 4461              		.loc 3 72 13 is_stmt 1
  72:test/../test/ConsumerProducer_CPP_Sync_API_test.hpp **** 
 4462              		.loc 3 72 14 is_stmt 0
 4463 1514 1B071900 		addiw	a4,s2,1
 4464 1518 1B090700 		sext.w	s2,a4
 4465              	.LVL484:
  74:test/../test/ConsumerProducer_CPP_Sync_API_test.hpp ****                 Thread::dispatch();
 4466              		.loc 3 74 13 is_stmt 1
  74:test/../test/ConsumerProducer_CPP_Sync_API_test.hpp ****                 Thread::dispatch();
 4467              		.loc 3 74 33 is_stmt 0
 4468 151c 83A60400 		lw	a3,0(s1)
  74:test/../test/ConsumerProducer_CPP_Sync_API_test.hpp ****                 Thread::dispatch();
 4469              		.loc 3 74 25
 4470 1520 9B972600 		slliw	a5,a3,2
 4471 1524 BB87D700 		addw	a5,a5,a3
 4472 1528 9B971700 		slliw	a5,a5,1
  74:test/../test/ConsumerProducer_CPP_Sync_API_test.hpp ****                 Thread::dispatch();
 4473              		.loc 3 74 19
 4474 152c BB67F702 		remw	a5,a4,a5
  74:test/../test/ConsumerProducer_CPP_Sync_API_test.hpp ****                 Thread::dispatch();
 4475              		.loc 3 74 13
 4476 1530 E39207FC 		bnez	a5,.L233
 4477 1534 6FF09FFB 		j	.L237
 4478              	.LVL485:
 4479              	.L234:
  79:test/../test/ConsumerProducer_CPP_Sync_API_test.hpp ****     }
 4480              		.loc 3 79 9 is_stmt 1
  79:test/../test/ConsumerProducer_CPP_Sync_API_test.hpp ****     }
 4481              		.loc 3 79 27 is_stmt 0
 4482 1538 03B50401 		ld	a0,16(s1)
 4483 153c 97000000 		call	_ZN9Semaphore6signalEv@plt
 4483      E7800000 
 4484              	.LVL486:
  80:test/../test/ConsumerProducer_CPP_Sync_API_test.hpp **** 
 4485              		.loc 3 80 5
 4486 1544 83308101 		ld	ra,24(sp)
 4487              		.cfi_restore 1
 4488 1548 03340101 		ld	s0,16(sp)
 4489              		.cfi_restore 8
 4490              		.cfi_def_cfa 2, 32
 4491 154c 83348100 		ld	s1,8(sp)
 4492              		.cfi_restore 9
 4493              	.LVL487:
 4494 1550 03390100 		ld	s2,0(sp)
 4495              		.cfi_restore 18
 4496              	.LVL488:
 4497 1554 13010102 		addi	sp,sp,32
 4498              		.cfi_def_cfa_offset 0
 4499 1558 67800000 		jr	ra
 4500              		.cfi_endproc
 4501              	.LFE89:
 4503              		.section	.text._ZN34ConsumerProducer_CPP_Sync_API_test8Producer3runEv,"axG",@progbits,_ZN34Consume
 4504              		.align	2
GAS LISTING /tmp/cc5eykcM.s 			page 109


 4505              		.weak	_ZN34ConsumerProducer_CPP_Sync_API_test8Producer3runEv
 4507              	_ZN34ConsumerProducer_CPP_Sync_API_test8Producer3runEv:
 4508              	.LFB88:
  61:test/../test/ConsumerProducer_CPP_Sync_API_test.hpp ****             producer(td);
 4509              		.loc 3 61 14 is_stmt 1
 4510              		.cfi_startproc
 4511              	.LVL489:
 4512 0000 130101FF 		addi	sp,sp,-16
 4513              		.cfi_def_cfa_offset 16
 4514 0004 23341100 		sd	ra,8(sp)
 4515 0008 23308100 		sd	s0,0(sp)
 4516              		.cfi_offset 1, -8
 4517              		.cfi_offset 8, -16
 4518 000c 13040101 		addi	s0,sp,16
 4519              		.cfi_def_cfa 8, 0
  62:test/../test/ConsumerProducer_CPP_Sync_API_test.hpp ****         }
 4520              		.loc 3 62 13
  62:test/../test/ConsumerProducer_CPP_Sync_API_test.hpp ****         }
 4521              		.loc 3 62 21 is_stmt 0
 4522 0010 83350501 		ld	a1,16(a0)
 4523 0014 97000000 		call	_ZN34ConsumerProducer_CPP_Sync_API_test8Producer8producerEPv
 4523      E7800000 
 4524              	.LVL490:
  63:test/../test/ConsumerProducer_CPP_Sync_API_test.hpp ****     };
 4525              		.loc 3 63 9
 4526 001c 83308100 		ld	ra,8(sp)
 4527              		.cfi_restore 1
 4528 0020 03340100 		ld	s0,0(sp)
 4529              		.cfi_restore 8
 4530              		.cfi_def_cfa 2, 16
 4531 0024 13010101 		addi	sp,sp,16
 4532              		.cfi_def_cfa_offset 0
 4533 0028 67800000 		jr	ra
 4534              		.cfi_endproc
 4535              	.LFE88:
 4537              		.text
 4538              		.align	2
 4539              		.globl	_ZN34ConsumerProducer_CPP_Sync_API_test8Consumer8consumerEPv
 4541              	_ZN34ConsumerProducer_CPP_Sync_API_test8Consumer8consumerEPv:
 4542              	.LFB94:
  83:test/../test/ConsumerProducer_CPP_Sync_API_test.hpp ****         thread_data* td;
  84:test/../test/ConsumerProducer_CPP_Sync_API_test.hpp ****         void consumer(void *arg);
  85:test/../test/ConsumerProducer_CPP_Sync_API_test.hpp ****     public:
  86:test/../test/ConsumerProducer_CPP_Sync_API_test.hpp ****         Consumer(thread_data* _td):Thread(), td(_td) {}
  87:test/../test/ConsumerProducer_CPP_Sync_API_test.hpp **** 
  88:test/../test/ConsumerProducer_CPP_Sync_API_test.hpp ****         void run() override {
  89:test/../test/ConsumerProducer_CPP_Sync_API_test.hpp ****             consumer(td);
  90:test/../test/ConsumerProducer_CPP_Sync_API_test.hpp ****         }
  91:test/../test/ConsumerProducer_CPP_Sync_API_test.hpp ****     };
  92:test/../test/ConsumerProducer_CPP_Sync_API_test.hpp **** 
  93:test/../test/ConsumerProducer_CPP_Sync_API_test.hpp ****     void Consumer::consumer(void *arg) {
 4543              		.loc 3 93 40 is_stmt 1
 4544              		.cfi_startproc
 4545              	.LVL491:
 4546 155c 130101FD 		addi	sp,sp,-48
 4547              		.cfi_def_cfa_offset 48
 4548 1560 23341102 		sd	ra,40(sp)
GAS LISTING /tmp/cc5eykcM.s 			page 110


 4549 1564 23308102 		sd	s0,32(sp)
 4550 1568 233C9100 		sd	s1,24(sp)
 4551 156c 23382101 		sd	s2,16(sp)
 4552 1570 23343101 		sd	s3,8(sp)
 4553 1574 23304101 		sd	s4,0(sp)
 4554              		.cfi_offset 1, -8
 4555              		.cfi_offset 8, -16
 4556              		.cfi_offset 9, -24
 4557              		.cfi_offset 18, -32
 4558              		.cfi_offset 19, -40
 4559              		.cfi_offset 20, -48
 4560 1578 13040103 		addi	s0,sp,48
 4561              		.cfi_def_cfa 8, 0
 4562 157c 93090500 		mv	s3,a0
 4563 1580 13890500 		mv	s2,a1
  94:test/../test/ConsumerProducer_CPP_Sync_API_test.hpp ****         struct thread_data *data = (struct thread_data *) arg;
 4564              		.loc 3 94 9
 4565              	.LVL492:
  95:test/../test/ConsumerProducer_CPP_Sync_API_test.hpp **** 
  96:test/../test/ConsumerProducer_CPP_Sync_API_test.hpp ****         int i = 0;
 4566              		.loc 3 96 9
 4567              		.loc 3 96 13 is_stmt 0
 4568 1584 130A0000 		li	s4,0
 4569 1588 6F00C001 		j	.L241
 4570              	.LVL493:
 4571              	.L247:
 4572              	.LBB212:
  97:test/../test/ConsumerProducer_CPP_Sync_API_test.hpp ****         while (!threadEnd) {
  98:test/../test/ConsumerProducer_CPP_Sync_API_test.hpp ****             int key = data->buffer->get();
  99:test/../test/ConsumerProducer_CPP_Sync_API_test.hpp ****             i++;
 100:test/../test/ConsumerProducer_CPP_Sync_API_test.hpp **** 
 101:test/../test/ConsumerProducer_CPP_Sync_API_test.hpp ****             putc(key);
 102:test/../test/ConsumerProducer_CPP_Sync_API_test.hpp **** 
 103:test/../test/ConsumerProducer_CPP_Sync_API_test.hpp ****             if (i % (5 * data->id) == 0) {
 104:test/../test/ConsumerProducer_CPP_Sync_API_test.hpp ****                 Thread::dispatch();
 4573              		.loc 3 104 17 is_stmt 1
 4574              		.loc 3 104 33 is_stmt 0
 4575 158c 97000000 		call	_ZN6Thread8dispatchEv@plt
 4575      E7800000 
 4576              	.LVL494:
 4577 1594 6F000005 		j	.L243
 4578              	.LVL495:
 4579              	.L248:
 105:test/../test/ConsumerProducer_CPP_Sync_API_test.hpp ****             }
 106:test/../test/ConsumerProducer_CPP_Sync_API_test.hpp **** 
 107:test/../test/ConsumerProducer_CPP_Sync_API_test.hpp ****             if (i % 80 == 0) {
 108:test/../test/ConsumerProducer_CPP_Sync_API_test.hpp ****                 putc('\n');
 4580              		.loc 3 108 17 is_stmt 1
 4581              		.loc 3 108 21 is_stmt 0
 4582 1598 1305A000 		li	a0,10
 4583 159c 97000000 		call	putc@plt
 4583      E7800000 
 4584              	.LVL496:
 4585              	.L241:
 4586              	.LBE212:
  97:test/../test/ConsumerProducer_CPP_Sync_API_test.hpp ****         while (!threadEnd) {
 4587              		.loc 3 97 9 is_stmt 1
GAS LISTING /tmp/cc5eykcM.s 			page 111


  97:test/../test/ConsumerProducer_CPP_Sync_API_test.hpp ****         while (!threadEnd) {
 4588              		.loc 3 97 16
 4589 15a4 97070000 		lw	a5,.LANCHOR0+32
 4589      83A70700 
 4590 15ac 63920706 		bnez	a5,.L242
 4591              	.LBB213:
  98:test/../test/ConsumerProducer_CPP_Sync_API_test.hpp ****             i++;
 4592              		.loc 3 98 13
  98:test/../test/ConsumerProducer_CPP_Sync_API_test.hpp ****             i++;
 4593              		.loc 3 98 40 is_stmt 0
 4594 15b0 03358900 		ld	a0,8(s2)
 4595 15b4 97000000 		call	_ZN9BufferCPP3getEv@plt
 4595      E7800000 
 4596              	.LVL497:
  99:test/../test/ConsumerProducer_CPP_Sync_API_test.hpp **** 
 4597              		.loc 3 99 13 is_stmt 1
  99:test/../test/ConsumerProducer_CPP_Sync_API_test.hpp **** 
 4598              		.loc 3 99 14 is_stmt 0
 4599 15bc 9B041A00 		addiw	s1,s4,1
 4600 15c0 1B8A0400 		sext.w	s4,s1
 4601              	.LVL498:
 101:test/../test/ConsumerProducer_CPP_Sync_API_test.hpp **** 
 4602              		.loc 3 101 13 is_stmt 1
 101:test/../test/ConsumerProducer_CPP_Sync_API_test.hpp **** 
 4603              		.loc 3 101 17 is_stmt 0
 4604 15c4 1375F50F 		andi	a0,a0,0xff
 4605              	.LVL499:
 4606 15c8 97000000 		call	putc@plt
 4606      E7800000 
 4607              	.LVL500:
 103:test/../test/ConsumerProducer_CPP_Sync_API_test.hpp ****                 Thread::dispatch();
 4608              		.loc 3 103 13 is_stmt 1
 103:test/../test/ConsumerProducer_CPP_Sync_API_test.hpp ****                 Thread::dispatch();
 4609              		.loc 3 103 32 is_stmt 0
 4610 15d0 03270900 		lw	a4,0(s2)
 103:test/../test/ConsumerProducer_CPP_Sync_API_test.hpp ****                 Thread::dispatch();
 4611              		.loc 3 103 24
 4612 15d4 9B172700 		slliw	a5,a4,2
 4613 15d8 BB87E700 		addw	a5,a5,a4
 103:test/../test/ConsumerProducer_CPP_Sync_API_test.hpp ****                 Thread::dispatch();
 4614              		.loc 3 103 19
 4615 15dc BBE7F402 		remw	a5,s1,a5
 103:test/../test/ConsumerProducer_CPP_Sync_API_test.hpp ****                 Thread::dispatch();
 4616              		.loc 3 103 13
 4617 15e0 E38607FA 		beqz	a5,.L247
 4618              	.L243:
 107:test/../test/ConsumerProducer_CPP_Sync_API_test.hpp ****                 putc('\n');
 4619              		.loc 3 107 13 is_stmt 1
 107:test/../test/ConsumerProducer_CPP_Sync_API_test.hpp ****                 putc('\n');
 4620              		.loc 3 107 19 is_stmt 0
 4621 15e4 93070005 		li	a5,80
 4622 15e8 BBE4F402 		remw	s1,s1,a5
 4623              	.LVL501:
 107:test/../test/ConsumerProducer_CPP_Sync_API_test.hpp ****                 putc('\n');
 4624              		.loc 3 107 13
 4625 15ec E39C04FA 		bnez	s1,.L241
 4626 15f0 6FF09FFA 		j	.L248
GAS LISTING /tmp/cc5eykcM.s 			page 112


 4627              	.L249:
 4628              	.LBE213:
 4629              	.LBB214:
 109:test/../test/ConsumerProducer_CPP_Sync_API_test.hpp ****             }
 110:test/../test/ConsumerProducer_CPP_Sync_API_test.hpp ****         }
 111:test/../test/ConsumerProducer_CPP_Sync_API_test.hpp **** 
 112:test/../test/ConsumerProducer_CPP_Sync_API_test.hpp **** 
 113:test/../test/ConsumerProducer_CPP_Sync_API_test.hpp ****         while (td->buffer->getCnt() > 0) {
 114:test/../test/ConsumerProducer_CPP_Sync_API_test.hpp ****             int key = td->buffer->get();
 4630              		.loc 3 114 13 is_stmt 1
 4631              		.loc 3 114 23 is_stmt 0
 4632 15f4 83B70901 		ld	a5,16(s3)
 4633              		.loc 3 114 38
 4634 15f8 03B58700 		ld	a0,8(a5)
 4635 15fc 97000000 		call	_ZN9BufferCPP3getEv@plt
 4635      E7800000 
 4636              	.LVL502:
 115:test/../test/ConsumerProducer_CPP_Sync_API_test.hpp ****             Console::putc(key);
 4637              		.loc 3 115 13 is_stmt 1
 4638              		.loc 3 115 26 is_stmt 0
 4639 1604 1375F50F 		andi	a0,a0,0xff
 4640              	.LVL503:
 4641 1608 97000000 		call	_ZN7Console4putcEc@plt
 4641      E7800000 
 4642              	.LVL504:
 4643              	.L242:
 4644              	.LBE214:
 113:test/../test/ConsumerProducer_CPP_Sync_API_test.hpp ****             int key = td->buffer->get();
 4645              		.loc 3 113 9 is_stmt 1
 113:test/../test/ConsumerProducer_CPP_Sync_API_test.hpp ****             int key = td->buffer->get();
 4646              		.loc 3 113 37
 113:test/../test/ConsumerProducer_CPP_Sync_API_test.hpp ****             int key = td->buffer->get();
 4647              		.loc 3 113 16 is_stmt 0
 4648 1610 83B70901 		ld	a5,16(s3)
 113:test/../test/ConsumerProducer_CPP_Sync_API_test.hpp ****             int key = td->buffer->get();
 4649              		.loc 3 113 34
 4650 1614 03B58700 		ld	a0,8(a5)
 4651 1618 97000000 		call	_ZN9BufferCPP6getCntEv@plt
 4651      E7800000 
 4652              	.LVL505:
 113:test/../test/ConsumerProducer_CPP_Sync_API_test.hpp ****             int key = td->buffer->get();
 4653              		.loc 3 113 37
 4654 1620 E34AA0FC 		bgtz	a0,.L249
 116:test/../test/ConsumerProducer_CPP_Sync_API_test.hpp ****         }
 117:test/../test/ConsumerProducer_CPP_Sync_API_test.hpp **** 
 118:test/../test/ConsumerProducer_CPP_Sync_API_test.hpp ****         data->wait->signal();
 4655              		.loc 3 118 9 is_stmt 1
 4656              		.loc 3 118 27 is_stmt 0
 4657 1624 03350901 		ld	a0,16(s2)
 4658 1628 97000000 		call	_ZN9Semaphore6signalEv@plt
 4658      E7800000 
 4659              	.LVL506:
 119:test/../test/ConsumerProducer_CPP_Sync_API_test.hpp ****     }
 4660              		.loc 3 119 5
 4661 1630 83308102 		ld	ra,40(sp)
 4662              		.cfi_restore 1
 4663 1634 03340102 		ld	s0,32(sp)
GAS LISTING /tmp/cc5eykcM.s 			page 113


 4664              		.cfi_restore 8
 4665              		.cfi_def_cfa 2, 48
 4666 1638 83348101 		ld	s1,24(sp)
 4667              		.cfi_restore 9
 4668 163c 03390101 		ld	s2,16(sp)
 4669              		.cfi_restore 18
 4670              	.LVL507:
 4671 1640 83398100 		ld	s3,8(sp)
 4672              		.cfi_restore 19
 4673              	.LVL508:
 4674 1644 033A0100 		ld	s4,0(sp)
 4675              		.cfi_restore 20
 4676              	.LVL509:
 4677 1648 13010103 		addi	sp,sp,48
 4678              		.cfi_def_cfa_offset 0
 4679 164c 67800000 		jr	ra
 4680              		.cfi_endproc
 4681              	.LFE94:
 4683              		.section	.text._ZN34ConsumerProducer_CPP_Sync_API_test8Consumer3runEv,"axG",@progbits,_ZN34Consume
 4684              		.align	2
 4685              		.weak	_ZN34ConsumerProducer_CPP_Sync_API_test8Consumer3runEv
 4687              	_ZN34ConsumerProducer_CPP_Sync_API_test8Consumer3runEv:
 4688              	.LFB93:
  88:test/../test/ConsumerProducer_CPP_Sync_API_test.hpp ****             consumer(td);
 4689              		.loc 3 88 14 is_stmt 1
 4690              		.cfi_startproc
 4691              	.LVL510:
 4692 0000 130101FF 		addi	sp,sp,-16
 4693              		.cfi_def_cfa_offset 16
 4694 0004 23341100 		sd	ra,8(sp)
 4695 0008 23308100 		sd	s0,0(sp)
 4696              		.cfi_offset 1, -8
 4697              		.cfi_offset 8, -16
 4698 000c 13040101 		addi	s0,sp,16
 4699              		.cfi_def_cfa 8, 0
  89:test/../test/ConsumerProducer_CPP_Sync_API_test.hpp ****         }
 4700              		.loc 3 89 13
  89:test/../test/ConsumerProducer_CPP_Sync_API_test.hpp ****         }
 4701              		.loc 3 89 21 is_stmt 0
 4702 0010 83350501 		ld	a1,16(a0)
 4703 0014 97000000 		call	_ZN34ConsumerProducer_CPP_Sync_API_test8Consumer8consumerEPv
 4703      E7800000 
 4704              	.LVL511:
  90:test/../test/ConsumerProducer_CPP_Sync_API_test.hpp ****     };
 4705              		.loc 3 90 9
 4706 001c 83308100 		ld	ra,8(sp)
 4707              		.cfi_restore 1
 4708 0020 03340100 		ld	s0,0(sp)
 4709              		.cfi_restore 8
 4710              		.cfi_def_cfa 2, 16
 4711 0024 13010101 		addi	sp,sp,16
 4712              		.cfi_def_cfa_offset 0
 4713 0028 67800000 		jr	ra
 4714              		.cfi_endproc
 4715              	.LFE93:
 4717              		.text
 4718              		.align	2
GAS LISTING /tmp/cc5eykcM.s 			page 114


 4719              		.globl	_ZN34ConsumerProducer_CPP_Sync_API_test29producerConsumer_CPP_Sync_APIEv
 4721              	_ZN34ConsumerProducer_CPP_Sync_API_test29producerConsumer_CPP_Sync_APIEv:
 4722              	.LFB95:
 120:test/../test/ConsumerProducer_CPP_Sync_API_test.hpp **** 
 121:test/../test/ConsumerProducer_CPP_Sync_API_test.hpp ****     void producerConsumer_CPP_Sync_API() {
 4723              		.loc 3 121 42 is_stmt 1
 4724              		.cfi_startproc
 4725              		.cfi_personality 0x9b,DW.ref.__gxx_personality_v0
 4726              		.cfi_lsda 0x1b,.LLSDA95
 4727 1650 130101F8 		addi	sp,sp,-128
 4728              		.cfi_def_cfa_offset 128
 4729 1654 233C1106 		sd	ra,120(sp)
 4730 1658 23388106 		sd	s0,112(sp)
 4731 165c 23349106 		sd	s1,104(sp)
 4732 1660 23302107 		sd	s2,96(sp)
 4733 1664 233C3105 		sd	s3,88(sp)
 4734 1668 23384105 		sd	s4,80(sp)
 4735 166c 23345105 		sd	s5,72(sp)
 4736 1670 23306105 		sd	s6,64(sp)
 4737 1674 233C7103 		sd	s7,56(sp)
 4738 1678 23388103 		sd	s8,48(sp)
 4739 167c 23349103 		sd	s9,40(sp)
 4740              		.cfi_offset 1, -8
 4741              		.cfi_offset 8, -16
 4742              		.cfi_offset 9, -24
 4743              		.cfi_offset 18, -32
 4744              		.cfi_offset 19, -40
 4745              		.cfi_offset 20, -48
 4746              		.cfi_offset 21, -56
 4747              		.cfi_offset 22, -64
 4748              		.cfi_offset 23, -72
 4749              		.cfi_offset 24, -80
 4750              		.cfi_offset 25, -88
 4751 1680 13040108 		addi	s0,sp,128
 4752              		.cfi_def_cfa 8, 0
 122:test/../test/ConsumerProducer_CPP_Sync_API_test.hpp ****         char input[30];
 123:test/../test/ConsumerProducer_CPP_Sync_API_test.hpp ****         int n, threadNum;
 124:test/../test/ConsumerProducer_CPP_Sync_API_test.hpp **** 
 125:test/../test/ConsumerProducer_CPP_Sync_API_test.hpp ****         printString("Unesite broj proizvodjaca?\n");
 126:test/../test/ConsumerProducer_CPP_Sync_API_test.hpp ****         getString(input, 30);
 127:test/../test/ConsumerProducer_CPP_Sync_API_test.hpp ****         threadNum = stringToInt(input);
 128:test/../test/ConsumerProducer_CPP_Sync_API_test.hpp **** 
 129:test/../test/ConsumerProducer_CPP_Sync_API_test.hpp ****         printString("Unesite velicinu bafera?\n");
 130:test/../test/ConsumerProducer_CPP_Sync_API_test.hpp ****         getString(input, 30);
 131:test/../test/ConsumerProducer_CPP_Sync_API_test.hpp ****         n = stringToInt(input);
 132:test/../test/ConsumerProducer_CPP_Sync_API_test.hpp **** 
 133:test/../test/ConsumerProducer_CPP_Sync_API_test.hpp ****         printString("Broj proizvodjaca "); printInt(threadNum);
 134:test/../test/ConsumerProducer_CPP_Sync_API_test.hpp ****         printString(" i velicina bafera "); printInt(n);
 135:test/../test/ConsumerProducer_CPP_Sync_API_test.hpp ****         printString(".\n");
 136:test/../test/ConsumerProducer_CPP_Sync_API_test.hpp **** 
 137:test/../test/ConsumerProducer_CPP_Sync_API_test.hpp ****         if(threadNum > n) {
 138:test/../test/ConsumerProducer_CPP_Sync_API_test.hpp ****             printString("Broj proizvodjaca ne sme biti manji od velicine bafera!\n");
 139:test/../test/ConsumerProducer_CPP_Sync_API_test.hpp ****             return;
 140:test/../test/ConsumerProducer_CPP_Sync_API_test.hpp ****         } else if (threadNum < 1) {
 141:test/../test/ConsumerProducer_CPP_Sync_API_test.hpp ****             printString("Broj proizvodjaca mora biti veci od nula!\n");
 142:test/../test/ConsumerProducer_CPP_Sync_API_test.hpp ****             return;
 143:test/../test/ConsumerProducer_CPP_Sync_API_test.hpp ****         }
GAS LISTING /tmp/cc5eykcM.s 			page 115


 144:test/../test/ConsumerProducer_CPP_Sync_API_test.hpp **** 
 145:test/../test/ConsumerProducer_CPP_Sync_API_test.hpp ****         BufferCPP *buffer = new BufferCPP(n);
 146:test/../test/ConsumerProducer_CPP_Sync_API_test.hpp **** 
 147:test/../test/ConsumerProducer_CPP_Sync_API_test.hpp ****         waitForAll = new Semaphore(0);
 148:test/../test/ConsumerProducer_CPP_Sync_API_test.hpp **** 
 149:test/../test/ConsumerProducer_CPP_Sync_API_test.hpp ****         Thread* threads[threadNum];
 150:test/../test/ConsumerProducer_CPP_Sync_API_test.hpp ****         Thread* consumerThread;
 151:test/../test/ConsumerProducer_CPP_Sync_API_test.hpp **** 
 152:test/../test/ConsumerProducer_CPP_Sync_API_test.hpp ****         struct thread_data data[threadNum + 1];
 153:test/../test/ConsumerProducer_CPP_Sync_API_test.hpp **** 
 154:test/../test/ConsumerProducer_CPP_Sync_API_test.hpp ****         data[threadNum].id = threadNum;
 155:test/../test/ConsumerProducer_CPP_Sync_API_test.hpp ****         data[threadNum].buffer = buffer;
 156:test/../test/ConsumerProducer_CPP_Sync_API_test.hpp ****         data[threadNum].wait = waitForAll;
 157:test/../test/ConsumerProducer_CPP_Sync_API_test.hpp ****         consumerThread = new Consumer(data+threadNum);
 158:test/../test/ConsumerProducer_CPP_Sync_API_test.hpp ****         consumerThread->start();
 159:test/../test/ConsumerProducer_CPP_Sync_API_test.hpp **** 
 160:test/../test/ConsumerProducer_CPP_Sync_API_test.hpp ****         for (int i = 0; i < threadNum; i++) {
 161:test/../test/ConsumerProducer_CPP_Sync_API_test.hpp ****             data[i].id = i;
 162:test/../test/ConsumerProducer_CPP_Sync_API_test.hpp ****             data[i].buffer = buffer;
 163:test/../test/ConsumerProducer_CPP_Sync_API_test.hpp ****             data[i].wait = waitForAll;
 164:test/../test/ConsumerProducer_CPP_Sync_API_test.hpp **** 
 165:test/../test/ConsumerProducer_CPP_Sync_API_test.hpp ****             if(i>0) {
 166:test/../test/ConsumerProducer_CPP_Sync_API_test.hpp ****                 threads[i] = new Producer(data+i);
 167:test/../test/ConsumerProducer_CPP_Sync_API_test.hpp ****             } else {
 168:test/../test/ConsumerProducer_CPP_Sync_API_test.hpp ****                 threads[i] = new ProducerKeyboard(data+i);
 169:test/../test/ConsumerProducer_CPP_Sync_API_test.hpp ****             }
 170:test/../test/ConsumerProducer_CPP_Sync_API_test.hpp **** 
 171:test/../test/ConsumerProducer_CPP_Sync_API_test.hpp ****             threads[i]->start();
 172:test/../test/ConsumerProducer_CPP_Sync_API_test.hpp ****         }
 173:test/../test/ConsumerProducer_CPP_Sync_API_test.hpp **** 
 174:test/../test/ConsumerProducer_CPP_Sync_API_test.hpp ****         Thread::dispatch();
 175:test/../test/ConsumerProducer_CPP_Sync_API_test.hpp **** 
 176:test/../test/ConsumerProducer_CPP_Sync_API_test.hpp ****         for (int i = 0; i <= threadNum; i++) {
 177:test/../test/ConsumerProducer_CPP_Sync_API_test.hpp ****             waitForAll->wait();
 178:test/../test/ConsumerProducer_CPP_Sync_API_test.hpp ****         }
 179:test/../test/ConsumerProducer_CPP_Sync_API_test.hpp **** 
 180:test/../test/ConsumerProducer_CPP_Sync_API_test.hpp ****         for (int i = 0; i < threadNum; i++) {
 181:test/../test/ConsumerProducer_CPP_Sync_API_test.hpp ****             delete threads[i];
 182:test/../test/ConsumerProducer_CPP_Sync_API_test.hpp ****         }
 183:test/../test/ConsumerProducer_CPP_Sync_API_test.hpp ****         delete consumerThread;
 184:test/../test/ConsumerProducer_CPP_Sync_API_test.hpp ****         delete waitForAll;
 185:test/../test/ConsumerProducer_CPP_Sync_API_test.hpp ****         delete buffer;
 4753              		.loc 3 185 22 is_stmt 0
 4754 1684 930B0100 		mv	s7,sp
 122:test/../test/ConsumerProducer_CPP_Sync_API_test.hpp ****         char input[30];
 4755              		.loc 3 122 9 is_stmt 1
 123:test/../test/ConsumerProducer_CPP_Sync_API_test.hpp **** 
 4756              		.loc 3 123 9
 125:test/../test/ConsumerProducer_CPP_Sync_API_test.hpp ****         getString(input, 30);
 4757              		.loc 3 125 9
 125:test/../test/ConsumerProducer_CPP_Sync_API_test.hpp ****         getString(input, 30);
 4758              		.loc 3 125 20 is_stmt 0
 4759 1688 17050000 		lla	a0,.LC21
 4759      13050500 
 4760              	.LEHB17:
 4761 1690 97000000 		call	_Z11printStringPKc@plt
 4761      E7800000 
GAS LISTING /tmp/cc5eykcM.s 			page 116


 4762              	.LVL512:
 126:test/../test/ConsumerProducer_CPP_Sync_API_test.hpp ****         threadNum = stringToInt(input);
 4763              		.loc 3 126 9 is_stmt 1
 126:test/../test/ConsumerProducer_CPP_Sync_API_test.hpp ****         threadNum = stringToInt(input);
 4764              		.loc 3 126 18 is_stmt 0
 4765 1698 9305E001 		li	a1,30
 4766 169c 930404F8 		addi	s1,s0,-128
 4767 16a0 13850400 		mv	a0,s1
 4768 16a4 97000000 		call	_Z9getStringPci@plt
 4768      E7800000 
 4769              	.LVL513:
 127:test/../test/ConsumerProducer_CPP_Sync_API_test.hpp **** 
 4770              		.loc 3 127 9 is_stmt 1
 127:test/../test/ConsumerProducer_CPP_Sync_API_test.hpp **** 
 4771              		.loc 3 127 32 is_stmt 0
 4772 16ac 13850400 		mv	a0,s1
 4773 16b0 97000000 		call	_Z11stringToIntPKc@plt
 4773      E7800000 
 4774              	.LVL514:
 4775 16b8 13090500 		mv	s2,a0
 4776              	.LVL515:
 129:test/../test/ConsumerProducer_CPP_Sync_API_test.hpp ****         getString(input, 30);
 4777              		.loc 3 129 9 is_stmt 1
 129:test/../test/ConsumerProducer_CPP_Sync_API_test.hpp ****         getString(input, 30);
 4778              		.loc 3 129 20 is_stmt 0
 4779 16bc 17050000 		lla	a0,.LC22
 4779      13050500 
 4780 16c4 97000000 		call	_Z11printStringPKc@plt
 4780      E7800000 
 4781              	.LVL516:
 130:test/../test/ConsumerProducer_CPP_Sync_API_test.hpp ****         n = stringToInt(input);
 4782              		.loc 3 130 9 is_stmt 1
 130:test/../test/ConsumerProducer_CPP_Sync_API_test.hpp ****         n = stringToInt(input);
 4783              		.loc 3 130 18 is_stmt 0
 4784 16cc 9305E001 		li	a1,30
 4785 16d0 13850400 		mv	a0,s1
 4786 16d4 97000000 		call	_Z9getStringPci@plt
 4786      E7800000 
 4787              	.LVL517:
 131:test/../test/ConsumerProducer_CPP_Sync_API_test.hpp **** 
 4788              		.loc 3 131 9 is_stmt 1
 131:test/../test/ConsumerProducer_CPP_Sync_API_test.hpp **** 
 4789              		.loc 3 131 24 is_stmt 0
 4790 16dc 13850400 		mv	a0,s1
 4791 16e0 97000000 		call	_Z11stringToIntPKc@plt
 4791      E7800000 
 4792              	.LVL518:
 4793 16e8 93040500 		mv	s1,a0
 4794              	.LVL519:
 133:test/../test/ConsumerProducer_CPP_Sync_API_test.hpp ****         printString(" i velicina bafera "); printInt(n);
 4795              		.loc 3 133 9 is_stmt 1
 133:test/../test/ConsumerProducer_CPP_Sync_API_test.hpp ****         printString(" i velicina bafera "); printInt(n);
 4796              		.loc 3 133 20 is_stmt 0
 4797 16ec 17050000 		lla	a0,.LC23
 4797      13050500 
 4798 16f4 97000000 		call	_Z11printStringPKc@plt
 4798      E7800000 
GAS LISTING /tmp/cc5eykcM.s 			page 117


 4799              	.LVL520:
 133:test/../test/ConsumerProducer_CPP_Sync_API_test.hpp ****         printString(" i velicina bafera "); printInt(n);
 4800              		.loc 3 133 44 is_stmt 1
 133:test/../test/ConsumerProducer_CPP_Sync_API_test.hpp ****         printString(" i velicina bafera "); printInt(n);
 4801              		.loc 3 133 52 is_stmt 0
 4802 16fc 13060000 		li	a2,0
 4803 1700 9305A000 		li	a1,10
 4804 1704 13050900 		mv	a0,s2
 4805 1708 97000000 		call	_Z8printIntiii@plt
 4805      E7800000 
 4806              	.LVL521:
 134:test/../test/ConsumerProducer_CPP_Sync_API_test.hpp ****         printString(".\n");
 4807              		.loc 3 134 9 is_stmt 1
 134:test/../test/ConsumerProducer_CPP_Sync_API_test.hpp ****         printString(".\n");
 4808              		.loc 3 134 20 is_stmt 0
 4809 1710 17050000 		lla	a0,.LC24
 4809      13050500 
 4810 1718 97000000 		call	_Z11printStringPKc@plt
 4810      E7800000 
 4811              	.LVL522:
 134:test/../test/ConsumerProducer_CPP_Sync_API_test.hpp ****         printString(".\n");
 4812              		.loc 3 134 45 is_stmt 1
 134:test/../test/ConsumerProducer_CPP_Sync_API_test.hpp ****         printString(".\n");
 4813              		.loc 3 134 53 is_stmt 0
 4814 1720 13060000 		li	a2,0
 4815 1724 9305A000 		li	a1,10
 4816 1728 13850400 		mv	a0,s1
 4817 172c 97000000 		call	_Z8printIntiii@plt
 4817      E7800000 
 4818              	.LVL523:
 135:test/../test/ConsumerProducer_CPP_Sync_API_test.hpp **** 
 4819              		.loc 3 135 9 is_stmt 1
 135:test/../test/ConsumerProducer_CPP_Sync_API_test.hpp **** 
 4820              		.loc 3 135 20 is_stmt 0
 4821 1734 17050000 		lla	a0,.LC25
 4821      13050500 
 4822 173c 97000000 		call	_Z11printStringPKc@plt
 4822      E7800000 
 4823              	.LVL524:
 137:test/../test/ConsumerProducer_CPP_Sync_API_test.hpp ****             printString("Broj proizvodjaca ne sme biti manji od velicine bafera!\n");
 4824              		.loc 3 137 9 is_stmt 1
 4825 1744 63C62403 		bgt	s2,s1,.L285
 140:test/../test/ConsumerProducer_CPP_Sync_API_test.hpp ****             printString("Broj proizvodjaca mora biti veci od nula!\n");
 4826              		.loc 3 140 16
 4827 1748 635E2003 		blez	s2,.L286
 145:test/../test/ConsumerProducer_CPP_Sync_API_test.hpp **** 
 4828              		.loc 3 145 9
 145:test/../test/ConsumerProducer_CPP_Sync_API_test.hpp **** 
 4829              		.loc 3 145 44 is_stmt 0
 4830 174c 13058003 		li	a0,56
 4831 1750 97000000 		call	_Znwm@plt
 4831      E7800000 
 4832              	.LVL525:
 4833              	.LEHE17:
 4834 1758 930A0500 		mv	s5,a0
 4835 175c 63000504 		beqz	a0,.L256
 145:test/../test/ConsumerProducer_CPP_Sync_API_test.hpp **** 
GAS LISTING /tmp/cc5eykcM.s 			page 118


 4836              		.loc 3 145 44 discriminator 2
 4837 1760 93850400 		mv	a1,s1
 4838              	.LEHB18:
 4839 1764 97000000 		call	_ZN9BufferCPPC1Ei@plt
 4839      E7800000 
 4840              	.LVL526:
 4841              	.LEHE18:
 4842 176c 6F000003 		j	.L256
 4843              	.L285:
 138:test/../test/ConsumerProducer_CPP_Sync_API_test.hpp ****             return;
 4844              		.loc 3 138 13 is_stmt 1
 138:test/../test/ConsumerProducer_CPP_Sync_API_test.hpp ****             return;
 4845              		.loc 3 138 24 is_stmt 0
 4846 1770 17050000 		lla	a0,.LC26
 4846      13050500 
 4847              	.LEHB19:
 4848 1778 97000000 		call	_Z11printStringPKc@plt
 4848      E7800000 
 4849              	.LVL527:
 139:test/../test/ConsumerProducer_CPP_Sync_API_test.hpp ****         } else if (threadNum < 1) {
 4850              		.loc 3 139 13 is_stmt 1
 4851 1780 6F004001 		j	.L254
 4852              	.L286:
 141:test/../test/ConsumerProducer_CPP_Sync_API_test.hpp ****             return;
 4853              		.loc 3 141 13
 141:test/../test/ConsumerProducer_CPP_Sync_API_test.hpp ****             return;
 4854              		.loc 3 141 24 is_stmt 0
 4855 1784 17050000 		lla	a0,.LC27
 4855      13050500 
 4856 178c 97000000 		call	_Z11printStringPKc@plt
 4856      E7800000 
 4857              	.LVL528:
 142:test/../test/ConsumerProducer_CPP_Sync_API_test.hpp ****         }
 4858              		.loc 3 142 13 is_stmt 1
 4859              	.L254:
 4860 1794 13810B00 		mv	sp,s7
 4861 1798 6F004025 		j	.L252
 4862              	.L256:
 4863              	.LVL529:
 147:test/../test/ConsumerProducer_CPP_Sync_API_test.hpp **** 
 4864              		.loc 3 147 9 discriminator 7
 147:test/../test/ConsumerProducer_CPP_Sync_API_test.hpp **** 
 4865              		.loc 3 147 37 is_stmt 0 discriminator 7
 4866 179c 13050001 		li	a0,16
 4867 17a0 97000000 		call	_Znwm@plt
 4867      E7800000 
 4868              	.LVL530:
 4869              	.LEHE19:
 4870 17a8 93040500 		mv	s1,a0
 4871              	.LVL531:
 4872 17ac 63080500 		beqz	a0,.L257
 147:test/../test/ConsumerProducer_CPP_Sync_API_test.hpp **** 
 4873              		.loc 3 147 37 discriminator 2
 4874 17b0 93050000 		li	a1,0
 4875              	.LEHB20:
 4876 17b4 97000000 		call	_ZN9SemaphoreC1Ej@plt
 4876      E7800000 
GAS LISTING /tmp/cc5eykcM.s 			page 119


 4877              	.LVL532:
 4878              	.LEHE20:
 4879              	.L257:
 147:test/../test/ConsumerProducer_CPP_Sync_API_test.hpp **** 
 4880              		.loc 3 147 20 discriminator 7
 4881 17bc 17070000 		lla	a4,.LANCHOR0
 4881      13070700 
 4882 17c4 23349702 		sd	s1,40(a4)
 149:test/../test/ConsumerProducer_CPP_Sync_API_test.hpp ****         Thread* consumerThread;
 4883              		.loc 3 149 9 is_stmt 1 discriminator 7
 4884              	.LVL533:
 149:test/../test/ConsumerProducer_CPP_Sync_API_test.hpp ****         Thread* consumerThread;
 4885              		.loc 3 149 17 is_stmt 0 discriminator 7
 4886 17c8 93173900 		slli	a5,s2,3
 4887 17cc 9387F700 		addi	a5,a5,15
 4888 17d0 93F707FF 		andi	a5,a5,-16
 4889 17d4 3301F140 		sub	sp,sp,a5
 4890 17d8 93090100 		mv	s3,sp
 4891              	.LVL534:
 150:test/../test/ConsumerProducer_CPP_Sync_API_test.hpp **** 
 4892              		.loc 3 150 9 is_stmt 1 discriminator 7
 152:test/../test/ConsumerProducer_CPP_Sync_API_test.hpp **** 
 4893              		.loc 3 152 9 discriminator 7
 152:test/../test/ConsumerProducer_CPP_Sync_API_test.hpp **** 
 4894              		.loc 3 152 43 is_stmt 0 discriminator 7
 4895 17dc 9B061900 		addiw	a3,s2,1
 4896              	.LVL535:
 152:test/../test/ConsumerProducer_CPP_Sync_API_test.hpp **** 
 4897              		.loc 3 152 28 discriminator 7
 4898 17e0 93971600 		slli	a5,a3,1
 4899 17e4 B387D700 		add	a5,a5,a3
 4900 17e8 93973700 		slli	a5,a5,3
 4901 17ec 9387F700 		addi	a5,a5,15
 4902 17f0 93F707FF 		andi	a5,a5,-16
 4903 17f4 3301F140 		sub	sp,sp,a5
 4904              	.LVL536:
 4905 17f8 130A0100 		mv	s4,sp
 4906              	.LVL537:
 154:test/../test/ConsumerProducer_CPP_Sync_API_test.hpp ****         data[threadNum].buffer = buffer;
 4907              		.loc 3 154 9 is_stmt 1 discriminator 7
 154:test/../test/ConsumerProducer_CPP_Sync_API_test.hpp ****         data[threadNum].buffer = buffer;
 4908              		.loc 3 154 28 is_stmt 0 discriminator 7
 4909 17fc 93171900 		slli	a5,s2,1
 4910 1800 B3872701 		add	a5,a5,s2
 4911 1804 93973700 		slli	a5,a5,3
 4912 1808 B307FA00 		add	a5,s4,a5
 4913 180c 23A02701 		sw	s2,0(a5)
 155:test/../test/ConsumerProducer_CPP_Sync_API_test.hpp ****         data[threadNum].wait = waitForAll;
 4914              		.loc 3 155 9 is_stmt 1 discriminator 7
 155:test/../test/ConsumerProducer_CPP_Sync_API_test.hpp ****         data[threadNum].wait = waitForAll;
 4915              		.loc 3 155 32 is_stmt 0 discriminator 7
 4916 1810 23B45701 		sd	s5,8(a5)
 156:test/../test/ConsumerProducer_CPP_Sync_API_test.hpp ****         consumerThread = new Consumer(data+threadNum);
 4917              		.loc 3 156 9 is_stmt 1 discriminator 7
 156:test/../test/ConsumerProducer_CPP_Sync_API_test.hpp ****         consumerThread = new Consumer(data+threadNum);
 4918              		.loc 3 156 30 is_stmt 0 discriminator 7
 4919 1814 03378702 		ld	a4,40(a4)
GAS LISTING /tmp/cc5eykcM.s 			page 120


 4920 1818 23B8E700 		sd	a4,16(a5)
 157:test/../test/ConsumerProducer_CPP_Sync_API_test.hpp ****         consumerThread->start();
 4921              		.loc 3 157 9 is_stmt 1 discriminator 7
 157:test/../test/ConsumerProducer_CPP_Sync_API_test.hpp ****         consumerThread->start();
 4922              		.loc 3 157 53 is_stmt 0 discriminator 7
 4923 181c 13058001 		li	a0,24
 4924              	.LEHB21:
 4925 1820 97000000 		call	_Znwm@plt
 4925      E7800000 
 4926              	.LVL538:
 4927              	.LEHE21:
 4928 1828 130B0500 		mv	s6,a0
 157:test/../test/ConsumerProducer_CPP_Sync_API_test.hpp ****         consumerThread->start();
 4929              		.loc 3 157 26 discriminator 7
 4930 182c 63060502 		beqz	a0,.L258
 157:test/../test/ConsumerProducer_CPP_Sync_API_test.hpp ****         consumerThread->start();
 4931              		.loc 3 157 43 discriminator 2
 4932 1830 93141900 		slli	s1,s2,1
 4933 1834 B3842401 		add	s1,s1,s2
 4934 1838 93943400 		slli	s1,s1,3
 157:test/../test/ConsumerProducer_CPP_Sync_API_test.hpp ****         consumerThread->start();
 4935              		.loc 3 157 53 discriminator 2
 4936 183c B3049A00 		add	s1,s4,s1
 4937              	.LVL539:
 4938              	.LEHB22:
 4939              	.LBB215:
 4940              	.LBB216:
  86:test/../test/ConsumerProducer_CPP_Sync_API_test.hpp **** 
 4941              		.loc 3 86 52 discriminator 2
 4942 1840 97000000 		call	_ZN6ThreadC2Ev@plt
 4942      E7800000 
 4943              	.LVL540:
 4944              	.LEHE22:
  86:test/../test/ConsumerProducer_CPP_Sync_API_test.hpp **** 
 4945              		.loc 3 86 52
 4946 1848 97070000 		lla	a5,_ZTVN34ConsumerProducer_CPP_Sync_API_test8ConsumerE+16
 4946      93870700 
 4947 1850 2330FB00 		sd	a5,0(s6)
 4948 1854 23389B00 		sd	s1,16(s6)
 4949              	.LVL541:
 4950              	.L258:
 4951              	.LBE216:
 4952              	.LBE215:
 158:test/../test/ConsumerProducer_CPP_Sync_API_test.hpp **** 
 4953              		.loc 3 158 9 is_stmt 1 discriminator 7
 158:test/../test/ConsumerProducer_CPP_Sync_API_test.hpp **** 
 4954              		.loc 3 158 30 is_stmt 0 discriminator 7
 4955 1858 13050B00 		mv	a0,s6
 4956              	.LEHB23:
 4957 185c 97000000 		call	_ZN6Thread5startEv@plt
 4957      E7800000 
 4958              	.LVL542:
 4959              	.LBB217:
 160:test/../test/ConsumerProducer_CPP_Sync_API_test.hpp ****             data[i].id = i;
 4960              		.loc 3 160 18 discriminator 7
 4961 1864 93040000 		li	s1,0
 4962 1868 6F008003 		j	.L264
GAS LISTING /tmp/cc5eykcM.s 			page 121


 4963              	.LVL543:
 4964              	.L287:
 4965              	.LBB218:
 4966              	.LBB219:
  59:test/../test/ConsumerProducer_CPP_Sync_API_test.hpp **** 
 4967              		.loc 3 59 52
 4968 186c 97070000 		lla	a5,_ZTVN34ConsumerProducer_CPP_Sync_API_test8ProducerE+16
 4968      93870700 
 4969 1874 2330FC00 		sd	a5,0(s8)
 4970 1878 23389C01 		sd	s9,16(s8)
 4971              	.LVL544:
 4972              	.L261:
 4973              	.LBE219:
 4974              	.LBE218:
 166:test/../test/ConsumerProducer_CPP_Sync_API_test.hpp ****             } else {
 4975              		.loc 3 166 28 discriminator 7
 4976 187c 93973400 		slli	a5,s1,3
 4977 1880 B387F900 		add	a5,s3,a5
 4978 1884 23B08701 		sd	s8,0(a5)
 4979              	.L262:
 171:test/../test/ConsumerProducer_CPP_Sync_API_test.hpp ****         }
 4980              		.loc 3 171 13 is_stmt 1
 171:test/../test/ConsumerProducer_CPP_Sync_API_test.hpp ****         }
 4981              		.loc 3 171 22 is_stmt 0
 4982 1888 93973400 		slli	a5,s1,3
 4983 188c B387F900 		add	a5,s3,a5
 171:test/../test/ConsumerProducer_CPP_Sync_API_test.hpp ****         }
 4984              		.loc 3 171 30
 4985 1890 03B50700 		ld	a0,0(a5)
 4986 1894 97000000 		call	_ZN6Thread5startEv@plt
 4986      E7800000 
 4987              	.LVL545:
 160:test/../test/ConsumerProducer_CPP_Sync_API_test.hpp ****             data[i].id = i;
 4988              		.loc 3 160 9 is_stmt 1
 4989 189c 9B841400 		addiw	s1,s1,1
 4990              	.LVL546:
 4991              	.L264:
 160:test/../test/ConsumerProducer_CPP_Sync_API_test.hpp ****             data[i].id = i;
 4992              		.loc 3 160 27 discriminator 1
 4993 18a0 63D4240B 		bge	s1,s2,.L259
 161:test/../test/ConsumerProducer_CPP_Sync_API_test.hpp ****             data[i].buffer = buffer;
 4994              		.loc 3 161 13
 161:test/../test/ConsumerProducer_CPP_Sync_API_test.hpp ****             data[i].buffer = buffer;
 4995              		.loc 3 161 24 is_stmt 0
 4996 18a4 93971400 		slli	a5,s1,1
 4997 18a8 B3879700 		add	a5,a5,s1
 4998 18ac 93973700 		slli	a5,a5,3
 4999 18b0 B307FA00 		add	a5,s4,a5
 5000 18b4 23A09700 		sw	s1,0(a5)
 162:test/../test/ConsumerProducer_CPP_Sync_API_test.hpp ****             data[i].wait = waitForAll;
 5001              		.loc 3 162 13 is_stmt 1
 162:test/../test/ConsumerProducer_CPP_Sync_API_test.hpp ****             data[i].wait = waitForAll;
 5002              		.loc 3 162 28 is_stmt 0
 5003 18b8 23B45701 		sd	s5,8(a5)
 163:test/../test/ConsumerProducer_CPP_Sync_API_test.hpp **** 
 5004              		.loc 3 163 13 is_stmt 1
 163:test/../test/ConsumerProducer_CPP_Sync_API_test.hpp **** 
GAS LISTING /tmp/cc5eykcM.s 			page 122


 5005              		.loc 3 163 26 is_stmt 0
 5006 18bc 17070000 		ld	a4,.LANCHOR0+40
 5006      03370700 
 5007 18c4 23B8E700 		sd	a4,16(a5)
 165:test/../test/ConsumerProducer_CPP_Sync_API_test.hpp ****                 threads[i] = new Producer(data+i);
 5008              		.loc 3 165 13 is_stmt 1
 5009 18c8 635A9002 		blez	s1,.L260
 166:test/../test/ConsumerProducer_CPP_Sync_API_test.hpp ****             } else {
 5010              		.loc 3 166 17
 166:test/../test/ConsumerProducer_CPP_Sync_API_test.hpp ****             } else {
 5011              		.loc 3 166 49 is_stmt 0
 5012 18cc 13058001 		li	a0,24
 5013 18d0 97000000 		call	_Znwm@plt
 5013      E7800000 
 5014              	.LVL547:
 5015              	.LEHE23:
 5016 18d8 130C0500 		mv	s8,a0
 166:test/../test/ConsumerProducer_CPP_Sync_API_test.hpp ****             } else {
 5017              		.loc 3 166 30
 5018 18dc E30005FA 		beqz	a0,.L261
 166:test/../test/ConsumerProducer_CPP_Sync_API_test.hpp ****             } else {
 5019              		.loc 3 166 47 discriminator 2
 5020 18e0 939C1400 		slli	s9,s1,1
 5021 18e4 B38C9C00 		add	s9,s9,s1
 5022 18e8 939C3C00 		slli	s9,s9,3
 166:test/../test/ConsumerProducer_CPP_Sync_API_test.hpp ****             } else {
 5023              		.loc 3 166 49 discriminator 2
 5024 18ec B30C9A01 		add	s9,s4,s9
 5025              	.LVL548:
 5026              	.LEHB24:
 5027              	.LBB221:
 5028              	.LBB220:
  59:test/../test/ConsumerProducer_CPP_Sync_API_test.hpp **** 
 5029              		.loc 3 59 52 discriminator 2
 5030 18f0 97000000 		call	_ZN6ThreadC2Ev@plt
 5030      E7800000 
 5031              	.LVL549:
 5032              	.LEHE24:
 5033 18f8 6FF05FF7 		j	.L287
 5034              	.LVL550:
 5035              	.L260:
 5036              	.LBE220:
 5037              	.LBE221:
 168:test/../test/ConsumerProducer_CPP_Sync_API_test.hpp ****             }
 5038              		.loc 3 168 17 is_stmt 1
 168:test/../test/ConsumerProducer_CPP_Sync_API_test.hpp ****             }
 5039              		.loc 3 168 57 is_stmt 0
 5040 18fc 13058001 		li	a0,24
 5041              	.LEHB25:
 5042 1900 97000000 		call	_Znwm@plt
 5042      E7800000 
 5043              	.LVL551:
 5044              	.LEHE25:
 5045 1908 130C0500 		mv	s8,a0
 168:test/../test/ConsumerProducer_CPP_Sync_API_test.hpp ****             }
 5046              		.loc 3 168 30
 5047 190c 63060502 		beqz	a0,.L263
GAS LISTING /tmp/cc5eykcM.s 			page 123


 168:test/../test/ConsumerProducer_CPP_Sync_API_test.hpp ****             }
 5048              		.loc 3 168 55 discriminator 2
 5049 1910 939C1400 		slli	s9,s1,1
 5050 1914 B38C9C00 		add	s9,s9,s1
 5051 1918 939C3C00 		slli	s9,s9,3
 168:test/../test/ConsumerProducer_CPP_Sync_API_test.hpp ****             }
 5052              		.loc 3 168 57 discriminator 2
 5053 191c B30C9A01 		add	s9,s4,s9
 5054              	.LVL552:
 5055              	.LEHB26:
 5056              	.LBB222:
 5057              	.LBB223:
  28:test/../test/ConsumerProducer_CPP_Sync_API_test.hpp **** 
 5058              		.loc 3 28 60 discriminator 2
 5059 1920 97000000 		call	_ZN6ThreadC2Ev@plt
 5059      E7800000 
 5060              	.LVL553:
 5061              	.LEHE26:
  28:test/../test/ConsumerProducer_CPP_Sync_API_test.hpp **** 
 5062              		.loc 3 28 60
 5063 1928 97070000 		lla	a5,_ZTVN34ConsumerProducer_CPP_Sync_API_test16ProducerKeyboardE+16
 5063      93870700 
 5064 1930 2330FC00 		sd	a5,0(s8)
 5065 1934 23389C01 		sd	s9,16(s8)
 5066              	.LVL554:
 5067              	.L263:
 5068              	.LBE223:
 5069              	.LBE222:
 168:test/../test/ConsumerProducer_CPP_Sync_API_test.hpp ****             }
 5070              		.loc 3 168 28 discriminator 7
 5071 1938 93973400 		slli	a5,s1,3
 5072 193c B387F900 		add	a5,s3,a5
 5073 1940 23B08701 		sd	s8,0(a5)
 5074 1944 6FF05FF4 		j	.L262
 5075              	.L259:
 5076              	.LBE217:
 174:test/../test/ConsumerProducer_CPP_Sync_API_test.hpp **** 
 5077              		.loc 3 174 9 is_stmt 1
 5078              	.LEHB27:
 174:test/../test/ConsumerProducer_CPP_Sync_API_test.hpp **** 
 5079              		.loc 3 174 25 is_stmt 0
 5080 1948 97000000 		call	_ZN6Thread8dispatchEv@plt
 5080      E7800000 
 5081              	.LVL555:
 5082              	.LBB224:
 176:test/../test/ConsumerProducer_CPP_Sync_API_test.hpp ****             waitForAll->wait();
 5083              		.loc 3 176 18
 5084 1950 93040000 		li	s1,0
 5085              	.LVL556:
 5086              	.L266:
 176:test/../test/ConsumerProducer_CPP_Sync_API_test.hpp ****             waitForAll->wait();
 5087              		.loc 3 176 27 is_stmt 1 discriminator 1
 5088 1954 634E9900 		bgt	s1,s2,.L278
 177:test/../test/ConsumerProducer_CPP_Sync_API_test.hpp ****         }
 5089              		.loc 3 177 13
 177:test/../test/ConsumerProducer_CPP_Sync_API_test.hpp ****         }
 5090              		.loc 3 177 29 is_stmt 0
GAS LISTING /tmp/cc5eykcM.s 			page 124


 5091 1958 17050000 		ld	a0,.LANCHOR0+40
 5091      03350500 
 5092 1960 97000000 		call	_ZN9Semaphore4waitEv@plt
 5092      E7800000 
 5093              	.LVL557:
 176:test/../test/ConsumerProducer_CPP_Sync_API_test.hpp ****             waitForAll->wait();
 5094              		.loc 3 176 9 is_stmt 1
 5095 1968 9B841400 		addiw	s1,s1,1
 5096              	.LVL558:
 5097 196c 6FF09FFE 		j	.L266
 5098              	.LVL559:
 5099              	.L278:
 5100              	.LBE224:
 5101              	.LBB225:
 180:test/../test/ConsumerProducer_CPP_Sync_API_test.hpp ****             delete threads[i];
 5102              		.loc 3 180 18 is_stmt 0
 5103 1970 93040000 		li	s1,0
 5104              	.LVL560:
 5105 1974 6F008000 		j	.L265
 5106              	.LVL561:
 5107              	.L268:
 180:test/../test/ConsumerProducer_CPP_Sync_API_test.hpp ****             delete threads[i];
 5108              		.loc 3 180 9 is_stmt 1 discriminator 2
 5109 1978 9B841400 		addiw	s1,s1,1
 5110              	.LVL562:
 5111              	.L265:
 180:test/../test/ConsumerProducer_CPP_Sync_API_test.hpp ****             delete threads[i];
 5112              		.loc 3 180 27 discriminator 1
 5113 197c 63D22403 		bge	s1,s2,.L267
 181:test/../test/ConsumerProducer_CPP_Sync_API_test.hpp ****         }
 5114              		.loc 3 181 13
 181:test/../test/ConsumerProducer_CPP_Sync_API_test.hpp ****         }
 5115              		.loc 3 181 29 is_stmt 0
 5116 1980 93973400 		slli	a5,s1,3
 5117 1984 B387F900 		add	a5,s3,a5
 5118 1988 03B50700 		ld	a0,0(a5)
 181:test/../test/ConsumerProducer_CPP_Sync_API_test.hpp ****         }
 5119              		.loc 3 181 30
 5120 198c E30605FE 		beqz	a0,.L268
 181:test/../test/ConsumerProducer_CPP_Sync_API_test.hpp ****         }
 5121              		.loc 3 181 29 discriminator 1
 5122 1990 83370500 		ld	a5,0(a0)
 5123 1994 83B78700 		ld	a5,8(a5)
 5124 1998 E7800700 		jalr	a5
 5125              	.LVL563:
 5126 199c 6FF0DFFD 		j	.L268
 5127              	.L267:
 5128              	.LBE225:
 183:test/../test/ConsumerProducer_CPP_Sync_API_test.hpp ****         delete waitForAll;
 5129              		.loc 3 183 9 is_stmt 1
 183:test/../test/ConsumerProducer_CPP_Sync_API_test.hpp ****         delete waitForAll;
 5130              		.loc 3 183 30 is_stmt 0
 5131 19a0 630A0B00 		beqz	s6,.L269
 183:test/../test/ConsumerProducer_CPP_Sync_API_test.hpp ****         delete waitForAll;
 5132              		.loc 3 183 16 discriminator 1
 5133 19a4 83370B00 		ld	a5,0(s6)
 5134 19a8 83B78700 		ld	a5,8(a5)
GAS LISTING /tmp/cc5eykcM.s 			page 125


 5135 19ac 13050B00 		mv	a0,s6
 5136 19b0 E7800700 		jalr	a5
 5137              	.LVL564:
 5138              	.L269:
 184:test/../test/ConsumerProducer_CPP_Sync_API_test.hpp ****         delete buffer;
 5139              		.loc 3 184 9 is_stmt 1
 184:test/../test/ConsumerProducer_CPP_Sync_API_test.hpp ****         delete buffer;
 5140              		.loc 3 184 16 is_stmt 0
 5141 19b4 17050000 		ld	a0,.LANCHOR0+40
 5141      03350500 
 184:test/../test/ConsumerProducer_CPP_Sync_API_test.hpp ****         delete buffer;
 5142              		.loc 3 184 26
 5143 19bc 63080500 		beqz	a0,.L270
 184:test/../test/ConsumerProducer_CPP_Sync_API_test.hpp ****         delete buffer;
 5144              		.loc 3 184 16 discriminator 1
 5145 19c0 83370500 		ld	a5,0(a0)
 5146 19c4 83B78700 		ld	a5,8(a5)
 5147 19c8 E7800700 		jalr	a5
 5148              	.LVL565:
 5149              	.L270:
 5150              		.loc 3 185 9 is_stmt 1
 5151              		.loc 3 185 22 is_stmt 0
 5152 19cc 638E0A00 		beqz	s5,.L271
 5153              		.loc 3 185 16 discriminator 1
 5154 19d0 13850A00 		mv	a0,s5
 5155 19d4 97000000 		call	_ZN9BufferCPPD1Ev@plt
 5155      E7800000 
 5156              	.LVL566:
 5157 19dc 13850A00 		mv	a0,s5
 5158 19e0 97000000 		call	_ZdlPv@plt
 5158      E7800000 
 5159              	.LVL567:
 5160              	.LEHE27:
 5161              	.L271:
 5162 19e8 13810B00 		mv	sp,s7
 5163              	.LVL568:
 5164              	.L252:
 186:test/../test/ConsumerProducer_CPP_Sync_API_test.hpp **** 
 187:test/../test/ConsumerProducer_CPP_Sync_API_test.hpp ****     }
 5165              		.loc 3 187 5
 5166 19ec 130104F8 		addi	sp,s0,-128
 5167              		.cfi_remember_state
 5168              		.cfi_def_cfa 2, 128
 5169 19f0 83308107 		ld	ra,120(sp)
 5170              		.cfi_restore 1
 5171 19f4 03340107 		ld	s0,112(sp)
 5172              		.cfi_restore 8
 5173 19f8 83348106 		ld	s1,104(sp)
 5174              		.cfi_restore 9
 5175 19fc 03390106 		ld	s2,96(sp)
 5176              		.cfi_restore 18
 5177              	.LVL569:
 5178 1a00 83398105 		ld	s3,88(sp)
 5179              		.cfi_restore 19
 5180 1a04 033A0105 		ld	s4,80(sp)
 5181              		.cfi_restore 20
 5182 1a08 833A8104 		ld	s5,72(sp)
GAS LISTING /tmp/cc5eykcM.s 			page 126


 5183              		.cfi_restore 21
 5184 1a0c 033B0104 		ld	s6,64(sp)
 5185              		.cfi_restore 22
 5186 1a10 833B8103 		ld	s7,56(sp)
 5187              		.cfi_restore 23
 5188 1a14 033C0103 		ld	s8,48(sp)
 5189              		.cfi_restore 24
 5190 1a18 833C8102 		ld	s9,40(sp)
 5191              		.cfi_restore 25
 5192 1a1c 13010108 		addi	sp,sp,128
 5193              		.cfi_def_cfa_offset 0
 5194 1a20 67800000 		jr	ra
 5195              	.LVL570:
 5196              	.L279:
 5197              		.cfi_restore_state
 5198 1a24 93040500 		mv	s1,a0
 5199              	.LVL571:
 145:test/../test/ConsumerProducer_CPP_Sync_API_test.hpp **** 
 5200              		.loc 3 145 44
 5201 1a28 13850A00 		mv	a0,s5
 5202 1a2c 97000000 		call	_ZdlPv@plt
 5202      E7800000 
 5203              	.LVL572:
 5204 1a34 13850400 		mv	a0,s1
 5205              	.LEHB28:
 5206 1a38 97000000 		call	_Unwind_Resume@plt
 5206      E7800000 
 5207              	.LVL573:
 5208              	.LEHE28:
 5209              	.L280:
 5210 1a40 13090500 		mv	s2,a0
 5211              	.LVL574:
 147:test/../test/ConsumerProducer_CPP_Sync_API_test.hpp **** 
 5212              		.loc 3 147 37
 5213 1a44 13850400 		mv	a0,s1
 5214 1a48 97000000 		call	_ZdlPv@plt
 5214      E7800000 
 5215              	.LVL575:
 5216 1a50 13050900 		mv	a0,s2
 5217              	.LEHB29:
 5218 1a54 97000000 		call	_Unwind_Resume@plt
 5218      E7800000 
 5219              	.LVL576:
 5220              	.LEHE29:
 5221              	.L281:
 5222 1a5c 93040500 		mv	s1,a0
 5223              	.LVL577:
 157:test/../test/ConsumerProducer_CPP_Sync_API_test.hpp ****         consumerThread->start();
 5224              		.loc 3 157 53
 5225 1a60 13050B00 		mv	a0,s6
 5226 1a64 97000000 		call	_ZdlPv@plt
 5226      E7800000 
 5227              	.LVL578:
 5228 1a6c 13850400 		mv	a0,s1
 5229              	.LEHB30:
 5230 1a70 97000000 		call	_Unwind_Resume@plt
 5230      E7800000 
GAS LISTING /tmp/cc5eykcM.s 			page 127


 5231              	.LVL579:
 5232              	.LEHE30:
 5233              	.L282:
 5234 1a78 93040500 		mv	s1,a0
 5235              	.LVL580:
 5236              	.LBB226:
 166:test/../test/ConsumerProducer_CPP_Sync_API_test.hpp ****             } else {
 5237              		.loc 3 166 49
 5238 1a7c 13050C00 		mv	a0,s8
 5239 1a80 97000000 		call	_ZdlPv@plt
 5239      E7800000 
 5240              	.LVL581:
 5241 1a88 13850400 		mv	a0,s1
 5242              	.LEHB31:
 5243 1a8c 97000000 		call	_Unwind_Resume@plt
 5243      E7800000 
 5244              	.LVL582:
 5245              	.LEHE31:
 5246              	.L283:
 5247 1a94 93040500 		mv	s1,a0
 5248              	.LVL583:
 168:test/../test/ConsumerProducer_CPP_Sync_API_test.hpp ****             }
 5249              		.loc 3 168 57
 5250 1a98 13050C00 		mv	a0,s8
 5251 1a9c 97000000 		call	_ZdlPv@plt
 5251      E7800000 
 5252              	.LVL584:
 5253 1aa4 13850400 		mv	a0,s1
 5254              	.LEHB32:
 5255 1aa8 97000000 		call	_Unwind_Resume@plt
 5255      E7800000 
 5256              	.LVL585:
 5257              	.LEHE32:
 5258              	.LBE226:
 5259              		.cfi_endproc
 5260              	.LFE95:
 5261              		.section	.gcc_except_table
 5262              	.LLSDA95:
 5263 00ea FF       		.byte	0xff
 5264 00eb FF       		.byte	0xff
 5265 00ec 03       		.byte	0x3
 5266 00ed D001     		.byte	0xd0,0x1
 5267 00ef 00000000 		.4byte	.LEHB17-.LFB95
 5268 00f3 00000000 		.4byte	.LEHE17-.LEHB17
 5269 00f7 00000000 		.4byte	0
 5270 00fb 00       		.byte	0
 5271 00fc 00000000 		.4byte	.LEHB18-.LFB95
 5272 0100 00000000 		.4byte	.LEHE18-.LEHB18
 5273 0104 00000000 		.4byte	.L279-.LFB95
 5274 0108 00       		.byte	0
 5275 0109 00000000 		.4byte	.LEHB19-.LFB95
 5276 010d 00000000 		.4byte	.LEHE19-.LEHB19
 5277 0111 00000000 		.4byte	0
 5278 0115 00       		.byte	0
 5279 0116 00000000 		.4byte	.LEHB20-.LFB95
 5280 011a 00000000 		.4byte	.LEHE20-.LEHB20
 5281 011e 00000000 		.4byte	.L280-.LFB95
GAS LISTING /tmp/cc5eykcM.s 			page 128


 5282 0122 00       		.byte	0
 5283 0123 00000000 		.4byte	.LEHB21-.LFB95
 5284 0127 00000000 		.4byte	.LEHE21-.LEHB21
 5285 012b 00000000 		.4byte	0
 5286 012f 00       		.byte	0
 5287 0130 00000000 		.4byte	.LEHB22-.LFB95
 5288 0134 00000000 		.4byte	.LEHE22-.LEHB22
 5289 0138 00000000 		.4byte	.L281-.LFB95
 5290 013c 00       		.byte	0
 5291 013d 00000000 		.4byte	.LEHB23-.LFB95
 5292 0141 00000000 		.4byte	.LEHE23-.LEHB23
 5293 0145 00000000 		.4byte	0
 5294 0149 00       		.byte	0
 5295 014a 00000000 		.4byte	.LEHB24-.LFB95
 5296 014e 00000000 		.4byte	.LEHE24-.LEHB24
 5297 0152 00000000 		.4byte	.L282-.LFB95
 5298 0156 00       		.byte	0
 5299 0157 00000000 		.4byte	.LEHB25-.LFB95
 5300 015b 00000000 		.4byte	.LEHE25-.LEHB25
 5301 015f 00000000 		.4byte	0
 5302 0163 00       		.byte	0
 5303 0164 00000000 		.4byte	.LEHB26-.LFB95
 5304 0168 00000000 		.4byte	.LEHE26-.LEHB26
 5305 016c 00000000 		.4byte	.L283-.LFB95
 5306 0170 00       		.byte	0
 5307 0171 00000000 		.4byte	.LEHB27-.LFB95
 5308 0175 00000000 		.4byte	.LEHE27-.LEHB27
 5309 0179 00000000 		.4byte	0
 5310 017d 00       		.byte	0
 5311 017e 00000000 		.4byte	.LEHB28-.LFB95
 5312 0182 00000000 		.4byte	.LEHE28-.LEHB28
 5313 0186 00000000 		.4byte	0
 5314 018a 00       		.byte	0
 5315 018b 00000000 		.4byte	.LEHB29-.LFB95
 5316 018f 00000000 		.4byte	.LEHE29-.LEHB29
 5317 0193 00000000 		.4byte	0
 5318 0197 00       		.byte	0
 5319 0198 00000000 		.4byte	.LEHB30-.LFB95
 5320 019c 00000000 		.4byte	.LEHE30-.LEHB30
 5321 01a0 00000000 		.4byte	0
 5322 01a4 00       		.byte	0
 5323 01a5 00000000 		.4byte	.LEHB31-.LFB95
 5324 01a9 00000000 		.4byte	.LEHE31-.LEHB31
 5325 01ad 00000000 		.4byte	0
 5326 01b1 00       		.byte	0
 5327 01b2 00000000 		.4byte	.LEHB32-.LFB95
 5328 01b6 00000000 		.4byte	.LEHE32-.LEHB32
 5329 01ba 00000000 		.4byte	0
 5330 01be 00       		.byte	0
 5331              		.text
 5333              		.align	2
 5334              		.globl	_ZN22ThreadSleep_C_API_test12testSleepingEv
 5336              	_ZN22ThreadSleep_C_API_test12testSleepingEv:
 5337              	.LFB97:
  28:test/../test/ThreadSleep_C_API_test.hpp **** 
  29:test/../test/ThreadSleep_C_API_test.hpp ****     void testSleeping() {
 5338              		.loc 6 29 25 is_stmt 1
GAS LISTING /tmp/cc5eykcM.s 			page 129


 5339              		.cfi_startproc
 5340 1ab0 130101FC 		addi	sp,sp,-64
 5341              		.cfi_def_cfa_offset 64
 5342 1ab4 233C1102 		sd	ra,56(sp)
 5343 1ab8 23388102 		sd	s0,48(sp)
 5344 1abc 23349102 		sd	s1,40(sp)
 5345              		.cfi_offset 1, -8
 5346              		.cfi_offset 8, -16
 5347              		.cfi_offset 9, -24
 5348 1ac0 13040104 		addi	s0,sp,64
 5349              		.cfi_def_cfa 8, 0
  30:test/../test/ThreadSleep_C_API_test.hpp ****         const int sleepy_thread_count = 2;
 5350              		.loc 6 30 9
 5351              	.LVL586:
  31:test/../test/ThreadSleep_C_API_test.hpp ****         time_t sleep_times[sleepy_thread_count] = {10, 20};
 5352              		.loc 6 31 9
 5353              		.loc 6 31 16 is_stmt 0
 5354 1ac4 9307A000 		li	a5,10
 5355 1ac8 2338F4FC 		sd	a5,-48(s0)
 5356 1acc 93074001 		li	a5,20
 5357 1ad0 233CF4FC 		sd	a5,-40(s0)
  32:test/../test/ThreadSleep_C_API_test.hpp ****         thread_t sleepyThread[sleepy_thread_count];
 5358              		.loc 6 32 9 is_stmt 1
  33:test/../test/ThreadSleep_C_API_test.hpp **** 
  34:test/../test/ThreadSleep_C_API_test.hpp ****         for (int i = 0; i < sleepy_thread_count; i++) {
 5359              		.loc 6 34 9
 5360              	.LVL587:
 5361              	.LBB227:
 5362              		.loc 6 34 18 is_stmt 0
 5363 1ad4 93040000 		li	s1,0
 5364 1ad8 6F00C002 		j	.L290
 5365              	.LVL588:
 5366              	.L293:
  35:test/../test/ThreadSleep_C_API_test.hpp ****             thread_create(&sleepyThread[i], sleepyRun, sleep_times + i);
 5367              		.loc 6 35 13 is_stmt 1
 5368              		.loc 6 35 68 is_stmt 0
 5369 1adc 93973400 		slli	a5,s1,3
 5370              		.loc 6 35 26
 5371 1ae0 130604FD 		addi	a2,s0,-48
 5372 1ae4 3306F600 		add	a2,a2,a5
 5373 1ae8 97050000 		lla	a1,_ZN22ThreadSleep_C_API_test9sleepyRunEPv
 5373      93850500 
 5374 1af0 130504FC 		addi	a0,s0,-64
 5375 1af4 3305F500 		add	a0,a0,a5
 5376 1af8 97000000 		call	thread_create@plt
 5376      E7800000 
 5377              	.LVL589:
  34:test/../test/ThreadSleep_C_API_test.hpp ****             thread_create(&sleepyThread[i], sleepyRun, sleep_times + i);
 5378              		.loc 6 34 9 is_stmt 1
 5379 1b00 9B841400 		addiw	s1,s1,1
 5380              	.LVL590:
 5381              	.L290:
  34:test/../test/ThreadSleep_C_API_test.hpp ****             thread_create(&sleepyThread[i], sleepyRun, sleep_times + i);
 5382              		.loc 6 34 27 discriminator 1
 5383 1b04 93071000 		li	a5,1
 5384 1b08 E3DA97FC 		ble	s1,a5,.L293
 5385              	.L291:
GAS LISTING /tmp/cc5eykcM.s 			page 130


 5386              	.LBE227:
  36:test/../test/ThreadSleep_C_API_test.hpp ****         }
  37:test/../test/ThreadSleep_C_API_test.hpp **** 
  38:test/../test/ThreadSleep_C_API_test.hpp ****         while (!(finished[0] && finished[1])) {}
 5387              		.loc 6 38 9
 5388              		.loc 6 38 16
 5389              		.loc 6 38 28 is_stmt 0
 5390 1b0c 97070000 		lbu	a5,.LANCHOR0+16
 5390      83C70700 
 5391              		.loc 6 38 16
 5392 1b14 E38C07FE 		beqz	a5,.L291
 5393              		.loc 6 38 43 discriminator 1
 5394 1b18 97070000 		lbu	a5,.LANCHOR0+17
 5394      83C70700 
 5395              		.loc 6 38 16 discriminator 1
 5396 1b20 E38607FE 		beqz	a5,.L291
  39:test/../test/ThreadSleep_C_API_test.hpp ****     }
 5397              		.loc 6 39 5
 5398 1b24 83308103 		ld	ra,56(sp)
 5399              		.cfi_restore 1
 5400 1b28 03340103 		ld	s0,48(sp)
 5401              		.cfi_restore 8
 5402              		.cfi_def_cfa 2, 64
 5403 1b2c 83348102 		ld	s1,40(sp)
 5404              		.cfi_restore 9
 5405              	.LVL591:
 5406 1b30 13010104 		addi	sp,sp,64
 5407              		.cfi_def_cfa_offset 0
 5408 1b34 67800000 		jr	ra
 5409              		.cfi_endproc
 5410              	.LFE97:
 5412              		.align	2
 5413              		.globl	_ZN28ConsumerProducerCPP_API_test20testConsumerProducerEv
 5415              	_ZN28ConsumerProducerCPP_API_test20testConsumerProducerEv:
 5416              	.LFB110:
  86:test/../test/ConsumerProducer_CPP_API_test.hpp ****     };
  87:test/../test/ConsumerProducer_CPP_API_test.hpp **** 
  88:test/../test/ConsumerProducer_CPP_API_test.hpp ****     void testConsumerProducer() {
 5417              		.loc 4 88 33 is_stmt 1
 5418              		.cfi_startproc
 5419              		.cfi_personality 0x9b,DW.ref.__gxx_personality_v0
 5420              		.cfi_lsda 0x1b,.LLSDA110
 5421 1b38 130101F8 		addi	sp,sp,-128
 5422              		.cfi_def_cfa_offset 128
 5423 1b3c 233C1106 		sd	ra,120(sp)
 5424 1b40 23388106 		sd	s0,112(sp)
 5425 1b44 23349106 		sd	s1,104(sp)
 5426 1b48 23302107 		sd	s2,96(sp)
 5427 1b4c 233C3105 		sd	s3,88(sp)
 5428 1b50 23384105 		sd	s4,80(sp)
 5429 1b54 23345105 		sd	s5,72(sp)
 5430 1b58 23306105 		sd	s6,64(sp)
 5431 1b5c 233C7103 		sd	s7,56(sp)
 5432 1b60 23388103 		sd	s8,48(sp)
 5433 1b64 23349103 		sd	s9,40(sp)
 5434              		.cfi_offset 1, -8
 5435              		.cfi_offset 8, -16
GAS LISTING /tmp/cc5eykcM.s 			page 131


 5436              		.cfi_offset 9, -24
 5437              		.cfi_offset 18, -32
 5438              		.cfi_offset 19, -40
 5439              		.cfi_offset 20, -48
 5440              		.cfi_offset 21, -56
 5441              		.cfi_offset 22, -64
 5442              		.cfi_offset 23, -72
 5443              		.cfi_offset 24, -80
 5444              		.cfi_offset 25, -88
 5445 1b68 13040108 		addi	s0,sp,128
 5446              		.cfi_def_cfa 8, 0
  89:test/../test/ConsumerProducer_CPP_API_test.hpp ****         char input[30];
  90:test/../test/ConsumerProducer_CPP_API_test.hpp ****         int n, threadNum;
  91:test/../test/ConsumerProducer_CPP_API_test.hpp **** 
  92:test/../test/ConsumerProducer_CPP_API_test.hpp ****         printString("Unesite broj proizvodjaca?\n");
  93:test/../test/ConsumerProducer_CPP_API_test.hpp ****         getString(input, 30);
  94:test/../test/ConsumerProducer_CPP_API_test.hpp ****         threadNum = stringToInt(input);
  95:test/../test/ConsumerProducer_CPP_API_test.hpp **** 
  96:test/../test/ConsumerProducer_CPP_API_test.hpp ****         printString("Unesite velicinu bafera?\n");
  97:test/../test/ConsumerProducer_CPP_API_test.hpp ****         getString(input, 30);
  98:test/../test/ConsumerProducer_CPP_API_test.hpp ****         n = stringToInt(input);
  99:test/../test/ConsumerProducer_CPP_API_test.hpp **** 
 100:test/../test/ConsumerProducer_CPP_API_test.hpp ****         printString("Broj proizvodjaca "); printInt(threadNum);
 101:test/../test/ConsumerProducer_CPP_API_test.hpp ****         printString(" i velicina bafera "); printInt(n);
 102:test/../test/ConsumerProducer_CPP_API_test.hpp ****         printString(".\n");
 103:test/../test/ConsumerProducer_CPP_API_test.hpp **** 
 104:test/../test/ConsumerProducer_CPP_API_test.hpp ****         if(threadNum > n) {
 105:test/../test/ConsumerProducer_CPP_API_test.hpp ****             printString("Broj proizvodjaca ne sme biti manji od velicine bafera!\n");
 106:test/../test/ConsumerProducer_CPP_API_test.hpp ****             return;
 107:test/../test/ConsumerProducer_CPP_API_test.hpp ****         } else if (threadNum < 1) {
 108:test/../test/ConsumerProducer_CPP_API_test.hpp ****             printString("Broj proizvodjaca mora biti veci od nula!\n");
 109:test/../test/ConsumerProducer_CPP_API_test.hpp ****             return;
 110:test/../test/ConsumerProducer_CPP_API_test.hpp ****         }
 111:test/../test/ConsumerProducer_CPP_API_test.hpp **** 
 112:test/../test/ConsumerProducer_CPP_API_test.hpp ****         BufferCPP *buffer = new BufferCPP(n);
 113:test/../test/ConsumerProducer_CPP_API_test.hpp **** 
 114:test/../test/ConsumerProducer_CPP_API_test.hpp ****         waitForAll = new Semaphore(0);
 115:test/../test/ConsumerProducer_CPP_API_test.hpp ****         Thread *producers[threadNum];
 116:test/../test/ConsumerProducer_CPP_API_test.hpp ****         thread_data threadData[threadNum + 1];
 117:test/../test/ConsumerProducer_CPP_API_test.hpp **** 
 118:test/../test/ConsumerProducer_CPP_API_test.hpp ****         threadData[threadNum].id = threadNum;
 119:test/../test/ConsumerProducer_CPP_API_test.hpp ****         threadData[threadNum].buffer = buffer;
 120:test/../test/ConsumerProducer_CPP_API_test.hpp ****         threadData[threadNum].sem = waitForAll;
 121:test/../test/ConsumerProducer_CPP_API_test.hpp ****         Thread *consumer = new Consumer(&threadData[threadNum]);
 122:test/../test/ConsumerProducer_CPP_API_test.hpp ****         consumer->start();
 123:test/../test/ConsumerProducer_CPP_API_test.hpp **** 
 124:test/../test/ConsumerProducer_CPP_API_test.hpp ****         threadData[0].id = 0;
 125:test/../test/ConsumerProducer_CPP_API_test.hpp ****         threadData[0].buffer = buffer;
 126:test/../test/ConsumerProducer_CPP_API_test.hpp ****         threadData[0].sem = waitForAll;
 127:test/../test/ConsumerProducer_CPP_API_test.hpp ****         producers[0] = new ProducerKeyborad(&threadData[0]);
 128:test/../test/ConsumerProducer_CPP_API_test.hpp ****         producers[0]->start();
 129:test/../test/ConsumerProducer_CPP_API_test.hpp **** 
 130:test/../test/ConsumerProducer_CPP_API_test.hpp ****         for (int i = 1; i < threadNum; i++) {
 131:test/../test/ConsumerProducer_CPP_API_test.hpp ****             threadData[i].id = i;
 132:test/../test/ConsumerProducer_CPP_API_test.hpp ****             threadData[i].buffer = buffer;
 133:test/../test/ConsumerProducer_CPP_API_test.hpp ****             threadData[i].sem = waitForAll;
 134:test/../test/ConsumerProducer_CPP_API_test.hpp **** 
GAS LISTING /tmp/cc5eykcM.s 			page 132


 135:test/../test/ConsumerProducer_CPP_API_test.hpp ****             producers[i] = new Producer(&threadData[i]);
 136:test/../test/ConsumerProducer_CPP_API_test.hpp ****             producers[i]->start();
 137:test/../test/ConsumerProducer_CPP_API_test.hpp **** 
 138:test/../test/ConsumerProducer_CPP_API_test.hpp ****         }
 139:test/../test/ConsumerProducer_CPP_API_test.hpp **** 
 140:test/../test/ConsumerProducer_CPP_API_test.hpp ****         Thread::dispatch();
 141:test/../test/ConsumerProducer_CPP_API_test.hpp **** 
 142:test/../test/ConsumerProducer_CPP_API_test.hpp ****         for (int i = 0; i <= threadNum; i++) {
 143:test/../test/ConsumerProducer_CPP_API_test.hpp ****             waitForAll->wait();
 144:test/../test/ConsumerProducer_CPP_API_test.hpp ****         }
 145:test/../test/ConsumerProducer_CPP_API_test.hpp **** 
 146:test/../test/ConsumerProducer_CPP_API_test.hpp ****         delete waitForAll;
 147:test/../test/ConsumerProducer_CPP_API_test.hpp ****         for (int i = 0; i < threadNum; i++) {
 148:test/../test/ConsumerProducer_CPP_API_test.hpp ****             delete producers[i];
 149:test/../test/ConsumerProducer_CPP_API_test.hpp ****         }
 150:test/../test/ConsumerProducer_CPP_API_test.hpp ****         delete consumer;
 151:test/../test/ConsumerProducer_CPP_API_test.hpp ****         delete buffer;
 5447              		.loc 4 151 22 is_stmt 0
 5448 1b6c 930B0100 		mv	s7,sp
  89:test/../test/ConsumerProducer_CPP_API_test.hpp ****         char input[30];
 5449              		.loc 4 89 9 is_stmt 1
  90:test/../test/ConsumerProducer_CPP_API_test.hpp **** 
 5450              		.loc 4 90 9
  92:test/../test/ConsumerProducer_CPP_API_test.hpp ****         getString(input, 30);
 5451              		.loc 4 92 9
  92:test/../test/ConsumerProducer_CPP_API_test.hpp ****         getString(input, 30);
 5452              		.loc 4 92 20 is_stmt 0
 5453 1b70 17050000 		lla	a0,.LC21
 5453      13050500 
 5454              	.LEHB33:
 5455 1b78 97000000 		call	_Z11printStringPKc@plt
 5455      E7800000 
 5456              	.LVL592:
  93:test/../test/ConsumerProducer_CPP_API_test.hpp ****         threadNum = stringToInt(input);
 5457              		.loc 4 93 9 is_stmt 1
  93:test/../test/ConsumerProducer_CPP_API_test.hpp ****         threadNum = stringToInt(input);
 5458              		.loc 4 93 18 is_stmt 0
 5459 1b80 9305E001 		li	a1,30
 5460 1b84 930404F8 		addi	s1,s0,-128
 5461 1b88 13850400 		mv	a0,s1
 5462 1b8c 97000000 		call	_Z9getStringPci@plt
 5462      E7800000 
 5463              	.LVL593:
  94:test/../test/ConsumerProducer_CPP_API_test.hpp **** 
 5464              		.loc 4 94 9 is_stmt 1
  94:test/../test/ConsumerProducer_CPP_API_test.hpp **** 
 5465              		.loc 4 94 32 is_stmt 0
 5466 1b94 13850400 		mv	a0,s1
 5467 1b98 97000000 		call	_Z11stringToIntPKc@plt
 5467      E7800000 
 5468              	.LVL594:
 5469 1ba0 13090500 		mv	s2,a0
 5470              	.LVL595:
  96:test/../test/ConsumerProducer_CPP_API_test.hpp ****         getString(input, 30);
 5471              		.loc 4 96 9 is_stmt 1
  96:test/../test/ConsumerProducer_CPP_API_test.hpp ****         getString(input, 30);
 5472              		.loc 4 96 20 is_stmt 0
GAS LISTING /tmp/cc5eykcM.s 			page 133


 5473 1ba4 17050000 		lla	a0,.LC22
 5473      13050500 
 5474 1bac 97000000 		call	_Z11printStringPKc@plt
 5474      E7800000 
 5475              	.LVL596:
  97:test/../test/ConsumerProducer_CPP_API_test.hpp ****         n = stringToInt(input);
 5476              		.loc 4 97 9 is_stmt 1
  97:test/../test/ConsumerProducer_CPP_API_test.hpp ****         n = stringToInt(input);
 5477              		.loc 4 97 18 is_stmt 0
 5478 1bb4 9305E001 		li	a1,30
 5479 1bb8 13850400 		mv	a0,s1
 5480 1bbc 97000000 		call	_Z9getStringPci@plt
 5480      E7800000 
 5481              	.LVL597:
  98:test/../test/ConsumerProducer_CPP_API_test.hpp **** 
 5482              		.loc 4 98 9 is_stmt 1
  98:test/../test/ConsumerProducer_CPP_API_test.hpp **** 
 5483              		.loc 4 98 24 is_stmt 0
 5484 1bc4 13850400 		mv	a0,s1
 5485 1bc8 97000000 		call	_Z11stringToIntPKc@plt
 5485      E7800000 
 5486              	.LVL598:
 5487 1bd0 93040500 		mv	s1,a0
 5488              	.LVL599:
 100:test/../test/ConsumerProducer_CPP_API_test.hpp ****         printString(" i velicina bafera "); printInt(n);
 5489              		.loc 4 100 9 is_stmt 1
 100:test/../test/ConsumerProducer_CPP_API_test.hpp ****         printString(" i velicina bafera "); printInt(n);
 5490              		.loc 4 100 20 is_stmt 0
 5491 1bd4 17050000 		lla	a0,.LC23
 5491      13050500 
 5492 1bdc 97000000 		call	_Z11printStringPKc@plt
 5492      E7800000 
 5493              	.LVL600:
 100:test/../test/ConsumerProducer_CPP_API_test.hpp ****         printString(" i velicina bafera "); printInt(n);
 5494              		.loc 4 100 44 is_stmt 1
 100:test/../test/ConsumerProducer_CPP_API_test.hpp ****         printString(" i velicina bafera "); printInt(n);
 5495              		.loc 4 100 52 is_stmt 0
 5496 1be4 13060000 		li	a2,0
 5497 1be8 9305A000 		li	a1,10
 5498 1bec 13050900 		mv	a0,s2
 5499 1bf0 97000000 		call	_Z8printIntiii@plt
 5499      E7800000 
 5500              	.LVL601:
 101:test/../test/ConsumerProducer_CPP_API_test.hpp ****         printString(".\n");
 5501              		.loc 4 101 9 is_stmt 1
 101:test/../test/ConsumerProducer_CPP_API_test.hpp ****         printString(".\n");
 5502              		.loc 4 101 20 is_stmt 0
 5503 1bf8 17050000 		lla	a0,.LC24
 5503      13050500 
 5504 1c00 97000000 		call	_Z11printStringPKc@plt
 5504      E7800000 
 5505              	.LVL602:
 101:test/../test/ConsumerProducer_CPP_API_test.hpp ****         printString(".\n");
 5506              		.loc 4 101 45 is_stmt 1
 101:test/../test/ConsumerProducer_CPP_API_test.hpp ****         printString(".\n");
 5507              		.loc 4 101 53 is_stmt 0
 5508 1c08 13060000 		li	a2,0
GAS LISTING /tmp/cc5eykcM.s 			page 134


 5509 1c0c 9305A000 		li	a1,10
 5510 1c10 13850400 		mv	a0,s1
 5511 1c14 97000000 		call	_Z8printIntiii@plt
 5511      E7800000 
 5512              	.LVL603:
 102:test/../test/ConsumerProducer_CPP_API_test.hpp **** 
 5513              		.loc 4 102 9 is_stmt 1
 102:test/../test/ConsumerProducer_CPP_API_test.hpp **** 
 5514              		.loc 4 102 20 is_stmt 0
 5515 1c1c 17050000 		lla	a0,.LC25
 5515      13050500 
 5516 1c24 97000000 		call	_Z11printStringPKc@plt
 5516      E7800000 
 5517              	.LVL604:
 104:test/../test/ConsumerProducer_CPP_API_test.hpp ****             printString("Broj proizvodjaca ne sme biti manji od velicine bafera!\n");
 5518              		.loc 4 104 9 is_stmt 1
 5519 1c2c 63C62403 		bgt	s2,s1,.L325
 107:test/../test/ConsumerProducer_CPP_API_test.hpp ****             printString("Broj proizvodjaca mora biti veci od nula!\n");
 5520              		.loc 4 107 16
 5521 1c30 635E2003 		blez	s2,.L326
 112:test/../test/ConsumerProducer_CPP_API_test.hpp **** 
 5522              		.loc 4 112 9
 112:test/../test/ConsumerProducer_CPP_API_test.hpp **** 
 5523              		.loc 4 112 44 is_stmt 0
 5524 1c34 13058003 		li	a0,56
 5525 1c38 97000000 		call	_Znwm@plt
 5525      E7800000 
 5526              	.LVL605:
 5527              	.LEHE33:
 5528 1c40 930A0500 		mv	s5,a0
 5529 1c44 63000504 		beqz	a0,.L298
 112:test/../test/ConsumerProducer_CPP_API_test.hpp **** 
 5530              		.loc 4 112 44 discriminator 2
 5531 1c48 93850400 		mv	a1,s1
 5532              	.LEHB34:
 5533 1c4c 97000000 		call	_ZN9BufferCPPC1Ei@plt
 5533      E7800000 
 5534              	.LVL606:
 5535              	.LEHE34:
 5536 1c54 6F000003 		j	.L298
 5537              	.L325:
 105:test/../test/ConsumerProducer_CPP_API_test.hpp ****             return;
 5538              		.loc 4 105 13 is_stmt 1
 105:test/../test/ConsumerProducer_CPP_API_test.hpp ****             return;
 5539              		.loc 4 105 24 is_stmt 0
 5540 1c58 17050000 		lla	a0,.LC26
 5540      13050500 
 5541              	.LEHB35:
 5542 1c60 97000000 		call	_Z11printStringPKc@plt
 5542      E7800000 
 5543              	.LVL607:
 106:test/../test/ConsumerProducer_CPP_API_test.hpp ****         } else if (threadNum < 1) {
 5544              		.loc 4 106 13 is_stmt 1
 5545 1c68 6F004001 		j	.L296
 5546              	.L326:
 108:test/../test/ConsumerProducer_CPP_API_test.hpp ****             return;
 5547              		.loc 4 108 13
GAS LISTING /tmp/cc5eykcM.s 			page 135


 108:test/../test/ConsumerProducer_CPP_API_test.hpp ****             return;
 5548              		.loc 4 108 24 is_stmt 0
 5549 1c6c 17050000 		lla	a0,.LC27
 5549      13050500 
 5550 1c74 97000000 		call	_Z11printStringPKc@plt
 5550      E7800000 
 5551              	.LVL608:
 109:test/../test/ConsumerProducer_CPP_API_test.hpp ****         }
 5552              		.loc 4 109 13 is_stmt 1
 5553              	.L296:
 5554 1c7c 13810B00 		mv	sp,s7
 5555 1c80 6F00C024 		j	.L294
 5556              	.L298:
 5557              	.LVL609:
 114:test/../test/ConsumerProducer_CPP_API_test.hpp ****         Thread *producers[threadNum];
 5558              		.loc 4 114 9 discriminator 7
 114:test/../test/ConsumerProducer_CPP_API_test.hpp ****         Thread *producers[threadNum];
 5559              		.loc 4 114 37 is_stmt 0 discriminator 7
 5560 1c84 13050001 		li	a0,16
 5561 1c88 97000000 		call	_Znwm@plt
 5561      E7800000 
 5562              	.LVL610:
 5563              	.LEHE35:
 5564 1c90 93040500 		mv	s1,a0
 5565              	.LVL611:
 5566 1c94 63080500 		beqz	a0,.L299
 114:test/../test/ConsumerProducer_CPP_API_test.hpp ****         Thread *producers[threadNum];
 5567              		.loc 4 114 37 discriminator 2
 5568 1c98 93050000 		li	a1,0
 5569              	.LEHB36:
 5570 1c9c 97000000 		call	_ZN9SemaphoreC1Ej@plt
 5570      E7800000 
 5571              	.LVL612:
 5572              	.LEHE36:
 5573              	.L299:
 114:test/../test/ConsumerProducer_CPP_API_test.hpp ****         Thread *producers[threadNum];
 5574              		.loc 4 114 20 discriminator 7
 5575 1ca4 17070000 		lla	a4,.LANCHOR0
 5575      13070700 
 5576 1cac 23389702 		sd	s1,48(a4)
 115:test/../test/ConsumerProducer_CPP_API_test.hpp ****         thread_data threadData[threadNum + 1];
 5577              		.loc 4 115 9 is_stmt 1 discriminator 7
 5578              	.LVL613:
 115:test/../test/ConsumerProducer_CPP_API_test.hpp ****         thread_data threadData[threadNum + 1];
 5579              		.loc 4 115 17 is_stmt 0 discriminator 7
 5580 1cb0 93173900 		slli	a5,s2,3
 5581 1cb4 9387F700 		addi	a5,a5,15
 5582 1cb8 93F707FF 		andi	a5,a5,-16
 5583 1cbc 3301F140 		sub	sp,sp,a5
 5584 1cc0 130A0100 		mv	s4,sp
 5585              	.LVL614:
 116:test/../test/ConsumerProducer_CPP_API_test.hpp **** 
 5586              		.loc 4 116 9 is_stmt 1 discriminator 7
 116:test/../test/ConsumerProducer_CPP_API_test.hpp **** 
 5587              		.loc 4 116 42 is_stmt 0 discriminator 7
 5588 1cc4 9B061900 		addiw	a3,s2,1
 5589              	.LVL615:
GAS LISTING /tmp/cc5eykcM.s 			page 136


 116:test/../test/ConsumerProducer_CPP_API_test.hpp **** 
 5590              		.loc 4 116 21 discriminator 7
 5591 1cc8 93971600 		slli	a5,a3,1
 5592 1ccc B387D700 		add	a5,a5,a3
 5593 1cd0 93973700 		slli	a5,a5,3
 5594 1cd4 9387F700 		addi	a5,a5,15
 5595 1cd8 93F707FF 		andi	a5,a5,-16
 5596 1cdc 3301F140 		sub	sp,sp,a5
 5597              	.LVL616:
 5598 1ce0 93090100 		mv	s3,sp
 5599              	.LVL617:
 118:test/../test/ConsumerProducer_CPP_API_test.hpp ****         threadData[threadNum].buffer = buffer;
 5600              		.loc 4 118 9 is_stmt 1 discriminator 7
 118:test/../test/ConsumerProducer_CPP_API_test.hpp ****         threadData[threadNum].buffer = buffer;
 5601              		.loc 4 118 34 is_stmt 0 discriminator 7
 5602 1ce4 93171900 		slli	a5,s2,1
 5603 1ce8 B3872701 		add	a5,a5,s2
 5604 1cec 93973700 		slli	a5,a5,3
 5605 1cf0 B387F900 		add	a5,s3,a5
 5606 1cf4 23A02701 		sw	s2,0(a5)
 119:test/../test/ConsumerProducer_CPP_API_test.hpp ****         threadData[threadNum].sem = waitForAll;
 5607              		.loc 4 119 9 is_stmt 1 discriminator 7
 119:test/../test/ConsumerProducer_CPP_API_test.hpp ****         threadData[threadNum].sem = waitForAll;
 5608              		.loc 4 119 38 is_stmt 0 discriminator 7
 5609 1cf8 23B45701 		sd	s5,8(a5)
 120:test/../test/ConsumerProducer_CPP_API_test.hpp ****         Thread *consumer = new Consumer(&threadData[threadNum]);
 5610              		.loc 4 120 9 is_stmt 1 discriminator 7
 120:test/../test/ConsumerProducer_CPP_API_test.hpp ****         Thread *consumer = new Consumer(&threadData[threadNum]);
 5611              		.loc 4 120 35 is_stmt 0 discriminator 7
 5612 1cfc 03370703 		ld	a4,48(a4)
 5613 1d00 23B8E700 		sd	a4,16(a5)
 121:test/../test/ConsumerProducer_CPP_API_test.hpp ****         consumer->start();
 5614              		.loc 4 121 9 is_stmt 1 discriminator 7
 121:test/../test/ConsumerProducer_CPP_API_test.hpp ****         consumer->start();
 5615              		.loc 4 121 63 is_stmt 0 discriminator 7
 5616 1d04 13058001 		li	a0,24
 5617              	.LEHB37:
 5618 1d08 97000000 		call	_Znwm@plt
 5618      E7800000 
 5619              	.LVL618:
 5620              	.LEHE37:
 5621 1d10 130B0500 		mv	s6,a0
 5622 1d14 63060502 		beqz	a0,.L300
 121:test/../test/ConsumerProducer_CPP_API_test.hpp ****         consumer->start();
 5623              		.loc 4 121 63 discriminator 2
 5624 1d18 93141900 		slli	s1,s2,1
 5625 1d1c B3842401 		add	s1,s1,s2
 5626 1d20 93943400 		slli	s1,s1,3
 5627 1d24 B3849900 		add	s1,s3,s1
 5628              	.LVL619:
 5629              	.LEHB38:
 5630              	.LBB228:
 5631              	.LBB229:
  64:test/../test/ConsumerProducer_CPP_API_test.hpp **** 
 5632              		.loc 4 64 54 discriminator 2
 5633 1d28 97000000 		call	_ZN6ThreadC2Ev@plt
 5633      E7800000 
GAS LISTING /tmp/cc5eykcM.s 			page 137


 5634              	.LVL620:
 5635              	.LEHE38:
  64:test/../test/ConsumerProducer_CPP_API_test.hpp **** 
 5636              		.loc 4 64 54
 5637 1d30 97070000 		lla	a5,_ZTVN28ConsumerProducerCPP_API_test8ConsumerE+16
 5637      93870700 
 5638 1d38 2330FB00 		sd	a5,0(s6)
 5639 1d3c 23389B00 		sd	s1,16(s6)
 5640              	.LVL621:
 5641              	.L300:
 5642              	.LBE229:
 5643              	.LBE228:
 122:test/../test/ConsumerProducer_CPP_API_test.hpp **** 
 5644              		.loc 4 122 9 is_stmt 1 discriminator 7
 122:test/../test/ConsumerProducer_CPP_API_test.hpp **** 
 5645              		.loc 4 122 24 is_stmt 0 discriminator 7
 5646 1d40 13050B00 		mv	a0,s6
 5647              	.LEHB39:
 5648 1d44 97000000 		call	_ZN6Thread5startEv@plt
 5648      E7800000 
 5649              	.LVL622:
 124:test/../test/ConsumerProducer_CPP_API_test.hpp ****         threadData[0].buffer = buffer;
 5650              		.loc 4 124 9 is_stmt 1 discriminator 7
 124:test/../test/ConsumerProducer_CPP_API_test.hpp ****         threadData[0].buffer = buffer;
 5651              		.loc 4 124 26 is_stmt 0 discriminator 7
 5652 1d4c 23A00900 		sw	zero,0(s3)
 125:test/../test/ConsumerProducer_CPP_API_test.hpp ****         threadData[0].sem = waitForAll;
 5653              		.loc 4 125 9 is_stmt 1 discriminator 7
 125:test/../test/ConsumerProducer_CPP_API_test.hpp ****         threadData[0].sem = waitForAll;
 5654              		.loc 4 125 30 is_stmt 0 discriminator 7
 5655 1d50 23B45901 		sd	s5,8(s3)
 126:test/../test/ConsumerProducer_CPP_API_test.hpp ****         producers[0] = new ProducerKeyborad(&threadData[0]);
 5656              		.loc 4 126 9 is_stmt 1 discriminator 7
 126:test/../test/ConsumerProducer_CPP_API_test.hpp ****         producers[0] = new ProducerKeyborad(&threadData[0]);
 5657              		.loc 4 126 27 is_stmt 0 discriminator 7
 5658 1d54 97070000 		ld	a5,.LANCHOR0+48
 5658      83B70700 
 5659 1d5c 23B8F900 		sd	a5,16(s3)
 127:test/../test/ConsumerProducer_CPP_API_test.hpp ****         producers[0]->start();
 5660              		.loc 4 127 9 is_stmt 1 discriminator 7
 127:test/../test/ConsumerProducer_CPP_API_test.hpp ****         producers[0]->start();
 5661              		.loc 4 127 59 is_stmt 0 discriminator 7
 5662 1d60 13058001 		li	a0,24
 5663 1d64 97000000 		call	_Znwm@plt
 5663      E7800000 
 5664              	.LVL623:
 5665              	.LEHE39:
 5666 1d6c 93040500 		mv	s1,a0
 127:test/../test/ConsumerProducer_CPP_API_test.hpp ****         producers[0]->start();
 5667              		.loc 4 127 24 discriminator 7
 5668 1d70 630E0500 		beqz	a0,.L301
 5669              	.LVL624:
 5670              	.LEHB40:
 5671              	.LBB230:
 5672              	.LBB231:
  28:test/../test/ConsumerProducer_CPP_API_test.hpp **** 
 5673              		.loc 4 28 62 discriminator 2
GAS LISTING /tmp/cc5eykcM.s 			page 138


 5674 1d74 97000000 		call	_ZN6ThreadC2Ev@plt
 5674      E7800000 
 5675              	.LVL625:
 5676              	.LEHE40:
  28:test/../test/ConsumerProducer_CPP_API_test.hpp **** 
 5677              		.loc 4 28 62
 5678 1d7c 97070000 		lla	a5,_ZTVN28ConsumerProducerCPP_API_test16ProducerKeyboradE+16
 5678      93870700 
 5679 1d84 23B0F400 		sd	a5,0(s1)
 5680 1d88 23B83401 		sd	s3,16(s1)
 5681              	.LVL626:
 5682              	.L301:
 5683              	.LBE231:
 5684              	.LBE230:
 127:test/../test/ConsumerProducer_CPP_API_test.hpp ****         producers[0]->start();
 5685              		.loc 4 127 22 discriminator 7
 5686 1d8c 23309A00 		sd	s1,0(s4)
 128:test/../test/ConsumerProducer_CPP_API_test.hpp **** 
 5687              		.loc 4 128 9 is_stmt 1 discriminator 7
 128:test/../test/ConsumerProducer_CPP_API_test.hpp **** 
 5688              		.loc 4 128 28 is_stmt 0 discriminator 7
 5689 1d90 13850400 		mv	a0,s1
 5690              	.LEHB41:
 5691 1d94 97000000 		call	_ZN6Thread5startEv@plt
 5691      E7800000 
 5692              	.LVL627:
 5693              	.LBB232:
 130:test/../test/ConsumerProducer_CPP_API_test.hpp ****             threadData[i].id = i;
 5694              		.loc 4 130 18 discriminator 7
 5695 1d9c 93041000 		li	s1,1
 5696 1da0 6F000003 		j	.L304
 5697              	.LVL628:
 5698              	.L327:
 5699              	.LBB233:
 5700              	.LBB234:
  47:test/../test/ConsumerProducer_CPP_API_test.hpp **** 
 5701              		.loc 4 47 54
 5702 1da4 97070000 		lla	a5,_ZTVN28ConsumerProducerCPP_API_test8ProducerE+16
 5702      93870700 
 5703 1dac 2330FC00 		sd	a5,0(s8)
 5704 1db0 23389C01 		sd	s9,16(s8)
 5705              	.LVL629:
 5706              	.L303:
 5707              	.LBE234:
 5708              	.LBE233:
 135:test/../test/ConsumerProducer_CPP_API_test.hpp ****             producers[i]->start();
 5709              		.loc 4 135 26 discriminator 7
 5710 1db4 93973400 		slli	a5,s1,3
 5711 1db8 B307FA00 		add	a5,s4,a5
 5712 1dbc 23B08701 		sd	s8,0(a5)
 136:test/../test/ConsumerProducer_CPP_API_test.hpp **** 
 5713              		.loc 4 136 13 is_stmt 1 discriminator 7
 136:test/../test/ConsumerProducer_CPP_API_test.hpp **** 
 5714              		.loc 4 136 32 is_stmt 0 discriminator 7
 5715 1dc0 13050C00 		mv	a0,s8
 5716 1dc4 97000000 		call	_ZN6Thread5startEv@plt
 5716      E7800000 
GAS LISTING /tmp/cc5eykcM.s 			page 139


 5717              	.LVL630:
 130:test/../test/ConsumerProducer_CPP_API_test.hpp ****             threadData[i].id = i;
 5718              		.loc 4 130 9 is_stmt 1 discriminator 7
 5719 1dcc 9B841400 		addiw	s1,s1,1
 5720              	.LVL631:
 5721              	.L304:
 130:test/../test/ConsumerProducer_CPP_API_test.hpp ****             threadData[i].id = i;
 5722              		.loc 4 130 27 discriminator 1
 5723 1dd0 63DC2405 		bge	s1,s2,.L302
 131:test/../test/ConsumerProducer_CPP_API_test.hpp ****             threadData[i].buffer = buffer;
 5724              		.loc 4 131 13
 131:test/../test/ConsumerProducer_CPP_API_test.hpp ****             threadData[i].buffer = buffer;
 5725              		.loc 4 131 30 is_stmt 0
 5726 1dd4 93971400 		slli	a5,s1,1
 5727 1dd8 B3879700 		add	a5,a5,s1
 5728 1ddc 93973700 		slli	a5,a5,3
 5729 1de0 B387F900 		add	a5,s3,a5
 5730 1de4 23A09700 		sw	s1,0(a5)
 132:test/../test/ConsumerProducer_CPP_API_test.hpp ****             threadData[i].sem = waitForAll;
 5731              		.loc 4 132 13 is_stmt 1
 132:test/../test/ConsumerProducer_CPP_API_test.hpp ****             threadData[i].sem = waitForAll;
 5732              		.loc 4 132 34 is_stmt 0
 5733 1de8 23B45701 		sd	s5,8(a5)
 133:test/../test/ConsumerProducer_CPP_API_test.hpp **** 
 5734              		.loc 4 133 13 is_stmt 1
 133:test/../test/ConsumerProducer_CPP_API_test.hpp **** 
 5735              		.loc 4 133 31 is_stmt 0
 5736 1dec 17070000 		ld	a4,.LANCHOR0+48
 5736      03370700 
 5737 1df4 23B8E700 		sd	a4,16(a5)
 135:test/../test/ConsumerProducer_CPP_API_test.hpp ****             producers[i]->start();
 5738              		.loc 4 135 13 is_stmt 1
 135:test/../test/ConsumerProducer_CPP_API_test.hpp ****             producers[i]->start();
 5739              		.loc 4 135 55 is_stmt 0
 5740 1df8 13058001 		li	a0,24
 5741 1dfc 97000000 		call	_Znwm@plt
 5741      E7800000 
 5742              	.LVL632:
 5743              	.LEHE41:
 5744 1e04 130C0500 		mv	s8,a0
 135:test/../test/ConsumerProducer_CPP_API_test.hpp ****             producers[i]->start();
 5745              		.loc 4 135 28
 5746 1e08 E30605FA 		beqz	a0,.L303
 135:test/../test/ConsumerProducer_CPP_API_test.hpp ****             producers[i]->start();
 5747              		.loc 4 135 55 discriminator 2
 5748 1e0c 939C1400 		slli	s9,s1,1
 5749 1e10 B38C9C00 		add	s9,s9,s1
 5750 1e14 939C3C00 		slli	s9,s9,3
 5751 1e18 B38C9901 		add	s9,s3,s9
 5752              	.LVL633:
 5753              	.LEHB42:
 5754              	.LBB236:
 5755              	.LBB235:
  47:test/../test/ConsumerProducer_CPP_API_test.hpp **** 
 5756              		.loc 4 47 54 discriminator 2
 5757 1e1c 97000000 		call	_ZN6ThreadC2Ev@plt
 5757      E7800000 
GAS LISTING /tmp/cc5eykcM.s 			page 140


 5758              	.LVL634:
 5759              	.LEHE42:
 5760 1e24 6FF01FF8 		j	.L327
 5761              	.LVL635:
 5762              	.L302:
 5763              	.LBE235:
 5764              	.LBE236:
 5765              	.LBE232:
 140:test/../test/ConsumerProducer_CPP_API_test.hpp **** 
 5766              		.loc 4 140 9 is_stmt 1
 5767              	.LEHB43:
 140:test/../test/ConsumerProducer_CPP_API_test.hpp **** 
 5768              		.loc 4 140 25 is_stmt 0
 5769 1e28 97000000 		call	_ZN6Thread8dispatchEv@plt
 5769      E7800000 
 5770              	.LVL636:
 5771              	.LBB237:
 142:test/../test/ConsumerProducer_CPP_API_test.hpp ****             waitForAll->wait();
 5772              		.loc 4 142 18
 5773 1e30 93040000 		li	s1,0
 5774              	.LVL637:
 5775              	.L306:
 142:test/../test/ConsumerProducer_CPP_API_test.hpp ****             waitForAll->wait();
 5776              		.loc 4 142 27 is_stmt 1 discriminator 1
 5777 1e34 634E9900 		bgt	s1,s2,.L305
 143:test/../test/ConsumerProducer_CPP_API_test.hpp ****         }
 5778              		.loc 4 143 13
 143:test/../test/ConsumerProducer_CPP_API_test.hpp ****         }
 5779              		.loc 4 143 29 is_stmt 0
 5780 1e38 17050000 		ld	a0,.LANCHOR0+48
 5780      03350500 
 5781 1e40 97000000 		call	_ZN9Semaphore4waitEv@plt
 5781      E7800000 
 5782              	.LVL638:
 142:test/../test/ConsumerProducer_CPP_API_test.hpp ****             waitForAll->wait();
 5783              		.loc 4 142 9 is_stmt 1
 5784 1e48 9B841400 		addiw	s1,s1,1
 5785              	.LVL639:
 5786 1e4c 6FF09FFE 		j	.L306
 5787              	.LVL640:
 5788              	.L305:
 5789              	.LBE237:
 146:test/../test/ConsumerProducer_CPP_API_test.hpp ****         for (int i = 0; i < threadNum; i++) {
 5790              		.loc 4 146 9
 146:test/../test/ConsumerProducer_CPP_API_test.hpp ****         for (int i = 0; i < threadNum; i++) {
 5791              		.loc 4 146 16 is_stmt 0
 5792 1e50 17050000 		ld	a0,.LANCHOR0+48
 5792      03350500 
 146:test/../test/ConsumerProducer_CPP_API_test.hpp ****         for (int i = 0; i < threadNum; i++) {
 5793              		.loc 4 146 26
 5794 1e58 63080500 		beqz	a0,.L307
 146:test/../test/ConsumerProducer_CPP_API_test.hpp ****         for (int i = 0; i < threadNum; i++) {
 5795              		.loc 4 146 16 discriminator 1
 5796 1e5c 83370500 		ld	a5,0(a0)
 5797 1e60 83B78700 		ld	a5,8(a5)
 5798 1e64 E7800700 		jalr	a5
 5799              	.LVL641:
GAS LISTING /tmp/cc5eykcM.s 			page 141


 5800              	.L307:
 5801              	.LBB238:
 142:test/../test/ConsumerProducer_CPP_API_test.hpp ****             waitForAll->wait();
 5802              		.loc 4 142 18 discriminator 1
 5803 1e68 93040000 		li	s1,0
 5804              	.LVL642:
 5805 1e6c 6F008000 		j	.L310
 5806              	.LVL643:
 5807              	.L309:
 5808              	.LBE238:
 5809              	.LBB239:
 147:test/../test/ConsumerProducer_CPP_API_test.hpp ****             delete producers[i];
 5810              		.loc 4 147 9 is_stmt 1 discriminator 2
 5811 1e70 9B841400 		addiw	s1,s1,1
 5812              	.LVL644:
 5813              	.L310:
 147:test/../test/ConsumerProducer_CPP_API_test.hpp ****             delete producers[i];
 5814              		.loc 4 147 27 discriminator 1
 5815 1e74 63D22403 		bge	s1,s2,.L308
 148:test/../test/ConsumerProducer_CPP_API_test.hpp ****         }
 5816              		.loc 4 148 13
 148:test/../test/ConsumerProducer_CPP_API_test.hpp ****         }
 5817              		.loc 4 148 31 is_stmt 0
 5818 1e78 93973400 		slli	a5,s1,3
 5819 1e7c B307FA00 		add	a5,s4,a5
 5820 1e80 03B50700 		ld	a0,0(a5)
 148:test/../test/ConsumerProducer_CPP_API_test.hpp ****         }
 5821              		.loc 4 148 32
 5822 1e84 E30605FE 		beqz	a0,.L309
 148:test/../test/ConsumerProducer_CPP_API_test.hpp ****         }
 5823              		.loc 4 148 31 discriminator 1
 5824 1e88 83370500 		ld	a5,0(a0)
 5825 1e8c 83B78700 		ld	a5,8(a5)
 5826 1e90 E7800700 		jalr	a5
 5827              	.LVL645:
 5828 1e94 6FF0DFFD 		j	.L309
 5829              	.L308:
 5830              	.LBE239:
 150:test/../test/ConsumerProducer_CPP_API_test.hpp ****         delete buffer;
 5831              		.loc 4 150 9 is_stmt 1
 150:test/../test/ConsumerProducer_CPP_API_test.hpp ****         delete buffer;
 5832              		.loc 4 150 24 is_stmt 0
 5833 1e98 630A0B00 		beqz	s6,.L311
 150:test/../test/ConsumerProducer_CPP_API_test.hpp ****         delete buffer;
 5834              		.loc 4 150 16 discriminator 1
 5835 1e9c 83370B00 		ld	a5,0(s6)
 5836 1ea0 83B78700 		ld	a5,8(a5)
 5837 1ea4 13050B00 		mv	a0,s6
 5838 1ea8 E7800700 		jalr	a5
 5839              	.LVL646:
 5840              	.L311:
 5841              		.loc 4 151 9 is_stmt 1
 5842              		.loc 4 151 22 is_stmt 0
 5843 1eac 638E0A00 		beqz	s5,.L312
 5844              		.loc 4 151 16 discriminator 1
 5845 1eb0 13850A00 		mv	a0,s5
 5846 1eb4 97000000 		call	_ZN9BufferCPPD1Ev@plt
GAS LISTING /tmp/cc5eykcM.s 			page 142


 5846      E7800000 
 5847              	.LVL647:
 5848 1ebc 13850A00 		mv	a0,s5
 5849 1ec0 97000000 		call	_ZdlPv@plt
 5849      E7800000 
 5850              	.LVL648:
 5851              	.LEHE43:
 5852              	.L312:
 5853 1ec8 13810B00 		mv	sp,s7
 5854              	.LVL649:
 5855              	.L294:
 152:test/../test/ConsumerProducer_CPP_API_test.hpp ****     }
 5856              		.loc 4 152 5
 5857 1ecc 130104F8 		addi	sp,s0,-128
 5858              		.cfi_remember_state
 5859              		.cfi_def_cfa 2, 128
 5860 1ed0 83308107 		ld	ra,120(sp)
 5861              		.cfi_restore 1
 5862 1ed4 03340107 		ld	s0,112(sp)
 5863              		.cfi_restore 8
 5864 1ed8 83348106 		ld	s1,104(sp)
 5865              		.cfi_restore 9
 5866 1edc 03390106 		ld	s2,96(sp)
 5867              		.cfi_restore 18
 5868              	.LVL650:
 5869 1ee0 83398105 		ld	s3,88(sp)
 5870              		.cfi_restore 19
 5871 1ee4 033A0105 		ld	s4,80(sp)
 5872              		.cfi_restore 20
 5873 1ee8 833A8104 		ld	s5,72(sp)
 5874              		.cfi_restore 21
 5875 1eec 033B0104 		ld	s6,64(sp)
 5876              		.cfi_restore 22
 5877 1ef0 833B8103 		ld	s7,56(sp)
 5878              		.cfi_restore 23
 5879 1ef4 033C0103 		ld	s8,48(sp)
 5880              		.cfi_restore 24
 5881 1ef8 833C8102 		ld	s9,40(sp)
 5882              		.cfi_restore 25
 5883 1efc 13010108 		addi	sp,sp,128
 5884              		.cfi_def_cfa_offset 0
 5885 1f00 67800000 		jr	ra
 5886              	.LVL651:
 5887              	.L319:
 5888              		.cfi_restore_state
 5889 1f04 93040500 		mv	s1,a0
 5890              	.LVL652:
 112:test/../test/ConsumerProducer_CPP_API_test.hpp **** 
 5891              		.loc 4 112 44
 5892 1f08 13850A00 		mv	a0,s5
 5893 1f0c 97000000 		call	_ZdlPv@plt
 5893      E7800000 
 5894              	.LVL653:
 5895 1f14 13850400 		mv	a0,s1
 5896              	.LEHB44:
 5897 1f18 97000000 		call	_Unwind_Resume@plt
 5897      E7800000 
GAS LISTING /tmp/cc5eykcM.s 			page 143


 5898              	.LVL654:
 5899              	.LEHE44:
 5900              	.L320:
 5901 1f20 13090500 		mv	s2,a0
 5902              	.LVL655:
 114:test/../test/ConsumerProducer_CPP_API_test.hpp ****         Thread *producers[threadNum];
 5903              		.loc 4 114 37
 5904 1f24 13850400 		mv	a0,s1
 5905 1f28 97000000 		call	_ZdlPv@plt
 5905      E7800000 
 5906              	.LVL656:
 5907 1f30 13050900 		mv	a0,s2
 5908              	.LEHB45:
 5909 1f34 97000000 		call	_Unwind_Resume@plt
 5909      E7800000 
 5910              	.LVL657:
 5911              	.LEHE45:
 5912              	.L321:
 5913 1f3c 93040500 		mv	s1,a0
 5914              	.LVL658:
 121:test/../test/ConsumerProducer_CPP_API_test.hpp ****         consumer->start();
 5915              		.loc 4 121 63
 5916 1f40 13050B00 		mv	a0,s6
 5917 1f44 97000000 		call	_ZdlPv@plt
 5917      E7800000 
 5918              	.LVL659:
 5919 1f4c 13850400 		mv	a0,s1
 5920              	.LEHB46:
 5921 1f50 97000000 		call	_Unwind_Resume@plt
 5921      E7800000 
 5922              	.LVL660:
 5923              	.LEHE46:
 5924              	.L322:
 5925 1f58 13090500 		mv	s2,a0
 5926              	.LVL661:
 127:test/../test/ConsumerProducer_CPP_API_test.hpp ****         producers[0]->start();
 5927              		.loc 4 127 59
 5928 1f5c 13850400 		mv	a0,s1
 5929 1f60 97000000 		call	_ZdlPv@plt
 5929      E7800000 
 5930              	.LVL662:
 5931 1f68 13050900 		mv	a0,s2
 5932              	.LEHB47:
 5933 1f6c 97000000 		call	_Unwind_Resume@plt
 5933      E7800000 
 5934              	.LVL663:
 5935              	.LEHE47:
 5936              	.L323:
 5937 1f74 93040500 		mv	s1,a0
 5938              	.LVL664:
 5939              	.LBB240:
 135:test/../test/ConsumerProducer_CPP_API_test.hpp ****             producers[i]->start();
 5940              		.loc 4 135 55
 5941 1f78 13050C00 		mv	a0,s8
 5942 1f7c 97000000 		call	_ZdlPv@plt
 5942      E7800000 
 5943              	.LVL665:
GAS LISTING /tmp/cc5eykcM.s 			page 144


 5944 1f84 13850400 		mv	a0,s1
 5945              	.LEHB48:
 5946 1f88 97000000 		call	_Unwind_Resume@plt
 5946      E7800000 
 5947              	.LVL666:
 5948              	.LEHE48:
 5949              	.LBE240:
 5950              		.cfi_endproc
 5951              	.LFE110:
 5952              		.section	.gcc_except_table
 5953              	.LLSDA110:
 5954 01bf FF       		.byte	0xff
 5955 01c0 FF       		.byte	0xff
 5956 01c1 03       		.byte	0x3
 5957 01c2 D001     		.byte	0xd0,0x1
 5958 01c4 00000000 		.4byte	.LEHB33-.LFB110
 5959 01c8 00000000 		.4byte	.LEHE33-.LEHB33
 5960 01cc 00000000 		.4byte	0
 5961 01d0 00       		.byte	0
 5962 01d1 00000000 		.4byte	.LEHB34-.LFB110
 5963 01d5 00000000 		.4byte	.LEHE34-.LEHB34
 5964 01d9 00000000 		.4byte	.L319-.LFB110
 5965 01dd 00       		.byte	0
 5966 01de 00000000 		.4byte	.LEHB35-.LFB110
 5967 01e2 00000000 		.4byte	.LEHE35-.LEHB35
 5968 01e6 00000000 		.4byte	0
 5969 01ea 00       		.byte	0
 5970 01eb 00000000 		.4byte	.LEHB36-.LFB110
 5971 01ef 00000000 		.4byte	.LEHE36-.LEHB36
 5972 01f3 00000000 		.4byte	.L320-.LFB110
 5973 01f7 00       		.byte	0
 5974 01f8 00000000 		.4byte	.LEHB37-.LFB110
 5975 01fc 00000000 		.4byte	.LEHE37-.LEHB37
 5976 0200 00000000 		.4byte	0
 5977 0204 00       		.byte	0
 5978 0205 00000000 		.4byte	.LEHB38-.LFB110
 5979 0209 00000000 		.4byte	.LEHE38-.LEHB38
 5980 020d 00000000 		.4byte	.L321-.LFB110
 5981 0211 00       		.byte	0
 5982 0212 00000000 		.4byte	.LEHB39-.LFB110
 5983 0216 00000000 		.4byte	.LEHE39-.LEHB39
 5984 021a 00000000 		.4byte	0
 5985 021e 00       		.byte	0
 5986 021f 00000000 		.4byte	.LEHB40-.LFB110
 5987 0223 00000000 		.4byte	.LEHE40-.LEHB40
 5988 0227 00000000 		.4byte	.L322-.LFB110
 5989 022b 00       		.byte	0
 5990 022c 00000000 		.4byte	.LEHB41-.LFB110
 5991 0230 00000000 		.4byte	.LEHE41-.LEHB41
 5992 0234 00000000 		.4byte	0
 5993 0238 00       		.byte	0
 5994 0239 00000000 		.4byte	.LEHB42-.LFB110
 5995 023d 00000000 		.4byte	.LEHE42-.LEHB42
 5996 0241 00000000 		.4byte	.L323-.LFB110
 5997 0245 00       		.byte	0
 5998 0246 00000000 		.4byte	.LEHB43-.LFB110
 5999 024a 00000000 		.4byte	.LEHE43-.LEHB43
GAS LISTING /tmp/cc5eykcM.s 			page 145


 6000 024e 00000000 		.4byte	0
 6001 0252 00       		.byte	0
 6002 0253 00000000 		.4byte	.LEHB44-.LFB110
 6003 0257 00000000 		.4byte	.LEHE44-.LEHB44
 6004 025b 00000000 		.4byte	0
 6005 025f 00       		.byte	0
 6006 0260 00000000 		.4byte	.LEHB45-.LFB110
 6007 0264 00000000 		.4byte	.LEHE45-.LEHB45
 6008 0268 00000000 		.4byte	0
 6009 026c 00       		.byte	0
 6010 026d 00000000 		.4byte	.LEHB46-.LFB110
 6011 0271 00000000 		.4byte	.LEHE46-.LEHB46
 6012 0275 00000000 		.4byte	0
 6013 0279 00       		.byte	0
 6014 027a 00000000 		.4byte	.LEHB47-.LFB110
 6015 027e 00000000 		.4byte	.LEHE47-.LEHB47
 6016 0282 00000000 		.4byte	0
 6017 0286 00       		.byte	0
 6018 0287 00000000 		.4byte	.LEHB48-.LFB110
 6019 028b 00000000 		.4byte	.LEHE48-.LEHB48
 6020 028f 00000000 		.4byte	0
 6021 0293 00       		.byte	0
 6022              		.text
 6024              		.section	.rodata.str1.8
 6025 021b 00000000 		.align	3
 6025      00
 6026              	.LC28:
 6027 0220 436C6173 		.string	"Class1"
 6027      733100
 6028 0227 00       		.align	3
 6029              	.LC29:
 6030 0228 2A2A2A2A 		.string	"*****************************BEFORE ALLOCATION*****************************\n\n"
 6030      2A2A2A2A 
 6030      2A2A2A2A 
 6030      2A2A2A2A 
 6030      2A2A2A2A 
 6031 0276 0000     		.align	3
 6032              	.LC30:
 6033 0278 2800     		.string	"("
 6034 027a 00000000 		.align	3
 6034      0000
 6035              	.LC31:
 6036 0280 292000   		.string	") "
 6037 0283 00000000 		.align	3
 6037      00
 6038              	.LC32:
 6039 0288 2000     		.string	" "
 6040              		.text
 6041              		.align	2
 6042              		.globl	_Z11test_adresev
 6044              	_Z11test_adresev:
 6045              	.LFB116:
 6046              		.file 9 "test/../test/test_slab_buddy_alloc.h"
   1:test/../test/test_slab_buddy_alloc.h **** //
   2:test/../test/test_slab_buddy_alloc.h **** // Created by os on 9/9/23.
   3:test/../test/test_slab_buddy_alloc.h **** //
   4:test/../test/test_slab_buddy_alloc.h **** 
GAS LISTING /tmp/cc5eykcM.s 			page 146


   5:test/../test/test_slab_buddy_alloc.h **** #ifndef PROJECT_BASE_V1_1_TEST_SLAB_BUDDY_ALLOC_H
   6:test/../test/test_slab_buddy_alloc.h **** #define PROJECT_BASE_V1_1_TEST_SLAB_BUDDY_ALLOC_H
   7:test/../test/test_slab_buddy_alloc.h **** 
   8:test/../test/test_slab_buddy_alloc.h **** #include "../h/SlabI.h"
   9:test/../test/test_slab_buddy_alloc.h **** #include "../h/Buddy.h"
  10:test/../test/test_slab_buddy_alloc.h **** #include "../h/syscall_cpp.hpp"
  11:test/../test/test_slab_buddy_alloc.h **** #include "printing.hpp"
  12:test/../test/test_slab_buddy_alloc.h **** #include "test_drugi.h"
  13:test/../test/test_slab_buddy_alloc.h **** 
  14:test/../test/test_slab_buddy_alloc.h **** class Class1 {
  15:test/../test/test_slab_buddy_alloc.h **** public:
  16:test/../test/test_slab_buddy_alloc.h ****     char c;
  17:test/../test/test_slab_buddy_alloc.h **** };
  18:test/../test/test_slab_buddy_alloc.h **** 
  19:test/../test/test_slab_buddy_alloc.h **** void test_adrese(){
 6047              		.loc 9 19 19 is_stmt 1
 6048              		.cfi_startproc
 6049 1f90 130101FD 		addi	sp,sp,-48
 6050              		.cfi_def_cfa_offset 48
 6051 1f94 23341102 		sd	ra,40(sp)
 6052 1f98 23308102 		sd	s0,32(sp)
 6053 1f9c 233C9100 		sd	s1,24(sp)
 6054 1fa0 23382101 		sd	s2,16(sp)
 6055 1fa4 23343101 		sd	s3,8(sp)
 6056              		.cfi_offset 1, -8
 6057              		.cfi_offset 8, -16
 6058              		.cfi_offset 9, -24
 6059              		.cfi_offset 18, -32
 6060              		.cfi_offset 19, -40
 6061 1fa8 13040103 		addi	s0,sp,48
 6062              		.cfi_def_cfa 8, 0
  20:test/../test/test_slab_buddy_alloc.h ****     kmem_cache_t* cache1 = kmem_cache_create("Class1", sizeof(Class1), nullptr, nullptr);
 6063              		.loc 9 20 5
 6064              		.loc 9 20 45 is_stmt 0
 6065 1fac 93060000 		li	a3,0
 6066 1fb0 13060000 		li	a2,0
 6067 1fb4 93051000 		li	a1,1
 6068 1fb8 17050000 		lla	a0,.LC28
 6068      13050500 
 6069 1fc0 97000000 		call	_Z17kmem_cache_createPKcmPFvPvES3_@plt
 6069      E7800000 
 6070              	.LVL667:
 6071 1fc8 93090500 		mv	s3,a0
 6072              	.LVL668:
  21:test/../test/test_slab_buddy_alloc.h ****     printString("*****************************BEFORE ALLOCATION*****************************\n\n");
 6073              		.loc 9 21 5 is_stmt 1
 6074              		.loc 9 21 16 is_stmt 0
 6075 1fcc 17050000 		lla	a0,.LC29
 6075      13050500 
 6076              	.LVL669:
 6077 1fd4 97000000 		call	_Z11printStringPKc@plt
 6077      E7800000 
 6078              	.LVL670:
  22:test/../test/test_slab_buddy_alloc.h ****     kmem_cache_info(cache1);
 6079              		.loc 9 22 5 is_stmt 1
 6080              		.loc 9 22 20 is_stmt 0
 6081 1fdc 13850900 		mv	a0,s3
GAS LISTING /tmp/cc5eykcM.s 			page 147


 6082 1fe0 97000000 		call	_Z15kmem_cache_infoP12kmem_cache_s@plt
 6082      E7800000 
 6083              	.LVL671:
 6084              	.LBB241:
  23:test/../test/test_slab_buddy_alloc.h ****     const int arrSize = 1000;
  24:test/../test/test_slab_buddy_alloc.h ****     Class1* arr[arrSize];
  25:test/../test/test_slab_buddy_alloc.h ****     for (int i = 0; i < arrSize; i++) {
 6085              		.loc 9 25 14
 6086 1fe8 93040000 		li	s1,0
 6087 1fec 6F008001 		j	.L332
 6088              	.LVL672:
 6089              	.L330:
  26:test/../test/test_slab_buddy_alloc.h ****         arr[i] = (Class1*)kmem_cache_alloc(cache1);
  27:test/../test/test_slab_buddy_alloc.h ****         printString("(");
  28:test/../test/test_slab_buddy_alloc.h ****         printInt(i);
  29:test/../test/test_slab_buddy_alloc.h ****         printString(") ");
  30:test/../test/test_slab_buddy_alloc.h ****         printInt((size_t)arr[i]);
  31:test/../test/test_slab_buddy_alloc.h ****         if (i % 100 == 0)
  32:test/../test/test_slab_buddy_alloc.h ****             printString("\n");
  33:test/../test/test_slab_buddy_alloc.h ****         else
  34:test/../test/test_slab_buddy_alloc.h ****             printString(" ");
 6090              		.loc 9 34 13 is_stmt 1
 6091              		.loc 9 34 24 is_stmt 0
 6092 1ff0 17050000 		lla	a0,.LC32
 6092      13050500 
 6093 1ff8 97000000 		call	_Z11printStringPKc@plt
 6093      E7800000 
 6094              	.LVL673:
 6095              	.L331:
  25:test/../test/test_slab_buddy_alloc.h ****         arr[i] = (Class1*)kmem_cache_alloc(cache1);
 6096              		.loc 9 25 5 is_stmt 1 discriminator 2
 6097 2000 9B841400 		addiw	s1,s1,1
 6098              	.LVL674:
 6099              	.L332:
  25:test/../test/test_slab_buddy_alloc.h ****         arr[i] = (Class1*)kmem_cache_alloc(cache1);
 6100              		.loc 9 25 23 discriminator 1
 6101 2004 9307703E 		li	a5,999
 6102 2008 63CE9706 		bgt	s1,a5,.L329
  26:test/../test/test_slab_buddy_alloc.h ****         arr[i] = (Class1*)kmem_cache_alloc(cache1);
 6103              		.loc 9 26 9
  26:test/../test/test_slab_buddy_alloc.h ****         arr[i] = (Class1*)kmem_cache_alloc(cache1);
 6104              		.loc 9 26 43 is_stmt 0
 6105 200c 13850900 		mv	a0,s3
 6106 2010 97000000 		call	_Z16kmem_cache_allocP12kmem_cache_s@plt
 6106      E7800000 
 6107              	.LVL675:
 6108 2018 13090500 		mv	s2,a0
  27:test/../test/test_slab_buddy_alloc.h ****         printInt(i);
 6109              		.loc 9 27 9 is_stmt 1
  27:test/../test/test_slab_buddy_alloc.h ****         printInt(i);
 6110              		.loc 9 27 20 is_stmt 0
 6111 201c 17050000 		lla	a0,.LC30
 6111      13050500 
 6112 2024 97000000 		call	_Z11printStringPKc@plt
 6112      E7800000 
 6113              	.LVL676:
  28:test/../test/test_slab_buddy_alloc.h ****         printString(") ");
GAS LISTING /tmp/cc5eykcM.s 			page 148


 6114              		.loc 9 28 9 is_stmt 1
  28:test/../test/test_slab_buddy_alloc.h ****         printString(") ");
 6115              		.loc 9 28 17 is_stmt 0
 6116 202c 13060000 		li	a2,0
 6117 2030 9305A000 		li	a1,10
 6118 2034 13850400 		mv	a0,s1
 6119 2038 97000000 		call	_Z8printIntiii@plt
 6119      E7800000 
 6120              	.LVL677:
  29:test/../test/test_slab_buddy_alloc.h ****         printInt((size_t)arr[i]);
 6121              		.loc 9 29 9 is_stmt 1
  29:test/../test/test_slab_buddy_alloc.h ****         printInt((size_t)arr[i]);
 6122              		.loc 9 29 20 is_stmt 0
 6123 2040 17050000 		lla	a0,.LC31
 6123      13050500 
 6124 2048 97000000 		call	_Z11printStringPKc@plt
 6124      E7800000 
 6125              	.LVL678:
  30:test/../test/test_slab_buddy_alloc.h ****         if (i % 100 == 0)
 6126              		.loc 9 30 9 is_stmt 1
  30:test/../test/test_slab_buddy_alloc.h ****         if (i % 100 == 0)
 6127              		.loc 9 30 17 is_stmt 0
 6128 2050 13060000 		li	a2,0
 6129 2054 9305A000 		li	a1,10
 6130 2058 1B050900 		sext.w	a0,s2
 6131 205c 97000000 		call	_Z8printIntiii@plt
 6131      E7800000 
 6132              	.LVL679:
  31:test/../test/test_slab_buddy_alloc.h ****             printString("\n");
 6133              		.loc 9 31 9 is_stmt 1
  31:test/../test/test_slab_buddy_alloc.h ****             printString("\n");
 6134              		.loc 9 31 15 is_stmt 0
 6135 2064 93074006 		li	a5,100
 6136 2068 BBE7F402 		remw	a5,s1,a5
  31:test/../test/test_slab_buddy_alloc.h ****             printString("\n");
 6137              		.loc 9 31 9
 6138 206c E39207F8 		bnez	a5,.L330
  32:test/../test/test_slab_buddy_alloc.h ****         else
 6139              		.loc 9 32 13 is_stmt 1
  32:test/../test/test_slab_buddy_alloc.h ****         else
 6140              		.loc 9 32 24 is_stmt 0
 6141 2070 17050000 		lla	a0,.LC2
 6141      13050500 
 6142 2078 97000000 		call	_Z11printStringPKc@plt
 6142      E7800000 
 6143              	.LVL680:
 6144 2080 6FF01FF8 		j	.L331
 6145              	.L329:
 6146              	.LBE241:
  35:test/../test/test_slab_buddy_alloc.h ****     }
  36:test/../test/test_slab_buddy_alloc.h ****     printString("\n");
 6147              		.loc 9 36 5 is_stmt 1
 6148              		.loc 9 36 16 is_stmt 0
 6149 2084 17050000 		lla	a0,.LC2
 6149      13050500 
 6150 208c 97000000 		call	_Z11printStringPKc@plt
 6150      E7800000 
GAS LISTING /tmp/cc5eykcM.s 			page 149


 6151              	.LVL681:
  37:test/../test/test_slab_buddy_alloc.h ****     printString("*****************************BEFORE ALLOCATION*****************************\n\n");
 6152              		.loc 9 37 5 is_stmt 1
 6153              		.loc 9 37 16 is_stmt 0
 6154 2094 17050000 		lla	a0,.LC29
 6154      13050500 
 6155 209c 97000000 		call	_Z11printStringPKc@plt
 6155      E7800000 
 6156              	.LVL682:
  38:test/../test/test_slab_buddy_alloc.h **** }
 6157              		.loc 9 38 1
 6158 20a4 83308102 		ld	ra,40(sp)
 6159              		.cfi_restore 1
 6160 20a8 03340102 		ld	s0,32(sp)
 6161              		.cfi_restore 8
 6162              		.cfi_def_cfa 2, 48
 6163 20ac 83348101 		ld	s1,24(sp)
 6164              		.cfi_restore 9
 6165              	.LVL683:
 6166 20b0 03390101 		ld	s2,16(sp)
 6167              		.cfi_restore 18
 6168 20b4 83398100 		ld	s3,8(sp)
 6169              		.cfi_restore 19
 6170              	.LVL684:
 6171 20b8 13010103 		addi	sp,sp,48
 6172              		.cfi_def_cfa_offset 0
 6173 20bc 67800000 		jr	ra
 6174              		.cfi_endproc
 6175              	.LFE116:
 6177              		.section	.rodata.str1.8
 6178 028a 00000000 		.align	3
 6178      0000
 6179              	.LC33:
 6180 0290 706F6461 		.string	"podatak: "
 6180      74616B3A 
 6180      2000
 6181 029a 00000000 		.align	3
 6181      0000
 6182              	.LC34:
 6183 02a0 20616472 		.string	" adresa: "
 6183      6573613A 
 6183      2000
 6184 02aa 00000000 		.align	3
 6184      0000
 6185              	.LC35:
 6186 02b0 0900     		.string	"\t"
 6187              		.text
 6188              		.align	2
 6189              		.globl	_Z22test_pristup_parametruv
 6191              	_Z22test_pristup_parametruv:
 6192              	.LFB117:
  39:test/../test/test_slab_buddy_alloc.h **** 
  40:test/../test/test_slab_buddy_alloc.h **** void test_pristup_parametru(){
 6193              		.loc 9 40 30 is_stmt 1
 6194              		.cfi_startproc
 6195 20c0 130101FD 		addi	sp,sp,-48
 6196              		.cfi_def_cfa_offset 48
GAS LISTING /tmp/cc5eykcM.s 			page 150


 6197 20c4 23341102 		sd	ra,40(sp)
 6198 20c8 23308102 		sd	s0,32(sp)
 6199 20cc 233C9100 		sd	s1,24(sp)
 6200 20d0 23382101 		sd	s2,16(sp)
 6201 20d4 23343101 		sd	s3,8(sp)
 6202 20d8 23304101 		sd	s4,0(sp)
 6203              		.cfi_offset 1, -8
 6204              		.cfi_offset 8, -16
 6205              		.cfi_offset 9, -24
 6206              		.cfi_offset 18, -32
 6207              		.cfi_offset 19, -40
 6208              		.cfi_offset 20, -48
 6209 20dc 13040103 		addi	s0,sp,48
 6210              		.cfi_def_cfa 8, 0
  41:test/../test/test_slab_buddy_alloc.h ****     kmem_cache_t* cache1 = kmem_cache_create("Class1", sizeof(Class1), nullptr, nullptr);
 6211              		.loc 9 41 5
 6212              		.loc 9 41 45 is_stmt 0
 6213 20e0 93060000 		li	a3,0
 6214 20e4 13060000 		li	a2,0
 6215 20e8 93051000 		li	a1,1
 6216 20ec 17050000 		lla	a0,.LC28
 6216      13050500 
 6217 20f4 97000000 		call	_Z17kmem_cache_createPKcmPFvPvES3_@plt
 6217      E7800000 
 6218              	.LVL685:
 6219 20fc 130A0500 		mv	s4,a0
 6220              	.LVL686:
  42:test/../test/test_slab_buddy_alloc.h ****     printString("*****************************BEFORE ALLOCATION*****************************\n\n");
 6221              		.loc 9 42 5 is_stmt 1
 6222              		.loc 9 42 16 is_stmt 0
 6223 2100 17050000 		lla	a0,.LC29
 6223      13050500 
 6224              	.LVL687:
 6225 2108 97000000 		call	_Z11printStringPKc@plt
 6225      E7800000 
 6226              	.LVL688:
  43:test/../test/test_slab_buddy_alloc.h ****     kmem_cache_info(cache1);
 6227              		.loc 9 43 5 is_stmt 1
 6228              		.loc 9 43 20 is_stmt 0
 6229 2110 13050A00 		mv	a0,s4
 6230 2114 97000000 		call	_Z15kmem_cache_infoP12kmem_cache_s@plt
 6230      E7800000 
 6231              	.LVL689:
 6232              	.LBB242:
  44:test/../test/test_slab_buddy_alloc.h ****     const int arrSize = 8000;
  45:test/../test/test_slab_buddy_alloc.h ****     Class1* arr[arrSize];
  46:test/../test/test_slab_buddy_alloc.h ****     char c = 'a';
  47:test/../test/test_slab_buddy_alloc.h ****     for (int i = 0; i < arrSize; i++) {
 6233              		.loc 9 47 14
 6234 211c 13090000 		li	s2,0
 6235              	.LBE242:
  46:test/../test/test_slab_buddy_alloc.h ****     for (int i = 0; i < arrSize; i++) {
 6236              		.loc 9 46 10
 6237 2120 93091006 		li	s3,97
 6238 2124 6F000002 		j	.L339
 6239              	.LVL690:
 6240              	.L340:
GAS LISTING /tmp/cc5eykcM.s 			page 151


 6241              	.LBB243:
  48:test/../test/test_slab_buddy_alloc.h ****         arr[i] = (Class1*)kmem_cache_alloc(cache1);
  49:test/../test/test_slab_buddy_alloc.h ****         printString("(");
  50:test/../test/test_slab_buddy_alloc.h ****         printInt(i);
  51:test/../test/test_slab_buddy_alloc.h ****         printString(") ");
  52:test/../test/test_slab_buddy_alloc.h ****         arr[i]->c = c;
  53:test/../test/test_slab_buddy_alloc.h ****         if(c++ == 'a' + 30){
  54:test/../test/test_slab_buddy_alloc.h ****             c = 'a';
 6242              		.loc 9 54 15
 6243 2128 93091006 		li	s3,97
 6244 212c 6F000008 		j	.L336
 6245              	.LVL691:
 6246              	.L337:
  55:test/../test/test_slab_buddy_alloc.h ****         }
  56:test/../test/test_slab_buddy_alloc.h ****         printString("podatak: ");
  57:test/../test/test_slab_buddy_alloc.h ****         printInt(arr[i]->c);
  58:test/../test/test_slab_buddy_alloc.h ****         printString(" adresa: ");
  59:test/../test/test_slab_buddy_alloc.h ****         printInt((size_t)arr[i]);
  60:test/../test/test_slab_buddy_alloc.h ****         printString("\t");
  61:test/../test/test_slab_buddy_alloc.h ****         if (i % 100 == 0)
  62:test/../test/test_slab_buddy_alloc.h ****             printString("\n");
  63:test/../test/test_slab_buddy_alloc.h ****         else
  64:test/../test/test_slab_buddy_alloc.h ****             printString(" ");
 6247              		.loc 9 64 13 is_stmt 1
 6248              		.loc 9 64 24 is_stmt 0
 6249 2130 17050000 		lla	a0,.LC32
 6249      13050500 
 6250 2138 97000000 		call	_Z11printStringPKc@plt
 6250      E7800000 
 6251              	.LVL692:
 6252              	.L338:
  47:test/../test/test_slab_buddy_alloc.h ****         arr[i] = (Class1*)kmem_cache_alloc(cache1);
 6253              		.loc 9 47 5 is_stmt 1 discriminator 2
 6254 2140 1B091900 		addiw	s2,s2,1
 6255              	.LVL693:
 6256              	.L339:
  47:test/../test/test_slab_buddy_alloc.h ****         arr[i] = (Class1*)kmem_cache_alloc(cache1);
 6257              		.loc 9 47 23 discriminator 1
 6258 2144 B7270000 		li	a5,8192
 6259 2148 9387F7F3 		addi	a5,a5,-193
 6260 214c 63CC270D 		bgt	s2,a5,.L335
  48:test/../test/test_slab_buddy_alloc.h ****         arr[i] = (Class1*)kmem_cache_alloc(cache1);
 6261              		.loc 9 48 9
  48:test/../test/test_slab_buddy_alloc.h ****         arr[i] = (Class1*)kmem_cache_alloc(cache1);
 6262              		.loc 9 48 43 is_stmt 0
 6263 2150 13050A00 		mv	a0,s4
 6264 2154 97000000 		call	_Z16kmem_cache_allocP12kmem_cache_s@plt
 6264      E7800000 
 6265              	.LVL694:
 6266 215c 93040500 		mv	s1,a0
  49:test/../test/test_slab_buddy_alloc.h ****         printInt(i);
 6267              		.loc 9 49 9 is_stmt 1
  49:test/../test/test_slab_buddy_alloc.h ****         printInt(i);
 6268              		.loc 9 49 20 is_stmt 0
 6269 2160 17050000 		lla	a0,.LC30
 6269      13050500 
 6270 2168 97000000 		call	_Z11printStringPKc@plt
GAS LISTING /tmp/cc5eykcM.s 			page 152


 6270      E7800000 
 6271              	.LVL695:
  50:test/../test/test_slab_buddy_alloc.h ****         printString(") ");
 6272              		.loc 9 50 9 is_stmt 1
  50:test/../test/test_slab_buddy_alloc.h ****         printString(") ");
 6273              		.loc 9 50 17 is_stmt 0
 6274 2170 13060000 		li	a2,0
 6275 2174 9305A000 		li	a1,10
 6276 2178 13050900 		mv	a0,s2
 6277 217c 97000000 		call	_Z8printIntiii@plt
 6277      E7800000 
 6278              	.LVL696:
  51:test/../test/test_slab_buddy_alloc.h ****         arr[i]->c = c;
 6279              		.loc 9 51 9 is_stmt 1
  51:test/../test/test_slab_buddy_alloc.h ****         arr[i]->c = c;
 6280              		.loc 9 51 20 is_stmt 0
 6281 2184 17050000 		lla	a0,.LC31
 6281      13050500 
 6282 218c 97000000 		call	_Z11printStringPKc@plt
 6282      E7800000 
 6283              	.LVL697:
  52:test/../test/test_slab_buddy_alloc.h ****         if(c++ == 'a' + 30){
 6284              		.loc 9 52 9 is_stmt 1
  52:test/../test/test_slab_buddy_alloc.h ****         if(c++ == 'a' + 30){
 6285              		.loc 9 52 19 is_stmt 0
 6286 2194 23803401 		sb	s3,0(s1)
  53:test/../test/test_slab_buddy_alloc.h ****             c = 'a';
 6287              		.loc 9 53 9 is_stmt 1
  53:test/../test/test_slab_buddy_alloc.h ****             c = 'a';
 6288              		.loc 9 53 13 is_stmt 0
 6289 2198 9B871900 		addiw	a5,s3,1
 6290 219c 93F7F70F 		andi	a5,a5,0xff
 6291              	.LVL698:
  53:test/../test/test_slab_buddy_alloc.h ****             c = 'a';
 6292              		.loc 9 53 9
 6293 21a0 1307F007 		li	a4,127
 6294 21a4 E382E9F8 		beq	s3,a4,.L340
  53:test/../test/test_slab_buddy_alloc.h ****             c = 'a';
 6295              		.loc 9 53 13
 6296 21a8 93890700 		mv	s3,a5
 6297              	.L336:
 6298              	.LVL699:
  56:test/../test/test_slab_buddy_alloc.h ****         printInt(arr[i]->c);
 6299              		.loc 9 56 9 is_stmt 1
  56:test/../test/test_slab_buddy_alloc.h ****         printInt(arr[i]->c);
 6300              		.loc 9 56 20 is_stmt 0
 6301 21ac 17050000 		lla	a0,.LC33
 6301      13050500 
 6302 21b4 97000000 		call	_Z11printStringPKc@plt
 6302      E7800000 
 6303              	.LVL700:
  57:test/../test/test_slab_buddy_alloc.h ****         printString(" adresa: ");
 6304              		.loc 9 57 9 is_stmt 1
  57:test/../test/test_slab_buddy_alloc.h ****         printString(" adresa: ");
 6305              		.loc 9 57 17 is_stmt 0
 6306 21bc 13060000 		li	a2,0
 6307 21c0 9305A000 		li	a1,10
GAS LISTING /tmp/cc5eykcM.s 			page 153


 6308 21c4 03C50400 		lbu	a0,0(s1)
 6309 21c8 97000000 		call	_Z8printIntiii@plt
 6309      E7800000 
 6310              	.LVL701:
  58:test/../test/test_slab_buddy_alloc.h ****         printInt((size_t)arr[i]);
 6311              		.loc 9 58 9 is_stmt 1
  58:test/../test/test_slab_buddy_alloc.h ****         printInt((size_t)arr[i]);
 6312              		.loc 9 58 20 is_stmt 0
 6313 21d0 17050000 		lla	a0,.LC34
 6313      13050500 
 6314 21d8 97000000 		call	_Z11printStringPKc@plt
 6314      E7800000 
 6315              	.LVL702:
  59:test/../test/test_slab_buddy_alloc.h ****         printString("\t");
 6316              		.loc 9 59 9 is_stmt 1
  59:test/../test/test_slab_buddy_alloc.h ****         printString("\t");
 6317              		.loc 9 59 17 is_stmt 0
 6318 21e0 13060000 		li	a2,0
 6319 21e4 9305A000 		li	a1,10
 6320 21e8 1B850400 		sext.w	a0,s1
 6321 21ec 97000000 		call	_Z8printIntiii@plt
 6321      E7800000 
 6322              	.LVL703:
  60:test/../test/test_slab_buddy_alloc.h ****         if (i % 100 == 0)
 6323              		.loc 9 60 9 is_stmt 1
  60:test/../test/test_slab_buddy_alloc.h ****         if (i % 100 == 0)
 6324              		.loc 9 60 20 is_stmt 0
 6325 21f4 17050000 		lla	a0,.LC35
 6325      13050500 
 6326 21fc 97000000 		call	_Z11printStringPKc@plt
 6326      E7800000 
 6327              	.LVL704:
  61:test/../test/test_slab_buddy_alloc.h ****             printString("\n");
 6328              		.loc 9 61 9 is_stmt 1
  61:test/../test/test_slab_buddy_alloc.h ****             printString("\n");
 6329              		.loc 9 61 15 is_stmt 0
 6330 2204 93074006 		li	a5,100
 6331 2208 BB67F902 		remw	a5,s2,a5
  61:test/../test/test_slab_buddy_alloc.h ****             printString("\n");
 6332              		.loc 9 61 9
 6333 220c E39207F2 		bnez	a5,.L337
  62:test/../test/test_slab_buddy_alloc.h ****         else
 6334              		.loc 9 62 13 is_stmt 1
  62:test/../test/test_slab_buddy_alloc.h ****         else
 6335              		.loc 9 62 24 is_stmt 0
 6336 2210 17050000 		lla	a0,.LC2
 6336      13050500 
 6337 2218 97000000 		call	_Z11printStringPKc@plt
 6337      E7800000 
 6338              	.LVL705:
 6339 2220 6FF01FF2 		j	.L338
 6340              	.L335:
 6341              	.LBE243:
  65:test/../test/test_slab_buddy_alloc.h ****     }
  66:test/../test/test_slab_buddy_alloc.h ****     printString("\n");
 6342              		.loc 9 66 5 is_stmt 1
 6343              		.loc 9 66 16 is_stmt 0
GAS LISTING /tmp/cc5eykcM.s 			page 154


 6344 2224 17050000 		lla	a0,.LC2
 6344      13050500 
 6345 222c 97000000 		call	_Z11printStringPKc@plt
 6345      E7800000 
 6346              	.LVL706:
  67:test/../test/test_slab_buddy_alloc.h ****     printString("*****************************BEFORE ALLOCATION*****************************\n\n");
 6347              		.loc 9 67 5 is_stmt 1
 6348              		.loc 9 67 16 is_stmt 0
 6349 2234 17050000 		lla	a0,.LC29
 6349      13050500 
 6350 223c 97000000 		call	_Z11printStringPKc@plt
 6350      E7800000 
 6351              	.LVL707:
  68:test/../test/test_slab_buddy_alloc.h **** }
 6352              		.loc 9 68 1
 6353 2244 83308102 		ld	ra,40(sp)
 6354              		.cfi_restore 1
 6355 2248 03340102 		ld	s0,32(sp)
 6356              		.cfi_restore 8
 6357              		.cfi_def_cfa 2, 48
 6358 224c 83348101 		ld	s1,24(sp)
 6359              		.cfi_restore 9
 6360 2250 03390101 		ld	s2,16(sp)
 6361              		.cfi_restore 18
 6362              	.LVL708:
 6363 2254 83398100 		ld	s3,8(sp)
 6364              		.cfi_restore 19
 6365              	.LVL709:
 6366 2258 033A0100 		ld	s4,0(sp)
 6367              		.cfi_restore 20
 6368              	.LVL710:
 6369 225c 13010103 		addi	sp,sp,48
 6370              		.cfi_def_cfa_offset 0
 6371 2260 67800000 		jr	ra
 6372              		.cfi_endproc
 6373              	.LFE117:
 6375              		.section	.rodata.str1.8
 6376 02b2 00000000 		.align	3
 6376      0000
 6377              	.LC36:
 6378 02b8 2A2A2A2A 		.string	"*****************************AFTER ALLOCATION******************************\n\n"
 6378      2A2A2A2A 
 6378      2A2A2A2A 
 6378      2A2A2A2A 
 6378      2A2A2A2A 
 6379 0306 0000     		.align	3
 6380              	.LC37:
 6381 0308 4E657573 		.string	"Neuspesna dealokacija: "
 6381      7065736E 
 6381      61206465 
 6381      616C6F6B 
 6381      6163696A 
 6382              		.align	3
 6383              	.LC38:
 6384 0320 2C206E61 		.string	", na adresi: "
 6384      20616472 
 6384      6573693A 
GAS LISTING /tmp/cc5eykcM.s 			page 155


 6384      2000
 6385 032e 0000     		.align	3
 6386              	.LC39:
 6387 0330 2A2A2A2A 		.string	"*****************************AFTER DEALLOCATION****************************\n\n"
 6387      2A2A2A2A 
 6387      2A2A2A2A 
 6387      2A2A2A2A 
 6387      2A2A2A2A 
 6388              		.text
 6389              		.align	2
 6390              		.globl	_Z16test_performansiv
 6392              	_Z16test_performansiv:
 6393              	.LFB118:
  69:test/../test/test_slab_buddy_alloc.h **** 
  70:test/../test/test_slab_buddy_alloc.h **** const int arrSize = 100000;
  71:test/../test/test_slab_buddy_alloc.h **** //const int arrSize = 2032;
  72:test/../test/test_slab_buddy_alloc.h **** Class1* arr[arrSize];
  73:test/../test/test_slab_buddy_alloc.h **** 
  74:test/../test/test_slab_buddy_alloc.h **** void test_performansi() {
 6394              		.loc 9 74 25 is_stmt 1
 6395              		.cfi_startproc
 6396 2264 130101FE 		addi	sp,sp,-32
 6397              		.cfi_def_cfa_offset 32
 6398 2268 233C1100 		sd	ra,24(sp)
 6399 226c 23388100 		sd	s0,16(sp)
 6400 2270 23349100 		sd	s1,8(sp)
 6401 2274 23302101 		sd	s2,0(sp)
 6402              		.cfi_offset 1, -8
 6403              		.cfi_offset 8, -16
 6404              		.cfi_offset 9, -24
 6405              		.cfi_offset 18, -32
 6406 2278 13040102 		addi	s0,sp,32
 6407              		.cfi_def_cfa 8, 0
  75:test/../test/test_slab_buddy_alloc.h ****     kmem_cache_t* cache1 = kmem_cache_create("Class1", sizeof(Class1), nullptr, nullptr);
 6408              		.loc 9 75 5
 6409              		.loc 9 75 45 is_stmt 0
 6410 227c 93060000 		li	a3,0
 6411 2280 13060000 		li	a2,0
 6412 2284 93051000 		li	a1,1
 6413 2288 17050000 		lla	a0,.LC28
 6413      13050500 
 6414 2290 97000000 		call	_Z17kmem_cache_createPKcmPFvPvES3_@plt
 6414      E7800000 
 6415              	.LVL711:
 6416 2298 13090500 		mv	s2,a0
 6417              	.LVL712:
  76:test/../test/test_slab_buddy_alloc.h ****     printString("*****************************BEFORE ALLOCATION*****************************\n\n");
 6418              		.loc 9 76 5 is_stmt 1
 6419              		.loc 9 76 16 is_stmt 0
 6420 229c 17050000 		lla	a0,.LC29
 6420      13050500 
 6421              	.LVL713:
 6422 22a4 97000000 		call	_Z11printStringPKc@plt
 6422      E7800000 
 6423              	.LVL714:
  77:test/../test/test_slab_buddy_alloc.h ****     kmem_cache_info(cache1);
 6424              		.loc 9 77 5 is_stmt 1
GAS LISTING /tmp/cc5eykcM.s 			page 156


 6425              		.loc 9 77 20 is_stmt 0
 6426 22ac 13050900 		mv	a0,s2
 6427 22b0 97000000 		call	_Z15kmem_cache_infoP12kmem_cache_s@plt
 6427      E7800000 
 6428              	.LVL715:
  78:test/../test/test_slab_buddy_alloc.h ****     for (int i = 0; i < arrSize; i++) {
 6429              		.loc 9 78 5 is_stmt 1
 6430              	.LBB244:
 6431              		.loc 9 78 14 is_stmt 0
 6432 22b8 93040000 		li	s1,0
 6433              	.LVL716:
 6434              	.L344:
 6435              		.loc 9 78 23 is_stmt 1 discriminator 3
 6436 22bc B7870100 		li	a5,98304
 6437 22c0 9387F769 		addi	a5,a5,1695
 6438 22c4 63C69702 		bgt	s1,a5,.L343
  79:test/../test/test_slab_buddy_alloc.h ****         arr[i] = (Class1*)kmem_cache_alloc(cache1);
 6439              		.loc 9 79 9 discriminator 2
 6440              		.loc 9 79 43 is_stmt 0 discriminator 2
 6441 22c8 13050900 		mv	a0,s2
 6442 22cc 97000000 		call	_Z16kmem_cache_allocP12kmem_cache_s@plt
 6442      E7800000 
 6443              	.LVL717:
 6444              		.loc 9 79 16 discriminator 2
 6445 22d4 13973400 		slli	a4,s1,3
 6446 22d8 97070000 		lla	a5,arr
 6446      93870700 
 6447 22e0 B387E700 		add	a5,a5,a4
 6448 22e4 23B0A700 		sd	a0,0(a5)
  78:test/../test/test_slab_buddy_alloc.h ****     for (int i = 0; i < arrSize; i++) {
 6449              		.loc 9 78 5 is_stmt 1 discriminator 2
 6450 22e8 9B841400 		addiw	s1,s1,1
 6451              	.LVL718:
 6452 22ec 6FF01FFD 		j	.L344
 6453              	.LVL719:
 6454              	.L343:
 6455              	.LBE244:
  80:test/../test/test_slab_buddy_alloc.h **** //        printInt((size_t)arr[i]);
  81:test/../test/test_slab_buddy_alloc.h **** //        printString("\n");
  82:test/../test/test_slab_buddy_alloc.h ****     }
  83:test/../test/test_slab_buddy_alloc.h ****     printString("*****************************AFTER ALLOCATION******************************\n\n");
 6456              		.loc 9 83 5
 6457              		.loc 9 83 16 is_stmt 0
 6458 22f0 17050000 		lla	a0,.LC36
 6458      13050500 
 6459 22f8 97000000 		call	_Z11printStringPKc@plt
 6459      E7800000 
 6460              	.LVL720:
  84:test/../test/test_slab_buddy_alloc.h ****     kmem_cache_info(cache1);
 6461              		.loc 9 84 5 is_stmt 1
 6462              		.loc 9 84 20 is_stmt 0
 6463 2300 13050900 		mv	a0,s2
 6464 2304 97000000 		call	_Z15kmem_cache_infoP12kmem_cache_s@plt
 6464      E7800000 
 6465              	.LVL721:
  85:test/../test/test_slab_buddy_alloc.h ****     kmem_cache_free(cache1, arr[0]);
 6466              		.loc 9 85 5 is_stmt 1
GAS LISTING /tmp/cc5eykcM.s 			page 157


 6467              		.loc 9 85 20 is_stmt 0
 6468 230c 97050000 		ld	a1,arr
 6468      83B50500 
 6469 2314 13050900 		mv	a0,s2
 6470 2318 97000000 		call	_Z15kmem_cache_freeP12kmem_cache_sPv@plt
 6470      E7800000 
 6471              	.LVL722:
  86:test/../test/test_slab_buddy_alloc.h ****     for (int i = 0; i < arrSize; i++) {
 6472              		.loc 9 86 5 is_stmt 1
 6473              	.LBB245:
 6474              		.loc 9 86 14 is_stmt 0
 6475 2320 93040000 		li	s1,0
 6476              	.LVL723:
 6477 2324 6F000007 		j	.L347
 6478              	.LVL724:
 6479              	.L349:
 6480              	.LBB246:
  87:test/../test/test_slab_buddy_alloc.h **** //        if(i == 2023){
  88:test/../test/test_slab_buddy_alloc.h **** //            kmem_cache_info(cache1);
  89:test/../test/test_slab_buddy_alloc.h **** //        }
  90:test/../test/test_slab_buddy_alloc.h ****         int ret = kmem_cache_free(cache1, arr[i]);
  91:test/../test/test_slab_buddy_alloc.h ****         if(ret == -1){
  92:test/../test/test_slab_buddy_alloc.h **** //            if(i == 2023){
  93:test/../test/test_slab_buddy_alloc.h **** //                kmem_cache_info(cache1);
  94:test/../test/test_slab_buddy_alloc.h **** //            }
  95:test/../test/test_slab_buddy_alloc.h ****             printString("Neuspesna dealokacija: ");
 6481              		.loc 9 95 13 is_stmt 1
 6482              		.loc 9 95 24 is_stmt 0
 6483 2328 17050000 		lla	a0,.LC37
 6483      13050500 
 6484              	.LVL725:
 6485 2330 97000000 		call	_Z11printStringPKc@plt
 6485      E7800000 
 6486              	.LVL726:
  96:test/../test/test_slab_buddy_alloc.h ****             printInt(i);
 6487              		.loc 9 96 13 is_stmt 1
 6488              		.loc 9 96 21 is_stmt 0
 6489 2338 13060000 		li	a2,0
 6490 233c 9305A000 		li	a1,10
 6491 2340 13850400 		mv	a0,s1
 6492 2344 97000000 		call	_Z8printIntiii@plt
 6492      E7800000 
 6493              	.LVL727:
  97:test/../test/test_slab_buddy_alloc.h ****             printString(", na adresi: ");
 6494              		.loc 9 97 13 is_stmt 1
 6495              		.loc 9 97 24 is_stmt 0
 6496 234c 17050000 		lla	a0,.LC38
 6496      13050500 
 6497 2354 97000000 		call	_Z11printStringPKc@plt
 6497      E7800000 
 6498              	.LVL728:
  98:test/../test/test_slab_buddy_alloc.h ****             printInt((size_t)arr[i]);
 6499              		.loc 9 98 13 is_stmt 1
 6500              		.loc 9 98 35 is_stmt 0
 6501 235c 13973400 		slli	a4,s1,3
 6502 2360 97070000 		lla	a5,arr
 6502      93870700 
GAS LISTING /tmp/cc5eykcM.s 			page 158


 6503 2368 B387E700 		add	a5,a5,a4
 6504              		.loc 9 98 21
 6505 236c 13060000 		li	a2,0
 6506 2370 9305A000 		li	a1,10
 6507 2374 03A50700 		lw	a0,0(a5)
 6508 2378 97000000 		call	_Z8printIntiii@plt
 6508      E7800000 
 6509              	.LVL729:
  99:test/../test/test_slab_buddy_alloc.h ****             printString("\n");
 6510              		.loc 9 99 13 is_stmt 1
 6511              		.loc 9 99 24 is_stmt 0
 6512 2380 17050000 		lla	a0,.LC2
 6512      13050500 
 6513 2388 97000000 		call	_Z11printStringPKc@plt
 6513      E7800000 
 6514              	.LVL730:
 6515              	.L346:
 6516              	.LBE246:
  86:test/../test/test_slab_buddy_alloc.h **** //        if(i == 2023){
 6517              		.loc 9 86 5 is_stmt 1 discriminator 2
 6518 2390 9B841400 		addiw	s1,s1,1
 6519              	.LVL731:
 6520              	.L347:
  86:test/../test/test_slab_buddy_alloc.h **** //        if(i == 2023){
 6521              		.loc 9 86 23 discriminator 1
 6522 2394 B7870100 		li	a5,98304
 6523 2398 9387F769 		addi	a5,a5,1695
 6524 239c 63C89702 		bgt	s1,a5,.L345
 6525              	.LBB247:
  90:test/../test/test_slab_buddy_alloc.h ****         if(ret == -1){
 6526              		.loc 9 90 9
  90:test/../test/test_slab_buddy_alloc.h ****         if(ret == -1){
 6527              		.loc 9 90 48 is_stmt 0
 6528 23a0 13973400 		slli	a4,s1,3
 6529 23a4 97070000 		lla	a5,arr
 6529      93870700 
 6530 23ac B387E700 		add	a5,a5,a4
  90:test/../test/test_slab_buddy_alloc.h ****         if(ret == -1){
 6531              		.loc 9 90 34
 6532 23b0 83B50700 		ld	a1,0(a5)
 6533 23b4 13050900 		mv	a0,s2
 6534 23b8 97000000 		call	_Z15kmem_cache_freeP12kmem_cache_sPv@plt
 6534      E7800000 
 6535              	.LVL732:
  91:test/../test/test_slab_buddy_alloc.h **** //            if(i == 2023){
 6536              		.loc 9 91 9 is_stmt 1
 6537 23c0 9307F0FF 		li	a5,-1
 6538 23c4 E316F5FC 		bne	a0,a5,.L346
 6539 23c8 6FF01FF6 		j	.L349
 6540              	.LVL733:
 6541              	.L345:
 6542              	.LBE247:
 6543              	.LBE245:
 100:test/../test/test_slab_buddy_alloc.h ****         }
 101:test/../test/test_slab_buddy_alloc.h ****     }
 102:test/../test/test_slab_buddy_alloc.h ****     printString("*****************************AFTER DEALLOCATION****************************\n\n");
 6544              		.loc 9 102 5
GAS LISTING /tmp/cc5eykcM.s 			page 159


 6545              		.loc 9 102 16 is_stmt 0
 6546 23cc 17050000 		lla	a0,.LC39
 6546      13050500 
 6547 23d4 97000000 		call	_Z11printStringPKc@plt
 6547      E7800000 
 6548              	.LVL734:
 103:test/../test/test_slab_buddy_alloc.h ****     kmem_cache_info(cache1);
 6549              		.loc 9 103 5 is_stmt 1
 6550              		.loc 9 103 20 is_stmt 0
 6551 23dc 13050900 		mv	a0,s2
 6552 23e0 97000000 		call	_Z15kmem_cache_infoP12kmem_cache_s@plt
 6552      E7800000 
 6553              	.LVL735:
 104:test/../test/test_slab_buddy_alloc.h **** }
 6554              		.loc 9 104 1
 6555 23e8 83308101 		ld	ra,24(sp)
 6556              		.cfi_restore 1
 6557 23ec 03340101 		ld	s0,16(sp)
 6558              		.cfi_restore 8
 6559              		.cfi_def_cfa 2, 32
 6560 23f0 83348100 		ld	s1,8(sp)
 6561              		.cfi_restore 9
 6562              	.LVL736:
 6563 23f4 03390100 		ld	s2,0(sp)
 6564              		.cfi_restore 18
 6565              	.LVL737:
 6566 23f8 13010102 		addi	sp,sp,32
 6567              		.cfi_def_cfa_offset 0
 6568 23fc 67800000 		jr	ra
 6569              		.cfi_endproc
 6570              	.LFE118:
 6572              		.section	.rodata.str1.8
 6573 037e 0000     		.align	3
 6574              	.LC40:
 6575 0380 4E61646A 		.string	"Nadjena razlika sa prethodnom adresom: "
 6575      656E6120 
 6575      72617A6C 
 6575      696B6120 
 6575      73612070 
 6576              		.align	3
 6577              	.LC41:
 6578 03a8 4E61646A 		.string	"Nadjene dve uzastopne iste adrese"
 6578      656E6520 
 6578      64766520 
 6578      757A6173 
 6578      746F706E 
 6579              		.text
 6580              		.align	2
 6581              		.globl	_Z23test_razlika_u_adresamav
 6583              	_Z23test_razlika_u_adresamav:
 6584              	.LFB119:
 105:test/../test/test_slab_buddy_alloc.h **** 
 106:test/../test/test_slab_buddy_alloc.h **** void test_razlika_u_adresama(){
 6585              		.loc 9 106 31 is_stmt 1
 6586              		.cfi_startproc
 6587 2400 130101FC 		addi	sp,sp,-64
 6588              		.cfi_def_cfa_offset 64
GAS LISTING /tmp/cc5eykcM.s 			page 160


 6589 2404 233C1102 		sd	ra,56(sp)
 6590 2408 23388102 		sd	s0,48(sp)
 6591 240c 23349102 		sd	s1,40(sp)
 6592 2410 23302103 		sd	s2,32(sp)
 6593 2414 233C3101 		sd	s3,24(sp)
 6594 2418 23384101 		sd	s4,16(sp)
 6595 241c 23345101 		sd	s5,8(sp)
 6596              		.cfi_offset 1, -8
 6597              		.cfi_offset 8, -16
 6598              		.cfi_offset 9, -24
 6599              		.cfi_offset 18, -32
 6600              		.cfi_offset 19, -40
 6601              		.cfi_offset 20, -48
 6602              		.cfi_offset 21, -56
 6603 2420 13040104 		addi	s0,sp,64
 6604              		.cfi_def_cfa 8, 0
 107:test/../test/test_slab_buddy_alloc.h ****     kmem_cache_t* cache1 = kmem_cache_create("Class1", sizeof(Class1), nullptr, nullptr);
 6605              		.loc 9 107 5
 6606              		.loc 9 107 45 is_stmt 0
 6607 2424 93060000 		li	a3,0
 6608 2428 13060000 		li	a2,0
 6609 242c 93051000 		li	a1,1
 6610 2430 17050000 		lla	a0,.LC28
 6610      13050500 
 6611 2438 97000000 		call	_Z17kmem_cache_createPKcmPFvPvES3_@plt
 6611      E7800000 
 6612              	.LVL738:
 6613 2440 930A0500 		mv	s5,a0
 6614              	.LVL739:
 108:test/../test/test_slab_buddy_alloc.h ****     printString("*****************************BEFORE ALLOCATION*****************************\n\n");
 6615              		.loc 9 108 5 is_stmt 1
 6616              		.loc 9 108 16 is_stmt 0
 6617 2444 17050000 		lla	a0,.LC29
 6617      13050500 
 6618              	.LVL740:
 6619 244c 97000000 		call	_Z11printStringPKc@plt
 6619      E7800000 
 6620              	.LVL741:
 109:test/../test/test_slab_buddy_alloc.h ****     kmem_cache_info(cache1);
 6621              		.loc 9 109 5 is_stmt 1
 6622              		.loc 9 109 20 is_stmt 0
 6623 2454 13850A00 		mv	a0,s5
 6624 2458 97000000 		call	_Z15kmem_cache_infoP12kmem_cache_s@plt
 6624      E7800000 
 6625              	.LVL742:
 6626              	.LBB248:
 110:test/../test/test_slab_buddy_alloc.h ****     Class1* arr[arrSize];
 111:test/../test/test_slab_buddy_alloc.h ****     size_t prevAddr = 0;
 112:test/../test/test_slab_buddy_alloc.h ****     for (int i = 0; i < arrSize; i++) {
 6627              		.loc 9 112 14
 6628 2460 93090000 		li	s3,0
 6629              	.LBE248:
 111:test/../test/test_slab_buddy_alloc.h ****     for (int i = 0; i < arrSize; i++) {
 6630              		.loc 9 111 12
 6631 2464 13090000 		li	s2,0
 6632 2468 6F004004 		j	.L354
 6633              	.LVL743:
GAS LISTING /tmp/cc5eykcM.s 			page 161


 6634              	.L357:
 6635              	.LBB249:
 113:test/../test/test_slab_buddy_alloc.h ****         arr[i] = (Class1*)kmem_cache_alloc(cache1);
 114:test/../test/test_slab_buddy_alloc.h ****         if ((size_t)arr[i] - prevAddr != 1 && prevAddr != 0) {
 115:test/../test/test_slab_buddy_alloc.h ****             printString("Nadjena razlika sa prethodnom adresom: ");
 6636              		.loc 9 115 13 is_stmt 1
 6637              		.loc 9 115 24 is_stmt 0
 6638 246c 17050000 		lla	a0,.LC40
 6638      13050500 
 6639 2474 97000000 		call	_Z11printStringPKc@plt
 6639      E7800000 
 6640              	.LVL744:
 116:test/../test/test_slab_buddy_alloc.h ****             printInt((size_t)arr[i]);
 6641              		.loc 9 116 13 is_stmt 1
 6642              		.loc 9 116 21 is_stmt 0
 6643 247c 13060000 		li	a2,0
 6644 2480 9305A000 		li	a1,10
 6645 2484 1B850400 		sext.w	a0,s1
 6646 2488 97000000 		call	_Z8printIntiii@plt
 6646      E7800000 
 6647              	.LVL745:
 117:test/../test/test_slab_buddy_alloc.h ****             printString("\n");
 6648              		.loc 9 117 13 is_stmt 1
 6649              		.loc 9 117 24 is_stmt 0
 6650 2490 17050000 		lla	a0,.LC2
 6650      13050500 
 6651 2498 97000000 		call	_Z11printStringPKc@plt
 6651      E7800000 
 6652              	.LVL746:
 6653              	.L352:
 118:test/../test/test_slab_buddy_alloc.h ****         }
 119:test/../test/test_slab_buddy_alloc.h ****         if((size_t)arr[i] - prevAddr == 0){
 6654              		.loc 9 119 9 is_stmt 1
 6655 24a0 63002A05 		beq	s4,s2,.L356
 6656              	.L353:
 120:test/../test/test_slab_buddy_alloc.h ****             printString("Nadjene dve uzastopne iste adrese");
 121:test/../test/test_slab_buddy_alloc.h ****             printInt((size_t)arr[i]);
 122:test/../test/test_slab_buddy_alloc.h ****             printString("\n");
 123:test/../test/test_slab_buddy_alloc.h ****         }
 124:test/../test/test_slab_buddy_alloc.h **** //        for(int j = 0; j < i; j++){
 125:test/../test/test_slab_buddy_alloc.h **** //            if((size_t)arr[i] - (size_t)arr[j] == 0){
 126:test/../test/test_slab_buddy_alloc.h **** //                printString("Ova adresa ima duplikat: ");
 127:test/../test/test_slab_buddy_alloc.h **** //                printInt((size_t)arr[i]);
 128:test/../test/test_slab_buddy_alloc.h **** //                printString("\n");
 129:test/../test/test_slab_buddy_alloc.h **** //            }
 130:test/../test/test_slab_buddy_alloc.h **** //        }
 131:test/../test/test_slab_buddy_alloc.h ****         prevAddr = (size_t)arr[i];
 6657              		.loc 9 131 9 discriminator 2
 6658              	.LVL747:
 112:test/../test/test_slab_buddy_alloc.h ****         arr[i] = (Class1*)kmem_cache_alloc(cache1);
 6659              		.loc 9 112 5 discriminator 2
 6660 24a4 9B891900 		addiw	s3,s3,1
 6661              	.LVL748:
 6662              		.loc 9 131 18 is_stmt 0 discriminator 2
 6663 24a8 13890400 		mv	s2,s1
 6664              	.LVL749:
 6665              	.L354:
GAS LISTING /tmp/cc5eykcM.s 			page 162


 112:test/../test/test_slab_buddy_alloc.h ****         arr[i] = (Class1*)kmem_cache_alloc(cache1);
 6666              		.loc 9 112 23 is_stmt 1 discriminator 1
 6667 24ac B7870100 		li	a5,98304
 6668 24b0 9387F769 		addi	a5,a5,1695
 6669 24b4 63C23707 		bgt	s3,a5,.L351
 113:test/../test/test_slab_buddy_alloc.h ****         if ((size_t)arr[i] - prevAddr != 1 && prevAddr != 0) {
 6670              		.loc 9 113 9
 113:test/../test/test_slab_buddy_alloc.h ****         if ((size_t)arr[i] - prevAddr != 1 && prevAddr != 0) {
 6671              		.loc 9 113 43 is_stmt 0
 6672 24b8 13850A00 		mv	a0,s5
 6673 24bc 97000000 		call	_Z16kmem_cache_allocP12kmem_cache_s@plt
 6673      E7800000 
 6674              	.LVL750:
 6675 24c4 93040500 		mv	s1,a0
 114:test/../test/test_slab_buddy_alloc.h ****             printString("Nadjena razlika sa prethodnom adresom: ");
 6676              		.loc 9 114 9 is_stmt 1
 114:test/../test/test_slab_buddy_alloc.h ****             printString("Nadjena razlika sa prethodnom adresom: ");
 6677              		.loc 9 114 28 is_stmt 0
 6678 24c8 130A0500 		mv	s4,a0
 6679 24cc 33072541 		sub	a4,a0,s2
 114:test/../test/test_slab_buddy_alloc.h ****             printString("Nadjena razlika sa prethodnom adresom: ");
 6680              		.loc 9 114 9
 6681 24d0 93071000 		li	a5,1
 6682 24d4 E306F7FC 		beq	a4,a5,.L352
 114:test/../test/test_slab_buddy_alloc.h ****             printString("Nadjena razlika sa prethodnom adresom: ");
 6683              		.loc 9 114 44 discriminator 1
 6684 24d8 E30409FC 		beqz	s2,.L352
 6685 24dc 6FF01FF9 		j	.L357
 6686              	.L356:
 120:test/../test/test_slab_buddy_alloc.h ****             printInt((size_t)arr[i]);
 6687              		.loc 9 120 13 is_stmt 1
 120:test/../test/test_slab_buddy_alloc.h ****             printInt((size_t)arr[i]);
 6688              		.loc 9 120 24 is_stmt 0
 6689 24e0 17050000 		lla	a0,.LC41
 6689      13050500 
 6690 24e8 97000000 		call	_Z11printStringPKc@plt
 6690      E7800000 
 6691              	.LVL751:
 121:test/../test/test_slab_buddy_alloc.h ****             printString("\n");
 6692              		.loc 9 121 13 is_stmt 1
 121:test/../test/test_slab_buddy_alloc.h ****             printString("\n");
 6693              		.loc 9 121 21 is_stmt 0
 6694 24f0 13060000 		li	a2,0
 6695 24f4 9305A000 		li	a1,10
 6696 24f8 1B850400 		sext.w	a0,s1
 6697 24fc 97000000 		call	_Z8printIntiii@plt
 6697      E7800000 
 6698              	.LVL752:
 122:test/../test/test_slab_buddy_alloc.h ****         }
 6699              		.loc 9 122 13 is_stmt 1
 122:test/../test/test_slab_buddy_alloc.h ****         }
 6700              		.loc 9 122 24 is_stmt 0
 6701 2504 17050000 		lla	a0,.LC2
 6701      13050500 
 6702 250c 97000000 		call	_Z11printStringPKc@plt
 6702      E7800000 
 6703              	.LVL753:
GAS LISTING /tmp/cc5eykcM.s 			page 163


 6704 2514 6FF01FF9 		j	.L353
 6705              	.L351:
 6706              	.LBE249:
 132:test/../test/test_slab_buddy_alloc.h **** 
 133:test/../test/test_slab_buddy_alloc.h ****     }
 134:test/../test/test_slab_buddy_alloc.h ****     printString("*****************************AFTER ALLOCATION******************************\n\n");
 6707              		.loc 9 134 5 is_stmt 1
 6708              		.loc 9 134 16 is_stmt 0
 6709 2518 17050000 		lla	a0,.LC36
 6709      13050500 
 6710 2520 97000000 		call	_Z11printStringPKc@plt
 6710      E7800000 
 6711              	.LVL754:
 135:test/../test/test_slab_buddy_alloc.h ****     printString("\n");
 6712              		.loc 9 135 5 is_stmt 1
 6713              		.loc 9 135 16 is_stmt 0
 6714 2528 17050000 		lla	a0,.LC2
 6714      13050500 
 6715 2530 97000000 		call	_Z11printStringPKc@plt
 6715      E7800000 
 6716              	.LVL755:
 136:test/../test/test_slab_buddy_alloc.h ****     kmem_cache_info(cache1);
 6717              		.loc 9 136 5 is_stmt 1
 6718              		.loc 9 136 20 is_stmt 0
 6719 2538 13850A00 		mv	a0,s5
 6720 253c 97000000 		call	_Z15kmem_cache_infoP12kmem_cache_s@plt
 6720      E7800000 
 6721              	.LVL756:
 137:test/../test/test_slab_buddy_alloc.h **** }
 6722              		.loc 9 137 1
 6723 2544 83308103 		ld	ra,56(sp)
 6724              		.cfi_restore 1
 6725 2548 03340103 		ld	s0,48(sp)
 6726              		.cfi_restore 8
 6727              		.cfi_def_cfa 2, 64
 6728 254c 83348102 		ld	s1,40(sp)
 6729              		.cfi_restore 9
 6730 2550 03390102 		ld	s2,32(sp)
 6731              		.cfi_restore 18
 6732              	.LVL757:
 6733 2554 83398101 		ld	s3,24(sp)
 6734              		.cfi_restore 19
 6735              	.LVL758:
 6736 2558 033A0101 		ld	s4,16(sp)
 6737              		.cfi_restore 20
 6738 255c 833A8100 		ld	s5,8(sp)
 6739              		.cfi_restore 21
 6740              	.LVL759:
 6741 2560 13010104 		addi	sp,sp,64
 6742              		.cfi_def_cfa_offset 0
 6743 2564 67800000 		jr	ra
 6744              		.cfi_endproc
 6745              	.LFE119:
 6747              		.align	2
 6748              		.globl	_Z8userMainv
 6750              	_Z8userMainv:
 6751              	.LFB120:
GAS LISTING /tmp/cc5eykcM.s 			page 164


 6752              		.file 10 "test/userMain.cpp"
   1:test/userMain.cpp **** #include "../test/userMain.hpp"
   2:test/userMain.cpp **** #include "../test/Threads_C_API_test.hpp" // zadatak 2, niti C API i sinhrona promena konteksta
   3:test/userMain.cpp **** #include "../test/Threads_CPP_API_test.hpp" // zadatak 2., niti CPP API i sinhrona promena kontekst
   4:test/userMain.cpp **** 
   5:test/userMain.cpp **** #include "../test/ConsumerProducer_C_API_test.h" // zadatak 3., kompletan C API sa semaforima, sinh
   6:test/userMain.cpp **** #include "../test/ConsumerProducer_CPP_Sync_API_test.hpp" // zadatak 3., kompletan CPP API sa semaf
   7:test/userMain.cpp **** 
   8:test/userMain.cpp **** #include "../test/ThreadSleep_C_API_test.hpp" // thread_sleep test C API
   9:test/userMain.cpp **** #include "../test/ConsumerProducer_CPP_API_test.hpp" // zadatak 4. CPP API i asinhrona promena kont
  10:test/userMain.cpp **** //#include "../test/testPrenosParametara.hpp"
  11:test/userMain.cpp **** //#include "../test/modif.hpp"
  12:test/userMain.cpp **** 
  13:test/userMain.cpp **** #include "../h/SlabI.h"
  14:test/userMain.cpp **** #include "../h/Buddy.h"
  15:test/userMain.cpp **** #include "../h/syscall_cpp.hpp"
  16:test/userMain.cpp **** #include "printing.hpp"
  17:test/userMain.cpp **** #include "test_prvi.h"
  18:test/userMain.cpp **** #include "test_drugi.h"
  19:test/userMain.cpp **** #include "../test/test_slab_buddy_alloc.h"
  20:test/userMain.cpp **** 
  21:test/userMain.cpp **** class Class2{
  22:test/userMain.cpp ****     char a[4096000];
  23:test/userMain.cpp **** };
  24:test/userMain.cpp **** 
  25:test/userMain.cpp **** void userMain() {
 6753              		.loc 10 25 17 is_stmt 1
 6754              		.cfi_startproc
 6755 2568 130101FF 		addi	sp,sp,-16
 6756              		.cfi_def_cfa_offset 16
 6757 256c 23341100 		sd	ra,8(sp)
 6758 2570 23308100 		sd	s0,0(sp)
 6759              		.cfi_offset 1, -8
 6760              		.cfi_offset 8, -16
 6761 2574 13040101 		addi	s0,sp,16
 6762              		.cfi_def_cfa 8, 0
  26:test/userMain.cpp **** //    test_adrese();
  27:test/userMain.cpp **** //    test_pristup_parametru();
  28:test/userMain.cpp **** //    test_razlika_u_adresama();
  29:test/userMain.cpp **** //    test_performansi();
  30:test/userMain.cpp **** 
  31:test/userMain.cpp **** //    test_niti();
  32:test/userMain.cpp **** 
  33:test/userMain.cpp ****     test_prvi();
 6763              		.loc 10 33 5
 6764              		.loc 10 33 14 is_stmt 0
 6765 2578 97000000 		call	_Z9test_prviv@plt
 6765      E7800000 
 6766              	.LVL760:
  34:test/userMain.cpp **** //    test_drugi();
  35:test/userMain.cpp **** 
  36:test/userMain.cpp **** //    while(true){
  37:test/userMain.cpp **** //        Class2* c = new Class2();
  38:test/userMain.cpp **** //        if(c == nullptr){
  39:test/userMain.cpp **** //            printString("Nema mesta\n");
  40:test/userMain.cpp **** //        }else{
  41:test/userMain.cpp **** //            printInt((size_t)c);
GAS LISTING /tmp/cc5eykcM.s 			page 165


  42:test/userMain.cpp **** //            printString("\n");
  43:test/userMain.cpp **** //        }
  44:test/userMain.cpp **** //
  45:test/userMain.cpp **** //    }
  46:test/userMain.cpp **** 
  47:test/userMain.cpp **** //    Threads_C_API_test::Threads_C_API_test(); // zadatak 2., niti C API i sinhrona promena kontek
  48:test/userMain.cpp **** //    Threads_CPP_API_test::Threads_CPP_API_test(); // zadatak 2., niti CPP API i sinhrona promena 
  49:test/userMain.cpp **** //
  50:test/userMain.cpp **** //    ConsumerProducer_C_API_test::producerConsumer_C_API(); // zadatak 3., kompletan C API sa sema
  51:test/userMain.cpp **** //    ConsumerProducer_CPP_Sync_API_test::producerConsumer_CPP_Sync_API(); // zadatak 3., kompletan
  52:test/userMain.cpp **** //
  53:test/userMain.cpp **** //    ThreadSleep_C_API_test::testSleeping(); // thread_sleep test C API
  54:test/userMain.cpp **** //    ConsumerProducerCPP_API_test::testConsumerProducer(); // zadatak 4. CPP API i asinhrona prome
  55:test/userMain.cpp **** 
  56:test/userMain.cpp **** //    testModif();
  57:test/userMain.cpp **** //    testPrenosParametara();
  58:test/userMain.cpp **** 
  59:test/userMain.cpp **** }...
 6767              		.loc 10 59 1
 6768 2580 83308100 		ld	ra,8(sp)
 6769              		.cfi_restore 1
 6770 2584 03340100 		ld	s0,0(sp)
 6771              		.cfi_restore 8
 6772              		.cfi_def_cfa 2, 16
 6773 2588 13010101 		addi	sp,sp,16
 6774              		.cfi_def_cfa_offset 0
 6775 258c 67800000 		jr	ra
 6776              		.cfi_endproc
 6777              	.LFE120:
 6779              		.weak	_ZTVN20Threads_CPP_API_test7WorkerAE
 6780              		.section	.data.rel.ro.local._ZTVN20Threads_CPP_API_test7WorkerAE,"awG",@progbits,_ZTVN20Threads_CP
 6781              		.align	3
 6784              	_ZTVN20Threads_CPP_API_test7WorkerAE:
 6785 0000 00000000 		.dword	0
 6785      00000000 
 6786 0008 00000000 		.dword	0
 6786      00000000 
 6787 0010 00000000 		.dword	_ZN20Threads_CPP_API_test7WorkerAD1Ev
 6787      00000000 
 6788 0018 00000000 		.dword	_ZN20Threads_CPP_API_test7WorkerAD0Ev
 6788      00000000 
 6789 0020 00000000 		.dword	_ZN20Threads_CPP_API_test7WorkerA3runEv
 6789      00000000 
 6790              		.weak	_ZTVN20Threads_CPP_API_test7WorkerBE
 6791              		.section	.data.rel.ro.local._ZTVN20Threads_CPP_API_test7WorkerBE,"awG",@progbits,_ZTVN20Threads_CP
 6792              		.align	3
 6795              	_ZTVN20Threads_CPP_API_test7WorkerBE:
 6796 0000 00000000 		.dword	0
 6796      00000000 
 6797 0008 00000000 		.dword	0
 6797      00000000 
 6798 0010 00000000 		.dword	_ZN20Threads_CPP_API_test7WorkerBD1Ev
 6798      00000000 
 6799 0018 00000000 		.dword	_ZN20Threads_CPP_API_test7WorkerBD0Ev
 6799      00000000 
 6800 0020 00000000 		.dword	_ZN20Threads_CPP_API_test7WorkerB3runEv
 6800      00000000 
GAS LISTING /tmp/cc5eykcM.s 			page 166


 6801              		.weak	_ZTVN20Threads_CPP_API_test7WorkerCE
 6802              		.section	.data.rel.ro.local._ZTVN20Threads_CPP_API_test7WorkerCE,"awG",@progbits,_ZTVN20Threads_CP
 6803              		.align	3
 6806              	_ZTVN20Threads_CPP_API_test7WorkerCE:
 6807 0000 00000000 		.dword	0
 6807      00000000 
 6808 0008 00000000 		.dword	0
 6808      00000000 
 6809 0010 00000000 		.dword	_ZN20Threads_CPP_API_test7WorkerCD1Ev
 6809      00000000 
 6810 0018 00000000 		.dword	_ZN20Threads_CPP_API_test7WorkerCD0Ev
 6810      00000000 
 6811 0020 00000000 		.dword	_ZN20Threads_CPP_API_test7WorkerC3runEv
 6811      00000000 
 6812              		.weak	_ZTVN20Threads_CPP_API_test7WorkerDE
 6813              		.section	.data.rel.ro.local._ZTVN20Threads_CPP_API_test7WorkerDE,"awG",@progbits,_ZTVN20Threads_CP
 6814              		.align	3
 6817              	_ZTVN20Threads_CPP_API_test7WorkerDE:
 6818 0000 00000000 		.dword	0
 6818      00000000 
 6819 0008 00000000 		.dword	0
 6819      00000000 
 6820 0010 00000000 		.dword	_ZN20Threads_CPP_API_test7WorkerDD1Ev
 6820      00000000 
 6821 0018 00000000 		.dword	_ZN20Threads_CPP_API_test7WorkerDD0Ev
 6821      00000000 
 6822 0020 00000000 		.dword	_ZN20Threads_CPP_API_test7WorkerD3runEv
 6822      00000000 
 6823              		.weak	_ZTVN34ConsumerProducer_CPP_Sync_API_test16ProducerKeyboardE
 6824              		.section	.data.rel.ro.local._ZTVN34ConsumerProducer_CPP_Sync_API_test16ProducerKeyboardE,"awG",@pr
 6825              		.align	3
 6828              	_ZTVN34ConsumerProducer_CPP_Sync_API_test16ProducerKeyboardE:
 6829 0000 00000000 		.dword	0
 6829      00000000 
 6830 0008 00000000 		.dword	0
 6830      00000000 
 6831 0010 00000000 		.dword	_ZN34ConsumerProducer_CPP_Sync_API_test16ProducerKeyboardD1Ev
 6831      00000000 
 6832 0018 00000000 		.dword	_ZN34ConsumerProducer_CPP_Sync_API_test16ProducerKeyboardD0Ev
 6832      00000000 
 6833 0020 00000000 		.dword	_ZN34ConsumerProducer_CPP_Sync_API_test16ProducerKeyboard3runEv
 6833      00000000 
 6834              		.weak	_ZTVN34ConsumerProducer_CPP_Sync_API_test8ProducerE
 6835              		.section	.data.rel.ro.local._ZTVN34ConsumerProducer_CPP_Sync_API_test8ProducerE,"awG",@progbits,_Z
 6836              		.align	3
 6839              	_ZTVN34ConsumerProducer_CPP_Sync_API_test8ProducerE:
 6840 0000 00000000 		.dword	0
 6840      00000000 
 6841 0008 00000000 		.dword	0
 6841      00000000 
 6842 0010 00000000 		.dword	_ZN34ConsumerProducer_CPP_Sync_API_test8ProducerD1Ev
 6842      00000000 
 6843 0018 00000000 		.dword	_ZN34ConsumerProducer_CPP_Sync_API_test8ProducerD0Ev
 6843      00000000 
 6844 0020 00000000 		.dword	_ZN34ConsumerProducer_CPP_Sync_API_test8Producer3runEv
 6844      00000000 
 6845              		.weak	_ZTVN34ConsumerProducer_CPP_Sync_API_test8ConsumerE
GAS LISTING /tmp/cc5eykcM.s 			page 167


 6846              		.section	.data.rel.ro.local._ZTVN34ConsumerProducer_CPP_Sync_API_test8ConsumerE,"awG",@progbits,_Z
 6847              		.align	3
 6850              	_ZTVN34ConsumerProducer_CPP_Sync_API_test8ConsumerE:
 6851 0000 00000000 		.dword	0
 6851      00000000 
 6852 0008 00000000 		.dword	0
 6852      00000000 
 6853 0010 00000000 		.dword	_ZN34ConsumerProducer_CPP_Sync_API_test8ConsumerD1Ev
 6853      00000000 
 6854 0018 00000000 		.dword	_ZN34ConsumerProducer_CPP_Sync_API_test8ConsumerD0Ev
 6854      00000000 
 6855 0020 00000000 		.dword	_ZN34ConsumerProducer_CPP_Sync_API_test8Consumer3runEv
 6855      00000000 
 6856              		.weak	_ZTVN28ConsumerProducerCPP_API_test16ProducerKeyboradE
 6857              		.section	.data.rel.ro.local._ZTVN28ConsumerProducerCPP_API_test16ProducerKeyboradE,"awG",@progbits
 6858              		.align	3
 6861              	_ZTVN28ConsumerProducerCPP_API_test16ProducerKeyboradE:
 6862 0000 00000000 		.dword	0
 6862      00000000 
 6863 0008 00000000 		.dword	0
 6863      00000000 
 6864 0010 00000000 		.dword	_ZN28ConsumerProducerCPP_API_test16ProducerKeyboradD1Ev
 6864      00000000 
 6865 0018 00000000 		.dword	_ZN28ConsumerProducerCPP_API_test16ProducerKeyboradD0Ev
 6865      00000000 
 6866 0020 00000000 		.dword	_ZN28ConsumerProducerCPP_API_test16ProducerKeyborad3runEv
 6866      00000000 
 6867              		.weak	_ZTVN28ConsumerProducerCPP_API_test8ProducerE
 6868              		.section	.data.rel.ro.local._ZTVN28ConsumerProducerCPP_API_test8ProducerE,"awG",@progbits,_ZTVN28C
 6869              		.align	3
 6872              	_ZTVN28ConsumerProducerCPP_API_test8ProducerE:
 6873 0000 00000000 		.dword	0
 6873      00000000 
 6874 0008 00000000 		.dword	0
 6874      00000000 
 6875 0010 00000000 		.dword	_ZN28ConsumerProducerCPP_API_test8ProducerD1Ev
 6875      00000000 
 6876 0018 00000000 		.dword	_ZN28ConsumerProducerCPP_API_test8ProducerD0Ev
 6876      00000000 
 6877 0020 00000000 		.dword	_ZN28ConsumerProducerCPP_API_test8Producer3runEv
 6877      00000000 
 6878              		.weak	_ZTVN28ConsumerProducerCPP_API_test8ConsumerE
 6879              		.section	.data.rel.ro.local._ZTVN28ConsumerProducerCPP_API_test8ConsumerE,"awG",@progbits,_ZTVN28C
 6880              		.align	3
 6883              	_ZTVN28ConsumerProducerCPP_API_test8ConsumerE:
 6884 0000 00000000 		.dword	0
 6884      00000000 
 6885 0008 00000000 		.dword	0
 6885      00000000 
 6886 0010 00000000 		.dword	_ZN28ConsumerProducerCPP_API_test8ConsumerD1Ev
 6886      00000000 
 6887 0018 00000000 		.dword	_ZN28ConsumerProducerCPP_API_test8ConsumerD0Ev
 6887      00000000 
 6888 0020 00000000 		.dword	_ZN28ConsumerProducerCPP_API_test8Consumer3runEv
 6888      00000000 
 6889              		.globl	arr
 6890              		.globl	_ZN28ConsumerProducerCPP_API_test9threadEndE
GAS LISTING /tmp/cc5eykcM.s 			page 168


 6891              		.globl	_ZN28ConsumerProducerCPP_API_test10waitForAllE
 6892              		.globl	_ZN22ThreadSleep_C_API_test8finishedE
 6893              		.globl	_ZN34ConsumerProducer_CPP_Sync_API_test9threadEndE
 6894              		.globl	_ZN34ConsumerProducer_CPP_Sync_API_test10waitForAllE
 6895              		.globl	_ZN27ConsumerProducer_C_API_test9threadEndE
 6896              		.globl	_ZN27ConsumerProducer_C_API_test10waitForAllE
 6897              		.globl	_ZN20Threads_CPP_API_test9finishedDE
 6898              		.globl	_ZN20Threads_CPP_API_test9finishedCE
 6899              		.globl	_ZN20Threads_CPP_API_test9finishedBE
 6900              		.globl	_ZN20Threads_CPP_API_test9finishedAE
 6901              		.globl	_ZN18Threads_C_API_test9finishedEE
 6902              		.globl	_ZN18Threads_C_API_test9finishedDE
 6903              		.globl	_ZN18Threads_C_API_test9finishedCE
 6904              		.globl	_ZN18Threads_C_API_test9finishedBE
 6905              		.globl	_ZN18Threads_C_API_test9finishedAE
 6906              		.weak	_ZGVZN15MemoryAllocator11getInstanceEvE8instance
 6907              		.section	.bss._ZGVZN15MemoryAllocator11getInstanceEvE8instance,"awG",@nobits,_ZGVZN15MemoryAllocat
 6908              		.align	3
 6911              	_ZGVZN15MemoryAllocator11getInstanceEvE8instance:
 6912 0000 00000000 		.zero	8
 6912      00000000 
 6913              		.weak	_ZZN15MemoryAllocator11getInstanceEvE8instance
 6914              		.section	.bss._ZZN15MemoryAllocator11getInstanceEvE8instance,"awG",@nobits,_ZZN15MemoryAllocator11
 6915              		.align	3
 6918              	_ZZN15MemoryAllocator11getInstanceEvE8instance:
 6919 0000 00000000 		.zero	24
 6919      00000000 
 6919      00000000 
 6919      00000000 
 6919      00000000 
 6920              		.bss
 6921              		.align	3
 6922              		.set	.LANCHOR0,. + 0
 6925              	_ZN18Threads_C_API_test9finishedEE:
 6926 0000 00       		.zero	1
 6929              	_ZN18Threads_C_API_test9finishedAE:
 6930 0001 00       		.zero	1
 6933              	_ZN18Threads_C_API_test9finishedBE:
 6934 0002 00       		.zero	1
 6935 0003 00       		.zero	1
 6938              	_ZN27ConsumerProducer_C_API_test9threadEndE:
 6939 0004 00000000 		.zero	4
 6942              	_ZN28ConsumerProducerCPP_API_test9threadEndE:
 6943 0008 00000000 		.zero	4
 6944 000c 00000000 		.zero	4
 6947              	_ZN22ThreadSleep_C_API_test8finishedE:
 6948 0010 0000     		.zero	2
 6951              	_ZN18Threads_C_API_test9finishedCE:
 6952 0012 00       		.zero	1
 6955              	_ZN18Threads_C_API_test9finishedDE:
 6956 0013 00       		.zero	1
 6959              	_ZN20Threads_CPP_API_test9finishedAE:
 6960 0014 00       		.zero	1
 6963              	_ZN20Threads_CPP_API_test9finishedBE:
 6964 0015 00       		.zero	1
 6967              	_ZN20Threads_CPP_API_test9finishedCE:
 6968 0016 00       		.zero	1
GAS LISTING /tmp/cc5eykcM.s 			page 169


 6971              	_ZN20Threads_CPP_API_test9finishedDE:
 6972 0017 00       		.zero	1
 6975              	_ZN27ConsumerProducer_C_API_test10waitForAllE:
 6976 0018 00000000 		.zero	8
 6976      00000000 
 6979              	_ZN34ConsumerProducer_CPP_Sync_API_test9threadEndE:
 6980 0020 00000000 		.zero	4
 6981 0024 00000000 		.zero	4
 6984              	_ZN34ConsumerProducer_CPP_Sync_API_test10waitForAllE:
 6985 0028 00000000 		.zero	8
 6985      00000000 
 6988              	_ZN28ConsumerProducerCPP_API_test10waitForAllE:
 6989 0030 00000000 		.zero	8
 6989      00000000 
 6992              	arr:
 6993 0038 00000000 		.zero	800000
 6993      00000000 
 6993      00000000 
 6993      00000000 
 6993      00000000 
 6994              		.text
 6995              	.Letext0:
 6996              		.file 11 "test/../test/../h/../h/../h/../lib/hw.h"
 6997              		.file 12 "test/../test/../h/syscall_c.h"
 6998              		.file 13 "test/../test/../h/syscall_cpp.hpp"
 6999              		.file 14 "test/../test/../test/buffer_CPP_API.hpp"
 7000              		.file 15 "test/../h/SlabI.h"
 7001              		.file 16 "test/test_prvi.h"
 7002              		.file 17 "test/../test/printing.hpp"
 21348              		.align	3
 21351              	DW.ref.__gxx_personality_v0:
 21352 0000 00000000 		.dword	__gxx_personality_v0
 21352      00000000 
 21353              		.ident	"GCC: (Ubuntu 9.4.0-1ubuntu1~20.04) 9.4.0"
 21354              		.section	.note.GNU-stack,"",@progbits
GAS LISTING /tmp/cc5eykcM.s 			page 170


DEFINED SYMBOLS
                            *ABS*:0000000000000000 userMain.cpp
     /tmp/cc5eykcM.s:14     .text:0000000000000000 _ZN18Threads_C_API_test11workerBodyEEPv
     /tmp/cc5eykcM.s:18     .text:0000000000000000 .L0 
     /tmp/cc5eykcM.s:20     .text:0000000000000000 .L0 
     /tmp/cc5eykcM.s:21     .text:0000000000000004 .L0 
     /tmp/cc5eykcM.s:24     .text:000000000000000c .L0 
     /tmp/cc5eykcM.s:25     .text:000000000000000c .L0 
     /tmp/cc5eykcM.s:27     .text:0000000000000010 .L0 
     /tmp/cc5eykcM.s:29     .text:0000000000000010 .L0 
     /tmp/cc5eykcM.s:30     .text:0000000000000010 .L0 
     /tmp/cc5eykcM.s:35     .text:0000000000000020 .L0 
     /tmp/cc5eykcM.s:36     .text:0000000000000020 .L0 
     /tmp/cc5eykcM.s:39     .text:000000000000002c .L0 
     /tmp/cc5eykcM.s:40     .text:000000000000002c .L0 
     /tmp/cc5eykcM.s:43     .text:0000000000000034 .L0 
     /tmp/cc5eykcM.s:44     .text:0000000000000038 .L0 
     /tmp/cc5eykcM.s:46     .text:000000000000003c .L0 
     /tmp/cc5eykcM.s:47     .text:000000000000003c .L0 
     /tmp/cc5eykcM.s:49     .text:0000000000000040 .L0 
     /tmp/cc5eykcM.s:51     .text:0000000000000044 .L0 
     /tmp/cc5eykcM.s:68     .text:0000000000000044 _ZN18Threads_C_API_test11workerBodyAEPv
     /tmp/cc5eykcM.s:71     .text:0000000000000044 .L0 
     /tmp/cc5eykcM.s:73     .text:0000000000000044 .L0 
     /tmp/cc5eykcM.s:74     .text:0000000000000048 .L0 
     /tmp/cc5eykcM.s:79     .text:0000000000000058 .L0 
     /tmp/cc5eykcM.s:80     .text:0000000000000058 .L0 
     /tmp/cc5eykcM.s:81     .text:0000000000000058 .L0 
     /tmp/cc5eykcM.s:82     .text:0000000000000058 .L0 
     /tmp/cc5eykcM.s:84     .text:000000000000005c .L0 
     /tmp/cc5eykcM.s:88     .text:000000000000005c .L0 
     /tmp/cc5eykcM.s:89     .text:000000000000005c .L0 
     /tmp/cc5eykcM.s:97     .text:0000000000000064 .L0 
     /tmp/cc5eykcM.s:98     .text:0000000000000064 .L0 
     /tmp/cc5eykcM.s:102    .text:000000000000006c .L0 
     /tmp/cc5eykcM.s:106    .text:0000000000000070 .L0 
     /tmp/cc5eykcM.s:112    .text:000000000000007c .L0 
     /tmp/cc5eykcM.s:116    .text:0000000000000080 .L0 
     /tmp/cc5eykcM.s:120    .text:000000000000008c .L0 
     /tmp/cc5eykcM.s:130    .text:0000000000000094 .L0 
     /tmp/cc5eykcM.s:134    .text:0000000000000098 .L0 
     /tmp/cc5eykcM.s:138    .text:00000000000000a0 .L0 
     /tmp/cc5eykcM.s:139    .text:00000000000000a0 .L0 
     /tmp/cc5eykcM.s:143    .text:00000000000000b0 .L0 
     /tmp/cc5eykcM.s:144    .text:00000000000000b0 .L0 
     /tmp/cc5eykcM.s:150    .text:00000000000000c4 .L0 
     /tmp/cc5eykcM.s:151    .text:00000000000000c4 .L0 
     /tmp/cc5eykcM.s:156    .text:00000000000000d4 .L0 
     /tmp/cc5eykcM.s:157    .text:00000000000000d4 .L0 
     /tmp/cc5eykcM.s:165    .text:00000000000000dc .L0 
     /tmp/cc5eykcM.s:166    .text:00000000000000dc .L0 
     /tmp/cc5eykcM.s:170    .text:00000000000000ec .L0 
     /tmp/cc5eykcM.s:171    .text:00000000000000ec .L0 
     /tmp/cc5eykcM.s:174    .text:00000000000000f8 .L0 
     /tmp/cc5eykcM.s:175    .text:00000000000000fc .L0 
     /tmp/cc5eykcM.s:177    .text:0000000000000100 .L0 
     /tmp/cc5eykcM.s:178    .text:0000000000000100 .L0 
GAS LISTING /tmp/cc5eykcM.s 			page 171


     /tmp/cc5eykcM.s:180    .text:0000000000000104 .L0 
     /tmp/cc5eykcM.s:182    .text:0000000000000108 .L0 
     /tmp/cc5eykcM.s:185    .text:000000000000010c .L0 
     /tmp/cc5eykcM.s:187    .text:0000000000000110 .L0 
     /tmp/cc5eykcM.s:201    .text:0000000000000110 _ZN18Threads_C_API_test11workerBodyBEPv
     /tmp/cc5eykcM.s:204    .text:0000000000000110 .L0 
     /tmp/cc5eykcM.s:206    .text:0000000000000110 .L0 
     /tmp/cc5eykcM.s:207    .text:0000000000000114 .L0 
     /tmp/cc5eykcM.s:212    .text:0000000000000124 .L0 
     /tmp/cc5eykcM.s:213    .text:0000000000000124 .L0 
     /tmp/cc5eykcM.s:214    .text:0000000000000124 .L0 
     /tmp/cc5eykcM.s:215    .text:0000000000000124 .L0 
     /tmp/cc5eykcM.s:217    .text:0000000000000128 .L0 
     /tmp/cc5eykcM.s:221    .text:0000000000000128 .L0 
     /tmp/cc5eykcM.s:222    .text:0000000000000128 .L0 
     /tmp/cc5eykcM.s:230    .text:0000000000000130 .L0 
     /tmp/cc5eykcM.s:231    .text:0000000000000130 .L0 
     /tmp/cc5eykcM.s:235    .text:0000000000000138 .L0 
     /tmp/cc5eykcM.s:239    .text:000000000000013c .L0 
     /tmp/cc5eykcM.s:245    .text:0000000000000148 .L0 
     /tmp/cc5eykcM.s:249    .text:000000000000014c .L0 
     /tmp/cc5eykcM.s:253    .text:0000000000000158 .L0 
     /tmp/cc5eykcM.s:263    .text:0000000000000160 .L0 
     /tmp/cc5eykcM.s:267    .text:0000000000000164 .L0 
     /tmp/cc5eykcM.s:271    .text:000000000000016c .L0 
     /tmp/cc5eykcM.s:272    .text:000000000000016c .L0 
     /tmp/cc5eykcM.s:276    .text:000000000000017c .L0 
     /tmp/cc5eykcM.s:277    .text:000000000000017c .L0 
     /tmp/cc5eykcM.s:283    .text:0000000000000190 .L0 
     /tmp/cc5eykcM.s:284    .text:0000000000000190 .L0 
     /tmp/cc5eykcM.s:289    .text:00000000000001a0 .L0 
     /tmp/cc5eykcM.s:290    .text:00000000000001a0 .L0 
     /tmp/cc5eykcM.s:298    .text:00000000000001a8 .L0 
     /tmp/cc5eykcM.s:299    .text:00000000000001a8 .L0 
     /tmp/cc5eykcM.s:303    .text:00000000000001b8 .L0 
     /tmp/cc5eykcM.s:304    .text:00000000000001b8 .L0 
     /tmp/cc5eykcM.s:307    .text:00000000000001c4 .L0 
     /tmp/cc5eykcM.s:308    .text:00000000000001c4 .L0 
     /tmp/cc5eykcM.s:311    .text:00000000000001cc .L0 
     /tmp/cc5eykcM.s:312    .text:00000000000001d0 .L0 
     /tmp/cc5eykcM.s:314    .text:00000000000001d4 .L0 
     /tmp/cc5eykcM.s:315    .text:00000000000001d4 .L0 
     /tmp/cc5eykcM.s:317    .text:00000000000001d8 .L0 
     /tmp/cc5eykcM.s:319    .text:00000000000001dc .L0 
     /tmp/cc5eykcM.s:322    .text:00000000000001e0 .L0 
     /tmp/cc5eykcM.s:324    .text:00000000000001e4 .L0 
     /tmp/cc5eykcM.s:331    .text._ZN20Threads_CPP_API_test7WorkerAD2Ev:0000000000000000 _ZN20Threads_CPP_API_test7WorkerAD2Ev
     /tmp/cc5eykcM.s:335    .text._ZN20Threads_CPP_API_test7WorkerAD2Ev:0000000000000000 .L0 
     /tmp/cc5eykcM.s:337    .text._ZN20Threads_CPP_API_test7WorkerAD2Ev:0000000000000000 .L0 
     /tmp/cc5eykcM.s:338    .text._ZN20Threads_CPP_API_test7WorkerAD2Ev:0000000000000004 .L0 
     /tmp/cc5eykcM.s:341    .text._ZN20Threads_CPP_API_test7WorkerAD2Ev:000000000000000c .L0 
     /tmp/cc5eykcM.s:342    .text._ZN20Threads_CPP_API_test7WorkerAD2Ev:000000000000000c .L0 
     /tmp/cc5eykcM.s:344    .text._ZN20Threads_CPP_API_test7WorkerAD2Ev:0000000000000010 .L0 
     /tmp/cc5eykcM.s:6784   .data.rel.ro.local._ZTVN20Threads_CPP_API_test7WorkerAE:0000000000000000 _ZTVN20Threads_CPP_API_test7WorkerAE
     /tmp/cc5eykcM.s:347    .text._ZN20Threads_CPP_API_test7WorkerAD2Ev:0000000000000010 .L0 
     /tmp/cc5eykcM.s:353    .text._ZN20Threads_CPP_API_test7WorkerAD2Ev:0000000000000028 .L0 
     /tmp/cc5eykcM.s:355    .text._ZN20Threads_CPP_API_test7WorkerAD2Ev:000000000000002c .L0 
GAS LISTING /tmp/cc5eykcM.s 			page 172


     /tmp/cc5eykcM.s:356    .text._ZN20Threads_CPP_API_test7WorkerAD2Ev:000000000000002c .L0 
     /tmp/cc5eykcM.s:358    .text._ZN20Threads_CPP_API_test7WorkerAD2Ev:0000000000000030 .L0 
     /tmp/cc5eykcM.s:360    .text._ZN20Threads_CPP_API_test7WorkerAD2Ev:0000000000000034 .L0 
     /tmp/cc5eykcM.s:331    .text._ZN20Threads_CPP_API_test7WorkerAD2Ev:0000000000000000 _ZN20Threads_CPP_API_test7WorkerAD1Ev
     /tmp/cc5eykcM.s:369    .text._ZN20Threads_CPP_API_test7WorkerAD0Ev:0000000000000000 _ZN20Threads_CPP_API_test7WorkerAD0Ev
     /tmp/cc5eykcM.s:372    .text._ZN20Threads_CPP_API_test7WorkerAD0Ev:0000000000000000 .L0 
     /tmp/cc5eykcM.s:374    .text._ZN20Threads_CPP_API_test7WorkerAD0Ev:0000000000000000 .L0 
     /tmp/cc5eykcM.s:375    .text._ZN20Threads_CPP_API_test7WorkerAD0Ev:0000000000000004 .L0 
     /tmp/cc5eykcM.s:379    .text._ZN20Threads_CPP_API_test7WorkerAD0Ev:0000000000000010 .L0 
     /tmp/cc5eykcM.s:380    .text._ZN20Threads_CPP_API_test7WorkerAD0Ev:0000000000000010 .L0 
     /tmp/cc5eykcM.s:381    .text._ZN20Threads_CPP_API_test7WorkerAD0Ev:0000000000000010 .L0 
     /tmp/cc5eykcM.s:383    .text._ZN20Threads_CPP_API_test7WorkerAD0Ev:0000000000000014 .L0 
     /tmp/cc5eykcM.s:389    .text._ZN20Threads_CPP_API_test7WorkerAD0Ev:0000000000000018 .L0 
     /tmp/cc5eykcM.s:399    .text._ZN20Threads_CPP_API_test7WorkerAD0Ev:000000000000003c .L0 
     /tmp/cc5eykcM.s:401    .text._ZN20Threads_CPP_API_test7WorkerAD0Ev:0000000000000040 .L0 
     /tmp/cc5eykcM.s:402    .text._ZN20Threads_CPP_API_test7WorkerAD0Ev:0000000000000040 .L0 
     /tmp/cc5eykcM.s:404    .text._ZN20Threads_CPP_API_test7WorkerAD0Ev:0000000000000044 .L0 
     /tmp/cc5eykcM.s:407    .text._ZN20Threads_CPP_API_test7WorkerAD0Ev:0000000000000048 .L0 
     /tmp/cc5eykcM.s:409    .text._ZN20Threads_CPP_API_test7WorkerAD0Ev:000000000000004c .L0 
     /tmp/cc5eykcM.s:416    .text._ZN20Threads_CPP_API_test7WorkerBD2Ev:0000000000000000 _ZN20Threads_CPP_API_test7WorkerBD2Ev
     /tmp/cc5eykcM.s:419    .text._ZN20Threads_CPP_API_test7WorkerBD2Ev:0000000000000000 .L0 
     /tmp/cc5eykcM.s:421    .text._ZN20Threads_CPP_API_test7WorkerBD2Ev:0000000000000000 .L0 
     /tmp/cc5eykcM.s:422    .text._ZN20Threads_CPP_API_test7WorkerBD2Ev:0000000000000004 .L0 
     /tmp/cc5eykcM.s:425    .text._ZN20Threads_CPP_API_test7WorkerBD2Ev:000000000000000c .L0 
     /tmp/cc5eykcM.s:426    .text._ZN20Threads_CPP_API_test7WorkerBD2Ev:000000000000000c .L0 
     /tmp/cc5eykcM.s:428    .text._ZN20Threads_CPP_API_test7WorkerBD2Ev:0000000000000010 .L0 
     /tmp/cc5eykcM.s:6795   .data.rel.ro.local._ZTVN20Threads_CPP_API_test7WorkerBE:0000000000000000 _ZTVN20Threads_CPP_API_test7WorkerBE
     /tmp/cc5eykcM.s:431    .text._ZN20Threads_CPP_API_test7WorkerBD2Ev:0000000000000010 .L0 
     /tmp/cc5eykcM.s:437    .text._ZN20Threads_CPP_API_test7WorkerBD2Ev:0000000000000028 .L0 
     /tmp/cc5eykcM.s:439    .text._ZN20Threads_CPP_API_test7WorkerBD2Ev:000000000000002c .L0 
     /tmp/cc5eykcM.s:440    .text._ZN20Threads_CPP_API_test7WorkerBD2Ev:000000000000002c .L0 
     /tmp/cc5eykcM.s:442    .text._ZN20Threads_CPP_API_test7WorkerBD2Ev:0000000000000030 .L0 
     /tmp/cc5eykcM.s:444    .text._ZN20Threads_CPP_API_test7WorkerBD2Ev:0000000000000034 .L0 
     /tmp/cc5eykcM.s:416    .text._ZN20Threads_CPP_API_test7WorkerBD2Ev:0000000000000000 _ZN20Threads_CPP_API_test7WorkerBD1Ev
     /tmp/cc5eykcM.s:453    .text._ZN20Threads_CPP_API_test7WorkerBD0Ev:0000000000000000 _ZN20Threads_CPP_API_test7WorkerBD0Ev
     /tmp/cc5eykcM.s:456    .text._ZN20Threads_CPP_API_test7WorkerBD0Ev:0000000000000000 .L0 
     /tmp/cc5eykcM.s:458    .text._ZN20Threads_CPP_API_test7WorkerBD0Ev:0000000000000000 .L0 
     /tmp/cc5eykcM.s:459    .text._ZN20Threads_CPP_API_test7WorkerBD0Ev:0000000000000004 .L0 
     /tmp/cc5eykcM.s:463    .text._ZN20Threads_CPP_API_test7WorkerBD0Ev:0000000000000010 .L0 
     /tmp/cc5eykcM.s:464    .text._ZN20Threads_CPP_API_test7WorkerBD0Ev:0000000000000010 .L0 
     /tmp/cc5eykcM.s:465    .text._ZN20Threads_CPP_API_test7WorkerBD0Ev:0000000000000010 .L0 
     /tmp/cc5eykcM.s:467    .text._ZN20Threads_CPP_API_test7WorkerBD0Ev:0000000000000014 .L0 
     /tmp/cc5eykcM.s:473    .text._ZN20Threads_CPP_API_test7WorkerBD0Ev:0000000000000018 .L0 
     /tmp/cc5eykcM.s:483    .text._ZN20Threads_CPP_API_test7WorkerBD0Ev:000000000000003c .L0 
     /tmp/cc5eykcM.s:485    .text._ZN20Threads_CPP_API_test7WorkerBD0Ev:0000000000000040 .L0 
     /tmp/cc5eykcM.s:486    .text._ZN20Threads_CPP_API_test7WorkerBD0Ev:0000000000000040 .L0 
     /tmp/cc5eykcM.s:488    .text._ZN20Threads_CPP_API_test7WorkerBD0Ev:0000000000000044 .L0 
     /tmp/cc5eykcM.s:491    .text._ZN20Threads_CPP_API_test7WorkerBD0Ev:0000000000000048 .L0 
     /tmp/cc5eykcM.s:493    .text._ZN20Threads_CPP_API_test7WorkerBD0Ev:000000000000004c .L0 
     /tmp/cc5eykcM.s:500    .text._ZN20Threads_CPP_API_test7WorkerCD2Ev:0000000000000000 _ZN20Threads_CPP_API_test7WorkerCD2Ev
     /tmp/cc5eykcM.s:503    .text._ZN20Threads_CPP_API_test7WorkerCD2Ev:0000000000000000 .L0 
     /tmp/cc5eykcM.s:505    .text._ZN20Threads_CPP_API_test7WorkerCD2Ev:0000000000000000 .L0 
     /tmp/cc5eykcM.s:506    .text._ZN20Threads_CPP_API_test7WorkerCD2Ev:0000000000000004 .L0 
     /tmp/cc5eykcM.s:509    .text._ZN20Threads_CPP_API_test7WorkerCD2Ev:000000000000000c .L0 
     /tmp/cc5eykcM.s:510    .text._ZN20Threads_CPP_API_test7WorkerCD2Ev:000000000000000c .L0 
     /tmp/cc5eykcM.s:512    .text._ZN20Threads_CPP_API_test7WorkerCD2Ev:0000000000000010 .L0 
     /tmp/cc5eykcM.s:6806   .data.rel.ro.local._ZTVN20Threads_CPP_API_test7WorkerCE:0000000000000000 _ZTVN20Threads_CPP_API_test7WorkerCE
GAS LISTING /tmp/cc5eykcM.s 			page 173


     /tmp/cc5eykcM.s:515    .text._ZN20Threads_CPP_API_test7WorkerCD2Ev:0000000000000010 .L0 
     /tmp/cc5eykcM.s:521    .text._ZN20Threads_CPP_API_test7WorkerCD2Ev:0000000000000028 .L0 
     /tmp/cc5eykcM.s:523    .text._ZN20Threads_CPP_API_test7WorkerCD2Ev:000000000000002c .L0 
     /tmp/cc5eykcM.s:524    .text._ZN20Threads_CPP_API_test7WorkerCD2Ev:000000000000002c .L0 
     /tmp/cc5eykcM.s:526    .text._ZN20Threads_CPP_API_test7WorkerCD2Ev:0000000000000030 .L0 
     /tmp/cc5eykcM.s:528    .text._ZN20Threads_CPP_API_test7WorkerCD2Ev:0000000000000034 .L0 
     /tmp/cc5eykcM.s:500    .text._ZN20Threads_CPP_API_test7WorkerCD2Ev:0000000000000000 _ZN20Threads_CPP_API_test7WorkerCD1Ev
     /tmp/cc5eykcM.s:537    .text._ZN20Threads_CPP_API_test7WorkerCD0Ev:0000000000000000 _ZN20Threads_CPP_API_test7WorkerCD0Ev
     /tmp/cc5eykcM.s:540    .text._ZN20Threads_CPP_API_test7WorkerCD0Ev:0000000000000000 .L0 
     /tmp/cc5eykcM.s:542    .text._ZN20Threads_CPP_API_test7WorkerCD0Ev:0000000000000000 .L0 
     /tmp/cc5eykcM.s:543    .text._ZN20Threads_CPP_API_test7WorkerCD0Ev:0000000000000004 .L0 
     /tmp/cc5eykcM.s:547    .text._ZN20Threads_CPP_API_test7WorkerCD0Ev:0000000000000010 .L0 
     /tmp/cc5eykcM.s:548    .text._ZN20Threads_CPP_API_test7WorkerCD0Ev:0000000000000010 .L0 
     /tmp/cc5eykcM.s:549    .text._ZN20Threads_CPP_API_test7WorkerCD0Ev:0000000000000010 .L0 
     /tmp/cc5eykcM.s:551    .text._ZN20Threads_CPP_API_test7WorkerCD0Ev:0000000000000014 .L0 
     /tmp/cc5eykcM.s:557    .text._ZN20Threads_CPP_API_test7WorkerCD0Ev:0000000000000018 .L0 
     /tmp/cc5eykcM.s:567    .text._ZN20Threads_CPP_API_test7WorkerCD0Ev:000000000000003c .L0 
     /tmp/cc5eykcM.s:569    .text._ZN20Threads_CPP_API_test7WorkerCD0Ev:0000000000000040 .L0 
     /tmp/cc5eykcM.s:570    .text._ZN20Threads_CPP_API_test7WorkerCD0Ev:0000000000000040 .L0 
     /tmp/cc5eykcM.s:572    .text._ZN20Threads_CPP_API_test7WorkerCD0Ev:0000000000000044 .L0 
     /tmp/cc5eykcM.s:575    .text._ZN20Threads_CPP_API_test7WorkerCD0Ev:0000000000000048 .L0 
     /tmp/cc5eykcM.s:577    .text._ZN20Threads_CPP_API_test7WorkerCD0Ev:000000000000004c .L0 
     /tmp/cc5eykcM.s:584    .text._ZN20Threads_CPP_API_test7WorkerDD2Ev:0000000000000000 _ZN20Threads_CPP_API_test7WorkerDD2Ev
     /tmp/cc5eykcM.s:587    .text._ZN20Threads_CPP_API_test7WorkerDD2Ev:0000000000000000 .L0 
     /tmp/cc5eykcM.s:589    .text._ZN20Threads_CPP_API_test7WorkerDD2Ev:0000000000000000 .L0 
     /tmp/cc5eykcM.s:590    .text._ZN20Threads_CPP_API_test7WorkerDD2Ev:0000000000000004 .L0 
     /tmp/cc5eykcM.s:593    .text._ZN20Threads_CPP_API_test7WorkerDD2Ev:000000000000000c .L0 
     /tmp/cc5eykcM.s:594    .text._ZN20Threads_CPP_API_test7WorkerDD2Ev:000000000000000c .L0 
     /tmp/cc5eykcM.s:596    .text._ZN20Threads_CPP_API_test7WorkerDD2Ev:0000000000000010 .L0 
     /tmp/cc5eykcM.s:6817   .data.rel.ro.local._ZTVN20Threads_CPP_API_test7WorkerDE:0000000000000000 _ZTVN20Threads_CPP_API_test7WorkerDE
     /tmp/cc5eykcM.s:599    .text._ZN20Threads_CPP_API_test7WorkerDD2Ev:0000000000000010 .L0 
     /tmp/cc5eykcM.s:605    .text._ZN20Threads_CPP_API_test7WorkerDD2Ev:0000000000000028 .L0 
     /tmp/cc5eykcM.s:607    .text._ZN20Threads_CPP_API_test7WorkerDD2Ev:000000000000002c .L0 
     /tmp/cc5eykcM.s:608    .text._ZN20Threads_CPP_API_test7WorkerDD2Ev:000000000000002c .L0 
     /tmp/cc5eykcM.s:610    .text._ZN20Threads_CPP_API_test7WorkerDD2Ev:0000000000000030 .L0 
     /tmp/cc5eykcM.s:612    .text._ZN20Threads_CPP_API_test7WorkerDD2Ev:0000000000000034 .L0 
     /tmp/cc5eykcM.s:584    .text._ZN20Threads_CPP_API_test7WorkerDD2Ev:0000000000000000 _ZN20Threads_CPP_API_test7WorkerDD1Ev
     /tmp/cc5eykcM.s:621    .text._ZN20Threads_CPP_API_test7WorkerDD0Ev:0000000000000000 _ZN20Threads_CPP_API_test7WorkerDD0Ev
     /tmp/cc5eykcM.s:624    .text._ZN20Threads_CPP_API_test7WorkerDD0Ev:0000000000000000 .L0 
     /tmp/cc5eykcM.s:626    .text._ZN20Threads_CPP_API_test7WorkerDD0Ev:0000000000000000 .L0 
     /tmp/cc5eykcM.s:627    .text._ZN20Threads_CPP_API_test7WorkerDD0Ev:0000000000000004 .L0 
     /tmp/cc5eykcM.s:631    .text._ZN20Threads_CPP_API_test7WorkerDD0Ev:0000000000000010 .L0 
     /tmp/cc5eykcM.s:632    .text._ZN20Threads_CPP_API_test7WorkerDD0Ev:0000000000000010 .L0 
     /tmp/cc5eykcM.s:633    .text._ZN20Threads_CPP_API_test7WorkerDD0Ev:0000000000000010 .L0 
     /tmp/cc5eykcM.s:635    .text._ZN20Threads_CPP_API_test7WorkerDD0Ev:0000000000000014 .L0 
     /tmp/cc5eykcM.s:641    .text._ZN20Threads_CPP_API_test7WorkerDD0Ev:0000000000000018 .L0 
     /tmp/cc5eykcM.s:651    .text._ZN20Threads_CPP_API_test7WorkerDD0Ev:000000000000003c .L0 
     /tmp/cc5eykcM.s:653    .text._ZN20Threads_CPP_API_test7WorkerDD0Ev:0000000000000040 .L0 
     /tmp/cc5eykcM.s:654    .text._ZN20Threads_CPP_API_test7WorkerDD0Ev:0000000000000040 .L0 
     /tmp/cc5eykcM.s:656    .text._ZN20Threads_CPP_API_test7WorkerDD0Ev:0000000000000044 .L0 
     /tmp/cc5eykcM.s:659    .text._ZN20Threads_CPP_API_test7WorkerDD0Ev:0000000000000048 .L0 
     /tmp/cc5eykcM.s:661    .text._ZN20Threads_CPP_API_test7WorkerDD0Ev:000000000000004c .L0 
     /tmp/cc5eykcM.s:668    .text._ZN34ConsumerProducer_CPP_Sync_API_test8ConsumerD2Ev:0000000000000000 _ZN34ConsumerProducer_CPP_Sync_API_test8ConsumerD2Ev
     /tmp/cc5eykcM.s:672    .text._ZN34ConsumerProducer_CPP_Sync_API_test8ConsumerD2Ev:0000000000000000 .L0 
     /tmp/cc5eykcM.s:674    .text._ZN34ConsumerProducer_CPP_Sync_API_test8ConsumerD2Ev:0000000000000000 .L0 
     /tmp/cc5eykcM.s:675    .text._ZN34ConsumerProducer_CPP_Sync_API_test8ConsumerD2Ev:0000000000000004 .L0 
     /tmp/cc5eykcM.s:678    .text._ZN34ConsumerProducer_CPP_Sync_API_test8ConsumerD2Ev:000000000000000c .L0 
GAS LISTING /tmp/cc5eykcM.s 			page 174


     /tmp/cc5eykcM.s:679    .text._ZN34ConsumerProducer_CPP_Sync_API_test8ConsumerD2Ev:000000000000000c .L0 
     /tmp/cc5eykcM.s:681    .text._ZN34ConsumerProducer_CPP_Sync_API_test8ConsumerD2Ev:0000000000000010 .L0 
     /tmp/cc5eykcM.s:6850   .data.rel.ro.local._ZTVN34ConsumerProducer_CPP_Sync_API_test8ConsumerE:0000000000000000 _ZTVN34ConsumerProducer_CPP_Sync_API_test8ConsumerE
     /tmp/cc5eykcM.s:684    .text._ZN34ConsumerProducer_CPP_Sync_API_test8ConsumerD2Ev:0000000000000010 .L0 
     /tmp/cc5eykcM.s:690    .text._ZN34ConsumerProducer_CPP_Sync_API_test8ConsumerD2Ev:0000000000000028 .L0 
     /tmp/cc5eykcM.s:692    .text._ZN34ConsumerProducer_CPP_Sync_API_test8ConsumerD2Ev:000000000000002c .L0 
     /tmp/cc5eykcM.s:693    .text._ZN34ConsumerProducer_CPP_Sync_API_test8ConsumerD2Ev:000000000000002c .L0 
     /tmp/cc5eykcM.s:695    .text._ZN34ConsumerProducer_CPP_Sync_API_test8ConsumerD2Ev:0000000000000030 .L0 
     /tmp/cc5eykcM.s:697    .text._ZN34ConsumerProducer_CPP_Sync_API_test8ConsumerD2Ev:0000000000000034 .L0 
     /tmp/cc5eykcM.s:668    .text._ZN34ConsumerProducer_CPP_Sync_API_test8ConsumerD2Ev:0000000000000000 _ZN34ConsumerProducer_CPP_Sync_API_test8ConsumerD1Ev
     /tmp/cc5eykcM.s:706    .text._ZN34ConsumerProducer_CPP_Sync_API_test8ConsumerD0Ev:0000000000000000 _ZN34ConsumerProducer_CPP_Sync_API_test8ConsumerD0Ev
     /tmp/cc5eykcM.s:709    .text._ZN34ConsumerProducer_CPP_Sync_API_test8ConsumerD0Ev:0000000000000000 .L0 
     /tmp/cc5eykcM.s:711    .text._ZN34ConsumerProducer_CPP_Sync_API_test8ConsumerD0Ev:0000000000000000 .L0 
     /tmp/cc5eykcM.s:712    .text._ZN34ConsumerProducer_CPP_Sync_API_test8ConsumerD0Ev:0000000000000004 .L0 
     /tmp/cc5eykcM.s:716    .text._ZN34ConsumerProducer_CPP_Sync_API_test8ConsumerD0Ev:0000000000000010 .L0 
     /tmp/cc5eykcM.s:717    .text._ZN34ConsumerProducer_CPP_Sync_API_test8ConsumerD0Ev:0000000000000010 .L0 
     /tmp/cc5eykcM.s:718    .text._ZN34ConsumerProducer_CPP_Sync_API_test8ConsumerD0Ev:0000000000000010 .L0 
     /tmp/cc5eykcM.s:720    .text._ZN34ConsumerProducer_CPP_Sync_API_test8ConsumerD0Ev:0000000000000014 .L0 
     /tmp/cc5eykcM.s:726    .text._ZN34ConsumerProducer_CPP_Sync_API_test8ConsumerD0Ev:0000000000000018 .L0 
     /tmp/cc5eykcM.s:736    .text._ZN34ConsumerProducer_CPP_Sync_API_test8ConsumerD0Ev:000000000000003c .L0 
     /tmp/cc5eykcM.s:738    .text._ZN34ConsumerProducer_CPP_Sync_API_test8ConsumerD0Ev:0000000000000040 .L0 
     /tmp/cc5eykcM.s:739    .text._ZN34ConsumerProducer_CPP_Sync_API_test8ConsumerD0Ev:0000000000000040 .L0 
     /tmp/cc5eykcM.s:741    .text._ZN34ConsumerProducer_CPP_Sync_API_test8ConsumerD0Ev:0000000000000044 .L0 
     /tmp/cc5eykcM.s:744    .text._ZN34ConsumerProducer_CPP_Sync_API_test8ConsumerD0Ev:0000000000000048 .L0 
     /tmp/cc5eykcM.s:746    .text._ZN34ConsumerProducer_CPP_Sync_API_test8ConsumerD0Ev:000000000000004c .L0 
     /tmp/cc5eykcM.s:753    .text._ZN34ConsumerProducer_CPP_Sync_API_test8ProducerD2Ev:0000000000000000 _ZN34ConsumerProducer_CPP_Sync_API_test8ProducerD2Ev
     /tmp/cc5eykcM.s:756    .text._ZN34ConsumerProducer_CPP_Sync_API_test8ProducerD2Ev:0000000000000000 .L0 
     /tmp/cc5eykcM.s:758    .text._ZN34ConsumerProducer_CPP_Sync_API_test8ProducerD2Ev:0000000000000000 .L0 
     /tmp/cc5eykcM.s:759    .text._ZN34ConsumerProducer_CPP_Sync_API_test8ProducerD2Ev:0000000000000004 .L0 
     /tmp/cc5eykcM.s:762    .text._ZN34ConsumerProducer_CPP_Sync_API_test8ProducerD2Ev:000000000000000c .L0 
     /tmp/cc5eykcM.s:763    .text._ZN34ConsumerProducer_CPP_Sync_API_test8ProducerD2Ev:000000000000000c .L0 
     /tmp/cc5eykcM.s:765    .text._ZN34ConsumerProducer_CPP_Sync_API_test8ProducerD2Ev:0000000000000010 .L0 
     /tmp/cc5eykcM.s:6839   .data.rel.ro.local._ZTVN34ConsumerProducer_CPP_Sync_API_test8ProducerE:0000000000000000 _ZTVN34ConsumerProducer_CPP_Sync_API_test8ProducerE
     /tmp/cc5eykcM.s:768    .text._ZN34ConsumerProducer_CPP_Sync_API_test8ProducerD2Ev:0000000000000010 .L0 
     /tmp/cc5eykcM.s:774    .text._ZN34ConsumerProducer_CPP_Sync_API_test8ProducerD2Ev:0000000000000028 .L0 
     /tmp/cc5eykcM.s:776    .text._ZN34ConsumerProducer_CPP_Sync_API_test8ProducerD2Ev:000000000000002c .L0 
     /tmp/cc5eykcM.s:777    .text._ZN34ConsumerProducer_CPP_Sync_API_test8ProducerD2Ev:000000000000002c .L0 
     /tmp/cc5eykcM.s:779    .text._ZN34ConsumerProducer_CPP_Sync_API_test8ProducerD2Ev:0000000000000030 .L0 
     /tmp/cc5eykcM.s:781    .text._ZN34ConsumerProducer_CPP_Sync_API_test8ProducerD2Ev:0000000000000034 .L0 
     /tmp/cc5eykcM.s:753    .text._ZN34ConsumerProducer_CPP_Sync_API_test8ProducerD2Ev:0000000000000000 _ZN34ConsumerProducer_CPP_Sync_API_test8ProducerD1Ev
     /tmp/cc5eykcM.s:790    .text._ZN34ConsumerProducer_CPP_Sync_API_test8ProducerD0Ev:0000000000000000 _ZN34ConsumerProducer_CPP_Sync_API_test8ProducerD0Ev
     /tmp/cc5eykcM.s:793    .text._ZN34ConsumerProducer_CPP_Sync_API_test8ProducerD0Ev:0000000000000000 .L0 
     /tmp/cc5eykcM.s:795    .text._ZN34ConsumerProducer_CPP_Sync_API_test8ProducerD0Ev:0000000000000000 .L0 
     /tmp/cc5eykcM.s:796    .text._ZN34ConsumerProducer_CPP_Sync_API_test8ProducerD0Ev:0000000000000004 .L0 
     /tmp/cc5eykcM.s:800    .text._ZN34ConsumerProducer_CPP_Sync_API_test8ProducerD0Ev:0000000000000010 .L0 
     /tmp/cc5eykcM.s:801    .text._ZN34ConsumerProducer_CPP_Sync_API_test8ProducerD0Ev:0000000000000010 .L0 
     /tmp/cc5eykcM.s:802    .text._ZN34ConsumerProducer_CPP_Sync_API_test8ProducerD0Ev:0000000000000010 .L0 
     /tmp/cc5eykcM.s:804    .text._ZN34ConsumerProducer_CPP_Sync_API_test8ProducerD0Ev:0000000000000014 .L0 
     /tmp/cc5eykcM.s:810    .text._ZN34ConsumerProducer_CPP_Sync_API_test8ProducerD0Ev:0000000000000018 .L0 
     /tmp/cc5eykcM.s:820    .text._ZN34ConsumerProducer_CPP_Sync_API_test8ProducerD0Ev:000000000000003c .L0 
     /tmp/cc5eykcM.s:822    .text._ZN34ConsumerProducer_CPP_Sync_API_test8ProducerD0Ev:0000000000000040 .L0 
     /tmp/cc5eykcM.s:823    .text._ZN34ConsumerProducer_CPP_Sync_API_test8ProducerD0Ev:0000000000000040 .L0 
     /tmp/cc5eykcM.s:825    .text._ZN34ConsumerProducer_CPP_Sync_API_test8ProducerD0Ev:0000000000000044 .L0 
     /tmp/cc5eykcM.s:828    .text._ZN34ConsumerProducer_CPP_Sync_API_test8ProducerD0Ev:0000000000000048 .L0 
     /tmp/cc5eykcM.s:830    .text._ZN34ConsumerProducer_CPP_Sync_API_test8ProducerD0Ev:000000000000004c .L0 
     /tmp/cc5eykcM.s:837    .text._ZN34ConsumerProducer_CPP_Sync_API_test16ProducerKeyboardD2Ev:0000000000000000 _ZN34ConsumerProducer_CPP_Sync_API_test16ProducerKeyboardD2Ev
     /tmp/cc5eykcM.s:840    .text._ZN34ConsumerProducer_CPP_Sync_API_test16ProducerKeyboardD2Ev:0000000000000000 .L0 
GAS LISTING /tmp/cc5eykcM.s 			page 175


     /tmp/cc5eykcM.s:842    .text._ZN34ConsumerProducer_CPP_Sync_API_test16ProducerKeyboardD2Ev:0000000000000000 .L0 
     /tmp/cc5eykcM.s:843    .text._ZN34ConsumerProducer_CPP_Sync_API_test16ProducerKeyboardD2Ev:0000000000000004 .L0 
     /tmp/cc5eykcM.s:846    .text._ZN34ConsumerProducer_CPP_Sync_API_test16ProducerKeyboardD2Ev:000000000000000c .L0 
     /tmp/cc5eykcM.s:847    .text._ZN34ConsumerProducer_CPP_Sync_API_test16ProducerKeyboardD2Ev:000000000000000c .L0 
     /tmp/cc5eykcM.s:849    .text._ZN34ConsumerProducer_CPP_Sync_API_test16ProducerKeyboardD2Ev:0000000000000010 .L0 
     /tmp/cc5eykcM.s:6828   .data.rel.ro.local._ZTVN34ConsumerProducer_CPP_Sync_API_test16ProducerKeyboardE:0000000000000000 _ZTVN34ConsumerProducer_CPP_Sync_API_test16ProducerKeyboardE
     /tmp/cc5eykcM.s:852    .text._ZN34ConsumerProducer_CPP_Sync_API_test16ProducerKeyboardD2Ev:0000000000000010 .L0 
     /tmp/cc5eykcM.s:858    .text._ZN34ConsumerProducer_CPP_Sync_API_test16ProducerKeyboardD2Ev:0000000000000028 .L0 
     /tmp/cc5eykcM.s:860    .text._ZN34ConsumerProducer_CPP_Sync_API_test16ProducerKeyboardD2Ev:000000000000002c .L0 
     /tmp/cc5eykcM.s:861    .text._ZN34ConsumerProducer_CPP_Sync_API_test16ProducerKeyboardD2Ev:000000000000002c .L0 
     /tmp/cc5eykcM.s:863    .text._ZN34ConsumerProducer_CPP_Sync_API_test16ProducerKeyboardD2Ev:0000000000000030 .L0 
     /tmp/cc5eykcM.s:865    .text._ZN34ConsumerProducer_CPP_Sync_API_test16ProducerKeyboardD2Ev:0000000000000034 .L0 
     /tmp/cc5eykcM.s:837    .text._ZN34ConsumerProducer_CPP_Sync_API_test16ProducerKeyboardD2Ev:0000000000000000 _ZN34ConsumerProducer_CPP_Sync_API_test16ProducerKeyboardD1Ev
     /tmp/cc5eykcM.s:874    .text._ZN34ConsumerProducer_CPP_Sync_API_test16ProducerKeyboardD0Ev:0000000000000000 _ZN34ConsumerProducer_CPP_Sync_API_test16ProducerKeyboardD0Ev
     /tmp/cc5eykcM.s:877    .text._ZN34ConsumerProducer_CPP_Sync_API_test16ProducerKeyboardD0Ev:0000000000000000 .L0 
     /tmp/cc5eykcM.s:879    .text._ZN34ConsumerProducer_CPP_Sync_API_test16ProducerKeyboardD0Ev:0000000000000000 .L0 
     /tmp/cc5eykcM.s:880    .text._ZN34ConsumerProducer_CPP_Sync_API_test16ProducerKeyboardD0Ev:0000000000000004 .L0 
     /tmp/cc5eykcM.s:884    .text._ZN34ConsumerProducer_CPP_Sync_API_test16ProducerKeyboardD0Ev:0000000000000010 .L0 
     /tmp/cc5eykcM.s:885    .text._ZN34ConsumerProducer_CPP_Sync_API_test16ProducerKeyboardD0Ev:0000000000000010 .L0 
     /tmp/cc5eykcM.s:886    .text._ZN34ConsumerProducer_CPP_Sync_API_test16ProducerKeyboardD0Ev:0000000000000010 .L0 
     /tmp/cc5eykcM.s:888    .text._ZN34ConsumerProducer_CPP_Sync_API_test16ProducerKeyboardD0Ev:0000000000000014 .L0 
     /tmp/cc5eykcM.s:894    .text._ZN34ConsumerProducer_CPP_Sync_API_test16ProducerKeyboardD0Ev:0000000000000018 .L0 
     /tmp/cc5eykcM.s:904    .text._ZN34ConsumerProducer_CPP_Sync_API_test16ProducerKeyboardD0Ev:000000000000003c .L0 
     /tmp/cc5eykcM.s:906    .text._ZN34ConsumerProducer_CPP_Sync_API_test16ProducerKeyboardD0Ev:0000000000000040 .L0 
     /tmp/cc5eykcM.s:907    .text._ZN34ConsumerProducer_CPP_Sync_API_test16ProducerKeyboardD0Ev:0000000000000040 .L0 
     /tmp/cc5eykcM.s:909    .text._ZN34ConsumerProducer_CPP_Sync_API_test16ProducerKeyboardD0Ev:0000000000000044 .L0 
     /tmp/cc5eykcM.s:912    .text._ZN34ConsumerProducer_CPP_Sync_API_test16ProducerKeyboardD0Ev:0000000000000048 .L0 
     /tmp/cc5eykcM.s:914    .text._ZN34ConsumerProducer_CPP_Sync_API_test16ProducerKeyboardD0Ev:000000000000004c .L0 
     /tmp/cc5eykcM.s:921    .text._ZN28ConsumerProducerCPP_API_test8ConsumerD2Ev:0000000000000000 _ZN28ConsumerProducerCPP_API_test8ConsumerD2Ev
     /tmp/cc5eykcM.s:925    .text._ZN28ConsumerProducerCPP_API_test8ConsumerD2Ev:0000000000000000 .L0 
     /tmp/cc5eykcM.s:927    .text._ZN28ConsumerProducerCPP_API_test8ConsumerD2Ev:0000000000000000 .L0 
     /tmp/cc5eykcM.s:928    .text._ZN28ConsumerProducerCPP_API_test8ConsumerD2Ev:0000000000000004 .L0 
     /tmp/cc5eykcM.s:931    .text._ZN28ConsumerProducerCPP_API_test8ConsumerD2Ev:000000000000000c .L0 
     /tmp/cc5eykcM.s:932    .text._ZN28ConsumerProducerCPP_API_test8ConsumerD2Ev:000000000000000c .L0 
     /tmp/cc5eykcM.s:934    .text._ZN28ConsumerProducerCPP_API_test8ConsumerD2Ev:0000000000000010 .L0 
     /tmp/cc5eykcM.s:6883   .data.rel.ro.local._ZTVN28ConsumerProducerCPP_API_test8ConsumerE:0000000000000000 _ZTVN28ConsumerProducerCPP_API_test8ConsumerE
     /tmp/cc5eykcM.s:937    .text._ZN28ConsumerProducerCPP_API_test8ConsumerD2Ev:0000000000000010 .L0 
     /tmp/cc5eykcM.s:943    .text._ZN28ConsumerProducerCPP_API_test8ConsumerD2Ev:0000000000000028 .L0 
     /tmp/cc5eykcM.s:945    .text._ZN28ConsumerProducerCPP_API_test8ConsumerD2Ev:000000000000002c .L0 
     /tmp/cc5eykcM.s:946    .text._ZN28ConsumerProducerCPP_API_test8ConsumerD2Ev:000000000000002c .L0 
     /tmp/cc5eykcM.s:948    .text._ZN28ConsumerProducerCPP_API_test8ConsumerD2Ev:0000000000000030 .L0 
     /tmp/cc5eykcM.s:950    .text._ZN28ConsumerProducerCPP_API_test8ConsumerD2Ev:0000000000000034 .L0 
     /tmp/cc5eykcM.s:921    .text._ZN28ConsumerProducerCPP_API_test8ConsumerD2Ev:0000000000000000 _ZN28ConsumerProducerCPP_API_test8ConsumerD1Ev
     /tmp/cc5eykcM.s:959    .text._ZN28ConsumerProducerCPP_API_test8ConsumerD0Ev:0000000000000000 _ZN28ConsumerProducerCPP_API_test8ConsumerD0Ev
     /tmp/cc5eykcM.s:962    .text._ZN28ConsumerProducerCPP_API_test8ConsumerD0Ev:0000000000000000 .L0 
     /tmp/cc5eykcM.s:964    .text._ZN28ConsumerProducerCPP_API_test8ConsumerD0Ev:0000000000000000 .L0 
     /tmp/cc5eykcM.s:965    .text._ZN28ConsumerProducerCPP_API_test8ConsumerD0Ev:0000000000000004 .L0 
     /tmp/cc5eykcM.s:969    .text._ZN28ConsumerProducerCPP_API_test8ConsumerD0Ev:0000000000000010 .L0 
     /tmp/cc5eykcM.s:970    .text._ZN28ConsumerProducerCPP_API_test8ConsumerD0Ev:0000000000000010 .L0 
     /tmp/cc5eykcM.s:971    .text._ZN28ConsumerProducerCPP_API_test8ConsumerD0Ev:0000000000000010 .L0 
     /tmp/cc5eykcM.s:973    .text._ZN28ConsumerProducerCPP_API_test8ConsumerD0Ev:0000000000000014 .L0 
     /tmp/cc5eykcM.s:979    .text._ZN28ConsumerProducerCPP_API_test8ConsumerD0Ev:0000000000000018 .L0 
     /tmp/cc5eykcM.s:989    .text._ZN28ConsumerProducerCPP_API_test8ConsumerD0Ev:000000000000003c .L0 
     /tmp/cc5eykcM.s:991    .text._ZN28ConsumerProducerCPP_API_test8ConsumerD0Ev:0000000000000040 .L0 
     /tmp/cc5eykcM.s:992    .text._ZN28ConsumerProducerCPP_API_test8ConsumerD0Ev:0000000000000040 .L0 
     /tmp/cc5eykcM.s:994    .text._ZN28ConsumerProducerCPP_API_test8ConsumerD0Ev:0000000000000044 .L0 
     /tmp/cc5eykcM.s:997    .text._ZN28ConsumerProducerCPP_API_test8ConsumerD0Ev:0000000000000048 .L0 
GAS LISTING /tmp/cc5eykcM.s 			page 176


     /tmp/cc5eykcM.s:999    .text._ZN28ConsumerProducerCPP_API_test8ConsumerD0Ev:000000000000004c .L0 
     /tmp/cc5eykcM.s:1006   .text._ZN28ConsumerProducerCPP_API_test16ProducerKeyboradD2Ev:0000000000000000 _ZN28ConsumerProducerCPP_API_test16ProducerKeyboradD2Ev
     /tmp/cc5eykcM.s:1009   .text._ZN28ConsumerProducerCPP_API_test16ProducerKeyboradD2Ev:0000000000000000 .L0 
     /tmp/cc5eykcM.s:1011   .text._ZN28ConsumerProducerCPP_API_test16ProducerKeyboradD2Ev:0000000000000000 .L0 
     /tmp/cc5eykcM.s:1012   .text._ZN28ConsumerProducerCPP_API_test16ProducerKeyboradD2Ev:0000000000000004 .L0 
     /tmp/cc5eykcM.s:1015   .text._ZN28ConsumerProducerCPP_API_test16ProducerKeyboradD2Ev:000000000000000c .L0 
     /tmp/cc5eykcM.s:1016   .text._ZN28ConsumerProducerCPP_API_test16ProducerKeyboradD2Ev:000000000000000c .L0 
     /tmp/cc5eykcM.s:1018   .text._ZN28ConsumerProducerCPP_API_test16ProducerKeyboradD2Ev:0000000000000010 .L0 
     /tmp/cc5eykcM.s:6861   .data.rel.ro.local._ZTVN28ConsumerProducerCPP_API_test16ProducerKeyboradE:0000000000000000 _ZTVN28ConsumerProducerCPP_API_test16ProducerKeyboradE
     /tmp/cc5eykcM.s:1021   .text._ZN28ConsumerProducerCPP_API_test16ProducerKeyboradD2Ev:0000000000000010 .L0 
     /tmp/cc5eykcM.s:1027   .text._ZN28ConsumerProducerCPP_API_test16ProducerKeyboradD2Ev:0000000000000028 .L0 
     /tmp/cc5eykcM.s:1029   .text._ZN28ConsumerProducerCPP_API_test16ProducerKeyboradD2Ev:000000000000002c .L0 
     /tmp/cc5eykcM.s:1030   .text._ZN28ConsumerProducerCPP_API_test16ProducerKeyboradD2Ev:000000000000002c .L0 
     /tmp/cc5eykcM.s:1032   .text._ZN28ConsumerProducerCPP_API_test16ProducerKeyboradD2Ev:0000000000000030 .L0 
     /tmp/cc5eykcM.s:1034   .text._ZN28ConsumerProducerCPP_API_test16ProducerKeyboradD2Ev:0000000000000034 .L0 
     /tmp/cc5eykcM.s:1006   .text._ZN28ConsumerProducerCPP_API_test16ProducerKeyboradD2Ev:0000000000000000 _ZN28ConsumerProducerCPP_API_test16ProducerKeyboradD1Ev
     /tmp/cc5eykcM.s:1043   .text._ZN28ConsumerProducerCPP_API_test16ProducerKeyboradD0Ev:0000000000000000 _ZN28ConsumerProducerCPP_API_test16ProducerKeyboradD0Ev
     /tmp/cc5eykcM.s:1046   .text._ZN28ConsumerProducerCPP_API_test16ProducerKeyboradD0Ev:0000000000000000 .L0 
     /tmp/cc5eykcM.s:1048   .text._ZN28ConsumerProducerCPP_API_test16ProducerKeyboradD0Ev:0000000000000000 .L0 
     /tmp/cc5eykcM.s:1049   .text._ZN28ConsumerProducerCPP_API_test16ProducerKeyboradD0Ev:0000000000000004 .L0 
     /tmp/cc5eykcM.s:1053   .text._ZN28ConsumerProducerCPP_API_test16ProducerKeyboradD0Ev:0000000000000010 .L0 
     /tmp/cc5eykcM.s:1054   .text._ZN28ConsumerProducerCPP_API_test16ProducerKeyboradD0Ev:0000000000000010 .L0 
     /tmp/cc5eykcM.s:1055   .text._ZN28ConsumerProducerCPP_API_test16ProducerKeyboradD0Ev:0000000000000010 .L0 
     /tmp/cc5eykcM.s:1057   .text._ZN28ConsumerProducerCPP_API_test16ProducerKeyboradD0Ev:0000000000000014 .L0 
     /tmp/cc5eykcM.s:1063   .text._ZN28ConsumerProducerCPP_API_test16ProducerKeyboradD0Ev:0000000000000018 .L0 
     /tmp/cc5eykcM.s:1073   .text._ZN28ConsumerProducerCPP_API_test16ProducerKeyboradD0Ev:000000000000003c .L0 
     /tmp/cc5eykcM.s:1075   .text._ZN28ConsumerProducerCPP_API_test16ProducerKeyboradD0Ev:0000000000000040 .L0 
     /tmp/cc5eykcM.s:1076   .text._ZN28ConsumerProducerCPP_API_test16ProducerKeyboradD0Ev:0000000000000040 .L0 
     /tmp/cc5eykcM.s:1078   .text._ZN28ConsumerProducerCPP_API_test16ProducerKeyboradD0Ev:0000000000000044 .L0 
     /tmp/cc5eykcM.s:1081   .text._ZN28ConsumerProducerCPP_API_test16ProducerKeyboradD0Ev:0000000000000048 .L0 
     /tmp/cc5eykcM.s:1083   .text._ZN28ConsumerProducerCPP_API_test16ProducerKeyboradD0Ev:000000000000004c .L0 
     /tmp/cc5eykcM.s:1090   .text._ZN28ConsumerProducerCPP_API_test8ProducerD2Ev:0000000000000000 _ZN28ConsumerProducerCPP_API_test8ProducerD2Ev
     /tmp/cc5eykcM.s:1093   .text._ZN28ConsumerProducerCPP_API_test8ProducerD2Ev:0000000000000000 .L0 
     /tmp/cc5eykcM.s:1095   .text._ZN28ConsumerProducerCPP_API_test8ProducerD2Ev:0000000000000000 .L0 
     /tmp/cc5eykcM.s:1096   .text._ZN28ConsumerProducerCPP_API_test8ProducerD2Ev:0000000000000004 .L0 
     /tmp/cc5eykcM.s:1099   .text._ZN28ConsumerProducerCPP_API_test8ProducerD2Ev:000000000000000c .L0 
     /tmp/cc5eykcM.s:1100   .text._ZN28ConsumerProducerCPP_API_test8ProducerD2Ev:000000000000000c .L0 
     /tmp/cc5eykcM.s:1102   .text._ZN28ConsumerProducerCPP_API_test8ProducerD2Ev:0000000000000010 .L0 
     /tmp/cc5eykcM.s:6872   .data.rel.ro.local._ZTVN28ConsumerProducerCPP_API_test8ProducerE:0000000000000000 _ZTVN28ConsumerProducerCPP_API_test8ProducerE
     /tmp/cc5eykcM.s:1105   .text._ZN28ConsumerProducerCPP_API_test8ProducerD2Ev:0000000000000010 .L0 
     /tmp/cc5eykcM.s:1111   .text._ZN28ConsumerProducerCPP_API_test8ProducerD2Ev:0000000000000028 .L0 
     /tmp/cc5eykcM.s:1113   .text._ZN28ConsumerProducerCPP_API_test8ProducerD2Ev:000000000000002c .L0 
     /tmp/cc5eykcM.s:1114   .text._ZN28ConsumerProducerCPP_API_test8ProducerD2Ev:000000000000002c .L0 
     /tmp/cc5eykcM.s:1116   .text._ZN28ConsumerProducerCPP_API_test8ProducerD2Ev:0000000000000030 .L0 
     /tmp/cc5eykcM.s:1118   .text._ZN28ConsumerProducerCPP_API_test8ProducerD2Ev:0000000000000034 .L0 
     /tmp/cc5eykcM.s:1090   .text._ZN28ConsumerProducerCPP_API_test8ProducerD2Ev:0000000000000000 _ZN28ConsumerProducerCPP_API_test8ProducerD1Ev
     /tmp/cc5eykcM.s:1127   .text._ZN28ConsumerProducerCPP_API_test8ProducerD0Ev:0000000000000000 _ZN28ConsumerProducerCPP_API_test8ProducerD0Ev
     /tmp/cc5eykcM.s:1130   .text._ZN28ConsumerProducerCPP_API_test8ProducerD0Ev:0000000000000000 .L0 
     /tmp/cc5eykcM.s:1132   .text._ZN28ConsumerProducerCPP_API_test8ProducerD0Ev:0000000000000000 .L0 
     /tmp/cc5eykcM.s:1133   .text._ZN28ConsumerProducerCPP_API_test8ProducerD0Ev:0000000000000004 .L0 
     /tmp/cc5eykcM.s:1137   .text._ZN28ConsumerProducerCPP_API_test8ProducerD0Ev:0000000000000010 .L0 
     /tmp/cc5eykcM.s:1138   .text._ZN28ConsumerProducerCPP_API_test8ProducerD0Ev:0000000000000010 .L0 
     /tmp/cc5eykcM.s:1139   .text._ZN28ConsumerProducerCPP_API_test8ProducerD0Ev:0000000000000010 .L0 
     /tmp/cc5eykcM.s:1141   .text._ZN28ConsumerProducerCPP_API_test8ProducerD0Ev:0000000000000014 .L0 
     /tmp/cc5eykcM.s:1147   .text._ZN28ConsumerProducerCPP_API_test8ProducerD0Ev:0000000000000018 .L0 
     /tmp/cc5eykcM.s:1157   .text._ZN28ConsumerProducerCPP_API_test8ProducerD0Ev:000000000000003c .L0 
     /tmp/cc5eykcM.s:1159   .text._ZN28ConsumerProducerCPP_API_test8ProducerD0Ev:0000000000000040 .L0 
GAS LISTING /tmp/cc5eykcM.s 			page 177


     /tmp/cc5eykcM.s:1160   .text._ZN28ConsumerProducerCPP_API_test8ProducerD0Ev:0000000000000040 .L0 
     /tmp/cc5eykcM.s:1162   .text._ZN28ConsumerProducerCPP_API_test8ProducerD0Ev:0000000000000044 .L0 
     /tmp/cc5eykcM.s:1165   .text._ZN28ConsumerProducerCPP_API_test8ProducerD0Ev:0000000000000048 .L0 
     /tmp/cc5eykcM.s:1167   .text._ZN28ConsumerProducerCPP_API_test8ProducerD0Ev:000000000000004c .L0 
     /tmp/cc5eykcM.s:1174   .text:00000000000001e4 _ZN27ConsumerProducer_C_API_test16producerKeyboardEPv
     /tmp/cc5eykcM.s:1178   .text:00000000000001e4 .L0 
     /tmp/cc5eykcM.s:1180   .text:00000000000001e4 .L0 
     /tmp/cc5eykcM.s:1181   .text:00000000000001e8 .L0 
     /tmp/cc5eykcM.s:1186   .text:00000000000001f8 .L0 
     /tmp/cc5eykcM.s:1187   .text:00000000000001f8 .L0 
     /tmp/cc5eykcM.s:1188   .text:00000000000001f8 .L0 
     /tmp/cc5eykcM.s:1189   .text:00000000000001f8 .L0 
     /tmp/cc5eykcM.s:1191   .text:00000000000001fc .L0 
     /tmp/cc5eykcM.s:1195   .text:0000000000000200 .L0 
     /tmp/cc5eykcM.s:1196   .text:0000000000000200 .L0 
     /tmp/cc5eykcM.s:1197   .text:0000000000000200 .L0 
     /tmp/cc5eykcM.s:1198   .text:0000000000000200 .L0 
     /tmp/cc5eykcM.s:1203   .text:0000000000000208 .L0 
     /tmp/cc5eykcM.s:1204   .text:0000000000000208 .L0 
     /tmp/cc5eykcM.s:1208   .text:0000000000000210 .L0 
     /tmp/cc5eykcM.s:1209   .text:0000000000000210 .L0 
     /tmp/cc5eykcM.s:1210   .text:0000000000000210 .L0 
     /tmp/cc5eykcM.s:1213   .text:0000000000000218 .L0 
     /tmp/cc5eykcM.s:1216   .text:000000000000021c .L0 
     /tmp/cc5eykcM.s:1219   .text:0000000000000224 .L0 
     /tmp/cc5eykcM.s:1220   .text:0000000000000224 .L0 
     /tmp/cc5eykcM.s:1224   .text:0000000000000230 .L0 
     /tmp/cc5eykcM.s:1225   .text:0000000000000230 .L0 
     /tmp/cc5eykcM.s:1229   .text:0000000000000238 .L0 
     /tmp/cc5eykcM.s:1230   .text:0000000000000238 .L0 
     /tmp/cc5eykcM.s:1232   .text:000000000000023c .L0 
     /tmp/cc5eykcM.s:1236   .text:0000000000000248 .L0 
     /tmp/cc5eykcM.s:1238   .text:000000000000024c .L0 
     /tmp/cc5eykcM.s:1243   .text:0000000000000254 .L0 
     /tmp/cc5eykcM.s:1244   .text:0000000000000254 .L0 
     /tmp/cc5eykcM.s:1247   .text:0000000000000260 .L0 
     /tmp/cc5eykcM.s:1248   .text:0000000000000260 .L0 
     /tmp/cc5eykcM.s:1255   .text:0000000000000270 .L0 
     /tmp/cc5eykcM.s:1256   .text:0000000000000270 .L0 
     /tmp/cc5eykcM.s:1260   .text:000000000000027c .L0 
     /tmp/cc5eykcM.s:1261   .text:0000000000000280 .L0 
     /tmp/cc5eykcM.s:1263   .text:0000000000000284 .L0 
     /tmp/cc5eykcM.s:1264   .text:0000000000000284 .L0 
     /tmp/cc5eykcM.s:1266   .text:0000000000000288 .L0 
     /tmp/cc5eykcM.s:1269   .text:000000000000028c .L0 
     /tmp/cc5eykcM.s:1272   .text:0000000000000290 .L0 
     /tmp/cc5eykcM.s:1274   .text:0000000000000294 .L0 
     /tmp/cc5eykcM.s:1280   .text:0000000000000294 _ZN27ConsumerProducer_C_API_test8producerEPv
     /tmp/cc5eykcM.s:1283   .text:0000000000000294 .L0 
     /tmp/cc5eykcM.s:1285   .text:0000000000000294 .L0 
     /tmp/cc5eykcM.s:1286   .text:0000000000000298 .L0 
     /tmp/cc5eykcM.s:1291   .text:00000000000002a8 .L0 
     /tmp/cc5eykcM.s:1292   .text:00000000000002a8 .L0 
     /tmp/cc5eykcM.s:1293   .text:00000000000002a8 .L0 
     /tmp/cc5eykcM.s:1294   .text:00000000000002a8 .L0 
     /tmp/cc5eykcM.s:1296   .text:00000000000002ac .L0 
     /tmp/cc5eykcM.s:1300   .text:00000000000002b0 .L0 
GAS LISTING /tmp/cc5eykcM.s 			page 178


     /tmp/cc5eykcM.s:1301   .text:00000000000002b0 .L0 
     /tmp/cc5eykcM.s:1302   .text:00000000000002b0 .L0 
     /tmp/cc5eykcM.s:1307   .text:00000000000002b8 .L0 
     /tmp/cc5eykcM.s:1308   .text:00000000000002b8 .L0 
     /tmp/cc5eykcM.s:1312   .text:00000000000002c0 .L0 
     /tmp/cc5eykcM.s:1313   .text:00000000000002c0 .L0 
     /tmp/cc5eykcM.s:1316   .text:00000000000002cc .L0 
     /tmp/cc5eykcM.s:1317   .text:00000000000002cc .L0 
     /tmp/cc5eykcM.s:1319   .text:00000000000002d0 .L0 
     /tmp/cc5eykcM.s:1324   .text:00000000000002e0 .L0 
     /tmp/cc5eykcM.s:1325   .text:00000000000002e0 .L0 
     /tmp/cc5eykcM.s:1329   .text:00000000000002e8 .L0 
     /tmp/cc5eykcM.s:1330   .text:00000000000002e8 .L0 
     /tmp/cc5eykcM.s:1332   .text:00000000000002ec .L0 
     /tmp/cc5eykcM.s:1336   .text:00000000000002f8 .L0 
     /tmp/cc5eykcM.s:1338   .text:00000000000002fc .L0 
     /tmp/cc5eykcM.s:1343   .text:0000000000000304 .L0 
     /tmp/cc5eykcM.s:1344   .text:0000000000000304 .L0 
     /tmp/cc5eykcM.s:1348   .text:0000000000000310 .L0 
     /tmp/cc5eykcM.s:1349   .text:0000000000000314 .L0 
     /tmp/cc5eykcM.s:1351   .text:0000000000000318 .L0 
     /tmp/cc5eykcM.s:1352   .text:0000000000000318 .L0 
     /tmp/cc5eykcM.s:1354   .text:000000000000031c .L0 
     /tmp/cc5eykcM.s:1357   .text:0000000000000320 .L0 
     /tmp/cc5eykcM.s:1360   .text:0000000000000324 .L0 
     /tmp/cc5eykcM.s:1362   .text:0000000000000328 .L0 
     /tmp/cc5eykcM.s:1368   .text:0000000000000328 _ZN27ConsumerProducer_C_API_test8consumerEPv
     /tmp/cc5eykcM.s:1371   .text:0000000000000328 .L0 
     /tmp/cc5eykcM.s:1373   .text:0000000000000328 .L0 
     /tmp/cc5eykcM.s:1374   .text:000000000000032c .L0 
     /tmp/cc5eykcM.s:1380   .text:0000000000000340 .L0 
     /tmp/cc5eykcM.s:1381   .text:0000000000000340 .L0 
     /tmp/cc5eykcM.s:1382   .text:0000000000000340 .L0 
     /tmp/cc5eykcM.s:1383   .text:0000000000000340 .L0 
     /tmp/cc5eykcM.s:1384   .text:0000000000000340 .L0 
     /tmp/cc5eykcM.s:1386   .text:0000000000000344 .L0 
     /tmp/cc5eykcM.s:1390   .text:0000000000000348 .L0 
     /tmp/cc5eykcM.s:1391   .text:0000000000000348 .L0 
     /tmp/cc5eykcM.s:1392   .text:0000000000000348 .L0 
     /tmp/cc5eykcM.s:1398   .text:0000000000000350 .L0 
     /tmp/cc5eykcM.s:1399   .text:0000000000000350 .L0 
     /tmp/cc5eykcM.s:1405   .text:000000000000035c .L0 
     /tmp/cc5eykcM.s:1406   .text:000000000000035c .L0 
     /tmp/cc5eykcM.s:1412   .text:0000000000000368 .L0 
     /tmp/cc5eykcM.s:1413   .text:0000000000000368 .L0 
     /tmp/cc5eykcM.s:1417   .text:0000000000000374 .L0 
     /tmp/cc5eykcM.s:1418   .text:0000000000000374 .L0 
     /tmp/cc5eykcM.s:1422   .text:0000000000000380 .L0 
     /tmp/cc5eykcM.s:1423   .text:0000000000000380 .L0 
     /tmp/cc5eykcM.s:1427   .text:0000000000000388 .L0 
     /tmp/cc5eykcM.s:1428   .text:0000000000000388 .L0 
     /tmp/cc5eykcM.s:1433   .text:0000000000000394 .L0 
     /tmp/cc5eykcM.s:1434   .text:0000000000000394 .L0 
     /tmp/cc5eykcM.s:1436   .text:0000000000000398 .L0 
     /tmp/cc5eykcM.s:1439   .text:00000000000003a0 .L0 
     /tmp/cc5eykcM.s:1441   .text:00000000000003a4 .L0 
     /tmp/cc5eykcM.s:1444   .text:00000000000003a8 .L0 
GAS LISTING /tmp/cc5eykcM.s 			page 179


     /tmp/cc5eykcM.s:1445   .text:00000000000003a8 .L0 
     /tmp/cc5eykcM.s:1449   .text:00000000000003b0 .L0 
     /tmp/cc5eykcM.s:1455   .text:00000000000003b8 .L0 
     /tmp/cc5eykcM.s:1456   .text:00000000000003b8 .L0 
     /tmp/cc5eykcM.s:1460   .text:00000000000003c4 .L0 
     /tmp/cc5eykcM.s:1461   .text:00000000000003c4 .L0 
     /tmp/cc5eykcM.s:1468   .text:00000000000003d0 .L0 
     /tmp/cc5eykcM.s:1469   .text:00000000000003d0 .L0 
     /tmp/cc5eykcM.s:1470   .text:00000000000003d0 .L0 
     /tmp/cc5eykcM.s:1474   .text:00000000000003dc .L0 
     /tmp/cc5eykcM.s:1476   .text:00000000000003e0 .L0 
     /tmp/cc5eykcM.s:1477   .text:00000000000003e0 .L0 
     /tmp/cc5eykcM.s:1481   .text:00000000000003ec .L0 
     /tmp/cc5eykcM.s:1482   .text:00000000000003f0 .L0 
     /tmp/cc5eykcM.s:1484   .text:00000000000003f4 .L0 
     /tmp/cc5eykcM.s:1485   .text:00000000000003f4 .L0 
     /tmp/cc5eykcM.s:1487   .text:00000000000003f8 .L0 
     /tmp/cc5eykcM.s:1489   .text:00000000000003fc .L0 
     /tmp/cc5eykcM.s:1492   .text:0000000000000400 .L0 
     /tmp/cc5eykcM.s:1495   .text:0000000000000404 .L0 
     /tmp/cc5eykcM.s:1497   .text:0000000000000408 .L0 
     /tmp/cc5eykcM.s:1504   .text._ZN28ConsumerProducerCPP_API_test16ProducerKeyborad3runEv:0000000000000000 _ZN28ConsumerProducerCPP_API_test16ProducerKeyborad3runEv
     /tmp/cc5eykcM.s:1507   .text._ZN28ConsumerProducerCPP_API_test16ProducerKeyborad3runEv:0000000000000000 .L0 
     /tmp/cc5eykcM.s:1509   .text._ZN28ConsumerProducerCPP_API_test16ProducerKeyborad3runEv:0000000000000000 .L0 
     /tmp/cc5eykcM.s:1510   .text._ZN28ConsumerProducerCPP_API_test16ProducerKeyborad3runEv:0000000000000004 .L0 
     /tmp/cc5eykcM.s:1514   .text._ZN28ConsumerProducerCPP_API_test16ProducerKeyborad3runEv:0000000000000010 .L0 
     /tmp/cc5eykcM.s:1515   .text._ZN28ConsumerProducerCPP_API_test16ProducerKeyborad3runEv:0000000000000010 .L0 
     /tmp/cc5eykcM.s:1516   .text._ZN28ConsumerProducerCPP_API_test16ProducerKeyborad3runEv:0000000000000010 .L0 
     /tmp/cc5eykcM.s:1518   .text._ZN28ConsumerProducerCPP_API_test16ProducerKeyborad3runEv:0000000000000014 .L0 
     /tmp/cc5eykcM.s:1521   .text._ZN28ConsumerProducerCPP_API_test16ProducerKeyborad3runEv:0000000000000018 .L0 
     /tmp/cc5eykcM.s:1524   .text._ZN28ConsumerProducerCPP_API_test16ProducerKeyborad3runEv:0000000000000018 .L0 
     /tmp/cc5eykcM.s:1525   .text._ZN28ConsumerProducerCPP_API_test16ProducerKeyborad3runEv:0000000000000018 .L0 
     /tmp/cc5eykcM.s:1526   .text._ZN28ConsumerProducerCPP_API_test16ProducerKeyborad3runEv:0000000000000018 .L0 
     /tmp/cc5eykcM.s:1527   .text._ZN28ConsumerProducerCPP_API_test16ProducerKeyborad3runEv:0000000000000018 .L0 
     /tmp/cc5eykcM.s:1530   .text._ZN28ConsumerProducerCPP_API_test16ProducerKeyborad3runEv:0000000000000020 .L0 
     /tmp/cc5eykcM.s:1533   .text._ZN28ConsumerProducerCPP_API_test16ProducerKeyborad3runEv:0000000000000024 .L0 
     /tmp/cc5eykcM.s:1536   .text._ZN28ConsumerProducerCPP_API_test16ProducerKeyborad3runEv:000000000000002c .L0 
     /tmp/cc5eykcM.s:1538   .text._ZN28ConsumerProducerCPP_API_test16ProducerKeyborad3runEv:0000000000000030 .L0 
     /tmp/cc5eykcM.s:1542   .text._ZN28ConsumerProducerCPP_API_test16ProducerKeyborad3runEv:000000000000003c .L0 
     /tmp/cc5eykcM.s:1543   .text._ZN28ConsumerProducerCPP_API_test16ProducerKeyborad3runEv:000000000000003c .L0 
     /tmp/cc5eykcM.s:1547   .text._ZN28ConsumerProducerCPP_API_test16ProducerKeyborad3runEv:0000000000000040 .L0 
     /tmp/cc5eykcM.s:1548   .text._ZN28ConsumerProducerCPP_API_test16ProducerKeyborad3runEv:0000000000000040 .L0 
     /tmp/cc5eykcM.s:1551   .text._ZN28ConsumerProducerCPP_API_test16ProducerKeyborad3runEv:000000000000004c .L0 
     /tmp/cc5eykcM.s:1553   .text._ZN28ConsumerProducerCPP_API_test16ProducerKeyborad3runEv:0000000000000050 .L0 
     /tmp/cc5eykcM.s:1560   .text._ZN28ConsumerProducerCPP_API_test16ProducerKeyborad3runEv:0000000000000060 .L0 
     /tmp/cc5eykcM.s:1562   .text._ZN28ConsumerProducerCPP_API_test16ProducerKeyborad3runEv:0000000000000064 .L0 
     /tmp/cc5eykcM.s:1566   .text._ZN28ConsumerProducerCPP_API_test16ProducerKeyborad3runEv:0000000000000070 .L0 
     /tmp/cc5eykcM.s:1567   .text._ZN28ConsumerProducerCPP_API_test16ProducerKeyborad3runEv:0000000000000074 .L0 
     /tmp/cc5eykcM.s:1569   .text._ZN28ConsumerProducerCPP_API_test16ProducerKeyborad3runEv:0000000000000078 .L0 
     /tmp/cc5eykcM.s:1570   .text._ZN28ConsumerProducerCPP_API_test16ProducerKeyborad3runEv:0000000000000078 .L0 
     /tmp/cc5eykcM.s:1572   .text._ZN28ConsumerProducerCPP_API_test16ProducerKeyborad3runEv:000000000000007c .L0 
     /tmp/cc5eykcM.s:1575   .text._ZN28ConsumerProducerCPP_API_test16ProducerKeyborad3runEv:0000000000000080 .L0 
     /tmp/cc5eykcM.s:1577   .text._ZN28ConsumerProducerCPP_API_test16ProducerKeyborad3runEv:0000000000000084 .L0 
     /tmp/cc5eykcM.s:1584   .text._ZN28ConsumerProducerCPP_API_test8Consumer3runEv:0000000000000000 _ZN28ConsumerProducerCPP_API_test8Consumer3runEv
     /tmp/cc5eykcM.s:1587   .text._ZN28ConsumerProducerCPP_API_test8Consumer3runEv:0000000000000000 .L0 
     /tmp/cc5eykcM.s:1589   .text._ZN28ConsumerProducerCPP_API_test8Consumer3runEv:0000000000000000 .L0 
     /tmp/cc5eykcM.s:1590   .text._ZN28ConsumerProducerCPP_API_test8Consumer3runEv:0000000000000004 .L0 
GAS LISTING /tmp/cc5eykcM.s 			page 180


     /tmp/cc5eykcM.s:1596   .text._ZN28ConsumerProducerCPP_API_test8Consumer3runEv:0000000000000018 .L0 
     /tmp/cc5eykcM.s:1597   .text._ZN28ConsumerProducerCPP_API_test8Consumer3runEv:0000000000000018 .L0 
     /tmp/cc5eykcM.s:1598   .text._ZN28ConsumerProducerCPP_API_test8Consumer3runEv:0000000000000018 .L0 
     /tmp/cc5eykcM.s:1599   .text._ZN28ConsumerProducerCPP_API_test8Consumer3runEv:0000000000000018 .L0 
     /tmp/cc5eykcM.s:1600   .text._ZN28ConsumerProducerCPP_API_test8Consumer3runEv:0000000000000018 .L0 
     /tmp/cc5eykcM.s:1602   .text._ZN28ConsumerProducerCPP_API_test8Consumer3runEv:000000000000001c .L0 
     /tmp/cc5eykcM.s:1606   .text._ZN28ConsumerProducerCPP_API_test8Consumer3runEv:0000000000000020 .L0 
     /tmp/cc5eykcM.s:1607   .text._ZN28ConsumerProducerCPP_API_test8Consumer3runEv:0000000000000020 .L0 
     /tmp/cc5eykcM.s:1613   .text._ZN28ConsumerProducerCPP_API_test8Consumer3runEv:0000000000000028 .L0 
     /tmp/cc5eykcM.s:1614   .text._ZN28ConsumerProducerCPP_API_test8Consumer3runEv:0000000000000028 .L0 
     /tmp/cc5eykcM.s:1620   .text._ZN28ConsumerProducerCPP_API_test8Consumer3runEv:0000000000000034 .L0 
     /tmp/cc5eykcM.s:1621   .text._ZN28ConsumerProducerCPP_API_test8Consumer3runEv:0000000000000034 .L0 
     /tmp/cc5eykcM.s:1625   .text._ZN28ConsumerProducerCPP_API_test8Consumer3runEv:0000000000000040 .L0 
     /tmp/cc5eykcM.s:1626   .text._ZN28ConsumerProducerCPP_API_test8Consumer3runEv:0000000000000040 .L0 
     /tmp/cc5eykcM.s:1628   .text._ZN28ConsumerProducerCPP_API_test8Consumer3runEv:0000000000000044 .L0 
     /tmp/cc5eykcM.s:1632   .text._ZN28ConsumerProducerCPP_API_test8Consumer3runEv:0000000000000050 .L0 
     /tmp/cc5eykcM.s:1633   .text._ZN28ConsumerProducerCPP_API_test8Consumer3runEv:0000000000000050 .L0 
     /tmp/cc5eykcM.s:1637   .text._ZN28ConsumerProducerCPP_API_test8Consumer3runEv:0000000000000058 .L0 
     /tmp/cc5eykcM.s:1638   .text._ZN28ConsumerProducerCPP_API_test8Consumer3runEv:0000000000000058 .L0 
     /tmp/cc5eykcM.s:1643   .text._ZN28ConsumerProducerCPP_API_test8Consumer3runEv:0000000000000064 .L0 
     /tmp/cc5eykcM.s:1644   .text._ZN28ConsumerProducerCPP_API_test8Consumer3runEv:0000000000000064 .L0 
     /tmp/cc5eykcM.s:1648   .text._ZN28ConsumerProducerCPP_API_test8Consumer3runEv:000000000000006c .L0 
     /tmp/cc5eykcM.s:1654   .text._ZN28ConsumerProducerCPP_API_test8Consumer3runEv:0000000000000074 .L0 
     /tmp/cc5eykcM.s:1655   .text._ZN28ConsumerProducerCPP_API_test8Consumer3runEv:0000000000000074 .L0 
     /tmp/cc5eykcM.s:1657   .text._ZN28ConsumerProducerCPP_API_test8Consumer3runEv:0000000000000078 .L0 
     /tmp/cc5eykcM.s:1661   .text._ZN28ConsumerProducerCPP_API_test8Consumer3runEv:0000000000000084 .L0 
     /tmp/cc5eykcM.s:1662   .text._ZN28ConsumerProducerCPP_API_test8Consumer3runEv:0000000000000084 .L0 
     /tmp/cc5eykcM.s:1669   .text._ZN28ConsumerProducerCPP_API_test8Consumer3runEv:0000000000000090 .L0 
     /tmp/cc5eykcM.s:1670   .text._ZN28ConsumerProducerCPP_API_test8Consumer3runEv:0000000000000090 .L0 
     /tmp/cc5eykcM.s:1671   .text._ZN28ConsumerProducerCPP_API_test8Consumer3runEv:0000000000000090 .L0 
     /tmp/cc5eykcM.s:1673   .text._ZN28ConsumerProducerCPP_API_test8Consumer3runEv:0000000000000094 .L0 
     /tmp/cc5eykcM.s:1677   .text._ZN28ConsumerProducerCPP_API_test8Consumer3runEv:00000000000000a0 .L0 
     /tmp/cc5eykcM.s:1679   .text._ZN28ConsumerProducerCPP_API_test8Consumer3runEv:00000000000000a4 .L0 
     /tmp/cc5eykcM.s:1681   .text._ZN28ConsumerProducerCPP_API_test8Consumer3runEv:00000000000000a8 .L0 
     /tmp/cc5eykcM.s:1685   .text._ZN28ConsumerProducerCPP_API_test8Consumer3runEv:00000000000000b4 .L0 
     /tmp/cc5eykcM.s:1686   .text._ZN28ConsumerProducerCPP_API_test8Consumer3runEv:00000000000000b8 .L0 
     /tmp/cc5eykcM.s:1688   .text._ZN28ConsumerProducerCPP_API_test8Consumer3runEv:00000000000000bc .L0 
     /tmp/cc5eykcM.s:1689   .text._ZN28ConsumerProducerCPP_API_test8Consumer3runEv:00000000000000bc .L0 
     /tmp/cc5eykcM.s:1691   .text._ZN28ConsumerProducerCPP_API_test8Consumer3runEv:00000000000000c0 .L0 
     /tmp/cc5eykcM.s:1693   .text._ZN28ConsumerProducerCPP_API_test8Consumer3runEv:00000000000000c4 .L0 
     /tmp/cc5eykcM.s:1696   .text._ZN28ConsumerProducerCPP_API_test8Consumer3runEv:00000000000000c8 .L0 
     /tmp/cc5eykcM.s:1699   .text._ZN28ConsumerProducerCPP_API_test8Consumer3runEv:00000000000000cc .L0 
     /tmp/cc5eykcM.s:1701   .text._ZN28ConsumerProducerCPP_API_test8Consumer3runEv:00000000000000d0 .L0 
     /tmp/cc5eykcM.s:1715   .text:0000000000000408 _ZN22ThreadSleep_C_API_test9sleepyRunEPv
     /tmp/cc5eykcM.s:1719   .text:0000000000000408 .L0 
     /tmp/cc5eykcM.s:1721   .text:0000000000000408 .L0 
     /tmp/cc5eykcM.s:1722   .text:000000000000040c .L0 
     /tmp/cc5eykcM.s:1727   .text:000000000000041c .L0 
     /tmp/cc5eykcM.s:1728   .text:000000000000041c .L0 
     /tmp/cc5eykcM.s:1729   .text:000000000000041c .L0 
     /tmp/cc5eykcM.s:1730   .text:000000000000041c .L0 
     /tmp/cc5eykcM.s:1732   .text:0000000000000420 .L0 
     /tmp/cc5eykcM.s:1734   .text:0000000000000420 .L0 
     /tmp/cc5eykcM.s:1735   .text:0000000000000420 .L0 
     /tmp/cc5eykcM.s:1738   .text:0000000000000424 .L0 
     /tmp/cc5eykcM.s:1739   .text:0000000000000424 .L0 
     /tmp/cc5eykcM.s:1743   .text:0000000000000428 .L0 
GAS LISTING /tmp/cc5eykcM.s 			page 181


     /tmp/cc5eykcM.s:1744   .text:0000000000000428 .L0 
     /tmp/cc5eykcM.s:1748   .text:0000000000000430 .L0 
     /tmp/cc5eykcM.s:1749   .text:0000000000000430 .L0 
     /tmp/cc5eykcM.s:1753   .text:0000000000000440 .L0 
     /tmp/cc5eykcM.s:1754   .text:0000000000000440 .L0 
     /tmp/cc5eykcM.s:1760   .text:0000000000000454 .L0 
     /tmp/cc5eykcM.s:1761   .text:0000000000000454 .L0 
     /tmp/cc5eykcM.s:1765   .text:0000000000000464 .L0 
     /tmp/cc5eykcM.s:1766   .text:0000000000000464 .L0 
     /tmp/cc5eykcM.s:1770   .text:0000000000000470 .L0 
     /tmp/cc5eykcM.s:1773   .text:0000000000000474 .L0 
     /tmp/cc5eykcM.s:1774   .text:0000000000000474 .L0 
     /tmp/cc5eykcM.s:1778   .text:000000000000047c .L0 
     /tmp/cc5eykcM.s:1780   .text:0000000000000480 .L0 
     /tmp/cc5eykcM.s:1785   .text:0000000000000494 .L0 
     /tmp/cc5eykcM.s:1786   .text:0000000000000498 .L0 
     /tmp/cc5eykcM.s:1788   .text:000000000000049c .L0 
     /tmp/cc5eykcM.s:1789   .text:000000000000049c .L0 
     /tmp/cc5eykcM.s:1791   .text:00000000000004a0 .L0 
     /tmp/cc5eykcM.s:1793   .text:00000000000004a4 .L0 
     /tmp/cc5eykcM.s:1795   .text:00000000000004a8 .L0 
     /tmp/cc5eykcM.s:1797   .text:00000000000004ac .L0 
     /tmp/cc5eykcM.s:1804   .text._ZN28ConsumerProducerCPP_API_test8Producer3runEv:0000000000000000 _ZN28ConsumerProducerCPP_API_test8Producer3runEv
     /tmp/cc5eykcM.s:1807   .text._ZN28ConsumerProducerCPP_API_test8Producer3runEv:0000000000000000 .L0 
     /tmp/cc5eykcM.s:1809   .text._ZN28ConsumerProducerCPP_API_test8Producer3runEv:0000000000000000 .L0 
     /tmp/cc5eykcM.s:1810   .text._ZN28ConsumerProducerCPP_API_test8Producer3runEv:0000000000000004 .L0 
     /tmp/cc5eykcM.s:1815   .text._ZN28ConsumerProducerCPP_API_test8Producer3runEv:0000000000000014 .L0 
     /tmp/cc5eykcM.s:1816   .text._ZN28ConsumerProducerCPP_API_test8Producer3runEv:0000000000000014 .L0 
     /tmp/cc5eykcM.s:1817   .text._ZN28ConsumerProducerCPP_API_test8Producer3runEv:0000000000000014 .L0 
     /tmp/cc5eykcM.s:1818   .text._ZN28ConsumerProducerCPP_API_test8Producer3runEv:0000000000000014 .L0 
     /tmp/cc5eykcM.s:1820   .text._ZN28ConsumerProducerCPP_API_test8Producer3runEv:0000000000000018 .L0 
     /tmp/cc5eykcM.s:1824   .text._ZN28ConsumerProducerCPP_API_test8Producer3runEv:000000000000001c .L0 
     /tmp/cc5eykcM.s:1825   .text._ZN28ConsumerProducerCPP_API_test8Producer3runEv:000000000000001c .L0 
     /tmp/cc5eykcM.s:1829   .text._ZN28ConsumerProducerCPP_API_test8Producer3runEv:0000000000000020 .L0 
     /tmp/cc5eykcM.s:1830   .text._ZN28ConsumerProducerCPP_API_test8Producer3runEv:0000000000000020 .L0 
     /tmp/cc5eykcM.s:1833   .text._ZN28ConsumerProducerCPP_API_test8Producer3runEv:000000000000002c .L0 
     /tmp/cc5eykcM.s:1835   .text._ZN28ConsumerProducerCPP_API_test8Producer3runEv:0000000000000030 .L0 
     /tmp/cc5eykcM.s:1837   .text._ZN28ConsumerProducerCPP_API_test8Producer3runEv:0000000000000034 .L0 
     /tmp/cc5eykcM.s:1842   .text._ZN28ConsumerProducerCPP_API_test8Producer3runEv:0000000000000044 .L0 
     /tmp/cc5eykcM.s:1843   .text._ZN28ConsumerProducerCPP_API_test8Producer3runEv:0000000000000044 .L0 
     /tmp/cc5eykcM.s:1847   .text._ZN28ConsumerProducerCPP_API_test8Producer3runEv:000000000000004c .L0 
     /tmp/cc5eykcM.s:1848   .text._ZN28ConsumerProducerCPP_API_test8Producer3runEv:000000000000004c .L0 
     /tmp/cc5eykcM.s:1850   .text._ZN28ConsumerProducerCPP_API_test8Producer3runEv:0000000000000050 .L0 
     /tmp/cc5eykcM.s:1852   .text._ZN28ConsumerProducerCPP_API_test8Producer3runEv:0000000000000054 .L0 
     /tmp/cc5eykcM.s:1854   .text._ZN28ConsumerProducerCPP_API_test8Producer3runEv:0000000000000058 .L0 
     /tmp/cc5eykcM.s:1859   .text._ZN28ConsumerProducerCPP_API_test8Producer3runEv:0000000000000068 .L0 
     /tmp/cc5eykcM.s:1862   .text._ZN28ConsumerProducerCPP_API_test8Producer3runEv:000000000000006c .L0 
     /tmp/cc5eykcM.s:1864   .text._ZN28ConsumerProducerCPP_API_test8Producer3runEv:0000000000000070 .L0 
     /tmp/cc5eykcM.s:1868   .text._ZN28ConsumerProducerCPP_API_test8Producer3runEv:000000000000007c .L0 
     /tmp/cc5eykcM.s:1869   .text._ZN28ConsumerProducerCPP_API_test8Producer3runEv:0000000000000080 .L0 
     /tmp/cc5eykcM.s:1871   .text._ZN28ConsumerProducerCPP_API_test8Producer3runEv:0000000000000084 .L0 
     /tmp/cc5eykcM.s:1872   .text._ZN28ConsumerProducerCPP_API_test8Producer3runEv:0000000000000084 .L0 
     /tmp/cc5eykcM.s:1874   .text._ZN28ConsumerProducerCPP_API_test8Producer3runEv:0000000000000088 .L0 
     /tmp/cc5eykcM.s:1877   .text._ZN28ConsumerProducerCPP_API_test8Producer3runEv:000000000000008c .L0 
     /tmp/cc5eykcM.s:1880   .text._ZN28ConsumerProducerCPP_API_test8Producer3runEv:0000000000000090 .L0 
     /tmp/cc5eykcM.s:1882   .text._ZN28ConsumerProducerCPP_API_test8Producer3runEv:0000000000000094 .L0 
     /tmp/cc5eykcM.s:1889   .text:00000000000004ac _ZN18Threads_C_API_test9fibonacciEm
GAS LISTING /tmp/cc5eykcM.s 			page 182


     /tmp/cc5eykcM.s:1892   .text:00000000000004ac .L0 
     /tmp/cc5eykcM.s:1894   .text:00000000000004ac .L0 
     /tmp/cc5eykcM.s:1895   .text:00000000000004b0 .L0 
     /tmp/cc5eykcM.s:1900   .text:00000000000004c0 .L0 
     /tmp/cc5eykcM.s:1901   .text:00000000000004c0 .L0 
     /tmp/cc5eykcM.s:1902   .text:00000000000004c0 .L0 
     /tmp/cc5eykcM.s:1903   .text:00000000000004c0 .L0 
     /tmp/cc5eykcM.s:1905   .text:00000000000004c4 .L0 
     /tmp/cc5eykcM.s:1908   .text:00000000000004c8 .L0 
     /tmp/cc5eykcM.s:1911   .text:00000000000004d0 .L0 
     /tmp/cc5eykcM.s:1912   .text:00000000000004d0 .L0 
     /tmp/cc5eykcM.s:1915   .text:00000000000004d8 .L0 
     /tmp/cc5eykcM.s:1919   .text:00000000000004dc .L0 
     /tmp/cc5eykcM.s:1920   .text:00000000000004dc .L0 
     /tmp/cc5eykcM.s:1925   .text:00000000000004ec .L0 
     /tmp/cc5eykcM.s:1929   .text:00000000000004f8 .L0 
     /tmp/cc5eykcM.s:1932   .text:00000000000004fc .L0 
     /tmp/cc5eykcM.s:1933   .text:0000000000000500 .L0 
     /tmp/cc5eykcM.s:1934   .text:0000000000000500 .L0 
     /tmp/cc5eykcM.s:1936   .text:0000000000000504 .L0 
     /tmp/cc5eykcM.s:1937   .text:0000000000000504 .L0 
     /tmp/cc5eykcM.s:1939   .text:0000000000000508 .L0 
     /tmp/cc5eykcM.s:1942   .text:000000000000050c .L0 
     /tmp/cc5eykcM.s:1944   .text:0000000000000510 .L0 
     /tmp/cc5eykcM.s:1948   .text:0000000000000514 .L0 
     /tmp/cc5eykcM.s:1950   .text:0000000000000514 .L0 
     /tmp/cc5eykcM.s:1951   .text:0000000000000514 .L0 
     /tmp/cc5eykcM.s:1954   .text:0000000000000520 .L0 
     /tmp/cc5eykcM.s:1974   .text:0000000000000520 _ZN18Threads_C_API_test11workerBodyCEPv
     /tmp/cc5eykcM.s:1977   .text:0000000000000520 .L0 
     /tmp/cc5eykcM.s:1979   .text:0000000000000520 .L0 
     /tmp/cc5eykcM.s:1980   .text:0000000000000524 .L0 
     /tmp/cc5eykcM.s:1985   .text:0000000000000534 .L0 
     /tmp/cc5eykcM.s:1986   .text:0000000000000534 .L0 
     /tmp/cc5eykcM.s:1987   .text:0000000000000534 .L0 
     /tmp/cc5eykcM.s:1988   .text:0000000000000534 .L0 
     /tmp/cc5eykcM.s:1990   .text:0000000000000538 .L0 
     /tmp/cc5eykcM.s:1993   .text:0000000000000538 .L0 
     /tmp/cc5eykcM.s:1994   .text:0000000000000538 .L0 
     /tmp/cc5eykcM.s:1999   .text:0000000000000540 .L0 
     /tmp/cc5eykcM.s:2000   .text:0000000000000540 .L0 
     /tmp/cc5eykcM.s:2004   .text:0000000000000550 .L0 
     /tmp/cc5eykcM.s:2005   .text:0000000000000550 .L0 
     /tmp/cc5eykcM.s:2011   .text:0000000000000564 .L0 
     /tmp/cc5eykcM.s:2012   .text:0000000000000564 .L0 
     /tmp/cc5eykcM.s:2016   .text:0000000000000574 .L0 
     /tmp/cc5eykcM.s:2022   .text:000000000000057c .L0 
     /tmp/cc5eykcM.s:2023   .text:000000000000057c .L0 
     /tmp/cc5eykcM.s:2026   .text:0000000000000584 .L0 
     /tmp/cc5eykcM.s:2027   .text:0000000000000584 .L0 
     /tmp/cc5eykcM.s:2031   .text:0000000000000594 .L0 
test/../test/Threads_C_API_test.hpp:54     .text:0000000000000594 .L0 
     /tmp/cc5eykcM.s:2037   .text:0000000000000598 .L0 
     /tmp/cc5eykcM.s:2039   .text:0000000000000598 .L0 
     /tmp/cc5eykcM.s:2042   .text:00000000000005a0 .L0 
     /tmp/cc5eykcM.s:2043   .text:00000000000005a0 .L0 
test/../test/Threads_C_API_test.hpp:58     .text:00000000000005a0 .L0 
GAS LISTING /tmp/cc5eykcM.s 			page 183


     /tmp/cc5eykcM.s:2050   .text:00000000000005a4 .L0 
     /tmp/cc5eykcM.s:2052   .text:00000000000005a4 .L0 
     /tmp/cc5eykcM.s:2056   .text:00000000000005b4 .L0 
     /tmp/cc5eykcM.s:2057   .text:00000000000005b4 .L0 
     /tmp/cc5eykcM.s:2063   .text:00000000000005c8 .L0 
     /tmp/cc5eykcM.s:2064   .text:00000000000005c8 .L0 
     /tmp/cc5eykcM.s:2068   .text:00000000000005d8 .L0 
     /tmp/cc5eykcM.s:2069   .text:00000000000005d8 .L0 
     /tmp/cc5eykcM.s:2075   .text:00000000000005e8 .L0 
     /tmp/cc5eykcM.s:2076   .text:00000000000005e8 .L0 
     /tmp/cc5eykcM.s:2081   .text:00000000000005f8 .L0 
     /tmp/cc5eykcM.s:2082   .text:00000000000005f8 .L0 
     /tmp/cc5eykcM.s:2088   .text:000000000000060c .L0 
     /tmp/cc5eykcM.s:2089   .text:000000000000060c .L0 
     /tmp/cc5eykcM.s:2095   .text:0000000000000620 .L0 
     /tmp/cc5eykcM.s:2096   .text:0000000000000620 .L0 
     /tmp/cc5eykcM.s:2100   .text:0000000000000630 .L0 
     /tmp/cc5eykcM.s:2101   .text:0000000000000630 .L0 
     /tmp/cc5eykcM.s:2107   .text:0000000000000644 .L0 
     /tmp/cc5eykcM.s:2108   .text:0000000000000644 .L0 
     /tmp/cc5eykcM.s:2112   .text:0000000000000654 .L0 
     /tmp/cc5eykcM.s:2118   .text:000000000000065c .L0 
     /tmp/cc5eykcM.s:2119   .text:000000000000065c .L0 
     /tmp/cc5eykcM.s:2122   .text:0000000000000664 .L0 
     /tmp/cc5eykcM.s:2123   .text:0000000000000664 .L0 
     /tmp/cc5eykcM.s:2127   .text:0000000000000674 .L0 
     /tmp/cc5eykcM.s:2128   .text:0000000000000674 .L0 
     /tmp/cc5eykcM.s:2131   .text:0000000000000680 .L0 
     /tmp/cc5eykcM.s:2132   .text:0000000000000680 .L0 
     /tmp/cc5eykcM.s:2135   .text:0000000000000688 .L0 
     /tmp/cc5eykcM.s:2136   .text:000000000000068c .L0 
     /tmp/cc5eykcM.s:2138   .text:0000000000000690 .L0 
     /tmp/cc5eykcM.s:2139   .text:0000000000000690 .L0 
     /tmp/cc5eykcM.s:2141   .text:0000000000000694 .L0 
     /tmp/cc5eykcM.s:2144   .text:0000000000000698 .L0 
     /tmp/cc5eykcM.s:2147   .text:000000000000069c .L0 
     /tmp/cc5eykcM.s:2149   .text:00000000000006a0 .L0 
     /tmp/cc5eykcM.s:2169   .text:00000000000006a0 _ZN18Threads_C_API_test11workerBodyDEPv
     /tmp/cc5eykcM.s:2172   .text:00000000000006a0 .L0 
     /tmp/cc5eykcM.s:2174   .text:00000000000006a0 .L0 
     /tmp/cc5eykcM.s:2175   .text:00000000000006a4 .L0 
     /tmp/cc5eykcM.s:2180   .text:00000000000006b4 .L0 
     /tmp/cc5eykcM.s:2181   .text:00000000000006b4 .L0 
     /tmp/cc5eykcM.s:2182   .text:00000000000006b4 .L0 
     /tmp/cc5eykcM.s:2183   .text:00000000000006b4 .L0 
     /tmp/cc5eykcM.s:2185   .text:00000000000006b8 .L0 
     /tmp/cc5eykcM.s:2188   .text:00000000000006b8 .L0 
     /tmp/cc5eykcM.s:2189   .text:00000000000006b8 .L0 
     /tmp/cc5eykcM.s:2194   .text:00000000000006c0 .L0 
     /tmp/cc5eykcM.s:2195   .text:00000000000006c0 .L0 
     /tmp/cc5eykcM.s:2199   .text:00000000000006d0 .L0 
     /tmp/cc5eykcM.s:2200   .text:00000000000006d0 .L0 
     /tmp/cc5eykcM.s:2206   .text:00000000000006e4 .L0 
     /tmp/cc5eykcM.s:2207   .text:00000000000006e4 .L0 
     /tmp/cc5eykcM.s:2211   .text:00000000000006f4 .L0 
     /tmp/cc5eykcM.s:2217   .text:00000000000006fc .L0 
     /tmp/cc5eykcM.s:2218   .text:00000000000006fc .L0 
GAS LISTING /tmp/cc5eykcM.s 			page 184


     /tmp/cc5eykcM.s:2221   .text:0000000000000704 .L0 
     /tmp/cc5eykcM.s:2222   .text:0000000000000704 .L0 
     /tmp/cc5eykcM.s:2226   .text:0000000000000714 .L0 
test/../test/Threads_C_API_test.hpp:81     .text:0000000000000714 .L0 
     /tmp/cc5eykcM.s:2232   .text:0000000000000718 .L0 
     /tmp/cc5eykcM.s:2234   .text:0000000000000718 .L0 
     /tmp/cc5eykcM.s:2237   .text:0000000000000720 .L0 
     /tmp/cc5eykcM.s:2238   .text:0000000000000720 .L0 
     /tmp/cc5eykcM.s:2244   .text:0000000000000730 .L0 
     /tmp/cc5eykcM.s:2245   .text:0000000000000730 .L0 
     /tmp/cc5eykcM.s:2250   .text:0000000000000740 .L0 
     /tmp/cc5eykcM.s:2251   .text:0000000000000740 .L0 
     /tmp/cc5eykcM.s:2257   .text:0000000000000754 .L0 
     /tmp/cc5eykcM.s:2258   .text:0000000000000754 .L0 
     /tmp/cc5eykcM.s:2264   .text:0000000000000768 .L0 
     /tmp/cc5eykcM.s:2265   .text:0000000000000768 .L0 
     /tmp/cc5eykcM.s:2269   .text:0000000000000778 .L0 
     /tmp/cc5eykcM.s:2270   .text:0000000000000778 .L0 
     /tmp/cc5eykcM.s:2276   .text:000000000000078c .L0 
     /tmp/cc5eykcM.s:2277   .text:000000000000078c .L0 
     /tmp/cc5eykcM.s:2281   .text:000000000000079c .L0 
     /tmp/cc5eykcM.s:2287   .text:00000000000007a4 .L0 
     /tmp/cc5eykcM.s:2288   .text:00000000000007a4 .L0 
     /tmp/cc5eykcM.s:2291   .text:00000000000007ac .L0 
     /tmp/cc5eykcM.s:2292   .text:00000000000007ac .L0 
     /tmp/cc5eykcM.s:2296   .text:00000000000007bc .L0 
     /tmp/cc5eykcM.s:2297   .text:00000000000007bc .L0 
     /tmp/cc5eykcM.s:2300   .text:00000000000007c8 .L0 
     /tmp/cc5eykcM.s:2301   .text:00000000000007c8 .L0 
     /tmp/cc5eykcM.s:2304   .text:00000000000007d0 .L0 
     /tmp/cc5eykcM.s:2305   .text:00000000000007d4 .L0 
     /tmp/cc5eykcM.s:2307   .text:00000000000007d8 .L0 
     /tmp/cc5eykcM.s:2308   .text:00000000000007d8 .L0 
     /tmp/cc5eykcM.s:2310   .text:00000000000007dc .L0 
     /tmp/cc5eykcM.s:2313   .text:00000000000007e0 .L0 
     /tmp/cc5eykcM.s:2316   .text:00000000000007e4 .L0 
     /tmp/cc5eykcM.s:2318   .text:00000000000007e8 .L0 
     /tmp/cc5eykcM.s:2341   .text:00000000000007e8 _ZN18Threads_C_API_test18Threads_C_API_testEv
     /tmp/cc5eykcM.s:2344   .text:00000000000007e8 .L0 
     /tmp/cc5eykcM.s:2345   .text:00000000000007e8 .L0 
     /tmp/cc5eykcM.s:2346   .text:00000000000007ec .L0 
     /tmp/cc5eykcM.s:2349   .text:00000000000007f4 .L0 
     /tmp/cc5eykcM.s:2350   .text:00000000000007f4 .L0 
     /tmp/cc5eykcM.s:2352   .text:00000000000007f8 .L0 
     /tmp/cc5eykcM.s:2354   .text:00000000000007f8 .L0 
     /tmp/cc5eykcM.s:2355   .text:00000000000007f8 .L0 
     /tmp/cc5eykcM.s:2356   .text:00000000000007f8 .L0 
     /tmp/cc5eykcM.s:2362   .text:0000000000000810 .L0 
     /tmp/cc5eykcM.s:2363   .text:0000000000000810 .L0 
     /tmp/cc5eykcM.s:2367   .text:0000000000000820 .L0 
     /tmp/cc5eykcM.s:2368   .text:0000000000000820 .L0 
     /tmp/cc5eykcM.s:2374   .text:0000000000000838 .L0 
     /tmp/cc5eykcM.s:2375   .text:0000000000000838 .L0 
     /tmp/cc5eykcM.s:2379   .text:0000000000000848 .L0 
     /tmp/cc5eykcM.s:2380   .text:0000000000000848 .L0 
     /tmp/cc5eykcM.s:2386   .text:0000000000000860 .L0 
     /tmp/cc5eykcM.s:2387   .text:0000000000000860 .L0 
GAS LISTING /tmp/cc5eykcM.s 			page 185


     /tmp/cc5eykcM.s:2391   .text:0000000000000870 .L0 
     /tmp/cc5eykcM.s:2392   .text:0000000000000870 .L0 
     /tmp/cc5eykcM.s:2398   .text:0000000000000888 .L0 
     /tmp/cc5eykcM.s:2399   .text:0000000000000888 .L0 
     /tmp/cc5eykcM.s:2403   .text:0000000000000898 .L0 
     /tmp/cc5eykcM.s:2404   .text:0000000000000898 .L0 
     /tmp/cc5eykcM.s:2410   .text:00000000000008b0 .L0 
     /tmp/cc5eykcM.s:2411   .text:00000000000008b0 .L0 
     /tmp/cc5eykcM.s:2417   .text:00000000000008c4 .L0 
     /tmp/cc5eykcM.s:2418   .text:00000000000008c4 .L0 
     /tmp/cc5eykcM.s:2422   .text:00000000000008cc .L0 
     /tmp/cc5eykcM.s:2423   .text:00000000000008cc .L0 
     /tmp/cc5eykcM.s:2426   .text:00000000000008d8 .L0 
     /tmp/cc5eykcM.s:2429   .text:00000000000008e4 .L0 
     /tmp/cc5eykcM.s:2432   .text:00000000000008f0 .L0 
     /tmp/cc5eykcM.s:2435   .text:00000000000008fc .L0 
     /tmp/cc5eykcM.s:2438   .text:0000000000000908 .L0 
     /tmp/cc5eykcM.s:2439   .text:000000000000090c .L0 
     /tmp/cc5eykcM.s:2441   .text:0000000000000910 .L0 
     /tmp/cc5eykcM.s:2442   .text:0000000000000910 .L0 
     /tmp/cc5eykcM.s:2444   .text:0000000000000914 .L0 
     /tmp/cc5eykcM.s:2446   .text:0000000000000918 .L0 
     /tmp/cc5eykcM.s:2452   .text:0000000000000918 _ZN20Threads_CPP_API_test9fibonacciEm
     /tmp/cc5eykcM.s:2455   .text:0000000000000918 .L0 
     /tmp/cc5eykcM.s:2457   .text:0000000000000918 .L0 
     /tmp/cc5eykcM.s:2458   .text:000000000000091c .L0 
     /tmp/cc5eykcM.s:2463   .text:000000000000092c .L0 
     /tmp/cc5eykcM.s:2464   .text:000000000000092c .L0 
     /tmp/cc5eykcM.s:2465   .text:000000000000092c .L0 
     /tmp/cc5eykcM.s:2466   .text:000000000000092c .L0 
     /tmp/cc5eykcM.s:2468   .text:0000000000000930 .L0 
     /tmp/cc5eykcM.s:2471   .text:0000000000000934 .L0 
     /tmp/cc5eykcM.s:2474   .text:000000000000093c .L0 
     /tmp/cc5eykcM.s:2475   .text:000000000000093c .L0 
     /tmp/cc5eykcM.s:2478   .text:0000000000000944 .L0 
     /tmp/cc5eykcM.s:2482   .text:0000000000000948 .L0 
     /tmp/cc5eykcM.s:2483   .text:0000000000000948 .L0 
     /tmp/cc5eykcM.s:2488   .text:0000000000000958 .L0 
     /tmp/cc5eykcM.s:2492   .text:0000000000000964 .L0 
     /tmp/cc5eykcM.s:2495   .text:0000000000000968 .L0 
     /tmp/cc5eykcM.s:2496   .text:000000000000096c .L0 
     /tmp/cc5eykcM.s:2497   .text:000000000000096c .L0 
     /tmp/cc5eykcM.s:2499   .text:0000000000000970 .L0 
     /tmp/cc5eykcM.s:2500   .text:0000000000000970 .L0 
     /tmp/cc5eykcM.s:2502   .text:0000000000000974 .L0 
     /tmp/cc5eykcM.s:2505   .text:0000000000000978 .L0 
     /tmp/cc5eykcM.s:2507   .text:000000000000097c .L0 
     /tmp/cc5eykcM.s:2511   .text:0000000000000980 .L0 
     /tmp/cc5eykcM.s:2513   .text:0000000000000980 .L0 
     /tmp/cc5eykcM.s:2514   .text:0000000000000980 .L0 
     /tmp/cc5eykcM.s:2517   .text:000000000000098c .L0 
     /tmp/cc5eykcM.s:2523   .text:000000000000098c _ZN20Threads_CPP_API_test7WorkerA11workerBodyAEPv
     /tmp/cc5eykcM.s:2526   .text:000000000000098c .L0 
     /tmp/cc5eykcM.s:2528   .text:000000000000098c .L0 
     /tmp/cc5eykcM.s:2529   .text:0000000000000990 .L0 
     /tmp/cc5eykcM.s:2534   .text:00000000000009a0 .L0 
     /tmp/cc5eykcM.s:2535   .text:00000000000009a0 .L0 
GAS LISTING /tmp/cc5eykcM.s 			page 186


     /tmp/cc5eykcM.s:2536   .text:00000000000009a0 .L0 
     /tmp/cc5eykcM.s:2537   .text:00000000000009a0 .L0 
     /tmp/cc5eykcM.s:2539   .text:00000000000009a4 .L0 
     /tmp/cc5eykcM.s:2543   .text:00000000000009a4 .L0 
     /tmp/cc5eykcM.s:2544   .text:00000000000009a4 .L0 
     /tmp/cc5eykcM.s:2552   .text:00000000000009ac .L0 
     /tmp/cc5eykcM.s:2553   .text:00000000000009ac .L0 
     /tmp/cc5eykcM.s:2557   .text:00000000000009b4 .L0 
     /tmp/cc5eykcM.s:2561   .text:00000000000009b8 .L0 
     /tmp/cc5eykcM.s:2567   .text:00000000000009c4 .L0 
     /tmp/cc5eykcM.s:2571   .text:00000000000009c8 .L0 
     /tmp/cc5eykcM.s:2575   .text:00000000000009d4 .L0 
     /tmp/cc5eykcM.s:2585   .text:00000000000009dc .L0 
     /tmp/cc5eykcM.s:2589   .text:00000000000009e0 .L0 
     /tmp/cc5eykcM.s:2593   .text:00000000000009e8 .L0 
     /tmp/cc5eykcM.s:2594   .text:00000000000009e8 .L0 
     /tmp/cc5eykcM.s:2598   .text:00000000000009f8 .L0 
     /tmp/cc5eykcM.s:2599   .text:00000000000009f8 .L0 
     /tmp/cc5eykcM.s:2605   .text:0000000000000a0c .L0 
     /tmp/cc5eykcM.s:2606   .text:0000000000000a0c .L0 
     /tmp/cc5eykcM.s:2611   .text:0000000000000a1c .L0 
     /tmp/cc5eykcM.s:2612   .text:0000000000000a1c .L0 
     /tmp/cc5eykcM.s:2620   .text:0000000000000a24 .L0 
     /tmp/cc5eykcM.s:2621   .text:0000000000000a24 .L0 
     /tmp/cc5eykcM.s:2625   .text:0000000000000a34 .L0 
     /tmp/cc5eykcM.s:2626   .text:0000000000000a34 .L0 
     /tmp/cc5eykcM.s:2629   .text:0000000000000a40 .L0 
     /tmp/cc5eykcM.s:2630   .text:0000000000000a44 .L0 
     /tmp/cc5eykcM.s:2632   .text:0000000000000a48 .L0 
     /tmp/cc5eykcM.s:2633   .text:0000000000000a48 .L0 
     /tmp/cc5eykcM.s:2635   .text:0000000000000a4c .L0 
     /tmp/cc5eykcM.s:2637   .text:0000000000000a50 .L0 
     /tmp/cc5eykcM.s:2640   .text:0000000000000a54 .L0 
     /tmp/cc5eykcM.s:2642   .text:0000000000000a58 .L0 
     /tmp/cc5eykcM.s:2649   .text._ZN20Threads_CPP_API_test7WorkerA3runEv:0000000000000000 _ZN20Threads_CPP_API_test7WorkerA3runEv
     /tmp/cc5eykcM.s:2652   .text._ZN20Threads_CPP_API_test7WorkerA3runEv:0000000000000000 .L0 
     /tmp/cc5eykcM.s:2654   .text._ZN20Threads_CPP_API_test7WorkerA3runEv:0000000000000000 .L0 
     /tmp/cc5eykcM.s:2655   .text._ZN20Threads_CPP_API_test7WorkerA3runEv:0000000000000004 .L0 
     /tmp/cc5eykcM.s:2658   .text._ZN20Threads_CPP_API_test7WorkerA3runEv:000000000000000c .L0 
     /tmp/cc5eykcM.s:2659   .text._ZN20Threads_CPP_API_test7WorkerA3runEv:000000000000000c .L0 
     /tmp/cc5eykcM.s:2661   .text._ZN20Threads_CPP_API_test7WorkerA3runEv:0000000000000010 .L0 
     /tmp/cc5eykcM.s:2663   .text._ZN20Threads_CPP_API_test7WorkerA3runEv:0000000000000010 .L0 
     /tmp/cc5eykcM.s:2664   .text._ZN20Threads_CPP_API_test7WorkerA3runEv:0000000000000010 .L0 
     /tmp/cc5eykcM.s:2668   .text._ZN20Threads_CPP_API_test7WorkerA3runEv:000000000000001c .L0 
     /tmp/cc5eykcM.s:2669   .text._ZN20Threads_CPP_API_test7WorkerA3runEv:0000000000000020 .L0 
     /tmp/cc5eykcM.s:2671   .text._ZN20Threads_CPP_API_test7WorkerA3runEv:0000000000000024 .L0 
     /tmp/cc5eykcM.s:2672   .text._ZN20Threads_CPP_API_test7WorkerA3runEv:0000000000000024 .L0 
     /tmp/cc5eykcM.s:2674   .text._ZN20Threads_CPP_API_test7WorkerA3runEv:0000000000000028 .L0 
     /tmp/cc5eykcM.s:2676   .text._ZN20Threads_CPP_API_test7WorkerA3runEv:000000000000002c .L0 
     /tmp/cc5eykcM.s:2683   .text:0000000000000a58 _ZN20Threads_CPP_API_test7WorkerB11workerBodyBEPv
     /tmp/cc5eykcM.s:2686   .text:0000000000000a58 .L0 
     /tmp/cc5eykcM.s:2688   .text:0000000000000a58 .L0 
     /tmp/cc5eykcM.s:2689   .text:0000000000000a5c .L0 
     /tmp/cc5eykcM.s:2694   .text:0000000000000a6c .L0 
     /tmp/cc5eykcM.s:2695   .text:0000000000000a6c .L0 
     /tmp/cc5eykcM.s:2696   .text:0000000000000a6c .L0 
     /tmp/cc5eykcM.s:2697   .text:0000000000000a6c .L0 
GAS LISTING /tmp/cc5eykcM.s 			page 187


     /tmp/cc5eykcM.s:2699   .text:0000000000000a70 .L0 
     /tmp/cc5eykcM.s:2703   .text:0000000000000a70 .L0 
     /tmp/cc5eykcM.s:2704   .text:0000000000000a70 .L0 
     /tmp/cc5eykcM.s:2712   .text:0000000000000a78 .L0 
     /tmp/cc5eykcM.s:2713   .text:0000000000000a78 .L0 
     /tmp/cc5eykcM.s:2717   .text:0000000000000a80 .L0 
     /tmp/cc5eykcM.s:2721   .text:0000000000000a84 .L0 
     /tmp/cc5eykcM.s:2727   .text:0000000000000a90 .L0 
     /tmp/cc5eykcM.s:2731   .text:0000000000000a94 .L0 
     /tmp/cc5eykcM.s:2735   .text:0000000000000aa0 .L0 
     /tmp/cc5eykcM.s:2745   .text:0000000000000aa8 .L0 
     /tmp/cc5eykcM.s:2749   .text:0000000000000aac .L0 
     /tmp/cc5eykcM.s:2753   .text:0000000000000ab4 .L0 
     /tmp/cc5eykcM.s:2754   .text:0000000000000ab4 .L0 
     /tmp/cc5eykcM.s:2758   .text:0000000000000ac4 .L0 
     /tmp/cc5eykcM.s:2759   .text:0000000000000ac4 .L0 
     /tmp/cc5eykcM.s:2765   .text:0000000000000ad8 .L0 
     /tmp/cc5eykcM.s:2766   .text:0000000000000ad8 .L0 
     /tmp/cc5eykcM.s:2771   .text:0000000000000ae8 .L0 
     /tmp/cc5eykcM.s:2772   .text:0000000000000ae8 .L0 
     /tmp/cc5eykcM.s:2780   .text:0000000000000af0 .L0 
     /tmp/cc5eykcM.s:2781   .text:0000000000000af0 .L0 
     /tmp/cc5eykcM.s:2785   .text:0000000000000b00 .L0 
     /tmp/cc5eykcM.s:2786   .text:0000000000000b00 .L0 
     /tmp/cc5eykcM.s:2789   .text:0000000000000b0c .L0 
     /tmp/cc5eykcM.s:2790   .text:0000000000000b0c .L0 
     /tmp/cc5eykcM.s:2793   .text:0000000000000b14 .L0 
     /tmp/cc5eykcM.s:2794   .text:0000000000000b18 .L0 
     /tmp/cc5eykcM.s:2796   .text:0000000000000b1c .L0 
     /tmp/cc5eykcM.s:2797   .text:0000000000000b1c .L0 
     /tmp/cc5eykcM.s:2799   .text:0000000000000b20 .L0 
     /tmp/cc5eykcM.s:2801   .text:0000000000000b24 .L0 
     /tmp/cc5eykcM.s:2804   .text:0000000000000b28 .L0 
     /tmp/cc5eykcM.s:2806   .text:0000000000000b2c .L0 
     /tmp/cc5eykcM.s:2813   .text._ZN20Threads_CPP_API_test7WorkerB3runEv:0000000000000000 _ZN20Threads_CPP_API_test7WorkerB3runEv
     /tmp/cc5eykcM.s:2816   .text._ZN20Threads_CPP_API_test7WorkerB3runEv:0000000000000000 .L0 
     /tmp/cc5eykcM.s:2818   .text._ZN20Threads_CPP_API_test7WorkerB3runEv:0000000000000000 .L0 
     /tmp/cc5eykcM.s:2819   .text._ZN20Threads_CPP_API_test7WorkerB3runEv:0000000000000004 .L0 
     /tmp/cc5eykcM.s:2822   .text._ZN20Threads_CPP_API_test7WorkerB3runEv:000000000000000c .L0 
     /tmp/cc5eykcM.s:2823   .text._ZN20Threads_CPP_API_test7WorkerB3runEv:000000000000000c .L0 
     /tmp/cc5eykcM.s:2825   .text._ZN20Threads_CPP_API_test7WorkerB3runEv:0000000000000010 .L0 
     /tmp/cc5eykcM.s:2827   .text._ZN20Threads_CPP_API_test7WorkerB3runEv:0000000000000010 .L0 
     /tmp/cc5eykcM.s:2828   .text._ZN20Threads_CPP_API_test7WorkerB3runEv:0000000000000010 .L0 
     /tmp/cc5eykcM.s:2832   .text._ZN20Threads_CPP_API_test7WorkerB3runEv:000000000000001c .L0 
     /tmp/cc5eykcM.s:2833   .text._ZN20Threads_CPP_API_test7WorkerB3runEv:0000000000000020 .L0 
     /tmp/cc5eykcM.s:2835   .text._ZN20Threads_CPP_API_test7WorkerB3runEv:0000000000000024 .L0 
     /tmp/cc5eykcM.s:2836   .text._ZN20Threads_CPP_API_test7WorkerB3runEv:0000000000000024 .L0 
     /tmp/cc5eykcM.s:2838   .text._ZN20Threads_CPP_API_test7WorkerB3runEv:0000000000000028 .L0 
     /tmp/cc5eykcM.s:2840   .text._ZN20Threads_CPP_API_test7WorkerB3runEv:000000000000002c .L0 
     /tmp/cc5eykcM.s:2847   .text:0000000000000b2c _ZN20Threads_CPP_API_test7WorkerC11workerBodyCEPv
     /tmp/cc5eykcM.s:2850   .text:0000000000000b2c .L0 
     /tmp/cc5eykcM.s:2852   .text:0000000000000b2c .L0 
     /tmp/cc5eykcM.s:2853   .text:0000000000000b30 .L0 
     /tmp/cc5eykcM.s:2858   .text:0000000000000b40 .L0 
     /tmp/cc5eykcM.s:2859   .text:0000000000000b40 .L0 
     /tmp/cc5eykcM.s:2860   .text:0000000000000b40 .L0 
     /tmp/cc5eykcM.s:2861   .text:0000000000000b40 .L0 
GAS LISTING /tmp/cc5eykcM.s 			page 188


     /tmp/cc5eykcM.s:2863   .text:0000000000000b44 .L0 
     /tmp/cc5eykcM.s:2866   .text:0000000000000b44 .L0 
     /tmp/cc5eykcM.s:2867   .text:0000000000000b44 .L0 
     /tmp/cc5eykcM.s:2872   .text:0000000000000b4c .L0 
     /tmp/cc5eykcM.s:2873   .text:0000000000000b4c .L0 
     /tmp/cc5eykcM.s:2877   .text:0000000000000b5c .L0 
     /tmp/cc5eykcM.s:2878   .text:0000000000000b5c .L0 
     /tmp/cc5eykcM.s:2884   .text:0000000000000b70 .L0 
     /tmp/cc5eykcM.s:2885   .text:0000000000000b70 .L0 
     /tmp/cc5eykcM.s:2889   .text:0000000000000b80 .L0 
     /tmp/cc5eykcM.s:2895   .text:0000000000000b88 .L0 
     /tmp/cc5eykcM.s:2896   .text:0000000000000b88 .L0 
     /tmp/cc5eykcM.s:2899   .text:0000000000000b90 .L0 
     /tmp/cc5eykcM.s:2900   .text:0000000000000b90 .L0 
     /tmp/cc5eykcM.s:2904   .text:0000000000000ba0 .L0 
test/../test/Threads_CPP_API_test.hpp:93     .text:0000000000000ba0 .L0 
     /tmp/cc5eykcM.s:2910   .text:0000000000000ba4 .L0 
     /tmp/cc5eykcM.s:2912   .text:0000000000000ba4 .L0 
     /tmp/cc5eykcM.s:2915   .text:0000000000000bac .L0 
     /tmp/cc5eykcM.s:2916   .text:0000000000000bac .L0 
test/../test/Threads_CPP_API_test.hpp:97     .text:0000000000000bac .L0 
     /tmp/cc5eykcM.s:2923   .text:0000000000000bb0 .L0 
     /tmp/cc5eykcM.s:2925   .text:0000000000000bb0 .L0 
     /tmp/cc5eykcM.s:2929   .text:0000000000000bc0 .L0 
     /tmp/cc5eykcM.s:2930   .text:0000000000000bc0 .L0 
     /tmp/cc5eykcM.s:2936   .text:0000000000000bd4 .L0 
     /tmp/cc5eykcM.s:2937   .text:0000000000000bd4 .L0 
     /tmp/cc5eykcM.s:2941   .text:0000000000000be4 .L0 
     /tmp/cc5eykcM.s:2942   .text:0000000000000be4 .L0 
     /tmp/cc5eykcM.s:2948   .text:0000000000000bf4 .L0 
     /tmp/cc5eykcM.s:2949   .text:0000000000000bf4 .L0 
     /tmp/cc5eykcM.s:2954   .text:0000000000000c04 .L0 
     /tmp/cc5eykcM.s:2955   .text:0000000000000c04 .L0 
     /tmp/cc5eykcM.s:2961   .text:0000000000000c18 .L0 
     /tmp/cc5eykcM.s:2962   .text:0000000000000c18 .L0 
     /tmp/cc5eykcM.s:2968   .text:0000000000000c2c .L0 
     /tmp/cc5eykcM.s:2969   .text:0000000000000c2c .L0 
     /tmp/cc5eykcM.s:2973   .text:0000000000000c3c .L0 
     /tmp/cc5eykcM.s:2974   .text:0000000000000c3c .L0 
     /tmp/cc5eykcM.s:2980   .text:0000000000000c50 .L0 
     /tmp/cc5eykcM.s:2981   .text:0000000000000c50 .L0 
     /tmp/cc5eykcM.s:2985   .text:0000000000000c60 .L0 
     /tmp/cc5eykcM.s:2991   .text:0000000000000c68 .L0 
     /tmp/cc5eykcM.s:2992   .text:0000000000000c68 .L0 
     /tmp/cc5eykcM.s:2995   .text:0000000000000c70 .L0 
     /tmp/cc5eykcM.s:2996   .text:0000000000000c70 .L0 
     /tmp/cc5eykcM.s:3000   .text:0000000000000c80 .L0 
     /tmp/cc5eykcM.s:3001   .text:0000000000000c80 .L0 
     /tmp/cc5eykcM.s:3004   .text:0000000000000c8c .L0 
     /tmp/cc5eykcM.s:3005   .text:0000000000000c8c .L0 
     /tmp/cc5eykcM.s:3008   .text:0000000000000c94 .L0 
     /tmp/cc5eykcM.s:3009   .text:0000000000000c98 .L0 
     /tmp/cc5eykcM.s:3011   .text:0000000000000c9c .L0 
     /tmp/cc5eykcM.s:3012   .text:0000000000000c9c .L0 
     /tmp/cc5eykcM.s:3014   .text:0000000000000ca0 .L0 
     /tmp/cc5eykcM.s:3017   .text:0000000000000ca4 .L0 
     /tmp/cc5eykcM.s:3020   .text:0000000000000ca8 .L0 
GAS LISTING /tmp/cc5eykcM.s 			page 189


     /tmp/cc5eykcM.s:3022   .text:0000000000000cac .L0 
     /tmp/cc5eykcM.s:3029   .text._ZN20Threads_CPP_API_test7WorkerC3runEv:0000000000000000 _ZN20Threads_CPP_API_test7WorkerC3runEv
     /tmp/cc5eykcM.s:3032   .text._ZN20Threads_CPP_API_test7WorkerC3runEv:0000000000000000 .L0 
     /tmp/cc5eykcM.s:3034   .text._ZN20Threads_CPP_API_test7WorkerC3runEv:0000000000000000 .L0 
     /tmp/cc5eykcM.s:3035   .text._ZN20Threads_CPP_API_test7WorkerC3runEv:0000000000000004 .L0 
     /tmp/cc5eykcM.s:3038   .text._ZN20Threads_CPP_API_test7WorkerC3runEv:000000000000000c .L0 
     /tmp/cc5eykcM.s:3039   .text._ZN20Threads_CPP_API_test7WorkerC3runEv:000000000000000c .L0 
     /tmp/cc5eykcM.s:3041   .text._ZN20Threads_CPP_API_test7WorkerC3runEv:0000000000000010 .L0 
     /tmp/cc5eykcM.s:3043   .text._ZN20Threads_CPP_API_test7WorkerC3runEv:0000000000000010 .L0 
     /tmp/cc5eykcM.s:3044   .text._ZN20Threads_CPP_API_test7WorkerC3runEv:0000000000000010 .L0 
     /tmp/cc5eykcM.s:3048   .text._ZN20Threads_CPP_API_test7WorkerC3runEv:000000000000001c .L0 
     /tmp/cc5eykcM.s:3049   .text._ZN20Threads_CPP_API_test7WorkerC3runEv:0000000000000020 .L0 
     /tmp/cc5eykcM.s:3051   .text._ZN20Threads_CPP_API_test7WorkerC3runEv:0000000000000024 .L0 
     /tmp/cc5eykcM.s:3052   .text._ZN20Threads_CPP_API_test7WorkerC3runEv:0000000000000024 .L0 
     /tmp/cc5eykcM.s:3054   .text._ZN20Threads_CPP_API_test7WorkerC3runEv:0000000000000028 .L0 
     /tmp/cc5eykcM.s:3056   .text._ZN20Threads_CPP_API_test7WorkerC3runEv:000000000000002c .L0 
     /tmp/cc5eykcM.s:3063   .text:0000000000000cac _ZN20Threads_CPP_API_test7WorkerD11workerBodyDEPv
     /tmp/cc5eykcM.s:3066   .text:0000000000000cac .L0 
     /tmp/cc5eykcM.s:3068   .text:0000000000000cac .L0 
     /tmp/cc5eykcM.s:3069   .text:0000000000000cb0 .L0 
     /tmp/cc5eykcM.s:3074   .text:0000000000000cc0 .L0 
     /tmp/cc5eykcM.s:3075   .text:0000000000000cc0 .L0 
     /tmp/cc5eykcM.s:3076   .text:0000000000000cc0 .L0 
     /tmp/cc5eykcM.s:3077   .text:0000000000000cc0 .L0 
     /tmp/cc5eykcM.s:3079   .text:0000000000000cc4 .L0 
     /tmp/cc5eykcM.s:3082   .text:0000000000000cc4 .L0 
     /tmp/cc5eykcM.s:3083   .text:0000000000000cc4 .L0 
     /tmp/cc5eykcM.s:3088   .text:0000000000000ccc .L0 
     /tmp/cc5eykcM.s:3089   .text:0000000000000ccc .L0 
     /tmp/cc5eykcM.s:3093   .text:0000000000000cdc .L0 
     /tmp/cc5eykcM.s:3094   .text:0000000000000cdc .L0 
     /tmp/cc5eykcM.s:3100   .text:0000000000000cf0 .L0 
     /tmp/cc5eykcM.s:3101   .text:0000000000000cf0 .L0 
     /tmp/cc5eykcM.s:3105   .text:0000000000000d00 .L0 
     /tmp/cc5eykcM.s:3111   .text:0000000000000d08 .L0 
     /tmp/cc5eykcM.s:3112   .text:0000000000000d08 .L0 
     /tmp/cc5eykcM.s:3115   .text:0000000000000d10 .L0 
     /tmp/cc5eykcM.s:3116   .text:0000000000000d10 .L0 
     /tmp/cc5eykcM.s:3120   .text:0000000000000d20 .L0 
test/../test/Threads_CPP_API_test.hpp:120    .text:0000000000000d20 .L0 
     /tmp/cc5eykcM.s:3126   .text:0000000000000d24 .L0 
     /tmp/cc5eykcM.s:3128   .text:0000000000000d24 .L0 
     /tmp/cc5eykcM.s:3131   .text:0000000000000d2c .L0 
     /tmp/cc5eykcM.s:3132   .text:0000000000000d2c .L0 
     /tmp/cc5eykcM.s:3138   .text:0000000000000d3c .L0 
     /tmp/cc5eykcM.s:3139   .text:0000000000000d3c .L0 
     /tmp/cc5eykcM.s:3144   .text:0000000000000d4c .L0 
     /tmp/cc5eykcM.s:3145   .text:0000000000000d4c .L0 
     /tmp/cc5eykcM.s:3151   .text:0000000000000d60 .L0 
     /tmp/cc5eykcM.s:3152   .text:0000000000000d60 .L0 
     /tmp/cc5eykcM.s:3158   .text:0000000000000d74 .L0 
     /tmp/cc5eykcM.s:3159   .text:0000000000000d74 .L0 
     /tmp/cc5eykcM.s:3163   .text:0000000000000d84 .L0 
     /tmp/cc5eykcM.s:3164   .text:0000000000000d84 .L0 
     /tmp/cc5eykcM.s:3170   .text:0000000000000d98 .L0 
     /tmp/cc5eykcM.s:3171   .text:0000000000000d98 .L0 
     /tmp/cc5eykcM.s:3175   .text:0000000000000da8 .L0 
GAS LISTING /tmp/cc5eykcM.s 			page 190


     /tmp/cc5eykcM.s:3181   .text:0000000000000db0 .L0 
     /tmp/cc5eykcM.s:3182   .text:0000000000000db0 .L0 
     /tmp/cc5eykcM.s:3185   .text:0000000000000db8 .L0 
     /tmp/cc5eykcM.s:3186   .text:0000000000000db8 .L0 
     /tmp/cc5eykcM.s:3190   .text:0000000000000dc8 .L0 
     /tmp/cc5eykcM.s:3191   .text:0000000000000dc8 .L0 
     /tmp/cc5eykcM.s:3194   .text:0000000000000dd4 .L0 
     /tmp/cc5eykcM.s:3195   .text:0000000000000dd4 .L0 
     /tmp/cc5eykcM.s:3198   .text:0000000000000ddc .L0 
     /tmp/cc5eykcM.s:3199   .text:0000000000000de0 .L0 
     /tmp/cc5eykcM.s:3201   .text:0000000000000de4 .L0 
     /tmp/cc5eykcM.s:3202   .text:0000000000000de4 .L0 
     /tmp/cc5eykcM.s:3204   .text:0000000000000de8 .L0 
     /tmp/cc5eykcM.s:3207   .text:0000000000000dec .L0 
     /tmp/cc5eykcM.s:3210   .text:0000000000000df0 .L0 
     /tmp/cc5eykcM.s:3212   .text:0000000000000df4 .L0 
     /tmp/cc5eykcM.s:3219   .text._ZN20Threads_CPP_API_test7WorkerD3runEv:0000000000000000 _ZN20Threads_CPP_API_test7WorkerD3runEv
     /tmp/cc5eykcM.s:3222   .text._ZN20Threads_CPP_API_test7WorkerD3runEv:0000000000000000 .L0 
     /tmp/cc5eykcM.s:3224   .text._ZN20Threads_CPP_API_test7WorkerD3runEv:0000000000000000 .L0 
     /tmp/cc5eykcM.s:3225   .text._ZN20Threads_CPP_API_test7WorkerD3runEv:0000000000000004 .L0 
     /tmp/cc5eykcM.s:3228   .text._ZN20Threads_CPP_API_test7WorkerD3runEv:000000000000000c .L0 
     /tmp/cc5eykcM.s:3229   .text._ZN20Threads_CPP_API_test7WorkerD3runEv:000000000000000c .L0 
     /tmp/cc5eykcM.s:3231   .text._ZN20Threads_CPP_API_test7WorkerD3runEv:0000000000000010 .L0 
     /tmp/cc5eykcM.s:3233   .text._ZN20Threads_CPP_API_test7WorkerD3runEv:0000000000000010 .L0 
     /tmp/cc5eykcM.s:3234   .text._ZN20Threads_CPP_API_test7WorkerD3runEv:0000000000000010 .L0 
     /tmp/cc5eykcM.s:3238   .text._ZN20Threads_CPP_API_test7WorkerD3runEv:000000000000001c .L0 
     /tmp/cc5eykcM.s:3239   .text._ZN20Threads_CPP_API_test7WorkerD3runEv:0000000000000020 .L0 
     /tmp/cc5eykcM.s:3241   .text._ZN20Threads_CPP_API_test7WorkerD3runEv:0000000000000024 .L0 
     /tmp/cc5eykcM.s:3242   .text._ZN20Threads_CPP_API_test7WorkerD3runEv:0000000000000024 .L0 
     /tmp/cc5eykcM.s:3244   .text._ZN20Threads_CPP_API_test7WorkerD3runEv:0000000000000028 .L0 
     /tmp/cc5eykcM.s:3246   .text._ZN20Threads_CPP_API_test7WorkerD3runEv:000000000000002c .L0 
     /tmp/cc5eykcM.s:3253   .text:0000000000000df4 _ZN20Threads_CPP_API_test20Threads_CPP_API_testEv
     /tmp/cc5eykcM.s:3256   .text:0000000000000df4 .L0 
     /tmp/cc5eykcM.s:21351  .data.rel.local.DW.ref.__gxx_personality_v0:0000000000000000 DW.ref.__gxx_personality_v0
     /tmp/cc5eykcM.s:3259   .text:0000000000000df4 .L0 
     /tmp/cc5eykcM.s:3260   .text:0000000000000df8 .L0 
     /tmp/cc5eykcM.s:3265   .text:0000000000000e08 .L0 
     /tmp/cc5eykcM.s:3266   .text:0000000000000e08 .L0 
     /tmp/cc5eykcM.s:3267   .text:0000000000000e08 .L0 
     /tmp/cc5eykcM.s:3268   .text:0000000000000e08 .L0 
     /tmp/cc5eykcM.s:3270   .text:0000000000000e0c .L0 
     /tmp/cc5eykcM.s:3272   .text:0000000000000e0c .L0 
     /tmp/cc5eykcM.s:3273   .text:0000000000000e0c .L0 
     /tmp/cc5eykcM.s:3274   .text:0000000000000e0c .L0 
     /tmp/cc5eykcM.s:3281   .text:0000000000000e1c .L0 
     /tmp/cc5eykcM.s:3287   .text:0000000000000e20 .L0 
     /tmp/cc5eykcM.s:3297   .text:0000000000000e34 .L0 
     /tmp/cc5eykcM.s:3299   .text:0000000000000e38 .L0 
     /tmp/cc5eykcM.s:3300   .text:0000000000000e38 .L0 
     /tmp/cc5eykcM.s:3305   .text:0000000000000e48 .L0 
     /tmp/cc5eykcM.s:3306   .text:0000000000000e48 .L0 
     /tmp/cc5eykcM.s:3312   .text:0000000000000e58 .L0 
     /tmp/cc5eykcM.s:3318   .text:0000000000000e5c .L0 
     /tmp/cc5eykcM.s:3328   .text:0000000000000e70 .L0 
     /tmp/cc5eykcM.s:3330   .text:0000000000000e74 .L0 
     /tmp/cc5eykcM.s:3331   .text:0000000000000e74 .L0 
     /tmp/cc5eykcM.s:3336   .text:0000000000000e84 .L0 
GAS LISTING /tmp/cc5eykcM.s 			page 191


     /tmp/cc5eykcM.s:3337   .text:0000000000000e84 .L0 
     /tmp/cc5eykcM.s:3343   .text:0000000000000e94 .L0 
     /tmp/cc5eykcM.s:3349   .text:0000000000000e98 .L0 
     /tmp/cc5eykcM.s:3359   .text:0000000000000eac .L0 
     /tmp/cc5eykcM.s:3361   .text:0000000000000eb0 .L0 
     /tmp/cc5eykcM.s:3362   .text:0000000000000eb0 .L0 
     /tmp/cc5eykcM.s:3367   .text:0000000000000ec0 .L0 
     /tmp/cc5eykcM.s:3368   .text:0000000000000ec0 .L0 
     /tmp/cc5eykcM.s:3374   .text:0000000000000ed0 .L0 
     /tmp/cc5eykcM.s:3380   .text:0000000000000ed4 .L0 
     /tmp/cc5eykcM.s:3390   .text:0000000000000ee8 .L0 
     /tmp/cc5eykcM.s:3392   .text:0000000000000eec .L0 
     /tmp/cc5eykcM.s:3393   .text:0000000000000eec .L0 
     /tmp/cc5eykcM.s:3399   .text:0000000000000efc .L0 
     /tmp/cc5eykcM.s:3403   .text:0000000000000f00 .L0 
     /tmp/cc5eykcM.s:3406   .text:0000000000000f08 .L0 
     /tmp/cc5eykcM.s:3407   .text:0000000000000f08 .L0 
     /tmp/cc5eykcM.s:3411   .text:0000000000000f14 .L0 
     /tmp/cc5eykcM.s:3415   .text:0000000000000f20 .L0 
     /tmp/cc5eykcM.s:3422   .text:0000000000000f28 .L0 
     /tmp/cc5eykcM.s:3423   .text:0000000000000f28 .L0 
     /tmp/cc5eykcM.s:3428   .text:0000000000000f30 .L0 
     /tmp/cc5eykcM.s:3429   .text:0000000000000f30 .L0 
     /tmp/cc5eykcM.s:3432   .text:0000000000000f3c .L0 
     /tmp/cc5eykcM.s:3435   .text:0000000000000f48 .L0 
     /tmp/cc5eykcM.s:3438   .text:0000000000000f54 .L0 
     /tmp/cc5eykcM.s:3442   .text:0000000000000f60 .L0 
     /tmp/cc5eykcM.s:3448   .text:0000000000000f68 .L0 
     /tmp/cc5eykcM.s:3452   .text:0000000000000f6c .L0 
     /tmp/cc5eykcM.s:3455   .text:0000000000000f74 .L0 
     /tmp/cc5eykcM.s:3458   .text:0000000000000f78 .L0 
     /tmp/cc5eykcM.s:3459   .text:0000000000000f78 .L0 
     /tmp/cc5eykcM.s:3461   .text:0000000000000f7c .L0 
     /tmp/cc5eykcM.s:3471   .text:0000000000000f90 .L0 
     /tmp/cc5eykcM.s:3482   .text:0000000000000fac .L0 
     /tmp/cc5eykcM.s:3493   .text:0000000000000fc8 .L0 
     /tmp/cc5eykcM.s:3504   .text:0000000000000fe4 .L0 
     /tmp/cc5eykcM.s:3514   .text:0000000000000ffc .L0 
     /tmp/cc5eykcM.s:3515   .text:0000000000001000 .L0 
     /tmp/cc5eykcM.s:3517   .text:0000000000001004 .L0 
     /tmp/cc5eykcM.s:3518   .text:0000000000001004 .L0 
     /tmp/cc5eykcM.s:3520   .text:0000000000001008 .L0 
     /tmp/cc5eykcM.s:3523   .text:000000000000100c .L0 
     /tmp/cc5eykcM.s:3525   .text:0000000000001010 .L0 
     /tmp/cc5eykcM.s:3527   .text:0000000000001014 .L0 
     /tmp/cc5eykcM.s:3594   .text._ZN6BufferdlEPv:0000000000000000 _ZN6BufferdlEPv
     /tmp/cc5eykcM.s:3598   .text._ZN6BufferdlEPv:0000000000000000 .L0 
     /tmp/cc5eykcM.s:3602   .text._ZN6BufferdlEPv:0000000000000000 .L0 
     /tmp/cc5eykcM.s:3603   .text._ZN6BufferdlEPv:0000000000000004 .L0 
     /tmp/cc5eykcM.s:3606   .text._ZN6BufferdlEPv:000000000000000c .L0 
     /tmp/cc5eykcM.s:3607   .text._ZN6BufferdlEPv:000000000000000c .L0 
     /tmp/cc5eykcM.s:3609   .text._ZN6BufferdlEPv:0000000000000010 .L0 
     /tmp/cc5eykcM.s:3615   .text._ZN6BufferdlEPv:0000000000000014 .L0 
     /tmp/cc5eykcM.s:3616   .text._ZN6BufferdlEPv:0000000000000014 .L0 
     /tmp/cc5eykcM.s:6911   .bss._ZGVZN15MemoryAllocator11getInstanceEvE8instance:0000000000000000 _ZGVZN15MemoryAllocator11getInstanceEvE8instance
     /tmp/cc5eykcM.s:3617   .text._ZN6BufferdlEPv:0000000000000014 .L0 
     /tmp/cc5eykcM.s:3623   .text._ZN6BufferdlEPv:0000000000000020 .L0 
GAS LISTING /tmp/cc5eykcM.s 			page 192


     /tmp/cc5eykcM.s:6918   .bss._ZZN15MemoryAllocator11getInstanceEvE8instance:0000000000000000 _ZZN15MemoryAllocator11getInstanceEvE8instance
     /tmp/cc5eykcM.s:3624   .text._ZN6BufferdlEPv:0000000000000020 .L0 
     /tmp/cc5eykcM.s:3629   .text._ZN6BufferdlEPv:0000000000000030 .L0 
     /tmp/cc5eykcM.s:3630   .text._ZN6BufferdlEPv:0000000000000034 .L0 
     /tmp/cc5eykcM.s:3631   .text._ZN6BufferdlEPv:0000000000000034 .L0 
     /tmp/cc5eykcM.s:3633   .text._ZN6BufferdlEPv:0000000000000038 .L0 
     /tmp/cc5eykcM.s:3634   .text._ZN6BufferdlEPv:0000000000000038 .L0 
     /tmp/cc5eykcM.s:3636   .text._ZN6BufferdlEPv:000000000000003c .L0 
     /tmp/cc5eykcM.s:3640   .text._ZN6BufferdlEPv:0000000000000040 .L0 
     /tmp/cc5eykcM.s:3647   .text._ZN6BufferdlEPv:0000000000000040 .L0 
     /tmp/cc5eykcM.s:3650   .text._ZN6BufferdlEPv:0000000000000048 .L0 
     /tmp/cc5eykcM.s:3651   .text._ZN6BufferdlEPv:0000000000000048 .L0 
     /tmp/cc5eykcM.s:3657   .text._ZN6BufferdlEPv:0000000000000064 .L0 
     /tmp/cc5eykcM.s:3659   .text._ZN6BufferdlEPv:0000000000000068 .L0 
     /tmp/cc5eykcM.s:3661   .text._ZN6BufferdlEPv:000000000000006c .L0 
     /tmp/cc5eykcM.s:3663   .text._ZN6BufferdlEPv:0000000000000070 .L0 
     /tmp/cc5eykcM.s:3665   .text._ZN6BufferdlEPv:0000000000000074 .L0 
     /tmp/cc5eykcM.s:3666   .text._ZN6BufferdlEPv:0000000000000074 .L0 
     /tmp/cc5eykcM.s:3668   .text._ZN6BufferdlEPv:0000000000000078 .L0 
     /tmp/cc5eykcM.s:3670   .text._ZN6BufferdlEPv:000000000000007c .L0 
     /tmp/cc5eykcM.s:3671   .text._ZN6BufferdlEPv:000000000000007c .L0 
     /tmp/cc5eykcM.s:3673   .text._ZN6BufferdlEPv:0000000000000080 .L0 
     /tmp/cc5eykcM.s:3678   .text._ZN6BufferdlEPv:000000000000008c .L0 
     /tmp/cc5eykcM.s:3680   .text._ZN6BufferdlEPv:0000000000000090 .L0 
     /tmp/cc5eykcM.s:3682   .text._ZN6BufferdlEPv:0000000000000098 .L0 
     /tmp/cc5eykcM.s:3683   .text._ZN6BufferdlEPv:0000000000000098 .L0 
     /tmp/cc5eykcM.s:3685   .text._ZN6BufferdlEPv:000000000000009c .L0 
     /tmp/cc5eykcM.s:3688   .text._ZN6BufferdlEPv:00000000000000a0 .L0 
     /tmp/cc5eykcM.s:3689   .text._ZN6BufferdlEPv:00000000000000a0 .L0 
     /tmp/cc5eykcM.s:3691   .text._ZN6BufferdlEPv:00000000000000a4 .L0 
     /tmp/cc5eykcM.s:3692   .text._ZN6BufferdlEPv:00000000000000a4 .L0 
     /tmp/cc5eykcM.s:3694   .text._ZN6BufferdlEPv:00000000000000a8 .L0 
     /tmp/cc5eykcM.s:3695   .text._ZN6BufferdlEPv:00000000000000a8 .L0 
     /tmp/cc5eykcM.s:3702   .text._ZN6BufferdlEPv:00000000000000ac .L0 
     /tmp/cc5eykcM.s:3707   .text._ZN6BufferdlEPv:00000000000000bc .L0 
     /tmp/cc5eykcM.s:3743   .text:0000000000001014 _ZN27ConsumerProducer_C_API_test22producerConsumer_C_APIEv
     /tmp/cc5eykcM.s:3746   .text:0000000000001014 .L0 
     /tmp/cc5eykcM.s:3749   .text:0000000000001014 .L0 
     /tmp/cc5eykcM.s:3750   .text:0000000000001018 .L0 
     /tmp/cc5eykcM.s:3759   .text:0000000000001038 .L0 
     /tmp/cc5eykcM.s:3760   .text:0000000000001038 .L0 
     /tmp/cc5eykcM.s:3761   .text:0000000000001038 .L0 
     /tmp/cc5eykcM.s:3762   .text:0000000000001038 .L0 
     /tmp/cc5eykcM.s:3763   .text:0000000000001038 .L0 
     /tmp/cc5eykcM.s:3764   .text:0000000000001038 .L0 
     /tmp/cc5eykcM.s:3765   .text:0000000000001038 .L0 
     /tmp/cc5eykcM.s:3766   .text:0000000000001038 .L0 
     /tmp/cc5eykcM.s:3768   .text:000000000000103c .L0 
     /tmp/cc5eykcM.s:3770   .text:000000000000103c .L0 
     /tmp/cc5eykcM.s:3772   .text:0000000000001040 .L0 
     /tmp/cc5eykcM.s:3773   .text:0000000000001040 .L0 
     /tmp/cc5eykcM.s:3774   .text:0000000000001040 .L0 
     /tmp/cc5eykcM.s:3775   .text:0000000000001040 .L0 
     /tmp/cc5eykcM.s:3780   .text:0000000000001050 .L0 
     /tmp/cc5eykcM.s:3781   .text:0000000000001050 .L0 
     /tmp/cc5eykcM.s:3787   .text:0000000000001064 .L0 
     /tmp/cc5eykcM.s:3788   .text:0000000000001064 .L0 
GAS LISTING /tmp/cc5eykcM.s 			page 193


     /tmp/cc5eykcM.s:3794   .text:0000000000001074 .L0 
     /tmp/cc5eykcM.s:3795   .text:0000000000001074 .L0 
     /tmp/cc5eykcM.s:3799   .text:0000000000001084 .L0 
     /tmp/cc5eykcM.s:3800   .text:0000000000001084 .L0 
     /tmp/cc5eykcM.s:3805   .text:0000000000001094 .L0 
     /tmp/cc5eykcM.s:3806   .text:0000000000001094 .L0 
     /tmp/cc5eykcM.s:3812   .text:00000000000010a4 .L0 
     /tmp/cc5eykcM.s:3813   .text:00000000000010a4 .L0 
     /tmp/cc5eykcM.s:3817   .text:00000000000010b4 .L0 
     /tmp/cc5eykcM.s:3818   .text:00000000000010b4 .L0 
     /tmp/cc5eykcM.s:3824   .text:00000000000010c8 .L0 
     /tmp/cc5eykcM.s:3825   .text:00000000000010c8 .L0 
     /tmp/cc5eykcM.s:3829   .text:00000000000010d8 .L0 
     /tmp/cc5eykcM.s:3830   .text:00000000000010d8 .L0 
     /tmp/cc5eykcM.s:3836   .text:00000000000010ec .L0 
     /tmp/cc5eykcM.s:3837   .text:00000000000010ec .L0 
     /tmp/cc5eykcM.s:3841   .text:00000000000010fc .L0 
     /tmp/cc5eykcM.s:3843   .text:0000000000001100 .L0 
     /tmp/cc5eykcM.s:3848   .text:0000000000001104 .L0 
     /tmp/cc5eykcM.s:3849   .text:0000000000001104 .L0 
     /tmp/cc5eykcM.s:3852   .text:0000000000001104 .L0 
     /tmp/cc5eykcM.s:3853   .text:0000000000001104 .L0 
     /tmp/cc5eykcM.s:3854   .text:0000000000001104 .L0 
     /tmp/cc5eykcM.s:3860   .text:0000000000001110 .L0 
     /tmp/cc5eykcM.s:3861   .text:0000000000001110 .L0 
     /tmp/cc5eykcM.s:3871   .text:0000000000001128 .L0 
     /tmp/cc5eykcM.s:3873   .text:000000000000112c .L0 
     /tmp/cc5eykcM.s:3881   .text:000000000000113c .L0 
     /tmp/cc5eykcM.s:3882   .text:000000000000113c .L0 
     /tmp/cc5eykcM.s:3887   .text:000000000000114c .L0 
     /tmp/cc5eykcM.s:3890   .text:0000000000001150 .L0 
     /tmp/cc5eykcM.s:3891   .text:0000000000001150 .L0 
     /tmp/cc5eykcM.s:3896   .text:0000000000001160 .L0 
     /tmp/cc5eykcM.s:3908   .text:0000000000001168 .L0 
     /tmp/cc5eykcM.s:3911   .text:0000000000001170 .L0 
     /tmp/cc5eykcM.s:3912   .text:0000000000001170 .L0 
     /tmp/cc5eykcM.s:3918   .text:000000000000118c .L0 
     /tmp/cc5eykcM.s:3920   .text:0000000000001190 .L0 
     /tmp/cc5eykcM.s:3922   .text:0000000000001194 .L0 
     /tmp/cc5eykcM.s:3924   .text:0000000000001198 .L0 
     /tmp/cc5eykcM.s:3926   .text:000000000000119c .L0 
     /tmp/cc5eykcM.s:3927   .text:000000000000119c .L0 
     /tmp/cc5eykcM.s:3929   .text:00000000000011a0 .L0 
     /tmp/cc5eykcM.s:3931   .text:00000000000011a4 .L0 
     /tmp/cc5eykcM.s:3932   .text:00000000000011a4 .L0 
     /tmp/cc5eykcM.s:3934   .text:00000000000011a8 .L0 
     /tmp/cc5eykcM.s:3939   .text:00000000000011b4 .L0 
     /tmp/cc5eykcM.s:3941   .text:00000000000011b8 .L0 
     /tmp/cc5eykcM.s:3943   .text:00000000000011c0 .L0 
     /tmp/cc5eykcM.s:3944   .text:00000000000011c0 .L0 
     /tmp/cc5eykcM.s:3946   .text:00000000000011c4 .L0 
     /tmp/cc5eykcM.s:3949   .text:00000000000011c8 .L0 
     /tmp/cc5eykcM.s:3950   .text:00000000000011c8 .L0 
     /tmp/cc5eykcM.s:3952   .text:00000000000011cc .L0 
     /tmp/cc5eykcM.s:3953   .text:00000000000011cc .L0 
     /tmp/cc5eykcM.s:3955   .text:00000000000011d0 .L0 
     /tmp/cc5eykcM.s:3956   .text:00000000000011d0 .L0 
GAS LISTING /tmp/cc5eykcM.s 			page 194


     /tmp/cc5eykcM.s:3963   .text:00000000000011d4 .L0 
     /tmp/cc5eykcM.s:3973   .text:00000000000011e4 .L0 
     /tmp/cc5eykcM.s:3974   .text:00000000000011e4 .L0 
     /tmp/cc5eykcM.s:3979   .text:00000000000011f8 .L0 
     /tmp/cc5eykcM.s:3980   .text:00000000000011f8 .L0 
     /tmp/cc5eykcM.s:3987   .text:000000000000120c .L0 
     /tmp/cc5eykcM.s:3988   .text:000000000000120c .L0 
     /tmp/cc5eykcM.s:3989   .text:000000000000120c .L0 
     /tmp/cc5eykcM.s:3992   .text:0000000000001210 .L0 
     /tmp/cc5eykcM.s:4002   .text:000000000000122c .L0 
     /tmp/cc5eykcM.s:4003   .text:000000000000122c .L0 
     /tmp/cc5eykcM.s:4009   .text:0000000000001240 .L0 
     /tmp/cc5eykcM.s:4010   .text:0000000000001240 .L0 
     /tmp/cc5eykcM.s:4012   .text:0000000000001244 .L0 
     /tmp/cc5eykcM.s:4013   .text:0000000000001244 .L0 
     /tmp/cc5eykcM.s:4016   .text:0000000000001250 .L0 
     /tmp/cc5eykcM.s:4017   .text:0000000000001250 .L0 
     /tmp/cc5eykcM.s:4024   .text:0000000000001268 .L0 
     /tmp/cc5eykcM.s:4030   .text:0000000000001270 .L0 
     /tmp/cc5eykcM.s:4033   .text:0000000000001278 .L0 
     /tmp/cc5eykcM.s:4037   .text:0000000000001284 .L0 
     /tmp/cc5eykcM.s:4041   .text:0000000000001290 .L0 
     /tmp/cc5eykcM.s:4045   .text:0000000000001294 .L0 
     /tmp/cc5eykcM.s:4047   .text:0000000000001298 .L0 
     /tmp/cc5eykcM.s:4048   .text:0000000000001298 .L0 
     /tmp/cc5eykcM.s:4054   .text:00000000000012ac .L0 
     /tmp/cc5eykcM.s:4055   .text:00000000000012ac .L0 
     /tmp/cc5eykcM.s:4057   .text:00000000000012b0 .L0 
     /tmp/cc5eykcM.s:4058   .text:00000000000012b0 .L0 
     /tmp/cc5eykcM.s:4061   .text:00000000000012bc .L0 
     /tmp/cc5eykcM.s:4062   .text:00000000000012bc .L0 
     /tmp/cc5eykcM.s:4064   .text:00000000000012c0 .L0 
     /tmp/cc5eykcM.s:4066   .text:00000000000012c4 .L0 
     /tmp/cc5eykcM.s:4073   .text:00000000000012d8 .L0 
     /tmp/cc5eykcM.s:4074   .text:00000000000012d8 .L0 
     /tmp/cc5eykcM.s:4078   .text:00000000000012e0 .L0 
     /tmp/cc5eykcM.s:4082   .text:00000000000012e4 .L0 
     /tmp/cc5eykcM.s:4084   .text:00000000000012e8 .L0 
     /tmp/cc5eykcM.s:4085   .text:00000000000012e8 .L0 
     /tmp/cc5eykcM.s:4089   .text:00000000000012f8 .L0 
     /tmp/cc5eykcM.s:4096   .text:0000000000001300 .L0 
     /tmp/cc5eykcM.s:4097   .text:0000000000001300 .L0 
     /tmp/cc5eykcM.s:4102   .text:0000000000001310 .L0 
     /tmp/cc5eykcM.s:4103   .text:0000000000001310 .L0 
     /tmp/cc5eykcM.s:4105   .text:0000000000001314 .L0 
     /tmp/cc5eykcM.s:4113   .text:0000000000001320 .L0 
     /tmp/cc5eykcM.s:4114   .text:0000000000001320 .L0 
     /tmp/cc5eykcM.s:4115   .text:0000000000001320 .L0 
     /tmp/cc5eykcM.s:4121   .text:000000000000132c .L0 
     /tmp/cc5eykcM.s:4122   .text:000000000000132c .L0 
     /tmp/cc5eykcM.s:4133   .text:0000000000001344 .L0 
     /tmp/cc5eykcM.s:4134   .text:0000000000001348 .L0 
     /tmp/cc5eykcM.s:4135   .text:0000000000001348 .L0 
     /tmp/cc5eykcM.s:4137   .text:000000000000134c .L0 
     /tmp/cc5eykcM.s:4139   .text:0000000000001350 .L0 
     /tmp/cc5eykcM.s:4141   .text:0000000000001354 .L0 
     /tmp/cc5eykcM.s:4143   .text:0000000000001358 .L0 
GAS LISTING /tmp/cc5eykcM.s 			page 195


     /tmp/cc5eykcM.s:4146   .text:000000000000135c .L0 
     /tmp/cc5eykcM.s:4148   .text:0000000000001360 .L0 
     /tmp/cc5eykcM.s:4150   .text:0000000000001364 .L0 
     /tmp/cc5eykcM.s:4152   .text:0000000000001368 .L0 
     /tmp/cc5eykcM.s:4154   .text:000000000000136c .L0 
     /tmp/cc5eykcM.s:4158   .text:0000000000001370 .L0 
     /tmp/cc5eykcM.s:4167   .text:0000000000001370 .L0 
     /tmp/cc5eykcM.s:4170   .text:0000000000001378 .L0 
     /tmp/cc5eykcM.s:4171   .text:0000000000001378 .L0 
     /tmp/cc5eykcM.s:4177   .text:0000000000001394 .L0 
     /tmp/cc5eykcM.s:4179   .text:0000000000001398 .L0 
     /tmp/cc5eykcM.s:4181   .text:000000000000139c .L0 
     /tmp/cc5eykcM.s:4183   .text:00000000000013a0 .L0 
     /tmp/cc5eykcM.s:4185   .text:00000000000013a4 .L0 
     /tmp/cc5eykcM.s:4186   .text:00000000000013a4 .L0 
     /tmp/cc5eykcM.s:4188   .text:00000000000013a8 .L0 
     /tmp/cc5eykcM.s:4190   .text:00000000000013ac .L0 
     /tmp/cc5eykcM.s:4191   .text:00000000000013ac .L0 
     /tmp/cc5eykcM.s:4193   .text:00000000000013b0 .L0 
     /tmp/cc5eykcM.s:4198   .text:00000000000013bc .L0 
     /tmp/cc5eykcM.s:4200   .text:00000000000013c0 .L0 
     /tmp/cc5eykcM.s:4202   .text:00000000000013c8 .L0 
     /tmp/cc5eykcM.s:4203   .text:00000000000013c8 .L0 
     /tmp/cc5eykcM.s:4205   .text:00000000000013cc .L0 
     /tmp/cc5eykcM.s:4208   .text:00000000000013d0 .L0 
     /tmp/cc5eykcM.s:4209   .text:00000000000013d0 .L0 
     /tmp/cc5eykcM.s:4211   .text:00000000000013d4 .L0 
     /tmp/cc5eykcM.s:4212   .text:00000000000013d4 .L0 
     /tmp/cc5eykcM.s:4214   .text:00000000000013d8 .L0 
     /tmp/cc5eykcM.s:4215   .text:00000000000013d8 .L0 
     /tmp/cc5eykcM.s:4222   .text:00000000000013dc .L0 
     /tmp/cc5eykcM.s:4234   .text:00000000000013f0 .L0 
     /tmp/cc5eykcM.s:4242   .text:0000000000001408 .L0 
     /tmp/cc5eykcM.s:4271   .text:0000000000001408 _ZN34ConsumerProducer_CPP_Sync_API_test16ProducerKeyboard16producerKeyboardEPv
     /tmp/cc5eykcM.s:4274   .text:0000000000001408 .L0 
     /tmp/cc5eykcM.s:4276   .text:0000000000001408 .L0 
     /tmp/cc5eykcM.s:4277   .text:000000000000140c .L0 
     /tmp/cc5eykcM.s:4283   .text:0000000000001420 .L0 
     /tmp/cc5eykcM.s:4284   .text:0000000000001420 .L0 
     /tmp/cc5eykcM.s:4285   .text:0000000000001420 .L0 
     /tmp/cc5eykcM.s:4286   .text:0000000000001420 .L0 
     /tmp/cc5eykcM.s:4287   .text:0000000000001420 .L0 
     /tmp/cc5eykcM.s:4289   .text:0000000000001424 .L0 
     /tmp/cc5eykcM.s:4294   .text:000000000000142c .L0 
     /tmp/cc5eykcM.s:4295   .text:000000000000142c .L0 
     /tmp/cc5eykcM.s:4296   .text:000000000000142c .L0 
     /tmp/cc5eykcM.s:4297   .text:000000000000142c .L0 
     /tmp/cc5eykcM.s:4302   .text:0000000000001434 .L0 
     /tmp/cc5eykcM.s:4303   .text:0000000000001434 .L0 
     /tmp/cc5eykcM.s:4307   .text:000000000000143c .L0 
     /tmp/cc5eykcM.s:4308   .text:000000000000143c .L0 
     /tmp/cc5eykcM.s:4309   .text:000000000000143c .L0 
     /tmp/cc5eykcM.s:4312   .text:0000000000001444 .L0 
     /tmp/cc5eykcM.s:4315   .text:0000000000001448 .L0 
     /tmp/cc5eykcM.s:4318   .text:0000000000001450 .L0 
     /tmp/cc5eykcM.s:4319   .text:0000000000001450 .L0 
     /tmp/cc5eykcM.s:4323   .text:000000000000145c .L0 
GAS LISTING /tmp/cc5eykcM.s 			page 196


     /tmp/cc5eykcM.s:4324   .text:000000000000145c .L0 
     /tmp/cc5eykcM.s:4328   .text:0000000000001464 .L0 
     /tmp/cc5eykcM.s:4329   .text:0000000000001464 .L0 
     /tmp/cc5eykcM.s:4331   .text:0000000000001468 .L0 
     /tmp/cc5eykcM.s:4335   .text:0000000000001474 .L0 
     /tmp/cc5eykcM.s:4337   .text:0000000000001478 .L0 
     /tmp/cc5eykcM.s:4342   .text:0000000000001480 .L0 
     /tmp/cc5eykcM.s:4343   .text:0000000000001480 .L0 
     /tmp/cc5eykcM.s:4346   .text:000000000000148c .L0 
     /tmp/cc5eykcM.s:4348   .text:0000000000001490 .L0 
     /tmp/cc5eykcM.s:4355   .text:00000000000014a0 .L0 
     /tmp/cc5eykcM.s:4356   .text:00000000000014a0 .L0 
     /tmp/cc5eykcM.s:4360   .text:00000000000014ac .L0 
     /tmp/cc5eykcM.s:4361   .text:00000000000014b0 .L0 
     /tmp/cc5eykcM.s:4363   .text:00000000000014b4 .L0 
     /tmp/cc5eykcM.s:4364   .text:00000000000014b4 .L0 
     /tmp/cc5eykcM.s:4366   .text:00000000000014b8 .L0 
     /tmp/cc5eykcM.s:4369   .text:00000000000014bc .L0 
     /tmp/cc5eykcM.s:4372   .text:00000000000014c0 .L0 
     /tmp/cc5eykcM.s:4375   .text:00000000000014c4 .L0 
     /tmp/cc5eykcM.s:4377   .text:00000000000014c8 .L0 
     /tmp/cc5eykcM.s:4384   .text._ZN34ConsumerProducer_CPP_Sync_API_test16ProducerKeyboard3runEv:0000000000000000 _ZN34ConsumerProducer_CPP_Sync_API_test16ProducerKeyboard3runEv
     /tmp/cc5eykcM.s:4387   .text._ZN34ConsumerProducer_CPP_Sync_API_test16ProducerKeyboard3runEv:0000000000000000 .L0 
     /tmp/cc5eykcM.s:4389   .text._ZN34ConsumerProducer_CPP_Sync_API_test16ProducerKeyboard3runEv:0000000000000000 .L0 
     /tmp/cc5eykcM.s:4390   .text._ZN34ConsumerProducer_CPP_Sync_API_test16ProducerKeyboard3runEv:0000000000000004 .L0 
     /tmp/cc5eykcM.s:4393   .text._ZN34ConsumerProducer_CPP_Sync_API_test16ProducerKeyboard3runEv:000000000000000c .L0 
     /tmp/cc5eykcM.s:4394   .text._ZN34ConsumerProducer_CPP_Sync_API_test16ProducerKeyboard3runEv:000000000000000c .L0 
     /tmp/cc5eykcM.s:4396   .text._ZN34ConsumerProducer_CPP_Sync_API_test16ProducerKeyboard3runEv:0000000000000010 .L0 
     /tmp/cc5eykcM.s:4398   .text._ZN34ConsumerProducer_CPP_Sync_API_test16ProducerKeyboard3runEv:0000000000000010 .L0 
     /tmp/cc5eykcM.s:4399   .text._ZN34ConsumerProducer_CPP_Sync_API_test16ProducerKeyboard3runEv:0000000000000010 .L0 
     /tmp/cc5eykcM.s:4403   .text._ZN34ConsumerProducer_CPP_Sync_API_test16ProducerKeyboard3runEv:000000000000001c .L0 
     /tmp/cc5eykcM.s:4404   .text._ZN34ConsumerProducer_CPP_Sync_API_test16ProducerKeyboard3runEv:0000000000000020 .L0 
     /tmp/cc5eykcM.s:4406   .text._ZN34ConsumerProducer_CPP_Sync_API_test16ProducerKeyboard3runEv:0000000000000024 .L0 
     /tmp/cc5eykcM.s:4407   .text._ZN34ConsumerProducer_CPP_Sync_API_test16ProducerKeyboard3runEv:0000000000000024 .L0 
     /tmp/cc5eykcM.s:4409   .text._ZN34ConsumerProducer_CPP_Sync_API_test16ProducerKeyboard3runEv:0000000000000028 .L0 
     /tmp/cc5eykcM.s:4411   .text._ZN34ConsumerProducer_CPP_Sync_API_test16ProducerKeyboard3runEv:000000000000002c .L0 
     /tmp/cc5eykcM.s:4418   .text:00000000000014c8 _ZN34ConsumerProducer_CPP_Sync_API_test8Producer8producerEPv
     /tmp/cc5eykcM.s:4421   .text:00000000000014c8 .L0 
     /tmp/cc5eykcM.s:4423   .text:00000000000014c8 .L0 
     /tmp/cc5eykcM.s:4424   .text:00000000000014cc .L0 
     /tmp/cc5eykcM.s:4429   .text:00000000000014dc .L0 
     /tmp/cc5eykcM.s:4430   .text:00000000000014dc .L0 
     /tmp/cc5eykcM.s:4431   .text:00000000000014dc .L0 
     /tmp/cc5eykcM.s:4432   .text:00000000000014dc .L0 
     /tmp/cc5eykcM.s:4434   .text:00000000000014e0 .L0 
     /tmp/cc5eykcM.s:4438   .text:00000000000014e4 .L0 
     /tmp/cc5eykcM.s:4439   .text:00000000000014e4 .L0 
     /tmp/cc5eykcM.s:4440   .text:00000000000014e4 .L0 
     /tmp/cc5eykcM.s:4445   .text:00000000000014ec .L0 
     /tmp/cc5eykcM.s:4446   .text:00000000000014ec .L0 
     /tmp/cc5eykcM.s:4450   .text:00000000000014f4 .L0 
     /tmp/cc5eykcM.s:4451   .text:00000000000014f4 .L0 
     /tmp/cc5eykcM.s:4454   .text:0000000000001500 .L0 
     /tmp/cc5eykcM.s:4455   .text:0000000000001500 .L0 
     /tmp/cc5eykcM.s:4457   .text:0000000000001504 .L0 
     /tmp/cc5eykcM.s:4462   .text:0000000000001514 .L0 
     /tmp/cc5eykcM.s:4463   .text:0000000000001514 .L0 
GAS LISTING /tmp/cc5eykcM.s 			page 197


     /tmp/cc5eykcM.s:4467   .text:000000000000151c .L0 
     /tmp/cc5eykcM.s:4468   .text:000000000000151c .L0 
     /tmp/cc5eykcM.s:4470   .text:0000000000001520 .L0 
     /tmp/cc5eykcM.s:4474   .text:000000000000152c .L0 
     /tmp/cc5eykcM.s:4476   .text:0000000000001530 .L0 
     /tmp/cc5eykcM.s:4481   .text:0000000000001538 .L0 
     /tmp/cc5eykcM.s:4482   .text:0000000000001538 .L0 
     /tmp/cc5eykcM.s:4486   .text:0000000000001544 .L0 
     /tmp/cc5eykcM.s:4487   .text:0000000000001548 .L0 
     /tmp/cc5eykcM.s:4489   .text:000000000000154c .L0 
     /tmp/cc5eykcM.s:4490   .text:000000000000154c .L0 
     /tmp/cc5eykcM.s:4492   .text:0000000000001550 .L0 
     /tmp/cc5eykcM.s:4495   .text:0000000000001554 .L0 
     /tmp/cc5eykcM.s:4498   .text:0000000000001558 .L0 
     /tmp/cc5eykcM.s:4500   .text:000000000000155c .L0 
     /tmp/cc5eykcM.s:4507   .text._ZN34ConsumerProducer_CPP_Sync_API_test8Producer3runEv:0000000000000000 _ZN34ConsumerProducer_CPP_Sync_API_test8Producer3runEv
     /tmp/cc5eykcM.s:4510   .text._ZN34ConsumerProducer_CPP_Sync_API_test8Producer3runEv:0000000000000000 .L0 
     /tmp/cc5eykcM.s:4512   .text._ZN34ConsumerProducer_CPP_Sync_API_test8Producer3runEv:0000000000000000 .L0 
     /tmp/cc5eykcM.s:4513   .text._ZN34ConsumerProducer_CPP_Sync_API_test8Producer3runEv:0000000000000004 .L0 
     /tmp/cc5eykcM.s:4516   .text._ZN34ConsumerProducer_CPP_Sync_API_test8Producer3runEv:000000000000000c .L0 
     /tmp/cc5eykcM.s:4517   .text._ZN34ConsumerProducer_CPP_Sync_API_test8Producer3runEv:000000000000000c .L0 
     /tmp/cc5eykcM.s:4519   .text._ZN34ConsumerProducer_CPP_Sync_API_test8Producer3runEv:0000000000000010 .L0 
     /tmp/cc5eykcM.s:4521   .text._ZN34ConsumerProducer_CPP_Sync_API_test8Producer3runEv:0000000000000010 .L0 
     /tmp/cc5eykcM.s:4522   .text._ZN34ConsumerProducer_CPP_Sync_API_test8Producer3runEv:0000000000000010 .L0 
     /tmp/cc5eykcM.s:4526   .text._ZN34ConsumerProducer_CPP_Sync_API_test8Producer3runEv:000000000000001c .L0 
     /tmp/cc5eykcM.s:4527   .text._ZN34ConsumerProducer_CPP_Sync_API_test8Producer3runEv:0000000000000020 .L0 
     /tmp/cc5eykcM.s:4529   .text._ZN34ConsumerProducer_CPP_Sync_API_test8Producer3runEv:0000000000000024 .L0 
     /tmp/cc5eykcM.s:4530   .text._ZN34ConsumerProducer_CPP_Sync_API_test8Producer3runEv:0000000000000024 .L0 
     /tmp/cc5eykcM.s:4532   .text._ZN34ConsumerProducer_CPP_Sync_API_test8Producer3runEv:0000000000000028 .L0 
     /tmp/cc5eykcM.s:4534   .text._ZN34ConsumerProducer_CPP_Sync_API_test8Producer3runEv:000000000000002c .L0 
     /tmp/cc5eykcM.s:4541   .text:000000000000155c _ZN34ConsumerProducer_CPP_Sync_API_test8Consumer8consumerEPv
     /tmp/cc5eykcM.s:4544   .text:000000000000155c .L0 
     /tmp/cc5eykcM.s:4546   .text:000000000000155c .L0 
     /tmp/cc5eykcM.s:4547   .text:0000000000001560 .L0 
     /tmp/cc5eykcM.s:4554   .text:0000000000001578 .L0 
     /tmp/cc5eykcM.s:4555   .text:0000000000001578 .L0 
     /tmp/cc5eykcM.s:4556   .text:0000000000001578 .L0 
     /tmp/cc5eykcM.s:4557   .text:0000000000001578 .L0 
     /tmp/cc5eykcM.s:4558   .text:0000000000001578 .L0 
     /tmp/cc5eykcM.s:4559   .text:0000000000001578 .L0 
     /tmp/cc5eykcM.s:4561   .text:000000000000157c .L0 
     /tmp/cc5eykcM.s:4566   .text:0000000000001584 .L0 
     /tmp/cc5eykcM.s:4567   .text:0000000000001584 .L0 
     /tmp/cc5eykcM.s:4568   .text:0000000000001584 .L0 
     /tmp/cc5eykcM.s:4574   .text:000000000000158c .L0 
     /tmp/cc5eykcM.s:4575   .text:000000000000158c .L0 
     /tmp/cc5eykcM.s:4581   .text:0000000000001598 .L0 
     /tmp/cc5eykcM.s:4582   .text:0000000000001598 .L0 
     /tmp/cc5eykcM.s:4588   .text:00000000000015a4 .L0 
     /tmp/cc5eykcM.s:4589   .text:00000000000015a4 .L0 
     /tmp/cc5eykcM.s:4593   .text:00000000000015b0 .L0 
     /tmp/cc5eykcM.s:4594   .text:00000000000015b0 .L0 
     /tmp/cc5eykcM.s:4598   .text:00000000000015bc .L0 
     /tmp/cc5eykcM.s:4599   .text:00000000000015bc .L0 
     /tmp/cc5eykcM.s:4603   .text:00000000000015c4 .L0 
     /tmp/cc5eykcM.s:4604   .text:00000000000015c4 .L0 
     /tmp/cc5eykcM.s:4609   .text:00000000000015d0 .L0 
GAS LISTING /tmp/cc5eykcM.s 			page 198


     /tmp/cc5eykcM.s:4610   .text:00000000000015d0 .L0 
     /tmp/cc5eykcM.s:4612   .text:00000000000015d4 .L0 
     /tmp/cc5eykcM.s:4615   .text:00000000000015dc .L0 
     /tmp/cc5eykcM.s:4617   .text:00000000000015e0 .L0 
     /tmp/cc5eykcM.s:4620   .text:00000000000015e4 .L0 
     /tmp/cc5eykcM.s:4621   .text:00000000000015e4 .L0 
     /tmp/cc5eykcM.s:4625   .text:00000000000015ec .L0 
     /tmp/cc5eykcM.s:4631   .text:00000000000015f4 .L0 
     /tmp/cc5eykcM.s:4632   .text:00000000000015f4 .L0 
     /tmp/cc5eykcM.s:4634   .text:00000000000015f8 .L0 
     /tmp/cc5eykcM.s:4638   .text:0000000000001604 .L0 
     /tmp/cc5eykcM.s:4639   .text:0000000000001604 .L0 
     /tmp/cc5eykcM.s:4646   .text:0000000000001610 .L0 
     /tmp/cc5eykcM.s:4647   .text:0000000000001610 .L0 
     /tmp/cc5eykcM.s:4648   .text:0000000000001610 .L0 
     /tmp/cc5eykcM.s:4650   .text:0000000000001614 .L0 
     /tmp/cc5eykcM.s:4654   .text:0000000000001620 .L0 
     /tmp/cc5eykcM.s:4656   .text:0000000000001624 .L0 
     /tmp/cc5eykcM.s:4657   .text:0000000000001624 .L0 
     /tmp/cc5eykcM.s:4661   .text:0000000000001630 .L0 
     /tmp/cc5eykcM.s:4662   .text:0000000000001634 .L0 
     /tmp/cc5eykcM.s:4664   .text:0000000000001638 .L0 
     /tmp/cc5eykcM.s:4665   .text:0000000000001638 .L0 
     /tmp/cc5eykcM.s:4667   .text:000000000000163c .L0 
     /tmp/cc5eykcM.s:4669   .text:0000000000001640 .L0 
     /tmp/cc5eykcM.s:4672   .text:0000000000001644 .L0 
     /tmp/cc5eykcM.s:4675   .text:0000000000001648 .L0 
     /tmp/cc5eykcM.s:4678   .text:000000000000164c .L0 
     /tmp/cc5eykcM.s:4680   .text:0000000000001650 .L0 
     /tmp/cc5eykcM.s:4687   .text._ZN34ConsumerProducer_CPP_Sync_API_test8Consumer3runEv:0000000000000000 _ZN34ConsumerProducer_CPP_Sync_API_test8Consumer3runEv
     /tmp/cc5eykcM.s:4690   .text._ZN34ConsumerProducer_CPP_Sync_API_test8Consumer3runEv:0000000000000000 .L0 
     /tmp/cc5eykcM.s:4692   .text._ZN34ConsumerProducer_CPP_Sync_API_test8Consumer3runEv:0000000000000000 .L0 
     /tmp/cc5eykcM.s:4693   .text._ZN34ConsumerProducer_CPP_Sync_API_test8Consumer3runEv:0000000000000004 .L0 
     /tmp/cc5eykcM.s:4696   .text._ZN34ConsumerProducer_CPP_Sync_API_test8Consumer3runEv:000000000000000c .L0 
     /tmp/cc5eykcM.s:4697   .text._ZN34ConsumerProducer_CPP_Sync_API_test8Consumer3runEv:000000000000000c .L0 
     /tmp/cc5eykcM.s:4699   .text._ZN34ConsumerProducer_CPP_Sync_API_test8Consumer3runEv:0000000000000010 .L0 
     /tmp/cc5eykcM.s:4701   .text._ZN34ConsumerProducer_CPP_Sync_API_test8Consumer3runEv:0000000000000010 .L0 
     /tmp/cc5eykcM.s:4702   .text._ZN34ConsumerProducer_CPP_Sync_API_test8Consumer3runEv:0000000000000010 .L0 
     /tmp/cc5eykcM.s:4706   .text._ZN34ConsumerProducer_CPP_Sync_API_test8Consumer3runEv:000000000000001c .L0 
     /tmp/cc5eykcM.s:4707   .text._ZN34ConsumerProducer_CPP_Sync_API_test8Consumer3runEv:0000000000000020 .L0 
     /tmp/cc5eykcM.s:4709   .text._ZN34ConsumerProducer_CPP_Sync_API_test8Consumer3runEv:0000000000000024 .L0 
     /tmp/cc5eykcM.s:4710   .text._ZN34ConsumerProducer_CPP_Sync_API_test8Consumer3runEv:0000000000000024 .L0 
     /tmp/cc5eykcM.s:4712   .text._ZN34ConsumerProducer_CPP_Sync_API_test8Consumer3runEv:0000000000000028 .L0 
     /tmp/cc5eykcM.s:4714   .text._ZN34ConsumerProducer_CPP_Sync_API_test8Consumer3runEv:000000000000002c .L0 
     /tmp/cc5eykcM.s:4721   .text:0000000000001650 _ZN34ConsumerProducer_CPP_Sync_API_test29producerConsumer_CPP_Sync_APIEv
     /tmp/cc5eykcM.s:4724   .text:0000000000001650 .L0 
     /tmp/cc5eykcM.s:4727   .text:0000000000001650 .L0 
     /tmp/cc5eykcM.s:4728   .text:0000000000001654 .L0 
     /tmp/cc5eykcM.s:4740   .text:0000000000001680 .L0 
     /tmp/cc5eykcM.s:4741   .text:0000000000001680 .L0 
     /tmp/cc5eykcM.s:4742   .text:0000000000001680 .L0 
     /tmp/cc5eykcM.s:4743   .text:0000000000001680 .L0 
     /tmp/cc5eykcM.s:4744   .text:0000000000001680 .L0 
     /tmp/cc5eykcM.s:4745   .text:0000000000001680 .L0 
     /tmp/cc5eykcM.s:4746   .text:0000000000001680 .L0 
     /tmp/cc5eykcM.s:4747   .text:0000000000001680 .L0 
     /tmp/cc5eykcM.s:4748   .text:0000000000001680 .L0 
GAS LISTING /tmp/cc5eykcM.s 			page 199


     /tmp/cc5eykcM.s:4749   .text:0000000000001680 .L0 
     /tmp/cc5eykcM.s:4750   .text:0000000000001680 .L0 
     /tmp/cc5eykcM.s:4752   .text:0000000000001684 .L0 
     /tmp/cc5eykcM.s:4754   .text:0000000000001684 .L0 
     /tmp/cc5eykcM.s:4756   .text:0000000000001688 .L0 
     /tmp/cc5eykcM.s:4757   .text:0000000000001688 .L0 
     /tmp/cc5eykcM.s:4758   .text:0000000000001688 .L0 
     /tmp/cc5eykcM.s:4759   .text:0000000000001688 .L0 
     /tmp/cc5eykcM.s:4764   .text:0000000000001698 .L0 
     /tmp/cc5eykcM.s:4765   .text:0000000000001698 .L0 
     /tmp/cc5eykcM.s:4771   .text:00000000000016ac .L0 
     /tmp/cc5eykcM.s:4772   .text:00000000000016ac .L0 
     /tmp/cc5eykcM.s:4778   .text:00000000000016bc .L0 
     /tmp/cc5eykcM.s:4779   .text:00000000000016bc .L0 
     /tmp/cc5eykcM.s:4783   .text:00000000000016cc .L0 
     /tmp/cc5eykcM.s:4784   .text:00000000000016cc .L0 
     /tmp/cc5eykcM.s:4789   .text:00000000000016dc .L0 
     /tmp/cc5eykcM.s:4790   .text:00000000000016dc .L0 
     /tmp/cc5eykcM.s:4796   .text:00000000000016ec .L0 
     /tmp/cc5eykcM.s:4797   .text:00000000000016ec .L0 
     /tmp/cc5eykcM.s:4801   .text:00000000000016fc .L0 
     /tmp/cc5eykcM.s:4802   .text:00000000000016fc .L0 
     /tmp/cc5eykcM.s:4808   .text:0000000000001710 .L0 
     /tmp/cc5eykcM.s:4809   .text:0000000000001710 .L0 
     /tmp/cc5eykcM.s:4813   .text:0000000000001720 .L0 
     /tmp/cc5eykcM.s:4814   .text:0000000000001720 .L0 
     /tmp/cc5eykcM.s:4820   .text:0000000000001734 .L0 
     /tmp/cc5eykcM.s:4821   .text:0000000000001734 .L0 
     /tmp/cc5eykcM.s:4825   .text:0000000000001744 .L0 
     /tmp/cc5eykcM.s:4827   .text:0000000000001748 .L0 
     /tmp/cc5eykcM.s:4829   .text:000000000000174c .L0 
     /tmp/cc5eykcM.s:4830   .text:000000000000174c .L0 
     /tmp/cc5eykcM.s:4837   .text:0000000000001760 .L0 
     /tmp/cc5eykcM.s:4845   .text:0000000000001770 .L0 
     /tmp/cc5eykcM.s:4846   .text:0000000000001770 .L0 
     /tmp/cc5eykcM.s:4851   .text:0000000000001780 .L0 
     /tmp/cc5eykcM.s:4854   .text:0000000000001784 .L0 
     /tmp/cc5eykcM.s:4855   .text:0000000000001784 .L0 
     /tmp/cc5eykcM.s:4860   .text:0000000000001794 .L0 
     /tmp/cc5eykcM.s:4865   .text:000000000000179c .L0 
     /tmp/cc5eykcM.s:4866   .text:000000000000179c .L0 
     /tmp/cc5eykcM.s:4874   .text:00000000000017b0 .L0 
     /tmp/cc5eykcM.s:4881   .text:00000000000017bc .L0 
     /tmp/cc5eykcM.s:4885   .text:00000000000017c8 .L0 
     /tmp/cc5eykcM.s:4886   .text:00000000000017c8 .L0 
     /tmp/cc5eykcM.s:4893   .text:00000000000017dc .L0 
     /tmp/cc5eykcM.s:4894   .text:00000000000017dc .L0 
     /tmp/cc5eykcM.s:4895   .text:00000000000017dc .L0 
     /tmp/cc5eykcM.s:4898   .text:00000000000017e0 .L0 
     /tmp/cc5eykcM.s:4908   .text:00000000000017fc .L0 
     /tmp/cc5eykcM.s:4909   .text:00000000000017fc .L0 
     /tmp/cc5eykcM.s:4915   .text:0000000000001810 .L0 
     /tmp/cc5eykcM.s:4916   .text:0000000000001810 .L0 
     /tmp/cc5eykcM.s:4918   .text:0000000000001814 .L0 
     /tmp/cc5eykcM.s:4919   .text:0000000000001814 .L0 
     /tmp/cc5eykcM.s:4922   .text:000000000000181c .L0 
     /tmp/cc5eykcM.s:4923   .text:000000000000181c .L0 
GAS LISTING /tmp/cc5eykcM.s 			page 200


     /tmp/cc5eykcM.s:4930   .text:000000000000182c .L0 
     /tmp/cc5eykcM.s:4932   .text:0000000000001830 .L0 
     /tmp/cc5eykcM.s:4936   .text:000000000000183c .L0 
     /tmp/cc5eykcM.s:4942   .text:0000000000001840 .L0 
     /tmp/cc5eykcM.s:4946   .text:0000000000001848 .L0 
     /tmp/cc5eykcM.s:4954   .text:0000000000001858 .L0 
     /tmp/cc5eykcM.s:4955   .text:0000000000001858 .L0 
     /tmp/cc5eykcM.s:4961   .text:0000000000001864 .L0 
     /tmp/cc5eykcM.s:4968   .text:000000000000186c .L0 
     /tmp/cc5eykcM.s:4976   .text:000000000000187c .L0 
     /tmp/cc5eykcM.s:4981   .text:0000000000001888 .L0 
     /tmp/cc5eykcM.s:4982   .text:0000000000001888 .L0 
     /tmp/cc5eykcM.s:4985   .text:0000000000001890 .L0 
     /tmp/cc5eykcM.s:4989   .text:000000000000189c .L0 
     /tmp/cc5eykcM.s:4993   .text:00000000000018a0 .L0 
     /tmp/cc5eykcM.s:4995   .text:00000000000018a4 .L0 
     /tmp/cc5eykcM.s:4996   .text:00000000000018a4 .L0 
     /tmp/cc5eykcM.s:5002   .text:00000000000018b8 .L0 
     /tmp/cc5eykcM.s:5003   .text:00000000000018b8 .L0 
     /tmp/cc5eykcM.s:5005   .text:00000000000018bc .L0 
     /tmp/cc5eykcM.s:5006   .text:00000000000018bc .L0 
     /tmp/cc5eykcM.s:5009   .text:00000000000018c8 .L0 
     /tmp/cc5eykcM.s:5011   .text:00000000000018cc .L0 
     /tmp/cc5eykcM.s:5012   .text:00000000000018cc .L0 
     /tmp/cc5eykcM.s:5018   .text:00000000000018dc .L0 
     /tmp/cc5eykcM.s:5020   .text:00000000000018e0 .L0 
     /tmp/cc5eykcM.s:5024   .text:00000000000018ec .L0 
     /tmp/cc5eykcM.s:5030   .text:00000000000018f0 .L0 
     /tmp/cc5eykcM.s:5039   .text:00000000000018fc .L0 
     /tmp/cc5eykcM.s:5040   .text:00000000000018fc .L0 
     /tmp/cc5eykcM.s:5047   .text:000000000000190c .L0 
     /tmp/cc5eykcM.s:5049   .text:0000000000001910 .L0 
     /tmp/cc5eykcM.s:5053   .text:000000000000191c .L0 
     /tmp/cc5eykcM.s:5059   .text:0000000000001920 .L0 
     /tmp/cc5eykcM.s:5063   .text:0000000000001928 .L0 
     /tmp/cc5eykcM.s:5071   .text:0000000000001938 .L0 
     /tmp/cc5eykcM.s:5079   .text:0000000000001948 .L0 
     /tmp/cc5eykcM.s:5080   .text:0000000000001948 .L0 
     /tmp/cc5eykcM.s:5084   .text:0000000000001950 .L0 
     /tmp/cc5eykcM.s:5088   .text:0000000000001954 .L0 
     /tmp/cc5eykcM.s:5090   .text:0000000000001958 .L0 
     /tmp/cc5eykcM.s:5091   .text:0000000000001958 .L0 
     /tmp/cc5eykcM.s:5095   .text:0000000000001968 .L0 
     /tmp/cc5eykcM.s:5103   .text:0000000000001970 .L0 
     /tmp/cc5eykcM.s:5109   .text:0000000000001978 .L0 
     /tmp/cc5eykcM.s:5113   .text:000000000000197c .L0 
     /tmp/cc5eykcM.s:5115   .text:0000000000001980 .L0 
     /tmp/cc5eykcM.s:5116   .text:0000000000001980 .L0 
     /tmp/cc5eykcM.s:5120   .text:000000000000198c .L0 
     /tmp/cc5eykcM.s:5122   .text:0000000000001990 .L0 
     /tmp/cc5eykcM.s:5130   .text:00000000000019a0 .L0 
     /tmp/cc5eykcM.s:5131   .text:00000000000019a0 .L0 
     /tmp/cc5eykcM.s:5133   .text:00000000000019a4 .L0 
     /tmp/cc5eykcM.s:5140   .text:00000000000019b4 .L0 
     /tmp/cc5eykcM.s:5141   .text:00000000000019b4 .L0 
     /tmp/cc5eykcM.s:5143   .text:00000000000019bc .L0 
     /tmp/cc5eykcM.s:5145   .text:00000000000019c0 .L0 
GAS LISTING /tmp/cc5eykcM.s 			page 201


     /tmp/cc5eykcM.s:5151   .text:00000000000019cc .L0 
     /tmp/cc5eykcM.s:5152   .text:00000000000019cc .L0 
     /tmp/cc5eykcM.s:5154   .text:00000000000019d0 .L0 
     /tmp/cc5eykcM.s:5166   .text:00000000000019ec .L0 
     /tmp/cc5eykcM.s:5167   .text:00000000000019f0 .L0 
     /tmp/cc5eykcM.s:5168   .text:00000000000019f0 .L0 
     /tmp/cc5eykcM.s:5170   .text:00000000000019f4 .L0 
     /tmp/cc5eykcM.s:5172   .text:00000000000019f8 .L0 
     /tmp/cc5eykcM.s:5174   .text:00000000000019fc .L0 
     /tmp/cc5eykcM.s:5176   .text:0000000000001a00 .L0 
     /tmp/cc5eykcM.s:5179   .text:0000000000001a04 .L0 
     /tmp/cc5eykcM.s:5181   .text:0000000000001a08 .L0 
     /tmp/cc5eykcM.s:5183   .text:0000000000001a0c .L0 
     /tmp/cc5eykcM.s:5185   .text:0000000000001a10 .L0 
     /tmp/cc5eykcM.s:5187   .text:0000000000001a14 .L0 
     /tmp/cc5eykcM.s:5189   .text:0000000000001a18 .L0 
     /tmp/cc5eykcM.s:5191   .text:0000000000001a1c .L0 
     /tmp/cc5eykcM.s:5193   .text:0000000000001a20 .L0 
     /tmp/cc5eykcM.s:5197   .text:0000000000001a24 .L0 
     /tmp/cc5eykcM.s:5201   .text:0000000000001a28 .L0 
     /tmp/cc5eykcM.s:5213   .text:0000000000001a44 .L0 
     /tmp/cc5eykcM.s:5225   .text:0000000000001a60 .L0 
     /tmp/cc5eykcM.s:5238   .text:0000000000001a7c .L0 
     /tmp/cc5eykcM.s:5250   .text:0000000000001a98 .L0 
     /tmp/cc5eykcM.s:5259   .text:0000000000001ab0 .L0 
     /tmp/cc5eykcM.s:5336   .text:0000000000001ab0 _ZN22ThreadSleep_C_API_test12testSleepingEv
     /tmp/cc5eykcM.s:5339   .text:0000000000001ab0 .L0 
     /tmp/cc5eykcM.s:5340   .text:0000000000001ab0 .L0 
     /tmp/cc5eykcM.s:5341   .text:0000000000001ab4 .L0 
     /tmp/cc5eykcM.s:5345   .text:0000000000001ac0 .L0 
     /tmp/cc5eykcM.s:5346   .text:0000000000001ac0 .L0 
     /tmp/cc5eykcM.s:5347   .text:0000000000001ac0 .L0 
     /tmp/cc5eykcM.s:5349   .text:0000000000001ac4 .L0 
     /tmp/cc5eykcM.s:5352   .text:0000000000001ac4 .L0 
     /tmp/cc5eykcM.s:5353   .text:0000000000001ac4 .L0 
     /tmp/cc5eykcM.s:5354   .text:0000000000001ac4 .L0 
     /tmp/cc5eykcM.s:5359   .text:0000000000001ad4 .L0 
     /tmp/cc5eykcM.s:5362   .text:0000000000001ad4 .L0 
     /tmp/cc5eykcM.s:5363   .text:0000000000001ad4 .L0 
     /tmp/cc5eykcM.s:5368   .text:0000000000001adc .L0 
     /tmp/cc5eykcM.s:5369   .text:0000000000001adc .L0 
     /tmp/cc5eykcM.s:5371   .text:0000000000001ae0 .L0 
     /tmp/cc5eykcM.s:5379   .text:0000000000001b00 .L0 
     /tmp/cc5eykcM.s:5383   .text:0000000000001b04 .L0 
     /tmp/cc5eykcM.s:5388   .text:0000000000001b0c .L0 
     /tmp/cc5eykcM.s:5389   .text:0000000000001b0c .L0 
     /tmp/cc5eykcM.s:5390   .text:0000000000001b0c .L0 
     /tmp/cc5eykcM.s:5392   .text:0000000000001b14 .L0 
     /tmp/cc5eykcM.s:5394   .text:0000000000001b18 .L0 
     /tmp/cc5eykcM.s:5396   .text:0000000000001b20 .L0 
     /tmp/cc5eykcM.s:5398   .text:0000000000001b24 .L0 
     /tmp/cc5eykcM.s:5399   .text:0000000000001b28 .L0 
     /tmp/cc5eykcM.s:5401   .text:0000000000001b2c .L0 
     /tmp/cc5eykcM.s:5402   .text:0000000000001b2c .L0 
     /tmp/cc5eykcM.s:5404   .text:0000000000001b30 .L0 
     /tmp/cc5eykcM.s:5407   .text:0000000000001b34 .L0 
     /tmp/cc5eykcM.s:5409   .text:0000000000001b38 .L0 
GAS LISTING /tmp/cc5eykcM.s 			page 202


     /tmp/cc5eykcM.s:5415   .text:0000000000001b38 _ZN28ConsumerProducerCPP_API_test20testConsumerProducerEv
     /tmp/cc5eykcM.s:5418   .text:0000000000001b38 .L0 
     /tmp/cc5eykcM.s:5421   .text:0000000000001b38 .L0 
     /tmp/cc5eykcM.s:5422   .text:0000000000001b3c .L0 
     /tmp/cc5eykcM.s:5434   .text:0000000000001b68 .L0 
     /tmp/cc5eykcM.s:5435   .text:0000000000001b68 .L0 
     /tmp/cc5eykcM.s:5436   .text:0000000000001b68 .L0 
     /tmp/cc5eykcM.s:5437   .text:0000000000001b68 .L0 
     /tmp/cc5eykcM.s:5438   .text:0000000000001b68 .L0 
     /tmp/cc5eykcM.s:5439   .text:0000000000001b68 .L0 
     /tmp/cc5eykcM.s:5440   .text:0000000000001b68 .L0 
     /tmp/cc5eykcM.s:5441   .text:0000000000001b68 .L0 
     /tmp/cc5eykcM.s:5442   .text:0000000000001b68 .L0 
     /tmp/cc5eykcM.s:5443   .text:0000000000001b68 .L0 
     /tmp/cc5eykcM.s:5444   .text:0000000000001b68 .L0 
     /tmp/cc5eykcM.s:5446   .text:0000000000001b6c .L0 
     /tmp/cc5eykcM.s:5448   .text:0000000000001b6c .L0 
     /tmp/cc5eykcM.s:5450   .text:0000000000001b70 .L0 
     /tmp/cc5eykcM.s:5451   .text:0000000000001b70 .L0 
     /tmp/cc5eykcM.s:5452   .text:0000000000001b70 .L0 
     /tmp/cc5eykcM.s:5453   .text:0000000000001b70 .L0 
     /tmp/cc5eykcM.s:5458   .text:0000000000001b80 .L0 
     /tmp/cc5eykcM.s:5459   .text:0000000000001b80 .L0 
     /tmp/cc5eykcM.s:5465   .text:0000000000001b94 .L0 
     /tmp/cc5eykcM.s:5466   .text:0000000000001b94 .L0 
     /tmp/cc5eykcM.s:5472   .text:0000000000001ba4 .L0 
     /tmp/cc5eykcM.s:5473   .text:0000000000001ba4 .L0 
     /tmp/cc5eykcM.s:5477   .text:0000000000001bb4 .L0 
     /tmp/cc5eykcM.s:5478   .text:0000000000001bb4 .L0 
     /tmp/cc5eykcM.s:5483   .text:0000000000001bc4 .L0 
     /tmp/cc5eykcM.s:5484   .text:0000000000001bc4 .L0 
     /tmp/cc5eykcM.s:5490   .text:0000000000001bd4 .L0 
     /tmp/cc5eykcM.s:5491   .text:0000000000001bd4 .L0 
     /tmp/cc5eykcM.s:5495   .text:0000000000001be4 .L0 
     /tmp/cc5eykcM.s:5496   .text:0000000000001be4 .L0 
     /tmp/cc5eykcM.s:5502   .text:0000000000001bf8 .L0 
     /tmp/cc5eykcM.s:5503   .text:0000000000001bf8 .L0 
     /tmp/cc5eykcM.s:5507   .text:0000000000001c08 .L0 
     /tmp/cc5eykcM.s:5508   .text:0000000000001c08 .L0 
     /tmp/cc5eykcM.s:5514   .text:0000000000001c1c .L0 
     /tmp/cc5eykcM.s:5515   .text:0000000000001c1c .L0 
     /tmp/cc5eykcM.s:5519   .text:0000000000001c2c .L0 
     /tmp/cc5eykcM.s:5521   .text:0000000000001c30 .L0 
     /tmp/cc5eykcM.s:5523   .text:0000000000001c34 .L0 
     /tmp/cc5eykcM.s:5524   .text:0000000000001c34 .L0 
     /tmp/cc5eykcM.s:5531   .text:0000000000001c48 .L0 
     /tmp/cc5eykcM.s:5539   .text:0000000000001c58 .L0 
     /tmp/cc5eykcM.s:5540   .text:0000000000001c58 .L0 
     /tmp/cc5eykcM.s:5545   .text:0000000000001c68 .L0 
     /tmp/cc5eykcM.s:5548   .text:0000000000001c6c .L0 
     /tmp/cc5eykcM.s:5549   .text:0000000000001c6c .L0 
     /tmp/cc5eykcM.s:5554   .text:0000000000001c7c .L0 
     /tmp/cc5eykcM.s:5559   .text:0000000000001c84 .L0 
     /tmp/cc5eykcM.s:5560   .text:0000000000001c84 .L0 
     /tmp/cc5eykcM.s:5568   .text:0000000000001c98 .L0 
     /tmp/cc5eykcM.s:5575   .text:0000000000001ca4 .L0 
     /tmp/cc5eykcM.s:5579   .text:0000000000001cb0 .L0 
GAS LISTING /tmp/cc5eykcM.s 			page 203


     /tmp/cc5eykcM.s:5580   .text:0000000000001cb0 .L0 
     /tmp/cc5eykcM.s:5587   .text:0000000000001cc4 .L0 
     /tmp/cc5eykcM.s:5588   .text:0000000000001cc4 .L0 
     /tmp/cc5eykcM.s:5591   .text:0000000000001cc8 .L0 
     /tmp/cc5eykcM.s:5601   .text:0000000000001ce4 .L0 
     /tmp/cc5eykcM.s:5602   .text:0000000000001ce4 .L0 
     /tmp/cc5eykcM.s:5608   .text:0000000000001cf8 .L0 
     /tmp/cc5eykcM.s:5609   .text:0000000000001cf8 .L0 
     /tmp/cc5eykcM.s:5611   .text:0000000000001cfc .L0 
     /tmp/cc5eykcM.s:5612   .text:0000000000001cfc .L0 
     /tmp/cc5eykcM.s:5615   .text:0000000000001d04 .L0 
     /tmp/cc5eykcM.s:5616   .text:0000000000001d04 .L0 
     /tmp/cc5eykcM.s:5624   .text:0000000000001d18 .L0 
     /tmp/cc5eykcM.s:5633   .text:0000000000001d28 .L0 
     /tmp/cc5eykcM.s:5637   .text:0000000000001d30 .L0 
     /tmp/cc5eykcM.s:5645   .text:0000000000001d40 .L0 
     /tmp/cc5eykcM.s:5646   .text:0000000000001d40 .L0 
     /tmp/cc5eykcM.s:5651   .text:0000000000001d4c .L0 
     /tmp/cc5eykcM.s:5652   .text:0000000000001d4c .L0 
     /tmp/cc5eykcM.s:5654   .text:0000000000001d50 .L0 
     /tmp/cc5eykcM.s:5655   .text:0000000000001d50 .L0 
     /tmp/cc5eykcM.s:5657   .text:0000000000001d54 .L0 
     /tmp/cc5eykcM.s:5658   .text:0000000000001d54 .L0 
     /tmp/cc5eykcM.s:5661   .text:0000000000001d60 .L0 
     /tmp/cc5eykcM.s:5662   .text:0000000000001d60 .L0 
     /tmp/cc5eykcM.s:5668   .text:0000000000001d70 .L0 
     /tmp/cc5eykcM.s:5674   .text:0000000000001d74 .L0 
     /tmp/cc5eykcM.s:5678   .text:0000000000001d7c .L0 
     /tmp/cc5eykcM.s:5686   .text:0000000000001d8c .L0 
     /tmp/cc5eykcM.s:5688   .text:0000000000001d90 .L0 
     /tmp/cc5eykcM.s:5689   .text:0000000000001d90 .L0 
     /tmp/cc5eykcM.s:5695   .text:0000000000001d9c .L0 
     /tmp/cc5eykcM.s:5702   .text:0000000000001da4 .L0 
     /tmp/cc5eykcM.s:5710   .text:0000000000001db4 .L0 
     /tmp/cc5eykcM.s:5714   .text:0000000000001dc0 .L0 
     /tmp/cc5eykcM.s:5715   .text:0000000000001dc0 .L0 
     /tmp/cc5eykcM.s:5719   .text:0000000000001dcc .L0 
     /tmp/cc5eykcM.s:5723   .text:0000000000001dd0 .L0 
     /tmp/cc5eykcM.s:5725   .text:0000000000001dd4 .L0 
     /tmp/cc5eykcM.s:5726   .text:0000000000001dd4 .L0 
     /tmp/cc5eykcM.s:5732   .text:0000000000001de8 .L0 
     /tmp/cc5eykcM.s:5733   .text:0000000000001de8 .L0 
     /tmp/cc5eykcM.s:5735   .text:0000000000001dec .L0 
     /tmp/cc5eykcM.s:5736   .text:0000000000001dec .L0 
     /tmp/cc5eykcM.s:5739   .text:0000000000001df8 .L0 
     /tmp/cc5eykcM.s:5740   .text:0000000000001df8 .L0 
     /tmp/cc5eykcM.s:5746   .text:0000000000001e08 .L0 
     /tmp/cc5eykcM.s:5748   .text:0000000000001e0c .L0 
     /tmp/cc5eykcM.s:5757   .text:0000000000001e1c .L0 
     /tmp/cc5eykcM.s:5768   .text:0000000000001e28 .L0 
     /tmp/cc5eykcM.s:5769   .text:0000000000001e28 .L0 
     /tmp/cc5eykcM.s:5773   .text:0000000000001e30 .L0 
     /tmp/cc5eykcM.s:5777   .text:0000000000001e34 .L0 
     /tmp/cc5eykcM.s:5779   .text:0000000000001e38 .L0 
     /tmp/cc5eykcM.s:5780   .text:0000000000001e38 .L0 
     /tmp/cc5eykcM.s:5784   .text:0000000000001e48 .L0 
     /tmp/cc5eykcM.s:5791   .text:0000000000001e50 .L0 
GAS LISTING /tmp/cc5eykcM.s 			page 204


     /tmp/cc5eykcM.s:5792   .text:0000000000001e50 .L0 
     /tmp/cc5eykcM.s:5794   .text:0000000000001e58 .L0 
     /tmp/cc5eykcM.s:5796   .text:0000000000001e5c .L0 
     /tmp/cc5eykcM.s:5803   .text:0000000000001e68 .L0 
     /tmp/cc5eykcM.s:5811   .text:0000000000001e70 .L0 
     /tmp/cc5eykcM.s:5815   .text:0000000000001e74 .L0 
     /tmp/cc5eykcM.s:5817   .text:0000000000001e78 .L0 
     /tmp/cc5eykcM.s:5818   .text:0000000000001e78 .L0 
     /tmp/cc5eykcM.s:5822   .text:0000000000001e84 .L0 
     /tmp/cc5eykcM.s:5824   .text:0000000000001e88 .L0 
     /tmp/cc5eykcM.s:5832   .text:0000000000001e98 .L0 
     /tmp/cc5eykcM.s:5833   .text:0000000000001e98 .L0 
     /tmp/cc5eykcM.s:5835   .text:0000000000001e9c .L0 
     /tmp/cc5eykcM.s:5842   .text:0000000000001eac .L0 
     /tmp/cc5eykcM.s:5843   .text:0000000000001eac .L0 
     /tmp/cc5eykcM.s:5845   .text:0000000000001eb0 .L0 
     /tmp/cc5eykcM.s:5857   .text:0000000000001ecc .L0 
     /tmp/cc5eykcM.s:5858   .text:0000000000001ed0 .L0 
     /tmp/cc5eykcM.s:5859   .text:0000000000001ed0 .L0 
     /tmp/cc5eykcM.s:5861   .text:0000000000001ed4 .L0 
     /tmp/cc5eykcM.s:5863   .text:0000000000001ed8 .L0 
     /tmp/cc5eykcM.s:5865   .text:0000000000001edc .L0 
     /tmp/cc5eykcM.s:5867   .text:0000000000001ee0 .L0 
     /tmp/cc5eykcM.s:5870   .text:0000000000001ee4 .L0 
     /tmp/cc5eykcM.s:5872   .text:0000000000001ee8 .L0 
     /tmp/cc5eykcM.s:5874   .text:0000000000001eec .L0 
     /tmp/cc5eykcM.s:5876   .text:0000000000001ef0 .L0 
     /tmp/cc5eykcM.s:5878   .text:0000000000001ef4 .L0 
     /tmp/cc5eykcM.s:5880   .text:0000000000001ef8 .L0 
     /tmp/cc5eykcM.s:5882   .text:0000000000001efc .L0 
     /tmp/cc5eykcM.s:5884   .text:0000000000001f00 .L0 
     /tmp/cc5eykcM.s:5888   .text:0000000000001f04 .L0 
     /tmp/cc5eykcM.s:5892   .text:0000000000001f08 .L0 
     /tmp/cc5eykcM.s:5904   .text:0000000000001f24 .L0 
     /tmp/cc5eykcM.s:5916   .text:0000000000001f40 .L0 
     /tmp/cc5eykcM.s:5928   .text:0000000000001f5c .L0 
     /tmp/cc5eykcM.s:5941   .text:0000000000001f78 .L0 
     /tmp/cc5eykcM.s:5950   .text:0000000000001f90 .L0 
     /tmp/cc5eykcM.s:6044   .text:0000000000001f90 _Z11test_adresev
     /tmp/cc5eykcM.s:6048   .text:0000000000001f90 .L0 
     /tmp/cc5eykcM.s:6049   .text:0000000000001f90 .L0 
     /tmp/cc5eykcM.s:6050   .text:0000000000001f94 .L0 
     /tmp/cc5eykcM.s:6056   .text:0000000000001fa8 .L0 
     /tmp/cc5eykcM.s:6057   .text:0000000000001fa8 .L0 
     /tmp/cc5eykcM.s:6058   .text:0000000000001fa8 .L0 
     /tmp/cc5eykcM.s:6059   .text:0000000000001fa8 .L0 
     /tmp/cc5eykcM.s:6060   .text:0000000000001fa8 .L0 
     /tmp/cc5eykcM.s:6062   .text:0000000000001fac .L0 
     /tmp/cc5eykcM.s:6064   .text:0000000000001fac .L0 
     /tmp/cc5eykcM.s:6065   .text:0000000000001fac .L0 
     /tmp/cc5eykcM.s:6074   .text:0000000000001fcc .L0 
     /tmp/cc5eykcM.s:6075   .text:0000000000001fcc .L0 
     /tmp/cc5eykcM.s:6080   .text:0000000000001fdc .L0 
     /tmp/cc5eykcM.s:6081   .text:0000000000001fdc .L0 
     /tmp/cc5eykcM.s:6086   .text:0000000000001fe8 .L0 
     /tmp/cc5eykcM.s:6091   .text:0000000000001ff0 .L0 
     /tmp/cc5eykcM.s:6092   .text:0000000000001ff0 .L0 
GAS LISTING /tmp/cc5eykcM.s 			page 205


     /tmp/cc5eykcM.s:6097   .text:0000000000002000 .L0 
     /tmp/cc5eykcM.s:6101   .text:0000000000002004 .L0 
     /tmp/cc5eykcM.s:6104   .text:000000000000200c .L0 
     /tmp/cc5eykcM.s:6105   .text:000000000000200c .L0 
     /tmp/cc5eykcM.s:6110   .text:000000000000201c .L0 
     /tmp/cc5eykcM.s:6111   .text:000000000000201c .L0 
     /tmp/cc5eykcM.s:6115   .text:000000000000202c .L0 
     /tmp/cc5eykcM.s:6116   .text:000000000000202c .L0 
     /tmp/cc5eykcM.s:6122   .text:0000000000002040 .L0 
     /tmp/cc5eykcM.s:6123   .text:0000000000002040 .L0 
     /tmp/cc5eykcM.s:6127   .text:0000000000002050 .L0 
     /tmp/cc5eykcM.s:6128   .text:0000000000002050 .L0 
     /tmp/cc5eykcM.s:6134   .text:0000000000002064 .L0 
     /tmp/cc5eykcM.s:6135   .text:0000000000002064 .L0 
     /tmp/cc5eykcM.s:6138   .text:000000000000206c .L0 
     /tmp/cc5eykcM.s:6140   .text:0000000000002070 .L0 
     /tmp/cc5eykcM.s:6141   .text:0000000000002070 .L0 
     /tmp/cc5eykcM.s:6148   .text:0000000000002084 .L0 
     /tmp/cc5eykcM.s:6149   .text:0000000000002084 .L0 
     /tmp/cc5eykcM.s:6153   .text:0000000000002094 .L0 
     /tmp/cc5eykcM.s:6154   .text:0000000000002094 .L0 
     /tmp/cc5eykcM.s:6158   .text:00000000000020a4 .L0 
     /tmp/cc5eykcM.s:6159   .text:00000000000020a8 .L0 
     /tmp/cc5eykcM.s:6161   .text:00000000000020ac .L0 
     /tmp/cc5eykcM.s:6162   .text:00000000000020ac .L0 
     /tmp/cc5eykcM.s:6164   .text:00000000000020b0 .L0 
     /tmp/cc5eykcM.s:6167   .text:00000000000020b4 .L0 
     /tmp/cc5eykcM.s:6169   .text:00000000000020b8 .L0 
     /tmp/cc5eykcM.s:6172   .text:00000000000020bc .L0 
     /tmp/cc5eykcM.s:6174   .text:00000000000020c0 .L0 
     /tmp/cc5eykcM.s:6191   .text:00000000000020c0 _Z22test_pristup_parametruv
     /tmp/cc5eykcM.s:6194   .text:00000000000020c0 .L0 
     /tmp/cc5eykcM.s:6195   .text:00000000000020c0 .L0 
     /tmp/cc5eykcM.s:6196   .text:00000000000020c4 .L0 
     /tmp/cc5eykcM.s:6203   .text:00000000000020dc .L0 
     /tmp/cc5eykcM.s:6204   .text:00000000000020dc .L0 
     /tmp/cc5eykcM.s:6205   .text:00000000000020dc .L0 
     /tmp/cc5eykcM.s:6206   .text:00000000000020dc .L0 
     /tmp/cc5eykcM.s:6207   .text:00000000000020dc .L0 
     /tmp/cc5eykcM.s:6208   .text:00000000000020dc .L0 
     /tmp/cc5eykcM.s:6210   .text:00000000000020e0 .L0 
     /tmp/cc5eykcM.s:6212   .text:00000000000020e0 .L0 
     /tmp/cc5eykcM.s:6213   .text:00000000000020e0 .L0 
     /tmp/cc5eykcM.s:6222   .text:0000000000002100 .L0 
     /tmp/cc5eykcM.s:6223   .text:0000000000002100 .L0 
     /tmp/cc5eykcM.s:6228   .text:0000000000002110 .L0 
     /tmp/cc5eykcM.s:6229   .text:0000000000002110 .L0 
     /tmp/cc5eykcM.s:6234   .text:000000000000211c .L0 
     /tmp/cc5eykcM.s:6237   .text:0000000000002120 .L0 
     /tmp/cc5eykcM.s:6243   .text:0000000000002128 .L0 
     /tmp/cc5eykcM.s:6248   .text:0000000000002130 .L0 
     /tmp/cc5eykcM.s:6249   .text:0000000000002130 .L0 
     /tmp/cc5eykcM.s:6254   .text:0000000000002140 .L0 
     /tmp/cc5eykcM.s:6258   .text:0000000000002144 .L0 
     /tmp/cc5eykcM.s:6262   .text:0000000000002150 .L0 
     /tmp/cc5eykcM.s:6263   .text:0000000000002150 .L0 
     /tmp/cc5eykcM.s:6268   .text:0000000000002160 .L0 
GAS LISTING /tmp/cc5eykcM.s 			page 206


     /tmp/cc5eykcM.s:6269   .text:0000000000002160 .L0 
     /tmp/cc5eykcM.s:6273   .text:0000000000002170 .L0 
     /tmp/cc5eykcM.s:6274   .text:0000000000002170 .L0 
     /tmp/cc5eykcM.s:6280   .text:0000000000002184 .L0 
     /tmp/cc5eykcM.s:6281   .text:0000000000002184 .L0 
     /tmp/cc5eykcM.s:6285   .text:0000000000002194 .L0 
     /tmp/cc5eykcM.s:6286   .text:0000000000002194 .L0 
     /tmp/cc5eykcM.s:6288   .text:0000000000002198 .L0 
     /tmp/cc5eykcM.s:6289   .text:0000000000002198 .L0 
     /tmp/cc5eykcM.s:6293   .text:00000000000021a0 .L0 
     /tmp/cc5eykcM.s:6296   .text:00000000000021a8 .L0 
     /tmp/cc5eykcM.s:6300   .text:00000000000021ac .L0 
     /tmp/cc5eykcM.s:6301   .text:00000000000021ac .L0 
     /tmp/cc5eykcM.s:6305   .text:00000000000021bc .L0 
     /tmp/cc5eykcM.s:6306   .text:00000000000021bc .L0 
     /tmp/cc5eykcM.s:6312   .text:00000000000021d0 .L0 
     /tmp/cc5eykcM.s:6313   .text:00000000000021d0 .L0 
     /tmp/cc5eykcM.s:6317   .text:00000000000021e0 .L0 
     /tmp/cc5eykcM.s:6318   .text:00000000000021e0 .L0 
     /tmp/cc5eykcM.s:6324   .text:00000000000021f4 .L0 
     /tmp/cc5eykcM.s:6325   .text:00000000000021f4 .L0 
     /tmp/cc5eykcM.s:6329   .text:0000000000002204 .L0 
     /tmp/cc5eykcM.s:6330   .text:0000000000002204 .L0 
     /tmp/cc5eykcM.s:6333   .text:000000000000220c .L0 
     /tmp/cc5eykcM.s:6335   .text:0000000000002210 .L0 
     /tmp/cc5eykcM.s:6336   .text:0000000000002210 .L0 
     /tmp/cc5eykcM.s:6343   .text:0000000000002224 .L0 
     /tmp/cc5eykcM.s:6344   .text:0000000000002224 .L0 
     /tmp/cc5eykcM.s:6348   .text:0000000000002234 .L0 
     /tmp/cc5eykcM.s:6349   .text:0000000000002234 .L0 
     /tmp/cc5eykcM.s:6353   .text:0000000000002244 .L0 
     /tmp/cc5eykcM.s:6354   .text:0000000000002248 .L0 
     /tmp/cc5eykcM.s:6356   .text:000000000000224c .L0 
     /tmp/cc5eykcM.s:6357   .text:000000000000224c .L0 
     /tmp/cc5eykcM.s:6359   .text:0000000000002250 .L0 
     /tmp/cc5eykcM.s:6361   .text:0000000000002254 .L0 
     /tmp/cc5eykcM.s:6364   .text:0000000000002258 .L0 
     /tmp/cc5eykcM.s:6367   .text:000000000000225c .L0 
     /tmp/cc5eykcM.s:6370   .text:0000000000002260 .L0 
     /tmp/cc5eykcM.s:6372   .text:0000000000002264 .L0 
     /tmp/cc5eykcM.s:6392   .text:0000000000002264 _Z16test_performansiv
     /tmp/cc5eykcM.s:6395   .text:0000000000002264 .L0 
     /tmp/cc5eykcM.s:6396   .text:0000000000002264 .L0 
     /tmp/cc5eykcM.s:6397   .text:0000000000002268 .L0 
     /tmp/cc5eykcM.s:6402   .text:0000000000002278 .L0 
     /tmp/cc5eykcM.s:6403   .text:0000000000002278 .L0 
     /tmp/cc5eykcM.s:6404   .text:0000000000002278 .L0 
     /tmp/cc5eykcM.s:6405   .text:0000000000002278 .L0 
     /tmp/cc5eykcM.s:6407   .text:000000000000227c .L0 
     /tmp/cc5eykcM.s:6409   .text:000000000000227c .L0 
     /tmp/cc5eykcM.s:6410   .text:000000000000227c .L0 
     /tmp/cc5eykcM.s:6419   .text:000000000000229c .L0 
     /tmp/cc5eykcM.s:6420   .text:000000000000229c .L0 
     /tmp/cc5eykcM.s:6425   .text:00000000000022ac .L0 
     /tmp/cc5eykcM.s:6426   .text:00000000000022ac .L0 
     /tmp/cc5eykcM.s:6431   .text:00000000000022b8 .L0 
     /tmp/cc5eykcM.s:6432   .text:00000000000022b8 .L0 
GAS LISTING /tmp/cc5eykcM.s 			page 207


     /tmp/cc5eykcM.s:6436   .text:00000000000022bc .L0 
     /tmp/cc5eykcM.s:6440   .text:00000000000022c8 .L0 
     /tmp/cc5eykcM.s:6441   .text:00000000000022c8 .L0 
     /tmp/cc5eykcM.s:6445   .text:00000000000022d4 .L0 
     /tmp/cc5eykcM.s:6992   .bss:0000000000000038 arr
     /tmp/cc5eykcM.s:6450   .text:00000000000022e8 .L0 
     /tmp/cc5eykcM.s:6457   .text:00000000000022f0 .L0 
     /tmp/cc5eykcM.s:6458   .text:00000000000022f0 .L0 
     /tmp/cc5eykcM.s:6462   .text:0000000000002300 .L0 
     /tmp/cc5eykcM.s:6463   .text:0000000000002300 .L0 
     /tmp/cc5eykcM.s:6467   .text:000000000000230c .L0 
     /tmp/cc5eykcM.s:6468   .text:000000000000230c .L0 
     /tmp/cc5eykcM.s:6474   .text:0000000000002320 .L0 
     /tmp/cc5eykcM.s:6475   .text:0000000000002320 .L0 
     /tmp/cc5eykcM.s:6482   .text:0000000000002328 .L0 
     /tmp/cc5eykcM.s:6483   .text:0000000000002328 .L0 
     /tmp/cc5eykcM.s:6488   .text:0000000000002338 .L0 
     /tmp/cc5eykcM.s:6489   .text:0000000000002338 .L0 
     /tmp/cc5eykcM.s:6495   .text:000000000000234c .L0 
     /tmp/cc5eykcM.s:6496   .text:000000000000234c .L0 
     /tmp/cc5eykcM.s:6500   .text:000000000000235c .L0 
     /tmp/cc5eykcM.s:6501   .text:000000000000235c .L0 
     /tmp/cc5eykcM.s:6505   .text:000000000000236c .L0 
     /tmp/cc5eykcM.s:6511   .text:0000000000002380 .L0 
     /tmp/cc5eykcM.s:6512   .text:0000000000002380 .L0 
     /tmp/cc5eykcM.s:6518   .text:0000000000002390 .L0 
     /tmp/cc5eykcM.s:6522   .text:0000000000002394 .L0 
     /tmp/cc5eykcM.s:6527   .text:00000000000023a0 .L0 
     /tmp/cc5eykcM.s:6528   .text:00000000000023a0 .L0 
     /tmp/cc5eykcM.s:6532   .text:00000000000023b0 .L0 
     /tmp/cc5eykcM.s:6537   .text:00000000000023c0 .L0 
     /tmp/cc5eykcM.s:6545   .text:00000000000023cc .L0 
     /tmp/cc5eykcM.s:6546   .text:00000000000023cc .L0 
     /tmp/cc5eykcM.s:6550   .text:00000000000023dc .L0 
     /tmp/cc5eykcM.s:6551   .text:00000000000023dc .L0 
     /tmp/cc5eykcM.s:6555   .text:00000000000023e8 .L0 
     /tmp/cc5eykcM.s:6556   .text:00000000000023ec .L0 
     /tmp/cc5eykcM.s:6558   .text:00000000000023f0 .L0 
     /tmp/cc5eykcM.s:6559   .text:00000000000023f0 .L0 
     /tmp/cc5eykcM.s:6561   .text:00000000000023f4 .L0 
     /tmp/cc5eykcM.s:6564   .text:00000000000023f8 .L0 
     /tmp/cc5eykcM.s:6567   .text:00000000000023fc .L0 
     /tmp/cc5eykcM.s:6569   .text:0000000000002400 .L0 
     /tmp/cc5eykcM.s:6583   .text:0000000000002400 _Z23test_razlika_u_adresamav
     /tmp/cc5eykcM.s:6586   .text:0000000000002400 .L0 
     /tmp/cc5eykcM.s:6587   .text:0000000000002400 .L0 
     /tmp/cc5eykcM.s:6588   .text:0000000000002404 .L0 
     /tmp/cc5eykcM.s:6596   .text:0000000000002420 .L0 
     /tmp/cc5eykcM.s:6597   .text:0000000000002420 .L0 
     /tmp/cc5eykcM.s:6598   .text:0000000000002420 .L0 
     /tmp/cc5eykcM.s:6599   .text:0000000000002420 .L0 
     /tmp/cc5eykcM.s:6600   .text:0000000000002420 .L0 
     /tmp/cc5eykcM.s:6601   .text:0000000000002420 .L0 
     /tmp/cc5eykcM.s:6602   .text:0000000000002420 .L0 
     /tmp/cc5eykcM.s:6604   .text:0000000000002424 .L0 
     /tmp/cc5eykcM.s:6606   .text:0000000000002424 .L0 
     /tmp/cc5eykcM.s:6607   .text:0000000000002424 .L0 
GAS LISTING /tmp/cc5eykcM.s 			page 208


     /tmp/cc5eykcM.s:6616   .text:0000000000002444 .L0 
     /tmp/cc5eykcM.s:6617   .text:0000000000002444 .L0 
     /tmp/cc5eykcM.s:6622   .text:0000000000002454 .L0 
     /tmp/cc5eykcM.s:6623   .text:0000000000002454 .L0 
     /tmp/cc5eykcM.s:6628   .text:0000000000002460 .L0 
     /tmp/cc5eykcM.s:6631   .text:0000000000002464 .L0 
     /tmp/cc5eykcM.s:6637   .text:000000000000246c .L0 
     /tmp/cc5eykcM.s:6638   .text:000000000000246c .L0 
     /tmp/cc5eykcM.s:6642   .text:000000000000247c .L0 
     /tmp/cc5eykcM.s:6643   .text:000000000000247c .L0 
     /tmp/cc5eykcM.s:6649   .text:0000000000002490 .L0 
     /tmp/cc5eykcM.s:6650   .text:0000000000002490 .L0 
     /tmp/cc5eykcM.s:6655   .text:00000000000024a0 .L0 
     /tmp/cc5eykcM.s:6659   .text:00000000000024a4 .L0 
     /tmp/cc5eykcM.s:6660   .text:00000000000024a4 .L0 
     /tmp/cc5eykcM.s:6663   .text:00000000000024a8 .L0 
     /tmp/cc5eykcM.s:6667   .text:00000000000024ac .L0 
     /tmp/cc5eykcM.s:6671   .text:00000000000024b8 .L0 
     /tmp/cc5eykcM.s:6672   .text:00000000000024b8 .L0 
     /tmp/cc5eykcM.s:6677   .text:00000000000024c8 .L0 
     /tmp/cc5eykcM.s:6678   .text:00000000000024c8 .L0 
     /tmp/cc5eykcM.s:6681   .text:00000000000024d0 .L0 
     /tmp/cc5eykcM.s:6684   .text:00000000000024d8 .L0 
     /tmp/cc5eykcM.s:6688   .text:00000000000024e0 .L0 
     /tmp/cc5eykcM.s:6689   .text:00000000000024e0 .L0 
     /tmp/cc5eykcM.s:6693   .text:00000000000024f0 .L0 
     /tmp/cc5eykcM.s:6694   .text:00000000000024f0 .L0 
     /tmp/cc5eykcM.s:6700   .text:0000000000002504 .L0 
     /tmp/cc5eykcM.s:6701   .text:0000000000002504 .L0 
     /tmp/cc5eykcM.s:6708   .text:0000000000002518 .L0 
     /tmp/cc5eykcM.s:6709   .text:0000000000002518 .L0 
     /tmp/cc5eykcM.s:6713   .text:0000000000002528 .L0 
     /tmp/cc5eykcM.s:6714   .text:0000000000002528 .L0 
     /tmp/cc5eykcM.s:6718   .text:0000000000002538 .L0 
     /tmp/cc5eykcM.s:6719   .text:0000000000002538 .L0 
     /tmp/cc5eykcM.s:6723   .text:0000000000002544 .L0 
     /tmp/cc5eykcM.s:6724   .text:0000000000002548 .L0 
     /tmp/cc5eykcM.s:6726   .text:000000000000254c .L0 
     /tmp/cc5eykcM.s:6727   .text:000000000000254c .L0 
     /tmp/cc5eykcM.s:6729   .text:0000000000002550 .L0 
     /tmp/cc5eykcM.s:6731   .text:0000000000002554 .L0 
     /tmp/cc5eykcM.s:6734   .text:0000000000002558 .L0 
     /tmp/cc5eykcM.s:6737   .text:000000000000255c .L0 
     /tmp/cc5eykcM.s:6739   .text:0000000000002560 .L0 
     /tmp/cc5eykcM.s:6742   .text:0000000000002564 .L0 
     /tmp/cc5eykcM.s:6744   .text:0000000000002568 .L0 
     /tmp/cc5eykcM.s:6750   .text:0000000000002568 _Z8userMainv
     /tmp/cc5eykcM.s:6754   .text:0000000000002568 .L0 
     /tmp/cc5eykcM.s:6755   .text:0000000000002568 .L0 
     /tmp/cc5eykcM.s:6756   .text:000000000000256c .L0 
     /tmp/cc5eykcM.s:6759   .text:0000000000002574 .L0 
     /tmp/cc5eykcM.s:6760   .text:0000000000002574 .L0 
     /tmp/cc5eykcM.s:6762   .text:0000000000002578 .L0 
     /tmp/cc5eykcM.s:6764   .text:0000000000002578 .L0 
     /tmp/cc5eykcM.s:6765   .text:0000000000002578 .L0 
     /tmp/cc5eykcM.s:6768   .text:0000000000002580 .L0 
     /tmp/cc5eykcM.s:6769   .text:0000000000002584 .L0 
GAS LISTING /tmp/cc5eykcM.s 			page 209


     /tmp/cc5eykcM.s:6771   .text:0000000000002588 .L0 
     /tmp/cc5eykcM.s:6772   .text:0000000000002588 .L0 
     /tmp/cc5eykcM.s:6774   .text:000000000000258c .L0 
     /tmp/cc5eykcM.s:6776   .text:0000000000002590 .L0 
     /tmp/cc5eykcM.s:6942   .bss:0000000000000008 _ZN28ConsumerProducerCPP_API_test9threadEndE
     /tmp/cc5eykcM.s:6988   .bss:0000000000000030 _ZN28ConsumerProducerCPP_API_test10waitForAllE
     /tmp/cc5eykcM.s:6947   .bss:0000000000000010 _ZN22ThreadSleep_C_API_test8finishedE
     /tmp/cc5eykcM.s:6979   .bss:0000000000000020 _ZN34ConsumerProducer_CPP_Sync_API_test9threadEndE
     /tmp/cc5eykcM.s:6984   .bss:0000000000000028 _ZN34ConsumerProducer_CPP_Sync_API_test10waitForAllE
     /tmp/cc5eykcM.s:6938   .bss:0000000000000004 _ZN27ConsumerProducer_C_API_test9threadEndE
     /tmp/cc5eykcM.s:6975   .bss:0000000000000018 _ZN27ConsumerProducer_C_API_test10waitForAllE
     /tmp/cc5eykcM.s:6971   .bss:0000000000000017 _ZN20Threads_CPP_API_test9finishedDE
     /tmp/cc5eykcM.s:6967   .bss:0000000000000016 _ZN20Threads_CPP_API_test9finishedCE
     /tmp/cc5eykcM.s:6963   .bss:0000000000000015 _ZN20Threads_CPP_API_test9finishedBE
     /tmp/cc5eykcM.s:6959   .bss:0000000000000014 _ZN20Threads_CPP_API_test9finishedAE
     /tmp/cc5eykcM.s:6925   .bss:0000000000000000 _ZN18Threads_C_API_test9finishedEE
     /tmp/cc5eykcM.s:6955   .bss:0000000000000013 _ZN18Threads_C_API_test9finishedDE
     /tmp/cc5eykcM.s:6951   .bss:0000000000000012 _ZN18Threads_C_API_test9finishedCE
     /tmp/cc5eykcM.s:6933   .bss:0000000000000002 _ZN18Threads_C_API_test9finishedBE
     /tmp/cc5eykcM.s:6929   .bss:0000000000000001 _ZN18Threads_C_API_test9finishedAE
     /tmp/cc5eykcM.s:6922   .bss:0000000000000000 .LANCHOR0
     /tmp/cc5eykcM.s:7003   .text:0000000000002590 .L0 
     /tmp/cc5eykcM.s:365    .text._ZN20Threads_CPP_API_test7WorkerAD2Ev:0000000000000034 .L0 
     /tmp/cc5eykcM.s:412    .text._ZN20Threads_CPP_API_test7WorkerAD0Ev:000000000000004c .L0 
     /tmp/cc5eykcM.s:449    .text._ZN20Threads_CPP_API_test7WorkerBD2Ev:0000000000000034 .L0 
     /tmp/cc5eykcM.s:496    .text._ZN20Threads_CPP_API_test7WorkerBD0Ev:000000000000004c .L0 
     /tmp/cc5eykcM.s:533    .text._ZN20Threads_CPP_API_test7WorkerCD2Ev:0000000000000034 .L0 
     /tmp/cc5eykcM.s:580    .text._ZN20Threads_CPP_API_test7WorkerCD0Ev:000000000000004c .L0 
     /tmp/cc5eykcM.s:617    .text._ZN20Threads_CPP_API_test7WorkerDD2Ev:0000000000000034 .L0 
     /tmp/cc5eykcM.s:664    .text._ZN20Threads_CPP_API_test7WorkerDD0Ev:000000000000004c .L0 
     /tmp/cc5eykcM.s:702    .text._ZN34ConsumerProducer_CPP_Sync_API_test8ConsumerD2Ev:0000000000000034 .L0 
     /tmp/cc5eykcM.s:749    .text._ZN34ConsumerProducer_CPP_Sync_API_test8ConsumerD0Ev:000000000000004c .L0 
     /tmp/cc5eykcM.s:786    .text._ZN34ConsumerProducer_CPP_Sync_API_test8ProducerD2Ev:0000000000000034 .L0 
     /tmp/cc5eykcM.s:833    .text._ZN34ConsumerProducer_CPP_Sync_API_test8ProducerD0Ev:000000000000004c .L0 
     /tmp/cc5eykcM.s:870    .text._ZN34ConsumerProducer_CPP_Sync_API_test16ProducerKeyboardD2Ev:0000000000000034 .L0 
     /tmp/cc5eykcM.s:917    .text._ZN34ConsumerProducer_CPP_Sync_API_test16ProducerKeyboardD0Ev:000000000000004c .L0 
     /tmp/cc5eykcM.s:955    .text._ZN28ConsumerProducerCPP_API_test8ConsumerD2Ev:0000000000000034 .L0 
     /tmp/cc5eykcM.s:1002   .text._ZN28ConsumerProducerCPP_API_test8ConsumerD0Ev:000000000000004c .L0 
     /tmp/cc5eykcM.s:1039   .text._ZN28ConsumerProducerCPP_API_test16ProducerKeyboradD2Ev:0000000000000034 .L0 
     /tmp/cc5eykcM.s:1086   .text._ZN28ConsumerProducerCPP_API_test16ProducerKeyboradD0Ev:000000000000004c .L0 
     /tmp/cc5eykcM.s:1123   .text._ZN28ConsumerProducerCPP_API_test8ProducerD2Ev:0000000000000034 .L0 
     /tmp/cc5eykcM.s:1170   .text._ZN28ConsumerProducerCPP_API_test8ProducerD0Ev:000000000000004c .L0 
     /tmp/cc5eykcM.s:1580   .text._ZN28ConsumerProducerCPP_API_test16ProducerKeyborad3runEv:0000000000000084 .L0 
     /tmp/cc5eykcM.s:1704   .text._ZN28ConsumerProducerCPP_API_test8Consumer3runEv:00000000000000d0 .L0 
     /tmp/cc5eykcM.s:1885   .text._ZN28ConsumerProducerCPP_API_test8Producer3runEv:0000000000000094 .L0 
     /tmp/cc5eykcM.s:2679   .text._ZN20Threads_CPP_API_test7WorkerA3runEv:000000000000002c .L0 
     /tmp/cc5eykcM.s:2843   .text._ZN20Threads_CPP_API_test7WorkerB3runEv:000000000000002c .L0 
     /tmp/cc5eykcM.s:3059   .text._ZN20Threads_CPP_API_test7WorkerC3runEv:000000000000002c .L0 
     /tmp/cc5eykcM.s:3249   .text._ZN20Threads_CPP_API_test7WorkerD3runEv:000000000000002c .L0 
     /tmp/cc5eykcM.s:3717   .text._ZN6BufferdlEPv:00000000000000bc .L0 
     /tmp/cc5eykcM.s:4414   .text._ZN34ConsumerProducer_CPP_Sync_API_test16ProducerKeyboard3runEv:000000000000002c .L0 
     /tmp/cc5eykcM.s:4537   .text._ZN34ConsumerProducer_CPP_Sync_API_test8Producer3runEv:000000000000002c .L0 
     /tmp/cc5eykcM.s:4717   .text._ZN34ConsumerProducer_CPP_Sync_API_test8Consumer3runEv:000000000000002c .L0 
     /tmp/cc5eykcM.s:8      .rodata.str1.8:0000000000000000 .LC0
     /tmp/cc5eykcM.s:30     .text:0000000000000010 .L0 
     /tmp/cc5eykcM.s:37     .text:0000000000000024 .L0 
     /tmp/cc5eykcM.s:56     .rodata.str1.8:0000000000000010 .LC1
GAS LISTING /tmp/cc5eykcM.s 			page 210


     /tmp/cc5eykcM.s:139    .text:00000000000000a0 .L0 
     /tmp/cc5eykcM.s:59     .rodata.str1.8:0000000000000018 .LC2
     /tmp/cc5eykcM.s:151    .text:00000000000000c4 .L0 
     /tmp/cc5eykcM.s:62     .rodata.str1.8:0000000000000020 .LC3
     /tmp/cc5eykcM.s:166    .text:00000000000000dc .L0 
     /tmp/cc5eykcM.s:172    .text:00000000000000f0 .L0 
     /tmp/cc5eykcM.s:192    .rodata.str1.8:0000000000000030 .LC4
     /tmp/cc5eykcM.s:272    .text:000000000000016c .L0 
     /tmp/cc5eykcM.s:284    .text:0000000000000190 .L0 
     /tmp/cc5eykcM.s:195    .rodata.str1.8:0000000000000038 .LC5
     /tmp/cc5eykcM.s:299    .text:00000000000001a8 .L0 
     /tmp/cc5eykcM.s:305    .text:00000000000001bc .L0 
     /tmp/cc5eykcM.s:1245   .text:0000000000000258 .L0 
     /tmp/cc5eykcM.s:1313   .text:00000000000002c0 .L0 
     /tmp/cc5eykcM.s:1413   .text:0000000000000368 .L0 
     /tmp/cc5eykcM.s:1706   .rodata.str1.8:0000000000000048 .LC6
     /tmp/cc5eykcM.s:1749   .text:0000000000000430 .L0 
     /tmp/cc5eykcM.s:1709   .rodata.str1.8:0000000000000050 .LC7
     /tmp/cc5eykcM.s:1761   .text:0000000000000454 .L0 
     /tmp/cc5eykcM.s:1780   .text:0000000000000480 .L0 
     /tmp/cc5eykcM.s:1959   .rodata.str1.8:0000000000000058 .LC8
     /tmp/cc5eykcM.s:2000   .text:0000000000000540 .L0 
     /tmp/cc5eykcM.s:2012   .text:0000000000000564 .L0 
     /tmp/cc5eykcM.s:1962   .rodata.str1.8:0000000000000060 .LC9
     /tmp/cc5eykcM.s:2027   .text:0000000000000584 .L0 
     /tmp/cc5eykcM.s:1965   .rodata.str1.8:0000000000000070 .LC10
     /tmp/cc5eykcM.s:2052   .text:00000000000005a4 .L0 
     /tmp/cc5eykcM.s:2064   .text:00000000000005c8 .L0 
     /tmp/cc5eykcM.s:1968   .rodata.str1.8:0000000000000078 .LC11
     /tmp/cc5eykcM.s:2076   .text:00000000000005e8 .L0 
     /tmp/cc5eykcM.s:2089   .text:000000000000060c .L0 
     /tmp/cc5eykcM.s:2096   .text:0000000000000620 .L0 
     /tmp/cc5eykcM.s:2108   .text:0000000000000644 .L0 
     /tmp/cc5eykcM.s:2123   .text:0000000000000664 .L0 
     /tmp/cc5eykcM.s:2129   .text:0000000000000678 .L0 
     /tmp/cc5eykcM.s:2154   .rodata.str1.8:0000000000000088 .LC12
     /tmp/cc5eykcM.s:2195   .text:00000000000006c0 .L0 
     /tmp/cc5eykcM.s:2207   .text:00000000000006e4 .L0 
     /tmp/cc5eykcM.s:2157   .rodata.str1.8:0000000000000090 .LC13
     /tmp/cc5eykcM.s:2222   .text:0000000000000704 .L0 
     /tmp/cc5eykcM.s:2160   .rodata.str1.8:00000000000000a0 .LC14
     /tmp/cc5eykcM.s:2245   .text:0000000000000730 .L0 
     /tmp/cc5eykcM.s:2258   .text:0000000000000754 .L0 
     /tmp/cc5eykcM.s:2265   .text:0000000000000768 .L0 
     /tmp/cc5eykcM.s:2277   .text:000000000000078c .L0 
     /tmp/cc5eykcM.s:2163   .rodata.str1.8:00000000000000b0 .LC15
     /tmp/cc5eykcM.s:2292   .text:00000000000007ac .L0 
     /tmp/cc5eykcM.s:2298   .text:00000000000007c0 .L0 
     /tmp/cc5eykcM.s:2357   .text:00000000000007fc .L0 
     /tmp/cc5eykcM.s:2323   .rodata.str1.8:00000000000000c0 .LC16
     /tmp/cc5eykcM.s:2363   .text:0000000000000810 .L0 
     /tmp/cc5eykcM.s:2369   .text:0000000000000824 .L0 
     /tmp/cc5eykcM.s:2326   .rodata.str1.8:00000000000000d8 .LC17
     /tmp/cc5eykcM.s:2375   .text:0000000000000838 .L0 
     /tmp/cc5eykcM.s:2381   .text:000000000000084c .L0 
     /tmp/cc5eykcM.s:2329   .rodata.str1.8:00000000000000f0 .LC18
     /tmp/cc5eykcM.s:2387   .text:0000000000000860 .L0 
GAS LISTING /tmp/cc5eykcM.s 			page 211


     /tmp/cc5eykcM.s:2393   .text:0000000000000874 .L0 
     /tmp/cc5eykcM.s:2332   .rodata.str1.8:0000000000000108 .LC19
     /tmp/cc5eykcM.s:2399   .text:0000000000000888 .L0 
     /tmp/cc5eykcM.s:2405   .text:000000000000089c .L0 
     /tmp/cc5eykcM.s:2335   .rodata.str1.8:0000000000000120 .LC20
     /tmp/cc5eykcM.s:2411   .text:00000000000008b0 .L0 
     /tmp/cc5eykcM.s:2423   .text:00000000000008cc .L0 
     /tmp/cc5eykcM.s:2426   .text:00000000000008d8 .L0 
     /tmp/cc5eykcM.s:2429   .text:00000000000008e4 .L0 
     /tmp/cc5eykcM.s:2432   .text:00000000000008f0 .L0 
     /tmp/cc5eykcM.s:2435   .text:00000000000008fc .L0 
     /tmp/cc5eykcM.s:2594   .text:00000000000009e8 .L0 
     /tmp/cc5eykcM.s:2606   .text:0000000000000a0c .L0 
     /tmp/cc5eykcM.s:2621   .text:0000000000000a24 .L0 
     /tmp/cc5eykcM.s:2627   .text:0000000000000a38 .L0 
     /tmp/cc5eykcM.s:2754   .text:0000000000000ab4 .L0 
     /tmp/cc5eykcM.s:2766   .text:0000000000000ad8 .L0 
     /tmp/cc5eykcM.s:2781   .text:0000000000000af0 .L0 
     /tmp/cc5eykcM.s:2787   .text:0000000000000b04 .L0 
     /tmp/cc5eykcM.s:2873   .text:0000000000000b4c .L0 
     /tmp/cc5eykcM.s:2885   .text:0000000000000b70 .L0 
     /tmp/cc5eykcM.s:2900   .text:0000000000000b90 .L0 
     /tmp/cc5eykcM.s:2925   .text:0000000000000bb0 .L0 
     /tmp/cc5eykcM.s:2937   .text:0000000000000bd4 .L0 
     /tmp/cc5eykcM.s:2949   .text:0000000000000bf4 .L0 
     /tmp/cc5eykcM.s:2962   .text:0000000000000c18 .L0 
     /tmp/cc5eykcM.s:2969   .text:0000000000000c2c .L0 
     /tmp/cc5eykcM.s:2981   .text:0000000000000c50 .L0 
     /tmp/cc5eykcM.s:2996   .text:0000000000000c70 .L0 
     /tmp/cc5eykcM.s:3002   .text:0000000000000c84 .L0 
     /tmp/cc5eykcM.s:3089   .text:0000000000000ccc .L0 
     /tmp/cc5eykcM.s:3101   .text:0000000000000cf0 .L0 
     /tmp/cc5eykcM.s:3116   .text:0000000000000d10 .L0 
     /tmp/cc5eykcM.s:3139   .text:0000000000000d3c .L0 
     /tmp/cc5eykcM.s:3152   .text:0000000000000d60 .L0 
     /tmp/cc5eykcM.s:3159   .text:0000000000000d74 .L0 
     /tmp/cc5eykcM.s:3171   .text:0000000000000d98 .L0 
     /tmp/cc5eykcM.s:3186   .text:0000000000000db8 .L0 
     /tmp/cc5eykcM.s:3192   .text:0000000000000dcc .L0 
     /tmp/cc5eykcM.s:3290   .text:0000000000000e28 .L0 
     /tmp/cc5eykcM.s:3300   .text:0000000000000e38 .L0 
     /tmp/cc5eykcM.s:3321   .text:0000000000000e64 .L0 
     /tmp/cc5eykcM.s:3331   .text:0000000000000e74 .L0 
     /tmp/cc5eykcM.s:3352   .text:0000000000000ea0 .L0 
     /tmp/cc5eykcM.s:3362   .text:0000000000000eb0 .L0 
     /tmp/cc5eykcM.s:3383   .text:0000000000000edc .L0 
     /tmp/cc5eykcM.s:3393   .text:0000000000000eec .L0 
     /tmp/cc5eykcM.s:3429   .text:0000000000000f30 .L0 
     /tmp/cc5eykcM.s:3432   .text:0000000000000f3c .L0 
     /tmp/cc5eykcM.s:3435   .text:0000000000000f48 .L0 
     /tmp/cc5eykcM.s:3438   .text:0000000000000f54 .L0 
     /tmp/cc5eykcM.s:3719   .rodata.str1.8:0000000000000138 .LC21
     /tmp/cc5eykcM.s:3775   .text:0000000000001040 .L0 
     /tmp/cc5eykcM.s:3722   .rodata.str1.8:0000000000000158 .LC22
     /tmp/cc5eykcM.s:3795   .text:0000000000001074 .L0 
     /tmp/cc5eykcM.s:3725   .rodata.str1.8:0000000000000178 .LC23
     /tmp/cc5eykcM.s:3813   .text:00000000000010a4 .L0 
GAS LISTING /tmp/cc5eykcM.s 			page 212


     /tmp/cc5eykcM.s:3728   .rodata.str1.8:0000000000000190 .LC24
     /tmp/cc5eykcM.s:3825   .text:00000000000010c8 .L0 
     /tmp/cc5eykcM.s:3731   .rodata.str1.8:00000000000001a8 .LC25
     /tmp/cc5eykcM.s:3837   .text:00000000000010ec .L0 
     /tmp/cc5eykcM.s:3854   .text:0000000000001104 .L0 
     /tmp/cc5eykcM.s:3862   .text:0000000000001114 .L0 
     /tmp/cc5eykcM.s:3734   .rodata.str1.8:00000000000001b0 .LC26
     /tmp/cc5eykcM.s:3882   .text:000000000000113c .L0 
     /tmp/cc5eykcM.s:3737   .rodata.str1.8:00000000000001f0 .LC27
     /tmp/cc5eykcM.s:3891   .text:0000000000001150 .L0 
     /tmp/cc5eykcM.s:3908   .text:0000000000001168 .L0 
     /tmp/cc5eykcM.s:3912   .text:0000000000001170 .L0 
     /tmp/cc5eykcM.s:3914   .text:000000000000117c .L0 
     /tmp/cc5eykcM.s:3941   .text:00000000000011b8 .L0 
     /tmp/cc5eykcM.s:3964   .text:00000000000011d8 .L0 
     /tmp/cc5eykcM.s:3975   .text:00000000000011e8 .L0 
     /tmp/cc5eykcM.s:4013   .text:0000000000001244 .L0 
     /tmp/cc5eykcM.s:4018   .text:0000000000001254 .L0 
     /tmp/cc5eykcM.s:4030   .text:0000000000001270 .L0 
     /tmp/cc5eykcM.s:4058   .text:00000000000012b0 .L0 
     /tmp/cc5eykcM.s:4068   .text:00000000000012cc .L0 
     /tmp/cc5eykcM.s:4085   .text:00000000000012e8 .L0 
     /tmp/cc5eykcM.s:4097   .text:0000000000001300 .L0 
     /tmp/cc5eykcM.s:4115   .text:0000000000001320 .L0 
     /tmp/cc5eykcM.s:4123   .text:0000000000001330 .L0 
     /tmp/cc5eykcM.s:4167   .text:0000000000001370 .L0 
     /tmp/cc5eykcM.s:4171   .text:0000000000001378 .L0 
     /tmp/cc5eykcM.s:4173   .text:0000000000001384 .L0 
     /tmp/cc5eykcM.s:4200   .text:00000000000013c0 .L0 
     /tmp/cc5eykcM.s:4223   .text:00000000000013e0 .L0 
     /tmp/cc5eykcM.s:4344   .text:0000000000001484 .L0 
     /tmp/cc5eykcM.s:4451   .text:00000000000014f4 .L0 
     /tmp/cc5eykcM.s:4589   .text:00000000000015a4 .L0 
     /tmp/cc5eykcM.s:4759   .text:0000000000001688 .L0 
     /tmp/cc5eykcM.s:4779   .text:00000000000016bc .L0 
     /tmp/cc5eykcM.s:4797   .text:00000000000016ec .L0 
     /tmp/cc5eykcM.s:4809   .text:0000000000001710 .L0 
     /tmp/cc5eykcM.s:4821   .text:0000000000001734 .L0 
     /tmp/cc5eykcM.s:4846   .text:0000000000001770 .L0 
     /tmp/cc5eykcM.s:4855   .text:0000000000001784 .L0 
     /tmp/cc5eykcM.s:4881   .text:00000000000017bc .L0 
     /tmp/cc5eykcM.s:4946   .text:0000000000001848 .L0 
     /tmp/cc5eykcM.s:4968   .text:000000000000186c .L0 
     /tmp/cc5eykcM.s:5006   .text:00000000000018bc .L0 
     /tmp/cc5eykcM.s:5063   .text:0000000000001928 .L0 
     /tmp/cc5eykcM.s:5091   .text:0000000000001958 .L0 
     /tmp/cc5eykcM.s:5141   .text:00000000000019b4 .L0 
     /tmp/cc5eykcM.s:5373   .text:0000000000001ae8 .L0 
     /tmp/cc5eykcM.s:5390   .text:0000000000001b0c .L0 
     /tmp/cc5eykcM.s:5394   .text:0000000000001b18 .L0 
     /tmp/cc5eykcM.s:5453   .text:0000000000001b70 .L0 
     /tmp/cc5eykcM.s:5473   .text:0000000000001ba4 .L0 
     /tmp/cc5eykcM.s:5491   .text:0000000000001bd4 .L0 
     /tmp/cc5eykcM.s:5503   .text:0000000000001bf8 .L0 
     /tmp/cc5eykcM.s:5515   .text:0000000000001c1c .L0 
     /tmp/cc5eykcM.s:5540   .text:0000000000001c58 .L0 
     /tmp/cc5eykcM.s:5549   .text:0000000000001c6c .L0 
GAS LISTING /tmp/cc5eykcM.s 			page 213


     /tmp/cc5eykcM.s:5575   .text:0000000000001ca4 .L0 
     /tmp/cc5eykcM.s:5637   .text:0000000000001d30 .L0 
     /tmp/cc5eykcM.s:5658   .text:0000000000001d54 .L0 
     /tmp/cc5eykcM.s:5678   .text:0000000000001d7c .L0 
     /tmp/cc5eykcM.s:5702   .text:0000000000001da4 .L0 
     /tmp/cc5eykcM.s:5736   .text:0000000000001dec .L0 
     /tmp/cc5eykcM.s:5780   .text:0000000000001e38 .L0 
     /tmp/cc5eykcM.s:5792   .text:0000000000001e50 .L0 
     /tmp/cc5eykcM.s:6026   .rodata.str1.8:0000000000000220 .LC28
     /tmp/cc5eykcM.s:6068   .text:0000000000001fb8 .L0 
     /tmp/cc5eykcM.s:6029   .rodata.str1.8:0000000000000228 .LC29
     /tmp/cc5eykcM.s:6075   .text:0000000000001fcc .L0 
     /tmp/cc5eykcM.s:6038   .rodata.str1.8:0000000000000288 .LC32
     /tmp/cc5eykcM.s:6092   .text:0000000000001ff0 .L0 
     /tmp/cc5eykcM.s:6032   .rodata.str1.8:0000000000000278 .LC30
     /tmp/cc5eykcM.s:6111   .text:000000000000201c .L0 
     /tmp/cc5eykcM.s:6035   .rodata.str1.8:0000000000000280 .LC31
     /tmp/cc5eykcM.s:6123   .text:0000000000002040 .L0 
     /tmp/cc5eykcM.s:6141   .text:0000000000002070 .L0 
     /tmp/cc5eykcM.s:6149   .text:0000000000002084 .L0 
     /tmp/cc5eykcM.s:6154   .text:0000000000002094 .L0 
     /tmp/cc5eykcM.s:6216   .text:00000000000020ec .L0 
     /tmp/cc5eykcM.s:6223   .text:0000000000002100 .L0 
     /tmp/cc5eykcM.s:6249   .text:0000000000002130 .L0 
     /tmp/cc5eykcM.s:6269   .text:0000000000002160 .L0 
     /tmp/cc5eykcM.s:6281   .text:0000000000002184 .L0 
     /tmp/cc5eykcM.s:6179   .rodata.str1.8:0000000000000290 .LC33
     /tmp/cc5eykcM.s:6301   .text:00000000000021ac .L0 
     /tmp/cc5eykcM.s:6182   .rodata.str1.8:00000000000002a0 .LC34
     /tmp/cc5eykcM.s:6313   .text:00000000000021d0 .L0 
     /tmp/cc5eykcM.s:6185   .rodata.str1.8:00000000000002b0 .LC35
     /tmp/cc5eykcM.s:6325   .text:00000000000021f4 .L0 
     /tmp/cc5eykcM.s:6336   .text:0000000000002210 .L0 
     /tmp/cc5eykcM.s:6344   .text:0000000000002224 .L0 
     /tmp/cc5eykcM.s:6349   .text:0000000000002234 .L0 
     /tmp/cc5eykcM.s:6413   .text:0000000000002288 .L0 
     /tmp/cc5eykcM.s:6420   .text:000000000000229c .L0 
     /tmp/cc5eykcM.s:6446   .text:00000000000022d8 .L0 
     /tmp/cc5eykcM.s:6377   .rodata.str1.8:00000000000002b8 .LC36
     /tmp/cc5eykcM.s:6458   .text:00000000000022f0 .L0 
     /tmp/cc5eykcM.s:6468   .text:000000000000230c .L0 
     /tmp/cc5eykcM.s:6380   .rodata.str1.8:0000000000000308 .LC37
     /tmp/cc5eykcM.s:6483   .text:0000000000002328 .L0 
     /tmp/cc5eykcM.s:6383   .rodata.str1.8:0000000000000320 .LC38
     /tmp/cc5eykcM.s:6496   .text:000000000000234c .L0 
     /tmp/cc5eykcM.s:6502   .text:0000000000002360 .L0 
     /tmp/cc5eykcM.s:6512   .text:0000000000002380 .L0 
     /tmp/cc5eykcM.s:6529   .text:00000000000023a4 .L0 
     /tmp/cc5eykcM.s:6386   .rodata.str1.8:0000000000000330 .LC39
     /tmp/cc5eykcM.s:6546   .text:00000000000023cc .L0 
     /tmp/cc5eykcM.s:6610   .text:0000000000002430 .L0 
     /tmp/cc5eykcM.s:6617   .text:0000000000002444 .L0 
     /tmp/cc5eykcM.s:6574   .rodata.str1.8:0000000000000380 .LC40
     /tmp/cc5eykcM.s:6638   .text:000000000000246c .L0 
     /tmp/cc5eykcM.s:6650   .text:0000000000002490 .L0 
     /tmp/cc5eykcM.s:6577   .rodata.str1.8:00000000000003a8 .LC41
     /tmp/cc5eykcM.s:6689   .text:00000000000024e0 .L0 
GAS LISTING /tmp/cc5eykcM.s 			page 214


     /tmp/cc5eykcM.s:6701   .text:0000000000002504 .L0 
     /tmp/cc5eykcM.s:6709   .text:0000000000002518 .L0 
     /tmp/cc5eykcM.s:6714   .text:0000000000002528 .L0 
     /tmp/cc5eykcM.s:132    .text:0000000000000098 .L9
     /tmp/cc5eykcM.s:124    .text:0000000000000094 .L5
     /tmp/cc5eykcM.s:92     .text:0000000000000064 .L6
     /tmp/cc5eykcM.s:113    .text:0000000000000080 .L7
     /tmp/cc5eykcM.s:160    .text:00000000000000dc .L4
     /tmp/cc5eykcM.s:104    .text:0000000000000070 .L8
     /tmp/cc5eykcM.s:265    .text:0000000000000164 .L17
     /tmp/cc5eykcM.s:257    .text:0000000000000160 .L13
     /tmp/cc5eykcM.s:225    .text:0000000000000130 .L14
     /tmp/cc5eykcM.s:246    .text:000000000000014c .L15
     /tmp/cc5eykcM.s:293    .text:00000000000001a8 .L12
     /tmp/cc5eykcM.s:237    .text:000000000000013c .L16
     /tmp/cc5eykcM.s:1206   .text:0000000000000210 .L60
     /tmp/cc5eykcM.s:1241   .text:0000000000000254 .L61
     /tmp/cc5eykcM.s:1201   .text:0000000000000208 .L64
     /tmp/cc5eykcM.s:1310   .text:00000000000002c0 .L66
     /tmp/cc5eykcM.s:1341   .text:0000000000000304 .L67
     /tmp/cc5eykcM.s:1305   .text:00000000000002b8 .L70
     /tmp/cc5eykcM.s:1409   .text:0000000000000368 .L72
     /tmp/cc5eykcM.s:1442   .text:00000000000003a8 .L74
     /tmp/cc5eykcM.s:1465   .text:00000000000003d0 .L73
     /tmp/cc5eykcM.s:1395   .text:0000000000000350 .L78
     /tmp/cc5eykcM.s:1403   .text:000000000000035c .L79
     /tmp/cc5eykcM.s:1451   .text:00000000000003b8 .L80
     /tmp/cc5eykcM.s:1771   .text:0000000000000474 .L94
     /tmp/cc5eykcM.s:1741   .text:0000000000000428 .L95
     /tmp/cc5eykcM.s:1930   .text:00000000000004fc .L101
     /tmp/cc5eykcM.s:1947   .text:0000000000000514 .L106
     /tmp/cc5eykcM.s:1917   .text:00000000000004dc .L103
     /tmp/cc5eykcM.s:2020   .text:000000000000057c .L109
     /tmp/cc5eykcM.s:1997   .text:0000000000000540 .L113
     /tmp/cc5eykcM.s:2116   .text:000000000000065c .L111
     /tmp/cc5eykcM.s:2093   .text:0000000000000620 .L114
     /tmp/cc5eykcM.s:2215   .text:00000000000006fc .L117
     /tmp/cc5eykcM.s:2192   .text:00000000000006c0 .L121
     /tmp/cc5eykcM.s:2285   .text:00000000000007a4 .L119
     /tmp/cc5eykcM.s:2262   .text:0000000000000768 .L122
     /tmp/cc5eykcM.s:2420   .text:00000000000008cc .L126
     /tmp/cc5eykcM.s:2415   .text:00000000000008c4 .L124
     /tmp/cc5eykcM.s:2493   .text:0000000000000968 .L128
     /tmp/cc5eykcM.s:2510   .text:0000000000000980 .L133
     /tmp/cc5eykcM.s:2480   .text:0000000000000948 .L130
     /tmp/cc5eykcM.s:2587   .text:00000000000009e0 .L140
     /tmp/cc5eykcM.s:2579   .text:00000000000009dc .L136
     /tmp/cc5eykcM.s:2547   .text:00000000000009ac .L137
     /tmp/cc5eykcM.s:2568   .text:00000000000009c8 .L138
     /tmp/cc5eykcM.s:2615   .text:0000000000000a24 .L135
     /tmp/cc5eykcM.s:2559   .text:00000000000009b8 .L139
     /tmp/cc5eykcM.s:2747   .text:0000000000000aac .L150
     /tmp/cc5eykcM.s:2739   .text:0000000000000aa8 .L146
     /tmp/cc5eykcM.s:2707   .text:0000000000000a78 .L147
     /tmp/cc5eykcM.s:2728   .text:0000000000000a94 .L148
     /tmp/cc5eykcM.s:2775   .text:0000000000000af0 .L145
     /tmp/cc5eykcM.s:2719   .text:0000000000000a84 .L149
GAS LISTING /tmp/cc5eykcM.s 			page 215


     /tmp/cc5eykcM.s:2893   .text:0000000000000b88 .L156
     /tmp/cc5eykcM.s:2870   .text:0000000000000b4c .L160
     /tmp/cc5eykcM.s:2989   .text:0000000000000c68 .L158
     /tmp/cc5eykcM.s:2966   .text:0000000000000c2c .L161
     /tmp/cc5eykcM.s:3109   .text:0000000000000d08 .L166
     /tmp/cc5eykcM.s:3086   .text:0000000000000ccc .L170
     /tmp/cc5eykcM.s:3179   .text:0000000000000db0 .L168
     /tmp/cc5eykcM.s:3156   .text:0000000000000d74 .L171
     /tmp/cc5eykcM.s:3293   .text:0000000000000e34 .L175
     /tmp/cc5eykcM.s:3324   .text:0000000000000e70 .L176
     /tmp/cc5eykcM.s:3355   .text:0000000000000eac .L177
     /tmp/cc5eykcM.s:3386   .text:0000000000000ee8 .L178
     /tmp/cc5eykcM.s:3426   .text:0000000000000f30 .L179
     /tmp/cc5eykcM.s:3400   .text:0000000000000f00 .L180
     /tmp/cc5eykcM.s:3419   .text:0000000000000f28 .L181
     /tmp/cc5eykcM.s:3450   .text:0000000000000f6c .L182
     /tmp/cc5eykcM.s:3512   .text:0000000000000ffc .L174
     /tmp/cc5eykcM.s:3446   .text:0000000000000f68 .L184
     /tmp/cc5eykcM.s:3879   .text:000000000000113c .L220
     /tmp/cc5eykcM.s:3888   .text:0000000000001150 .L221
     /tmp/cc5eykcM.s:3899   .text:0000000000001168 .L222
     /tmp/cc5eykcM.s:3967   .text:00000000000011e4 .L206
     /tmp/cc5eykcM.s:3895   .text:0000000000001160 .L202
     /tmp/cc5eykcM.s:4129   .text:0000000000001344 .L200
     /tmp/cc5eykcM.s:3937   .text:00000000000011b4 .L205
     /tmp/cc5eykcM.s:3856   .text:0000000000001110 .L204
     /tmp/cc5eykcM.s:4043   .text:0000000000001294 .L209
     /tmp/cc5eykcM.s:4070   .text:00000000000012d8 .L207
     /tmp/cc5eykcM.s:4028   .text:0000000000001270 .L217
     /tmp/cc5eykcM.s:4031   .text:0000000000001278 .L208
     /tmp/cc5eykcM.s:4093   .text:0000000000001300 .L210
     /tmp/cc5eykcM.s:4080   .text:00000000000012e4 .L211
     /tmp/cc5eykcM.s:4126   .text:0000000000001340 .L212
     /tmp/cc5eykcM.s:4157   .text:0000000000001370 .L223
     /tmp/cc5eykcM.s:4196   .text:00000000000013bc .L214
     /tmp/cc5eykcM.s:4117   .text:000000000000132c .L213
     /tmp/cc5eykcM.s:4305   .text:000000000000143c .L225
     /tmp/cc5eykcM.s:4340   .text:0000000000001480 .L226
     /tmp/cc5eykcM.s:4300   .text:0000000000001434 .L229
     /tmp/cc5eykcM.s:4448   .text:00000000000014f4 .L233
     /tmp/cc5eykcM.s:4479   .text:0000000000001538 .L234
     /tmp/cc5eykcM.s:4443   .text:00000000000014ec .L237
     /tmp/cc5eykcM.s:4585   .text:00000000000015a4 .L241
     /tmp/cc5eykcM.s:4618   .text:00000000000015e4 .L243
     /tmp/cc5eykcM.s:4643   .text:0000000000001610 .L242
     /tmp/cc5eykcM.s:4571   .text:000000000000158c .L247
     /tmp/cc5eykcM.s:4579   .text:0000000000001598 .L248
     /tmp/cc5eykcM.s:4627   .text:00000000000015f4 .L249
     /tmp/cc5eykcM.s:4843   .text:0000000000001770 .L285
     /tmp/cc5eykcM.s:4852   .text:0000000000001784 .L286
     /tmp/cc5eykcM.s:4862   .text:000000000000179c .L256
     /tmp/cc5eykcM.s:4859   .text:0000000000001794 .L254
     /tmp/cc5eykcM.s:5164   .text:00000000000019ec .L252
     /tmp/cc5eykcM.s:4879   .text:00000000000017bc .L257
     /tmp/cc5eykcM.s:4950   .text:0000000000001858 .L258
     /tmp/cc5eykcM.s:4991   .text:00000000000018a0 .L264
     /tmp/cc5eykcM.s:5075   .text:0000000000001948 .L259
GAS LISTING /tmp/cc5eykcM.s 			page 216


     /tmp/cc5eykcM.s:5035   .text:00000000000018fc .L260
     /tmp/cc5eykcM.s:4972   .text:000000000000187c .L261
     /tmp/cc5eykcM.s:4964   .text:000000000000186c .L287
     /tmp/cc5eykcM.s:5067   .text:0000000000001938 .L263
     /tmp/cc5eykcM.s:4979   .text:0000000000001888 .L262
     /tmp/cc5eykcM.s:5099   .text:0000000000001970 .L278
     /tmp/cc5eykcM.s:5086   .text:0000000000001954 .L266
     /tmp/cc5eykcM.s:5111   .text:000000000000197c .L265
     /tmp/cc5eykcM.s:5127   .text:00000000000019a0 .L267
     /tmp/cc5eykcM.s:5107   .text:0000000000001978 .L268
     /tmp/cc5eykcM.s:5138   .text:00000000000019b4 .L269
     /tmp/cc5eykcM.s:5149   .text:00000000000019cc .L270
     /tmp/cc5eykcM.s:5161   .text:00000000000019e8 .L271
     /tmp/cc5eykcM.s:5381   .text:0000000000001b04 .L290
     /tmp/cc5eykcM.s:5366   .text:0000000000001adc .L293
     /tmp/cc5eykcM.s:5385   .text:0000000000001b0c .L291
     /tmp/cc5eykcM.s:5537   .text:0000000000001c58 .L325
     /tmp/cc5eykcM.s:5546   .text:0000000000001c6c .L326
     /tmp/cc5eykcM.s:5556   .text:0000000000001c84 .L298
     /tmp/cc5eykcM.s:5553   .text:0000000000001c7c .L296
     /tmp/cc5eykcM.s:5855   .text:0000000000001ecc .L294
     /tmp/cc5eykcM.s:5573   .text:0000000000001ca4 .L299
     /tmp/cc5eykcM.s:5641   .text:0000000000001d40 .L300
     /tmp/cc5eykcM.s:5682   .text:0000000000001d8c .L301
     /tmp/cc5eykcM.s:5721   .text:0000000000001dd0 .L304
     /tmp/cc5eykcM.s:5762   .text:0000000000001e28 .L302
     /tmp/cc5eykcM.s:5706   .text:0000000000001db4 .L303
     /tmp/cc5eykcM.s:5698   .text:0000000000001da4 .L327
     /tmp/cc5eykcM.s:5788   .text:0000000000001e50 .L305
     /tmp/cc5eykcM.s:5775   .text:0000000000001e34 .L306
     /tmp/cc5eykcM.s:5800   .text:0000000000001e68 .L307
     /tmp/cc5eykcM.s:5813   .text:0000000000001e74 .L310
     /tmp/cc5eykcM.s:5829   .text:0000000000001e98 .L308
     /tmp/cc5eykcM.s:5807   .text:0000000000001e70 .L309
     /tmp/cc5eykcM.s:5840   .text:0000000000001eac .L311
     /tmp/cc5eykcM.s:5852   .text:0000000000001ec8 .L312
     /tmp/cc5eykcM.s:6099   .text:0000000000002004 .L332
     /tmp/cc5eykcM.s:6145   .text:0000000000002084 .L329
     /tmp/cc5eykcM.s:6089   .text:0000000000001ff0 .L330
     /tmp/cc5eykcM.s:6095   .text:0000000000002000 .L331
     /tmp/cc5eykcM.s:6256   .text:0000000000002144 .L339
     /tmp/cc5eykcM.s:6297   .text:00000000000021ac .L336
     /tmp/cc5eykcM.s:6340   .text:0000000000002224 .L335
     /tmp/cc5eykcM.s:6240   .text:0000000000002128 .L340
     /tmp/cc5eykcM.s:6246   .text:0000000000002130 .L337
     /tmp/cc5eykcM.s:6252   .text:0000000000002140 .L338
     /tmp/cc5eykcM.s:6454   .text:00000000000022f0 .L343
     /tmp/cc5eykcM.s:6434   .text:00000000000022bc .L344
     /tmp/cc5eykcM.s:6520   .text:0000000000002394 .L347
     /tmp/cc5eykcM.s:6541   .text:00000000000023cc .L345
     /tmp/cc5eykcM.s:6515   .text:0000000000002390 .L346
     /tmp/cc5eykcM.s:6479   .text:0000000000002328 .L349
     /tmp/cc5eykcM.s:6665   .text:00000000000024ac .L354
     /tmp/cc5eykcM.s:6686   .text:00000000000024e0 .L356
     /tmp/cc5eykcM.s:6705   .text:0000000000002518 .L351
     /tmp/cc5eykcM.s:6653   .text:00000000000024a0 .L352
     /tmp/cc5eykcM.s:6634   .text:000000000000246c .L357
GAS LISTING /tmp/cc5eykcM.s 			page 217


     /tmp/cc5eykcM.s:6656   .text:00000000000024a4 .L353
     /tmp/cc5eykcM.s:347    .text._ZN20Threads_CPP_API_test7WorkerAD2Ev:0000000000000010 .L0 
     /tmp/cc5eykcM.s:389    .text._ZN20Threads_CPP_API_test7WorkerAD0Ev:0000000000000018 .L0 
     /tmp/cc5eykcM.s:431    .text._ZN20Threads_CPP_API_test7WorkerBD2Ev:0000000000000010 .L0 
     /tmp/cc5eykcM.s:473    .text._ZN20Threads_CPP_API_test7WorkerBD0Ev:0000000000000018 .L0 
     /tmp/cc5eykcM.s:515    .text._ZN20Threads_CPP_API_test7WorkerCD2Ev:0000000000000010 .L0 
     /tmp/cc5eykcM.s:557    .text._ZN20Threads_CPP_API_test7WorkerCD0Ev:0000000000000018 .L0 
     /tmp/cc5eykcM.s:599    .text._ZN20Threads_CPP_API_test7WorkerDD2Ev:0000000000000010 .L0 
     /tmp/cc5eykcM.s:641    .text._ZN20Threads_CPP_API_test7WorkerDD0Ev:0000000000000018 .L0 
     /tmp/cc5eykcM.s:684    .text._ZN34ConsumerProducer_CPP_Sync_API_test8ConsumerD2Ev:0000000000000010 .L0 
     /tmp/cc5eykcM.s:726    .text._ZN34ConsumerProducer_CPP_Sync_API_test8ConsumerD0Ev:0000000000000018 .L0 
     /tmp/cc5eykcM.s:768    .text._ZN34ConsumerProducer_CPP_Sync_API_test8ProducerD2Ev:0000000000000010 .L0 
     /tmp/cc5eykcM.s:810    .text._ZN34ConsumerProducer_CPP_Sync_API_test8ProducerD0Ev:0000000000000018 .L0 
     /tmp/cc5eykcM.s:852    .text._ZN34ConsumerProducer_CPP_Sync_API_test16ProducerKeyboardD2Ev:0000000000000010 .L0 
     /tmp/cc5eykcM.s:894    .text._ZN34ConsumerProducer_CPP_Sync_API_test16ProducerKeyboardD0Ev:0000000000000018 .L0 
     /tmp/cc5eykcM.s:937    .text._ZN28ConsumerProducerCPP_API_test8ConsumerD2Ev:0000000000000010 .L0 
     /tmp/cc5eykcM.s:979    .text._ZN28ConsumerProducerCPP_API_test8ConsumerD0Ev:0000000000000018 .L0 
     /tmp/cc5eykcM.s:1021   .text._ZN28ConsumerProducerCPP_API_test16ProducerKeyboradD2Ev:0000000000000010 .L0 
     /tmp/cc5eykcM.s:1063   .text._ZN28ConsumerProducerCPP_API_test16ProducerKeyboradD0Ev:0000000000000018 .L0 
     /tmp/cc5eykcM.s:1105   .text._ZN28ConsumerProducerCPP_API_test8ProducerD2Ev:0000000000000010 .L0 
     /tmp/cc5eykcM.s:1147   .text._ZN28ConsumerProducerCPP_API_test8ProducerD0Ev:0000000000000018 .L0 
     /tmp/cc5eykcM.s:1549   .text._ZN28ConsumerProducerCPP_API_test16ProducerKeyborad3runEv:0000000000000044 .L0 
     /tmp/cc5eykcM.s:1545   .text._ZN28ConsumerProducerCPP_API_test16ProducerKeyborad3runEv:0000000000000040 .L82
     /tmp/cc5eykcM.s:1523   .text._ZN28ConsumerProducerCPP_API_test16ProducerKeyborad3runEv:0000000000000018 .L83
     /tmp/cc5eykcM.s:1621   .text._ZN28ConsumerProducerCPP_API_test8Consumer3runEv:0000000000000034 .L0 
     /tmp/cc5eykcM.s:1617   .text._ZN28ConsumerProducerCPP_API_test8Consumer3runEv:0000000000000034 .L86
     /tmp/cc5eykcM.s:1666   .text._ZN28ConsumerProducerCPP_API_test8Consumer3runEv:0000000000000090 .L87
     /tmp/cc5eykcM.s:1610   .text._ZN28ConsumerProducerCPP_API_test8Consumer3runEv:0000000000000028 .L91
     /tmp/cc5eykcM.s:1650   .text._ZN28ConsumerProducerCPP_API_test8Consumer3runEv:0000000000000074 .L92
     /tmp/cc5eykcM.s:1830   .text._ZN28ConsumerProducerCPP_API_test8Producer3runEv:0000000000000020 .L0 
     /tmp/cc5eykcM.s:1860   .text._ZN28ConsumerProducerCPP_API_test8Producer3runEv:000000000000006c .L98
     /tmp/cc5eykcM.s:1827   .text._ZN28ConsumerProducerCPP_API_test8Producer3runEv:0000000000000020 .L99
     /tmp/cc5eykcM.s:3275   .text:0000000000000e10 .LEHB0
     /tmp/cc5eykcM.s:3254   .text:0000000000000df4 .LFB71
     /tmp/cc5eykcM.s:3278   .text:0000000000000e18 .LEHE0
     /tmp/cc5eykcM.s:3283   .text:0000000000000e20 .LEHB1
     /tmp/cc5eykcM.s:3289   .text:0000000000000e28 .LEHE1
     /tmp/cc5eykcM.s:3467   .text:0000000000000f8c .L190
     /tmp/cc5eykcM.s:3301   .text:0000000000000e40 .LEHB2
     /tmp/cc5eykcM.s:3309   .text:0000000000000e54 .LEHE2
     /tmp/cc5eykcM.s:3314   .text:0000000000000e5c .LEHB3
     /tmp/cc5eykcM.s:3320   .text:0000000000000e64 .LEHE3
     /tmp/cc5eykcM.s:3479   .text:0000000000000fa8 .L191
     /tmp/cc5eykcM.s:3332   .text:0000000000000e7c .LEHB4
     /tmp/cc5eykcM.s:3340   .text:0000000000000e90 .LEHE4
     /tmp/cc5eykcM.s:3345   .text:0000000000000e98 .LEHB5
     /tmp/cc5eykcM.s:3351   .text:0000000000000ea0 .LEHE5
     /tmp/cc5eykcM.s:3490   .text:0000000000000fc4 .L192
     /tmp/cc5eykcM.s:3363   .text:0000000000000eb8 .LEHB6
     /tmp/cc5eykcM.s:3371   .text:0000000000000ecc .LEHE6
     /tmp/cc5eykcM.s:3376   .text:0000000000000ed4 .LEHB7
     /tmp/cc5eykcM.s:3382   .text:0000000000000edc .LEHE7
     /tmp/cc5eykcM.s:3501   .text:0000000000000fe0 .L193
     /tmp/cc5eykcM.s:3394   .text:0000000000000ef4 .LEHB8
     /tmp/cc5eykcM.s:3425   .text:0000000000000f30 .LEHE8
     /tmp/cc5eykcM.s:3475   .text:0000000000000fa0 .LEHB9
     /tmp/cc5eykcM.s:3478   .text:0000000000000fa8 .LEHE9
GAS LISTING /tmp/cc5eykcM.s 			page 218


     /tmp/cc5eykcM.s:3486   .text:0000000000000fbc .LEHB10
     /tmp/cc5eykcM.s:3489   .text:0000000000000fc4 .LEHE10
     /tmp/cc5eykcM.s:3497   .text:0000000000000fd8 .LEHB11
     /tmp/cc5eykcM.s:3500   .text:0000000000000fe0 .LEHE11
     /tmp/cc5eykcM.s:3508   .text:0000000000000ff4 .LEHB12
     /tmp/cc5eykcM.s:3511   .text:0000000000000ffc .LEHE12
     /tmp/cc5eykcM.s:3776   .text:0000000000001048 .LEHB13
     /tmp/cc5eykcM.s:3744   .text:0000000000001014 .LFB79
     /tmp/cc5eykcM.s:3865   .text:0000000000001124 .LEHE13
     /tmp/cc5eykcM.s:3874   .text:0000000000001130 .LEHB14
     /tmp/cc5eykcM.s:3877   .text:0000000000001138 .LEHE14
     /tmp/cc5eykcM.s:4226   .text:00000000000013ec .L218
     /tmp/cc5eykcM.s:3883   .text:0000000000001144 .LEHB15
     /tmp/cc5eykcM.s:4100   .text:0000000000001310 .LEHE15
     /tmp/cc5eykcM.s:4238   .text:0000000000001400 .LEHB16
     /tmp/cc5eykcM.s:4241   .text:0000000000001408 .LEHE16
     /tmp/cc5eykcM.s:4760   .text:0000000000001690 .LEHB17
     /tmp/cc5eykcM.s:4722   .text:0000000000001650 .LFB95
     /tmp/cc5eykcM.s:4833   .text:0000000000001758 .LEHE17
     /tmp/cc5eykcM.s:4838   .text:0000000000001764 .LEHB18
     /tmp/cc5eykcM.s:4841   .text:000000000000176c .LEHE18
     /tmp/cc5eykcM.s:5196   .text:0000000000001a24 .L279
     /tmp/cc5eykcM.s:4847   .text:0000000000001778 .LEHB19
     /tmp/cc5eykcM.s:4869   .text:00000000000017a8 .LEHE19
     /tmp/cc5eykcM.s:4875   .text:00000000000017b4 .LEHB20
     /tmp/cc5eykcM.s:4878   .text:00000000000017bc .LEHE20
     /tmp/cc5eykcM.s:5209   .text:0000000000001a40 .L280
     /tmp/cc5eykcM.s:4924   .text:0000000000001820 .LEHB21
     /tmp/cc5eykcM.s:4927   .text:0000000000001828 .LEHE21
     /tmp/cc5eykcM.s:4938   .text:0000000000001840 .LEHB22
     /tmp/cc5eykcM.s:4944   .text:0000000000001848 .LEHE22
     /tmp/cc5eykcM.s:5221   .text:0000000000001a5c .L281
     /tmp/cc5eykcM.s:4956   .text:000000000000185c .LEHB23
     /tmp/cc5eykcM.s:5015   .text:00000000000018d8 .LEHE23
     /tmp/cc5eykcM.s:5026   .text:00000000000018f0 .LEHB24
     /tmp/cc5eykcM.s:5032   .text:00000000000018f8 .LEHE24
     /tmp/cc5eykcM.s:5233   .text:0000000000001a78 .L282
     /tmp/cc5eykcM.s:5041   .text:0000000000001900 .LEHB25
     /tmp/cc5eykcM.s:5044   .text:0000000000001908 .LEHE25
     /tmp/cc5eykcM.s:5055   .text:0000000000001920 .LEHB26
     /tmp/cc5eykcM.s:5061   .text:0000000000001928 .LEHE26
     /tmp/cc5eykcM.s:5246   .text:0000000000001a94 .L283
     /tmp/cc5eykcM.s:5078   .text:0000000000001948 .LEHB27
     /tmp/cc5eykcM.s:5160   .text:00000000000019e8 .LEHE27
     /tmp/cc5eykcM.s:5205   .text:0000000000001a38 .LEHB28
     /tmp/cc5eykcM.s:5208   .text:0000000000001a40 .LEHE28
     /tmp/cc5eykcM.s:5217   .text:0000000000001a54 .LEHB29
     /tmp/cc5eykcM.s:5220   .text:0000000000001a5c .LEHE29
     /tmp/cc5eykcM.s:5229   .text:0000000000001a70 .LEHB30
     /tmp/cc5eykcM.s:5232   .text:0000000000001a78 .LEHE30
     /tmp/cc5eykcM.s:5242   .text:0000000000001a8c .LEHB31
     /tmp/cc5eykcM.s:5245   .text:0000000000001a94 .LEHE31
     /tmp/cc5eykcM.s:5254   .text:0000000000001aa8 .LEHB32
     /tmp/cc5eykcM.s:5257   .text:0000000000001ab0 .LEHE32
     /tmp/cc5eykcM.s:5454   .text:0000000000001b78 .LEHB33
     /tmp/cc5eykcM.s:5416   .text:0000000000001b38 .LFB110
     /tmp/cc5eykcM.s:5527   .text:0000000000001c40 .LEHE33
GAS LISTING /tmp/cc5eykcM.s 			page 219


     /tmp/cc5eykcM.s:5532   .text:0000000000001c4c .LEHB34
     /tmp/cc5eykcM.s:5535   .text:0000000000001c54 .LEHE34
     /tmp/cc5eykcM.s:5887   .text:0000000000001f04 .L319
     /tmp/cc5eykcM.s:5541   .text:0000000000001c60 .LEHB35
     /tmp/cc5eykcM.s:5563   .text:0000000000001c90 .LEHE35
     /tmp/cc5eykcM.s:5569   .text:0000000000001c9c .LEHB36
     /tmp/cc5eykcM.s:5572   .text:0000000000001ca4 .LEHE36
     /tmp/cc5eykcM.s:5900   .text:0000000000001f20 .L320
     /tmp/cc5eykcM.s:5617   .text:0000000000001d08 .LEHB37
     /tmp/cc5eykcM.s:5620   .text:0000000000001d10 .LEHE37
     /tmp/cc5eykcM.s:5629   .text:0000000000001d28 .LEHB38
     /tmp/cc5eykcM.s:5635   .text:0000000000001d30 .LEHE38
     /tmp/cc5eykcM.s:5912   .text:0000000000001f3c .L321
     /tmp/cc5eykcM.s:5647   .text:0000000000001d44 .LEHB39
     /tmp/cc5eykcM.s:5665   .text:0000000000001d6c .LEHE39
     /tmp/cc5eykcM.s:5670   .text:0000000000001d74 .LEHB40
     /tmp/cc5eykcM.s:5676   .text:0000000000001d7c .LEHE40
     /tmp/cc5eykcM.s:5924   .text:0000000000001f58 .L322
     /tmp/cc5eykcM.s:5690   .text:0000000000001d94 .LEHB41
     /tmp/cc5eykcM.s:5743   .text:0000000000001e04 .LEHE41
     /tmp/cc5eykcM.s:5753   .text:0000000000001e1c .LEHB42
     /tmp/cc5eykcM.s:5759   .text:0000000000001e24 .LEHE42
     /tmp/cc5eykcM.s:5936   .text:0000000000001f74 .L323
     /tmp/cc5eykcM.s:5767   .text:0000000000001e28 .LEHB43
     /tmp/cc5eykcM.s:5851   .text:0000000000001ec8 .LEHE43
     /tmp/cc5eykcM.s:5896   .text:0000000000001f18 .LEHB44
     /tmp/cc5eykcM.s:5899   .text:0000000000001f20 .LEHE44
     /tmp/cc5eykcM.s:5908   .text:0000000000001f34 .LEHB45
     /tmp/cc5eykcM.s:5911   .text:0000000000001f3c .LEHE45
     /tmp/cc5eykcM.s:5920   .text:0000000000001f50 .LEHB46
     /tmp/cc5eykcM.s:5923   .text:0000000000001f58 .LEHE46
     /tmp/cc5eykcM.s:5932   .text:0000000000001f6c .LEHB47
     /tmp/cc5eykcM.s:5935   .text:0000000000001f74 .LEHE47
     /tmp/cc5eykcM.s:5945   .text:0000000000001f88 .LEHB48
     /tmp/cc5eykcM.s:5948   .text:0000000000001f90 .LEHE48
     /tmp/cc5eykcM.s:3617   .text._ZN6BufferdlEPv:0000000000000014 .L0 
     /tmp/cc5eykcM.s:3624   .text._ZN6BufferdlEPv:0000000000000020 .L0 
     /tmp/cc5eykcM.s:3647   .text._ZN6BufferdlEPv:0000000000000040 .L0 
     /tmp/cc5eykcM.s:3651   .text._ZN6BufferdlEPv:0000000000000048 .L0 
     /tmp/cc5eykcM.s:3653   .text._ZN6BufferdlEPv:0000000000000054 .L0 
     /tmp/cc5eykcM.s:3680   .text._ZN6BufferdlEPv:0000000000000090 .L0 
     /tmp/cc5eykcM.s:3703   .text._ZN6BufferdlEPv:00000000000000b0 .L0 
     /tmp/cc5eykcM.s:3639   .text._ZN6BufferdlEPv:0000000000000040 .L199
     /tmp/cc5eykcM.s:3676   .text._ZN6BufferdlEPv:000000000000008c .L197
     /tmp/cc5eykcM.s:3619   .text._ZN6BufferdlEPv:0000000000000020 .L196
     /tmp/cc5eykcM.s:16168  .debug_abbrev:0000000000000000 .Ldebug_abbrev0
     /tmp/cc5eykcM.s:21283  .debug_str:0000000000001ece .LASF324
     /tmp/cc5eykcM.s:21105  .debug_str:000000000000162d .LASF325
     /tmp/cc5eykcM.s:21045  .debug_str:0000000000001284 .LASF326
     /tmp/cc5eykcM.s:20493  .debug_ranges:0000000000000000 .Ldebug_ranges0
     /tmp/cc5eykcM.s:20681  .debug_line:0000000000000000 .Ldebug_line0
     /tmp/cc5eykcM.s:20723  .debug_str:0000000000000240 .LASF0
     /tmp/cc5eykcM.s:21269  .debug_str:0000000000001e4b .LASF1
     /tmp/cc5eykcM.s:21209  .debug_str:0000000000001afc .LASF2
     /tmp/cc5eykcM.s:21293  .debug_str:0000000000002024 .LASF3
     /tmp/cc5eykcM.s:21167  .debug_str:0000000000001957 .LASF4
     /tmp/cc5eykcM.s:21179  .debug_str:00000000000019d4 .LASF5
GAS LISTING /tmp/cc5eykcM.s 			page 220


     /tmp/cc5eykcM.s:20871  .debug_str:00000000000009a4 .LASF6
     /tmp/cc5eykcM.s:20967  .debug_str:0000000000000f16 .LASF7
     /tmp/cc5eykcM.s:20935  .debug_str:0000000000000d19 .LASF8
     /tmp/cc5eykcM.s:21111  .debug_str:000000000000166b .LASF9
     /tmp/cc5eykcM.s:20761  .debug_str:0000000000000414 .LASF10
     /tmp/cc5eykcM.s:21257  .debug_str:0000000000001db7 .LASF11
     /tmp/cc5eykcM.s:20875  .debug_str:00000000000009d0 .LASF12
     /tmp/cc5eykcM.s:21227  .debug_str:0000000000001b9a .LASF13
     /tmp/cc5eykcM.s:20801  .debug_str:000000000000060b .LASF14
     /tmp/cc5eykcM.s:20971  .debug_str:0000000000000f43 .LASF15
     /tmp/cc5eykcM.s:20881  .debug_str:0000000000000a12 .LASF16
     /tmp/cc5eykcM.s:21149  .debug_str:00000000000018e6 .LASF17
     /tmp/cc5eykcM.s:20891  .debug_str:0000000000000a97 .LASF18
     /tmp/cc5eykcM.s:20851  .debug_str:0000000000000902 .LASF19
     /tmp/cc5eykcM.s:21315  .debug_str:0000000000002210 .LASF23
     /tmp/cc5eykcM.s:21247  .debug_str:0000000000001d3d .LASF139
     /tmp/cc5eykcM.s:21043  .debug_str:000000000000127f .LASF20
     /tmp/cc5eykcM.s:20725  .debug_str:000000000000024d .LASF21
     /tmp/cc5eykcM.s:20767  .debug_str:0000000000000479 .LASF22
     /tmp/cc5eykcM.s:20973  .debug_str:0000000000000f53 .LASF67
     /tmp/cc5eykcM.s:20687  .debug_str:0000000000000025 .LASF69
     /tmp/cc5eykcM.s:21319  .debug_str:0000000000002245 .LASF25
     /tmp/cc5eykcM.s:21041  .debug_str:0000000000001275 .LASF24
     /tmp/cc5eykcM.s:20937  .debug_str:0000000000000d2c .LASF26
     /tmp/cc5eykcM.s:21123  .debug_str:00000000000016d8 .LASF27
     /tmp/cc5eykcM.s:21323  .debug_str:000000000000228a .LASF28
     /tmp/cc5eykcM.s:20931  .debug_str:0000000000000cea .LASF29
     /tmp/cc5eykcM.s:20699  .debug_str:000000000000013a .LASF30
     /tmp/cc5eykcM.s:21275  .debug_str:0000000000001e72 .LASF31
     /tmp/cc5eykcM.s:21207  .debug_str:0000000000001acb .LASF32
     /tmp/cc5eykcM.s:20703  .debug_str:0000000000000170 .LASF33
     /tmp/cc5eykcM.s:20727  .debug_str:0000000000000252 .LASF34
     /tmp/cc5eykcM.s:21065  .debug_str:0000000000001378 .LASF35
     /tmp/cc5eykcM.s:20983  .debug_str:0000000000000fad .LASF36
     /tmp/cc5eykcM.s:20759  .debug_str:000000000000040c .LASF37
     /tmp/cc5eykcM.s:20771  .debug_str:0000000000000492 .LASF54
     /tmp/cc5eykcM.s:21023  .debug_str:000000000000115f .LASF38
     /tmp/cc5eykcM.s:20863  .debug_str:000000000000095a .LASF39
     /tmp/cc5eykcM.s:21159  .debug_str:0000000000001930 .LASF41
     /tmp/cc5eykcM.s:21071  .debug_str:00000000000013c4 .LASF40
     /tmp/cc5eykcM.s:21141  .debug_str:000000000000183a .LASF42
     /tmp/cc5eykcM.s:20975  .debug_str:0000000000000f5f .LASF74
     /tmp/cc5eykcM.s:21265  .debug_str:0000000000001e37 .LASF43
     /tmp/cc5eykcM.s:20933  .debug_str:0000000000000cf6 .LASF45
     /tmp/cc5eykcM.s:21267  .debug_str:0000000000001e41 .LASF44
     /tmp/cc5eykcM.s:20987  .debug_str:0000000000000fc3 .LASF46
     /tmp/cc5eykcM.s:20757  .debug_str:0000000000000402 .LASF47
     /tmp/cc5eykcM.s:21035  .debug_str:0000000000001207 .LASF48
     /tmp/cc5eykcM.s:21271  .debug_str:0000000000001e5e .LASF49
     /tmp/cc5eykcM.s:21131  .debug_str:00000000000017b4 .LASF50
     /tmp/cc5eykcM.s:21273  .debug_str:0000000000001e68 .LASF51
     /tmp/cc5eykcM.s:21109  .debug_str:0000000000001648 .LASF52
     /tmp/cc5eykcM.s:20815  .debug_str:00000000000006ef .LASF112
     /tmp/cc5eykcM.s:20787  .debug_str:0000000000000539 .LASF53
     /tmp/cc5eykcM.s:20805  .debug_str:0000000000000647 .LASF55
     /tmp/cc5eykcM.s:20785  .debug_str:000000000000052d .LASF56
     /tmp/cc5eykcM.s:21079  .debug_str:0000000000001424 .LASF57
GAS LISTING /tmp/cc5eykcM.s 			page 221


     /tmp/cc5eykcM.s:20783  .debug_str:0000000000000521 .LASF58
     /tmp/cc5eykcM.s:20713  .debug_str:00000000000001be .LASF59
     /tmp/cc5eykcM.s:20781  .debug_str:0000000000000515 .LASF60
     /tmp/cc5eykcM.s:20979  .debug_str:0000000000000f7c .LASF61
     /tmp/cc5eykcM.s:20779  .debug_str:0000000000000509 .LASF62
     /tmp/cc5eykcM.s:21261  .debug_str:0000000000001e07 .LASF63
     /tmp/cc5eykcM.s:21155  .debug_str:000000000000191c .LASF64
     /tmp/cc5eykcM.s:21003  .debug_str:0000000000001057 .LASF65
     /tmp/cc5eykcM.s:20841  .debug_str:000000000000088d .LASF66
     /tmp/cc5eykcM.s:21161  .debug_str:0000000000001938 .LASF68
     /tmp/cc5eykcM.s:20707  .debug_str:0000000000000194 .LASF70
     /tmp/cc5eykcM.s:20861  .debug_str:0000000000000955 .LASF71
     /tmp/cc5eykcM.s:21241  .debug_str:0000000000001cbe .LASF72
     /tmp/cc5eykcM.s:20927  .debug_str:0000000000000cd4 .LASF73
     /tmp/cc5eykcM.s:21255  .debug_str:0000000000001da2 .LASF75
     /tmp/cc5eykcM.s:20873  .debug_str:00000000000009ab .LASF76
     /tmp/cc5eykcM.s:21317  .debug_str:0000000000002220 .LASF77
     /tmp/cc5eykcM.s:20697  .debug_str:0000000000000115 .LASF78
     /tmp/cc5eykcM.s:20741  .debug_str:000000000000033d .LASF79
     /tmp/cc5eykcM.s:21203  .debug_str:0000000000001ab9 .LASF80
     /tmp/cc5eykcM.s:20877  .debug_str:00000000000009df .LASF81
     /tmp/cc5eykcM.s:21325  .debug_str:00000000000022af .LASF82
     /tmp/cc5eykcM.s:21039  .debug_str:0000000000001243 .LASF87
     /tmp/cc5eykcM.s:21243  .debug_str:0000000000001cd1 .LASF89
     /tmp/cc5eykcM.s:21291  .debug_str:0000000000001ffc .LASF91
     /tmp/cc5eykcM.s:20995  .debug_str:0000000000001001 .LASF83
     /tmp/cc5eykcM.s:20969  .debug_str:0000000000000f1d .LASF94
     /tmp/cc5eykcM.s:21201  .debug_str:0000000000001ab1 .LASF84
     /tmp/cc5eykcM.s:21299  .debug_str:000000000000209f .LASF85
     /tmp/cc5eykcM.s:21121  .debug_str:00000000000016ae .LASF86
     /tmp/cc5eykcM.s:20961  .debug_str:0000000000000ea1 .LASF88
     /tmp/cc5eykcM.s:20823  .debug_str:000000000000076c .LASF90
     /tmp/cc5eykcM.s:20907  .debug_str:0000000000000b50 .LASF92
     /tmp/cc5eykcM.s:20993  .debug_str:0000000000000ff8 .LASF93
     /tmp/cc5eykcM.s:21193  .debug_str:0000000000001a5f .LASF95
     /tmp/cc5eykcM.s:21199  .debug_str:0000000000001aa9 .LASF96
     /tmp/cc5eykcM.s:21321  .debug_str:0000000000002261 .LASF97
     /tmp/cc5eykcM.s:20923  .debug_str:0000000000000ca0 .LASF98
     /tmp/cc5eykcM.s:21093  .debug_str:0000000000001525 .LASF99
     /tmp/cc5eykcM.s:21055  .debug_str:000000000000132d .LASF100
     /tmp/cc5eykcM.s:21191  .debug_str:0000000000001a37 .LASF101
     /tmp/cc5eykcM.s:20991  .debug_str:0000000000000fef .LASF102
     /tmp/cc5eykcM.s:20777  .debug_str:00000000000004e3 .LASF103
     /tmp/cc5eykcM.s:21197  .debug_str:0000000000001aa1 .LASF104
     /tmp/cc5eykcM.s:20865  .debug_str:0000000000000963 .LASF105
     /tmp/cc5eykcM.s:20753  .debug_str:00000000000003ca .LASF106
     /tmp/cc5eykcM.s:21233  .debug_str:0000000000001be9 .LASF107
     /tmp/cc5eykcM.s:21287  .debug_str:0000000000001fc4 .LASF108
     /tmp/cc5eykcM.s:20831  .debug_str:00000000000007f7 .LASF109
     /tmp/cc5eykcM.s:20989  .debug_str:0000000000000fe6 .LASF110
     /tmp/cc5eykcM.s:21009  .debug_str:00000000000010aa .LASF111
     /tmp/cc5eykcM.s:21143  .debug_str:000000000000183f .LASF113
     /tmp/cc5eykcM.s:21221  .debug_str:0000000000001b57 .LASF114
     /tmp/cc5eykcM.s:20743  .debug_str:0000000000000362 .LASF115
     /tmp/cc5eykcM.s:20715  .debug_str:00000000000001e6 .LASF116
     /tmp/cc5eykcM.s:20735  .debug_str:00000000000002e0 .LASF117
     /tmp/cc5eykcM.s:21219  .debug_str:0000000000001b52 .LASF118
GAS LISTING /tmp/cc5eykcM.s 			page 222


     /tmp/cc5eykcM.s:21335  .debug_str:0000000000002387 .LASF119
     /tmp/cc5eykcM.s:21175  .debug_str:00000000000019bc .LASF120
     /tmp/cc5eykcM.s:21251  .debug_str:0000000000001d81 .LASF121
     /tmp/cc5eykcM.s:21157  .debug_str:0000000000001926 .LASF122
     /tmp/cc5eykcM.s:21115  .debug_str:0000000000001687 .LASF123
     /tmp/cc5eykcM.s:21263  .debug_str:0000000000001e2f .LASF124
     /tmp/cc5eykcM.s:20849  .debug_str:00000000000008f3 .LASF125
     /tmp/cc5eykcM.s:20789  .debug_str:0000000000000545 .LASF154
     /tmp/cc5eykcM.s:20733  .debug_str:00000000000002cf .LASF156
     /tmp/cc5eykcM.s:21011  .debug_str:00000000000010d0 .LASF126
     /tmp/cc5eykcM.s:21213  .debug_str:0000000000001b19 .LASF127
     /tmp/cc5eykcM.s:21073  .debug_str:00000000000013ca .LASF128
     /tmp/cc5eykcM.s:20721  .debug_str:0000000000000231 .LASF129
     /tmp/cc5eykcM.s:20685  .debug_str:0000000000000015 .LASF130
     /tmp/cc5eykcM.s:20893  .debug_str:0000000000000aad .LASF131
     /tmp/cc5eykcM.s:21021  .debug_str:000000000000114f .LASF132
     /tmp/cc5eykcM.s:20919  .debug_str:0000000000000c87 .LASF133
     /tmp/cc5eykcM.s:20845  .debug_str:00000000000008a8 .LASF134
     /tmp/cc5eykcM.s:20709  .debug_str:00000000000001a7 .LASF135
     /tmp/cc5eykcM.s:21195  .debug_str:0000000000001a85 .LASF136
     /tmp/cc5eykcM.s:21001  .debug_str:000000000000104c .LASF137
     /tmp/cc5eykcM.s:20773  .debug_str:00000000000004ab .LASF138
     /tmp/cc5eykcM.s:21117  .debug_str:0000000000001696 .LASF140
     /tmp/cc5eykcM.s:21063  .debug_str:0000000000001373 .LASF141
     /tmp/cc5eykcM.s:20879  .debug_str:0000000000000a08 .LASF142
     /tmp/cc5eykcM.s:21333  .debug_str:000000000000235b .LASF143
     /tmp/cc5eykcM.s:21343  .debug_str:00000000000023e3 .LASF144
     /tmp/cc5eykcM.s:20833  .debug_str:000000000000081f .LASF145
     /tmp/cc5eykcM.s:20837  .debug_str:000000000000086d .LASF146
     /tmp/cc5eykcM.s:20803  .debug_str:000000000000061a .LASF147
     /tmp/cc5eykcM.s:21019  .debug_str:0000000000001146 .LASF148
     /tmp/cc5eykcM.s:20951  .debug_str:0000000000000e0b .LASF149
     /tmp/cc5eykcM.s:21229  .debug_str:0000000000001ba5 .LASF184
     /tmp/cc5eykcM.s:21017  .debug_str:0000000000001110 .LASF198
     /tmp/cc5eykcM.s:20775  .debug_str:00000000000004d9 .LASF150
     /tmp/cc5eykcM.s:21025  .debug_str:0000000000001164 .LASF151
     /tmp/cc5eykcM.s:21339  .debug_str:00000000000023bb .LASF152
     /tmp/cc5eykcM.s:20751  .debug_str:00000000000003b8 .LASF153
     /tmp/cc5eykcM.s:20817  .debug_str:000000000000071d .LASF155
     /tmp/cc5eykcM.s:20769  .debug_str:000000000000047e .LASF157
     /tmp/cc5eykcM.s:21225  .debug_str:0000000000001b83 .LASF158
     /tmp/cc5eykcM.s:21053  .debug_str:0000000000001323 .LASF225
     /tmp/cc5eykcM.s:20683  .debug_str:0000000000000000 .LASF159
     /tmp/cc5eykcM.s:21253  .debug_str:0000000000001d8b .LASF160
     /tmp/cc5eykcM.s:20711  .debug_str:00000000000001b7 .LASF161
     /tmp/cc5eykcM.s:21137  .debug_str:0000000000001804 .LASF162
     /tmp/cc5eykcM.s:21081  .debug_str:000000000000144c .LASF163
     /tmp/cc5eykcM.s:20913  .debug_str:0000000000000c07 .LASF164
     /tmp/cc5eykcM.s:21107  .debug_str:000000000000163f .LASF165
     /tmp/cc5eykcM.s:20963  .debug_str:0000000000000ed3 .LASF166
     /tmp/cc5eykcM.s:21237  .debug_str:0000000000001c56 .LASF167
     /tmp/cc5eykcM.s:21095  .debug_str:0000000000001557 .LASF168
     /tmp/cc5eykcM.s:21331  .debug_str:0000000000002315 .LASF169
     /tmp/cc5eykcM.s:21085  .debug_str:0000000000001486 .LASF170
     /tmp/cc5eykcM.s:20925  .debug_str:0000000000000cca .LASF171
     /tmp/cc5eykcM.s:20695  .debug_str:00000000000000e0 .LASF172
     /tmp/cc5eykcM.s:21169  .debug_str:000000000000195e .LASF173
GAS LISTING /tmp/cc5eykcM.s 			page 223


     /tmp/cc5eykcM.s:21033  .debug_str:00000000000011cf .LASF174
     /tmp/cc5eykcM.s:20903  .debug_str:0000000000000b0d .LASF175
     /tmp/cc5eykcM.s:21125  .debug_str:00000000000016e5 .LASF176
     /tmp/cc5eykcM.s:20739  .debug_str:00000000000002f7 .LASF177
     /tmp/cc5eykcM.s:21309  .debug_str:00000000000021a2 .LASF178
     /tmp/cc5eykcM.s:21097  .debug_str:0000000000001594 .LASF179
     /tmp/cc5eykcM.s:21027  .debug_str:0000000000001176 .LASF180
     /tmp/cc5eykcM.s:20701  .debug_str:000000000000015f .LASF181
     /tmp/cc5eykcM.s:20917  .debug_str:0000000000000c46 .LASF182
     /tmp/cc5eykcM.s:21259  .debug_str:0000000000001dc5 .LASF183
     /tmp/cc5eykcM.s:20829  .debug_str:00000000000007a8 .LASF185
     /tmp/cc5eykcM.s:21101  .debug_str:00000000000015af .LASF186
     /tmp/cc5eykcM.s:20795  .debug_str:0000000000000580 .LASF187
     /tmp/cc5eykcM.s:20867  .debug_str:000000000000098c .LASF188
     /tmp/cc5eykcM.s:20807  .debug_str:000000000000066f .LASF189
     /tmp/cc5eykcM.s:21301  .debug_str:00000000000020c8 .LASF190
     /tmp/cc5eykcM.s:21129  .debug_str:000000000000176b .LASF191
     /tmp/cc5eykcM.s:20897  .debug_str:0000000000000ac7 .LASF192
     /tmp/cc5eykcM.s:20883  .debug_str:0000000000000a22 .LASF193
     /tmp/cc5eykcM.s:21087  .debug_str:00000000000014bd .LASF194
     /tmp/cc5eykcM.s:20791  .debug_str:0000000000000556 .LASF195
     /tmp/cc5eykcM.s:20887  .debug_str:0000000000000a36 .LASF196
     /tmp/cc5eykcM.s:21205  .debug_str:0000000000001ac1 .LASF197
     /tmp/cc5eykcM.s:20899  .debug_str:0000000000000ade .LASF199
     /tmp/cc5eykcM.s:20793  .debug_str:0000000000000563 .LASF200
     /tmp/cc5eykcM.s:20763  .debug_str:0000000000000424 .LASF201
     /tmp/cc5eykcM.s:21089  .debug_str:00000000000014e3 .LASF202
     /tmp/cc5eykcM.s:20949  .debug_str:0000000000000dd9 .LASF203
     /tmp/cc5eykcM.s:21303  .debug_str:00000000000020e6 .LASF204
     /tmp/cc5eykcM.s:21145  .debug_str:0000000000001871 .LASF205
     /tmp/cc5eykcM.s:20693  .debug_str:00000000000000af .LASF206
     /tmp/cc5eykcM.s:21049  .debug_str:00000000000012ce .LASF207
     /tmp/cc5eykcM.s:21013  .debug_str:00000000000010d7 .LASF208
     /tmp/cc5eykcM.s:21231  .debug_str:0000000000001bb6 .LASF209
     /tmp/cc5eykcM.s:21297  .debug_str:000000000000205f .LASF210
     /tmp/cc5eykcM.s:20957  .debug_str:0000000000000e63 .LASF211
     /tmp/cc5eykcM.s:21239  .debug_str:0000000000001c8f .LASF212
     /tmp/cc5eykcM.s:21099  .debug_str:000000000000159e .LASF213
     /tmp/cc5eykcM.s:21235  .debug_str:0000000000001c1b .LASF214
     /tmp/cc5eykcM.s:21249  .debug_str:0000000000001d45 .LASF215
     /tmp/cc5eykcM.s:21127  .debug_str:0000000000001722 .LASF216
     /tmp/cc5eykcM.s:21307  .debug_str:0000000000002168 .LASF217
     /tmp/cc5eykcM.s:21289  .debug_str:0000000000001fea .LASF218
     /tmp/cc5eykcM.s:20997  .debug_str:000000000000100a .LASF219
     /tmp/cc5eykcM.s:21091  .debug_str:0000000000001510 .LASF220
     /tmp/cc5eykcM.s:20797  .debug_str:00000000000005c0 .LASF221
     /tmp/cc5eykcM.s:20959  .debug_str:0000000000000e94 .LASF222
     /tmp/cc5eykcM.s:20705  .debug_str:0000000000000187 .LASF327
     /tmp/cc5eykcM.s:21061  .debug_str:000000000000136c .LASF223
     /tmp/cc5eykcM.s:21311  .debug_str:00000000000021d9 .LASF224
     /tmp/cc5eykcM.s:20947  .debug_str:0000000000000dd2 .LASF226
     /tmp/cc5eykcM.s:20835  .debug_str:000000000000085a .LASF227
     /tmp/cc5eykcM.s:21153  .debug_str:0000000000001916 .LASF228
     /tmp/cc5eykcM.s:21047  .debug_str:00000000000012b8 .LASF229
     /tmp/cc5eykcM.s:20981  .debug_str:0000000000000fa4 .LASF230
     /tmp/cc5eykcM.s:21279  .debug_str:0000000000001eb1 .LASF231
     /tmp/cc5eykcM.s:20809  .debug_str:00000000000006ad .LASF232
GAS LISTING /tmp/cc5eykcM.s 			page 224


     /tmp/cc5eykcM.s:21083  .debug_str:0000000000001481 .LASF233
     /tmp/cc5eykcM.s:21163  .debug_str:000000000000193d .LASF234
     /tmp/cc5eykcM.s:21277  .debug_str:0000000000001e8b .LASF235
     /tmp/cc5eykcM.s:370    .text._ZN20Threads_CPP_API_test7WorkerAD0Ev:0000000000000000 .LFB160
     /tmp/cc5eykcM.s:410    .text._ZN20Threads_CPP_API_test7WorkerAD0Ev:000000000000004c .LFE160
     /tmp/cc5eykcM.s:17700  .debug_loc:0000000000000000 .LLST10
     /tmp/cc5eykcM.s:386    .text._ZN20Threads_CPP_API_test7WorkerAD0Ev:0000000000000018 .LBB91
     /tmp/cc5eykcM.s:394    .text._ZN20Threads_CPP_API_test7WorkerAD0Ev:000000000000002c .LBE91
     /tmp/cc5eykcM.s:17718  .debug_loc:000000000000004c .LLST11
     /tmp/cc5eykcM.s:392    .text._ZN20Threads_CPP_API_test7WorkerAD0Ev:000000000000002c .LVL39
     /tmp/cc5eykcM.s:397    .text._ZN20Threads_CPP_API_test7WorkerAD0Ev:0000000000000038 .LVL40
     /tmp/cc5eykcM.s:21133  .debug_str:00000000000017d7 .LASF236
     /tmp/cc5eykcM.s:332    .text._ZN20Threads_CPP_API_test7WorkerAD2Ev:0000000000000000 .LFB158
     /tmp/cc5eykcM.s:361    .text._ZN20Threads_CPP_API_test7WorkerAD2Ev:0000000000000034 .LFE158
     /tmp/cc5eykcM.s:17729  .debug_loc:0000000000000082 .LLST9
     /tmp/cc5eykcM.s:350    .text._ZN20Threads_CPP_API_test7WorkerAD2Ev:0000000000000024 .LVL36
     /tmp/cc5eykcM.s:21051  .debug_str:00000000000012fd .LASF237
     /tmp/cc5eykcM.s:454    .text._ZN20Threads_CPP_API_test7WorkerBD0Ev:0000000000000000 .LFB156
     /tmp/cc5eykcM.s:494    .text._ZN20Threads_CPP_API_test7WorkerBD0Ev:000000000000004c .LFE156
     /tmp/cc5eykcM.s:17743  .debug_loc:00000000000000bb .LLST13
     /tmp/cc5eykcM.s:470    .text._ZN20Threads_CPP_API_test7WorkerBD0Ev:0000000000000018 .LBB94
     /tmp/cc5eykcM.s:478    .text._ZN20Threads_CPP_API_test7WorkerBD0Ev:000000000000002c .LBE94
     /tmp/cc5eykcM.s:17761  .debug_loc:0000000000000107 .LLST14
     /tmp/cc5eykcM.s:476    .text._ZN20Threads_CPP_API_test7WorkerBD0Ev:000000000000002c .LVL46
     /tmp/cc5eykcM.s:481    .text._ZN20Threads_CPP_API_test7WorkerBD0Ev:0000000000000038 .LVL47
     /tmp/cc5eykcM.s:20943  .debug_str:0000000000000d90 .LASF238
     /tmp/cc5eykcM.s:417    .text._ZN20Threads_CPP_API_test7WorkerBD2Ev:0000000000000000 .LFB154
     /tmp/cc5eykcM.s:445    .text._ZN20Threads_CPP_API_test7WorkerBD2Ev:0000000000000034 .LFE154
     /tmp/cc5eykcM.s:17772  .debug_loc:000000000000013d .LLST12
     /tmp/cc5eykcM.s:434    .text._ZN20Threads_CPP_API_test7WorkerBD2Ev:0000000000000024 .LVL43
     /tmp/cc5eykcM.s:20813  .debug_str:00000000000006c9 .LASF239
     /tmp/cc5eykcM.s:538    .text._ZN20Threads_CPP_API_test7WorkerCD0Ev:0000000000000000 .LFB152
     /tmp/cc5eykcM.s:578    .text._ZN20Threads_CPP_API_test7WorkerCD0Ev:000000000000004c .LFE152
     /tmp/cc5eykcM.s:17786  .debug_loc:0000000000000176 .LLST16
     /tmp/cc5eykcM.s:554    .text._ZN20Threads_CPP_API_test7WorkerCD0Ev:0000000000000018 .LBB97
     /tmp/cc5eykcM.s:562    .text._ZN20Threads_CPP_API_test7WorkerCD0Ev:000000000000002c .LBE97
     /tmp/cc5eykcM.s:17804  .debug_loc:00000000000001c2 .LLST17
     /tmp/cc5eykcM.s:560    .text._ZN20Threads_CPP_API_test7WorkerCD0Ev:000000000000002c .LVL53
     /tmp/cc5eykcM.s:565    .text._ZN20Threads_CPP_API_test7WorkerCD0Ev:0000000000000038 .LVL54
     /tmp/cc5eykcM.s:20691  .debug_str:0000000000000089 .LASF240
     /tmp/cc5eykcM.s:501    .text._ZN20Threads_CPP_API_test7WorkerCD2Ev:0000000000000000 .LFB150
     /tmp/cc5eykcM.s:529    .text._ZN20Threads_CPP_API_test7WorkerCD2Ev:0000000000000034 .LFE150
     /tmp/cc5eykcM.s:17815  .debug_loc:00000000000001f8 .LLST15
     /tmp/cc5eykcM.s:518    .text._ZN20Threads_CPP_API_test7WorkerCD2Ev:0000000000000024 .LVL50
     /tmp/cc5eykcM.s:21285  .debug_str:0000000000001f9e .LASF241
     /tmp/cc5eykcM.s:622    .text._ZN20Threads_CPP_API_test7WorkerDD0Ev:0000000000000000 .LFB148
     /tmp/cc5eykcM.s:662    .text._ZN20Threads_CPP_API_test7WorkerDD0Ev:000000000000004c .LFE148
     /tmp/cc5eykcM.s:17829  .debug_loc:0000000000000231 .LLST19
     /tmp/cc5eykcM.s:638    .text._ZN20Threads_CPP_API_test7WorkerDD0Ev:0000000000000018 .LBB100
     /tmp/cc5eykcM.s:646    .text._ZN20Threads_CPP_API_test7WorkerDD0Ev:000000000000002c .LBE100
     /tmp/cc5eykcM.s:17847  .debug_loc:000000000000027d .LLST20
     /tmp/cc5eykcM.s:644    .text._ZN20Threads_CPP_API_test7WorkerDD0Ev:000000000000002c .LVL60
     /tmp/cc5eykcM.s:649    .text._ZN20Threads_CPP_API_test7WorkerDD0Ev:0000000000000038 .LVL61
     /tmp/cc5eykcM.s:21005  .debug_str:000000000000107b .LASF242
     /tmp/cc5eykcM.s:585    .text._ZN20Threads_CPP_API_test7WorkerDD2Ev:0000000000000000 .LFB146
     /tmp/cc5eykcM.s:613    .text._ZN20Threads_CPP_API_test7WorkerDD2Ev:0000000000000034 .LFE146
     /tmp/cc5eykcM.s:17858  .debug_loc:00000000000002b3 .LLST18
GAS LISTING /tmp/cc5eykcM.s 			page 225


     /tmp/cc5eykcM.s:602    .text._ZN20Threads_CPP_API_test7WorkerDD2Ev:0000000000000024 .LVL57
     /tmp/cc5eykcM.s:21075  .debug_str:00000000000013d7 .LASF243
     /tmp/cc5eykcM.s:875    .text._ZN34ConsumerProducer_CPP_Sync_API_test16ProducerKeyboardD0Ev:0000000000000000 .LFB144
     /tmp/cc5eykcM.s:915    .text._ZN34ConsumerProducer_CPP_Sync_API_test16ProducerKeyboardD0Ev:000000000000004c .LFE144
     /tmp/cc5eykcM.s:17872  .debug_loc:00000000000002ec .LLST28
     /tmp/cc5eykcM.s:891    .text._ZN34ConsumerProducer_CPP_Sync_API_test16ProducerKeyboardD0Ev:0000000000000018 .LBB109
     /tmp/cc5eykcM.s:899    .text._ZN34ConsumerProducer_CPP_Sync_API_test16ProducerKeyboardD0Ev:000000000000002c .LBE109
     /tmp/cc5eykcM.s:17890  .debug_loc:0000000000000338 .LLST29
     /tmp/cc5eykcM.s:897    .text._ZN34ConsumerProducer_CPP_Sync_API_test16ProducerKeyboardD0Ev:000000000000002c .LVL81
     /tmp/cc5eykcM.s:902    .text._ZN34ConsumerProducer_CPP_Sync_API_test16ProducerKeyboardD0Ev:0000000000000038 .LVL82
     /tmp/cc5eykcM.s:20939  .debug_str:0000000000000d48 .LASF244
     /tmp/cc5eykcM.s:838    .text._ZN34ConsumerProducer_CPP_Sync_API_test16ProducerKeyboardD2Ev:0000000000000000 .LFB142
     /tmp/cc5eykcM.s:866    .text._ZN34ConsumerProducer_CPP_Sync_API_test16ProducerKeyboardD2Ev:0000000000000034 .LFE142
     /tmp/cc5eykcM.s:17901  .debug_loc:000000000000036e .LLST27
     /tmp/cc5eykcM.s:855    .text._ZN34ConsumerProducer_CPP_Sync_API_test16ProducerKeyboardD2Ev:0000000000000024 .LVL78
     /tmp/cc5eykcM.s:21295  .debug_str:000000000000202a .LASF245
     /tmp/cc5eykcM.s:791    .text._ZN34ConsumerProducer_CPP_Sync_API_test8ProducerD0Ev:0000000000000000 .LFB140
     /tmp/cc5eykcM.s:831    .text._ZN34ConsumerProducer_CPP_Sync_API_test8ProducerD0Ev:000000000000004c .LFE140
     /tmp/cc5eykcM.s:17915  .debug_loc:00000000000003a7 .LLST25
     /tmp/cc5eykcM.s:807    .text._ZN34ConsumerProducer_CPP_Sync_API_test8ProducerD0Ev:0000000000000018 .LBB106
     /tmp/cc5eykcM.s:815    .text._ZN34ConsumerProducer_CPP_Sync_API_test8ProducerD0Ev:000000000000002c .LBE106
     /tmp/cc5eykcM.s:17933  .debug_loc:00000000000003f3 .LLST26
     /tmp/cc5eykcM.s:813    .text._ZN34ConsumerProducer_CPP_Sync_API_test8ProducerD0Ev:000000000000002c .LVL74
     /tmp/cc5eykcM.s:818    .text._ZN34ConsumerProducer_CPP_Sync_API_test8ProducerD0Ev:0000000000000038 .LVL75
     /tmp/cc5eykcM.s:21147  .debug_str:00000000000018b1 .LASF246
     /tmp/cc5eykcM.s:754    .text._ZN34ConsumerProducer_CPP_Sync_API_test8ProducerD2Ev:0000000000000000 .LFB138
     /tmp/cc5eykcM.s:782    .text._ZN34ConsumerProducer_CPP_Sync_API_test8ProducerD2Ev:0000000000000034 .LFE138
     /tmp/cc5eykcM.s:17944  .debug_loc:0000000000000429 .LLST24
     /tmp/cc5eykcM.s:771    .text._ZN34ConsumerProducer_CPP_Sync_API_test8ProducerD2Ev:0000000000000024 .LVL71
     /tmp/cc5eykcM.s:20889  .debug_str:0000000000000a62 .LASF247
     /tmp/cc5eykcM.s:707    .text._ZN34ConsumerProducer_CPP_Sync_API_test8ConsumerD0Ev:0000000000000000 .LFB136
     /tmp/cc5eykcM.s:747    .text._ZN34ConsumerProducer_CPP_Sync_API_test8ConsumerD0Ev:000000000000004c .LFE136
     /tmp/cc5eykcM.s:17958  .debug_loc:0000000000000462 .LLST22
     /tmp/cc5eykcM.s:723    .text._ZN34ConsumerProducer_CPP_Sync_API_test8ConsumerD0Ev:0000000000000018 .LBB103
     /tmp/cc5eykcM.s:731    .text._ZN34ConsumerProducer_CPP_Sync_API_test8ConsumerD0Ev:000000000000002c .LBE103
     /tmp/cc5eykcM.s:17976  .debug_loc:00000000000004ae .LLST23
     /tmp/cc5eykcM.s:729    .text._ZN34ConsumerProducer_CPP_Sync_API_test8ConsumerD0Ev:000000000000002c .LVL67
     /tmp/cc5eykcM.s:734    .text._ZN34ConsumerProducer_CPP_Sync_API_test8ConsumerD0Ev:0000000000000038 .LVL68
     /tmp/cc5eykcM.s:21069  .debug_str:000000000000138f .LASF248
     /tmp/cc5eykcM.s:669    .text._ZN34ConsumerProducer_CPP_Sync_API_test8ConsumerD2Ev:0000000000000000 .LFB134
     /tmp/cc5eykcM.s:698    .text._ZN34ConsumerProducer_CPP_Sync_API_test8ConsumerD2Ev:0000000000000034 .LFE134
     /tmp/cc5eykcM.s:17987  .debug_loc:00000000000004e4 .LLST21
     /tmp/cc5eykcM.s:687    .text._ZN34ConsumerProducer_CPP_Sync_API_test8ConsumerD2Ev:0000000000000024 .LVL64
     /tmp/cc5eykcM.s:20847  .debug_str:00000000000008bb .LASF249
     /tmp/cc5eykcM.s:1044   .text._ZN28ConsumerProducerCPP_API_test16ProducerKeyboradD0Ev:0000000000000000 .LFB132
     /tmp/cc5eykcM.s:1084   .text._ZN28ConsumerProducerCPP_API_test16ProducerKeyboradD0Ev:000000000000004c .LFE132
     /tmp/cc5eykcM.s:18001  .debug_loc:000000000000051d .LLST34
     /tmp/cc5eykcM.s:1060   .text._ZN28ConsumerProducerCPP_API_test16ProducerKeyboradD0Ev:0000000000000018 .LBB115
     /tmp/cc5eykcM.s:1068   .text._ZN28ConsumerProducerCPP_API_test16ProducerKeyboradD0Ev:000000000000002c .LBE115
     /tmp/cc5eykcM.s:18019  .debug_loc:0000000000000569 .LLST35
     /tmp/cc5eykcM.s:1066   .text._ZN28ConsumerProducerCPP_API_test16ProducerKeyboradD0Ev:000000000000002c .LVL95
     /tmp/cc5eykcM.s:1071   .text._ZN28ConsumerProducerCPP_API_test16ProducerKeyboradD0Ev:0000000000000038 .LVL96
     /tmp/cc5eykcM.s:20717  .debug_str:00000000000001ed .LASF250
     /tmp/cc5eykcM.s:1007   .text._ZN28ConsumerProducerCPP_API_test16ProducerKeyboradD2Ev:0000000000000000 .LFB130
     /tmp/cc5eykcM.s:1035   .text._ZN28ConsumerProducerCPP_API_test16ProducerKeyboradD2Ev:0000000000000034 .LFE130
     /tmp/cc5eykcM.s:18030  .debug_loc:000000000000059f .LLST33
     /tmp/cc5eykcM.s:1024   .text._ZN28ConsumerProducerCPP_API_test16ProducerKeyboradD2Ev:0000000000000024 .LVL92
GAS LISTING /tmp/cc5eykcM.s 			page 226


     /tmp/cc5eykcM.s:21103  .debug_str:00000000000015fe .LASF251
     /tmp/cc5eykcM.s:1128   .text._ZN28ConsumerProducerCPP_API_test8ProducerD0Ev:0000000000000000 .LFB128
     /tmp/cc5eykcM.s:1168   .text._ZN28ConsumerProducerCPP_API_test8ProducerD0Ev:000000000000004c .LFE128
     /tmp/cc5eykcM.s:18044  .debug_loc:00000000000005d8 .LLST37
     /tmp/cc5eykcM.s:1144   .text._ZN28ConsumerProducerCPP_API_test8ProducerD0Ev:0000000000000018 .LBB118
     /tmp/cc5eykcM.s:1152   .text._ZN28ConsumerProducerCPP_API_test8ProducerD0Ev:000000000000002c .LBE118
     /tmp/cc5eykcM.s:18062  .debug_loc:0000000000000624 .LLST38
     /tmp/cc5eykcM.s:1150   .text._ZN28ConsumerProducerCPP_API_test8ProducerD0Ev:000000000000002c .LVL102
     /tmp/cc5eykcM.s:1155   .text._ZN28ConsumerProducerCPP_API_test8ProducerD0Ev:0000000000000038 .LVL103
     /tmp/cc5eykcM.s:20819  .debug_str:0000000000000731 .LASF252
     /tmp/cc5eykcM.s:1091   .text._ZN28ConsumerProducerCPP_API_test8ProducerD2Ev:0000000000000000 .LFB126
     /tmp/cc5eykcM.s:1119   .text._ZN28ConsumerProducerCPP_API_test8ProducerD2Ev:0000000000000034 .LFE126
     /tmp/cc5eykcM.s:18073  .debug_loc:000000000000065a .LLST36
     /tmp/cc5eykcM.s:1108   .text._ZN28ConsumerProducerCPP_API_test8ProducerD2Ev:0000000000000024 .LVL99
     /tmp/cc5eykcM.s:21327  .debug_str:00000000000022d9 .LASF253
     /tmp/cc5eykcM.s:960    .text._ZN28ConsumerProducerCPP_API_test8ConsumerD0Ev:0000000000000000 .LFB124
     /tmp/cc5eykcM.s:1000   .text._ZN28ConsumerProducerCPP_API_test8ConsumerD0Ev:000000000000004c .LFE124
     /tmp/cc5eykcM.s:18087  .debug_loc:0000000000000693 .LLST31
     /tmp/cc5eykcM.s:976    .text._ZN28ConsumerProducerCPP_API_test8ConsumerD0Ev:0000000000000018 .LBB112
     /tmp/cc5eykcM.s:984    .text._ZN28ConsumerProducerCPP_API_test8ConsumerD0Ev:000000000000002c .LBE112
     /tmp/cc5eykcM.s:18105  .debug_loc:00000000000006df .LLST32
     /tmp/cc5eykcM.s:982    .text._ZN28ConsumerProducerCPP_API_test8ConsumerD0Ev:000000000000002c .LVL88
     /tmp/cc5eykcM.s:987    .text._ZN28ConsumerProducerCPP_API_test8ConsumerD0Ev:0000000000000038 .LVL89
     /tmp/cc5eykcM.s:21173  .debug_str:000000000000198d .LASF254
     /tmp/cc5eykcM.s:922    .text._ZN28ConsumerProducerCPP_API_test8ConsumerD2Ev:0000000000000000 .LFB122
     /tmp/cc5eykcM.s:951    .text._ZN28ConsumerProducerCPP_API_test8ConsumerD2Ev:0000000000000034 .LFE122
     /tmp/cc5eykcM.s:18116  .debug_loc:0000000000000715 .LLST30
     /tmp/cc5eykcM.s:940    .text._ZN28ConsumerProducerCPP_API_test8ConsumerD2Ev:0000000000000024 .LVL85
     /tmp/cc5eykcM.s:20921  .debug_str:0000000000000c97 .LASF255
     /tmp/cc5eykcM.s:21329  .debug_str:0000000000002308 .LASF256
     /tmp/cc5eykcM.s:6751   .text:0000000000002568 .LFB120
     /tmp/cc5eykcM.s:6777   .text:0000000000002590 .LFE120
     /tmp/cc5eykcM.s:6766   .text:0000000000002580 .LVL760
     /tmp/cc5eykcM.s:21215  .debug_str:0000000000001b2d .LASF257
     /tmp/cc5eykcM.s:21341  .debug_str:00000000000023c6 .LASF258
     /tmp/cc5eykcM.s:6584   .text:0000000000002400 .LFB119
     /tmp/cc5eykcM.s:6745   .text:0000000000002568 .LFE119
     /tmp/cc5eykcM.s:21135  .debug_str:00000000000017fd .LASF259
     /tmp/cc5eykcM.s:18130  .debug_loc:000000000000074e .LLST188
     /tmp/cc5eykcM.s:21007  .debug_str:00000000000010a1 .LASF260
     /tmp/cc5eykcM.s:18141  .debug_loc:0000000000000784 .LLST189
     /tmp/cc5eykcM.s:18156  .debug_loc:00000000000007cd .LLST190
     /tmp/cc5eykcM.s:6640   .text:000000000000247c .LVL744
     /tmp/cc5eykcM.s:6647   .text:0000000000002490 .LVL745
     /tmp/cc5eykcM.s:6652   .text:00000000000024a0 .LVL746
     /tmp/cc5eykcM.s:6674   .text:00000000000024c4 .LVL750
     /tmp/cc5eykcM.s:6691   .text:00000000000024f0 .LVL751
     /tmp/cc5eykcM.s:6698   .text:0000000000002504 .LVL752
     /tmp/cc5eykcM.s:6703   .text:0000000000002514 .LVL753
     /tmp/cc5eykcM.s:6612   .text:0000000000002440 .LVL738
     /tmp/cc5eykcM.s:6620   .text:0000000000002454 .LVL741
     /tmp/cc5eykcM.s:6625   .text:0000000000002460 .LVL742
     /tmp/cc5eykcM.s:6711   .text:0000000000002528 .LVL754
     /tmp/cc5eykcM.s:6716   .text:0000000000002538 .LVL755
     /tmp/cc5eykcM.s:6721   .text:0000000000002544 .LVL756
     /tmp/cc5eykcM.s:21187  .debug_str:0000000000001a1f .LASF261
     /tmp/cc5eykcM.s:20811  .debug_str:00000000000006b3 .LASF262
GAS LISTING /tmp/cc5eykcM.s 			page 227


     /tmp/cc5eykcM.s:6393   .text:0000000000002264 .LFB118
     /tmp/cc5eykcM.s:6570   .text:0000000000002400 .LFE118
     /tmp/cc5eykcM.s:18167  .debug_loc:0000000000000803 .LLST184
     /tmp/cc5eykcM.s:6430   .text:00000000000022b8 .LBB244
     /tmp/cc5eykcM.s:6455   .text:00000000000022f0 .LBE244
     /tmp/cc5eykcM.s:18178  .debug_loc:0000000000000839 .LLST185
     /tmp/cc5eykcM.s:6443   .text:00000000000022d4 .LVL717
     /tmp/cc5eykcM.s:6473   .text:0000000000002320 .LBB245
     /tmp/cc5eykcM.s:6543   .text:00000000000023cc .LBE245
     /tmp/cc5eykcM.s:18194  .debug_loc:0000000000000883 .LLST186
     /tmp/cc5eykcM.s:18206  .debug_loc:00000000000008ba .LLST187
     /tmp/cc5eykcM.s:6486   .text:0000000000002338 .LVL726
     /tmp/cc5eykcM.s:6493   .text:000000000000234c .LVL727
     /tmp/cc5eykcM.s:6498   .text:000000000000235c .LVL728
     /tmp/cc5eykcM.s:6509   .text:0000000000002380 .LVL729
     /tmp/cc5eykcM.s:6514   .text:0000000000002390 .LVL730
     /tmp/cc5eykcM.s:6535   .text:00000000000023c0 .LVL732
     /tmp/cc5eykcM.s:6415   .text:0000000000002298 .LVL711
     /tmp/cc5eykcM.s:6423   .text:00000000000022ac .LVL714
     /tmp/cc5eykcM.s:6428   .text:00000000000022b8 .LVL715
     /tmp/cc5eykcM.s:6460   .text:0000000000002300 .LVL720
     /tmp/cc5eykcM.s:6465   .text:000000000000230c .LVL721
     /tmp/cc5eykcM.s:6471   .text:0000000000002320 .LVL722
     /tmp/cc5eykcM.s:6548   .text:00000000000023dc .LVL734
     /tmp/cc5eykcM.s:6553   .text:00000000000023e8 .LVL735
     /tmp/cc5eykcM.s:20839  .debug_str:0000000000000876 .LASF263
     /tmp/cc5eykcM.s:20945  .debug_str:0000000000000db6 .LASF264
     /tmp/cc5eykcM.s:6192   .text:00000000000020c0 .LFB117
     /tmp/cc5eykcM.s:6373   .text:0000000000002264 .LFE117
     /tmp/cc5eykcM.s:18217  .debug_loc:00000000000008f0 .LLST181
     /tmp/cc5eykcM.s:18228  .debug_loc:0000000000000926 .LLST182
     /tmp/cc5eykcM.s:18247  .debug_loc:0000000000000982 .LLST183
     /tmp/cc5eykcM.s:6251   .text:0000000000002140 .LVL692
     /tmp/cc5eykcM.s:6265   .text:000000000000215c .LVL694
     /tmp/cc5eykcM.s:6271   .text:0000000000002170 .LVL695
     /tmp/cc5eykcM.s:6278   .text:0000000000002184 .LVL696
     /tmp/cc5eykcM.s:6283   .text:0000000000002194 .LVL697
     /tmp/cc5eykcM.s:6303   .text:00000000000021bc .LVL700
     /tmp/cc5eykcM.s:6310   .text:00000000000021d0 .LVL701
     /tmp/cc5eykcM.s:6315   .text:00000000000021e0 .LVL702
     /tmp/cc5eykcM.s:6322   .text:00000000000021f4 .LVL703
     /tmp/cc5eykcM.s:6327   .text:0000000000002204 .LVL704
     /tmp/cc5eykcM.s:6338   .text:0000000000002220 .LVL705
     /tmp/cc5eykcM.s:6218   .text:00000000000020fc .LVL685
     /tmp/cc5eykcM.s:6226   .text:0000000000002110 .LVL688
     /tmp/cc5eykcM.s:6231   .text:000000000000211c .LVL689
     /tmp/cc5eykcM.s:6346   .text:0000000000002234 .LVL706
     /tmp/cc5eykcM.s:6351   .text:0000000000002244 .LVL707
     /tmp/cc5eykcM.s:20719  .debug_str:0000000000000225 .LASF265
     /tmp/cc5eykcM.s:20929  .debug_str:0000000000000cd9 .LASF266
     /tmp/cc5eykcM.s:6045   .text:0000000000001f90 .LFB116
     /tmp/cc5eykcM.s:6175   .text:00000000000020c0 .LFE116
     /tmp/cc5eykcM.s:18254  .debug_loc:00000000000009a5 .LLST179
     /tmp/cc5eykcM.s:6084   .text:0000000000001fe8 .LBB241
     /tmp/cc5eykcM.s:6146   .text:0000000000002084 .LBE241
     /tmp/cc5eykcM.s:18265  .debug_loc:00000000000009db .LLST180
     /tmp/cc5eykcM.s:6094   .text:0000000000002000 .LVL673
GAS LISTING /tmp/cc5eykcM.s 			page 228


     /tmp/cc5eykcM.s:6107   .text:0000000000002018 .LVL675
     /tmp/cc5eykcM.s:6113   .text:000000000000202c .LVL676
     /tmp/cc5eykcM.s:6120   .text:0000000000002040 .LVL677
     /tmp/cc5eykcM.s:6125   .text:0000000000002050 .LVL678
     /tmp/cc5eykcM.s:6132   .text:0000000000002064 .LVL679
     /tmp/cc5eykcM.s:6143   .text:0000000000002080 .LVL680
     /tmp/cc5eykcM.s:6070   .text:0000000000001fc8 .LVL667
     /tmp/cc5eykcM.s:6078   .text:0000000000001fdc .LVL670
     /tmp/cc5eykcM.s:6083   .text:0000000000001fe8 .LVL671
     /tmp/cc5eykcM.s:6151   .text:0000000000002094 .LVL681
     /tmp/cc5eykcM.s:6156   .text:00000000000020a4 .LVL682
     /tmp/cc5eykcM.s:5951   .text:0000000000001f90 .LFE110
     /tmp/cc5eykcM.s:20901  .debug_str:0000000000000b07 .LASF267
     /tmp/cc5eykcM.s:18272  .debug_loc:00000000000009fe .LLST164
     /tmp/cc5eykcM.s:20905  .debug_str:0000000000000b46 .LASF268
     /tmp/cc5eykcM.s:18283  .debug_loc:0000000000000a34 .LLST165
     /tmp/cc5eykcM.s:18302  .debug_loc:0000000000000a90 .LLST166
     /tmp/cc5eykcM.s:20941  .debug_str:0000000000000d86 .LASF269
     /tmp/cc5eykcM.s:18313  .debug_loc:0000000000000ac6 .LLST167
     /tmp/cc5eykcM.s:21185  .debug_str:0000000000001a14 .LASF270
     /tmp/cc5eykcM.s:18331  .debug_loc:0000000000000b12 .LLST168
     /tmp/cc5eykcM.s:18344  .debug_loc:0000000000000b4a .LLST169
     /tmp/cc5eykcM.s:18355  .debug_loc:0000000000000b80 .LLST174
     /tmp/cc5eykcM.s:5699   .text:0000000000001da4 .LBB233
     /tmp/cc5eykcM.s:18366  .debug_loc:0000000000000bb6 .LLST175
     /tmp/cc5eykcM.s:18381  .debug_loc:0000000000000bff .LLST176
     /tmp/cc5eykcM.s:5758   .text:0000000000001e24 .LVL634
     /tmp/cc5eykcM.s:5717   .text:0000000000001dcc .LVL630
     /tmp/cc5eykcM.s:5742   .text:0000000000001e04 .LVL632
     /tmp/cc5eykcM.s:5943   .text:0000000000001f84 .LVL665
     /tmp/cc5eykcM.s:18400  .debug_loc:0000000000000c5b .LLST177
     /tmp/cc5eykcM.s:5782   .text:0000000000001e48 .LVL638
     /tmp/cc5eykcM.s:5809   .text:0000000000001e70 .LBB239
     /tmp/cc5eykcM.s:5830   .text:0000000000001e98 .LBE239
     /tmp/cc5eykcM.s:18411  .debug_loc:0000000000000c91 .LLST178
     /tmp/cc5eykcM.s:18418  .debug_loc:0000000000000cb4 .LLST161
     /tmp/cc5eykcM.s:18463  .debug_loc:0000000000000d1b .LLST163
     /tmp/cc5eykcM.s:5630   .text:0000000000001d28 .LBB228
     /tmp/cc5eykcM.s:5643   .text:0000000000001d40 .LBE228
     /tmp/cc5eykcM.s:18508  .debug_loc:0000000000000d82 .LLST170
     /tmp/cc5eykcM.s:18535  .debug_loc:0000000000000dd7 .LLST171
     /tmp/cc5eykcM.s:5634   .text:0000000000001d30 .LVL620
     /tmp/cc5eykcM.s:5671   .text:0000000000001d74 .LBB230
     /tmp/cc5eykcM.s:5684   .text:0000000000001d8c .LBE230
     /tmp/cc5eykcM.s:18550  .debug_loc:0000000000000e20 .LLST172
     /tmp/cc5eykcM.s:18561  .debug_loc:0000000000000e56 .LLST173
     /tmp/cc5eykcM.s:5675   .text:0000000000001d7c .LVL625
     /tmp/cc5eykcM.s:5456   .text:0000000000001b80 .LVL592
     /tmp/cc5eykcM.s:5463   .text:0000000000001b94 .LVL593
     /tmp/cc5eykcM.s:5468   .text:0000000000001ba0 .LVL594
     /tmp/cc5eykcM.s:5475   .text:0000000000001bb4 .LVL596
     /tmp/cc5eykcM.s:5481   .text:0000000000001bc4 .LVL597
     /tmp/cc5eykcM.s:5486   .text:0000000000001bd0 .LVL598
     /tmp/cc5eykcM.s:5493   .text:0000000000001be4 .LVL600
     /tmp/cc5eykcM.s:5500   .text:0000000000001bf8 .LVL601
     /tmp/cc5eykcM.s:5505   .text:0000000000001c08 .LVL602
     /tmp/cc5eykcM.s:5512   .text:0000000000001c1c .LVL603
GAS LISTING /tmp/cc5eykcM.s 			page 229


     /tmp/cc5eykcM.s:5517   .text:0000000000001c2c .LVL604
     /tmp/cc5eykcM.s:5526   .text:0000000000001c40 .LVL605
     /tmp/cc5eykcM.s:5534   .text:0000000000001c54 .LVL606
     /tmp/cc5eykcM.s:5543   .text:0000000000001c68 .LVL607
     /tmp/cc5eykcM.s:5551   .text:0000000000001c7c .LVL608
     /tmp/cc5eykcM.s:5562   .text:0000000000001c90 .LVL610
     /tmp/cc5eykcM.s:5571   .text:0000000000001ca4 .LVL612
     /tmp/cc5eykcM.s:5619   .text:0000000000001d10 .LVL618
     /tmp/cc5eykcM.s:5649   .text:0000000000001d4c .LVL622
     /tmp/cc5eykcM.s:5664   .text:0000000000001d6c .LVL623
     /tmp/cc5eykcM.s:5692   .text:0000000000001d9c .LVL627
     /tmp/cc5eykcM.s:5770   .text:0000000000001e30 .LVL636
     /tmp/cc5eykcM.s:5839   .text:0000000000001eac .LVL646
     /tmp/cc5eykcM.s:5847   .text:0000000000001ebc .LVL647
     /tmp/cc5eykcM.s:5850   .text:0000000000001ec8 .LVL648
     /tmp/cc5eykcM.s:5894   .text:0000000000001f14 .LVL653
     /tmp/cc5eykcM.s:5898   .text:0000000000001f20 .LVL654
     /tmp/cc5eykcM.s:5906   .text:0000000000001f30 .LVL656
     /tmp/cc5eykcM.s:5910   .text:0000000000001f3c .LVL657
     /tmp/cc5eykcM.s:5918   .text:0000000000001f4c .LVL659
     /tmp/cc5eykcM.s:5922   .text:0000000000001f58 .LVL660
     /tmp/cc5eykcM.s:5930   .text:0000000000001f68 .LVL662
     /tmp/cc5eykcM.s:5934   .text:0000000000001f74 .LVL663
     /tmp/cc5eykcM.s:5947   .text:0000000000001f90 .LVL666
     /tmp/cc5eykcM.s:1585   .text._ZN28ConsumerProducerCPP_API_test8Consumer3runEv:0000000000000000 .LFB109
     /tmp/cc5eykcM.s:1702   .text._ZN28ConsumerProducerCPP_API_test8Consumer3runEv:00000000000000d0 .LFE109
     /tmp/cc5eykcM.s:18572  .debug_loc:0000000000000e8c .LLST53
     /tmp/cc5eykcM.s:18590  .debug_loc:0000000000000ed8 .LLST54
     /tmp/cc5eykcM.s:18610  .debug_loc:0000000000000f35 .LLST55
     /tmp/cc5eykcM.s:1616   .text._ZN28ConsumerProducerCPP_API_test8Consumer3runEv:0000000000000034 .LVL162
     /tmp/cc5eykcM.s:1630   .text._ZN28ConsumerProducerCPP_API_test8Consumer3runEv:0000000000000050 .LVL163
     /tmp/cc5eykcM.s:1641   .text._ZN28ConsumerProducerCPP_API_test8Consumer3runEv:0000000000000064 .LVL166
     /tmp/cc5eykcM.s:1652   .text._ZN28ConsumerProducerCPP_API_test8Consumer3runEv:0000000000000074 .LBB125
     /tmp/cc5eykcM.s:1667   .text._ZN28ConsumerProducerCPP_API_test8Consumer3runEv:0000000000000090 .LBE125
     /tmp/cc5eykcM.s:18617  .debug_loc:0000000000000f58 .LLST56
     /tmp/cc5eykcM.s:1659   .text._ZN28ConsumerProducerCPP_API_test8Consumer3runEv:0000000000000084 .LVL168
     /tmp/cc5eykcM.s:1665   .text._ZN28ConsumerProducerCPP_API_test8Consumer3runEv:0000000000000090 .LVL170
     /tmp/cc5eykcM.s:1675   .text._ZN28ConsumerProducerCPP_API_test8Consumer3runEv:00000000000000a0 .LVL171
     /tmp/cc5eykcM.s:1683   .text._ZN28ConsumerProducerCPP_API_test8Consumer3runEv:00000000000000b4 .LVL172
     /tmp/cc5eykcM.s:20689  .debug_str:0000000000000049 .LASF271
     /tmp/cc5eykcM.s:1805   .text._ZN28ConsumerProducerCPP_API_test8Producer3runEv:0000000000000000 .LFB105
     /tmp/cc5eykcM.s:1883   .text._ZN28ConsumerProducerCPP_API_test8Producer3runEv:0000000000000094 .LFE105
     /tmp/cc5eykcM.s:18624  .debug_loc:0000000000000f7b .LLST60
     /tmp/cc5eykcM.s:18642  .debug_loc:0000000000000fc7 .LLST61
     /tmp/cc5eykcM.s:1840   .text._ZN28ConsumerProducerCPP_API_test8Producer3runEv:0000000000000044 .LVL187
     /tmp/cc5eykcM.s:1857   .text._ZN28ConsumerProducerCPP_API_test8Producer3runEv:0000000000000068 .LVL189
     /tmp/cc5eykcM.s:1866   .text._ZN28ConsumerProducerCPP_API_test8Producer3runEv:000000000000007c .LVL190
     /tmp/cc5eykcM.s:20731  .debug_str:000000000000028f .LASF272
     /tmp/cc5eykcM.s:1505   .text._ZN28ConsumerProducerCPP_API_test16ProducerKeyborad3runEv:0000000000000000 .LFB101
     /tmp/cc5eykcM.s:1578   .text._ZN28ConsumerProducerCPP_API_test16ProducerKeyborad3runEv:0000000000000084 .LFE101
     /tmp/cc5eykcM.s:18662  .debug_loc:0000000000001024 .LLST51
     /tmp/cc5eykcM.s:18680  .debug_loc:0000000000001070 .LLST52
     /tmp/cc5eykcM.s:1528   .text._ZN28ConsumerProducerCPP_API_test16ProducerKeyborad3runEv:0000000000000020 .LVL150
     /tmp/cc5eykcM.s:1540   .text._ZN28ConsumerProducerCPP_API_test16ProducerKeyborad3runEv:000000000000003c .LVL152
     /tmp/cc5eykcM.s:1558   .text._ZN28ConsumerProducerCPP_API_test16ProducerKeyborad3runEv:0000000000000060 .LVL156
     /tmp/cc5eykcM.s:1564   .text._ZN28ConsumerProducerCPP_API_test16ProducerKeyborad3runEv:0000000000000070 .LVL157
     /tmp/cc5eykcM.s:20909  .debug_str:0000000000000b78 .LASF273
GAS LISTING /tmp/cc5eykcM.s 			page 230


     /tmp/cc5eykcM.s:5337   .text:0000000000001ab0 .LFB97
     /tmp/cc5eykcM.s:5410   .text:0000000000001b38 .LFE97
     /tmp/cc5eykcM.s:21029  .debug_str:00000000000011ab .LASF274
     /tmp/cc5eykcM.s:20857  .debug_str:0000000000000940 .LASF275
     /tmp/cc5eykcM.s:21067  .debug_str:0000000000001382 .LASF276
     /tmp/cc5eykcM.s:5361   .text:0000000000001ad4 .LBB227
     /tmp/cc5eykcM.s:5386   .text:0000000000001b0c .LBE227
     /tmp/cc5eykcM.s:18695  .debug_loc:00000000000010b9 .LLST159
     /tmp/cc5eykcM.s:5377   .text:0000000000001b00 .LVL589
     /tmp/cc5eykcM.s:1716   .text:0000000000000408 .LFB96
     /tmp/cc5eykcM.s:1798   .text:00000000000004ac .LFE96
     /tmp/cc5eykcM.s:18707  .debug_loc:00000000000010f0 .LLST57
     /tmp/cc5eykcM.s:20965  .debug_str:0000000000000f0b .LASF277
     /tmp/cc5eykcM.s:18721  .debug_loc:0000000000001129 .LLST58
     /tmp/cc5eykcM.s:18728  .debug_loc:000000000000114c .LLST59
     /tmp/cc5eykcM.s:1751   .text:0000000000000440 .LVL179
     /tmp/cc5eykcM.s:1758   .text:0000000000000454 .LVL180
     /tmp/cc5eykcM.s:1763   .text:0000000000000464 .LVL181
     /tmp/cc5eykcM.s:1768   .text:0000000000000470 .LVL182
     /tmp/cc5eykcM.s:5260   .text:0000000000001ab0 .LFE95
     /tmp/cc5eykcM.s:18740  .debug_loc:0000000000001183 .LLST144
     /tmp/cc5eykcM.s:18751  .debug_loc:00000000000011b9 .LLST145
     /tmp/cc5eykcM.s:18766  .debug_loc:0000000000001202 .LLST146
     /tmp/cc5eykcM.s:21183  .debug_str:0000000000001a0c .LASF278
     /tmp/cc5eykcM.s:18777  .debug_loc:0000000000001238 .LLST147
     /tmp/cc5eykcM.s:20825  .debug_str:0000000000000792 .LASF279
     /tmp/cc5eykcM.s:18795  .debug_loc:0000000000001284 .LLST148
     /tmp/cc5eykcM.s:20955  .debug_str:0000000000000e5e .LASF280
     /tmp/cc5eykcM.s:18806  .debug_loc:00000000000012ba .LLST149
     /tmp/cc5eykcM.s:18819  .debug_loc:00000000000012f2 .LLST152
     /tmp/cc5eykcM.s:4965   .text:000000000000186c .LBB218
     /tmp/cc5eykcM.s:18834  .debug_loc:000000000000133b .LLST153
     /tmp/cc5eykcM.s:18849  .debug_loc:0000000000001384 .LLST154
     /tmp/cc5eykcM.s:5031   .text:00000000000018f8 .LVL549
     /tmp/cc5eykcM.s:5056   .text:0000000000001920 .LBB222
     /tmp/cc5eykcM.s:5069   .text:0000000000001938 .LBE222
     /tmp/cc5eykcM.s:18868  .debug_loc:00000000000013e0 .LLST155
     /tmp/cc5eykcM.s:18879  .debug_loc:0000000000001416 .LLST156
     /tmp/cc5eykcM.s:5060   .text:0000000000001928 .LVL553
     /tmp/cc5eykcM.s:4987   .text:000000000000189c .LVL545
     /tmp/cc5eykcM.s:5014   .text:00000000000018d8 .LVL547
     /tmp/cc5eykcM.s:5043   .text:0000000000001908 .LVL551
     /tmp/cc5eykcM.s:5240   .text:0000000000001a88 .LVL581
     /tmp/cc5eykcM.s:5252   .text:0000000000001aa4 .LVL584
     /tmp/cc5eykcM.s:5082   .text:0000000000001950 .LBB224
     /tmp/cc5eykcM.s:5100   .text:0000000000001970 .LBE224
     /tmp/cc5eykcM.s:18894  .debug_loc:000000000000145f .LLST157
     /tmp/cc5eykcM.s:5093   .text:0000000000001968 .LVL557
     /tmp/cc5eykcM.s:5101   .text:0000000000001970 .LBB225
     /tmp/cc5eykcM.s:5128   .text:00000000000019a0 .LBE225
     /tmp/cc5eykcM.s:18905  .debug_loc:0000000000001495 .LLST158
     /tmp/cc5eykcM.s:18912  .debug_loc:00000000000014b8 .LLST141
     /tmp/cc5eykcM.s:18943  .debug_loc:0000000000001502 .LLST143
     /tmp/cc5eykcM.s:4939   .text:0000000000001840 .LBB215
     /tmp/cc5eykcM.s:4952   .text:0000000000001858 .LBE215
     /tmp/cc5eykcM.s:18974  .debug_loc:000000000000154c .LLST150
     /tmp/cc5eykcM.s:19001  .debug_loc:00000000000015a1 .LLST151
GAS LISTING /tmp/cc5eykcM.s 			page 231


     /tmp/cc5eykcM.s:4943   .text:0000000000001848 .LVL540
     /tmp/cc5eykcM.s:4762   .text:0000000000001698 .LVL512
     /tmp/cc5eykcM.s:4769   .text:00000000000016ac .LVL513
     /tmp/cc5eykcM.s:4774   .text:00000000000016b8 .LVL514
     /tmp/cc5eykcM.s:4781   .text:00000000000016cc .LVL516
     /tmp/cc5eykcM.s:4787   .text:00000000000016dc .LVL517
     /tmp/cc5eykcM.s:4792   .text:00000000000016e8 .LVL518
     /tmp/cc5eykcM.s:4799   .text:00000000000016fc .LVL520
     /tmp/cc5eykcM.s:4806   .text:0000000000001710 .LVL521
     /tmp/cc5eykcM.s:4811   .text:0000000000001720 .LVL522
     /tmp/cc5eykcM.s:4818   .text:0000000000001734 .LVL523
     /tmp/cc5eykcM.s:4823   .text:0000000000001744 .LVL524
     /tmp/cc5eykcM.s:4832   .text:0000000000001758 .LVL525
     /tmp/cc5eykcM.s:4840   .text:000000000000176c .LVL526
     /tmp/cc5eykcM.s:4849   .text:0000000000001780 .LVL527
     /tmp/cc5eykcM.s:4857   .text:0000000000001794 .LVL528
     /tmp/cc5eykcM.s:4868   .text:00000000000017a8 .LVL530
     /tmp/cc5eykcM.s:4877   .text:00000000000017bc .LVL532
     /tmp/cc5eykcM.s:4926   .text:0000000000001828 .LVL538
     /tmp/cc5eykcM.s:4958   .text:0000000000001864 .LVL542
     /tmp/cc5eykcM.s:5081   .text:0000000000001950 .LVL555
     /tmp/cc5eykcM.s:5137   .text:00000000000019b4 .LVL564
     /tmp/cc5eykcM.s:5156   .text:00000000000019dc .LVL566
     /tmp/cc5eykcM.s:5159   .text:00000000000019e8 .LVL567
     /tmp/cc5eykcM.s:5203   .text:0000000000001a34 .LVL572
     /tmp/cc5eykcM.s:5207   .text:0000000000001a40 .LVL573
     /tmp/cc5eykcM.s:5215   .text:0000000000001a50 .LVL575
     /tmp/cc5eykcM.s:5219   .text:0000000000001a5c .LVL576
     /tmp/cc5eykcM.s:5227   .text:0000000000001a6c .LVL578
     /tmp/cc5eykcM.s:5231   .text:0000000000001a78 .LVL579
     /tmp/cc5eykcM.s:5244   .text:0000000000001a94 .LVL582
     /tmp/cc5eykcM.s:5256   .text:0000000000001ab0 .LVL585
     /tmp/cc5eykcM.s:4542   .text:000000000000155c .LFB94
     /tmp/cc5eykcM.s:4681   .text:0000000000001650 .LFE94
     /tmp/cc5eykcM.s:19016  .debug_loc:00000000000015ea .LLST133
     /tmp/cc5eykcM.s:19034  .debug_loc:0000000000001636 .LLST134
     /tmp/cc5eykcM.s:19052  .debug_loc:0000000000001682 .LLST135
     /tmp/cc5eykcM.s:19070  .debug_loc:00000000000016ce .LLST136
     /tmp/cc5eykcM.s:19094  .debug_loc:000000000000173e .LLST137
     /tmp/cc5eykcM.s:4576   .text:0000000000001594 .LVL494
     /tmp/cc5eykcM.s:4584   .text:00000000000015a4 .LVL496
     /tmp/cc5eykcM.s:4596   .text:00000000000015bc .LVL497
     /tmp/cc5eykcM.s:4607   .text:00000000000015d0 .LVL500
     /tmp/cc5eykcM.s:4629   .text:00000000000015f4 .LBB214
     /tmp/cc5eykcM.s:4644   .text:0000000000001610 .LBE214
     /tmp/cc5eykcM.s:19101  .debug_loc:0000000000001761 .LLST138
     /tmp/cc5eykcM.s:4636   .text:0000000000001604 .LVL502
     /tmp/cc5eykcM.s:4642   .text:0000000000001610 .LVL504
     /tmp/cc5eykcM.s:4652   .text:0000000000001620 .LVL505
     /tmp/cc5eykcM.s:4659   .text:0000000000001630 .LVL506
     /tmp/cc5eykcM.s:4688   .text._ZN34ConsumerProducer_CPP_Sync_API_test8Consumer3runEv:0000000000000000 .LFB93
     /tmp/cc5eykcM.s:4715   .text._ZN34ConsumerProducer_CPP_Sync_API_test8Consumer3runEv:000000000000002c .LFE93
     /tmp/cc5eykcM.s:19108  .debug_loc:0000000000001784 .LLST139
     /tmp/cc5eykcM.s:4704   .text._ZN34ConsumerProducer_CPP_Sync_API_test8Consumer3runEv:000000000000001c .LVL511
     /tmp/cc5eykcM.s:21245  .debug_str:0000000000001cf7 .LASF281
     /tmp/cc5eykcM.s:4419   .text:00000000000014c8 .LFB89
     /tmp/cc5eykcM.s:4501   .text:000000000000155c .LFE89
GAS LISTING /tmp/cc5eykcM.s 			page 232


     /tmp/cc5eykcM.s:19122  .debug_loc:00000000000017bd .LLST128
     /tmp/cc5eykcM.s:19136  .debug_loc:00000000000017f6 .LLST129
     /tmp/cc5eykcM.s:19154  .debug_loc:0000000000001842 .LLST130
     /tmp/cc5eykcM.s:19172  .debug_loc:000000000000188e .LLST131
     /tmp/cc5eykcM.s:4447   .text:00000000000014f4 .LVL482
     /tmp/cc5eykcM.s:4460   .text:0000000000001514 .LVL483
     /tmp/cc5eykcM.s:4484   .text:0000000000001544 .LVL486
     /tmp/cc5eykcM.s:4508   .text._ZN34ConsumerProducer_CPP_Sync_API_test8Producer3runEv:0000000000000000 .LFB88
     /tmp/cc5eykcM.s:4535   .text._ZN34ConsumerProducer_CPP_Sync_API_test8Producer3runEv:000000000000002c .LFE88
     /tmp/cc5eykcM.s:19196  .debug_loc:00000000000018fe .LLST132
     /tmp/cc5eykcM.s:4524   .text._ZN34ConsumerProducer_CPP_Sync_API_test8Producer3runEv:000000000000001c .LVL490
     /tmp/cc5eykcM.s:20911  .debug_str:0000000000000bc1 .LASF282
     /tmp/cc5eykcM.s:4272   .text:0000000000001408 .LFB84
     /tmp/cc5eykcM.s:4378   .text:00000000000014c8 .LFE84
     /tmp/cc5eykcM.s:19210  .debug_loc:0000000000001937 .LLST122
     /tmp/cc5eykcM.s:19228  .debug_loc:0000000000001983 .LLST123
     /tmp/cc5eykcM.s:19246  .debug_loc:00000000000019cf .LLST124
     /tmp/cc5eykcM.s:19264  .debug_loc:0000000000001a1b .LLST125
     /tmp/cc5eykcM.s:19279  .debug_loc:0000000000001a64 .LLST126
     /tmp/cc5eykcM.s:4304   .text:000000000000143c .LVL464
     /tmp/cc5eykcM.s:4310   .text:0000000000001444 .LVL465
     /tmp/cc5eykcM.s:4321   .text:000000000000145c .LVL467
     /tmp/cc5eykcM.s:4353   .text:00000000000014a0 .LVL472
     /tmp/cc5eykcM.s:4358   .text:00000000000014ac .LVL473
     /tmp/cc5eykcM.s:4385   .text._ZN34ConsumerProducer_CPP_Sync_API_test16ProducerKeyboard3runEv:0000000000000000 .LFB83
     /tmp/cc5eykcM.s:4412   .text._ZN34ConsumerProducer_CPP_Sync_API_test16ProducerKeyboard3runEv:000000000000002c .LFE83
     /tmp/cc5eykcM.s:19303  .debug_loc:0000000000001ad4 .LLST127
     /tmp/cc5eykcM.s:4401   .text._ZN34ConsumerProducer_CPP_Sync_API_test16ProducerKeyboard3runEv:000000000000001c .LVL478
     /tmp/cc5eykcM.s:21305  .debug_str:0000000000002119 .LASF283
     /tmp/cc5eykcM.s:4243   .text:0000000000001408 .LFE79
     /tmp/cc5eykcM.s:19317  .debug_loc:0000000000001b0d .LLST108
     /tmp/cc5eykcM.s:19328  .debug_loc:0000000000001b43 .LLST109
     /tmp/cc5eykcM.s:19339  .debug_loc:0000000000001b79 .LLST110
     /tmp/cc5eykcM.s:19350  .debug_loc:0000000000001baf .LLST111
     /tmp/cc5eykcM.s:19368  .debug_loc:0000000000001bfb .LLST112
     /tmp/cc5eykcM.s:4022   .text:0000000000001268 .LBB198
     /tmp/cc5eykcM.s:4071   .text:00000000000012d8 .LBE198
     /tmp/cc5eykcM.s:19381  .debug_loc:0000000000001c33 .LLST117
     /tmp/cc5eykcM.s:4039   .text:0000000000001290 .LVL442
     /tmp/cc5eykcM.s:4076   .text:00000000000012e0 .LBB199
     /tmp/cc5eykcM.s:4094   .text:0000000000001300 .LBE199
     /tmp/cc5eykcM.s:19388  .debug_loc:0000000000001c56 .LLST118
     /tmp/cc5eykcM.s:4087   .text:00000000000012f8 .LVL446
     /tmp/cc5eykcM.s:19403  .debug_loc:0000000000001c9f .LLST105
     /tmp/cc5eykcM.s:19434  .debug_loc:0000000000001ce9 .LLST107
     /tmp/cc5eykcM.s:3846   .text:0000000000001104 .LBB186
     /tmp/cc5eykcM.s:19465  .debug_loc:0000000000001d33 .LLST113
     /tmp/cc5eykcM.s:19480  .debug_loc:0000000000001d6d .LLST114
     /tmp/cc5eykcM.s:3850   .text:0000000000001104 .LBB188
     /tmp/cc5eykcM.s:3904   .text:0000000000001168 .LBB190
     /tmp/cc5eykcM.s:3961   .text:00000000000011d4 .LBE190
     /tmp/cc5eykcM.s:19493  .debug_loc:0000000000001da5 .LLST115
     /tmp/cc5eykcM.s:3909   .text:0000000000001170 .LBB193
     /tmp/cc5eykcM.s:3958   .text:00000000000011d4 .LBE193
     /tmp/cc5eykcM.s:19502  .debug_loc:0000000000001dd1 .LLST116
     /tmp/cc5eykcM.s:3864   .text:0000000000001124 .LVL425
     /tmp/cc5eykcM.s:4108   .text:0000000000001320 .LBB200
GAS LISTING /tmp/cc5eykcM.s 			page 233


     /tmp/cc5eykcM.s:19509  .debug_loc:0000000000001df4 .LLST119
     /tmp/cc5eykcM.s:4111   .text:0000000000001320 .LBB202
     /tmp/cc5eykcM.s:4163   .text:0000000000001370 .LBB204
     /tmp/cc5eykcM.s:4220   .text:00000000000013dc .LBE204
     /tmp/cc5eykcM.s:19520  .debug_loc:0000000000001e2a .LLST120
     /tmp/cc5eykcM.s:4168   .text:0000000000001378 .LBB207
     /tmp/cc5eykcM.s:4217   .text:00000000000013dc .LBE207
     /tmp/cc5eykcM.s:19529  .debug_loc:0000000000001e56 .LLST121
     /tmp/cc5eykcM.s:4125   .text:0000000000001340 .LVL451
     /tmp/cc5eykcM.s:3778   .text:0000000000001050 .LVL411
     /tmp/cc5eykcM.s:3785   .text:0000000000001064 .LVL412
     /tmp/cc5eykcM.s:3790   .text:0000000000001070 .LVL413
     /tmp/cc5eykcM.s:3797   .text:0000000000001084 .LVL415
     /tmp/cc5eykcM.s:3803   .text:0000000000001094 .LVL416
     /tmp/cc5eykcM.s:3808   .text:00000000000010a0 .LVL417
     /tmp/cc5eykcM.s:3815   .text:00000000000010b4 .LVL419
     /tmp/cc5eykcM.s:3822   .text:00000000000010c8 .LVL420
     /tmp/cc5eykcM.s:3827   .text:00000000000010d8 .LVL421
     /tmp/cc5eykcM.s:3834   .text:00000000000010ec .LVL422
     /tmp/cc5eykcM.s:3839   .text:00000000000010fc .LVL423
     /tmp/cc5eykcM.s:3876   .text:0000000000001138 .LVL427
     /tmp/cc5eykcM.s:3885   .text:000000000000114c .LVL428
     /tmp/cc5eykcM.s:3893   .text:0000000000001160 .LVL429
     /tmp/cc5eykcM.s:3977   .text:00000000000011f8 .LVL434
     /tmp/cc5eykcM.s:4021   .text:0000000000001268 .LVL439
     /tmp/cc5eykcM.s:4075   .text:00000000000012e0 .LVL444
     /tmp/cc5eykcM.s:4099   .text:0000000000001310 .LVL449
     /tmp/cc5eykcM.s:4107   .text:0000000000001320 .LVL450
     /tmp/cc5eykcM.s:4236   .text:00000000000013fc .LVL459
     /tmp/cc5eykcM.s:4240   .text:0000000000001408 .LVL460
     /tmp/cc5eykcM.s:1369   .text:0000000000000328 .LFB78
     /tmp/cc5eykcM.s:1498   .text:0000000000000408 .LFE78
     /tmp/cc5eykcM.s:19536  .debug_loc:0000000000001e79 .LLST46
     /tmp/cc5eykcM.s:19554  .debug_loc:0000000000001ec5 .LLST47
     /tmp/cc5eykcM.s:19572  .debug_loc:0000000000001f11 .LLST48
     /tmp/cc5eykcM.s:19596  .debug_loc:0000000000001f81 .LLST49
     /tmp/cc5eykcM.s:1400   .text:0000000000000358 .LVL133
     /tmp/cc5eykcM.s:1408   .text:0000000000000368 .LVL135
     /tmp/cc5eykcM.s:1420   .text:0000000000000380 .LVL136
     /tmp/cc5eykcM.s:1431   .text:0000000000000394 .LVL139
     /tmp/cc5eykcM.s:1453   .text:00000000000003b8 .LBB122
     /tmp/cc5eykcM.s:1466   .text:00000000000003d0 .LBE122
     /tmp/cc5eykcM.s:19603  .debug_loc:0000000000001fa4 .LLST50
     /tmp/cc5eykcM.s:1458   .text:00000000000003c4 .LVL141
     /tmp/cc5eykcM.s:1464   .text:00000000000003d0 .LVL143
     /tmp/cc5eykcM.s:1472   .text:00000000000003dc .LVL144
     /tmp/cc5eykcM.s:1479   .text:00000000000003ec .LVL145
     /tmp/cc5eykcM.s:1281   .text:0000000000000294 .LFB77
     /tmp/cc5eykcM.s:1363   .text:0000000000000328 .LFE77
     /tmp/cc5eykcM.s:19610  .debug_loc:0000000000001fc7 .LLST43
     /tmp/cc5eykcM.s:19628  .debug_loc:0000000000002013 .LLST44
     /tmp/cc5eykcM.s:19646  .debug_loc:000000000000205f .LLST45
     /tmp/cc5eykcM.s:1309   .text:00000000000002c0 .LVL123
     /tmp/cc5eykcM.s:1322   .text:00000000000002e0 .LVL124
     /tmp/cc5eykcM.s:1346   .text:0000000000000310 .LVL127
     /tmp/cc5eykcM.s:1175   .text:00000000000001e4 .LFB76
     /tmp/cc5eykcM.s:1275   .text:0000000000000294 .LFE76
GAS LISTING /tmp/cc5eykcM.s 			page 234


     /tmp/cc5eykcM.s:19670  .debug_loc:00000000000020cf .LLST39
     /tmp/cc5eykcM.s:19688  .debug_loc:000000000000211b .LLST40
     /tmp/cc5eykcM.s:19706  .debug_loc:0000000000002167 .LLST41
     /tmp/cc5eykcM.s:19721  .debug_loc:00000000000021b0 .LLST42
     /tmp/cc5eykcM.s:1205   .text:0000000000000210 .LVL108
     /tmp/cc5eykcM.s:1211   .text:0000000000000218 .LVL109
     /tmp/cc5eykcM.s:1222   .text:0000000000000230 .LVL111
     /tmp/cc5eykcM.s:1253   .text:0000000000000270 .LVL116
     /tmp/cc5eykcM.s:1258   .text:000000000000027c .LVL117
     /tmp/cc5eykcM.s:21223  .debug_str:0000000000001b7d .LASF284
     /tmp/cc5eykcM.s:3528   .text:0000000000001014 .LFE71
     /tmp/cc5eykcM.s:3397   .text:0000000000000efc .LBB150
     /tmp/cc5eykcM.s:3420   .text:0000000000000f28 .LBE150
     /tmp/cc5eykcM.s:19745  .debug_loc:0000000000002220 .LLST98
     /tmp/cc5eykcM.s:3413   .text:0000000000000f20 .LVL386
     /tmp/cc5eykcM.s:3440   .text:0000000000000f60 .LBB151
     /tmp/cc5eykcM.s:3469   .text:0000000000000f90 .LBE151
     /tmp/cc5eykcM.s:21189  .debug_str:0000000000001a30 .LASF285
     /tmp/cc5eykcM.s:19756  .debug_loc:0000000000002256 .LLST99
     /tmp/cc5eykcM.s:20821  .debug_str:0000000000000760 .LASF286
     /tmp/cc5eykcM.s:20985  .debug_str:0000000000000fb7 .LASF328
     /tmp/cc5eykcM.s:19763  .debug_loc:0000000000002279 .LLST100
     /tmp/cc5eykcM.s:21177  .debug_str:00000000000019ca .LASF287
     /tmp/cc5eykcM.s:3284   .text:0000000000000e20 .LBB142
     /tmp/cc5eykcM.s:3295   .text:0000000000000e34 .LBE142
     /tmp/cc5eykcM.s:19774  .debug_loc:00000000000022af .LLST94
     /tmp/cc5eykcM.s:3288   .text:0000000000000e28 .LVL367
     /tmp/cc5eykcM.s:3315   .text:0000000000000e5c .LBB144
     /tmp/cc5eykcM.s:3326   .text:0000000000000e70 .LBE144
     /tmp/cc5eykcM.s:19785  .debug_loc:00000000000022e5 .LLST95
     /tmp/cc5eykcM.s:3319   .text:0000000000000e64 .LVL372
     /tmp/cc5eykcM.s:3346   .text:0000000000000e98 .LBB146
     /tmp/cc5eykcM.s:3357   .text:0000000000000eac .LBE146
     /tmp/cc5eykcM.s:19796  .debug_loc:000000000000231b .LLST96
     /tmp/cc5eykcM.s:3350   .text:0000000000000ea0 .LVL377
     /tmp/cc5eykcM.s:3377   .text:0000000000000ed4 .LBB148
     /tmp/cc5eykcM.s:3388   .text:0000000000000ee8 .LBE148
     /tmp/cc5eykcM.s:19807  .debug_loc:0000000000002351 .LLST97
     /tmp/cc5eykcM.s:3381   .text:0000000000000edc .LVL382
     /tmp/cc5eykcM.s:3277   .text:0000000000000e18 .LVL365
     /tmp/cc5eykcM.s:3303   .text:0000000000000e48 .LVL369
     /tmp/cc5eykcM.s:3308   .text:0000000000000e54 .LVL370
     /tmp/cc5eykcM.s:3334   .text:0000000000000e84 .LVL374
     /tmp/cc5eykcM.s:3339   .text:0000000000000e90 .LVL375
     /tmp/cc5eykcM.s:3365   .text:0000000000000ec0 .LVL379
     /tmp/cc5eykcM.s:3370   .text:0000000000000ecc .LVL380
     /tmp/cc5eykcM.s:3396   .text:0000000000000efc .LVL384
     /tmp/cc5eykcM.s:3424   .text:0000000000000f30 .LVL389
     /tmp/cc5eykcM.s:3473   .text:0000000000000f9c .LVL396
     /tmp/cc5eykcM.s:3477   .text:0000000000000fa8 .LVL397
     /tmp/cc5eykcM.s:3484   .text:0000000000000fb8 .LVL398
     /tmp/cc5eykcM.s:3488   .text:0000000000000fc4 .LVL399
     /tmp/cc5eykcM.s:3495   .text:0000000000000fd4 .LVL400
     /tmp/cc5eykcM.s:3499   .text:0000000000000fe0 .LVL401
     /tmp/cc5eykcM.s:3506   .text:0000000000000ff0 .LVL402
     /tmp/cc5eykcM.s:3510   .text:0000000000000ffc .LVL403
     /tmp/cc5eykcM.s:3064   .text:0000000000000cac .LFB70
GAS LISTING /tmp/cc5eykcM.s 			page 235


     /tmp/cc5eykcM.s:3213   .text:0000000000000df4 .LFE70
     /tmp/cc5eykcM.s:19818  .debug_loc:0000000000002387 .LLST89
     /tmp/cc5eykcM.s:19832  .debug_loc:00000000000023c0 .LLST90
     /tmp/cc5eykcM.s:19846  .debug_loc:00000000000023f9 .LLST91
     /tmp/cc5eykcM.s:20827  .debug_str:00000000000007a1 .LASF288
     /tmp/cc5eykcM.s:19866  .debug_loc:0000000000002456 .LLST92
     /tmp/cc5eykcM.s:3091   .text:0000000000000cdc .LVL341
     /tmp/cc5eykcM.s:3098   .text:0000000000000cf0 .LVL342
     /tmp/cc5eykcM.s:3103   .text:0000000000000d00 .LVL343
     /tmp/cc5eykcM.s:3118   .text:0000000000000d20 .LVL346
     /tmp/cc5eykcM.s:3129   .text:0000000000000d2c .LVL347
     /tmp/cc5eykcM.s:3134   .text:0000000000000d38 .LVL348
     /tmp/cc5eykcM.s:3142   .text:0000000000000d4c .LVL351
     /tmp/cc5eykcM.s:3149   .text:0000000000000d60 .LVL352
     /tmp/cc5eykcM.s:3154   .text:0000000000000d70 .LVL353
     /tmp/cc5eykcM.s:3161   .text:0000000000000d84 .LVL354
     /tmp/cc5eykcM.s:3168   .text:0000000000000d98 .LVL355
     /tmp/cc5eykcM.s:3173   .text:0000000000000da8 .LVL356
     /tmp/cc5eykcM.s:3188   .text:0000000000000dc8 .LVL359
     /tmp/cc5eykcM.s:3196   .text:0000000000000ddc .LVL360
     /tmp/cc5eykcM.s:2848   .text:0000000000000b2c .LFB69
     /tmp/cc5eykcM.s:3023   .text:0000000000000cac .LFE69
     /tmp/cc5eykcM.s:19877  .debug_loc:000000000000248c .LLST83
     /tmp/cc5eykcM.s:19891  .debug_loc:00000000000024c5 .LLST84
     /tmp/cc5eykcM.s:19905  .debug_loc:00000000000024fe .LLST85
     /tmp/cc5eykcM.s:19925  .debug_loc:000000000000255b .LLST86
     /tmp/cc5eykcM.s:19933  .debug_loc:000000000000257f .LLST87
     /tmp/cc5eykcM.s:2875   .text:0000000000000b5c .LVL310
     /tmp/cc5eykcM.s:2882   .text:0000000000000b70 .LVL311
     /tmp/cc5eykcM.s:2887   .text:0000000000000b80 .LVL312
     /tmp/cc5eykcM.s:2902   .text:0000000000000ba0 .LVL315
     /tmp/cc5eykcM.s:2913   .text:0000000000000bac .LVL316
     /tmp/cc5eykcM.s:2927   .text:0000000000000bc0 .LVL318
     /tmp/cc5eykcM.s:2934   .text:0000000000000bd4 .LVL319
     /tmp/cc5eykcM.s:2939   .text:0000000000000be4 .LVL320
     /tmp/cc5eykcM.s:2944   .text:0000000000000bf0 .LVL321
     /tmp/cc5eykcM.s:2952   .text:0000000000000c04 .LVL324
     /tmp/cc5eykcM.s:2959   .text:0000000000000c18 .LVL325
     /tmp/cc5eykcM.s:2964   .text:0000000000000c28 .LVL326
     /tmp/cc5eykcM.s:2971   .text:0000000000000c3c .LVL327
     /tmp/cc5eykcM.s:2978   .text:0000000000000c50 .LVL328
     /tmp/cc5eykcM.s:2983   .text:0000000000000c60 .LVL329
     /tmp/cc5eykcM.s:2998   .text:0000000000000c80 .LVL332
     /tmp/cc5eykcM.s:3006   .text:0000000000000c94 .LVL333
     /tmp/cc5eykcM.s:2684   .text:0000000000000a58 .LFB68
     /tmp/cc5eykcM.s:2807   .text:0000000000000b2c .LFE68
     /tmp/cc5eykcM.s:19944  .debug_loc:00000000000025b5 .LLST77
     /tmp/cc5eykcM.s:19958  .debug_loc:00000000000025ee .LLST78
     /tmp/cc5eykcM.s:2702   .text:0000000000000a70 .LBB134
     /tmp/cc5eykcM.s:2778   .text:0000000000000af0 .LBE134
     /tmp/cc5eykcM.s:19972  .debug_loc:0000000000002627 .LLST79
     /tmp/cc5eykcM.s:19984  .debug_loc:000000000000265e .LLST80
     /tmp/cc5eykcM.s:2725   .text:0000000000000a90 .LBB138
     /tmp/cc5eykcM.s:2740   .text:0000000000000aa8 .LBE138
     /tmp/cc5eykcM.s:19996  .debug_loc:0000000000002695 .LLST81
     /tmp/cc5eykcM.s:2714   .text:0000000000000a80 .LVL292
     /tmp/cc5eykcM.s:2756   .text:0000000000000ac4 .LVL298
GAS LISTING /tmp/cc5eykcM.s 			page 236


     /tmp/cc5eykcM.s:2763   .text:0000000000000ad8 .LVL299
     /tmp/cc5eykcM.s:2768   .text:0000000000000ae8 .LVL300
     /tmp/cc5eykcM.s:2783   .text:0000000000000b00 .LVL302
     /tmp/cc5eykcM.s:2791   .text:0000000000000b14 .LVL303
     /tmp/cc5eykcM.s:2524   .text:000000000000098c .LFB67
     /tmp/cc5eykcM.s:2643   .text:0000000000000a58 .LFE67
     /tmp/cc5eykcM.s:20007  .debug_loc:00000000000026cb .LLST71
     /tmp/cc5eykcM.s:20021  .debug_loc:0000000000002704 .LLST72
     /tmp/cc5eykcM.s:2542   .text:00000000000009a4 .LBB126
     /tmp/cc5eykcM.s:2618   .text:0000000000000a24 .LBE126
     /tmp/cc5eykcM.s:20035  .debug_loc:000000000000273d .LLST73
     /tmp/cc5eykcM.s:20047  .debug_loc:0000000000002774 .LLST74
     /tmp/cc5eykcM.s:2565   .text:00000000000009c4 .LBB130
     /tmp/cc5eykcM.s:2580   .text:00000000000009dc .LBE130
     /tmp/cc5eykcM.s:20059  .debug_loc:00000000000027ab .LLST75
     /tmp/cc5eykcM.s:2554   .text:00000000000009b4 .LVL275
     /tmp/cc5eykcM.s:2596   .text:00000000000009f8 .LVL281
     /tmp/cc5eykcM.s:2603   .text:0000000000000a0c .LVL282
     /tmp/cc5eykcM.s:2608   .text:0000000000000a1c .LVL283
     /tmp/cc5eykcM.s:2623   .text:0000000000000a34 .LVL285
     /tmp/cc5eykcM.s:3220   .text._ZN20Threads_CPP_API_test7WorkerD3runEv:0000000000000000 .LFB66
     /tmp/cc5eykcM.s:3247   .text._ZN20Threads_CPP_API_test7WorkerD3runEv:000000000000002c .LFE66
     /tmp/cc5eykcM.s:20070  .debug_loc:00000000000027e1 .LLST93
     /tmp/cc5eykcM.s:3236   .text._ZN20Threads_CPP_API_test7WorkerD3runEv:000000000000001c .LVL364
     /tmp/cc5eykcM.s:21171  .debug_str:0000000000001967 .LASF289
     /tmp/cc5eykcM.s:3030   .text._ZN20Threads_CPP_API_test7WorkerC3runEv:0000000000000000 .LFB62
     /tmp/cc5eykcM.s:3057   .text._ZN20Threads_CPP_API_test7WorkerC3runEv:000000000000002c .LFE62
     /tmp/cc5eykcM.s:20084  .debug_loc:000000000000281a .LLST88
     /tmp/cc5eykcM.s:3046   .text._ZN20Threads_CPP_API_test7WorkerC3runEv:000000000000001c .LVL337
     /tmp/cc5eykcM.s:20953  .debug_str:0000000000000e38 .LASF290
     /tmp/cc5eykcM.s:2814   .text._ZN20Threads_CPP_API_test7WorkerB3runEv:0000000000000000 .LFB58
     /tmp/cc5eykcM.s:2841   .text._ZN20Threads_CPP_API_test7WorkerB3runEv:000000000000002c .LFE58
     /tmp/cc5eykcM.s:20098  .debug_loc:0000000000002853 .LLST82
     /tmp/cc5eykcM.s:2830   .text._ZN20Threads_CPP_API_test7WorkerB3runEv:000000000000001c .LVL306
     /tmp/cc5eykcM.s:21181  .debug_str:00000000000019e6 .LASF291
     /tmp/cc5eykcM.s:2650   .text._ZN20Threads_CPP_API_test7WorkerA3runEv:0000000000000000 .LFB54
     /tmp/cc5eykcM.s:2677   .text._ZN20Threads_CPP_API_test7WorkerA3runEv:000000000000002c .LFE54
     /tmp/cc5eykcM.s:20112  .debug_loc:000000000000288c .LLST76
     /tmp/cc5eykcM.s:2666   .text._ZN20Threads_CPP_API_test7WorkerA3runEv:000000000000001c .LVL288
     /tmp/cc5eykcM.s:20765  .debug_str:0000000000000453 .LASF292
     /tmp/cc5eykcM.s:2453   .text:0000000000000918 .LFB50
     /tmp/cc5eykcM.s:2518   .text:000000000000098c .LFE50
     /tmp/cc5eykcM.s:20126  .debug_loc:00000000000028c5 .LLST70
     /tmp/cc5eykcM.s:2485   .text:0000000000000954 .LVL267
     /tmp/cc5eykcM.s:2490   .text:0000000000000964 .LVL268
     /tmp/cc5eykcM.s:2515   .text:0000000000000988 .LVL271
     /tmp/cc5eykcM.s:2342   .text:00000000000007e8 .LFB46
     /tmp/cc5eykcM.s:2447   .text:0000000000000918 .LFE46
     /tmp/cc5eykcM.s:2360   .text:0000000000000810 .LVL254
     /tmp/cc5eykcM.s:2365   .text:0000000000000820 .LVL255
     /tmp/cc5eykcM.s:2372   .text:0000000000000838 .LVL256
     /tmp/cc5eykcM.s:2377   .text:0000000000000848 .LVL257
     /tmp/cc5eykcM.s:2384   .text:0000000000000860 .LVL258
     /tmp/cc5eykcM.s:2389   .text:0000000000000870 .LVL259
     /tmp/cc5eykcM.s:2396   .text:0000000000000888 .LVL260
     /tmp/cc5eykcM.s:2401   .text:0000000000000898 .LVL261
     /tmp/cc5eykcM.s:2408   .text:00000000000008b0 .LVL262
GAS LISTING /tmp/cc5eykcM.s 			page 237


     /tmp/cc5eykcM.s:2413   .text:00000000000008c0 .LVL263
     /tmp/cc5eykcM.s:2419   .text:00000000000008cc .LVL264
     /tmp/cc5eykcM.s:15     .text:0000000000000000 .LFB45
     /tmp/cc5eykcM.s:52     .text:0000000000000044 .LFE45
     /tmp/cc5eykcM.s:20148  .debug_loc:0000000000002924 .LLST0
     /tmp/cc5eykcM.s:33     .text:0000000000000020 .LVL2
     /tmp/cc5eykcM.s:41     .text:0000000000000034 .LVL3
     /tmp/cc5eykcM.s:2170   .text:00000000000006a0 .LFB44
     /tmp/cc5eykcM.s:2319   .text:00000000000007e8 .LFE44
     /tmp/cc5eykcM.s:20162  .debug_loc:000000000000295d .LLST67
     /tmp/cc5eykcM.s:20176  .debug_loc:0000000000002996 .LLST68
     /tmp/cc5eykcM.s:20196  .debug_loc:00000000000029f3 .LLST69
     /tmp/cc5eykcM.s:2197   .text:00000000000006d0 .LVL232
     /tmp/cc5eykcM.s:2204   .text:00000000000006e4 .LVL233
     /tmp/cc5eykcM.s:2209   .text:00000000000006f4 .LVL234
     /tmp/cc5eykcM.s:2224   .text:0000000000000714 .LVL237
     /tmp/cc5eykcM.s:2235   .text:0000000000000720 .LVL238
     /tmp/cc5eykcM.s:2240   .text:000000000000072c .LVL239
     /tmp/cc5eykcM.s:2248   .text:0000000000000740 .LVL242
     /tmp/cc5eykcM.s:2255   .text:0000000000000754 .LVL243
     /tmp/cc5eykcM.s:2260   .text:0000000000000764 .LVL244
     /tmp/cc5eykcM.s:2267   .text:0000000000000778 .LVL245
     /tmp/cc5eykcM.s:2274   .text:000000000000078c .LVL246
     /tmp/cc5eykcM.s:2279   .text:000000000000079c .LVL247
     /tmp/cc5eykcM.s:2294   .text:00000000000007bc .LVL250
     /tmp/cc5eykcM.s:2302   .text:00000000000007d0 .LVL251
     /tmp/cc5eykcM.s:1975   .text:0000000000000520 .LFB43
     /tmp/cc5eykcM.s:2150   .text:00000000000006a0 .LFE43
     /tmp/cc5eykcM.s:20207  .debug_loc:0000000000002a29 .LLST63
     /tmp/cc5eykcM.s:20221  .debug_loc:0000000000002a62 .LLST64
     /tmp/cc5eykcM.s:20241  .debug_loc:0000000000002abf .LLST65
     /tmp/cc5eykcM.s:20249  .debug_loc:0000000000002ae3 .LLST66
     /tmp/cc5eykcM.s:2002   .text:0000000000000550 .LVL203
     /tmp/cc5eykcM.s:2009   .text:0000000000000564 .LVL204
     /tmp/cc5eykcM.s:2014   .text:0000000000000574 .LVL205
     /tmp/cc5eykcM.s:2029   .text:0000000000000594 .LVL208
     /tmp/cc5eykcM.s:2040   .text:00000000000005a0 .LVL209
     /tmp/cc5eykcM.s:2054   .text:00000000000005b4 .LVL211
     /tmp/cc5eykcM.s:2061   .text:00000000000005c8 .LVL212
     /tmp/cc5eykcM.s:2066   .text:00000000000005d8 .LVL213
     /tmp/cc5eykcM.s:2071   .text:00000000000005e4 .LVL214
     /tmp/cc5eykcM.s:2079   .text:00000000000005f8 .LVL217
     /tmp/cc5eykcM.s:2086   .text:000000000000060c .LVL218
     /tmp/cc5eykcM.s:2091   .text:000000000000061c .LVL219
     /tmp/cc5eykcM.s:2098   .text:0000000000000630 .LVL220
     /tmp/cc5eykcM.s:2105   .text:0000000000000644 .LVL221
     /tmp/cc5eykcM.s:2110   .text:0000000000000654 .LVL222
     /tmp/cc5eykcM.s:2125   .text:0000000000000674 .LVL225
     /tmp/cc5eykcM.s:2133   .text:0000000000000688 .LVL226
     /tmp/cc5eykcM.s:202    .text:0000000000000110 .LFB42
     /tmp/cc5eykcM.s:325    .text:00000000000001e4 .LFE42
     /tmp/cc5eykcM.s:20260  .debug_loc:0000000000002b19 .LLST5
     /tmp/cc5eykcM.s:220    .text:0000000000000128 .LBB82
     /tmp/cc5eykcM.s:296    .text:00000000000001a8 .LBE82
     /tmp/cc5eykcM.s:20274  .debug_loc:0000000000002b52 .LLST6
     /tmp/cc5eykcM.s:20286  .debug_loc:0000000000002b89 .LLST7
     /tmp/cc5eykcM.s:243    .text:0000000000000148 .LBB86
GAS LISTING /tmp/cc5eykcM.s 			page 238


     /tmp/cc5eykcM.s:258    .text:0000000000000160 .LBE86
     /tmp/cc5eykcM.s:20298  .debug_loc:0000000000002bc0 .LLST8
     /tmp/cc5eykcM.s:232    .text:0000000000000138 .LVL22
     /tmp/cc5eykcM.s:274    .text:000000000000017c .LVL28
     /tmp/cc5eykcM.s:281    .text:0000000000000190 .LVL29
     /tmp/cc5eykcM.s:286    .text:00000000000001a0 .LVL30
     /tmp/cc5eykcM.s:301    .text:00000000000001b8 .LVL32
     /tmp/cc5eykcM.s:309    .text:00000000000001cc .LVL33
     /tmp/cc5eykcM.s:69     .text:0000000000000044 .LFB41
     /tmp/cc5eykcM.s:188    .text:0000000000000110 .LFE41
     /tmp/cc5eykcM.s:20309  .debug_loc:0000000000002bf6 .LLST1
     /tmp/cc5eykcM.s:87     .text:000000000000005c .LBB74
     /tmp/cc5eykcM.s:163    .text:00000000000000dc .LBE74
     /tmp/cc5eykcM.s:20323  .debug_loc:0000000000002c2f .LLST2
     /tmp/cc5eykcM.s:20335  .debug_loc:0000000000002c66 .LLST3
     /tmp/cc5eykcM.s:110    .text:000000000000007c .LBB78
     /tmp/cc5eykcM.s:125    .text:0000000000000094 .LBE78
     /tmp/cc5eykcM.s:20347  .debug_loc:0000000000002c9d .LLST4
     /tmp/cc5eykcM.s:99     .text:000000000000006c .LVL7
     /tmp/cc5eykcM.s:141    .text:00000000000000b0 .LVL13
     /tmp/cc5eykcM.s:148    .text:00000000000000c4 .LVL14
     /tmp/cc5eykcM.s:153    .text:00000000000000d4 .LVL15
     /tmp/cc5eykcM.s:168    .text:00000000000000ec .LVL17
     /tmp/cc5eykcM.s:1890   .text:00000000000004ac .LFB40
     /tmp/cc5eykcM.s:1955   .text:0000000000000520 .LFE40
     /tmp/cc5eykcM.s:20358  .debug_loc:0000000000002cd3 .LLST62
     /tmp/cc5eykcM.s:1922   .text:00000000000004e8 .LVL195
     /tmp/cc5eykcM.s:1927   .text:00000000000004f8 .LVL196
     /tmp/cc5eykcM.s:1952   .text:000000000000051c .LVL199
     /tmp/cc5eykcM.s:21217  .debug_str:0000000000001b45 .LASF293
     /tmp/cc5eykcM.s:21037  .debug_str:000000000000122a .LASF294
     /tmp/cc5eykcM.s:20859  .debug_str:000000000000094c .LASF295
     /tmp/cc5eykcM.s:21313  .debug_str:00000000000021e1 .LASF296
     /tmp/cc5eykcM.s:3595   .text._ZN6BufferdlEPv:0000000000000000 .LFB74
     /tmp/cc5eykcM.s:3708   .text._ZN6BufferdlEPv:00000000000000bc .LFE74
     /tmp/cc5eykcM.s:20380  .debug_loc:0000000000002d32 .LLST101
     /tmp/cc5eykcM.s:3612   .text._ZN6BufferdlEPv:0000000000000014 .LBB160
     /tmp/cc5eykcM.s:3643   .text._ZN6BufferdlEPv:0000000000000040 .LBB162
     /tmp/cc5eykcM.s:3700   .text._ZN6BufferdlEPv:00000000000000ac .LBE162
     /tmp/cc5eykcM.s:20402  .debug_loc:0000000000002d91 .LLST102
     /tmp/cc5eykcM.s:3648   .text._ZN6BufferdlEPv:0000000000000048 .LBB165
     /tmp/cc5eykcM.s:3697   .text._ZN6BufferdlEPv:00000000000000ac .LBE165
     /tmp/cc5eykcM.s:20411  .debug_loc:0000000000002dbd .LLST103
     /tmp/cc5eykcM.s:3627   .text._ZN6BufferdlEPv:0000000000000030 .LVL407
     /tmp/cc5eykcM.s:21015  .debug_str:0000000000001109 .LASF297
     /tmp/cc5eykcM.s:20755  .debug_str:00000000000003f4 .LASF298
     /tmp/cc5eykcM.s:21281  .debug_str:0000000000001ec4 .LASF299
     /tmp/cc5eykcM.s:21139  .debug_str:0000000000001827 .LASF300
     /tmp/cc5eykcM.s:21119  .debug_str:00000000000016a2 .LASF301
     /tmp/cc5eykcM.s:21077  .debug_str:0000000000001415 .LASF302
     /tmp/cc5eykcM.s:20747  .debug_str:000000000000038c .LASF303
     /tmp/cc5eykcM.s:21151  .debug_str:00000000000018f2 .LASF304
     /tmp/cc5eykcM.s:20799  .debug_str:00000000000005fa .LASF305
     /tmp/cc5eykcM.s:20745  .debug_str:0000000000000369 .LASF306
     /tmp/cc5eykcM.s:20737  .debug_str:00000000000002e5 .LASF307
     /tmp/cc5eykcM.s:20749  .debug_str:0000000000000395 .LASF308
     /tmp/cc5eykcM.s:21165  .debug_str:0000000000001947 .LASF309
GAS LISTING /tmp/cc5eykcM.s 			page 239


     /tmp/cc5eykcM.s:21337  .debug_str:0000000000002396 .LASF310
     /tmp/cc5eykcM.s:21031  .debug_str:00000000000011bf .LASF311
     /tmp/cc5eykcM.s:20869  .debug_str:000000000000099e .LASF312
     /tmp/cc5eykcM.s:21057  .debug_str:0000000000001353 .LASF313
     /tmp/cc5eykcM.s:20977  .debug_str:0000000000000f72 .LASF314
     /tmp/cc5eykcM.s:20843  .debug_str:0000000000000895 .LASF315
     /tmp/cc5eykcM.s:20915  .debug_str:0000000000000c3a .LASF316
     /tmp/cc5eykcM.s:21211  .debug_str:0000000000001b0a .LASF329
     /tmp/cc5eykcM.s:20855  .debug_str:0000000000000928 .LASF330
     /tmp/cc5eykcM.s:20729  .debug_str:0000000000000281 .LASF317
     /tmp/cc5eykcM.s:20885  .debug_str:0000000000000a2b .LASF318
     /tmp/cc5eykcM.s:21059  .debug_str:0000000000001363 .LASF319
     /tmp/cc5eykcM.s:21113  .debug_str:000000000000167e .LASF320
     /tmp/cc5eykcM.s:20853  .debug_str:0000000000000918 .LASF321
     /tmp/cc5eykcM.s:20999  .debug_str:0000000000001042 .LASF322
     /tmp/cc5eykcM.s:20895  .debug_str:0000000000000abc .LASF323
     /tmp/cc5eykcM.s:373    .text._ZN20Threads_CPP_API_test7WorkerAD0Ev:0000000000000000 .LVL37
     /tmp/cc5eykcM.s:405    .text._ZN20Threads_CPP_API_test7WorkerAD0Ev:0000000000000044 .LVL41
     /tmp/cc5eykcM.s:385    .text._ZN20Threads_CPP_API_test7WorkerAD0Ev:0000000000000018 .LVL38
     /tmp/cc5eykcM.s:336    .text._ZN20Threads_CPP_API_test7WorkerAD2Ev:0000000000000000 .LVL35
     /tmp/cc5eykcM.s:457    .text._ZN20Threads_CPP_API_test7WorkerBD0Ev:0000000000000000 .LVL44
     /tmp/cc5eykcM.s:489    .text._ZN20Threads_CPP_API_test7WorkerBD0Ev:0000000000000044 .LVL48
     /tmp/cc5eykcM.s:469    .text._ZN20Threads_CPP_API_test7WorkerBD0Ev:0000000000000018 .LVL45
     /tmp/cc5eykcM.s:420    .text._ZN20Threads_CPP_API_test7WorkerBD2Ev:0000000000000000 .LVL42
     /tmp/cc5eykcM.s:541    .text._ZN20Threads_CPP_API_test7WorkerCD0Ev:0000000000000000 .LVL51
     /tmp/cc5eykcM.s:573    .text._ZN20Threads_CPP_API_test7WorkerCD0Ev:0000000000000044 .LVL55
     /tmp/cc5eykcM.s:553    .text._ZN20Threads_CPP_API_test7WorkerCD0Ev:0000000000000018 .LVL52
     /tmp/cc5eykcM.s:504    .text._ZN20Threads_CPP_API_test7WorkerCD2Ev:0000000000000000 .LVL49
     /tmp/cc5eykcM.s:625    .text._ZN20Threads_CPP_API_test7WorkerDD0Ev:0000000000000000 .LVL58
     /tmp/cc5eykcM.s:657    .text._ZN20Threads_CPP_API_test7WorkerDD0Ev:0000000000000044 .LVL62
     /tmp/cc5eykcM.s:637    .text._ZN20Threads_CPP_API_test7WorkerDD0Ev:0000000000000018 .LVL59
     /tmp/cc5eykcM.s:588    .text._ZN20Threads_CPP_API_test7WorkerDD2Ev:0000000000000000 .LVL56
     /tmp/cc5eykcM.s:878    .text._ZN34ConsumerProducer_CPP_Sync_API_test16ProducerKeyboardD0Ev:0000000000000000 .LVL79
     /tmp/cc5eykcM.s:910    .text._ZN34ConsumerProducer_CPP_Sync_API_test16ProducerKeyboardD0Ev:0000000000000044 .LVL83
     /tmp/cc5eykcM.s:890    .text._ZN34ConsumerProducer_CPP_Sync_API_test16ProducerKeyboardD0Ev:0000000000000018 .LVL80
     /tmp/cc5eykcM.s:841    .text._ZN34ConsumerProducer_CPP_Sync_API_test16ProducerKeyboardD2Ev:0000000000000000 .LVL77
     /tmp/cc5eykcM.s:794    .text._ZN34ConsumerProducer_CPP_Sync_API_test8ProducerD0Ev:0000000000000000 .LVL72
     /tmp/cc5eykcM.s:826    .text._ZN34ConsumerProducer_CPP_Sync_API_test8ProducerD0Ev:0000000000000044 .LVL76
     /tmp/cc5eykcM.s:806    .text._ZN34ConsumerProducer_CPP_Sync_API_test8ProducerD0Ev:0000000000000018 .LVL73
     /tmp/cc5eykcM.s:757    .text._ZN34ConsumerProducer_CPP_Sync_API_test8ProducerD2Ev:0000000000000000 .LVL70
     /tmp/cc5eykcM.s:710    .text._ZN34ConsumerProducer_CPP_Sync_API_test8ConsumerD0Ev:0000000000000000 .LVL65
     /tmp/cc5eykcM.s:742    .text._ZN34ConsumerProducer_CPP_Sync_API_test8ConsumerD0Ev:0000000000000044 .LVL69
     /tmp/cc5eykcM.s:722    .text._ZN34ConsumerProducer_CPP_Sync_API_test8ConsumerD0Ev:0000000000000018 .LVL66
     /tmp/cc5eykcM.s:673    .text._ZN34ConsumerProducer_CPP_Sync_API_test8ConsumerD2Ev:0000000000000000 .LVL63
     /tmp/cc5eykcM.s:1047   .text._ZN28ConsumerProducerCPP_API_test16ProducerKeyboradD0Ev:0000000000000000 .LVL93
     /tmp/cc5eykcM.s:1079   .text._ZN28ConsumerProducerCPP_API_test16ProducerKeyboradD0Ev:0000000000000044 .LVL97
     /tmp/cc5eykcM.s:1059   .text._ZN28ConsumerProducerCPP_API_test16ProducerKeyboradD0Ev:0000000000000018 .LVL94
     /tmp/cc5eykcM.s:1010   .text._ZN28ConsumerProducerCPP_API_test16ProducerKeyboradD2Ev:0000000000000000 .LVL91
     /tmp/cc5eykcM.s:1131   .text._ZN28ConsumerProducerCPP_API_test8ProducerD0Ev:0000000000000000 .LVL100
     /tmp/cc5eykcM.s:1163   .text._ZN28ConsumerProducerCPP_API_test8ProducerD0Ev:0000000000000044 .LVL104
     /tmp/cc5eykcM.s:1143   .text._ZN28ConsumerProducerCPP_API_test8ProducerD0Ev:0000000000000018 .LVL101
     /tmp/cc5eykcM.s:1094   .text._ZN28ConsumerProducerCPP_API_test8ProducerD2Ev:0000000000000000 .LVL98
     /tmp/cc5eykcM.s:963    .text._ZN28ConsumerProducerCPP_API_test8ConsumerD0Ev:0000000000000000 .LVL86
     /tmp/cc5eykcM.s:995    .text._ZN28ConsumerProducerCPP_API_test8ConsumerD0Ev:0000000000000044 .LVL90
     /tmp/cc5eykcM.s:975    .text._ZN28ConsumerProducerCPP_API_test8ConsumerD0Ev:0000000000000018 .LVL87
     /tmp/cc5eykcM.s:926    .text._ZN28ConsumerProducerCPP_API_test8ConsumerD2Ev:0000000000000000 .LVL84
     /tmp/cc5eykcM.s:6614   .text:0000000000002444 .LVL739
GAS LISTING /tmp/cc5eykcM.s 			page 240


     /tmp/cc5eykcM.s:6618   .text:000000000000244c .LVL740
     /tmp/cc5eykcM.s:6740   .text:0000000000002560 .LVL759
     /tmp/cc5eykcM.s:6633   .text:000000000000246c .LVL743
     /tmp/cc5eykcM.s:6658   .text:00000000000024a4 .LVL747
     /tmp/cc5eykcM.s:6664   .text:00000000000024ac .LVL749
     /tmp/cc5eykcM.s:6732   .text:0000000000002554 .LVL757
     /tmp/cc5eykcM.s:6661   .text:00000000000024a8 .LVL748
     /tmp/cc5eykcM.s:6735   .text:0000000000002558 .LVL758
     /tmp/cc5eykcM.s:6417   .text:000000000000229c .LVL712
     /tmp/cc5eykcM.s:6421   .text:00000000000022a4 .LVL713
     /tmp/cc5eykcM.s:6565   .text:00000000000023f8 .LVL737
     /tmp/cc5eykcM.s:6433   .text:00000000000022bc .LVL716
     /tmp/cc5eykcM.s:6451   .text:00000000000022ec .LVL718
     /tmp/cc5eykcM.s:6453   .text:00000000000022f0 .LVL719
     /tmp/cc5eykcM.s:6476   .text:0000000000002324 .LVL723
     /tmp/cc5eykcM.s:6478   .text:0000000000002328 .LVL724
     /tmp/cc5eykcM.s:6562   .text:00000000000023f4 .LVL736
     /tmp/cc5eykcM.s:6484   .text:0000000000002330 .LVL725
     /tmp/cc5eykcM.s:6540   .text:00000000000023cc .LVL733
     /tmp/cc5eykcM.s:6220   .text:0000000000002100 .LVL686
     /tmp/cc5eykcM.s:6224   .text:0000000000002108 .LVL687
     /tmp/cc5eykcM.s:6368   .text:000000000000225c .LVL710
     /tmp/cc5eykcM.s:6239   .text:0000000000002128 .LVL690
     /tmp/cc5eykcM.s:6245   .text:0000000000002130 .LVL691
     /tmp/cc5eykcM.s:6291   .text:00000000000021a0 .LVL698
     /tmp/cc5eykcM.s:6298   .text:00000000000021ac .LVL699
     /tmp/cc5eykcM.s:6365   .text:0000000000002258 .LVL709
     /tmp/cc5eykcM.s:6362   .text:0000000000002254 .LVL708
     /tmp/cc5eykcM.s:6072   .text:0000000000001fcc .LVL668
     /tmp/cc5eykcM.s:6076   .text:0000000000001fd4 .LVL669
     /tmp/cc5eykcM.s:6170   .text:00000000000020b8 .LVL684
     /tmp/cc5eykcM.s:6088   .text:0000000000001ff0 .LVL672
     /tmp/cc5eykcM.s:6165   .text:00000000000020b0 .LVL683
     /tmp/cc5eykcM.s:5488   .text:0000000000001bd4 .LVL599
     /tmp/cc5eykcM.s:5565   .text:0000000000001c94 .LVL611
     /tmp/cc5eykcM.s:5886   .text:0000000000001f04 .LVL651
     /tmp/cc5eykcM.s:5890   .text:0000000000001f08 .LVL652
     /tmp/cc5eykcM.s:5470   .text:0000000000001ba4 .LVL595
     /tmp/cc5eykcM.s:5868   .text:0000000000001ee0 .LVL650
     /tmp/cc5eykcM.s:5902   .text:0000000000001f24 .LVL655
     /tmp/cc5eykcM.s:5926   .text:0000000000001f5c .LVL661
     /tmp/cc5eykcM.s:5557   .text:0000000000001c84 .LVL609
     /tmp/cc5eykcM.s:5854   .text:0000000000001ecc .LVL649
     /tmp/cc5eykcM.s:5585   .text:0000000000001cc4 .LVL614
     /tmp/cc5eykcM.s:5597   .text:0000000000001ce0 .LVL616
     /tmp/cc5eykcM.s:5599   .text:0000000000001ce4 .LVL617
     /tmp/cc5eykcM.s:5640   .text:0000000000001d40 .LVL621
     /tmp/cc5eykcM.s:5697   .text:0000000000001da4 .LVL628
     /tmp/cc5eykcM.s:5774   .text:0000000000001e34 .LVL637
     /tmp/cc5eykcM.s:5938   .text:0000000000001f78 .LVL664
     /tmp/cc5eykcM.s:5705   .text:0000000000001db4 .LVL629
     /tmp/cc5eykcM.s:5752   .text:0000000000001e1c .LVL633
     /tmp/cc5eykcM.s:5761   .text:0000000000001e28 .LVL635
     /tmp/cc5eykcM.s:5785   .text:0000000000001e4c .LVL639
     /tmp/cc5eykcM.s:5787   .text:0000000000001e50 .LVL640
     /tmp/cc5eykcM.s:5804   .text:0000000000001e6c .LVL642
     /tmp/cc5eykcM.s:5806   .text:0000000000001e70 .LVL643
GAS LISTING /tmp/cc5eykcM.s 			page 241


     /tmp/cc5eykcM.s:5578   .text:0000000000001cb0 .LVL613
     /tmp/cc5eykcM.s:5589   .text:0000000000001cc8 .LVL615
     /tmp/cc5eykcM.s:5628   .text:0000000000001d28 .LVL619
     /tmp/cc5eykcM.s:5914   .text:0000000000001f40 .LVL658
     /tmp/cc5eykcM.s:5669   .text:0000000000001d74 .LVL624
     /tmp/cc5eykcM.s:5681   .text:0000000000001d8c .LVL626
     /tmp/cc5eykcM.s:1588   .text._ZN28ConsumerProducerCPP_API_test8Consumer3runEv:0000000000000000 .LVL159
     /tmp/cc5eykcM.s:1609   .text._ZN28ConsumerProducerCPP_API_test8Consumer3runEv:0000000000000028 .LVL161
     /tmp/cc5eykcM.s:1694   .text._ZN28ConsumerProducerCPP_API_test8Consumer3runEv:00000000000000c4 .LVL173
     /tmp/cc5eykcM.s:1605   .text._ZN28ConsumerProducerCPP_API_test8Consumer3runEv:0000000000000020 .LVL160
     /tmp/cc5eykcM.s:1635   .text._ZN28ConsumerProducerCPP_API_test8Consumer3runEv:0000000000000058 .LVL164
     /tmp/cc5eykcM.s:1646   .text._ZN28ConsumerProducerCPP_API_test8Consumer3runEv:000000000000006c .LVL167
     /tmp/cc5eykcM.s:1697   .text._ZN28ConsumerProducerCPP_API_test8Consumer3runEv:00000000000000c8 .LVL174
     /tmp/cc5eykcM.s:1639   .text._ZN28ConsumerProducerCPP_API_test8Consumer3runEv:000000000000005c .LVL165
     /tmp/cc5eykcM.s:1663   .text._ZN28ConsumerProducerCPP_API_test8Consumer3runEv:0000000000000088 .LVL169
     /tmp/cc5eykcM.s:1808   .text._ZN28ConsumerProducerCPP_API_test8Producer3runEv:0000000000000000 .LVL184
     /tmp/cc5eykcM.s:1826   .text._ZN28ConsumerProducerCPP_API_test8Producer3runEv:0000000000000020 .LVL186
     /tmp/cc5eykcM.s:1875   .text._ZN28ConsumerProducerCPP_API_test8Producer3runEv:0000000000000088 .LVL191
     /tmp/cc5eykcM.s:1823   .text._ZN28ConsumerProducerCPP_API_test8Producer3runEv:000000000000001c .LVL185
     /tmp/cc5eykcM.s:1845   .text._ZN28ConsumerProducerCPP_API_test8Producer3runEv:000000000000004c .LVL188
     /tmp/cc5eykcM.s:1878   .text._ZN28ConsumerProducerCPP_API_test8Producer3runEv:000000000000008c .LVL192
     /tmp/cc5eykcM.s:1508   .text._ZN28ConsumerProducerCPP_API_test16ProducerKeyborad3runEv:0000000000000000 .LVL148
     /tmp/cc5eykcM.s:1522   .text._ZN28ConsumerProducerCPP_API_test16ProducerKeyborad3runEv:0000000000000018 .LVL149
     /tmp/cc5eykcM.s:1573   .text._ZN28ConsumerProducerCPP_API_test16ProducerKeyborad3runEv:000000000000007c .LVL158
     /tmp/cc5eykcM.s:1531   .text._ZN28ConsumerProducerCPP_API_test16ProducerKeyborad3runEv:0000000000000024 .LVL151
     /tmp/cc5eykcM.s:1544   .text._ZN28ConsumerProducerCPP_API_test16ProducerKeyborad3runEv:0000000000000040 .LVL153
     /tmp/cc5eykcM.s:1554   .text._ZN28ConsumerProducerCPP_API_test16ProducerKeyborad3runEv:0000000000000054 .LVL154
     /tmp/cc5eykcM.s:1556   .text._ZN28ConsumerProducerCPP_API_test16ProducerKeyborad3runEv:0000000000000058 .LVL155
     /tmp/cc5eykcM.s:5360   .text:0000000000001ad4 .LVL587
     /tmp/cc5eykcM.s:5365   .text:0000000000001adc .LVL588
     /tmp/cc5eykcM.s:5405   .text:0000000000001b30 .LVL591
     /tmp/cc5eykcM.s:1720   .text:0000000000000408 .LVL175
     /tmp/cc5eykcM.s:1740   .text:0000000000000428 .LVL177
     /tmp/cc5eykcM.s:1736   .text:0000000000000424 .LVL176
     /tmp/cc5eykcM.s:1776   .text:000000000000047c .LVL183
     /tmp/cc5eykcM.s:1745   .text:000000000000042c .LVL178
     /tmp/cc5eykcM.s:4794   .text:00000000000016ec .LVL519
     /tmp/cc5eykcM.s:4871   .text:00000000000017ac .LVL531
     /tmp/cc5eykcM.s:5195   .text:0000000000001a24 .LVL570
     /tmp/cc5eykcM.s:5199   .text:0000000000001a28 .LVL571
     /tmp/cc5eykcM.s:4776   .text:00000000000016bc .LVL515
     /tmp/cc5eykcM.s:5177   .text:0000000000001a00 .LVL569
     /tmp/cc5eykcM.s:5211   .text:0000000000001a44 .LVL574
     /tmp/cc5eykcM.s:4863   .text:000000000000179c .LVL529
     /tmp/cc5eykcM.s:5163   .text:00000000000019ec .LVL568
     /tmp/cc5eykcM.s:4891   .text:00000000000017dc .LVL534
     /tmp/cc5eykcM.s:4904   .text:00000000000017f8 .LVL536
     /tmp/cc5eykcM.s:4949   .text:0000000000001858 .LVL541
     /tmp/cc5eykcM.s:4906   .text:00000000000017fc .LVL537
     /tmp/cc5eykcM.s:4963   .text:000000000000186c .LVL543
     /tmp/cc5eykcM.s:5085   .text:0000000000001954 .LVL556
     /tmp/cc5eykcM.s:5235   .text:0000000000001a7c .LVL580
     /tmp/cc5eykcM.s:5248   .text:0000000000001a98 .LVL583
     /tmp/cc5eykcM.s:4971   .text:000000000000187c .LVL544
     /tmp/cc5eykcM.s:5025   .text:00000000000018f0 .LVL548
     /tmp/cc5eykcM.s:5034   .text:00000000000018fc .LVL550
     /tmp/cc5eykcM.s:5054   .text:0000000000001920 .LVL552
GAS LISTING /tmp/cc5eykcM.s 			page 242


     /tmp/cc5eykcM.s:5066   .text:0000000000001938 .LVL554
     /tmp/cc5eykcM.s:5096   .text:000000000000196c .LVL558
     /tmp/cc5eykcM.s:5098   .text:0000000000001970 .LVL559
     /tmp/cc5eykcM.s:5104   .text:0000000000001974 .LVL560
     /tmp/cc5eykcM.s:5106   .text:0000000000001978 .LVL561
     /tmp/cc5eykcM.s:4884   .text:00000000000017c8 .LVL533
     /tmp/cc5eykcM.s:4896   .text:00000000000017e0 .LVL535
     /tmp/cc5eykcM.s:4937   .text:0000000000001840 .LVL539
     /tmp/cc5eykcM.s:5223   .text:0000000000001a60 .LVL577
     /tmp/cc5eykcM.s:4545   .text:000000000000155c .LVL491
     /tmp/cc5eykcM.s:4570   .text:000000000000158c .LVL493
     /tmp/cc5eykcM.s:4673   .text:0000000000001644 .LVL508
     /tmp/cc5eykcM.s:4670   .text:0000000000001640 .LVL507
     /tmp/cc5eykcM.s:4565   .text:0000000000001584 .LVL492
     /tmp/cc5eykcM.s:4578   .text:0000000000001598 .LVL495
     /tmp/cc5eykcM.s:4601   .text:00000000000015c4 .LVL498
     /tmp/cc5eykcM.s:4623   .text:00000000000015ec .LVL501
     /tmp/cc5eykcM.s:4676   .text:0000000000001648 .LVL509
     /tmp/cc5eykcM.s:4605   .text:00000000000015c8 .LVL499
     /tmp/cc5eykcM.s:4640   .text:0000000000001608 .LVL503
     /tmp/cc5eykcM.s:4691   .text._ZN34ConsumerProducer_CPP_Sync_API_test8Consumer3runEv:0000000000000000 .LVL510
     /tmp/cc5eykcM.s:4422   .text:00000000000014c8 .LVL479
     /tmp/cc5eykcM.s:4442   .text:00000000000014ec .LVL481
     /tmp/cc5eykcM.s:4493   .text:0000000000001550 .LVL487
     /tmp/cc5eykcM.s:4437   .text:00000000000014e4 .LVL480
     /tmp/cc5eykcM.s:4465   .text:000000000000151c .LVL484
     /tmp/cc5eykcM.s:4478   .text:0000000000001538 .LVL485
     /tmp/cc5eykcM.s:4496   .text:0000000000001554 .LVL488
     /tmp/cc5eykcM.s:4511   .text._ZN34ConsumerProducer_CPP_Sync_API_test8Producer3runEv:0000000000000000 .LVL489
     /tmp/cc5eykcM.s:4275   .text:0000000000001408 .LVL461
     /tmp/cc5eykcM.s:4299   .text:0000000000001434 .LVL463
     /tmp/cc5eykcM.s:4373   .text:00000000000014c0 .LVL476
     /tmp/cc5eykcM.s:4367   .text:00000000000014b8 .LVL474
     /tmp/cc5eykcM.s:4293   .text:000000000000142c .LVL462
     /tmp/cc5eykcM.s:4313   .text:0000000000001448 .LVL466
     /tmp/cc5eykcM.s:4339   .text:0000000000001480 .LVL469
     /tmp/cc5eykcM.s:4349   .text:0000000000001494 .LVL470
     /tmp/cc5eykcM.s:4351   .text:0000000000001498 .LVL471
     /tmp/cc5eykcM.s:4326   .text:0000000000001464 .LVL468
     /tmp/cc5eykcM.s:4370   .text:00000000000014bc .LVL475
     /tmp/cc5eykcM.s:4388   .text._ZN34ConsumerProducer_CPP_Sync_API_test16ProducerKeyboard3runEv:0000000000000000 .LVL477
     /tmp/cc5eykcM.s:3810   .text:00000000000010a4 .LVL418
     /tmp/cc5eykcM.s:4025   .text:000000000000126c .LVL440
     /tmp/cc5eykcM.s:4225   .text:00000000000013ec .LVL457
     /tmp/cc5eykcM.s:4228   .text:00000000000013f0 .LVL458
     /tmp/cc5eykcM.s:3792   .text:0000000000001074 .LVL414
     /tmp/cc5eykcM.s:4144   .text:0000000000001358 .LVL453
     /tmp/cc5eykcM.s:4156   .text:0000000000001370 .LVL454
     /tmp/cc5eykcM.s:3966   .text:00000000000011e4 .LVL433
     /tmp/cc5eykcM.s:4128   .text:0000000000001344 .LVL452
     /tmp/cc5eykcM.s:3985   .text:000000000000120c .LVL435
     /tmp/cc5eykcM.s:3998   .text:0000000000001228 .LVL437
     /tmp/cc5eykcM.s:4000   .text:000000000000122c .LVL438
     /tmp/cc5eykcM.s:4027   .text:0000000000001270 .LVL441
     /tmp/cc5eykcM.s:4079   .text:00000000000012e4 .LVL445
     /tmp/cc5eykcM.s:4090   .text:00000000000012fc .LVL447
     /tmp/cc5eykcM.s:4092   .text:0000000000001300 .LVL448
GAS LISTING /tmp/cc5eykcM.s 			page 243


     /tmp/cc5eykcM.s:3990   .text:0000000000001210 .LVL436
     /tmp/cc5eykcM.s:3845   .text:0000000000001104 .LVL424
     /tmp/cc5eykcM.s:3867   .text:0000000000001128 .LVL426
     /tmp/cc5eykcM.s:3898   .text:0000000000001168 .LVL430
     /tmp/cc5eykcM.s:3957   .text:00000000000011d4 .LVL432
     /tmp/cc5eykcM.s:3947   .text:00000000000011c8 .LVL431
     /tmp/cc5eykcM.s:4216   .text:00000000000013dc .LVL456
     /tmp/cc5eykcM.s:4206   .text:00000000000013d0 .LVL455
     /tmp/cc5eykcM.s:1372   .text:0000000000000328 .LVL130
     /tmp/cc5eykcM.s:1394   .text:0000000000000350 .LVL132
     /tmp/cc5eykcM.s:1490   .text:00000000000003fc .LVL146
     /tmp/cc5eykcM.s:1389   .text:0000000000000348 .LVL131
     /tmp/cc5eykcM.s:1402   .text:000000000000035c .LVL134
     /tmp/cc5eykcM.s:1425   .text:0000000000000388 .LVL137
     /tmp/cc5eykcM.s:1447   .text:00000000000003b0 .LVL140
     /tmp/cc5eykcM.s:1493   .text:0000000000000400 .LVL147
     /tmp/cc5eykcM.s:1429   .text:000000000000038c .LVL138
     /tmp/cc5eykcM.s:1462   .text:00000000000003c8 .LVL142
     /tmp/cc5eykcM.s:1284   .text:0000000000000294 .LVL120
     /tmp/cc5eykcM.s:1304   .text:00000000000002b8 .LVL122
     /tmp/cc5eykcM.s:1355   .text:000000000000031c .LVL128
     /tmp/cc5eykcM.s:1299   .text:00000000000002b0 .LVL121
     /tmp/cc5eykcM.s:1327   .text:00000000000002e8 .LVL125
     /tmp/cc5eykcM.s:1340   .text:0000000000000304 .LVL126
     /tmp/cc5eykcM.s:1358   .text:0000000000000320 .LVL129
     /tmp/cc5eykcM.s:1179   .text:00000000000001e4 .LVL105
     /tmp/cc5eykcM.s:1200   .text:0000000000000208 .LVL107
     /tmp/cc5eykcM.s:1267   .text:0000000000000288 .LVL118
     /tmp/cc5eykcM.s:1194   .text:0000000000000200 .LVL106
     /tmp/cc5eykcM.s:1214   .text:000000000000021c .LVL110
     /tmp/cc5eykcM.s:1240   .text:0000000000000254 .LVL113
     /tmp/cc5eykcM.s:1249   .text:0000000000000264 .LVL114
     /tmp/cc5eykcM.s:1251   .text:0000000000000268 .LVL115
     /tmp/cc5eykcM.s:1227   .text:0000000000000238 .LVL112
     /tmp/cc5eykcM.s:1270   .text:000000000000028c .LVL119
     /tmp/cc5eykcM.s:3401   .text:0000000000000f00 .LVL385
     /tmp/cc5eykcM.s:3416   .text:0000000000000f24 .LVL387
     /tmp/cc5eykcM.s:3418   .text:0000000000000f28 .LVL388
     /tmp/cc5eykcM.s:3443   .text:0000000000000f64 .LVL390
     /tmp/cc5eykcM.s:3456   .text:0000000000000f78 .LVL393
     /tmp/cc5eykcM.s:3464   .text:0000000000000f88 .LVL394
     /tmp/cc5eykcM.s:3445   .text:0000000000000f68 .LVL391
     /tmp/cc5eykcM.s:3466   .text:0000000000000f8c .LVL395
     /tmp/cc5eykcM.s:3521   .text:0000000000001008 .LVL404
     /tmp/cc5eykcM.s:3282   .text:0000000000000e20 .LVL366
     /tmp/cc5eykcM.s:3292   .text:0000000000000e34 .LVL368
     /tmp/cc5eykcM.s:3313   .text:0000000000000e5c .LVL371
     /tmp/cc5eykcM.s:3323   .text:0000000000000e70 .LVL373
     /tmp/cc5eykcM.s:3344   .text:0000000000000e98 .LVL376
     /tmp/cc5eykcM.s:3354   .text:0000000000000eac .LVL378
     /tmp/cc5eykcM.s:3375   .text:0000000000000ed4 .LVL381
     /tmp/cc5eykcM.s:3385   .text:0000000000000ee8 .LVL383
     /tmp/cc5eykcM.s:3067   .text:0000000000000cac .LVL338
     /tmp/cc5eykcM.s:3085   .text:0000000000000ccc .LVL340
     /tmp/cc5eykcM.s:3081   .text:0000000000000cc4 .LVL339
     /tmp/cc5eykcM.s:3106   .text:0000000000000d04 .LVL344
     /tmp/cc5eykcM.s:3108   .text:0000000000000d08 .LVL345
GAS LISTING /tmp/cc5eykcM.s 			page 244


     /tmp/cc5eykcM.s:3176   .text:0000000000000dac .LVL357
     /tmp/cc5eykcM.s:3178   .text:0000000000000db0 .LVL358
     /tmp/cc5eykcM.s:3205   .text:0000000000000de8 .LVL361
     /tmp/cc5eykcM.s:3136   .text:0000000000000d3c .LVL349
     /tmp/cc5eykcM.s:3140   .text:0000000000000d44 .LVL350
     /tmp/cc5eykcM.s:3208   .text:0000000000000dec .LVL362
     /tmp/cc5eykcM.s:2851   .text:0000000000000b2c .LVL307
     /tmp/cc5eykcM.s:2869   .text:0000000000000b4c .LVL309
     /tmp/cc5eykcM.s:2865   .text:0000000000000b44 .LVL308
     /tmp/cc5eykcM.s:2890   .text:0000000000000b84 .LVL313
     /tmp/cc5eykcM.s:2892   .text:0000000000000b88 .LVL314
     /tmp/cc5eykcM.s:2986   .text:0000000000000c64 .LVL330
     /tmp/cc5eykcM.s:2988   .text:0000000000000c68 .LVL331
     /tmp/cc5eykcM.s:3015   .text:0000000000000ca0 .LVL334
     /tmp/cc5eykcM.s:2921   .text:0000000000000bb0 .LVL317
     /tmp/cc5eykcM.s:2946   .text:0000000000000bf4 .LVL322
     /tmp/cc5eykcM.s:2950   .text:0000000000000bfc .LVL323
     /tmp/cc5eykcM.s:3018   .text:0000000000000ca4 .LVL335
     /tmp/cc5eykcM.s:2687   .text:0000000000000a58 .LVL289
     /tmp/cc5eykcM.s:2706   .text:0000000000000a78 .LVL291
     /tmp/cc5eykcM.s:2701   .text:0000000000000a70 .LVL290
     /tmp/cc5eykcM.s:2802   .text:0000000000000b24 .LVL304
     /tmp/cc5eykcM.s:2746   .text:0000000000000aac .LVL297
     /tmp/cc5eykcM.s:2774   .text:0000000000000af0 .LVL301
     /tmp/cc5eykcM.s:2729   .text:0000000000000a94 .LVL294
     /tmp/cc5eykcM.s:2738   .text:0000000000000aa8 .LVL296
     /tmp/cc5eykcM.s:2527   .text:000000000000098c .LVL272
     /tmp/cc5eykcM.s:2546   .text:00000000000009ac .LVL274
     /tmp/cc5eykcM.s:2541   .text:00000000000009a4 .LVL273
     /tmp/cc5eykcM.s:2638   .text:0000000000000a50 .LVL286
     /tmp/cc5eykcM.s:2586   .text:00000000000009e0 .LVL280
     /tmp/cc5eykcM.s:2614   .text:0000000000000a24 .LVL284
     /tmp/cc5eykcM.s:2569   .text:00000000000009c8 .LVL277
     /tmp/cc5eykcM.s:2578   .text:00000000000009dc .LVL279
     /tmp/cc5eykcM.s:3223   .text._ZN20Threads_CPP_API_test7WorkerD3runEv:0000000000000000 .LVL363
     /tmp/cc5eykcM.s:3033   .text._ZN20Threads_CPP_API_test7WorkerC3runEv:0000000000000000 .LVL336
     /tmp/cc5eykcM.s:2817   .text._ZN20Threads_CPP_API_test7WorkerB3runEv:0000000000000000 .LVL305
     /tmp/cc5eykcM.s:2653   .text._ZN20Threads_CPP_API_test7WorkerA3runEv:0000000000000000 .LVL287
     /tmp/cc5eykcM.s:2456   .text:0000000000000918 .LVL265
     /tmp/cc5eykcM.s:2479   .text:0000000000000948 .LVL266
     /tmp/cc5eykcM.s:2503   .text:0000000000000974 .LVL269
     /tmp/cc5eykcM.s:2509   .text:0000000000000980 .LVL270
     /tmp/cc5eykcM.s:19     .text:0000000000000000 .LVL0
     /tmp/cc5eykcM.s:31     .text:0000000000000018 .LVL1
     /tmp/cc5eykcM.s:2173   .text:00000000000006a0 .LVL229
     /tmp/cc5eykcM.s:2191   .text:00000000000006c0 .LVL231
     /tmp/cc5eykcM.s:2187   .text:00000000000006b8 .LVL230
     /tmp/cc5eykcM.s:2212   .text:00000000000006f8 .LVL235
     /tmp/cc5eykcM.s:2214   .text:00000000000006fc .LVL236
     /tmp/cc5eykcM.s:2282   .text:00000000000007a0 .LVL248
     /tmp/cc5eykcM.s:2284   .text:00000000000007a4 .LVL249
     /tmp/cc5eykcM.s:2311   .text:00000000000007dc .LVL252
     /tmp/cc5eykcM.s:2242   .text:0000000000000730 .LVL240
     /tmp/cc5eykcM.s:2246   .text:0000000000000738 .LVL241
     /tmp/cc5eykcM.s:2314   .text:00000000000007e0 .LVL253
     /tmp/cc5eykcM.s:1978   .text:0000000000000520 .LVL200
     /tmp/cc5eykcM.s:1996   .text:0000000000000540 .LVL202
GAS LISTING /tmp/cc5eykcM.s 			page 245


     /tmp/cc5eykcM.s:1992   .text:0000000000000538 .LVL201
     /tmp/cc5eykcM.s:2017   .text:0000000000000578 .LVL206
     /tmp/cc5eykcM.s:2019   .text:000000000000057c .LVL207
     /tmp/cc5eykcM.s:2113   .text:0000000000000658 .LVL223
     /tmp/cc5eykcM.s:2115   .text:000000000000065c .LVL224
     /tmp/cc5eykcM.s:2142   .text:0000000000000694 .LVL227
     /tmp/cc5eykcM.s:2048   .text:00000000000005a4 .LVL210
     /tmp/cc5eykcM.s:2073   .text:00000000000005e8 .LVL215
     /tmp/cc5eykcM.s:2077   .text:00000000000005f0 .LVL216
     /tmp/cc5eykcM.s:2145   .text:0000000000000698 .LVL228
     /tmp/cc5eykcM.s:205    .text:0000000000000110 .LVL19
     /tmp/cc5eykcM.s:224    .text:0000000000000130 .LVL21
     /tmp/cc5eykcM.s:219    .text:0000000000000128 .LVL20
     /tmp/cc5eykcM.s:320    .text:00000000000001dc .LVL34
     /tmp/cc5eykcM.s:264    .text:0000000000000164 .LVL27
     /tmp/cc5eykcM.s:292    .text:00000000000001a8 .LVL31
     /tmp/cc5eykcM.s:247    .text:000000000000014c .LVL24
     /tmp/cc5eykcM.s:256    .text:0000000000000160 .LVL26
     /tmp/cc5eykcM.s:72     .text:0000000000000044 .LVL4
     /tmp/cc5eykcM.s:91     .text:0000000000000064 .LVL6
     /tmp/cc5eykcM.s:86     .text:000000000000005c .LVL5
     /tmp/cc5eykcM.s:183    .text:0000000000000108 .LVL18
     /tmp/cc5eykcM.s:131    .text:0000000000000098 .LVL12
     /tmp/cc5eykcM.s:159    .text:00000000000000dc .LVL16
     /tmp/cc5eykcM.s:114    .text:0000000000000080 .LVL9
     /tmp/cc5eykcM.s:123    .text:0000000000000094 .LVL11
     /tmp/cc5eykcM.s:1893   .text:00000000000004ac .LVL193
     /tmp/cc5eykcM.s:1916   .text:00000000000004dc .LVL194
     /tmp/cc5eykcM.s:1940   .text:0000000000000508 .LVL197
     /tmp/cc5eykcM.s:1946   .text:0000000000000514 .LVL198
     /tmp/cc5eykcM.s:3601   .text._ZN6BufferdlEPv:0000000000000000 .LVL405
     /tmp/cc5eykcM.s:3625   .text._ZN6BufferdlEPv:0000000000000028 .LVL406
     /tmp/cc5eykcM.s:3638   .text._ZN6BufferdlEPv:0000000000000040 .LVL408
     /tmp/cc5eykcM.s:3696   .text._ZN6BufferdlEPv:00000000000000ac .LVL410
     /tmp/cc5eykcM.s:3686   .text._ZN6BufferdlEPv:00000000000000a0 .LVL409
     /tmp/cc5eykcM.s:7004   .debug_info:0000000000000000 .Ldebug_info0
     /tmp/cc5eykcM.s:5      .text:0000000000000000 .Ltext0
     /tmp/cc5eykcM.s:6995   .text:0000000000002590 .Letext0
     /tmp/cc5eykcM.s:94     .text:0000000000000064 .LBB76
     /tmp/cc5eykcM.s:127    .text:0000000000000094 .LBE76
     /tmp/cc5eykcM.s:155    .text:00000000000000d4 .LBB80
     /tmp/cc5eykcM.s:161    .text:00000000000000dc .LBE80
     /tmp/cc5eykcM.s:227    .text:0000000000000130 .LBB84
     /tmp/cc5eykcM.s:260    .text:0000000000000160 .LBE84
     /tmp/cc5eykcM.s:288    .text:00000000000001a0 .LBB88
     /tmp/cc5eykcM.s:294    .text:00000000000001a8 .LBE88
     /tmp/cc5eykcM.s:1396   .text:0000000000000350 .LBB120
     /tmp/cc5eykcM.s:1410   .text:0000000000000368 .LBE120
     /tmp/cc5eykcM.s:1415   .text:0000000000000374 .LBB121
     /tmp/cc5eykcM.s:1452   .text:00000000000003b8 .LBE121
     /tmp/cc5eykcM.s:1611   .text._ZN28ConsumerProducerCPP_API_test8Consumer3runEv:0000000000000028 .LBB123
     /tmp/cc5eykcM.s:1618   .text._ZN28ConsumerProducerCPP_API_test8Consumer3runEv:0000000000000034 .LBE123
     /tmp/cc5eykcM.s:1623   .text._ZN28ConsumerProducerCPP_API_test8Consumer3runEv:0000000000000040 .LBB124
     /tmp/cc5eykcM.s:1651   .text._ZN28ConsumerProducerCPP_API_test8Consumer3runEv:0000000000000074 .LBE124
     /tmp/cc5eykcM.s:2549   .text:00000000000009ac .LBB128
     /tmp/cc5eykcM.s:2582   .text:00000000000009dc .LBE128
     /tmp/cc5eykcM.s:2610   .text:0000000000000a1c .LBB132
GAS LISTING /tmp/cc5eykcM.s 			page 246


     /tmp/cc5eykcM.s:2616   .text:0000000000000a24 .LBE132
     /tmp/cc5eykcM.s:2709   .text:0000000000000a78 .LBB136
     /tmp/cc5eykcM.s:2742   .text:0000000000000aa8 .LBE136
     /tmp/cc5eykcM.s:2770   .text:0000000000000ae8 .LBB140
     /tmp/cc5eykcM.s:2776   .text:0000000000000af0 .LBE140
     /tmp/cc5eykcM.s:3622   .text._ZN6BufferdlEPv:0000000000000020 .LBE160
     /tmp/cc5eykcM.s:3641   .text._ZN6BufferdlEPv:0000000000000040 .LBB167
     /tmp/cc5eykcM.s:3706   .text._ZN6BufferdlEPv:00000000000000bc .LBE167
     /tmp/cc5eykcM.s:3869   .text:0000000000001128 .LBE186
     /tmp/cc5eykcM.s:3900   .text:0000000000001168 .LBB197
     /tmp/cc5eykcM.s:3971   .text:00000000000011e4 .LBE197
     /tmp/cc5eykcM.s:3859   .text:0000000000001110 .LBE188
     /tmp/cc5eykcM.s:3902   .text:0000000000001168 .LBB195
     /tmp/cc5eykcM.s:3969   .text:00000000000011e4 .LBE195
     /tmp/cc5eykcM.s:4131   .text:0000000000001344 .LBE200
     /tmp/cc5eykcM.s:4159   .text:0000000000001370 .LBB211
     /tmp/cc5eykcM.s:4232   .text:00000000000013f0 .LBE211
     /tmp/cc5eykcM.s:4120   .text:000000000000132c .LBE202
     /tmp/cc5eykcM.s:4161   .text:0000000000001370 .LBB209
     /tmp/cc5eykcM.s:4230   .text:00000000000013f0 .LBE209
     /tmp/cc5eykcM.s:4572   .text:000000000000158c .LBB212
     /tmp/cc5eykcM.s:4586   .text:00000000000015a4 .LBE212
     /tmp/cc5eykcM.s:4591   .text:00000000000015b0 .LBB213
     /tmp/cc5eykcM.s:4628   .text:00000000000015f4 .LBE213
     /tmp/cc5eykcM.s:4959   .text:0000000000001864 .LBB217
     /tmp/cc5eykcM.s:5076   .text:0000000000001948 .LBE217
     /tmp/cc5eykcM.s:5236   .text:0000000000001a7c .LBB226
     /tmp/cc5eykcM.s:5258   .text:0000000000001ab0 .LBE226
     /tmp/cc5eykcM.s:4974   .text:000000000000187c .LBE218
     /tmp/cc5eykcM.s:5027   .text:00000000000018f0 .LBB221
     /tmp/cc5eykcM.s:5037   .text:00000000000018fc .LBE221
     /tmp/cc5eykcM.s:5693   .text:0000000000001d9c .LBB232
     /tmp/cc5eykcM.s:5765   .text:0000000000001e28 .LBE232
     /tmp/cc5eykcM.s:5939   .text:0000000000001f78 .LBB240
     /tmp/cc5eykcM.s:5949   .text:0000000000001f90 .LBE240
     /tmp/cc5eykcM.s:5708   .text:0000000000001db4 .LBE233
     /tmp/cc5eykcM.s:5754   .text:0000000000001e1c .LBB236
     /tmp/cc5eykcM.s:5764   .text:0000000000001e28 .LBE236
     /tmp/cc5eykcM.s:5771   .text:0000000000001e30 .LBB237
     /tmp/cc5eykcM.s:5789   .text:0000000000001e50 .LBE237
     /tmp/cc5eykcM.s:5801   .text:0000000000001e68 .LBB238
     /tmp/cc5eykcM.s:5808   .text:0000000000001e70 .LBE238
     /tmp/cc5eykcM.s:6232   .text:000000000000211c .LBB242
     /tmp/cc5eykcM.s:6235   .text:0000000000002120 .LBE242
     /tmp/cc5eykcM.s:6241   .text:0000000000002128 .LBB243
     /tmp/cc5eykcM.s:6341   .text:0000000000002224 .LBE243
     /tmp/cc5eykcM.s:6480   .text:0000000000002328 .LBB246
     /tmp/cc5eykcM.s:6516   .text:0000000000002390 .LBE246
     /tmp/cc5eykcM.s:6525   .text:00000000000023a0 .LBB247
     /tmp/cc5eykcM.s:6542   .text:00000000000023cc .LBE247
     /tmp/cc5eykcM.s:6626   .text:0000000000002460 .LBB248
     /tmp/cc5eykcM.s:6629   .text:0000000000002464 .LBE248
     /tmp/cc5eykcM.s:6635   .text:000000000000246c .LBB249
     /tmp/cc5eykcM.s:6706   .text:0000000000002518 .LBE249
     /tmp/cc5eykcM.s:3531   .gcc_except_table:0000000000000000 .LLSDA71
     /tmp/cc5eykcM.s:3710   .gcc_except_table:00000000000000ae .LLSDA74
     /tmp/cc5eykcM.s:4245   .gcc_except_table:00000000000000b2 .LLSDA79
GAS LISTING /tmp/cc5eykcM.s 			page 247


     /tmp/cc5eykcM.s:5262   .gcc_except_table:00000000000000ea .LLSDA95
     /tmp/cc5eykcM.s:5953   .gcc_except_table:00000000000001bf .LLSDA110
                           .group:0000000000000000 _ZN20Threads_CPP_API_test7WorkerAD5Ev
                           .group:0000000000000000 _ZN20Threads_CPP_API_test7WorkerBD5Ev
                           .group:0000000000000000 _ZN20Threads_CPP_API_test7WorkerCD5Ev
                           .group:0000000000000000 _ZN20Threads_CPP_API_test7WorkerDD5Ev
                           .group:0000000000000000 _ZN34ConsumerProducer_CPP_Sync_API_test8ConsumerD5Ev
                           .group:0000000000000000 _ZN34ConsumerProducer_CPP_Sync_API_test8ProducerD5Ev
                           .group:0000000000000000 _ZN34ConsumerProducer_CPP_Sync_API_test16ProducerKeyboardD5Ev
                           .group:0000000000000000 _ZN28ConsumerProducerCPP_API_test8ConsumerD5Ev
                           .group:0000000000000000 _ZN28ConsumerProducerCPP_API_test16ProducerKeyboradD5Ev
                           .group:0000000000000000 _ZN28ConsumerProducerCPP_API_test8ProducerD5Ev

UNDEFINED SYMBOLS
_Z11printStringPKc
thread_dispatch
_Z8printIntiii
_ZN6ThreadD2Ev
_ZdlPv
getc
_ZN6Buffer3putEi
sem_signal
putc
_ZN6Buffer3getEv
_ZN6Buffer6getCntEv
_ZN9BufferCPP3putEi
_ZN9Semaphore6signalEv
_ZN7Console4putcEc
_ZN9BufferCPP3getEv
_ZN9BufferCPP6getCntEv
time_sleep
_ZN6Thread5sleepEm
thread_create
_Znwm
_ZN6ThreadC2Ev
_ZN6Thread5startEv
_ZN6Thread8dispatchEv
_Unwind_Resume
__gxx_personality_v0
_ZN15MemoryAllocator11memory_freeEPv
HEAP_END_ADDR
HEAP_START_ADDR
_Z9getStringPci
_Z11stringToIntPKc
_ZN15MemoryAllocator12memory_allocEm
_ZN6BufferC1Ei
sem_open
sem_wait
sem_close
_ZN6BufferD1Ev
_ZN9BufferCPPC1Ei
_ZN9SemaphoreC1Ej
_ZN9Semaphore4waitEv
_ZN9BufferCPPD1Ev
_Z17kmem_cache_createPKcmPFvPvES3_
_Z15kmem_cache_infoP12kmem_cache_s
_Z16kmem_cache_allocP12kmem_cache_s
GAS LISTING /tmp/cc5eykcM.s 			page 248


_Z15kmem_cache_freeP12kmem_cache_sPv
_Z9test_prviv
