GAS LISTING /tmp/cciyzRgz.s 			page 1


   1              		.file	"userMain.cpp"
   2              		.option pic
   3              		.option norelax
   4              		.text
   5              	.Ltext0:
   6              		.section	.rodata.str1.8,"aMS",@progbits,1
   7              		.align	3
   8              	.LC0:
   9 0000 45206669 		.string	"E finished!\n"
   9      6E697368 
   9      6564210A 
   9      00
  10              		.text
  11              		.align	2
  12              		.globl	_Z11workerBodyEPv
  14              	_Z11workerBodyEPv:
  15              	.LFB43:
  16              		.file 1 "test/../test/Threads_C_API_test.hpp"
   1:test/../test/Threads_C_API_test.hpp **** #ifndef XV6_THREADS_C_API_TEST_HPP
   2:test/../test/Threads_C_API_test.hpp **** #define XV6_THREADS_C_API_TEST_HPP
   3:test/../test/Threads_C_API_test.hpp **** 
   4:test/../test/Threads_C_API_test.hpp **** #include "../h/syscall_c.h"
   5:test/../test/Threads_C_API_test.hpp **** 
   6:test/../test/Threads_C_API_test.hpp **** #include "printing.hpp"
   7:test/../test/Threads_C_API_test.hpp **** 
   8:test/../test/Threads_C_API_test.hpp **** bool finishedA = false;
   9:test/../test/Threads_C_API_test.hpp **** bool finishedB = false;
  10:test/../test/Threads_C_API_test.hpp **** bool finishedC = false;
  11:test/../test/Threads_C_API_test.hpp **** bool finishedD = false;
  12:test/../test/Threads_C_API_test.hpp **** bool finishedE = false;
  13:test/../test/Threads_C_API_test.hpp **** 
  14:test/../test/Threads_C_API_test.hpp **** uint64 fibonacci(uint64 n) {
  15:test/../test/Threads_C_API_test.hpp ****     if (n == 0 || n == 1) { return n; }
  16:test/../test/Threads_C_API_test.hpp ****     if (n % 10 == 0) { thread_dispatch(); }
  17:test/../test/Threads_C_API_test.hpp ****     return fibonacci(n - 1) + fibonacci(n - 2);
  18:test/../test/Threads_C_API_test.hpp **** }
  19:test/../test/Threads_C_API_test.hpp **** 
  20:test/../test/Threads_C_API_test.hpp **** void workerBodyA(void* arg) {
  21:test/../test/Threads_C_API_test.hpp ****     for (uint64 i = 0; i < 10; i++) {
  22:test/../test/Threads_C_API_test.hpp ****         printString("A: i="); printInt(i); printString("\n");
  23:test/../test/Threads_C_API_test.hpp ****         for (uint64 j = 0; j < 10000; j++) {
  24:test/../test/Threads_C_API_test.hpp ****             for (uint64 k = 0; k < 30000; k++) { /* busy wait */ }
  25:test/../test/Threads_C_API_test.hpp ****             thread_dispatch();
  26:test/../test/Threads_C_API_test.hpp ****         }
  27:test/../test/Threads_C_API_test.hpp ****     }
  28:test/../test/Threads_C_API_test.hpp ****     printString("A finished!\n");
  29:test/../test/Threads_C_API_test.hpp ****     finishedA = true;
  30:test/../test/Threads_C_API_test.hpp **** }
  31:test/../test/Threads_C_API_test.hpp **** 
  32:test/../test/Threads_C_API_test.hpp **** void workerBodyB(void* arg) {
  33:test/../test/Threads_C_API_test.hpp ****     for (uint64 i = 0; i < 16; i++) {
  34:test/../test/Threads_C_API_test.hpp ****         printString("B: i="); printInt(i); printString("\n");
  35:test/../test/Threads_C_API_test.hpp ****         for (uint64 j = 0; j < 10000; j++) {
  36:test/../test/Threads_C_API_test.hpp ****             for (uint64 k = 0; k < 30000; k++) { /* busy wait */ }
  37:test/../test/Threads_C_API_test.hpp ****             thread_dispatch();
  38:test/../test/Threads_C_API_test.hpp ****         }
  39:test/../test/Threads_C_API_test.hpp ****     }
GAS LISTING /tmp/cciyzRgz.s 			page 2


  40:test/../test/Threads_C_API_test.hpp ****     printString("B finished!\n");
  41:test/../test/Threads_C_API_test.hpp ****     finishedB = true;
  42:test/../test/Threads_C_API_test.hpp ****     thread_dispatch();
  43:test/../test/Threads_C_API_test.hpp **** }
  44:test/../test/Threads_C_API_test.hpp **** 
  45:test/../test/Threads_C_API_test.hpp **** void workerBodyC(void* arg) {
  46:test/../test/Threads_C_API_test.hpp ****     uint8 i = 0;
  47:test/../test/Threads_C_API_test.hpp ****     for (; i < 3; i++) {
  48:test/../test/Threads_C_API_test.hpp ****         printString("C: i="); printInt(i); printString("\n");
  49:test/../test/Threads_C_API_test.hpp ****     }
  50:test/../test/Threads_C_API_test.hpp **** 
  51:test/../test/Threads_C_API_test.hpp ****     printString("C: dispatch\n");
  52:test/../test/Threads_C_API_test.hpp ****     __asm__ ("li t1, 7");
  53:test/../test/Threads_C_API_test.hpp ****     thread_dispatch();
  54:test/../test/Threads_C_API_test.hpp **** 
  55:test/../test/Threads_C_API_test.hpp ****     uint64 t1 = 0;
  56:test/../test/Threads_C_API_test.hpp ****     __asm__ ("mv %[t1], t1" : [t1] "=r"(t1));
  57:test/../test/Threads_C_API_test.hpp **** 
  58:test/../test/Threads_C_API_test.hpp ****     printString("C: t1="); printInt(t1); printString("\n");
  59:test/../test/Threads_C_API_test.hpp **** 
  60:test/../test/Threads_C_API_test.hpp ****     uint64 result = fibonacci(12);
  61:test/../test/Threads_C_API_test.hpp ****     printString("C: fibonaci="); printInt(result); printString("\n");
  62:test/../test/Threads_C_API_test.hpp **** 
  63:test/../test/Threads_C_API_test.hpp ****     for (; i < 6; i++) {
  64:test/../test/Threads_C_API_test.hpp ****         printString("C: i="); printInt(i); printString("\n");
  65:test/../test/Threads_C_API_test.hpp ****     }
  66:test/../test/Threads_C_API_test.hpp **** 
  67:test/../test/Threads_C_API_test.hpp ****     printString("A finished!\n");
  68:test/../test/Threads_C_API_test.hpp ****     finishedC = true;
  69:test/../test/Threads_C_API_test.hpp ****     thread_dispatch();
  70:test/../test/Threads_C_API_test.hpp **** }
  71:test/../test/Threads_C_API_test.hpp **** 
  72:test/../test/Threads_C_API_test.hpp **** void workerBodyD(void* arg) {
  73:test/../test/Threads_C_API_test.hpp ****     uint8 i = 10;
  74:test/../test/Threads_C_API_test.hpp ****     for (; i < 13; i++) {
  75:test/../test/Threads_C_API_test.hpp ****         printString("D: i="); printInt(i); printString("\n");
  76:test/../test/Threads_C_API_test.hpp ****     }
  77:test/../test/Threads_C_API_test.hpp **** 
  78:test/../test/Threads_C_API_test.hpp ****     printString("D: dispatch\n");
  79:test/../test/Threads_C_API_test.hpp ****     __asm__ ("li t1, 5");
  80:test/../test/Threads_C_API_test.hpp ****     thread_dispatch();
  81:test/../test/Threads_C_API_test.hpp **** 
  82:test/../test/Threads_C_API_test.hpp ****     uint64 result = fibonacci(16);
  83:test/../test/Threads_C_API_test.hpp ****     printString("D: fibonaci="); printInt(result); printString("\n");
  84:test/../test/Threads_C_API_test.hpp **** 
  85:test/../test/Threads_C_API_test.hpp ****     for (; i < 16; i++) {
  86:test/../test/Threads_C_API_test.hpp ****         printString("D: i="); printInt(i); printString("\n");
  87:test/../test/Threads_C_API_test.hpp ****     }
  88:test/../test/Threads_C_API_test.hpp **** 
  89:test/../test/Threads_C_API_test.hpp ****     printString("D finished!\n");
  90:test/../test/Threads_C_API_test.hpp ****     finishedD = true;
  91:test/../test/Threads_C_API_test.hpp ****     thread_dispatch();
  92:test/../test/Threads_C_API_test.hpp **** }
  93:test/../test/Threads_C_API_test.hpp **** 
  94:test/../test/Threads_C_API_test.hpp **** void workerBodyE(void* arg) {
  17              		.loc 1 94 29
  18              		.cfi_startproc
GAS LISTING /tmp/cciyzRgz.s 			page 3


  19              	.LVL0:
  20 0000 130101FF 		addi	sp,sp,-16
  21              		.cfi_def_cfa_offset 16
  22 0004 23341100 		sd	ra,8(sp)
  23 0008 23308100 		sd	s0,0(sp)
  24              		.cfi_offset 1, -8
  25              		.cfi_offset 8, -16
  26 000c 13040101 		addi	s0,sp,16
  27              		.cfi_def_cfa 8, 0
  95:test/../test/Threads_C_API_test.hpp **** //    uint8 i = 10;
  96:test/../test/Threads_C_API_test.hpp **** //    for (; i < 13; i++) {
  97:test/../test/Threads_C_API_test.hpp **** //        printString("D: i="); printInt(i); printString("\n");
  98:test/../test/Threads_C_API_test.hpp **** //    }
  99:test/../test/Threads_C_API_test.hpp **** //
 100:test/../test/Threads_C_API_test.hpp **** //    printString("D: dispatch\n");
 101:test/../test/Threads_C_API_test.hpp **** //    __asm__ ("li t1, 5");
 102:test/../test/Threads_C_API_test.hpp **** //    thread_dispatch();
 103:test/../test/Threads_C_API_test.hpp **** //
 104:test/../test/Threads_C_API_test.hpp **** //    uint64 result = fibonacci(16);
 105:test/../test/Threads_C_API_test.hpp **** //    printString("D: fibonaci="); printInt(result); printString("\n");
 106:test/../test/Threads_C_API_test.hpp **** //
 107:test/../test/Threads_C_API_test.hpp **** //    for (; i < 16; i++) {
 108:test/../test/Threads_C_API_test.hpp **** //        printString("D: i="); printInt(i); printString("\n");
 109:test/../test/Threads_C_API_test.hpp **** //    }
 110:test/../test/Threads_C_API_test.hpp **** 
 111:test/../test/Threads_C_API_test.hpp ****     printString("E finished!\n");
  28              		.loc 1 111 5
  29              		.loc 1 111 16 is_stmt 0
  30 0010 17050000 		lla	a0,.LC0
  30      13050500 
  31              	.LVL1:
  32 0018 97000000 		call	_Z11printStringPKc@plt
  32      E7800000 
  33              	.LVL2:
 112:test/../test/Threads_C_API_test.hpp ****     finishedE = true;
  34              		.loc 1 112 5 is_stmt 1
  35              		.loc 1 112 15 is_stmt 0
  36 0020 93071000 		li	a5,1
  37 0024 17070000 		sb	a5,.LANCHOR0,a4
  37      2300F700 
 113:test/../test/Threads_C_API_test.hpp ****     thread_dispatch();
  38              		.loc 1 113 5 is_stmt 1
  39              		.loc 1 113 20 is_stmt 0
  40 002c 97000000 		call	thread_dispatch@plt
  40      E7800000 
  41              	.LVL3:
 114:test/../test/Threads_C_API_test.hpp **** }
  42              		.loc 1 114 1
  43 0034 83308100 		ld	ra,8(sp)
  44              		.cfi_restore 1
  45 0038 03340100 		ld	s0,0(sp)
  46              		.cfi_restore 8
  47              		.cfi_def_cfa 2, 16
  48 003c 13010101 		addi	sp,sp,16
  49              		.cfi_def_cfa_offset 0
  50 0040 67800000 		jr	ra
  51              		.cfi_endproc
GAS LISTING /tmp/cciyzRgz.s 			page 4


  52              	.LFE43:
  54              		.section	.rodata.str1.8
  55 000d 000000   		.align	3
  56              	.LC1:
  57 0010 413A2069 		.string	"A: i="
  57      3D00
  58 0016 0000     		.align	3
  59              	.LC2:
  60 0018 0A00     		.string	"\n"
  61 001a 00000000 		.align	3
  61      0000
  62              	.LC3:
  63 0020 41206669 		.string	"A finished!\n"
  63      6E697368 
  63      6564210A 
  63      00
  64              		.text
  65              		.align	2
  66              		.globl	_Z11workerBodyAPv
  68              	_Z11workerBodyAPv:
  69              	.LFB39:
  20:test/../test/Threads_C_API_test.hpp ****     for (uint64 i = 0; i < 10; i++) {
  70              		.loc 1 20 29 is_stmt 1
  71              		.cfi_startproc
  72              	.LVL4:
  73 0044 130101FE 		addi	sp,sp,-32
  74              		.cfi_def_cfa_offset 32
  75 0048 233C1100 		sd	ra,24(sp)
  76 004c 23388100 		sd	s0,16(sp)
  77 0050 23349100 		sd	s1,8(sp)
  78 0054 23302101 		sd	s2,0(sp)
  79              		.cfi_offset 1, -8
  80              		.cfi_offset 8, -16
  81              		.cfi_offset 9, -24
  82              		.cfi_offset 18, -32
  83 0058 13040102 		addi	s0,sp,32
  84              		.cfi_def_cfa 8, 0
  21:test/../test/Threads_C_API_test.hpp ****         printString("A: i="); printInt(i); printString("\n");
  85              		.loc 1 21 5
  86              	.LVL5:
  87              	.LBB23:
  21:test/../test/Threads_C_API_test.hpp ****         printString("A: i="); printInt(i); printString("\n");
  88              		.loc 1 21 17 is_stmt 0
  89 005c 13090000 		li	s2,0
  90 0060 6F008003 		j	.L9
  91              	.LVL6:
  92              	.L6:
  93              	.LBB24:
  94              	.LBB25:
  95              	.LBB26:
  25:test/../test/Threads_C_API_test.hpp ****         }
  96              		.loc 1 25 13 is_stmt 1 discriminator 2
  25:test/../test/Threads_C_API_test.hpp ****         }
  97              		.loc 1 25 28 is_stmt 0 discriminator 2
  98 0064 97000000 		call	thread_dispatch@plt
  98      E7800000 
  99              	.LVL7:
GAS LISTING /tmp/cciyzRgz.s 			page 5


 100              	.LBE26:
  23:test/../test/Threads_C_API_test.hpp ****             for (uint64 k = 0; k < 30000; k++) { /* busy wait */ }
 101              		.loc 1 23 9 is_stmt 1 discriminator 2
 102 006c 93841400 		addi	s1,s1,1
 103              	.LVL8:
 104              	.L8:
  23:test/../test/Threads_C_API_test.hpp ****             for (uint64 k = 0; k < 30000; k++) { /* busy wait */ }
 105              		.loc 1 23 30 discriminator 1
 106 0070 B7270000 		li	a5,8192
 107 0074 9387F770 		addi	a5,a5,1807
 108 0078 63EE9700 		bgtu	s1,a5,.L5
 109              	.LBB28:
 110              	.LBB27:
  24:test/../test/Threads_C_API_test.hpp ****             thread_dispatch();
 111              		.loc 1 24 25 is_stmt 0
 112 007c 13070000 		li	a4,0
 113              	.L7:
 114              	.LVL9:
  24:test/../test/Threads_C_API_test.hpp ****             thread_dispatch();
 115              		.loc 1 24 34 is_stmt 1 discriminator 3
 116 0080 B7770000 		li	a5,28672
 117 0084 9387F752 		addi	a5,a5,1327
 118 0088 E3EEE7FC 		bgtu	a4,a5,.L6
  24:test/../test/Threads_C_API_test.hpp ****             thread_dispatch();
 119              		.loc 1 24 13 discriminator 2
 120 008c 13071700 		addi	a4,a4,1
 121              	.LVL10:
 122 0090 6FF01FFF 		j	.L7
 123              	.LVL11:
 124              	.L5:
 125              	.LBE27:
 126              	.LBE28:
 127              	.LBE25:
 128              	.LBE24:
  21:test/../test/Threads_C_API_test.hpp ****         printString("A: i="); printInt(i); printString("\n");
 129              		.loc 1 21 5 discriminator 2
 130 0094 13091900 		addi	s2,s2,1
 131              	.LVL12:
 132              	.L9:
  21:test/../test/Threads_C_API_test.hpp ****         printString("A: i="); printInt(i); printString("\n");
 133              		.loc 1 21 26 discriminator 1
 134 0098 93079000 		li	a5,9
 135 009c 63E02705 		bgtu	s2,a5,.L4
 136              	.LBB30:
  22:test/../test/Threads_C_API_test.hpp ****         for (uint64 j = 0; j < 10000; j++) {
 137              		.loc 1 22 9
  22:test/../test/Threads_C_API_test.hpp ****         for (uint64 j = 0; j < 10000; j++) {
 138              		.loc 1 22 20 is_stmt 0
 139 00a0 17050000 		lla	a0,.LC1
 139      13050500 
 140 00a8 97000000 		call	_Z11printStringPKc@plt
 140      E7800000 
 141              	.LVL13:
  22:test/../test/Threads_C_API_test.hpp ****         for (uint64 j = 0; j < 10000; j++) {
 142              		.loc 1 22 31 is_stmt 1
  22:test/../test/Threads_C_API_test.hpp ****         for (uint64 j = 0; j < 10000; j++) {
 143              		.loc 1 22 39 is_stmt 0
GAS LISTING /tmp/cciyzRgz.s 			page 6


 144 00b0 13060000 		li	a2,0
 145 00b4 9305A000 		li	a1,10
 146 00b8 1B050900 		sext.w	a0,s2
 147 00bc 97000000 		call	_Z8printIntiii@plt
 147      E7800000 
 148              	.LVL14:
  22:test/../test/Threads_C_API_test.hpp ****         for (uint64 j = 0; j < 10000; j++) {
 149              		.loc 1 22 44 is_stmt 1
  22:test/../test/Threads_C_API_test.hpp ****         for (uint64 j = 0; j < 10000; j++) {
 150              		.loc 1 22 55 is_stmt 0
 151 00c4 17050000 		lla	a0,.LC2
 151      13050500 
 152 00cc 97000000 		call	_Z11printStringPKc@plt
 152      E7800000 
 153              	.LVL15:
  23:test/../test/Threads_C_API_test.hpp ****             for (uint64 k = 0; k < 30000; k++) { /* busy wait */ }
 154              		.loc 1 23 9 is_stmt 1
 155              	.LBB29:
  23:test/../test/Threads_C_API_test.hpp ****             for (uint64 k = 0; k < 30000; k++) { /* busy wait */ }
 156              		.loc 1 23 21 is_stmt 0
 157 00d4 93040000 		li	s1,0
 158 00d8 6FF09FF9 		j	.L8
 159              	.LVL16:
 160              	.L4:
 161              	.LBE29:
 162              	.LBE30:
 163              	.LBE23:
  28:test/../test/Threads_C_API_test.hpp ****     finishedA = true;
 164              		.loc 1 28 5 is_stmt 1
  28:test/../test/Threads_C_API_test.hpp ****     finishedA = true;
 165              		.loc 1 28 16 is_stmt 0
 166 00dc 17050000 		lla	a0,.LC3
 166      13050500 
 167 00e4 97000000 		call	_Z11printStringPKc@plt
 167      E7800000 
 168              	.LVL17:
  29:test/../test/Threads_C_API_test.hpp **** }
 169              		.loc 1 29 5 is_stmt 1
  29:test/../test/Threads_C_API_test.hpp **** }
 170              		.loc 1 29 15 is_stmt 0
 171 00ec 93071000 		li	a5,1
 172 00f0 17070000 		sb	a5,.LANCHOR0+1,a4
 172      2300F700 
  30:test/../test/Threads_C_API_test.hpp **** 
 173              		.loc 1 30 1
 174 00f8 83308101 		ld	ra,24(sp)
 175              		.cfi_restore 1
 176 00fc 03340101 		ld	s0,16(sp)
 177              		.cfi_restore 8
 178              		.cfi_def_cfa 2, 32
 179 0100 83348100 		ld	s1,8(sp)
 180              		.cfi_restore 9
 181 0104 03390100 		ld	s2,0(sp)
 182              		.cfi_restore 18
 183              	.LVL18:
 184 0108 13010102 		addi	sp,sp,32
 185              		.cfi_def_cfa_offset 0
GAS LISTING /tmp/cciyzRgz.s 			page 7


 186 010c 67800000 		jr	ra
 187              		.cfi_endproc
 188              	.LFE39:
 190              		.section	.rodata.str1.8
 191 002d 000000   		.align	3
 192              	.LC4:
 193 0030 423A2069 		.string	"B: i="
 193      3D00
 194 0036 0000     		.align	3
 195              	.LC5:
 196 0038 42206669 		.string	"B finished!\n"
 196      6E697368 
 196      6564210A 
 196      00
 197              		.text
 198              		.align	2
 199              		.globl	_Z11workerBodyBPv
 201              	_Z11workerBodyBPv:
 202              	.LFB40:
  32:test/../test/Threads_C_API_test.hpp ****     for (uint64 i = 0; i < 16; i++) {
 203              		.loc 1 32 29 is_stmt 1
 204              		.cfi_startproc
 205              	.LVL19:
 206 0110 130101FE 		addi	sp,sp,-32
 207              		.cfi_def_cfa_offset 32
 208 0114 233C1100 		sd	ra,24(sp)
 209 0118 23388100 		sd	s0,16(sp)
 210 011c 23349100 		sd	s1,8(sp)
 211 0120 23302101 		sd	s2,0(sp)
 212              		.cfi_offset 1, -8
 213              		.cfi_offset 8, -16
 214              		.cfi_offset 9, -24
 215              		.cfi_offset 18, -32
 216 0124 13040102 		addi	s0,sp,32
 217              		.cfi_def_cfa 8, 0
  33:test/../test/Threads_C_API_test.hpp ****         printString("B: i="); printInt(i); printString("\n");
 218              		.loc 1 33 5
 219              	.LVL20:
 220              	.LBB31:
  33:test/../test/Threads_C_API_test.hpp ****         printString("B: i="); printInt(i); printString("\n");
 221              		.loc 1 33 17 is_stmt 0
 222 0128 13090000 		li	s2,0
 223 012c 6F008003 		j	.L17
 224              	.LVL21:
 225              	.L14:
 226              	.LBB32:
 227              	.LBB33:
 228              	.LBB34:
  37:test/../test/Threads_C_API_test.hpp ****         }
 229              		.loc 1 37 13 is_stmt 1 discriminator 2
  37:test/../test/Threads_C_API_test.hpp ****         }
 230              		.loc 1 37 28 is_stmt 0 discriminator 2
 231 0130 97000000 		call	thread_dispatch@plt
 231      E7800000 
 232              	.LVL22:
 233              	.LBE34:
  35:test/../test/Threads_C_API_test.hpp ****             for (uint64 k = 0; k < 30000; k++) { /* busy wait */ }
GAS LISTING /tmp/cciyzRgz.s 			page 8


 234              		.loc 1 35 9 is_stmt 1 discriminator 2
 235 0138 93841400 		addi	s1,s1,1
 236              	.LVL23:
 237              	.L16:
  35:test/../test/Threads_C_API_test.hpp ****             for (uint64 k = 0; k < 30000; k++) { /* busy wait */ }
 238              		.loc 1 35 30 discriminator 1
 239 013c B7270000 		li	a5,8192
 240 0140 9387F770 		addi	a5,a5,1807
 241 0144 63EE9700 		bgtu	s1,a5,.L13
 242              	.LBB36:
 243              	.LBB35:
  36:test/../test/Threads_C_API_test.hpp ****             thread_dispatch();
 244              		.loc 1 36 25 is_stmt 0
 245 0148 13070000 		li	a4,0
 246              	.L15:
 247              	.LVL24:
  36:test/../test/Threads_C_API_test.hpp ****             thread_dispatch();
 248              		.loc 1 36 34 is_stmt 1 discriminator 3
 249 014c B7770000 		li	a5,28672
 250 0150 9387F752 		addi	a5,a5,1327
 251 0154 E3EEE7FC 		bgtu	a4,a5,.L14
  36:test/../test/Threads_C_API_test.hpp ****             thread_dispatch();
 252              		.loc 1 36 13 discriminator 2
 253 0158 13071700 		addi	a4,a4,1
 254              	.LVL25:
 255 015c 6FF01FFF 		j	.L15
 256              	.LVL26:
 257              	.L13:
 258              	.LBE35:
 259              	.LBE36:
 260              	.LBE33:
 261              	.LBE32:
  33:test/../test/Threads_C_API_test.hpp ****         printString("B: i="); printInt(i); printString("\n");
 262              		.loc 1 33 5 discriminator 2
 263 0160 13091900 		addi	s2,s2,1
 264              	.LVL27:
 265              	.L17:
  33:test/../test/Threads_C_API_test.hpp ****         printString("B: i="); printInt(i); printString("\n");
 266              		.loc 1 33 26 discriminator 1
 267 0164 9307F000 		li	a5,15
 268 0168 63E02705 		bgtu	s2,a5,.L12
 269              	.LBB38:
  34:test/../test/Threads_C_API_test.hpp ****         for (uint64 j = 0; j < 10000; j++) {
 270              		.loc 1 34 9
  34:test/../test/Threads_C_API_test.hpp ****         for (uint64 j = 0; j < 10000; j++) {
 271              		.loc 1 34 20 is_stmt 0
 272 016c 17050000 		lla	a0,.LC4
 272      13050500 
 273 0174 97000000 		call	_Z11printStringPKc@plt
 273      E7800000 
 274              	.LVL28:
  34:test/../test/Threads_C_API_test.hpp ****         for (uint64 j = 0; j < 10000; j++) {
 275              		.loc 1 34 31 is_stmt 1
  34:test/../test/Threads_C_API_test.hpp ****         for (uint64 j = 0; j < 10000; j++) {
 276              		.loc 1 34 39 is_stmt 0
 277 017c 13060000 		li	a2,0
 278 0180 9305A000 		li	a1,10
GAS LISTING /tmp/cciyzRgz.s 			page 9


 279 0184 1B050900 		sext.w	a0,s2
 280 0188 97000000 		call	_Z8printIntiii@plt
 280      E7800000 
 281              	.LVL29:
  34:test/../test/Threads_C_API_test.hpp ****         for (uint64 j = 0; j < 10000; j++) {
 282              		.loc 1 34 44 is_stmt 1
  34:test/../test/Threads_C_API_test.hpp ****         for (uint64 j = 0; j < 10000; j++) {
 283              		.loc 1 34 55 is_stmt 0
 284 0190 17050000 		lla	a0,.LC2
 284      13050500 
 285 0198 97000000 		call	_Z11printStringPKc@plt
 285      E7800000 
 286              	.LVL30:
  35:test/../test/Threads_C_API_test.hpp ****             for (uint64 k = 0; k < 30000; k++) { /* busy wait */ }
 287              		.loc 1 35 9 is_stmt 1
 288              	.LBB37:
  35:test/../test/Threads_C_API_test.hpp ****             for (uint64 k = 0; k < 30000; k++) { /* busy wait */ }
 289              		.loc 1 35 21 is_stmt 0
 290 01a0 93040000 		li	s1,0
 291 01a4 6FF09FF9 		j	.L16
 292              	.LVL31:
 293              	.L12:
 294              	.LBE37:
 295              	.LBE38:
 296              	.LBE31:
  40:test/../test/Threads_C_API_test.hpp ****     finishedB = true;
 297              		.loc 1 40 5 is_stmt 1
  40:test/../test/Threads_C_API_test.hpp ****     finishedB = true;
 298              		.loc 1 40 16 is_stmt 0
 299 01a8 17050000 		lla	a0,.LC5
 299      13050500 
 300 01b0 97000000 		call	_Z11printStringPKc@plt
 300      E7800000 
 301              	.LVL32:
  41:test/../test/Threads_C_API_test.hpp ****     thread_dispatch();
 302              		.loc 1 41 5 is_stmt 1
  41:test/../test/Threads_C_API_test.hpp ****     thread_dispatch();
 303              		.loc 1 41 15 is_stmt 0
 304 01b8 93071000 		li	a5,1
 305 01bc 17070000 		sb	a5,.LANCHOR0+2,a4
 305      2300F700 
  42:test/../test/Threads_C_API_test.hpp **** }
 306              		.loc 1 42 5 is_stmt 1
  42:test/../test/Threads_C_API_test.hpp **** }
 307              		.loc 1 42 20 is_stmt 0
 308 01c4 97000000 		call	thread_dispatch@plt
 308      E7800000 
 309              	.LVL33:
  43:test/../test/Threads_C_API_test.hpp **** 
 310              		.loc 1 43 1
 311 01cc 83308101 		ld	ra,24(sp)
 312              		.cfi_restore 1
 313 01d0 03340101 		ld	s0,16(sp)
 314              		.cfi_restore 8
 315              		.cfi_def_cfa 2, 32
 316 01d4 83348100 		ld	s1,8(sp)
 317              		.cfi_restore 9
GAS LISTING /tmp/cciyzRgz.s 			page 10


 318 01d8 03390100 		ld	s2,0(sp)
 319              		.cfi_restore 18
 320              	.LVL34:
 321 01dc 13010102 		addi	sp,sp,32
 322              		.cfi_def_cfa_offset 0
 323 01e0 67800000 		jr	ra
 324              		.cfi_endproc
 325              	.LFE40:
 327              		.section	.text._ZN19ConsumerProducerCPP8Consumer3runEv,"axG",@progbits,_ZN19ConsumerProducerCPP8Co
 328              		.align	2
 329              		.weak	_ZN19ConsumerProducerCPP8Consumer3runEv
 331              	_ZN19ConsumerProducerCPP8Consumer3runEv:
 332              	.LFB59:
 333              		.file 2 "test/../test/ConsumerProducer_CPP_API_test.hpp"
   1:test/../test/ConsumerProducer_CPP_API_test.hpp **** //
   2:test/../test/ConsumerProducer_CPP_API_test.hpp **** // Created by os on 4/17/22.
   3:test/../test/ConsumerProducer_CPP_API_test.hpp **** //
   4:test/../test/ConsumerProducer_CPP_API_test.hpp **** 
   5:test/../test/ConsumerProducer_CPP_API_test.hpp **** #ifndef XV6_CONSUMERPRODUCER_CPP_API_TEST_HPP
   6:test/../test/ConsumerProducer_CPP_API_test.hpp **** #define XV6_CONSUMERPRODUCER_CPP_API_TEST_HPP
   7:test/../test/ConsumerProducer_CPP_API_test.hpp **** 
   8:test/../test/ConsumerProducer_CPP_API_test.hpp **** #include "../h/syscall_cpp.hpp"
   9:test/../test/ConsumerProducer_CPP_API_test.hpp **** 
  10:test/../test/ConsumerProducer_CPP_API_test.hpp **** #include "buffer_CPP_API.hpp"
  11:test/../test/ConsumerProducer_CPP_API_test.hpp **** #include "printing.hpp"
  12:test/../test/ConsumerProducer_CPP_API_test.hpp **** 
  13:test/../test/ConsumerProducer_CPP_API_test.hpp **** namespace ConsumerProducerCPP {
  14:test/../test/ConsumerProducer_CPP_API_test.hpp **** 
  15:test/../test/ConsumerProducer_CPP_API_test.hpp ****     Semaphore *waitForAll;
  16:test/../test/ConsumerProducer_CPP_API_test.hpp **** 
  17:test/../test/ConsumerProducer_CPP_API_test.hpp ****     struct thread_data {
  18:test/../test/ConsumerProducer_CPP_API_test.hpp ****         int id;
  19:test/../test/ConsumerProducer_CPP_API_test.hpp ****         BufferCPP *buffer;
  20:test/../test/ConsumerProducer_CPP_API_test.hpp ****         Semaphore *sem;
  21:test/../test/ConsumerProducer_CPP_API_test.hpp ****     };
  22:test/../test/ConsumerProducer_CPP_API_test.hpp **** 
  23:test/../test/ConsumerProducer_CPP_API_test.hpp ****     volatile int threadEnd = 0;
  24:test/../test/ConsumerProducer_CPP_API_test.hpp **** 
  25:test/../test/ConsumerProducer_CPP_API_test.hpp ****     class ProducerKeyborad : public Thread {
  26:test/../test/ConsumerProducer_CPP_API_test.hpp ****         thread_data *td;
  27:test/../test/ConsumerProducer_CPP_API_test.hpp ****     public:
  28:test/../test/ConsumerProducer_CPP_API_test.hpp ****         ProducerKeyborad(thread_data *_td) : Thread(), td(_td) {}
  29:test/../test/ConsumerProducer_CPP_API_test.hpp **** 
  30:test/../test/ConsumerProducer_CPP_API_test.hpp ****         void run() override {
  31:test/../test/ConsumerProducer_CPP_API_test.hpp ****             int key;
  32:test/../test/ConsumerProducer_CPP_API_test.hpp ****             int i = 0;
  33:test/../test/ConsumerProducer_CPP_API_test.hpp ****             while ((key = getc()) != 0x1b) {
  34:test/../test/ConsumerProducer_CPP_API_test.hpp ****                 td->buffer->put(key);
  35:test/../test/ConsumerProducer_CPP_API_test.hpp ****                 i++;
  36:test/../test/ConsumerProducer_CPP_API_test.hpp ****             }
  37:test/../test/ConsumerProducer_CPP_API_test.hpp ****             threadEnd = 1;
  38:test/../test/ConsumerProducer_CPP_API_test.hpp ****             td->buffer->put('!');
  39:test/../test/ConsumerProducer_CPP_API_test.hpp **** 
  40:test/../test/ConsumerProducer_CPP_API_test.hpp ****             td->sem->signal();
  41:test/../test/ConsumerProducer_CPP_API_test.hpp ****         }
  42:test/../test/ConsumerProducer_CPP_API_test.hpp ****     };
  43:test/../test/ConsumerProducer_CPP_API_test.hpp **** 
GAS LISTING /tmp/cciyzRgz.s 			page 11


  44:test/../test/ConsumerProducer_CPP_API_test.hpp ****     class Producer : public Thread {
  45:test/../test/ConsumerProducer_CPP_API_test.hpp ****         thread_data *td;
  46:test/../test/ConsumerProducer_CPP_API_test.hpp ****     public:
  47:test/../test/ConsumerProducer_CPP_API_test.hpp ****         Producer(thread_data *_td) : Thread(), td(_td) {}
  48:test/../test/ConsumerProducer_CPP_API_test.hpp **** 
  49:test/../test/ConsumerProducer_CPP_API_test.hpp ****         void run() override {
  50:test/../test/ConsumerProducer_CPP_API_test.hpp ****             int i = 0;
  51:test/../test/ConsumerProducer_CPP_API_test.hpp ****             while (!threadEnd) {
  52:test/../test/ConsumerProducer_CPP_API_test.hpp ****                 td->buffer->put(td->id + '0');
  53:test/../test/ConsumerProducer_CPP_API_test.hpp ****                 i++;
  54:test/../test/ConsumerProducer_CPP_API_test.hpp ****                 Thread::sleep((i+td->id)%5);
  55:test/../test/ConsumerProducer_CPP_API_test.hpp ****             }
  56:test/../test/ConsumerProducer_CPP_API_test.hpp **** 
  57:test/../test/ConsumerProducer_CPP_API_test.hpp ****             td->sem->signal();
  58:test/../test/ConsumerProducer_CPP_API_test.hpp ****         }
  59:test/../test/ConsumerProducer_CPP_API_test.hpp ****     };
  60:test/../test/ConsumerProducer_CPP_API_test.hpp **** 
  61:test/../test/ConsumerProducer_CPP_API_test.hpp ****     class Consumer : public Thread {
  62:test/../test/ConsumerProducer_CPP_API_test.hpp ****         thread_data *td;
  63:test/../test/ConsumerProducer_CPP_API_test.hpp ****     public:
  64:test/../test/ConsumerProducer_CPP_API_test.hpp ****         Consumer(thread_data *_td) : Thread(), td(_td) {}
  65:test/../test/ConsumerProducer_CPP_API_test.hpp **** 
  66:test/../test/ConsumerProducer_CPP_API_test.hpp ****         void run() override {
 334              		.loc 2 66 14 is_stmt 1
 335              		.cfi_startproc
 336              	.LVL35:
 337 0000 130101FD 		addi	sp,sp,-48
 338              		.cfi_def_cfa_offset 48
 339 0004 23341102 		sd	ra,40(sp)
 340 0008 23308102 		sd	s0,32(sp)
 341 000c 233C9100 		sd	s1,24(sp)
 342 0010 23382101 		sd	s2,16(sp)
 343 0014 23343101 		sd	s3,8(sp)
 344              		.cfi_offset 1, -8
 345              		.cfi_offset 8, -16
 346              		.cfi_offset 9, -24
 347              		.cfi_offset 18, -32
 348              		.cfi_offset 19, -40
 349 0018 13040103 		addi	s0,sp,48
 350              		.cfi_def_cfa 8, 0
 351 001c 13090500 		mv	s2,a0
  67:test/../test/ConsumerProducer_CPP_API_test.hpp ****             int i = 0;
 352              		.loc 2 67 13
 353              	.LVL36:
 354              		.loc 2 67 17 is_stmt 0
 355 0020 93090000 		li	s3,0
 356 0024 6F000001 		j	.L20
 357              	.LVL37:
 358              	.L25:
 359              	.LBB39:
  68:test/../test/ConsumerProducer_CPP_API_test.hpp ****             while (!threadEnd) {
  69:test/../test/ConsumerProducer_CPP_API_test.hpp ****                 int key = td->buffer->get();
  70:test/../test/ConsumerProducer_CPP_API_test.hpp ****                 i++;
  71:test/../test/ConsumerProducer_CPP_API_test.hpp **** 
  72:test/../test/ConsumerProducer_CPP_API_test.hpp ****                 Console::putc(key);
  73:test/../test/ConsumerProducer_CPP_API_test.hpp **** 
  74:test/../test/ConsumerProducer_CPP_API_test.hpp ****                 if (i % 80 == 0) {
GAS LISTING /tmp/cciyzRgz.s 			page 12


  75:test/../test/ConsumerProducer_CPP_API_test.hpp ****                     Console::putc('\n');
 360              		.loc 2 75 21 is_stmt 1
 361              		.loc 2 75 34 is_stmt 0
 362 0028 1305A000 		li	a0,10
 363 002c 97000000 		call	_ZN7Console4putcEc@plt
 363      E7800000 
 364              	.LVL38:
 365              	.L20:
 366              	.LBE39:
  68:test/../test/ConsumerProducer_CPP_API_test.hpp ****             while (!threadEnd) {
 367              		.loc 2 68 13 is_stmt 1
  68:test/../test/ConsumerProducer_CPP_API_test.hpp ****             while (!threadEnd) {
 368              		.loc 2 68 20
 369 0034 97070000 		lw	a5,.LANCHOR0+4
 369      83A70700 
 370 003c 639A0704 		bnez	a5,.L21
 371              	.LBB40:
  69:test/../test/ConsumerProducer_CPP_API_test.hpp ****                 i++;
 372              		.loc 2 69 17
  69:test/../test/ConsumerProducer_CPP_API_test.hpp ****                 i++;
 373              		.loc 2 69 27 is_stmt 0
 374 0040 83370901 		ld	a5,16(s2)
  69:test/../test/ConsumerProducer_CPP_API_test.hpp ****                 i++;
 375              		.loc 2 69 42
 376 0044 03B58700 		ld	a0,8(a5)
 377 0048 97000000 		call	_ZN9BufferCPP3getEv@plt
 377      E7800000 
 378              	.LVL39:
  70:test/../test/ConsumerProducer_CPP_API_test.hpp **** 
 379              		.loc 2 70 17 is_stmt 1
  70:test/../test/ConsumerProducer_CPP_API_test.hpp **** 
 380              		.loc 2 70 18 is_stmt 0
 381 0050 9B841900 		addiw	s1,s3,1
 382 0054 9B890400 		sext.w	s3,s1
 383              	.LVL40:
  72:test/../test/ConsumerProducer_CPP_API_test.hpp **** 
 384              		.loc 2 72 17 is_stmt 1
  72:test/../test/ConsumerProducer_CPP_API_test.hpp **** 
 385              		.loc 2 72 30 is_stmt 0
 386 0058 1375F50F 		andi	a0,a0,0xff
 387              	.LVL41:
 388 005c 97000000 		call	_ZN7Console4putcEc@plt
 388      E7800000 
 389              	.LVL42:
  74:test/../test/ConsumerProducer_CPP_API_test.hpp ****                     Console::putc('\n');
 390              		.loc 2 74 17 is_stmt 1
  74:test/../test/ConsumerProducer_CPP_API_test.hpp ****                     Console::putc('\n');
 391              		.loc 2 74 23 is_stmt 0
 392 0064 93070005 		li	a5,80
 393 0068 BBE4F402 		remw	s1,s1,a5
 394              	.LVL43:
  74:test/../test/ConsumerProducer_CPP_API_test.hpp ****                     Console::putc('\n');
 395              		.loc 2 74 17
 396 006c E39404FC 		bnez	s1,.L20
 397 0070 6FF09FFB 		j	.L25
 398              	.L26:
 399              	.LBE40:
GAS LISTING /tmp/cciyzRgz.s 			page 13


 400              	.LBB41:
  76:test/../test/ConsumerProducer_CPP_API_test.hpp ****                 }
  77:test/../test/ConsumerProducer_CPP_API_test.hpp ****             }
  78:test/../test/ConsumerProducer_CPP_API_test.hpp **** 
  79:test/../test/ConsumerProducer_CPP_API_test.hpp ****             while (td->buffer->getCnt() > 0) {
  80:test/../test/ConsumerProducer_CPP_API_test.hpp ****                 int key = td->buffer->get();
 401              		.loc 2 80 17 is_stmt 1
 402              		.loc 2 80 27 is_stmt 0
 403 0074 83370901 		ld	a5,16(s2)
 404              		.loc 2 80 42
 405 0078 03B58700 		ld	a0,8(a5)
 406 007c 97000000 		call	_ZN9BufferCPP3getEv@plt
 406      E7800000 
 407              	.LVL44:
  81:test/../test/ConsumerProducer_CPP_API_test.hpp ****                 Console::putc(key);
 408              		.loc 2 81 17 is_stmt 1
 409              		.loc 2 81 30 is_stmt 0
 410 0084 1375F50F 		andi	a0,a0,0xff
 411              	.LVL45:
 412 0088 97000000 		call	_ZN7Console4putcEc@plt
 412      E7800000 
 413              	.LVL46:
 414              	.L21:
 415              	.LBE41:
  79:test/../test/ConsumerProducer_CPP_API_test.hpp ****                 int key = td->buffer->get();
 416              		.loc 2 79 13 is_stmt 1
  79:test/../test/ConsumerProducer_CPP_API_test.hpp ****                 int key = td->buffer->get();
 417              		.loc 2 79 41
  79:test/../test/ConsumerProducer_CPP_API_test.hpp ****                 int key = td->buffer->get();
 418              		.loc 2 79 20 is_stmt 0
 419 0090 83370901 		ld	a5,16(s2)
  79:test/../test/ConsumerProducer_CPP_API_test.hpp ****                 int key = td->buffer->get();
 420              		.loc 2 79 38
 421 0094 03B58700 		ld	a0,8(a5)
 422 0098 97000000 		call	_ZN9BufferCPP6getCntEv@plt
 422      E7800000 
 423              	.LVL47:
  79:test/../test/ConsumerProducer_CPP_API_test.hpp ****                 int key = td->buffer->get();
 424              		.loc 2 79 41
 425 00a0 E34AA0FC 		bgtz	a0,.L26
  82:test/../test/ConsumerProducer_CPP_API_test.hpp ****             }
  83:test/../test/ConsumerProducer_CPP_API_test.hpp **** 
  84:test/../test/ConsumerProducer_CPP_API_test.hpp ****             td->sem->signal();
 426              		.loc 2 84 13 is_stmt 1
 427 00a4 83370901 		ld	a5,16(s2)
 428              		.loc 2 84 28 is_stmt 0
 429 00a8 03B50701 		ld	a0,16(a5)
 430 00ac 97000000 		call	_ZN9Semaphore6signalEv@plt
 430      E7800000 
 431              	.LVL48:
  85:test/../test/ConsumerProducer_CPP_API_test.hpp ****         }
 432              		.loc 2 85 9
 433 00b4 83308102 		ld	ra,40(sp)
 434              		.cfi_restore 1
 435 00b8 03340102 		ld	s0,32(sp)
 436              		.cfi_restore 8
 437              		.cfi_def_cfa 2, 48
GAS LISTING /tmp/cciyzRgz.s 			page 14


 438 00bc 83348101 		ld	s1,24(sp)
 439              		.cfi_restore 9
 440 00c0 03390101 		ld	s2,16(sp)
 441              		.cfi_restore 18
 442              	.LVL49:
 443 00c4 83398100 		ld	s3,8(sp)
 444              		.cfi_restore 19
 445              	.LVL50:
 446 00c8 13010103 		addi	sp,sp,48
 447              		.cfi_def_cfa_offset 0
 448 00cc 67800000 		jr	ra
 449              		.cfi_endproc
 450              	.LFE59:
 452              		.section	.text._ZN19ConsumerProducerCPP8ConsumerD2Ev,"axG",@progbits,_ZN19ConsumerProducerCPP8Cons
 453              		.align	2
 454              		.weak	_ZN19ConsumerProducerCPP8ConsumerD2Ev
 456              	_ZN19ConsumerProducerCPP8ConsumerD2Ev:
 457              	.LFB67:
  61:test/../test/ConsumerProducer_CPP_API_test.hpp ****         thread_data *td;
 458              		.loc 2 61 11 is_stmt 1
 459              		.cfi_startproc
 460              	.LVL51:
 461 0000 130101FF 		addi	sp,sp,-16
 462              		.cfi_def_cfa_offset 16
 463 0004 23341100 		sd	ra,8(sp)
 464 0008 23308100 		sd	s0,0(sp)
 465              		.cfi_offset 1, -8
 466              		.cfi_offset 8, -16
 467 000c 13040101 		addi	s0,sp,16
 468              		.cfi_def_cfa 8, 0
 469              	.LBB42:
  61:test/../test/ConsumerProducer_CPP_API_test.hpp ****         thread_data *td;
 470              		.loc 2 61 11 is_stmt 0
 471 0010 97070000 		lla	a5,_ZTVN19ConsumerProducerCPP8ConsumerE+16
 471      93870700 
 472 0018 2330F500 		sd	a5,0(a0)
 473 001c 97000000 		call	_ZN6ThreadD2Ev@plt
 473      E7800000 
 474              	.LVL52:
 475              	.LBE42:
 476 0024 83308100 		ld	ra,8(sp)
 477              		.cfi_restore 1
 478 0028 03340100 		ld	s0,0(sp)
 479              		.cfi_restore 8
 480              		.cfi_def_cfa 2, 16
 481 002c 13010101 		addi	sp,sp,16
 482              		.cfi_def_cfa_offset 0
 483 0030 67800000 		jr	ra
 484              		.cfi_endproc
 485              	.LFE67:
 487              		.weak	_ZN19ConsumerProducerCPP8ConsumerD1Ev
 488              		.set	_ZN19ConsumerProducerCPP8ConsumerD1Ev,_ZN19ConsumerProducerCPP8ConsumerD2Ev
 489              		.section	.text._ZN19ConsumerProducerCPP8ConsumerD0Ev,"axG",@progbits,_ZN19ConsumerProducerCPP8Cons
 490              		.align	2
 491              		.weak	_ZN19ConsumerProducerCPP8ConsumerD0Ev
 493              	_ZN19ConsumerProducerCPP8ConsumerD0Ev:
 494              	.LFB69:
GAS LISTING /tmp/cciyzRgz.s 			page 15


  61:test/../test/ConsumerProducer_CPP_API_test.hpp ****         thread_data *td;
 495              		.loc 2 61 11 is_stmt 1
 496              		.cfi_startproc
 497              	.LVL53:
 498 0000 130101FE 		addi	sp,sp,-32
 499              		.cfi_def_cfa_offset 32
 500 0004 233C1100 		sd	ra,24(sp)
 501 0008 23388100 		sd	s0,16(sp)
 502 000c 23349100 		sd	s1,8(sp)
 503              		.cfi_offset 1, -8
 504              		.cfi_offset 8, -16
 505              		.cfi_offset 9, -24
 506 0010 13040102 		addi	s0,sp,32
 507              		.cfi_def_cfa 8, 0
 508 0014 93040500 		mv	s1,a0
 509              	.LVL54:
 510              	.LBB43:
 511              	.LBB44:
  61:test/../test/ConsumerProducer_CPP_API_test.hpp ****         thread_data *td;
 512              		.loc 2 61 11 is_stmt 0
 513 0018 97070000 		lla	a5,_ZTVN19ConsumerProducerCPP8ConsumerE+16
 513      93870700 
 514 0020 2330F500 		sd	a5,0(a0)
 515 0024 97000000 		call	_ZN6ThreadD2Ev@plt
 515      E7800000 
 516              	.LVL55:
 517              	.LBE44:
 518              	.LBE43:
 519 002c 13850400 		mv	a0,s1
 520 0030 97000000 		call	_ZdlPv@plt
 520      E7800000 
 521              	.LVL56:
 522 0038 83308101 		ld	ra,24(sp)
 523              		.cfi_restore 1
 524 003c 03340101 		ld	s0,16(sp)
 525              		.cfi_restore 8
 526              		.cfi_def_cfa 2, 32
 527 0040 83348100 		ld	s1,8(sp)
 528              		.cfi_restore 9
 529              	.LVL57:
 530 0044 13010102 		addi	sp,sp,32
 531              		.cfi_def_cfa_offset 0
 532 0048 67800000 		jr	ra
 533              		.cfi_endproc
 534              	.LFE69:
 536              		.section	.text._ZN19ConsumerProducerCPP16ProducerKeyboradD2Ev,"axG",@progbits,_ZN19ConsumerProduce
 537              		.align	2
 538              		.weak	_ZN19ConsumerProducerCPP16ProducerKeyboradD2Ev
 540              	_ZN19ConsumerProducerCPP16ProducerKeyboradD2Ev:
 541              	.LFB75:
  25:test/../test/ConsumerProducer_CPP_API_test.hpp ****         thread_data *td;
 542              		.loc 2 25 11 is_stmt 1
 543              		.cfi_startproc
 544              	.LVL58:
 545 0000 130101FF 		addi	sp,sp,-16
 546              		.cfi_def_cfa_offset 16
 547 0004 23341100 		sd	ra,8(sp)
GAS LISTING /tmp/cciyzRgz.s 			page 16


 548 0008 23308100 		sd	s0,0(sp)
 549              		.cfi_offset 1, -8
 550              		.cfi_offset 8, -16
 551 000c 13040101 		addi	s0,sp,16
 552              		.cfi_def_cfa 8, 0
 553              	.LBB45:
  25:test/../test/ConsumerProducer_CPP_API_test.hpp ****         thread_data *td;
 554              		.loc 2 25 11 is_stmt 0
 555 0010 97070000 		lla	a5,_ZTVN19ConsumerProducerCPP16ProducerKeyboradE+16
 555      93870700 
 556 0018 2330F500 		sd	a5,0(a0)
 557 001c 97000000 		call	_ZN6ThreadD2Ev@plt
 557      E7800000 
 558              	.LVL59:
 559              	.LBE45:
 560 0024 83308100 		ld	ra,8(sp)
 561              		.cfi_restore 1
 562 0028 03340100 		ld	s0,0(sp)
 563              		.cfi_restore 8
 564              		.cfi_def_cfa 2, 16
 565 002c 13010101 		addi	sp,sp,16
 566              		.cfi_def_cfa_offset 0
 567 0030 67800000 		jr	ra
 568              		.cfi_endproc
 569              	.LFE75:
 571              		.weak	_ZN19ConsumerProducerCPP16ProducerKeyboradD1Ev
 572              		.set	_ZN19ConsumerProducerCPP16ProducerKeyboradD1Ev,_ZN19ConsumerProducerCPP16ProducerKeyboradD2Ev
 573              		.section	.text._ZN19ConsumerProducerCPP16ProducerKeyboradD0Ev,"axG",@progbits,_ZN19ConsumerProduce
 574              		.align	2
 575              		.weak	_ZN19ConsumerProducerCPP16ProducerKeyboradD0Ev
 577              	_ZN19ConsumerProducerCPP16ProducerKeyboradD0Ev:
 578              	.LFB77:
  25:test/../test/ConsumerProducer_CPP_API_test.hpp ****         thread_data *td;
 579              		.loc 2 25 11 is_stmt 1
 580              		.cfi_startproc
 581              	.LVL60:
 582 0000 130101FE 		addi	sp,sp,-32
 583              		.cfi_def_cfa_offset 32
 584 0004 233C1100 		sd	ra,24(sp)
 585 0008 23388100 		sd	s0,16(sp)
 586 000c 23349100 		sd	s1,8(sp)
 587              		.cfi_offset 1, -8
 588              		.cfi_offset 8, -16
 589              		.cfi_offset 9, -24
 590 0010 13040102 		addi	s0,sp,32
 591              		.cfi_def_cfa 8, 0
 592 0014 93040500 		mv	s1,a0
 593              	.LVL61:
 594              	.LBB46:
 595              	.LBB47:
  25:test/../test/ConsumerProducer_CPP_API_test.hpp ****         thread_data *td;
 596              		.loc 2 25 11 is_stmt 0
 597 0018 97070000 		lla	a5,_ZTVN19ConsumerProducerCPP16ProducerKeyboradE+16
 597      93870700 
 598 0020 2330F500 		sd	a5,0(a0)
 599 0024 97000000 		call	_ZN6ThreadD2Ev@plt
 599      E7800000 
GAS LISTING /tmp/cciyzRgz.s 			page 17


 600              	.LVL62:
 601              	.LBE47:
 602              	.LBE46:
 603 002c 13850400 		mv	a0,s1
 604 0030 97000000 		call	_ZdlPv@plt
 604      E7800000 
 605              	.LVL63:
 606 0038 83308101 		ld	ra,24(sp)
 607              		.cfi_restore 1
 608 003c 03340101 		ld	s0,16(sp)
 609              		.cfi_restore 8
 610              		.cfi_def_cfa 2, 32
 611 0040 83348100 		ld	s1,8(sp)
 612              		.cfi_restore 9
 613              	.LVL64:
 614 0044 13010102 		addi	sp,sp,32
 615              		.cfi_def_cfa_offset 0
 616 0048 67800000 		jr	ra
 617              		.cfi_endproc
 618              	.LFE77:
 620              		.section	.text._ZN19ConsumerProducerCPP8ProducerD2Ev,"axG",@progbits,_ZN19ConsumerProducerCPP8Prod
 621              		.align	2
 622              		.weak	_ZN19ConsumerProducerCPP8ProducerD2Ev
 624              	_ZN19ConsumerProducerCPP8ProducerD2Ev:
 625              	.LFB71:
  44:test/../test/ConsumerProducer_CPP_API_test.hpp ****         thread_data *td;
 626              		.loc 2 44 11 is_stmt 1
 627              		.cfi_startproc
 628              	.LVL65:
 629 0000 130101FF 		addi	sp,sp,-16
 630              		.cfi_def_cfa_offset 16
 631 0004 23341100 		sd	ra,8(sp)
 632 0008 23308100 		sd	s0,0(sp)
 633              		.cfi_offset 1, -8
 634              		.cfi_offset 8, -16
 635 000c 13040101 		addi	s0,sp,16
 636              		.cfi_def_cfa 8, 0
 637              	.LBB48:
  44:test/../test/ConsumerProducer_CPP_API_test.hpp ****         thread_data *td;
 638              		.loc 2 44 11 is_stmt 0
 639 0010 97070000 		lla	a5,_ZTVN19ConsumerProducerCPP8ProducerE+16
 639      93870700 
 640 0018 2330F500 		sd	a5,0(a0)
 641 001c 97000000 		call	_ZN6ThreadD2Ev@plt
 641      E7800000 
 642              	.LVL66:
 643              	.LBE48:
 644 0024 83308100 		ld	ra,8(sp)
 645              		.cfi_restore 1
 646 0028 03340100 		ld	s0,0(sp)
 647              		.cfi_restore 8
 648              		.cfi_def_cfa 2, 16
 649 002c 13010101 		addi	sp,sp,16
 650              		.cfi_def_cfa_offset 0
 651 0030 67800000 		jr	ra
 652              		.cfi_endproc
 653              	.LFE71:
GAS LISTING /tmp/cciyzRgz.s 			page 18


 655              		.weak	_ZN19ConsumerProducerCPP8ProducerD1Ev
 656              		.set	_ZN19ConsumerProducerCPP8ProducerD1Ev,_ZN19ConsumerProducerCPP8ProducerD2Ev
 657              		.section	.text._ZN19ConsumerProducerCPP8ProducerD0Ev,"axG",@progbits,_ZN19ConsumerProducerCPP8Prod
 658              		.align	2
 659              		.weak	_ZN19ConsumerProducerCPP8ProducerD0Ev
 661              	_ZN19ConsumerProducerCPP8ProducerD0Ev:
 662              	.LFB73:
  44:test/../test/ConsumerProducer_CPP_API_test.hpp ****         thread_data *td;
 663              		.loc 2 44 11 is_stmt 1
 664              		.cfi_startproc
 665              	.LVL67:
 666 0000 130101FE 		addi	sp,sp,-32
 667              		.cfi_def_cfa_offset 32
 668 0004 233C1100 		sd	ra,24(sp)
 669 0008 23388100 		sd	s0,16(sp)
 670 000c 23349100 		sd	s1,8(sp)
 671              		.cfi_offset 1, -8
 672              		.cfi_offset 8, -16
 673              		.cfi_offset 9, -24
 674 0010 13040102 		addi	s0,sp,32
 675              		.cfi_def_cfa 8, 0
 676 0014 93040500 		mv	s1,a0
 677              	.LVL68:
 678              	.LBB49:
 679              	.LBB50:
  44:test/../test/ConsumerProducer_CPP_API_test.hpp ****         thread_data *td;
 680              		.loc 2 44 11 is_stmt 0
 681 0018 97070000 		lla	a5,_ZTVN19ConsumerProducerCPP8ProducerE+16
 681      93870700 
 682 0020 2330F500 		sd	a5,0(a0)
 683 0024 97000000 		call	_ZN6ThreadD2Ev@plt
 683      E7800000 
 684              	.LVL69:
 685              	.LBE50:
 686              	.LBE49:
 687 002c 13850400 		mv	a0,s1
 688 0030 97000000 		call	_ZdlPv@plt
 688      E7800000 
 689              	.LVL70:
 690 0038 83308101 		ld	ra,24(sp)
 691              		.cfi_restore 1
 692 003c 03340101 		ld	s0,16(sp)
 693              		.cfi_restore 8
 694              		.cfi_def_cfa 2, 32
 695 0040 83348100 		ld	s1,8(sp)
 696              		.cfi_restore 9
 697              	.LVL71:
 698 0044 13010102 		addi	sp,sp,32
 699              		.cfi_def_cfa_offset 0
 700 0048 67800000 		jr	ra
 701              		.cfi_endproc
 702              	.LFE73:
 704              		.section	.text._ZN19ConsumerProducerCPP16ProducerKeyborad3runEv,"axG",@progbits,_ZN19ConsumerProdu
 705              		.align	2
 706              		.weak	_ZN19ConsumerProducerCPP16ProducerKeyborad3runEv
 708              	_ZN19ConsumerProducerCPP16ProducerKeyborad3runEv:
 709              	.LFB51:
GAS LISTING /tmp/cciyzRgz.s 			page 19


  30:test/../test/ConsumerProducer_CPP_API_test.hpp ****             int key;
 710              		.loc 2 30 14 is_stmt 1
 711              		.cfi_startproc
 712              	.LVL72:
 713 0000 130101FE 		addi	sp,sp,-32
 714              		.cfi_def_cfa_offset 32
 715 0004 233C1100 		sd	ra,24(sp)
 716 0008 23388100 		sd	s0,16(sp)
 717 000c 23349100 		sd	s1,8(sp)
 718              		.cfi_offset 1, -8
 719              		.cfi_offset 8, -16
 720              		.cfi_offset 9, -24
 721 0010 13040102 		addi	s0,sp,32
 722              		.cfi_def_cfa 8, 0
 723 0014 93040500 		mv	s1,a0
  31:test/../test/ConsumerProducer_CPP_API_test.hpp ****             int i = 0;
 724              		.loc 2 31 13
  32:test/../test/ConsumerProducer_CPP_API_test.hpp ****             while ((key = getc()) != 0x1b) {
 725              		.loc 2 32 13
 726              	.LVL73:
 727              	.L41:
  33:test/../test/ConsumerProducer_CPP_API_test.hpp ****                 td->buffer->put(key);
 728              		.loc 2 33 13
  33:test/../test/ConsumerProducer_CPP_API_test.hpp ****                 td->buffer->put(key);
 729              		.loc 2 33 35
  33:test/../test/ConsumerProducer_CPP_API_test.hpp ****                 td->buffer->put(key);
 730              		.loc 2 33 31 is_stmt 0
 731 0018 97000000 		call	getc@plt
 731      E7800000 
 732              	.LVL74:
  33:test/../test/ConsumerProducer_CPP_API_test.hpp ****                 td->buffer->put(key);
 733              		.loc 2 33 25
 734 0020 9B050500 		sext.w	a1,a0
 735              	.LVL75:
  33:test/../test/ConsumerProducer_CPP_API_test.hpp ****                 td->buffer->put(key);
 736              		.loc 2 33 35
 737 0024 9307B001 		li	a5,27
 738 0028 638CF500 		beq	a1,a5,.L40
  34:test/../test/ConsumerProducer_CPP_API_test.hpp ****                 i++;
 739              		.loc 2 34 17 is_stmt 1
 740 002c 83B70401 		ld	a5,16(s1)
  34:test/../test/ConsumerProducer_CPP_API_test.hpp ****                 i++;
 741              		.loc 2 34 32 is_stmt 0
 742 0030 03B58700 		ld	a0,8(a5)
 743 0034 97000000 		call	_ZN9BufferCPP3putEi@plt
 743      E7800000 
 744              	.LVL76:
  35:test/../test/ConsumerProducer_CPP_API_test.hpp ****             }
 745              		.loc 2 35 17 is_stmt 1
  33:test/../test/ConsumerProducer_CPP_API_test.hpp ****                 td->buffer->put(key);
 746              		.loc 2 33 13 is_stmt 0
 747 003c 6FF0DFFD 		j	.L41
 748              	.LVL77:
 749              	.L40:
  37:test/../test/ConsumerProducer_CPP_API_test.hpp ****             td->buffer->put('!');
 750              		.loc 2 37 13 is_stmt 1
  37:test/../test/ConsumerProducer_CPP_API_test.hpp ****             td->buffer->put('!');
GAS LISTING /tmp/cciyzRgz.s 			page 20


 751              		.loc 2 37 23 is_stmt 0
 752 0040 93071000 		li	a5,1
 753 0044 17070000 		sw	a5,.LANCHOR0+4,a4
 753      2320F700 
  38:test/../test/ConsumerProducer_CPP_API_test.hpp **** 
 754              		.loc 2 38 13 is_stmt 1
 755 004c 83B70401 		ld	a5,16(s1)
  38:test/../test/ConsumerProducer_CPP_API_test.hpp **** 
 756              		.loc 2 38 28 is_stmt 0
 757 0050 93051002 		li	a1,33
 758              	.LVL78:
 759 0054 03B58700 		ld	a0,8(a5)
 760              	.LVL79:
 761 0058 97000000 		call	_ZN9BufferCPP3putEi@plt
 761      E7800000 
 762              	.LVL80:
  40:test/../test/ConsumerProducer_CPP_API_test.hpp ****         }
 763              		.loc 2 40 13 is_stmt 1
 764 0060 83B70401 		ld	a5,16(s1)
  40:test/../test/ConsumerProducer_CPP_API_test.hpp ****         }
 765              		.loc 2 40 28 is_stmt 0
 766 0064 03B50701 		ld	a0,16(a5)
 767 0068 97000000 		call	_ZN9Semaphore6signalEv@plt
 767      E7800000 
 768              	.LVL81:
  41:test/../test/ConsumerProducer_CPP_API_test.hpp ****     };
 769              		.loc 2 41 9
 770 0070 83308101 		ld	ra,24(sp)
 771              		.cfi_restore 1
 772 0074 03340101 		ld	s0,16(sp)
 773              		.cfi_restore 8
 774              		.cfi_def_cfa 2, 32
 775 0078 83348100 		ld	s1,8(sp)
 776              		.cfi_restore 9
 777              	.LVL82:
 778 007c 13010102 		addi	sp,sp,32
 779              		.cfi_def_cfa_offset 0
 780 0080 67800000 		jr	ra
 781              		.cfi_endproc
 782              	.LFE51:
 784              		.section	.text._ZN19ConsumerProducerCPP8Producer3runEv,"axG",@progbits,_ZN19ConsumerProducerCPP8Pr
 785              		.align	2
 786              		.weak	_ZN19ConsumerProducerCPP8Producer3runEv
 788              	_ZN19ConsumerProducerCPP8Producer3runEv:
 789              	.LFB55:
  49:test/../test/ConsumerProducer_CPP_API_test.hpp ****             int i = 0;
 790              		.loc 2 49 14 is_stmt 1
 791              		.cfi_startproc
 792              	.LVL83:
 793 0000 130101FE 		addi	sp,sp,-32
 794              		.cfi_def_cfa_offset 32
 795 0004 233C1100 		sd	ra,24(sp)
 796 0008 23388100 		sd	s0,16(sp)
 797 000c 23349100 		sd	s1,8(sp)
 798 0010 23302101 		sd	s2,0(sp)
 799              		.cfi_offset 1, -8
 800              		.cfi_offset 8, -16
GAS LISTING /tmp/cciyzRgz.s 			page 21


 801              		.cfi_offset 9, -24
 802              		.cfi_offset 18, -32
 803 0014 13040102 		addi	s0,sp,32
 804              		.cfi_def_cfa 8, 0
 805 0018 93040500 		mv	s1,a0
  50:test/../test/ConsumerProducer_CPP_API_test.hpp ****             while (!threadEnd) {
 806              		.loc 2 50 13
 807              	.LVL84:
  50:test/../test/ConsumerProducer_CPP_API_test.hpp ****             while (!threadEnd) {
 808              		.loc 2 50 17 is_stmt 0
 809 001c 13090000 		li	s2,0
 810              	.LVL85:
 811              	.L45:
  51:test/../test/ConsumerProducer_CPP_API_test.hpp ****                 td->buffer->put(td->id + '0');
 812              		.loc 2 51 13 is_stmt 1
  51:test/../test/ConsumerProducer_CPP_API_test.hpp ****                 td->buffer->put(td->id + '0');
 813              		.loc 2 51 20
 814 0020 97070000 		lw	a5,.LANCHOR0+4
 814      83A70700 
 815 0028 63920704 		bnez	a5,.L44
  52:test/../test/ConsumerProducer_CPP_API_test.hpp ****                 i++;
 816              		.loc 2 52 17
 817 002c 83B70401 		ld	a5,16(s1)
  52:test/../test/ConsumerProducer_CPP_API_test.hpp ****                 i++;
 818              		.loc 2 52 37 is_stmt 0
 819 0030 83A50700 		lw	a1,0(a5)
  52:test/../test/ConsumerProducer_CPP_API_test.hpp ****                 i++;
 820              		.loc 2 52 32
 821 0034 9B850503 		addiw	a1,a1,48
 822 0038 03B58700 		ld	a0,8(a5)
 823 003c 97000000 		call	_ZN9BufferCPP3putEi@plt
 823      E7800000 
 824              	.LVL86:
  53:test/../test/ConsumerProducer_CPP_API_test.hpp ****                 Thread::sleep((i+td->id)%5);
 825              		.loc 2 53 17 is_stmt 1
  53:test/../test/ConsumerProducer_CPP_API_test.hpp ****                 Thread::sleep((i+td->id)%5);
 826              		.loc 2 53 18 is_stmt 0
 827 0044 1B071900 		addiw	a4,s2,1
 828 0048 1B090700 		sext.w	s2,a4
 829              	.LVL87:
  54:test/../test/ConsumerProducer_CPP_API_test.hpp ****             }
 830              		.loc 2 54 17 is_stmt 1
  54:test/../test/ConsumerProducer_CPP_API_test.hpp ****             }
 831              		.loc 2 54 34 is_stmt 0
 832 004c 83B70401 		ld	a5,16(s1)
  54:test/../test/ConsumerProducer_CPP_API_test.hpp ****             }
 833              		.loc 2 54 38
 834 0050 83A70700 		lw	a5,0(a5)
  54:test/../test/ConsumerProducer_CPP_API_test.hpp ****             }
 835              		.loc 2 54 33
 836 0054 BB87E700 		addw	a5,a5,a4
  54:test/../test/ConsumerProducer_CPP_API_test.hpp ****             }
 837              		.loc 2 54 30
 838 0058 13055000 		li	a0,5
 839 005c 3BE5A702 		remw	a0,a5,a0
 840 0060 97000000 		call	_ZN6Thread5sleepEm@plt
 840      E7800000 
GAS LISTING /tmp/cciyzRgz.s 			page 22


 841              	.LVL88:
  51:test/../test/ConsumerProducer_CPP_API_test.hpp ****                 td->buffer->put(td->id + '0');
 842              		.loc 2 51 13
 843 0068 6FF09FFB 		j	.L45
 844              	.L44:
  57:test/../test/ConsumerProducer_CPP_API_test.hpp ****         }
 845              		.loc 2 57 13 is_stmt 1
 846 006c 83B70401 		ld	a5,16(s1)
  57:test/../test/ConsumerProducer_CPP_API_test.hpp ****         }
 847              		.loc 2 57 28 is_stmt 0
 848 0070 03B50701 		ld	a0,16(a5)
 849 0074 97000000 		call	_ZN9Semaphore6signalEv@plt
 849      E7800000 
 850              	.LVL89:
  58:test/../test/ConsumerProducer_CPP_API_test.hpp ****     };
 851              		.loc 2 58 9
 852 007c 83308101 		ld	ra,24(sp)
 853              		.cfi_restore 1
 854 0080 03340101 		ld	s0,16(sp)
 855              		.cfi_restore 8
 856              		.cfi_def_cfa 2, 32
 857 0084 83348100 		ld	s1,8(sp)
 858              		.cfi_restore 9
 859              	.LVL90:
 860 0088 03390100 		ld	s2,0(sp)
 861              		.cfi_restore 18
 862              	.LVL91:
 863 008c 13010102 		addi	sp,sp,32
 864              		.cfi_def_cfa_offset 0
 865 0090 67800000 		jr	ra
 866              		.cfi_endproc
 867              	.LFE55:
 869              		.text
 870              		.align	2
 871              		.globl	_Z9fibonaccim
 873              	_Z9fibonaccim:
 874              	.LFB38:
  14:test/../test/Threads_C_API_test.hpp ****     if (n == 0 || n == 1) { return n; }
 875              		.loc 1 14 28 is_stmt 1
 876              		.cfi_startproc
 877              	.LVL92:
 878 01e4 130101FE 		addi	sp,sp,-32
 879              		.cfi_def_cfa_offset 32
 880 01e8 233C1100 		sd	ra,24(sp)
 881 01ec 23388100 		sd	s0,16(sp)
 882 01f0 23349100 		sd	s1,8(sp)
 883 01f4 23302101 		sd	s2,0(sp)
 884              		.cfi_offset 1, -8
 885              		.cfi_offset 8, -16
 886              		.cfi_offset 9, -24
 887              		.cfi_offset 18, -32
 888 01f8 13040102 		addi	s0,sp,32
 889              		.cfi_def_cfa 8, 0
 890 01fc 93040500 		mv	s1,a0
  15:test/../test/Threads_C_API_test.hpp ****     if (n % 10 == 0) { thread_dispatch(); }
 891              		.loc 1 15 5
 892 0200 93071000 		li	a5,1
GAS LISTING /tmp/cciyzRgz.s 			page 23


 893 0204 63F8A702 		bleu	a0,a5,.L47
  16:test/../test/Threads_C_API_test.hpp ****     return fibonacci(n - 1) + fibonacci(n - 2);
 894              		.loc 1 16 5
  16:test/../test/Threads_C_API_test.hpp ****     return fibonacci(n - 1) + fibonacci(n - 2);
 895              		.loc 1 16 11 is_stmt 0
 896 0208 9307A000 		li	a5,10
 897 020c B377F502 		remu	a5,a0,a5
  16:test/../test/Threads_C_API_test.hpp ****     return fibonacci(n - 1) + fibonacci(n - 2);
 898              		.loc 1 16 5
 899 0210 638E0702 		beqz	a5,.L52
 900              	.LVL93:
 901              	.L49:
  17:test/../test/Threads_C_API_test.hpp **** }
 902              		.loc 1 17 5 is_stmt 1
  17:test/../test/Threads_C_API_test.hpp **** }
 903              		.loc 1 17 21 is_stmt 0
 904 0214 1385F4FF 		addi	a0,s1,-1
 905 0218 97000000 		call	_Z9fibonaccim
 905      E7800000 
 906              	.LVL94:
 907 0220 13090500 		mv	s2,a0
  17:test/../test/Threads_C_API_test.hpp **** }
 908              		.loc 1 17 40
 909 0224 1385E4FF 		addi	a0,s1,-2
 910 0228 97000000 		call	_Z9fibonaccim
 910      E7800000 
 911              	.LVL95:
  17:test/../test/Threads_C_API_test.hpp **** }
 912              		.loc 1 17 46
 913 0230 3305A900 		add	a0,s2,a0
 914              	.L47:
  18:test/../test/Threads_C_API_test.hpp **** 
 915              		.loc 1 18 1
 916 0234 83308101 		ld	ra,24(sp)
 917              		.cfi_remember_state
 918              		.cfi_restore 1
 919 0238 03340101 		ld	s0,16(sp)
 920              		.cfi_restore 8
 921              		.cfi_def_cfa 2, 32
 922 023c 83348100 		ld	s1,8(sp)
 923              		.cfi_restore 9
 924              	.LVL96:
 925 0240 03390100 		ld	s2,0(sp)
 926              		.cfi_restore 18
 927 0244 13010102 		addi	sp,sp,32
 928              		.cfi_def_cfa_offset 0
 929 0248 67800000 		jr	ra
 930              	.LVL97:
 931              	.L52:
 932              		.cfi_restore_state
  16:test/../test/Threads_C_API_test.hpp ****     return fibonacci(n - 1) + fibonacci(n - 2);
 933              		.loc 1 16 24 is_stmt 1 discriminator 1
  16:test/../test/Threads_C_API_test.hpp ****     return fibonacci(n - 1) + fibonacci(n - 2);
 934              		.loc 1 16 39 is_stmt 0 discriminator 1
 935 024c 97000000 		call	thread_dispatch@plt
 935      E7800000 
 936              	.LVL98:
GAS LISTING /tmp/cciyzRgz.s 			page 24


 937 0254 6FF01FFC 		j	.L49
 938              		.cfi_endproc
 939              	.LFE38:
 941              		.section	.rodata.str1.8
 942 0045 000000   		.align	3
 943              	.LC6:
 944 0048 433A2069 		.string	"C: i="
 944      3D00
 945 004e 0000     		.align	3
 946              	.LC7:
 947 0050 433A2064 		.string	"C: dispatch\n"
 947      69737061 
 947      7463680A 
 947      00
 948 005d 000000   		.align	3
 949              	.LC8:
 950 0060 433A2074 		.string	"C: t1="
 950      313D00
 951 0067 00       		.align	3
 952              	.LC9:
 953 0068 433A2066 		.string	"C: fibonaci="
 953      69626F6E 
 953      6163693D 
 953      00
 954              		.text
 955              		.align	2
 956              		.globl	_Z11workerBodyCPv
 958              	_Z11workerBodyCPv:
 959              	.LFB41:
  45:test/../test/Threads_C_API_test.hpp ****     uint8 i = 0;
 960              		.loc 1 45 29 is_stmt 1
 961              		.cfi_startproc
 962              	.LVL99:
 963 0258 130101FE 		addi	sp,sp,-32
 964              		.cfi_def_cfa_offset 32
 965 025c 233C1100 		sd	ra,24(sp)
 966 0260 23388100 		sd	s0,16(sp)
 967 0264 23349100 		sd	s1,8(sp)
 968 0268 23302101 		sd	s2,0(sp)
 969              		.cfi_offset 1, -8
 970              		.cfi_offset 8, -16
 971              		.cfi_offset 9, -24
 972              		.cfi_offset 18, -32
 973 026c 13040102 		addi	s0,sp,32
 974              		.cfi_def_cfa 8, 0
  46:test/../test/Threads_C_API_test.hpp ****     for (; i < 3; i++) {
 975              		.loc 1 46 5
 976              	.LVL100:
  46:test/../test/Threads_C_API_test.hpp ****     for (; i < 3; i++) {
 977              		.loc 1 46 11 is_stmt 0
 978 0270 93040000 		li	s1,0
 979 0274 6F000004 		j	.L55
 980              	.LVL101:
 981              	.L59:
  48:test/../test/Threads_C_API_test.hpp ****     }
 982              		.loc 1 48 9 is_stmt 1 discriminator 1
  48:test/../test/Threads_C_API_test.hpp ****     }
GAS LISTING /tmp/cciyzRgz.s 			page 25


 983              		.loc 1 48 20 is_stmt 0 discriminator 1
 984 0278 17050000 		lla	a0,.LC6
 984      13050500 
 985 0280 97000000 		call	_Z11printStringPKc@plt
 985      E7800000 
 986              	.LVL102:
  48:test/../test/Threads_C_API_test.hpp ****     }
 987              		.loc 1 48 31 is_stmt 1 discriminator 1
  48:test/../test/Threads_C_API_test.hpp ****     }
 988              		.loc 1 48 39 is_stmt 0 discriminator 1
 989 0288 13060000 		li	a2,0
 990 028c 9305A000 		li	a1,10
 991 0290 13850400 		mv	a0,s1
 992 0294 97000000 		call	_Z8printIntiii@plt
 992      E7800000 
 993              	.LVL103:
  48:test/../test/Threads_C_API_test.hpp ****     }
 994              		.loc 1 48 44 is_stmt 1 discriminator 1
  48:test/../test/Threads_C_API_test.hpp ****     }
 995              		.loc 1 48 55 is_stmt 0 discriminator 1
 996 029c 17050000 		lla	a0,.LC2
 996      13050500 
 997 02a4 97000000 		call	_Z11printStringPKc@plt
 997      E7800000 
 998              	.LVL104:
  47:test/../test/Threads_C_API_test.hpp ****         printString("C: i="); printInt(i); printString("\n");
 999              		.loc 1 47 5 is_stmt 1 discriminator 1
 1000 02ac 9B841400 		addiw	s1,s1,1
 1001              	.LVL105:
 1002 02b0 93F4F40F 		andi	s1,s1,0xff
 1003              	.LVL106:
 1004              	.L55:
  47:test/../test/Threads_C_API_test.hpp ****         printString("C: i="); printInt(i); printString("\n");
 1005              		.loc 1 47 5 discriminator 2
  47:test/../test/Threads_C_API_test.hpp ****         printString("C: i="); printInt(i); printString("\n");
 1006              		.loc 1 47 14 discriminator 2
 1007 02b4 93072000 		li	a5,2
 1008 02b8 E3F097FC 		bleu	s1,a5,.L59
  51:test/../test/Threads_C_API_test.hpp ****     __asm__ ("li t1, 7");
 1009              		.loc 1 51 5
  51:test/../test/Threads_C_API_test.hpp ****     __asm__ ("li t1, 7");
 1010              		.loc 1 51 16 is_stmt 0
 1011 02bc 17050000 		lla	a0,.LC7
 1011      13050500 
 1012 02c4 97000000 		call	_Z11printStringPKc@plt
 1012      E7800000 
 1013              	.LVL107:
  52:test/../test/Threads_C_API_test.hpp ****     thread_dispatch();
 1014              		.loc 1 52 5 is_stmt 1
  52:test/../test/Threads_C_API_test.hpp ****     thread_dispatch();
 1015              		.loc 1 52 25 is_stmt 0
 1016              	#APP
 1017              	# 52 "test/../test/Threads_C_API_test.hpp" 1
  53:test/../test/Threads_C_API_test.hpp **** 
 1018              		li t1, 7
 1019              	# 0 "" 2
 1020              		.loc 1 53 5 is_stmt 1
GAS LISTING /tmp/cciyzRgz.s 			page 26


  53:test/../test/Threads_C_API_test.hpp **** 
 1021              		.loc 1 53 20 is_stmt 0
 1022              	#NO_APP
 1023 02d0 97000000 		call	thread_dispatch@plt
 1023      E7800000 
 1024              	.LVL108:
  55:test/../test/Threads_C_API_test.hpp ****     __asm__ ("mv %[t1], t1" : [t1] "=r"(t1));
 1025              		.loc 1 55 5 is_stmt 1
  56:test/../test/Threads_C_API_test.hpp **** 
 1026              		.loc 1 56 5
  56:test/../test/Threads_C_API_test.hpp **** 
 1027              		.loc 1 56 45 is_stmt 0
 1028              	#APP
 1029              	# 56 "test/../test/Threads_C_API_test.hpp" 1
 1030              		mv s2, t1
 1031              	# 0 "" 2
 1032              	.LVL109:
  58:test/../test/Threads_C_API_test.hpp **** 
 1033              		.loc 1 58 5 is_stmt 1
  58:test/../test/Threads_C_API_test.hpp **** 
 1034              		.loc 1 58 16 is_stmt 0
 1035              	#NO_APP
 1036 02dc 17050000 		lla	a0,.LC8
 1036      13050500 
 1037 02e4 97000000 		call	_Z11printStringPKc@plt
 1037      E7800000 
 1038              	.LVL110:
  58:test/../test/Threads_C_API_test.hpp **** 
 1039              		.loc 1 58 28 is_stmt 1
  58:test/../test/Threads_C_API_test.hpp **** 
 1040              		.loc 1 58 36 is_stmt 0
 1041 02ec 13060000 		li	a2,0
 1042 02f0 9305A000 		li	a1,10
 1043 02f4 1B050900 		sext.w	a0,s2
 1044 02f8 97000000 		call	_Z8printIntiii@plt
 1044      E7800000 
 1045              	.LVL111:
  58:test/../test/Threads_C_API_test.hpp **** 
 1046              		.loc 1 58 42 is_stmt 1
  58:test/../test/Threads_C_API_test.hpp **** 
 1047              		.loc 1 58 53 is_stmt 0
 1048 0300 17050000 		lla	a0,.LC2
 1048      13050500 
 1049 0308 97000000 		call	_Z11printStringPKc@plt
 1049      E7800000 
 1050              	.LVL112:
  60:test/../test/Threads_C_API_test.hpp ****     printString("C: fibonaci="); printInt(result); printString("\n");
 1051              		.loc 1 60 5 is_stmt 1
  60:test/../test/Threads_C_API_test.hpp ****     printString("C: fibonaci="); printInt(result); printString("\n");
 1052              		.loc 1 60 30 is_stmt 0
 1053 0310 1305C000 		li	a0,12
 1054 0314 97000000 		call	_Z9fibonaccim
 1054      E7800000 
 1055              	.LVL113:
 1056 031c 13090500 		mv	s2,a0
 1057              	.LVL114:
  61:test/../test/Threads_C_API_test.hpp **** 
GAS LISTING /tmp/cciyzRgz.s 			page 27


 1058              		.loc 1 61 5 is_stmt 1
  61:test/../test/Threads_C_API_test.hpp **** 
 1059              		.loc 1 61 16 is_stmt 0
 1060 0320 17050000 		lla	a0,.LC9
 1060      13050500 
 1061              	.LVL115:
 1062 0328 97000000 		call	_Z11printStringPKc@plt
 1062      E7800000 
 1063              	.LVL116:
  61:test/../test/Threads_C_API_test.hpp **** 
 1064              		.loc 1 61 34 is_stmt 1
  61:test/../test/Threads_C_API_test.hpp **** 
 1065              		.loc 1 61 42 is_stmt 0
 1066 0330 13060000 		li	a2,0
 1067 0334 9305A000 		li	a1,10
 1068 0338 1B050900 		sext.w	a0,s2
 1069 033c 97000000 		call	_Z8printIntiii@plt
 1069      E7800000 
 1070              	.LVL117:
  61:test/../test/Threads_C_API_test.hpp **** 
 1071              		.loc 1 61 52 is_stmt 1
  61:test/../test/Threads_C_API_test.hpp **** 
 1072              		.loc 1 61 63 is_stmt 0
 1073 0344 17050000 		lla	a0,.LC2
 1073      13050500 
 1074 034c 97000000 		call	_Z11printStringPKc@plt
 1074      E7800000 
 1075              	.LVL118:
 1076 0354 6F000004 		j	.L57
 1077              	.L60:
  64:test/../test/Threads_C_API_test.hpp ****     }
 1078              		.loc 1 64 9 is_stmt 1 discriminator 1
  64:test/../test/Threads_C_API_test.hpp ****     }
 1079              		.loc 1 64 20 is_stmt 0 discriminator 1
 1080 0358 17050000 		lla	a0,.LC6
 1080      13050500 
 1081 0360 97000000 		call	_Z11printStringPKc@plt
 1081      E7800000 
 1082              	.LVL119:
  64:test/../test/Threads_C_API_test.hpp ****     }
 1083              		.loc 1 64 31 is_stmt 1 discriminator 1
  64:test/../test/Threads_C_API_test.hpp ****     }
 1084              		.loc 1 64 39 is_stmt 0 discriminator 1
 1085 0368 13060000 		li	a2,0
 1086 036c 9305A000 		li	a1,10
 1087 0370 13850400 		mv	a0,s1
 1088 0374 97000000 		call	_Z8printIntiii@plt
 1088      E7800000 
 1089              	.LVL120:
  64:test/../test/Threads_C_API_test.hpp ****     }
 1090              		.loc 1 64 44 is_stmt 1 discriminator 1
  64:test/../test/Threads_C_API_test.hpp ****     }
 1091              		.loc 1 64 55 is_stmt 0 discriminator 1
 1092 037c 17050000 		lla	a0,.LC2
 1092      13050500 
 1093 0384 97000000 		call	_Z11printStringPKc@plt
 1093      E7800000 
GAS LISTING /tmp/cciyzRgz.s 			page 28


 1094              	.LVL121:
  63:test/../test/Threads_C_API_test.hpp ****         printString("C: i="); printInt(i); printString("\n");
 1095              		.loc 1 63 5 is_stmt 1 discriminator 1
 1096 038c 9B841400 		addiw	s1,s1,1
 1097              	.LVL122:
 1098 0390 93F4F40F 		andi	s1,s1,0xff
 1099              	.LVL123:
 1100              	.L57:
  63:test/../test/Threads_C_API_test.hpp ****         printString("C: i="); printInt(i); printString("\n");
 1101              		.loc 1 63 5 discriminator 2
  63:test/../test/Threads_C_API_test.hpp ****         printString("C: i="); printInt(i); printString("\n");
 1102              		.loc 1 63 14 discriminator 2
 1103 0394 93075000 		li	a5,5
 1104 0398 E3F097FC 		bleu	s1,a5,.L60
  67:test/../test/Threads_C_API_test.hpp ****     finishedC = true;
 1105              		.loc 1 67 5
  67:test/../test/Threads_C_API_test.hpp ****     finishedC = true;
 1106              		.loc 1 67 16 is_stmt 0
 1107 039c 17050000 		lla	a0,.LC3
 1107      13050500 
 1108 03a4 97000000 		call	_Z11printStringPKc@plt
 1108      E7800000 
 1109              	.LVL124:
  68:test/../test/Threads_C_API_test.hpp ****     thread_dispatch();
 1110              		.loc 1 68 5 is_stmt 1
  68:test/../test/Threads_C_API_test.hpp ****     thread_dispatch();
 1111              		.loc 1 68 15 is_stmt 0
 1112 03ac 93071000 		li	a5,1
 1113 03b0 17070000 		sb	a5,.LANCHOR0+8,a4
 1113      2300F700 
  69:test/../test/Threads_C_API_test.hpp **** }
 1114              		.loc 1 69 5 is_stmt 1
  69:test/../test/Threads_C_API_test.hpp **** }
 1115              		.loc 1 69 20 is_stmt 0
 1116 03b8 97000000 		call	thread_dispatch@plt
 1116      E7800000 
 1117              	.LVL125:
  70:test/../test/Threads_C_API_test.hpp **** 
 1118              		.loc 1 70 1
 1119 03c0 83308101 		ld	ra,24(sp)
 1120              		.cfi_restore 1
 1121 03c4 03340101 		ld	s0,16(sp)
 1122              		.cfi_restore 8
 1123              		.cfi_def_cfa 2, 32
 1124 03c8 83348100 		ld	s1,8(sp)
 1125              		.cfi_restore 9
 1126              	.LVL126:
 1127 03cc 03390100 		ld	s2,0(sp)
 1128              		.cfi_restore 18
 1129              	.LVL127:
 1130 03d0 13010102 		addi	sp,sp,32
 1131              		.cfi_def_cfa_offset 0
 1132 03d4 67800000 		jr	ra
 1133              		.cfi_endproc
 1134              	.LFE41:
 1136              		.section	.rodata.str1.8
 1137 0075 000000   		.align	3
GAS LISTING /tmp/cciyzRgz.s 			page 29


 1138              	.LC10:
 1139 0078 443A2069 		.string	"D: i="
 1139      3D00
 1140 007e 0000     		.align	3
 1141              	.LC11:
 1142 0080 443A2064 		.string	"D: dispatch\n"
 1142      69737061 
 1142      7463680A 
 1142      00
 1143 008d 000000   		.align	3
 1144              	.LC12:
 1145 0090 443A2066 		.string	"D: fibonaci="
 1145      69626F6E 
 1145      6163693D 
 1145      00
 1146 009d 000000   		.align	3
 1147              	.LC13:
 1148 00a0 44206669 		.string	"D finished!\n"
 1148      6E697368 
 1148      6564210A 
 1148      00
 1149              		.text
 1150              		.align	2
 1151              		.globl	_Z11workerBodyDPv
 1153              	_Z11workerBodyDPv:
 1154              	.LFB42:
  72:test/../test/Threads_C_API_test.hpp ****     uint8 i = 10;
 1155              		.loc 1 72 29 is_stmt 1
 1156              		.cfi_startproc
 1157              	.LVL128:
 1158 03d8 130101FE 		addi	sp,sp,-32
 1159              		.cfi_def_cfa_offset 32
 1160 03dc 233C1100 		sd	ra,24(sp)
 1161 03e0 23388100 		sd	s0,16(sp)
 1162 03e4 23349100 		sd	s1,8(sp)
 1163 03e8 23302101 		sd	s2,0(sp)
 1164              		.cfi_offset 1, -8
 1165              		.cfi_offset 8, -16
 1166              		.cfi_offset 9, -24
 1167              		.cfi_offset 18, -32
 1168 03ec 13040102 		addi	s0,sp,32
 1169              		.cfi_def_cfa 8, 0
  73:test/../test/Threads_C_API_test.hpp ****     for (; i < 13; i++) {
 1170              		.loc 1 73 5
 1171              	.LVL129:
  73:test/../test/Threads_C_API_test.hpp ****     for (; i < 13; i++) {
 1172              		.loc 1 73 11 is_stmt 0
 1173 03f0 9304A000 		li	s1,10
 1174 03f4 6F000004 		j	.L63
 1175              	.LVL130:
 1176              	.L67:
  75:test/../test/Threads_C_API_test.hpp ****     }
 1177              		.loc 1 75 9 is_stmt 1 discriminator 1
  75:test/../test/Threads_C_API_test.hpp ****     }
 1178              		.loc 1 75 20 is_stmt 0 discriminator 1
 1179 03f8 17050000 		lla	a0,.LC10
 1179      13050500 
GAS LISTING /tmp/cciyzRgz.s 			page 30


 1180 0400 97000000 		call	_Z11printStringPKc@plt
 1180      E7800000 
 1181              	.LVL131:
  75:test/../test/Threads_C_API_test.hpp ****     }
 1182              		.loc 1 75 31 is_stmt 1 discriminator 1
  75:test/../test/Threads_C_API_test.hpp ****     }
 1183              		.loc 1 75 39 is_stmt 0 discriminator 1
 1184 0408 13060000 		li	a2,0
 1185 040c 9305A000 		li	a1,10
 1186 0410 13850400 		mv	a0,s1
 1187 0414 97000000 		call	_Z8printIntiii@plt
 1187      E7800000 
 1188              	.LVL132:
  75:test/../test/Threads_C_API_test.hpp ****     }
 1189              		.loc 1 75 44 is_stmt 1 discriminator 1
  75:test/../test/Threads_C_API_test.hpp ****     }
 1190              		.loc 1 75 55 is_stmt 0 discriminator 1
 1191 041c 17050000 		lla	a0,.LC2
 1191      13050500 
 1192 0424 97000000 		call	_Z11printStringPKc@plt
 1192      E7800000 
 1193              	.LVL133:
  74:test/../test/Threads_C_API_test.hpp ****         printString("D: i="); printInt(i); printString("\n");
 1194              		.loc 1 74 5 is_stmt 1 discriminator 1
 1195 042c 9B841400 		addiw	s1,s1,1
 1196              	.LVL134:
 1197 0430 93F4F40F 		andi	s1,s1,0xff
 1198              	.LVL135:
 1199              	.L63:
  74:test/../test/Threads_C_API_test.hpp ****         printString("D: i="); printInt(i); printString("\n");
 1200              		.loc 1 74 5 discriminator 2
  74:test/../test/Threads_C_API_test.hpp ****         printString("D: i="); printInt(i); printString("\n");
 1201              		.loc 1 74 14 discriminator 2
 1202 0434 9307C000 		li	a5,12
 1203 0438 E3F097FC 		bleu	s1,a5,.L67
  78:test/../test/Threads_C_API_test.hpp ****     __asm__ ("li t1, 5");
 1204              		.loc 1 78 5
  78:test/../test/Threads_C_API_test.hpp ****     __asm__ ("li t1, 5");
 1205              		.loc 1 78 16 is_stmt 0
 1206 043c 17050000 		lla	a0,.LC11
 1206      13050500 
 1207 0444 97000000 		call	_Z11printStringPKc@plt
 1207      E7800000 
 1208              	.LVL136:
  79:test/../test/Threads_C_API_test.hpp ****     thread_dispatch();
 1209              		.loc 1 79 5 is_stmt 1
  79:test/../test/Threads_C_API_test.hpp ****     thread_dispatch();
 1210              		.loc 1 79 25 is_stmt 0
 1211              	#APP
 1212              	# 79 "test/../test/Threads_C_API_test.hpp" 1
  80:test/../test/Threads_C_API_test.hpp **** 
 1213              		li t1, 5
 1214              	# 0 "" 2
 1215              		.loc 1 80 5 is_stmt 1
  80:test/../test/Threads_C_API_test.hpp **** 
 1216              		.loc 1 80 20 is_stmt 0
 1217              	#NO_APP
GAS LISTING /tmp/cciyzRgz.s 			page 31


 1218 0450 97000000 		call	thread_dispatch@plt
 1218      E7800000 
 1219              	.LVL137:
  82:test/../test/Threads_C_API_test.hpp ****     printString("D: fibonaci="); printInt(result); printString("\n");
 1220              		.loc 1 82 5 is_stmt 1
  82:test/../test/Threads_C_API_test.hpp ****     printString("D: fibonaci="); printInt(result); printString("\n");
 1221              		.loc 1 82 30 is_stmt 0
 1222 0458 13050001 		li	a0,16
 1223 045c 97000000 		call	_Z9fibonaccim
 1223      E7800000 
 1224              	.LVL138:
 1225 0464 13090500 		mv	s2,a0
 1226              	.LVL139:
  83:test/../test/Threads_C_API_test.hpp **** 
 1227              		.loc 1 83 5 is_stmt 1
  83:test/../test/Threads_C_API_test.hpp **** 
 1228              		.loc 1 83 16 is_stmt 0
 1229 0468 17050000 		lla	a0,.LC12
 1229      13050500 
 1230              	.LVL140:
 1231 0470 97000000 		call	_Z11printStringPKc@plt
 1231      E7800000 
 1232              	.LVL141:
  83:test/../test/Threads_C_API_test.hpp **** 
 1233              		.loc 1 83 34 is_stmt 1
  83:test/../test/Threads_C_API_test.hpp **** 
 1234              		.loc 1 83 42 is_stmt 0
 1235 0478 13060000 		li	a2,0
 1236 047c 9305A000 		li	a1,10
 1237 0480 1B050900 		sext.w	a0,s2
 1238 0484 97000000 		call	_Z8printIntiii@plt
 1238      E7800000 
 1239              	.LVL142:
  83:test/../test/Threads_C_API_test.hpp **** 
 1240              		.loc 1 83 52 is_stmt 1
  83:test/../test/Threads_C_API_test.hpp **** 
 1241              		.loc 1 83 63 is_stmt 0
 1242 048c 17050000 		lla	a0,.LC2
 1242      13050500 
 1243 0494 97000000 		call	_Z11printStringPKc@plt
 1243      E7800000 
 1244              	.LVL143:
 1245 049c 6F000004 		j	.L65
 1246              	.L68:
  86:test/../test/Threads_C_API_test.hpp ****     }
 1247              		.loc 1 86 9 is_stmt 1 discriminator 1
  86:test/../test/Threads_C_API_test.hpp ****     }
 1248              		.loc 1 86 20 is_stmt 0 discriminator 1
 1249 04a0 17050000 		lla	a0,.LC10
 1249      13050500 
 1250 04a8 97000000 		call	_Z11printStringPKc@plt
 1250      E7800000 
 1251              	.LVL144:
  86:test/../test/Threads_C_API_test.hpp ****     }
 1252              		.loc 1 86 31 is_stmt 1 discriminator 1
  86:test/../test/Threads_C_API_test.hpp ****     }
 1253              		.loc 1 86 39 is_stmt 0 discriminator 1
GAS LISTING /tmp/cciyzRgz.s 			page 32


 1254 04b0 13060000 		li	a2,0
 1255 04b4 9305A000 		li	a1,10
 1256 04b8 13850400 		mv	a0,s1
 1257 04bc 97000000 		call	_Z8printIntiii@plt
 1257      E7800000 
 1258              	.LVL145:
  86:test/../test/Threads_C_API_test.hpp ****     }
 1259              		.loc 1 86 44 is_stmt 1 discriminator 1
  86:test/../test/Threads_C_API_test.hpp ****     }
 1260              		.loc 1 86 55 is_stmt 0 discriminator 1
 1261 04c4 17050000 		lla	a0,.LC2
 1261      13050500 
 1262 04cc 97000000 		call	_Z11printStringPKc@plt
 1262      E7800000 
 1263              	.LVL146:
  85:test/../test/Threads_C_API_test.hpp ****         printString("D: i="); printInt(i); printString("\n");
 1264              		.loc 1 85 5 is_stmt 1 discriminator 1
 1265 04d4 9B841400 		addiw	s1,s1,1
 1266              	.LVL147:
 1267 04d8 93F4F40F 		andi	s1,s1,0xff
 1268              	.LVL148:
 1269              	.L65:
  85:test/../test/Threads_C_API_test.hpp ****         printString("D: i="); printInt(i); printString("\n");
 1270              		.loc 1 85 5 discriminator 2
  85:test/../test/Threads_C_API_test.hpp ****         printString("D: i="); printInt(i); printString("\n");
 1271              		.loc 1 85 14 discriminator 2
 1272 04dc 9307F000 		li	a5,15
 1273 04e0 E3F097FC 		bleu	s1,a5,.L68
  89:test/../test/Threads_C_API_test.hpp ****     finishedD = true;
 1274              		.loc 1 89 5
  89:test/../test/Threads_C_API_test.hpp ****     finishedD = true;
 1275              		.loc 1 89 16 is_stmt 0
 1276 04e4 17050000 		lla	a0,.LC13
 1276      13050500 
 1277 04ec 97000000 		call	_Z11printStringPKc@plt
 1277      E7800000 
 1278              	.LVL149:
  90:test/../test/Threads_C_API_test.hpp ****     thread_dispatch();
 1279              		.loc 1 90 5 is_stmt 1
  90:test/../test/Threads_C_API_test.hpp ****     thread_dispatch();
 1280              		.loc 1 90 15 is_stmt 0
 1281 04f4 93071000 		li	a5,1
 1282 04f8 17070000 		sb	a5,.LANCHOR0+9,a4
 1282      2300F700 
  91:test/../test/Threads_C_API_test.hpp **** }
 1283              		.loc 1 91 5 is_stmt 1
  91:test/../test/Threads_C_API_test.hpp **** }
 1284              		.loc 1 91 20 is_stmt 0
 1285 0500 97000000 		call	thread_dispatch@plt
 1285      E7800000 
 1286              	.LVL150:
  92:test/../test/Threads_C_API_test.hpp **** 
 1287              		.loc 1 92 1
 1288 0508 83308101 		ld	ra,24(sp)
 1289              		.cfi_restore 1
 1290 050c 03340101 		ld	s0,16(sp)
 1291              		.cfi_restore 8
GAS LISTING /tmp/cciyzRgz.s 			page 33


 1292              		.cfi_def_cfa 2, 32
 1293 0510 83348100 		ld	s1,8(sp)
 1294              		.cfi_restore 9
 1295              	.LVL151:
 1296 0514 03390100 		ld	s2,0(sp)
 1297              		.cfi_restore 18
 1298              	.LVL152:
 1299 0518 13010102 		addi	sp,sp,32
 1300              		.cfi_def_cfa_offset 0
 1301 051c 67800000 		jr	ra
 1302              		.cfi_endproc
 1303              	.LFE42:
 1305              		.section	.rodata.str1.8
 1306 00ad 000000   		.align	3
 1307              	.LC14:
 1308 00b0 54687265 		.string	"ThreadA created\n"
 1308      61644120 
 1308      63726561 
 1308      7465640A 
 1308      00
 1309 00c1 00000000 		.align	3
 1309      000000
 1310              	.LC15:
 1311 00c8 54687265 		.string	"ThreadB created\n"
 1311      61644220 
 1311      63726561 
 1311      7465640A 
 1311      00
 1312 00d9 00000000 		.align	3
 1312      000000
 1313              	.LC16:
 1314 00e0 54687265 		.string	"ThreadC created\n"
 1314      61644320 
 1314      63726561 
 1314      7465640A 
 1314      00
 1315 00f1 00000000 		.align	3
 1315      000000
 1316              	.LC17:
 1317 00f8 54687265 		.string	"ThreadD created\n"
 1317      61644420 
 1317      63726561 
 1317      7465640A 
 1317      00
 1318 0109 00000000 		.align	3
 1318      000000
 1319              	.LC18:
 1320 0110 54687265 		.string	"ThreadE created\n"
 1320      61644520 
 1320      63726561 
 1320      7465640A 
 1320      00
 1321              		.text
 1322              		.align	2
 1323              		.globl	_Z18Threads_C_API_testv
 1325              	_Z18Threads_C_API_testv:
 1326              	.LFB44:
GAS LISTING /tmp/cciyzRgz.s 			page 34


 115:test/../test/Threads_C_API_test.hpp **** 
 116:test/../test/Threads_C_API_test.hpp **** 
 117:test/../test/Threads_C_API_test.hpp **** void Threads_C_API_test() {
 1327              		.loc 1 117 27 is_stmt 1
 1328              		.cfi_startproc
 1329 0520 130101FC 		addi	sp,sp,-64
 1330              		.cfi_def_cfa_offset 64
 1331 0524 233C1102 		sd	ra,56(sp)
 1332 0528 23388102 		sd	s0,48(sp)
 1333              		.cfi_offset 1, -8
 1334              		.cfi_offset 8, -16
 1335 052c 13040104 		addi	s0,sp,64
 1336              		.cfi_def_cfa 8, 0
 118:test/../test/Threads_C_API_test.hpp ****     thread_t threads[5];
 1337              		.loc 1 118 5
 119:test/../test/Threads_C_API_test.hpp ****     thread_create(&threads[0], workerBodyA, nullptr);
 1338              		.loc 1 119 5
 1339              		.loc 1 119 18 is_stmt 0
 1340 0530 13060000 		li	a2,0
 1341 0534 97050000 		lla	a1,_Z11workerBodyAPv
 1341      93850500 
 1342 053c 130584FC 		addi	a0,s0,-56
 1343 0540 97000000 		call	thread_create@plt
 1343      E7800000 
 1344              	.LVL153:
 120:test/../test/Threads_C_API_test.hpp ****     printString("ThreadA created\n");
 1345              		.loc 1 120 5 is_stmt 1
 1346              		.loc 1 120 16 is_stmt 0
 1347 0548 17050000 		lla	a0,.LC14
 1347      13050500 
 1348 0550 97000000 		call	_Z11printStringPKc@plt
 1348      E7800000 
 1349              	.LVL154:
 121:test/../test/Threads_C_API_test.hpp **** 
 122:test/../test/Threads_C_API_test.hpp ****     thread_create(&threads[1], workerBodyB, nullptr);
 1350              		.loc 1 122 5 is_stmt 1
 1351              		.loc 1 122 18 is_stmt 0
 1352 0558 13060000 		li	a2,0
 1353 055c 97050000 		lla	a1,_Z11workerBodyBPv
 1353      93850500 
 1354 0564 130504FD 		addi	a0,s0,-48
 1355 0568 97000000 		call	thread_create@plt
 1355      E7800000 
 1356              	.LVL155:
 123:test/../test/Threads_C_API_test.hpp ****     printString("ThreadB created\n");
 1357              		.loc 1 123 5 is_stmt 1
 1358              		.loc 1 123 16 is_stmt 0
 1359 0570 17050000 		lla	a0,.LC15
 1359      13050500 
 1360 0578 97000000 		call	_Z11printStringPKc@plt
 1360      E7800000 
 1361              	.LVL156:
 124:test/../test/Threads_C_API_test.hpp **** 
 125:test/../test/Threads_C_API_test.hpp ****     thread_create(&threads[2], workerBodyC, nullptr);
 1362              		.loc 1 125 5 is_stmt 1
 1363              		.loc 1 125 18 is_stmt 0
 1364 0580 13060000 		li	a2,0
GAS LISTING /tmp/cciyzRgz.s 			page 35


 1365 0584 97050000 		lla	a1,_Z11workerBodyCPv
 1365      93850500 
 1366 058c 130584FD 		addi	a0,s0,-40
 1367 0590 97000000 		call	thread_create@plt
 1367      E7800000 
 1368              	.LVL157:
 126:test/../test/Threads_C_API_test.hpp ****     printString("ThreadC created\n");
 1369              		.loc 1 126 5 is_stmt 1
 1370              		.loc 1 126 16 is_stmt 0
 1371 0598 17050000 		lla	a0,.LC16
 1371      13050500 
 1372 05a0 97000000 		call	_Z11printStringPKc@plt
 1372      E7800000 
 1373              	.LVL158:
 127:test/../test/Threads_C_API_test.hpp **** 
 128:test/../test/Threads_C_API_test.hpp ****     thread_create(&threads[3], workerBodyD, nullptr);
 1374              		.loc 1 128 5 is_stmt 1
 1375              		.loc 1 128 18 is_stmt 0
 1376 05a8 13060000 		li	a2,0
 1377 05ac 97050000 		lla	a1,_Z11workerBodyDPv
 1377      93850500 
 1378 05b4 130504FE 		addi	a0,s0,-32
 1379 05b8 97000000 		call	thread_create@plt
 1379      E7800000 
 1380              	.LVL159:
 129:test/../test/Threads_C_API_test.hpp ****     printString("ThreadD created\n");
 1381              		.loc 1 129 5 is_stmt 1
 1382              		.loc 1 129 16 is_stmt 0
 1383 05c0 17050000 		lla	a0,.LC17
 1383      13050500 
 1384 05c8 97000000 		call	_Z11printStringPKc@plt
 1384      E7800000 
 1385              	.LVL160:
 130:test/../test/Threads_C_API_test.hpp **** 
 131:test/../test/Threads_C_API_test.hpp ****     thread_create(&threads[4], workerBodyE, nullptr);
 1386              		.loc 1 131 5 is_stmt 1
 1387              		.loc 1 131 18 is_stmt 0
 1388 05d0 13060000 		li	a2,0
 1389 05d4 97050000 		lla	a1,_Z11workerBodyEPv
 1389      93850500 
 1390 05dc 130584FE 		addi	a0,s0,-24
 1391 05e0 97000000 		call	thread_create@plt
 1391      E7800000 
 1392              	.LVL161:
 132:test/../test/Threads_C_API_test.hpp ****     printString("ThreadE created\n");
 1393              		.loc 1 132 5 is_stmt 1
 1394              		.loc 1 132 16 is_stmt 0
 1395 05e8 17050000 		lla	a0,.LC18
 1395      13050500 
 1396 05f0 97000000 		call	_Z11printStringPKc@plt
 1396      E7800000 
 1397              	.LVL162:
 1398 05f8 6F00C000 		j	.L72
 1399              	.L70:
 133:test/../test/Threads_C_API_test.hpp **** 
 134:test/../test/Threads_C_API_test.hpp **** 
 135:test/../test/Threads_C_API_test.hpp ****     while (!(finishedA && finishedB && finishedC && finishedD && finishedE)) {
GAS LISTING /tmp/cciyzRgz.s 			page 36


 136:test/../test/Threads_C_API_test.hpp ****         thread_dispatch();
 1400              		.loc 1 136 9 is_stmt 1
 1401              		.loc 1 136 24 is_stmt 0
 1402 05fc 97000000 		call	thread_dispatch@plt
 1402      E7800000 
 1403              	.LVL163:
 1404              	.L72:
 135:test/../test/Threads_C_API_test.hpp ****         thread_dispatch();
 1405              		.loc 1 135 5 is_stmt 1
 135:test/../test/Threads_C_API_test.hpp ****         thread_dispatch();
 1406              		.loc 1 135 12
 1407 0604 97070000 		lbu	a5,.LANCHOR0+1
 1407      83C70700 
 1408 060c E38807FE 		beqz	a5,.L70
 135:test/../test/Threads_C_API_test.hpp ****         thread_dispatch();
 1409              		.loc 1 135 24 is_stmt 0 discriminator 1
 1410 0610 97070000 		lbu	a5,.LANCHOR0+2
 1410      83C70700 
 1411 0618 E38207FE 		beqz	a5,.L70
 135:test/../test/Threads_C_API_test.hpp ****         thread_dispatch();
 1412              		.loc 1 135 37 discriminator 2
 1413 061c 97070000 		lbu	a5,.LANCHOR0+8
 1413      83C70700 
 1414 0624 E38C07FC 		beqz	a5,.L70
 135:test/../test/Threads_C_API_test.hpp ****         thread_dispatch();
 1415              		.loc 1 135 50 discriminator 3
 1416 0628 97070000 		lbu	a5,.LANCHOR0+9
 1416      83C70700 
 1417 0630 E38607FC 		beqz	a5,.L70
 135:test/../test/Threads_C_API_test.hpp ****         thread_dispatch();
 1418              		.loc 1 135 12 discriminator 4
 1419 0634 97070000 		lbu	a5,.LANCHOR0
 1419      83C70700 
 1420 063c E38007FC 		beqz	a5,.L70
 137:test/../test/Threads_C_API_test.hpp ****     }
 138:test/../test/Threads_C_API_test.hpp **** 
 139:test/../test/Threads_C_API_test.hpp **** }
 1421              		.loc 1 139 1
 1422 0640 83308103 		ld	ra,56(sp)
 1423              		.cfi_restore 1
 1424 0644 03340103 		ld	s0,48(sp)
 1425              		.cfi_restore 8
 1426              		.cfi_def_cfa 2, 64
 1427 0648 13010104 		addi	sp,sp,64
 1428              		.cfi_def_cfa_offset 0
 1429 064c 67800000 		jr	ra
 1430              		.cfi_endproc
 1431              	.LFE44:
 1433              		.section	.rodata.str1.8
 1434 0121 00000000 		.align	3
 1434      000000
 1435              	.LC19:
 1436 0128 556E6573 		.string	"Unesite broj proizvodjaca?\n"
 1436      69746520 
 1436      62726F6A 
 1436      2070726F 
 1436      697A766F 
GAS LISTING /tmp/cciyzRgz.s 			page 37


 1437 0144 00000000 		.align	3
 1438              	.LC20:
 1439 0148 556E6573 		.string	"Unesite velicinu bafera?\n"
 1439      69746520 
 1439      76656C69 
 1439      63696E75 
 1439      20626166 
 1440 0162 00000000 		.align	3
 1440      0000
 1441              	.LC21:
 1442 0168 42726F6A 		.string	"Broj proizvodjaca "
 1442      2070726F 
 1442      697A766F 
 1442      646A6163 
 1442      612000
 1443 017b 00000000 		.align	3
 1443      00
 1444              	.LC22:
 1445 0180 20692076 		.string	" i velicina bafera "
 1445      656C6963 
 1445      696E6120 
 1445      62616665 
 1445      72612000 
 1446 0194 00000000 		.align	3
 1447              	.LC23:
 1448 0198 2E0A00   		.string	".\n"
 1449 019b 00000000 		.align	3
 1449      00
 1450              	.LC24:
 1451 01a0 42726F6A 		.string	"Broj proizvodjaca ne sme biti manji od velicine bafera!\n"
 1451      2070726F 
 1451      697A766F 
 1451      646A6163 
 1451      61206E65 
 1452 01d9 00000000 		.align	3
 1452      000000
 1453              	.LC25:
 1454 01e0 42726F6A 		.string	"Broj proizvodjaca mora biti veci od nula!\n"
 1454      2070726F 
 1454      697A766F 
 1454      646A6163 
 1454      61206D6F 
 1455              		.text
 1456              		.align	2
 1457              		.globl	_ZN19ConsumerProducerCPP20testConsumerProducerEv
 1459              	_ZN19ConsumerProducerCPP20testConsumerProducerEv:
 1460              	.LFB60:
  86:test/../test/ConsumerProducer_CPP_API_test.hpp ****     };
  87:test/../test/ConsumerProducer_CPP_API_test.hpp **** 
  88:test/../test/ConsumerProducer_CPP_API_test.hpp ****     void testConsumerProducer() {
 1461              		.loc 2 88 33 is_stmt 1
 1462              		.cfi_startproc
 1463              		.cfi_personality 0x9b,DW.ref.__gxx_personality_v0
 1464              		.cfi_lsda 0x1b,.LLSDA60
 1465 0650 130101F8 		addi	sp,sp,-128
 1466              		.cfi_def_cfa_offset 128
 1467 0654 233C1106 		sd	ra,120(sp)
GAS LISTING /tmp/cciyzRgz.s 			page 38


 1468 0658 23388106 		sd	s0,112(sp)
 1469 065c 23349106 		sd	s1,104(sp)
 1470 0660 23302107 		sd	s2,96(sp)
 1471 0664 233C3105 		sd	s3,88(sp)
 1472 0668 23384105 		sd	s4,80(sp)
 1473 066c 23345105 		sd	s5,72(sp)
 1474 0670 23306105 		sd	s6,64(sp)
 1475 0674 233C7103 		sd	s7,56(sp)
 1476 0678 23388103 		sd	s8,48(sp)
 1477 067c 23349103 		sd	s9,40(sp)
 1478              		.cfi_offset 1, -8
 1479              		.cfi_offset 8, -16
 1480              		.cfi_offset 9, -24
 1481              		.cfi_offset 18, -32
 1482              		.cfi_offset 19, -40
 1483              		.cfi_offset 20, -48
 1484              		.cfi_offset 21, -56
 1485              		.cfi_offset 22, -64
 1486              		.cfi_offset 23, -72
 1487              		.cfi_offset 24, -80
 1488              		.cfi_offset 25, -88
 1489 0680 13040108 		addi	s0,sp,128
 1490              		.cfi_def_cfa 8, 0
  89:test/../test/ConsumerProducer_CPP_API_test.hpp ****         char input[30];
  90:test/../test/ConsumerProducer_CPP_API_test.hpp ****         int n, threadNum;
  91:test/../test/ConsumerProducer_CPP_API_test.hpp **** 
  92:test/../test/ConsumerProducer_CPP_API_test.hpp ****         printString("Unesite broj proizvodjaca?\n");
  93:test/../test/ConsumerProducer_CPP_API_test.hpp ****         getString(input, 30);
  94:test/../test/ConsumerProducer_CPP_API_test.hpp ****         threadNum = stringToInt(input);
  95:test/../test/ConsumerProducer_CPP_API_test.hpp **** 
  96:test/../test/ConsumerProducer_CPP_API_test.hpp ****         printString("Unesite velicinu bafera?\n");
  97:test/../test/ConsumerProducer_CPP_API_test.hpp ****         getString(input, 30);
  98:test/../test/ConsumerProducer_CPP_API_test.hpp ****         n = stringToInt(input);
  99:test/../test/ConsumerProducer_CPP_API_test.hpp **** 
 100:test/../test/ConsumerProducer_CPP_API_test.hpp ****         printString("Broj proizvodjaca "); printInt(threadNum);
 101:test/../test/ConsumerProducer_CPP_API_test.hpp ****         printString(" i velicina bafera "); printInt(n);
 102:test/../test/ConsumerProducer_CPP_API_test.hpp ****         printString(".\n");
 103:test/../test/ConsumerProducer_CPP_API_test.hpp **** 
 104:test/../test/ConsumerProducer_CPP_API_test.hpp ****         if(threadNum > n) {
 105:test/../test/ConsumerProducer_CPP_API_test.hpp ****             printString("Broj proizvodjaca ne sme biti manji od velicine bafera!\n");
 106:test/../test/ConsumerProducer_CPP_API_test.hpp ****             return;
 107:test/../test/ConsumerProducer_CPP_API_test.hpp ****         } else if (threadNum < 1) {
 108:test/../test/ConsumerProducer_CPP_API_test.hpp ****             printString("Broj proizvodjaca mora biti veci od nula!\n");
 109:test/../test/ConsumerProducer_CPP_API_test.hpp ****             return;
 110:test/../test/ConsumerProducer_CPP_API_test.hpp ****         }
 111:test/../test/ConsumerProducer_CPP_API_test.hpp **** 
 112:test/../test/ConsumerProducer_CPP_API_test.hpp ****         BufferCPP *buffer = new BufferCPP(n);
 113:test/../test/ConsumerProducer_CPP_API_test.hpp **** 
 114:test/../test/ConsumerProducer_CPP_API_test.hpp ****         waitForAll = new Semaphore(0);
 115:test/../test/ConsumerProducer_CPP_API_test.hpp ****         Thread *producers[threadNum];
 116:test/../test/ConsumerProducer_CPP_API_test.hpp ****         thread_data threadData[threadNum + 1];
 117:test/../test/ConsumerProducer_CPP_API_test.hpp **** 
 118:test/../test/ConsumerProducer_CPP_API_test.hpp ****         threadData[threadNum].id = threadNum;
 119:test/../test/ConsumerProducer_CPP_API_test.hpp ****         threadData[threadNum].buffer = buffer;
 120:test/../test/ConsumerProducer_CPP_API_test.hpp ****         threadData[threadNum].sem = waitForAll;
 121:test/../test/ConsumerProducer_CPP_API_test.hpp ****         Thread *consumer = new Consumer(&threadData[threadNum]);
 122:test/../test/ConsumerProducer_CPP_API_test.hpp ****         consumer->start();
GAS LISTING /tmp/cciyzRgz.s 			page 39


 123:test/../test/ConsumerProducer_CPP_API_test.hpp **** 
 124:test/../test/ConsumerProducer_CPP_API_test.hpp ****         threadData[0].id = 0;
 125:test/../test/ConsumerProducer_CPP_API_test.hpp ****         threadData[0].buffer = buffer;
 126:test/../test/ConsumerProducer_CPP_API_test.hpp ****         threadData[0].sem = waitForAll;
 127:test/../test/ConsumerProducer_CPP_API_test.hpp ****         producers[0] = new ProducerKeyborad(&threadData[0]);
 128:test/../test/ConsumerProducer_CPP_API_test.hpp ****         producers[0]->start();
 129:test/../test/ConsumerProducer_CPP_API_test.hpp **** 
 130:test/../test/ConsumerProducer_CPP_API_test.hpp ****         for (int i = 1; i < threadNum; i++) {
 131:test/../test/ConsumerProducer_CPP_API_test.hpp ****             threadData[i].id = i;
 132:test/../test/ConsumerProducer_CPP_API_test.hpp ****             threadData[i].buffer = buffer;
 133:test/../test/ConsumerProducer_CPP_API_test.hpp ****             threadData[i].sem = waitForAll;
 134:test/../test/ConsumerProducer_CPP_API_test.hpp **** 
 135:test/../test/ConsumerProducer_CPP_API_test.hpp ****             producers[i] = new Producer(&threadData[i]);
 136:test/../test/ConsumerProducer_CPP_API_test.hpp ****             producers[i]->start();
 137:test/../test/ConsumerProducer_CPP_API_test.hpp **** 
 138:test/../test/ConsumerProducer_CPP_API_test.hpp ****         }
 139:test/../test/ConsumerProducer_CPP_API_test.hpp **** 
 140:test/../test/ConsumerProducer_CPP_API_test.hpp ****         Thread::dispatch();
 141:test/../test/ConsumerProducer_CPP_API_test.hpp **** 
 142:test/../test/ConsumerProducer_CPP_API_test.hpp ****         for (int i = 0; i <= threadNum; i++) {
 143:test/../test/ConsumerProducer_CPP_API_test.hpp ****             waitForAll->wait();
 144:test/../test/ConsumerProducer_CPP_API_test.hpp ****         }
 145:test/../test/ConsumerProducer_CPP_API_test.hpp **** 
 146:test/../test/ConsumerProducer_CPP_API_test.hpp ****         delete waitForAll;
 147:test/../test/ConsumerProducer_CPP_API_test.hpp ****         for (int i = 0; i < threadNum; i++) {
 148:test/../test/ConsumerProducer_CPP_API_test.hpp ****             delete producers[i];
 149:test/../test/ConsumerProducer_CPP_API_test.hpp ****         }
 150:test/../test/ConsumerProducer_CPP_API_test.hpp ****         delete consumer;
 151:test/../test/ConsumerProducer_CPP_API_test.hpp ****         delete buffer;
 1491              		.loc 2 151 22 is_stmt 0
 1492 0684 130C0100 		mv	s8,sp
  89:test/../test/ConsumerProducer_CPP_API_test.hpp ****         char input[30];
 1493              		.loc 2 89 9 is_stmt 1
  90:test/../test/ConsumerProducer_CPP_API_test.hpp **** 
 1494              		.loc 2 90 9
  92:test/../test/ConsumerProducer_CPP_API_test.hpp ****         getString(input, 30);
 1495              		.loc 2 92 9
  92:test/../test/ConsumerProducer_CPP_API_test.hpp ****         getString(input, 30);
 1496              		.loc 2 92 20 is_stmt 0
 1497 0688 17050000 		lla	a0,.LC19
 1497      13050500 
 1498              	.LEHB0:
 1499 0690 97000000 		call	_Z11printStringPKc@plt
 1499      E7800000 
 1500              	.LVL164:
  93:test/../test/ConsumerProducer_CPP_API_test.hpp ****         threadNum = stringToInt(input);
 1501              		.loc 2 93 9 is_stmt 1
  93:test/../test/ConsumerProducer_CPP_API_test.hpp ****         threadNum = stringToInt(input);
 1502              		.loc 2 93 18 is_stmt 0
 1503 0698 9305E001 		li	a1,30
 1504 069c 930404F8 		addi	s1,s0,-128
 1505 06a0 13850400 		mv	a0,s1
 1506 06a4 97000000 		call	_Z9getStringPci@plt
 1506      E7800000 
 1507              	.LVL165:
  94:test/../test/ConsumerProducer_CPP_API_test.hpp **** 
 1508              		.loc 2 94 9 is_stmt 1
GAS LISTING /tmp/cciyzRgz.s 			page 40


  94:test/../test/ConsumerProducer_CPP_API_test.hpp **** 
 1509              		.loc 2 94 32 is_stmt 0
 1510 06ac 13850400 		mv	a0,s1
 1511 06b0 97000000 		call	_Z11stringToIntPKc@plt
 1511      E7800000 
 1512              	.LVL166:
 1513 06b8 93090500 		mv	s3,a0
 1514              	.LVL167:
  96:test/../test/ConsumerProducer_CPP_API_test.hpp ****         getString(input, 30);
 1515              		.loc 2 96 9 is_stmt 1
  96:test/../test/ConsumerProducer_CPP_API_test.hpp ****         getString(input, 30);
 1516              		.loc 2 96 20 is_stmt 0
 1517 06bc 17050000 		lla	a0,.LC20
 1517      13050500 
 1518 06c4 97000000 		call	_Z11printStringPKc@plt
 1518      E7800000 
 1519              	.LVL168:
  97:test/../test/ConsumerProducer_CPP_API_test.hpp ****         n = stringToInt(input);
 1520              		.loc 2 97 9 is_stmt 1
  97:test/../test/ConsumerProducer_CPP_API_test.hpp ****         n = stringToInt(input);
 1521              		.loc 2 97 18 is_stmt 0
 1522 06cc 9305E001 		li	a1,30
 1523 06d0 13850400 		mv	a0,s1
 1524 06d4 97000000 		call	_Z9getStringPci@plt
 1524      E7800000 
 1525              	.LVL169:
  98:test/../test/ConsumerProducer_CPP_API_test.hpp **** 
 1526              		.loc 2 98 9 is_stmt 1
  98:test/../test/ConsumerProducer_CPP_API_test.hpp **** 
 1527              		.loc 2 98 24 is_stmt 0
 1528 06dc 13850400 		mv	a0,s1
 1529 06e0 97000000 		call	_Z11stringToIntPKc@plt
 1529      E7800000 
 1530              	.LVL170:
 1531 06e8 93040500 		mv	s1,a0
 1532              	.LVL171:
 100:test/../test/ConsumerProducer_CPP_API_test.hpp ****         printString(" i velicina bafera "); printInt(n);
 1533              		.loc 2 100 9 is_stmt 1
 100:test/../test/ConsumerProducer_CPP_API_test.hpp ****         printString(" i velicina bafera "); printInt(n);
 1534              		.loc 2 100 20 is_stmt 0
 1535 06ec 17050000 		lla	a0,.LC21
 1535      13050500 
 1536 06f4 97000000 		call	_Z11printStringPKc@plt
 1536      E7800000 
 1537              	.LVL172:
 100:test/../test/ConsumerProducer_CPP_API_test.hpp ****         printString(" i velicina bafera "); printInt(n);
 1538              		.loc 2 100 44 is_stmt 1
 100:test/../test/ConsumerProducer_CPP_API_test.hpp ****         printString(" i velicina bafera "); printInt(n);
 1539              		.loc 2 100 52 is_stmt 0
 1540 06fc 13060000 		li	a2,0
 1541 0700 9305A000 		li	a1,10
 1542 0704 13850900 		mv	a0,s3
 1543 0708 97000000 		call	_Z8printIntiii@plt
 1543      E7800000 
 1544              	.LVL173:
 101:test/../test/ConsumerProducer_CPP_API_test.hpp ****         printString(".\n");
 1545              		.loc 2 101 9 is_stmt 1
GAS LISTING /tmp/cciyzRgz.s 			page 41


 101:test/../test/ConsumerProducer_CPP_API_test.hpp ****         printString(".\n");
 1546              		.loc 2 101 20 is_stmt 0
 1547 0710 17050000 		lla	a0,.LC22
 1547      13050500 
 1548 0718 97000000 		call	_Z11printStringPKc@plt
 1548      E7800000 
 1549              	.LVL174:
 101:test/../test/ConsumerProducer_CPP_API_test.hpp ****         printString(".\n");
 1550              		.loc 2 101 45 is_stmt 1
 101:test/../test/ConsumerProducer_CPP_API_test.hpp ****         printString(".\n");
 1551              		.loc 2 101 53 is_stmt 0
 1552 0720 13060000 		li	a2,0
 1553 0724 9305A000 		li	a1,10
 1554 0728 13850400 		mv	a0,s1
 1555 072c 97000000 		call	_Z8printIntiii@plt
 1555      E7800000 
 1556              	.LVL175:
 102:test/../test/ConsumerProducer_CPP_API_test.hpp **** 
 1557              		.loc 2 102 9 is_stmt 1
 102:test/../test/ConsumerProducer_CPP_API_test.hpp **** 
 1558              		.loc 2 102 20 is_stmt 0
 1559 0734 17050000 		lla	a0,.LC23
 1559      13050500 
 1560 073c 97000000 		call	_Z11printStringPKc@plt
 1560      E7800000 
 1561              	.LVL176:
 104:test/../test/ConsumerProducer_CPP_API_test.hpp ****             printString("Broj proizvodjaca ne sme biti manji od velicine bafera!\n");
 1562              		.loc 2 104 9 is_stmt 1
 1563 0744 63C43403 		bgt	s3,s1,.L100
 107:test/../test/ConsumerProducer_CPP_API_test.hpp ****             printString("Broj proizvodjaca mora biti veci od nula!\n");
 1564              		.loc 2 107 16
 1565 0748 635C3003 		blez	s3,.L101
 112:test/../test/ConsumerProducer_CPP_API_test.hpp **** 
 1566              		.loc 2 112 9
 112:test/../test/ConsumerProducer_CPP_API_test.hpp **** 
 1567              		.loc 2 112 44 is_stmt 0
 1568 074c 13058003 		li	a0,56
 1569 0750 97000000 		call	_Znwm@plt
 1569      E7800000 
 1570              	.LVL177:
 1571              	.LEHE0:
 1572 0758 930A0500 		mv	s5,a0
 1573 075c 93850400 		mv	a1,s1
 1574              	.LEHB1:
 1575 0760 97000000 		call	_ZN9BufferCPPC1Ei@plt
 1575      E7800000 
 1576              	.LVL178:
 1577              	.LEHE1:
 1578 0768 6F000003 		j	.L102
 1579              	.L100:
 105:test/../test/ConsumerProducer_CPP_API_test.hpp ****             return;
 1580              		.loc 2 105 13 is_stmt 1
 105:test/../test/ConsumerProducer_CPP_API_test.hpp ****             return;
 1581              		.loc 2 105 24 is_stmt 0
 1582 076c 17050000 		lla	a0,.LC24
 1582      13050500 
 1583              	.LEHB2:
GAS LISTING /tmp/cciyzRgz.s 			page 42


 1584 0774 97000000 		call	_Z11printStringPKc@plt
 1584      E7800000 
 1585              	.LVL179:
 106:test/../test/ConsumerProducer_CPP_API_test.hpp ****         } else if (threadNum < 1) {
 1586              		.loc 2 106 13 is_stmt 1
 1587 077c 6F004001 		j	.L76
 1588              	.L101:
 108:test/../test/ConsumerProducer_CPP_API_test.hpp ****             return;
 1589              		.loc 2 108 13
 108:test/../test/ConsumerProducer_CPP_API_test.hpp ****             return;
 1590              		.loc 2 108 24 is_stmt 0
 1591 0780 17050000 		lla	a0,.LC25
 1591      13050500 
 1592 0788 97000000 		call	_Z11printStringPKc@plt
 1592      E7800000 
 1593              	.LVL180:
 109:test/../test/ConsumerProducer_CPP_API_test.hpp ****         }
 1594              		.loc 2 109 13 is_stmt 1
 1595              	.L76:
 1596 0790 13010C00 		mv	sp,s8
 1597 0794 6F00C021 		j	.L74
 1598              	.L102:
 1599              	.LVL181:
 114:test/../test/ConsumerProducer_CPP_API_test.hpp ****         Thread *producers[threadNum];
 1600              		.loc 2 114 9 discriminator 3
 114:test/../test/ConsumerProducer_CPP_API_test.hpp ****         Thread *producers[threadNum];
 1601              		.loc 2 114 37 is_stmt 0 discriminator 3
 1602 0798 13050001 		li	a0,16
 1603 079c 97000000 		call	_Znwm@plt
 1603      E7800000 
 1604              	.LVL182:
 1605              	.LEHE2:
 1606 07a4 93040500 		mv	s1,a0
 1607              	.LVL183:
 1608 07a8 93050000 		li	a1,0
 1609              	.LEHB3:
 1610 07ac 97000000 		call	_ZN9SemaphoreC1Ej@plt
 1610      E7800000 
 1611              	.LVL184:
 1612              	.LEHE3:
 114:test/../test/ConsumerProducer_CPP_API_test.hpp ****         Thread *producers[threadNum];
 1613              		.loc 2 114 20 discriminator 3
 1614 07b4 17070000 		lla	a4,.LANCHOR0
 1614      13070700 
 1615 07bc 23389700 		sd	s1,16(a4)
 115:test/../test/ConsumerProducer_CPP_API_test.hpp ****         thread_data threadData[threadNum + 1];
 1616              		.loc 2 115 9 is_stmt 1 discriminator 3
 1617              	.LVL185:
 115:test/../test/ConsumerProducer_CPP_API_test.hpp ****         thread_data threadData[threadNum + 1];
 1618              		.loc 2 115 17 is_stmt 0 discriminator 3
 1619 07c0 93973900 		slli	a5,s3,3
 1620 07c4 9387F700 		addi	a5,a5,15
 1621 07c8 93F707FF 		andi	a5,a5,-16
 1622 07cc 3301F140 		sub	sp,sp,a5
 1623 07d0 130A0100 		mv	s4,sp
 1624              	.LVL186:
 116:test/../test/ConsumerProducer_CPP_API_test.hpp **** 
GAS LISTING /tmp/cciyzRgz.s 			page 43


 1625              		.loc 2 116 9 is_stmt 1 discriminator 3
 116:test/../test/ConsumerProducer_CPP_API_test.hpp **** 
 1626              		.loc 2 116 42 is_stmt 0 discriminator 3
 1627 07d4 9B861900 		addiw	a3,s3,1
 1628              	.LVL187:
 116:test/../test/ConsumerProducer_CPP_API_test.hpp **** 
 1629              		.loc 2 116 21 discriminator 3
 1630 07d8 93971600 		slli	a5,a3,1
 1631 07dc B387D700 		add	a5,a5,a3
 1632 07e0 93973700 		slli	a5,a5,3
 1633 07e4 9387F700 		addi	a5,a5,15
 1634 07e8 93F707FF 		andi	a5,a5,-16
 1635 07ec 3301F140 		sub	sp,sp,a5
 1636              	.LVL188:
 1637 07f0 130B0100 		mv	s6,sp
 1638              	.LVL189:
 118:test/../test/ConsumerProducer_CPP_API_test.hpp ****         threadData[threadNum].buffer = buffer;
 1639              		.loc 2 118 9 is_stmt 1 discriminator 3
 118:test/../test/ConsumerProducer_CPP_API_test.hpp ****         threadData[threadNum].buffer = buffer;
 1640              		.loc 2 118 34 is_stmt 0 discriminator 3
 1641 07f4 93941900 		slli	s1,s3,1
 1642 07f8 B3843401 		add	s1,s1,s3
 1643 07fc 93943400 		slli	s1,s1,3
 1644 0800 B3049B00 		add	s1,s6,s1
 1645 0804 23A03401 		sw	s3,0(s1)
 119:test/../test/ConsumerProducer_CPP_API_test.hpp ****         threadData[threadNum].sem = waitForAll;
 1646              		.loc 2 119 9 is_stmt 1 discriminator 3
 119:test/../test/ConsumerProducer_CPP_API_test.hpp ****         threadData[threadNum].sem = waitForAll;
 1647              		.loc 2 119 38 is_stmt 0 discriminator 3
 1648 0808 23B45401 		sd	s5,8(s1)
 120:test/../test/ConsumerProducer_CPP_API_test.hpp ****         Thread *consumer = new Consumer(&threadData[threadNum]);
 1649              		.loc 2 120 9 is_stmt 1 discriminator 3
 120:test/../test/ConsumerProducer_CPP_API_test.hpp ****         Thread *consumer = new Consumer(&threadData[threadNum]);
 1650              		.loc 2 120 35 is_stmt 0 discriminator 3
 1651 080c 83370701 		ld	a5,16(a4)
 1652 0810 23B8F400 		sd	a5,16(s1)
 121:test/../test/ConsumerProducer_CPP_API_test.hpp ****         consumer->start();
 1653              		.loc 2 121 9 is_stmt 1 discriminator 3
 121:test/../test/ConsumerProducer_CPP_API_test.hpp ****         consumer->start();
 1654              		.loc 2 121 63 is_stmt 0 discriminator 3
 1655 0814 13058001 		li	a0,24
 1656              	.LEHB4:
 1657 0818 97000000 		call	_Znwm@plt
 1657      E7800000 
 1658              	.LVL190:
 1659              	.LEHE4:
 1660 0820 930B0500 		mv	s7,a0
 1661              	.LVL191:
 1662              	.LEHB5:
 1663              	.LBB51:
 1664              	.LBB52:
  64:test/../test/ConsumerProducer_CPP_API_test.hpp **** 
 1665              		.loc 2 64 54 discriminator 3
 1666 0824 97000000 		call	_ZN6ThreadC2Ev@plt
 1666      E7800000 
 1667              	.LVL192:
 1668              	.LEHE5:
GAS LISTING /tmp/cciyzRgz.s 			page 44


  64:test/../test/ConsumerProducer_CPP_API_test.hpp **** 
 1669              		.loc 2 64 54
 1670 082c 97070000 		lla	a5,_ZTVN19ConsumerProducerCPP8ConsumerE+16
 1670      93870700 
 1671 0834 23B0FB00 		sd	a5,0(s7)
 1672 0838 23B89B00 		sd	s1,16(s7)
 1673              	.LVL193:
 1674              	.LBE52:
 1675              	.LBE51:
 122:test/../test/ConsumerProducer_CPP_API_test.hpp **** 
 1676              		.loc 2 122 9 is_stmt 1
 122:test/../test/ConsumerProducer_CPP_API_test.hpp **** 
 1677              		.loc 2 122 24 is_stmt 0
 1678 083c 13850B00 		mv	a0,s7
 1679              	.LEHB6:
 1680 0840 97000000 		call	_ZN6Thread5startEv@plt
 1680      E7800000 
 1681              	.LVL194:
 124:test/../test/ConsumerProducer_CPP_API_test.hpp ****         threadData[0].buffer = buffer;
 1682              		.loc 2 124 9 is_stmt 1
 124:test/../test/ConsumerProducer_CPP_API_test.hpp ****         threadData[0].buffer = buffer;
 1683              		.loc 2 124 26 is_stmt 0
 1684 0848 23200B00 		sw	zero,0(s6)
 125:test/../test/ConsumerProducer_CPP_API_test.hpp ****         threadData[0].sem = waitForAll;
 1685              		.loc 2 125 9 is_stmt 1
 125:test/../test/ConsumerProducer_CPP_API_test.hpp ****         threadData[0].sem = waitForAll;
 1686              		.loc 2 125 30 is_stmt 0
 1687 084c 23345B01 		sd	s5,8(s6)
 126:test/../test/ConsumerProducer_CPP_API_test.hpp ****         producers[0] = new ProducerKeyborad(&threadData[0]);
 1688              		.loc 2 126 9 is_stmt 1
 126:test/../test/ConsumerProducer_CPP_API_test.hpp ****         producers[0] = new ProducerKeyborad(&threadData[0]);
 1689              		.loc 2 126 27 is_stmt 0
 1690 0850 97070000 		ld	a5,.LANCHOR0+16
 1690      83B70700 
 1691 0858 2338FB00 		sd	a5,16(s6)
 127:test/../test/ConsumerProducer_CPP_API_test.hpp ****         producers[0]->start();
 1692              		.loc 2 127 9 is_stmt 1
 127:test/../test/ConsumerProducer_CPP_API_test.hpp ****         producers[0]->start();
 1693              		.loc 2 127 59 is_stmt 0
 1694 085c 13058001 		li	a0,24
 1695 0860 97000000 		call	_Znwm@plt
 1695      E7800000 
 1696              	.LVL195:
 1697              	.LEHE6:
 1698 0868 93040500 		mv	s1,a0
 1699              	.LVL196:
 1700              	.LEHB7:
 1701              	.LBB53:
 1702              	.LBB54:
  28:test/../test/ConsumerProducer_CPP_API_test.hpp **** 
 1703              		.loc 2 28 62
 1704 086c 97000000 		call	_ZN6ThreadC2Ev@plt
 1704      E7800000 
 1705              	.LVL197:
 1706              	.LEHE7:
 1707 0874 97070000 		lla	a5,_ZTVN19ConsumerProducerCPP16ProducerKeyboradE+16
 1707      93870700 
GAS LISTING /tmp/cciyzRgz.s 			page 45


 1708 087c 23B0F400 		sd	a5,0(s1)
 1709 0880 23B86401 		sd	s6,16(s1)
 1710              	.LVL198:
 1711              	.LBE54:
 1712              	.LBE53:
 127:test/../test/ConsumerProducer_CPP_API_test.hpp ****         producers[0]->start();
 1713              		.loc 2 127 22
 1714 0884 23309A00 		sd	s1,0(s4)
 128:test/../test/ConsumerProducer_CPP_API_test.hpp **** 
 1715              		.loc 2 128 9 is_stmt 1
 128:test/../test/ConsumerProducer_CPP_API_test.hpp **** 
 1716              		.loc 2 128 28 is_stmt 0
 1717 0888 13850400 		mv	a0,s1
 1718              	.LEHB8:
 1719 088c 97000000 		call	_ZN6Thread5startEv@plt
 1719      E7800000 
 1720              	.LVL199:
 1721              	.LBB55:
 130:test/../test/ConsumerProducer_CPP_API_test.hpp ****             threadData[i].id = i;
 1722              		.loc 2 130 18
 1723 0894 13091000 		li	s2,1
 1724 0898 6F000003 		j	.L79
 1725              	.LVL200:
 1726              	.L103:
 1727              	.LBB56:
 1728              	.LBB57:
  47:test/../test/ConsumerProducer_CPP_API_test.hpp **** 
 1729              		.loc 2 47 54
 1730 089c 97070000 		lla	a5,_ZTVN19ConsumerProducerCPP8ProducerE+16
 1730      93870700 
 1731 08a4 23B0FC00 		sd	a5,0(s9)
 1732 08a8 23B89C00 		sd	s1,16(s9)
 1733              	.LVL201:
 1734              	.LBE57:
 1735              	.LBE56:
 135:test/../test/ConsumerProducer_CPP_API_test.hpp ****             producers[i]->start();
 1736              		.loc 2 135 26
 1737 08ac 93173900 		slli	a5,s2,3
 1738 08b0 B307FA00 		add	a5,s4,a5
 1739 08b4 23B09701 		sd	s9,0(a5)
 136:test/../test/ConsumerProducer_CPP_API_test.hpp **** 
 1740              		.loc 2 136 13 is_stmt 1
 136:test/../test/ConsumerProducer_CPP_API_test.hpp **** 
 1741              		.loc 2 136 32 is_stmt 0
 1742 08b8 13850C00 		mv	a0,s9
 1743 08bc 97000000 		call	_ZN6Thread5startEv@plt
 1743      E7800000 
 1744              	.LVL202:
 130:test/../test/ConsumerProducer_CPP_API_test.hpp ****             threadData[i].id = i;
 1745              		.loc 2 130 9 is_stmt 1
 1746 08c4 1B091900 		addiw	s2,s2,1
 1747              	.LVL203:
 1748              	.L79:
 130:test/../test/ConsumerProducer_CPP_API_test.hpp ****             threadData[i].id = i;
 1749              		.loc 2 130 27 discriminator 1
 1750 08c8 63523905 		bge	s2,s3,.L78
 131:test/../test/ConsumerProducer_CPP_API_test.hpp ****             threadData[i].buffer = buffer;
GAS LISTING /tmp/cciyzRgz.s 			page 46


 1751              		.loc 2 131 13
 131:test/../test/ConsumerProducer_CPP_API_test.hpp ****             threadData[i].buffer = buffer;
 1752              		.loc 2 131 30 is_stmt 0
 1753 08cc 93141900 		slli	s1,s2,1
 1754 08d0 B3842401 		add	s1,s1,s2
 1755 08d4 93943400 		slli	s1,s1,3
 1756 08d8 B3049B00 		add	s1,s6,s1
 1757 08dc 23A02401 		sw	s2,0(s1)
 132:test/../test/ConsumerProducer_CPP_API_test.hpp ****             threadData[i].sem = waitForAll;
 1758              		.loc 2 132 13 is_stmt 1
 132:test/../test/ConsumerProducer_CPP_API_test.hpp ****             threadData[i].sem = waitForAll;
 1759              		.loc 2 132 34 is_stmt 0
 1760 08e0 23B45401 		sd	s5,8(s1)
 133:test/../test/ConsumerProducer_CPP_API_test.hpp **** 
 1761              		.loc 2 133 13 is_stmt 1
 133:test/../test/ConsumerProducer_CPP_API_test.hpp **** 
 1762              		.loc 2 133 31 is_stmt 0
 1763 08e4 97070000 		ld	a5,.LANCHOR0+16
 1763      83B70700 
 1764 08ec 23B8F400 		sd	a5,16(s1)
 135:test/../test/ConsumerProducer_CPP_API_test.hpp ****             producers[i]->start();
 1765              		.loc 2 135 13 is_stmt 1
 135:test/../test/ConsumerProducer_CPP_API_test.hpp ****             producers[i]->start();
 1766              		.loc 2 135 55 is_stmt 0
 1767 08f0 13058001 		li	a0,24
 1768 08f4 97000000 		call	_Znwm@plt
 1768      E7800000 
 1769              	.LVL204:
 1770              	.LEHE8:
 1771 08fc 930C0500 		mv	s9,a0
 1772              	.LVL205:
 1773              	.LEHB9:
 1774              	.LBB59:
 1775              	.LBB58:
  47:test/../test/ConsumerProducer_CPP_API_test.hpp **** 
 1776              		.loc 2 47 54
 1777 0900 97000000 		call	_ZN6ThreadC2Ev@plt
 1777      E7800000 
 1778              	.LVL206:
 1779              	.LEHE9:
 1780 0908 6FF05FF9 		j	.L103
 1781              	.LVL207:
 1782              	.L78:
 1783              	.LBE58:
 1784              	.LBE59:
 1785              	.LBE55:
 140:test/../test/ConsumerProducer_CPP_API_test.hpp **** 
 1786              		.loc 2 140 9 is_stmt 1
 1787              	.LEHB10:
 140:test/../test/ConsumerProducer_CPP_API_test.hpp **** 
 1788              		.loc 2 140 25 is_stmt 0
 1789 090c 97000000 		call	_ZN6Thread8dispatchEv@plt
 1789      E7800000 
 1790              	.LVL208:
 1791              	.LBB60:
 142:test/../test/ConsumerProducer_CPP_API_test.hpp ****             waitForAll->wait();
 1792              		.loc 2 142 18
GAS LISTING /tmp/cciyzRgz.s 			page 47


 1793 0914 93040000 		li	s1,0
 1794              	.L81:
 1795              	.LVL209:
 142:test/../test/ConsumerProducer_CPP_API_test.hpp ****             waitForAll->wait();
 1796              		.loc 2 142 27 is_stmt 1 discriminator 1
 1797 0918 63CE9900 		bgt	s1,s3,.L80
 143:test/../test/ConsumerProducer_CPP_API_test.hpp ****         }
 1798              		.loc 2 143 13
 143:test/../test/ConsumerProducer_CPP_API_test.hpp ****         }
 1799              		.loc 2 143 29 is_stmt 0
 1800 091c 17050000 		ld	a0,.LANCHOR0+16
 1800      03350500 
 1801 0924 97000000 		call	_ZN9Semaphore4waitEv@plt
 1801      E7800000 
 1802              	.LVL210:
 142:test/../test/ConsumerProducer_CPP_API_test.hpp ****             waitForAll->wait();
 1803              		.loc 2 142 9 is_stmt 1
 1804 092c 9B841400 		addiw	s1,s1,1
 1805              	.LVL211:
 1806 0930 6FF09FFE 		j	.L81
 1807              	.LVL212:
 1808              	.L80:
 1809              	.LBE60:
 146:test/../test/ConsumerProducer_CPP_API_test.hpp ****         for (int i = 0; i < threadNum; i++) {
 1810              		.loc 2 146 9
 146:test/../test/ConsumerProducer_CPP_API_test.hpp ****         for (int i = 0; i < threadNum; i++) {
 1811              		.loc 2 146 16 is_stmt 0
 1812 0934 17050000 		ld	a0,.LANCHOR0+16
 1812      03350500 
 146:test/../test/ConsumerProducer_CPP_API_test.hpp ****         for (int i = 0; i < threadNum; i++) {
 1813              		.loc 2 146 26
 1814 093c 63080500 		beqz	a0,.L82
 146:test/../test/ConsumerProducer_CPP_API_test.hpp ****         for (int i = 0; i < threadNum; i++) {
 1815              		.loc 2 146 16 discriminator 1
 1816 0940 83370500 		ld	a5,0(a0)
 1817 0944 83B78700 		ld	a5,8(a5)
 1818 0948 E7800700 		jalr	a5
 1819              	.LVL213:
 1820              	.L82:
 1821              	.LBB61:
 142:test/../test/ConsumerProducer_CPP_API_test.hpp ****             waitForAll->wait();
 1822              		.loc 2 142 18 discriminator 1
 1823 094c 93040000 		li	s1,0
 1824              	.LVL214:
 1825 0950 6F008000 		j	.L85
 1826              	.LVL215:
 1827              	.L84:
 1828              	.LBE61:
 1829              	.LBB62:
 147:test/../test/ConsumerProducer_CPP_API_test.hpp ****             delete producers[i];
 1830              		.loc 2 147 9 is_stmt 1 discriminator 2
 1831 0954 9B841400 		addiw	s1,s1,1
 1832              	.LVL216:
 1833              	.L85:
 147:test/../test/ConsumerProducer_CPP_API_test.hpp ****             delete producers[i];
 1834              		.loc 2 147 27 discriminator 1
 1835 0958 63D23403 		bge	s1,s3,.L83
GAS LISTING /tmp/cciyzRgz.s 			page 48


 148:test/../test/ConsumerProducer_CPP_API_test.hpp ****         }
 1836              		.loc 2 148 13
 148:test/../test/ConsumerProducer_CPP_API_test.hpp ****         }
 1837              		.loc 2 148 31 is_stmt 0
 1838 095c 93973400 		slli	a5,s1,3
 1839 0960 B307FA00 		add	a5,s4,a5
 1840 0964 03B50700 		ld	a0,0(a5)
 148:test/../test/ConsumerProducer_CPP_API_test.hpp ****         }
 1841              		.loc 2 148 32
 1842 0968 E30605FE 		beqz	a0,.L84
 148:test/../test/ConsumerProducer_CPP_API_test.hpp ****         }
 1843              		.loc 2 148 31 discriminator 1
 1844 096c 83370500 		ld	a5,0(a0)
 1845 0970 83B78700 		ld	a5,8(a5)
 1846 0974 E7800700 		jalr	a5
 1847              	.LVL217:
 1848 0978 6FF0DFFD 		j	.L84
 1849              	.L83:
 1850              	.LBE62:
 150:test/../test/ConsumerProducer_CPP_API_test.hpp ****         delete buffer;
 1851              		.loc 2 150 9 is_stmt 1
 150:test/../test/ConsumerProducer_CPP_API_test.hpp ****         delete buffer;
 1852              		.loc 2 150 24 is_stmt 0
 1853 097c 638A0B00 		beqz	s7,.L86
 150:test/../test/ConsumerProducer_CPP_API_test.hpp ****         delete buffer;
 1854              		.loc 2 150 16 discriminator 1
 1855 0980 83B70B00 		ld	a5,0(s7)
 1856 0984 83B78700 		ld	a5,8(a5)
 1857 0988 13850B00 		mv	a0,s7
 1858 098c E7800700 		jalr	a5
 1859              	.LVL218:
 1860              	.L86:
 1861              		.loc 2 151 9 is_stmt 1
 1862              		.loc 2 151 22 is_stmt 0
 1863 0990 638E0A00 		beqz	s5,.L87
 1864              		.loc 2 151 16 discriminator 1
 1865 0994 13850A00 		mv	a0,s5
 1866 0998 97000000 		call	_ZN9BufferCPPD1Ev@plt
 1866      E7800000 
 1867              	.LVL219:
 1868 09a0 13850A00 		mv	a0,s5
 1869 09a4 97000000 		call	_ZdlPv@plt
 1869      E7800000 
 1870              	.LVL220:
 1871              	.LEHE10:
 1872              	.L87:
 1873 09ac 13010C00 		mv	sp,s8
 1874              	.LVL221:
 1875              	.L74:
 152:test/../test/ConsumerProducer_CPP_API_test.hpp ****     }
 1876              		.loc 2 152 5
 1877 09b0 130104F8 		addi	sp,s0,-128
 1878              		.cfi_remember_state
 1879              		.cfi_def_cfa 2, 128
 1880 09b4 83308107 		ld	ra,120(sp)
 1881              		.cfi_restore 1
 1882 09b8 03340107 		ld	s0,112(sp)
GAS LISTING /tmp/cciyzRgz.s 			page 49


 1883              		.cfi_restore 8
 1884 09bc 83348106 		ld	s1,104(sp)
 1885              		.cfi_restore 9
 1886 09c0 03390106 		ld	s2,96(sp)
 1887              		.cfi_restore 18
 1888 09c4 83398105 		ld	s3,88(sp)
 1889              		.cfi_restore 19
 1890              	.LVL222:
 1891 09c8 033A0105 		ld	s4,80(sp)
 1892              		.cfi_restore 20
 1893 09cc 833A8104 		ld	s5,72(sp)
 1894              		.cfi_restore 21
 1895 09d0 033B0104 		ld	s6,64(sp)
 1896              		.cfi_restore 22
 1897 09d4 833B8103 		ld	s7,56(sp)
 1898              		.cfi_restore 23
 1899 09d8 033C0103 		ld	s8,48(sp)
 1900              		.cfi_restore 24
 1901 09dc 833C8102 		ld	s9,40(sp)
 1902              		.cfi_restore 25
 1903 09e0 13010108 		addi	sp,sp,128
 1904              		.cfi_def_cfa_offset 0
 1905 09e4 67800000 		jr	ra
 1906              	.LVL223:
 1907              	.L94:
 1908              		.cfi_restore_state
 1909 09e8 93040500 		mv	s1,a0
 1910              	.LVL224:
 112:test/../test/ConsumerProducer_CPP_API_test.hpp **** 
 1911              		.loc 2 112 44
 1912 09ec 13850A00 		mv	a0,s5
 1913 09f0 97000000 		call	_ZdlPv@plt
 1913      E7800000 
 1914              	.LVL225:
 1915 09f8 13850400 		mv	a0,s1
 1916              	.LEHB11:
 1917 09fc 97000000 		call	_Unwind_Resume@plt
 1917      E7800000 
 1918              	.LVL226:
 1919              	.LEHE11:
 1920              	.L95:
 1921 0a04 13090500 		mv	s2,a0
 114:test/../test/ConsumerProducer_CPP_API_test.hpp ****         Thread *producers[threadNum];
 1922              		.loc 2 114 37
 1923 0a08 13850400 		mv	a0,s1
 1924 0a0c 97000000 		call	_ZdlPv@plt
 1924      E7800000 
 1925              	.LVL227:
 1926 0a14 13050900 		mv	a0,s2
 1927              	.LEHB12:
 1928 0a18 97000000 		call	_Unwind_Resume@plt
 1928      E7800000 
 1929              	.LVL228:
 1930              	.LEHE12:
 1931              	.L96:
 1932 0a20 93040500 		mv	s1,a0
 1933              	.LVL229:
GAS LISTING /tmp/cciyzRgz.s 			page 50


 121:test/../test/ConsumerProducer_CPP_API_test.hpp ****         consumer->start();
 1934              		.loc 2 121 63
 1935 0a24 13850B00 		mv	a0,s7
 1936 0a28 97000000 		call	_ZdlPv@plt
 1936      E7800000 
 1937              	.LVL230:
 1938 0a30 13850400 		mv	a0,s1
 1939              	.LEHB13:
 1940 0a34 97000000 		call	_Unwind_Resume@plt
 1940      E7800000 
 1941              	.LVL231:
 1942              	.LEHE13:
 1943              	.L97:
 1944 0a3c 13090500 		mv	s2,a0
 127:test/../test/ConsumerProducer_CPP_API_test.hpp ****         producers[0]->start();
 1945              		.loc 2 127 59
 1946 0a40 13850400 		mv	a0,s1
 1947 0a44 97000000 		call	_ZdlPv@plt
 1947      E7800000 
 1948              	.LVL232:
 1949 0a4c 13050900 		mv	a0,s2
 1950              	.LEHB14:
 1951 0a50 97000000 		call	_Unwind_Resume@plt
 1951      E7800000 
 1952              	.LVL233:
 1953              	.LEHE14:
 1954              	.L98:
 1955 0a58 93040500 		mv	s1,a0
 1956              	.LVL234:
 1957              	.LBB63:
 135:test/../test/ConsumerProducer_CPP_API_test.hpp ****             producers[i]->start();
 1958              		.loc 2 135 55
 1959 0a5c 13850C00 		mv	a0,s9
 1960 0a60 97000000 		call	_ZdlPv@plt
 1960      E7800000 
 1961              	.LVL235:
 1962 0a68 13850400 		mv	a0,s1
 1963              	.LEHB15:
 1964 0a6c 97000000 		call	_Unwind_Resume@plt
 1964      E7800000 
 1965              	.LVL236:
 1966              	.LEHE15:
 1967              	.LBE63:
 1968              		.cfi_endproc
 1969              	.LFE60:
 1970              		.globl	__gxx_personality_v0
 1971              		.section	.gcc_except_table,"a",@progbits
 1972              	.LLSDA60:
 1973 0000 FF       		.byte	0xff
 1974 0001 FF       		.byte	0xff
 1975 0002 03       		.byte	0x3
 1976 0003 D001     		.byte	0xd0,0x1
 1977 0005 00000000 		.4byte	.LEHB0-.LFB60
 1978 0009 00000000 		.4byte	.LEHE0-.LEHB0
 1979 000d 00000000 		.4byte	0
 1980 0011 00       		.byte	0
 1981 0012 00000000 		.4byte	.LEHB1-.LFB60
GAS LISTING /tmp/cciyzRgz.s 			page 51


 1982 0016 00000000 		.4byte	.LEHE1-.LEHB1
 1983 001a 00000000 		.4byte	.L94-.LFB60
 1984 001e 00       		.byte	0
 1985 001f 00000000 		.4byte	.LEHB2-.LFB60
 1986 0023 00000000 		.4byte	.LEHE2-.LEHB2
 1987 0027 00000000 		.4byte	0
 1988 002b 00       		.byte	0
 1989 002c 00000000 		.4byte	.LEHB3-.LFB60
 1990 0030 00000000 		.4byte	.LEHE3-.LEHB3
 1991 0034 00000000 		.4byte	.L95-.LFB60
 1992 0038 00       		.byte	0
 1993 0039 00000000 		.4byte	.LEHB4-.LFB60
 1994 003d 00000000 		.4byte	.LEHE4-.LEHB4
 1995 0041 00000000 		.4byte	0
 1996 0045 00       		.byte	0
 1997 0046 00000000 		.4byte	.LEHB5-.LFB60
 1998 004a 00000000 		.4byte	.LEHE5-.LEHB5
 1999 004e 00000000 		.4byte	.L96-.LFB60
 2000 0052 00       		.byte	0
 2001 0053 00000000 		.4byte	.LEHB6-.LFB60
 2002 0057 00000000 		.4byte	.LEHE6-.LEHB6
 2003 005b 00000000 		.4byte	0
 2004 005f 00       		.byte	0
 2005 0060 00000000 		.4byte	.LEHB7-.LFB60
 2006 0064 00000000 		.4byte	.LEHE7-.LEHB7
 2007 0068 00000000 		.4byte	.L97-.LFB60
 2008 006c 00       		.byte	0
 2009 006d 00000000 		.4byte	.LEHB8-.LFB60
 2010 0071 00000000 		.4byte	.LEHE8-.LEHB8
 2011 0075 00000000 		.4byte	0
 2012 0079 00       		.byte	0
 2013 007a 00000000 		.4byte	.LEHB9-.LFB60
 2014 007e 00000000 		.4byte	.LEHE9-.LEHB9
 2015 0082 00000000 		.4byte	.L98-.LFB60
 2016 0086 00       		.byte	0
 2017 0087 00000000 		.4byte	.LEHB10-.LFB60
 2018 008b 00000000 		.4byte	.LEHE10-.LEHB10
 2019 008f 00000000 		.4byte	0
 2020 0093 00       		.byte	0
 2021 0094 00000000 		.4byte	.LEHB11-.LFB60
 2022 0098 00000000 		.4byte	.LEHE11-.LEHB11
 2023 009c 00000000 		.4byte	0
 2024 00a0 00       		.byte	0
 2025 00a1 00000000 		.4byte	.LEHB12-.LFB60
 2026 00a5 00000000 		.4byte	.LEHE12-.LEHB12
 2027 00a9 00000000 		.4byte	0
 2028 00ad 00       		.byte	0
 2029 00ae 00000000 		.4byte	.LEHB13-.LFB60
 2030 00b2 00000000 		.4byte	.LEHE13-.LEHB13
 2031 00b6 00000000 		.4byte	0
 2032 00ba 00       		.byte	0
 2033 00bb 00000000 		.4byte	.LEHB14-.LFB60
 2034 00bf 00000000 		.4byte	.LEHE14-.LEHB14
 2035 00c3 00000000 		.4byte	0
 2036 00c7 00       		.byte	0
 2037 00c8 00000000 		.4byte	.LEHB15-.LFB60
 2038 00cc 00000000 		.4byte	.LEHE15-.LEHB15
GAS LISTING /tmp/cciyzRgz.s 			page 52


 2039 00d0 00000000 		.4byte	0
 2040 00d4 00       		.byte	0
 2041              		.text
 2043              		.align	2
 2044              		.globl	_Z8userMainv
 2046              	_Z8userMainv:
 2047              	.LFB65:
 2048              		.file 3 "test/userMain.cpp"
   1:test/userMain.cpp **** #include "../test/userMain.hpp"
   2:test/userMain.cpp **** #include "../test/Threads_C_API_test.hpp" // zadatak 2, niti C API i sinhrona promena konteksta
   3:test/userMain.cpp **** //#include "../test/Threads_CPP_API_test.hpp" // zadatak 2., niti CPP API i sinhrona promena kontek
   4:test/userMain.cpp **** 
   5:test/userMain.cpp **** //#include "../test/ConsumerProducer_C_API_test.h" // zadatak 3., kompletan C API sa semaforima, si
   6:test/userMain.cpp **** //#include "../test/ConsumerProducer_CPP_Sync_API_test.hpp" // zadatak 3., kompletan CPP API sa sem
   7:test/userMain.cpp **** 
   8:test/userMain.cpp **** //#include "../test/ThreadSleep_C_API_test.hpp" // thread_sleep test C API
   9:test/userMain.cpp **** #include "../test/ConsumerProducer_CPP_API_test.hpp" // zadatak 4. CPP API i asinhrona promena kont
  10:test/userMain.cpp **** //#include "../test/testPrenosParametara.hpp"
  11:test/userMain.cpp **** //#include "../test/modif.hpp"
  12:test/userMain.cpp **** 
  13:test/userMain.cpp **** #include "../h/SlabI.h"
  14:test/userMain.cpp **** #include "../h/Buddy.h"
  15:test/userMain.cpp **** 
  16:test/userMain.cpp **** void userMain() {
 2049              		.loc 3 16 17 is_stmt 1
 2050              		.cfi_startproc
 2051 0a74 130101FE 		addi	sp,sp,-32
 2052              		.cfi_def_cfa_offset 32
 2053 0a78 233C1100 		sd	ra,24(sp)
 2054 0a7c 23388100 		sd	s0,16(sp)
 2055 0a80 23349100 		sd	s1,8(sp)
 2056              		.cfi_offset 1, -8
 2057              		.cfi_offset 8, -16
 2058              		.cfi_offset 9, -24
 2059 0a84 13040102 		addi	s0,sp,32
 2060              		.cfi_def_cfa 8, 0
  17:test/userMain.cpp **** 
  18:test/userMain.cpp ****     void * space = (void*)HEAP_START_ADDR;
 2061              		.loc 3 18 5
 2062              		.loc 3 18 12 is_stmt 0
 2063 0a88 97070000 		la	a5,HEAP_START_ADDR
 2063      83B70700 
 2064 0a90 03B50700 		ld	a0,0(a5)
 2065              	.LVL237:
  19:test/userMain.cpp ****     int block_num = ((size_t)HEAP_END_ADDR - (size_t)HEAP_START_ADDR) / 8 / BLOCK_SIZE;
 2066              		.loc 3 19 5 is_stmt 1
 2067              		.loc 3 19 44 is_stmt 0
 2068 0a94 97070000 		la	a5,HEAP_END_ADDR
 2068      83B70700 
 2069 0a9c 83B50700 		ld	a1,0(a5)
 2070 0aa0 B385A540 		sub	a1,a1,a0
 2071              		.loc 3 19 9
 2072 0aa4 93D5F500 		srli	a1,a1,15
 2073              	.LVL238:
  20:test/userMain.cpp ****     kmem_init(space, block_num);
 2074              		.loc 3 20 5 is_stmt 1
 2075              		.loc 3 20 14 is_stmt 0
GAS LISTING /tmp/cciyzRgz.s 			page 53


 2076 0aa8 9B850500 		sext.w	a1,a1
 2077 0aac 97000000 		call	_Z9kmem_initPvi@plt
 2077      E7800000 
 2078              	.LVL239:
  21:test/userMain.cpp **** 
  22:test/userMain.cpp ****     void* obj = kmalloc(32);
 2079              		.loc 3 22 5 is_stmt 1
 2080              		.loc 3 22 24 is_stmt 0
 2081 0ab4 13050002 		li	a0,32
 2082 0ab8 97000000 		call	_Z7kmallocm@plt
 2082      E7800000 
 2083              	.LVL240:
 2084 0ac0 93040500 		mv	s1,a0
 2085              	.LVL241:
  23:test/userMain.cpp ****     print_all_caches();
 2086              		.loc 3 23 5 is_stmt 1
 2087              		.loc 3 23 21 is_stmt 0
 2088 0ac4 97000000 		call	_Z16print_all_cachesv@plt
 2088      E7800000 
 2089              	.LVL242:
  24:test/userMain.cpp ****     kfree(obj);
 2090              		.loc 3 24 5 is_stmt 1
 2091              		.loc 3 24 10 is_stmt 0
 2092 0acc 13850400 		mv	a0,s1
 2093 0ad0 97000000 		call	_Z5kfreePKv@plt
 2093      E7800000 
 2094              	.LVL243:
  25:test/userMain.cpp ****     print_all_caches();
 2095              		.loc 3 25 5 is_stmt 1
 2096              		.loc 3 25 21 is_stmt 0
 2097 0ad8 97000000 		call	_Z16print_all_cachesv@plt
 2097      E7800000 
 2098              	.LVL244:
  26:test/userMain.cpp **** 
  27:test/userMain.cpp **** 
  28:test/userMain.cpp **** 
  29:test/userMain.cpp **** 
  30:test/userMain.cpp **** 
  31:test/userMain.cpp **** 
  32:test/userMain.cpp **** 
  33:test/userMain.cpp **** 
  34:test/userMain.cpp **** 
  35:test/userMain.cpp **** 
  36:test/userMain.cpp **** 
  37:test/userMain.cpp **** //    Threads_C_API_test(); // zadatak 2., niti C API i sinhrona promena konteksta
  38:test/userMain.cpp **** //    Threads_CPP_API_test(); // zadatak 2., niti CPP API i sinhrona promena konteksta
  39:test/userMain.cpp **** 
  40:test/userMain.cpp **** //    producerConsumer_C_API(); // zadatak 3., kompletan C API sa semaforima, sinhrona promena kont
  41:test/userMain.cpp **** //    producerConsumer_CPP_Sync_API(); // zadatak 3., kompletan CPP API sa semaforima, sinhrona pro
  42:test/userMain.cpp **** 
  43:test/userMain.cpp **** //    testSleeping(); // thread_sleep test C API
  44:test/userMain.cpp **** //    ConsumerProducerCPP::testConsumerProducer(); // zadatak 4. CPP API i asinhrona promena kontek
  45:test/userMain.cpp **** 
  46:test/userMain.cpp **** //    testModif();
  47:test/userMain.cpp **** //    testPrenosParametara();
  48:test/userMain.cpp **** 
  49:test/userMain.cpp **** }...
GAS LISTING /tmp/cciyzRgz.s 			page 54


 2099              		.loc 3 49 1
 2100 0ae0 83308101 		ld	ra,24(sp)
 2101              		.cfi_restore 1
 2102 0ae4 03340101 		ld	s0,16(sp)
 2103              		.cfi_restore 8
 2104              		.cfi_def_cfa 2, 32
 2105 0ae8 83348100 		ld	s1,8(sp)
 2106              		.cfi_restore 9
 2107              	.LVL245:
 2108 0aec 13010102 		addi	sp,sp,32
 2109              		.cfi_def_cfa_offset 0
 2110 0af0 67800000 		jr	ra
 2111              		.cfi_endproc
 2112              	.LFE65:
 2114              		.weak	_ZTVN19ConsumerProducerCPP16ProducerKeyboradE
 2115              		.section	.data.rel.ro.local._ZTVN19ConsumerProducerCPP16ProducerKeyboradE,"awG",@progbits,_ZTVN19C
 2116              		.align	3
 2119              	_ZTVN19ConsumerProducerCPP16ProducerKeyboradE:
 2120 0000 00000000 		.dword	0
 2120      00000000 
 2121 0008 00000000 		.dword	0
 2121      00000000 
 2122 0010 00000000 		.dword	_ZN19ConsumerProducerCPP16ProducerKeyboradD1Ev
 2122      00000000 
 2123 0018 00000000 		.dword	_ZN19ConsumerProducerCPP16ProducerKeyboradD0Ev
 2123      00000000 
 2124 0020 00000000 		.dword	_ZN19ConsumerProducerCPP16ProducerKeyborad3runEv
 2124      00000000 
 2125              		.weak	_ZTVN19ConsumerProducerCPP8ProducerE
 2126              		.section	.data.rel.ro.local._ZTVN19ConsumerProducerCPP8ProducerE,"awG",@progbits,_ZTVN19ConsumerPr
 2127              		.align	3
 2130              	_ZTVN19ConsumerProducerCPP8ProducerE:
 2131 0000 00000000 		.dword	0
 2131      00000000 
 2132 0008 00000000 		.dword	0
 2132      00000000 
 2133 0010 00000000 		.dword	_ZN19ConsumerProducerCPP8ProducerD1Ev
 2133      00000000 
 2134 0018 00000000 		.dword	_ZN19ConsumerProducerCPP8ProducerD0Ev
 2134      00000000 
 2135 0020 00000000 		.dword	_ZN19ConsumerProducerCPP8Producer3runEv
 2135      00000000 
 2136              		.weak	_ZTVN19ConsumerProducerCPP8ConsumerE
 2137              		.section	.data.rel.ro.local._ZTVN19ConsumerProducerCPP8ConsumerE,"awG",@progbits,_ZTVN19ConsumerPr
 2138              		.align	3
 2141              	_ZTVN19ConsumerProducerCPP8ConsumerE:
 2142 0000 00000000 		.dword	0
 2142      00000000 
 2143 0008 00000000 		.dword	0
 2143      00000000 
 2144 0010 00000000 		.dword	_ZN19ConsumerProducerCPP8ConsumerD1Ev
 2144      00000000 
 2145 0018 00000000 		.dword	_ZN19ConsumerProducerCPP8ConsumerD0Ev
 2145      00000000 
 2146 0020 00000000 		.dword	_ZN19ConsumerProducerCPP8Consumer3runEv
 2146      00000000 
 2147              		.globl	_ZN19ConsumerProducerCPP9threadEndE
GAS LISTING /tmp/cciyzRgz.s 			page 55


 2148              		.globl	_ZN19ConsumerProducerCPP10waitForAllE
 2149              		.globl	finishedE
 2150              		.globl	finishedD
 2151              		.globl	finishedC
 2152              		.globl	finishedB
 2153              		.globl	finishedA
 2154              		.bss
 2155              		.align	3
 2156              		.set	.LANCHOR0,. + 0
 2159              	finishedE:
 2160 0000 00       		.zero	1
 2163              	finishedA:
 2164 0001 00       		.zero	1
 2167              	finishedB:
 2168 0002 00       		.zero	1
 2169 0003 00       		.zero	1
 2172              	_ZN19ConsumerProducerCPP9threadEndE:
 2173 0004 00000000 		.zero	4
 2176              	finishedC:
 2177 0008 00       		.zero	1
 2180              	finishedD:
 2181 0009 00       		.zero	1
 2182 000a 00000000 		.zero	6
 2182      0000
 2185              	_ZN19ConsumerProducerCPP10waitForAllE:
 2186 0010 00000000 		.zero	8
 2186      00000000 
 2187              		.text
 2188              	.Letext0:
 2189              		.file 4 "test/../test/../h/../h/../h/../lib/hw.h"
 2190              		.file 5 "test/../test/../h/syscall_c.h"
 2191              		.file 6 "test/../test/../h/syscall_cpp.hpp"
 2192              		.file 7 "test/../test/buffer_CPP_API.hpp"
 2193              		.file 8 "test/../h/SlabI.h"
 2194              		.file 9 "test/../test/printing.hpp"
 7450              		.align	3
 7453              	DW.ref.__gxx_personality_v0:
 7454 0000 00000000 		.dword	__gxx_personality_v0
 7454      00000000 
 7455              		.ident	"GCC: (Ubuntu 9.4.0-1ubuntu1~20.04) 9.4.0"
 7456              		.section	.note.GNU-stack,"",@progbits
GAS LISTING /tmp/cciyzRgz.s 			page 56


DEFINED SYMBOLS
                            *ABS*:0000000000000000 userMain.cpp
     /tmp/cciyzRgz.s:14     .text:0000000000000000 _Z11workerBodyEPv
     /tmp/cciyzRgz.s:18     .text:0000000000000000 .L0 
     /tmp/cciyzRgz.s:20     .text:0000000000000000 .L0 
     /tmp/cciyzRgz.s:21     .text:0000000000000004 .L0 
     /tmp/cciyzRgz.s:24     .text:000000000000000c .L0 
     /tmp/cciyzRgz.s:25     .text:000000000000000c .L0 
     /tmp/cciyzRgz.s:27     .text:0000000000000010 .L0 
     /tmp/cciyzRgz.s:29     .text:0000000000000010 .L0 
     /tmp/cciyzRgz.s:30     .text:0000000000000010 .L0 
     /tmp/cciyzRgz.s:35     .text:0000000000000020 .L0 
     /tmp/cciyzRgz.s:36     .text:0000000000000020 .L0 
     /tmp/cciyzRgz.s:39     .text:000000000000002c .L0 
     /tmp/cciyzRgz.s:40     .text:000000000000002c .L0 
     /tmp/cciyzRgz.s:43     .text:0000000000000034 .L0 
     /tmp/cciyzRgz.s:44     .text:0000000000000038 .L0 
     /tmp/cciyzRgz.s:46     .text:000000000000003c .L0 
     /tmp/cciyzRgz.s:47     .text:000000000000003c .L0 
     /tmp/cciyzRgz.s:49     .text:0000000000000040 .L0 
     /tmp/cciyzRgz.s:51     .text:0000000000000044 .L0 
     /tmp/cciyzRgz.s:68     .text:0000000000000044 _Z11workerBodyAPv
     /tmp/cciyzRgz.s:71     .text:0000000000000044 .L0 
     /tmp/cciyzRgz.s:73     .text:0000000000000044 .L0 
     /tmp/cciyzRgz.s:74     .text:0000000000000048 .L0 
     /tmp/cciyzRgz.s:79     .text:0000000000000058 .L0 
     /tmp/cciyzRgz.s:80     .text:0000000000000058 .L0 
     /tmp/cciyzRgz.s:81     .text:0000000000000058 .L0 
     /tmp/cciyzRgz.s:82     .text:0000000000000058 .L0 
     /tmp/cciyzRgz.s:84     .text:000000000000005c .L0 
     /tmp/cciyzRgz.s:88     .text:000000000000005c .L0 
     /tmp/cciyzRgz.s:89     .text:000000000000005c .L0 
     /tmp/cciyzRgz.s:97     .text:0000000000000064 .L0 
     /tmp/cciyzRgz.s:98     .text:0000000000000064 .L0 
     /tmp/cciyzRgz.s:102    .text:000000000000006c .L0 
     /tmp/cciyzRgz.s:106    .text:0000000000000070 .L0 
     /tmp/cciyzRgz.s:112    .text:000000000000007c .L0 
     /tmp/cciyzRgz.s:116    .text:0000000000000080 .L0 
     /tmp/cciyzRgz.s:120    .text:000000000000008c .L0 
     /tmp/cciyzRgz.s:130    .text:0000000000000094 .L0 
     /tmp/cciyzRgz.s:134    .text:0000000000000098 .L0 
     /tmp/cciyzRgz.s:138    .text:00000000000000a0 .L0 
     /tmp/cciyzRgz.s:139    .text:00000000000000a0 .L0 
     /tmp/cciyzRgz.s:143    .text:00000000000000b0 .L0 
     /tmp/cciyzRgz.s:144    .text:00000000000000b0 .L0 
     /tmp/cciyzRgz.s:150    .text:00000000000000c4 .L0 
     /tmp/cciyzRgz.s:151    .text:00000000000000c4 .L0 
     /tmp/cciyzRgz.s:156    .text:00000000000000d4 .L0 
     /tmp/cciyzRgz.s:157    .text:00000000000000d4 .L0 
     /tmp/cciyzRgz.s:165    .text:00000000000000dc .L0 
     /tmp/cciyzRgz.s:166    .text:00000000000000dc .L0 
     /tmp/cciyzRgz.s:170    .text:00000000000000ec .L0 
     /tmp/cciyzRgz.s:171    .text:00000000000000ec .L0 
     /tmp/cciyzRgz.s:174    .text:00000000000000f8 .L0 
     /tmp/cciyzRgz.s:175    .text:00000000000000fc .L0 
     /tmp/cciyzRgz.s:177    .text:0000000000000100 .L0 
     /tmp/cciyzRgz.s:178    .text:0000000000000100 .L0 
GAS LISTING /tmp/cciyzRgz.s 			page 57


     /tmp/cciyzRgz.s:180    .text:0000000000000104 .L0 
     /tmp/cciyzRgz.s:182    .text:0000000000000108 .L0 
     /tmp/cciyzRgz.s:185    .text:000000000000010c .L0 
     /tmp/cciyzRgz.s:187    .text:0000000000000110 .L0 
     /tmp/cciyzRgz.s:201    .text:0000000000000110 _Z11workerBodyBPv
     /tmp/cciyzRgz.s:204    .text:0000000000000110 .L0 
     /tmp/cciyzRgz.s:206    .text:0000000000000110 .L0 
     /tmp/cciyzRgz.s:207    .text:0000000000000114 .L0 
     /tmp/cciyzRgz.s:212    .text:0000000000000124 .L0 
     /tmp/cciyzRgz.s:213    .text:0000000000000124 .L0 
     /tmp/cciyzRgz.s:214    .text:0000000000000124 .L0 
     /tmp/cciyzRgz.s:215    .text:0000000000000124 .L0 
     /tmp/cciyzRgz.s:217    .text:0000000000000128 .L0 
     /tmp/cciyzRgz.s:221    .text:0000000000000128 .L0 
     /tmp/cciyzRgz.s:222    .text:0000000000000128 .L0 
     /tmp/cciyzRgz.s:230    .text:0000000000000130 .L0 
     /tmp/cciyzRgz.s:231    .text:0000000000000130 .L0 
     /tmp/cciyzRgz.s:235    .text:0000000000000138 .L0 
     /tmp/cciyzRgz.s:239    .text:000000000000013c .L0 
     /tmp/cciyzRgz.s:245    .text:0000000000000148 .L0 
     /tmp/cciyzRgz.s:249    .text:000000000000014c .L0 
     /tmp/cciyzRgz.s:253    .text:0000000000000158 .L0 
     /tmp/cciyzRgz.s:263    .text:0000000000000160 .L0 
     /tmp/cciyzRgz.s:267    .text:0000000000000164 .L0 
     /tmp/cciyzRgz.s:271    .text:000000000000016c .L0 
     /tmp/cciyzRgz.s:272    .text:000000000000016c .L0 
     /tmp/cciyzRgz.s:276    .text:000000000000017c .L0 
     /tmp/cciyzRgz.s:277    .text:000000000000017c .L0 
     /tmp/cciyzRgz.s:283    .text:0000000000000190 .L0 
     /tmp/cciyzRgz.s:284    .text:0000000000000190 .L0 
     /tmp/cciyzRgz.s:289    .text:00000000000001a0 .L0 
     /tmp/cciyzRgz.s:290    .text:00000000000001a0 .L0 
     /tmp/cciyzRgz.s:298    .text:00000000000001a8 .L0 
     /tmp/cciyzRgz.s:299    .text:00000000000001a8 .L0 
     /tmp/cciyzRgz.s:303    .text:00000000000001b8 .L0 
     /tmp/cciyzRgz.s:304    .text:00000000000001b8 .L0 
     /tmp/cciyzRgz.s:307    .text:00000000000001c4 .L0 
     /tmp/cciyzRgz.s:308    .text:00000000000001c4 .L0 
     /tmp/cciyzRgz.s:311    .text:00000000000001cc .L0 
     /tmp/cciyzRgz.s:312    .text:00000000000001d0 .L0 
     /tmp/cciyzRgz.s:314    .text:00000000000001d4 .L0 
     /tmp/cciyzRgz.s:315    .text:00000000000001d4 .L0 
     /tmp/cciyzRgz.s:317    .text:00000000000001d8 .L0 
     /tmp/cciyzRgz.s:319    .text:00000000000001dc .L0 
     /tmp/cciyzRgz.s:322    .text:00000000000001e0 .L0 
     /tmp/cciyzRgz.s:324    .text:00000000000001e4 .L0 
     /tmp/cciyzRgz.s:331    .text._ZN19ConsumerProducerCPP8Consumer3runEv:0000000000000000 _ZN19ConsumerProducerCPP8Consumer3runEv
     /tmp/cciyzRgz.s:335    .text._ZN19ConsumerProducerCPP8Consumer3runEv:0000000000000000 .L0 
     /tmp/cciyzRgz.s:337    .text._ZN19ConsumerProducerCPP8Consumer3runEv:0000000000000000 .L0 
     /tmp/cciyzRgz.s:338    .text._ZN19ConsumerProducerCPP8Consumer3runEv:0000000000000004 .L0 
     /tmp/cciyzRgz.s:344    .text._ZN19ConsumerProducerCPP8Consumer3runEv:0000000000000018 .L0 
     /tmp/cciyzRgz.s:345    .text._ZN19ConsumerProducerCPP8Consumer3runEv:0000000000000018 .L0 
     /tmp/cciyzRgz.s:346    .text._ZN19ConsumerProducerCPP8Consumer3runEv:0000000000000018 .L0 
     /tmp/cciyzRgz.s:347    .text._ZN19ConsumerProducerCPP8Consumer3runEv:0000000000000018 .L0 
     /tmp/cciyzRgz.s:348    .text._ZN19ConsumerProducerCPP8Consumer3runEv:0000000000000018 .L0 
     /tmp/cciyzRgz.s:350    .text._ZN19ConsumerProducerCPP8Consumer3runEv:000000000000001c .L0 
     /tmp/cciyzRgz.s:354    .text._ZN19ConsumerProducerCPP8Consumer3runEv:0000000000000020 .L0 
GAS LISTING /tmp/cciyzRgz.s 			page 58


     /tmp/cciyzRgz.s:355    .text._ZN19ConsumerProducerCPP8Consumer3runEv:0000000000000020 .L0 
     /tmp/cciyzRgz.s:361    .text._ZN19ConsumerProducerCPP8Consumer3runEv:0000000000000028 .L0 
     /tmp/cciyzRgz.s:362    .text._ZN19ConsumerProducerCPP8Consumer3runEv:0000000000000028 .L0 
     /tmp/cciyzRgz.s:368    .text._ZN19ConsumerProducerCPP8Consumer3runEv:0000000000000034 .L0 
     /tmp/cciyzRgz.s:369    .text._ZN19ConsumerProducerCPP8Consumer3runEv:0000000000000034 .L0 
     /tmp/cciyzRgz.s:373    .text._ZN19ConsumerProducerCPP8Consumer3runEv:0000000000000040 .L0 
     /tmp/cciyzRgz.s:374    .text._ZN19ConsumerProducerCPP8Consumer3runEv:0000000000000040 .L0 
     /tmp/cciyzRgz.s:376    .text._ZN19ConsumerProducerCPP8Consumer3runEv:0000000000000044 .L0 
     /tmp/cciyzRgz.s:380    .text._ZN19ConsumerProducerCPP8Consumer3runEv:0000000000000050 .L0 
     /tmp/cciyzRgz.s:381    .text._ZN19ConsumerProducerCPP8Consumer3runEv:0000000000000050 .L0 
     /tmp/cciyzRgz.s:385    .text._ZN19ConsumerProducerCPP8Consumer3runEv:0000000000000058 .L0 
     /tmp/cciyzRgz.s:386    .text._ZN19ConsumerProducerCPP8Consumer3runEv:0000000000000058 .L0 
     /tmp/cciyzRgz.s:391    .text._ZN19ConsumerProducerCPP8Consumer3runEv:0000000000000064 .L0 
     /tmp/cciyzRgz.s:392    .text._ZN19ConsumerProducerCPP8Consumer3runEv:0000000000000064 .L0 
     /tmp/cciyzRgz.s:396    .text._ZN19ConsumerProducerCPP8Consumer3runEv:000000000000006c .L0 
     /tmp/cciyzRgz.s:402    .text._ZN19ConsumerProducerCPP8Consumer3runEv:0000000000000074 .L0 
     /tmp/cciyzRgz.s:403    .text._ZN19ConsumerProducerCPP8Consumer3runEv:0000000000000074 .L0 
     /tmp/cciyzRgz.s:405    .text._ZN19ConsumerProducerCPP8Consumer3runEv:0000000000000078 .L0 
     /tmp/cciyzRgz.s:409    .text._ZN19ConsumerProducerCPP8Consumer3runEv:0000000000000084 .L0 
     /tmp/cciyzRgz.s:410    .text._ZN19ConsumerProducerCPP8Consumer3runEv:0000000000000084 .L0 
     /tmp/cciyzRgz.s:417    .text._ZN19ConsumerProducerCPP8Consumer3runEv:0000000000000090 .L0 
     /tmp/cciyzRgz.s:418    .text._ZN19ConsumerProducerCPP8Consumer3runEv:0000000000000090 .L0 
     /tmp/cciyzRgz.s:419    .text._ZN19ConsumerProducerCPP8Consumer3runEv:0000000000000090 .L0 
     /tmp/cciyzRgz.s:421    .text._ZN19ConsumerProducerCPP8Consumer3runEv:0000000000000094 .L0 
     /tmp/cciyzRgz.s:425    .text._ZN19ConsumerProducerCPP8Consumer3runEv:00000000000000a0 .L0 
     /tmp/cciyzRgz.s:427    .text._ZN19ConsumerProducerCPP8Consumer3runEv:00000000000000a4 .L0 
     /tmp/cciyzRgz.s:429    .text._ZN19ConsumerProducerCPP8Consumer3runEv:00000000000000a8 .L0 
     /tmp/cciyzRgz.s:433    .text._ZN19ConsumerProducerCPP8Consumer3runEv:00000000000000b4 .L0 
     /tmp/cciyzRgz.s:434    .text._ZN19ConsumerProducerCPP8Consumer3runEv:00000000000000b8 .L0 
     /tmp/cciyzRgz.s:436    .text._ZN19ConsumerProducerCPP8Consumer3runEv:00000000000000bc .L0 
     /tmp/cciyzRgz.s:437    .text._ZN19ConsumerProducerCPP8Consumer3runEv:00000000000000bc .L0 
     /tmp/cciyzRgz.s:439    .text._ZN19ConsumerProducerCPP8Consumer3runEv:00000000000000c0 .L0 
     /tmp/cciyzRgz.s:441    .text._ZN19ConsumerProducerCPP8Consumer3runEv:00000000000000c4 .L0 
     /tmp/cciyzRgz.s:444    .text._ZN19ConsumerProducerCPP8Consumer3runEv:00000000000000c8 .L0 
     /tmp/cciyzRgz.s:447    .text._ZN19ConsumerProducerCPP8Consumer3runEv:00000000000000cc .L0 
     /tmp/cciyzRgz.s:449    .text._ZN19ConsumerProducerCPP8Consumer3runEv:00000000000000d0 .L0 
     /tmp/cciyzRgz.s:456    .text._ZN19ConsumerProducerCPP8ConsumerD2Ev:0000000000000000 _ZN19ConsumerProducerCPP8ConsumerD2Ev
     /tmp/cciyzRgz.s:459    .text._ZN19ConsumerProducerCPP8ConsumerD2Ev:0000000000000000 .L0 
     /tmp/cciyzRgz.s:461    .text._ZN19ConsumerProducerCPP8ConsumerD2Ev:0000000000000000 .L0 
     /tmp/cciyzRgz.s:462    .text._ZN19ConsumerProducerCPP8ConsumerD2Ev:0000000000000004 .L0 
     /tmp/cciyzRgz.s:465    .text._ZN19ConsumerProducerCPP8ConsumerD2Ev:000000000000000c .L0 
     /tmp/cciyzRgz.s:466    .text._ZN19ConsumerProducerCPP8ConsumerD2Ev:000000000000000c .L0 
     /tmp/cciyzRgz.s:468    .text._ZN19ConsumerProducerCPP8ConsumerD2Ev:0000000000000010 .L0 
     /tmp/cciyzRgz.s:2141   .data.rel.ro.local._ZTVN19ConsumerProducerCPP8ConsumerE:0000000000000000 _ZTVN19ConsumerProducerCPP8ConsumerE
     /tmp/cciyzRgz.s:471    .text._ZN19ConsumerProducerCPP8ConsumerD2Ev:0000000000000010 .L0 
     /tmp/cciyzRgz.s:477    .text._ZN19ConsumerProducerCPP8ConsumerD2Ev:0000000000000028 .L0 
     /tmp/cciyzRgz.s:479    .text._ZN19ConsumerProducerCPP8ConsumerD2Ev:000000000000002c .L0 
     /tmp/cciyzRgz.s:480    .text._ZN19ConsumerProducerCPP8ConsumerD2Ev:000000000000002c .L0 
     /tmp/cciyzRgz.s:482    .text._ZN19ConsumerProducerCPP8ConsumerD2Ev:0000000000000030 .L0 
     /tmp/cciyzRgz.s:484    .text._ZN19ConsumerProducerCPP8ConsumerD2Ev:0000000000000034 .L0 
     /tmp/cciyzRgz.s:456    .text._ZN19ConsumerProducerCPP8ConsumerD2Ev:0000000000000000 _ZN19ConsumerProducerCPP8ConsumerD1Ev
     /tmp/cciyzRgz.s:493    .text._ZN19ConsumerProducerCPP8ConsumerD0Ev:0000000000000000 _ZN19ConsumerProducerCPP8ConsumerD0Ev
     /tmp/cciyzRgz.s:496    .text._ZN19ConsumerProducerCPP8ConsumerD0Ev:0000000000000000 .L0 
     /tmp/cciyzRgz.s:498    .text._ZN19ConsumerProducerCPP8ConsumerD0Ev:0000000000000000 .L0 
     /tmp/cciyzRgz.s:499    .text._ZN19ConsumerProducerCPP8ConsumerD0Ev:0000000000000004 .L0 
     /tmp/cciyzRgz.s:503    .text._ZN19ConsumerProducerCPP8ConsumerD0Ev:0000000000000010 .L0 
     /tmp/cciyzRgz.s:504    .text._ZN19ConsumerProducerCPP8ConsumerD0Ev:0000000000000010 .L0 
GAS LISTING /tmp/cciyzRgz.s 			page 59


     /tmp/cciyzRgz.s:505    .text._ZN19ConsumerProducerCPP8ConsumerD0Ev:0000000000000010 .L0 
     /tmp/cciyzRgz.s:507    .text._ZN19ConsumerProducerCPP8ConsumerD0Ev:0000000000000014 .L0 
     /tmp/cciyzRgz.s:513    .text._ZN19ConsumerProducerCPP8ConsumerD0Ev:0000000000000018 .L0 
     /tmp/cciyzRgz.s:523    .text._ZN19ConsumerProducerCPP8ConsumerD0Ev:000000000000003c .L0 
     /tmp/cciyzRgz.s:525    .text._ZN19ConsumerProducerCPP8ConsumerD0Ev:0000000000000040 .L0 
     /tmp/cciyzRgz.s:526    .text._ZN19ConsumerProducerCPP8ConsumerD0Ev:0000000000000040 .L0 
     /tmp/cciyzRgz.s:528    .text._ZN19ConsumerProducerCPP8ConsumerD0Ev:0000000000000044 .L0 
     /tmp/cciyzRgz.s:531    .text._ZN19ConsumerProducerCPP8ConsumerD0Ev:0000000000000048 .L0 
     /tmp/cciyzRgz.s:533    .text._ZN19ConsumerProducerCPP8ConsumerD0Ev:000000000000004c .L0 
     /tmp/cciyzRgz.s:540    .text._ZN19ConsumerProducerCPP16ProducerKeyboradD2Ev:0000000000000000 _ZN19ConsumerProducerCPP16ProducerKeyboradD2Ev
     /tmp/cciyzRgz.s:543    .text._ZN19ConsumerProducerCPP16ProducerKeyboradD2Ev:0000000000000000 .L0 
     /tmp/cciyzRgz.s:545    .text._ZN19ConsumerProducerCPP16ProducerKeyboradD2Ev:0000000000000000 .L0 
     /tmp/cciyzRgz.s:546    .text._ZN19ConsumerProducerCPP16ProducerKeyboradD2Ev:0000000000000004 .L0 
     /tmp/cciyzRgz.s:549    .text._ZN19ConsumerProducerCPP16ProducerKeyboradD2Ev:000000000000000c .L0 
     /tmp/cciyzRgz.s:550    .text._ZN19ConsumerProducerCPP16ProducerKeyboradD2Ev:000000000000000c .L0 
     /tmp/cciyzRgz.s:552    .text._ZN19ConsumerProducerCPP16ProducerKeyboradD2Ev:0000000000000010 .L0 
     /tmp/cciyzRgz.s:2119   .data.rel.ro.local._ZTVN19ConsumerProducerCPP16ProducerKeyboradE:0000000000000000 _ZTVN19ConsumerProducerCPP16ProducerKeyboradE
     /tmp/cciyzRgz.s:555    .text._ZN19ConsumerProducerCPP16ProducerKeyboradD2Ev:0000000000000010 .L0 
     /tmp/cciyzRgz.s:561    .text._ZN19ConsumerProducerCPP16ProducerKeyboradD2Ev:0000000000000028 .L0 
     /tmp/cciyzRgz.s:563    .text._ZN19ConsumerProducerCPP16ProducerKeyboradD2Ev:000000000000002c .L0 
     /tmp/cciyzRgz.s:564    .text._ZN19ConsumerProducerCPP16ProducerKeyboradD2Ev:000000000000002c .L0 
     /tmp/cciyzRgz.s:566    .text._ZN19ConsumerProducerCPP16ProducerKeyboradD2Ev:0000000000000030 .L0 
     /tmp/cciyzRgz.s:568    .text._ZN19ConsumerProducerCPP16ProducerKeyboradD2Ev:0000000000000034 .L0 
     /tmp/cciyzRgz.s:540    .text._ZN19ConsumerProducerCPP16ProducerKeyboradD2Ev:0000000000000000 _ZN19ConsumerProducerCPP16ProducerKeyboradD1Ev
     /tmp/cciyzRgz.s:577    .text._ZN19ConsumerProducerCPP16ProducerKeyboradD0Ev:0000000000000000 _ZN19ConsumerProducerCPP16ProducerKeyboradD0Ev
     /tmp/cciyzRgz.s:580    .text._ZN19ConsumerProducerCPP16ProducerKeyboradD0Ev:0000000000000000 .L0 
     /tmp/cciyzRgz.s:582    .text._ZN19ConsumerProducerCPP16ProducerKeyboradD0Ev:0000000000000000 .L0 
     /tmp/cciyzRgz.s:583    .text._ZN19ConsumerProducerCPP16ProducerKeyboradD0Ev:0000000000000004 .L0 
     /tmp/cciyzRgz.s:587    .text._ZN19ConsumerProducerCPP16ProducerKeyboradD0Ev:0000000000000010 .L0 
     /tmp/cciyzRgz.s:588    .text._ZN19ConsumerProducerCPP16ProducerKeyboradD0Ev:0000000000000010 .L0 
     /tmp/cciyzRgz.s:589    .text._ZN19ConsumerProducerCPP16ProducerKeyboradD0Ev:0000000000000010 .L0 
     /tmp/cciyzRgz.s:591    .text._ZN19ConsumerProducerCPP16ProducerKeyboradD0Ev:0000000000000014 .L0 
     /tmp/cciyzRgz.s:597    .text._ZN19ConsumerProducerCPP16ProducerKeyboradD0Ev:0000000000000018 .L0 
     /tmp/cciyzRgz.s:607    .text._ZN19ConsumerProducerCPP16ProducerKeyboradD0Ev:000000000000003c .L0 
     /tmp/cciyzRgz.s:609    .text._ZN19ConsumerProducerCPP16ProducerKeyboradD0Ev:0000000000000040 .L0 
     /tmp/cciyzRgz.s:610    .text._ZN19ConsumerProducerCPP16ProducerKeyboradD0Ev:0000000000000040 .L0 
     /tmp/cciyzRgz.s:612    .text._ZN19ConsumerProducerCPP16ProducerKeyboradD0Ev:0000000000000044 .L0 
     /tmp/cciyzRgz.s:615    .text._ZN19ConsumerProducerCPP16ProducerKeyboradD0Ev:0000000000000048 .L0 
     /tmp/cciyzRgz.s:617    .text._ZN19ConsumerProducerCPP16ProducerKeyboradD0Ev:000000000000004c .L0 
     /tmp/cciyzRgz.s:624    .text._ZN19ConsumerProducerCPP8ProducerD2Ev:0000000000000000 _ZN19ConsumerProducerCPP8ProducerD2Ev
     /tmp/cciyzRgz.s:627    .text._ZN19ConsumerProducerCPP8ProducerD2Ev:0000000000000000 .L0 
     /tmp/cciyzRgz.s:629    .text._ZN19ConsumerProducerCPP8ProducerD2Ev:0000000000000000 .L0 
     /tmp/cciyzRgz.s:630    .text._ZN19ConsumerProducerCPP8ProducerD2Ev:0000000000000004 .L0 
     /tmp/cciyzRgz.s:633    .text._ZN19ConsumerProducerCPP8ProducerD2Ev:000000000000000c .L0 
     /tmp/cciyzRgz.s:634    .text._ZN19ConsumerProducerCPP8ProducerD2Ev:000000000000000c .L0 
     /tmp/cciyzRgz.s:636    .text._ZN19ConsumerProducerCPP8ProducerD2Ev:0000000000000010 .L0 
     /tmp/cciyzRgz.s:2130   .data.rel.ro.local._ZTVN19ConsumerProducerCPP8ProducerE:0000000000000000 _ZTVN19ConsumerProducerCPP8ProducerE
     /tmp/cciyzRgz.s:639    .text._ZN19ConsumerProducerCPP8ProducerD2Ev:0000000000000010 .L0 
     /tmp/cciyzRgz.s:645    .text._ZN19ConsumerProducerCPP8ProducerD2Ev:0000000000000028 .L0 
     /tmp/cciyzRgz.s:647    .text._ZN19ConsumerProducerCPP8ProducerD2Ev:000000000000002c .L0 
     /tmp/cciyzRgz.s:648    .text._ZN19ConsumerProducerCPP8ProducerD2Ev:000000000000002c .L0 
     /tmp/cciyzRgz.s:650    .text._ZN19ConsumerProducerCPP8ProducerD2Ev:0000000000000030 .L0 
     /tmp/cciyzRgz.s:652    .text._ZN19ConsumerProducerCPP8ProducerD2Ev:0000000000000034 .L0 
     /tmp/cciyzRgz.s:624    .text._ZN19ConsumerProducerCPP8ProducerD2Ev:0000000000000000 _ZN19ConsumerProducerCPP8ProducerD1Ev
     /tmp/cciyzRgz.s:661    .text._ZN19ConsumerProducerCPP8ProducerD0Ev:0000000000000000 _ZN19ConsumerProducerCPP8ProducerD0Ev
     /tmp/cciyzRgz.s:664    .text._ZN19ConsumerProducerCPP8ProducerD0Ev:0000000000000000 .L0 
     /tmp/cciyzRgz.s:666    .text._ZN19ConsumerProducerCPP8ProducerD0Ev:0000000000000000 .L0 
GAS LISTING /tmp/cciyzRgz.s 			page 60


     /tmp/cciyzRgz.s:667    .text._ZN19ConsumerProducerCPP8ProducerD0Ev:0000000000000004 .L0 
     /tmp/cciyzRgz.s:671    .text._ZN19ConsumerProducerCPP8ProducerD0Ev:0000000000000010 .L0 
     /tmp/cciyzRgz.s:672    .text._ZN19ConsumerProducerCPP8ProducerD0Ev:0000000000000010 .L0 
     /tmp/cciyzRgz.s:673    .text._ZN19ConsumerProducerCPP8ProducerD0Ev:0000000000000010 .L0 
     /tmp/cciyzRgz.s:675    .text._ZN19ConsumerProducerCPP8ProducerD0Ev:0000000000000014 .L0 
     /tmp/cciyzRgz.s:681    .text._ZN19ConsumerProducerCPP8ProducerD0Ev:0000000000000018 .L0 
     /tmp/cciyzRgz.s:691    .text._ZN19ConsumerProducerCPP8ProducerD0Ev:000000000000003c .L0 
     /tmp/cciyzRgz.s:693    .text._ZN19ConsumerProducerCPP8ProducerD0Ev:0000000000000040 .L0 
     /tmp/cciyzRgz.s:694    .text._ZN19ConsumerProducerCPP8ProducerD0Ev:0000000000000040 .L0 
     /tmp/cciyzRgz.s:696    .text._ZN19ConsumerProducerCPP8ProducerD0Ev:0000000000000044 .L0 
     /tmp/cciyzRgz.s:699    .text._ZN19ConsumerProducerCPP8ProducerD0Ev:0000000000000048 .L0 
     /tmp/cciyzRgz.s:701    .text._ZN19ConsumerProducerCPP8ProducerD0Ev:000000000000004c .L0 
     /tmp/cciyzRgz.s:708    .text._ZN19ConsumerProducerCPP16ProducerKeyborad3runEv:0000000000000000 _ZN19ConsumerProducerCPP16ProducerKeyborad3runEv
     /tmp/cciyzRgz.s:711    .text._ZN19ConsumerProducerCPP16ProducerKeyborad3runEv:0000000000000000 .L0 
     /tmp/cciyzRgz.s:713    .text._ZN19ConsumerProducerCPP16ProducerKeyborad3runEv:0000000000000000 .L0 
     /tmp/cciyzRgz.s:714    .text._ZN19ConsumerProducerCPP16ProducerKeyborad3runEv:0000000000000004 .L0 
     /tmp/cciyzRgz.s:718    .text._ZN19ConsumerProducerCPP16ProducerKeyborad3runEv:0000000000000010 .L0 
     /tmp/cciyzRgz.s:719    .text._ZN19ConsumerProducerCPP16ProducerKeyborad3runEv:0000000000000010 .L0 
     /tmp/cciyzRgz.s:720    .text._ZN19ConsumerProducerCPP16ProducerKeyborad3runEv:0000000000000010 .L0 
     /tmp/cciyzRgz.s:722    .text._ZN19ConsumerProducerCPP16ProducerKeyborad3runEv:0000000000000014 .L0 
     /tmp/cciyzRgz.s:725    .text._ZN19ConsumerProducerCPP16ProducerKeyborad3runEv:0000000000000018 .L0 
     /tmp/cciyzRgz.s:728    .text._ZN19ConsumerProducerCPP16ProducerKeyborad3runEv:0000000000000018 .L0 
     /tmp/cciyzRgz.s:729    .text._ZN19ConsumerProducerCPP16ProducerKeyborad3runEv:0000000000000018 .L0 
     /tmp/cciyzRgz.s:730    .text._ZN19ConsumerProducerCPP16ProducerKeyborad3runEv:0000000000000018 .L0 
     /tmp/cciyzRgz.s:731    .text._ZN19ConsumerProducerCPP16ProducerKeyborad3runEv:0000000000000018 .L0 
     /tmp/cciyzRgz.s:734    .text._ZN19ConsumerProducerCPP16ProducerKeyborad3runEv:0000000000000020 .L0 
     /tmp/cciyzRgz.s:737    .text._ZN19ConsumerProducerCPP16ProducerKeyborad3runEv:0000000000000024 .L0 
     /tmp/cciyzRgz.s:740    .text._ZN19ConsumerProducerCPP16ProducerKeyborad3runEv:000000000000002c .L0 
     /tmp/cciyzRgz.s:742    .text._ZN19ConsumerProducerCPP16ProducerKeyborad3runEv:0000000000000030 .L0 
     /tmp/cciyzRgz.s:746    .text._ZN19ConsumerProducerCPP16ProducerKeyborad3runEv:000000000000003c .L0 
     /tmp/cciyzRgz.s:747    .text._ZN19ConsumerProducerCPP16ProducerKeyborad3runEv:000000000000003c .L0 
     /tmp/cciyzRgz.s:751    .text._ZN19ConsumerProducerCPP16ProducerKeyborad3runEv:0000000000000040 .L0 
     /tmp/cciyzRgz.s:752    .text._ZN19ConsumerProducerCPP16ProducerKeyborad3runEv:0000000000000040 .L0 
     /tmp/cciyzRgz.s:755    .text._ZN19ConsumerProducerCPP16ProducerKeyborad3runEv:000000000000004c .L0 
     /tmp/cciyzRgz.s:757    .text._ZN19ConsumerProducerCPP16ProducerKeyborad3runEv:0000000000000050 .L0 
     /tmp/cciyzRgz.s:764    .text._ZN19ConsumerProducerCPP16ProducerKeyborad3runEv:0000000000000060 .L0 
     /tmp/cciyzRgz.s:766    .text._ZN19ConsumerProducerCPP16ProducerKeyborad3runEv:0000000000000064 .L0 
     /tmp/cciyzRgz.s:770    .text._ZN19ConsumerProducerCPP16ProducerKeyborad3runEv:0000000000000070 .L0 
     /tmp/cciyzRgz.s:771    .text._ZN19ConsumerProducerCPP16ProducerKeyborad3runEv:0000000000000074 .L0 
     /tmp/cciyzRgz.s:773    .text._ZN19ConsumerProducerCPP16ProducerKeyborad3runEv:0000000000000078 .L0 
     /tmp/cciyzRgz.s:774    .text._ZN19ConsumerProducerCPP16ProducerKeyborad3runEv:0000000000000078 .L0 
     /tmp/cciyzRgz.s:776    .text._ZN19ConsumerProducerCPP16ProducerKeyborad3runEv:000000000000007c .L0 
     /tmp/cciyzRgz.s:779    .text._ZN19ConsumerProducerCPP16ProducerKeyborad3runEv:0000000000000080 .L0 
     /tmp/cciyzRgz.s:781    .text._ZN19ConsumerProducerCPP16ProducerKeyborad3runEv:0000000000000084 .L0 
     /tmp/cciyzRgz.s:788    .text._ZN19ConsumerProducerCPP8Producer3runEv:0000000000000000 _ZN19ConsumerProducerCPP8Producer3runEv
     /tmp/cciyzRgz.s:791    .text._ZN19ConsumerProducerCPP8Producer3runEv:0000000000000000 .L0 
     /tmp/cciyzRgz.s:793    .text._ZN19ConsumerProducerCPP8Producer3runEv:0000000000000000 .L0 
     /tmp/cciyzRgz.s:794    .text._ZN19ConsumerProducerCPP8Producer3runEv:0000000000000004 .L0 
     /tmp/cciyzRgz.s:799    .text._ZN19ConsumerProducerCPP8Producer3runEv:0000000000000014 .L0 
     /tmp/cciyzRgz.s:800    .text._ZN19ConsumerProducerCPP8Producer3runEv:0000000000000014 .L0 
     /tmp/cciyzRgz.s:801    .text._ZN19ConsumerProducerCPP8Producer3runEv:0000000000000014 .L0 
     /tmp/cciyzRgz.s:802    .text._ZN19ConsumerProducerCPP8Producer3runEv:0000000000000014 .L0 
     /tmp/cciyzRgz.s:804    .text._ZN19ConsumerProducerCPP8Producer3runEv:0000000000000018 .L0 
     /tmp/cciyzRgz.s:808    .text._ZN19ConsumerProducerCPP8Producer3runEv:000000000000001c .L0 
     /tmp/cciyzRgz.s:809    .text._ZN19ConsumerProducerCPP8Producer3runEv:000000000000001c .L0 
     /tmp/cciyzRgz.s:813    .text._ZN19ConsumerProducerCPP8Producer3runEv:0000000000000020 .L0 
     /tmp/cciyzRgz.s:814    .text._ZN19ConsumerProducerCPP8Producer3runEv:0000000000000020 .L0 
GAS LISTING /tmp/cciyzRgz.s 			page 61


     /tmp/cciyzRgz.s:817    .text._ZN19ConsumerProducerCPP8Producer3runEv:000000000000002c .L0 
     /tmp/cciyzRgz.s:819    .text._ZN19ConsumerProducerCPP8Producer3runEv:0000000000000030 .L0 
     /tmp/cciyzRgz.s:821    .text._ZN19ConsumerProducerCPP8Producer3runEv:0000000000000034 .L0 
     /tmp/cciyzRgz.s:826    .text._ZN19ConsumerProducerCPP8Producer3runEv:0000000000000044 .L0 
     /tmp/cciyzRgz.s:827    .text._ZN19ConsumerProducerCPP8Producer3runEv:0000000000000044 .L0 
     /tmp/cciyzRgz.s:831    .text._ZN19ConsumerProducerCPP8Producer3runEv:000000000000004c .L0 
     /tmp/cciyzRgz.s:832    .text._ZN19ConsumerProducerCPP8Producer3runEv:000000000000004c .L0 
     /tmp/cciyzRgz.s:834    .text._ZN19ConsumerProducerCPP8Producer3runEv:0000000000000050 .L0 
     /tmp/cciyzRgz.s:836    .text._ZN19ConsumerProducerCPP8Producer3runEv:0000000000000054 .L0 
     /tmp/cciyzRgz.s:838    .text._ZN19ConsumerProducerCPP8Producer3runEv:0000000000000058 .L0 
     /tmp/cciyzRgz.s:843    .text._ZN19ConsumerProducerCPP8Producer3runEv:0000000000000068 .L0 
     /tmp/cciyzRgz.s:846    .text._ZN19ConsumerProducerCPP8Producer3runEv:000000000000006c .L0 
     /tmp/cciyzRgz.s:848    .text._ZN19ConsumerProducerCPP8Producer3runEv:0000000000000070 .L0 
     /tmp/cciyzRgz.s:852    .text._ZN19ConsumerProducerCPP8Producer3runEv:000000000000007c .L0 
     /tmp/cciyzRgz.s:853    .text._ZN19ConsumerProducerCPP8Producer3runEv:0000000000000080 .L0 
     /tmp/cciyzRgz.s:855    .text._ZN19ConsumerProducerCPP8Producer3runEv:0000000000000084 .L0 
     /tmp/cciyzRgz.s:856    .text._ZN19ConsumerProducerCPP8Producer3runEv:0000000000000084 .L0 
     /tmp/cciyzRgz.s:858    .text._ZN19ConsumerProducerCPP8Producer3runEv:0000000000000088 .L0 
     /tmp/cciyzRgz.s:861    .text._ZN19ConsumerProducerCPP8Producer3runEv:000000000000008c .L0 
     /tmp/cciyzRgz.s:864    .text._ZN19ConsumerProducerCPP8Producer3runEv:0000000000000090 .L0 
     /tmp/cciyzRgz.s:866    .text._ZN19ConsumerProducerCPP8Producer3runEv:0000000000000094 .L0 
     /tmp/cciyzRgz.s:873    .text:00000000000001e4 _Z9fibonaccim
     /tmp/cciyzRgz.s:876    .text:00000000000001e4 .L0 
     /tmp/cciyzRgz.s:878    .text:00000000000001e4 .L0 
     /tmp/cciyzRgz.s:879    .text:00000000000001e8 .L0 
     /tmp/cciyzRgz.s:884    .text:00000000000001f8 .L0 
     /tmp/cciyzRgz.s:885    .text:00000000000001f8 .L0 
     /tmp/cciyzRgz.s:886    .text:00000000000001f8 .L0 
     /tmp/cciyzRgz.s:887    .text:00000000000001f8 .L0 
     /tmp/cciyzRgz.s:889    .text:00000000000001fc .L0 
     /tmp/cciyzRgz.s:892    .text:0000000000000200 .L0 
     /tmp/cciyzRgz.s:895    .text:0000000000000208 .L0 
     /tmp/cciyzRgz.s:896    .text:0000000000000208 .L0 
     /tmp/cciyzRgz.s:899    .text:0000000000000210 .L0 
     /tmp/cciyzRgz.s:903    .text:0000000000000214 .L0 
     /tmp/cciyzRgz.s:904    .text:0000000000000214 .L0 
     /tmp/cciyzRgz.s:909    .text:0000000000000224 .L0 
     /tmp/cciyzRgz.s:913    .text:0000000000000230 .L0 
     /tmp/cciyzRgz.s:916    .text:0000000000000234 .L0 
     /tmp/cciyzRgz.s:917    .text:0000000000000238 .L0 
     /tmp/cciyzRgz.s:918    .text:0000000000000238 .L0 
     /tmp/cciyzRgz.s:920    .text:000000000000023c .L0 
     /tmp/cciyzRgz.s:921    .text:000000000000023c .L0 
     /tmp/cciyzRgz.s:923    .text:0000000000000240 .L0 
     /tmp/cciyzRgz.s:926    .text:0000000000000244 .L0 
     /tmp/cciyzRgz.s:928    .text:0000000000000248 .L0 
     /tmp/cciyzRgz.s:932    .text:000000000000024c .L0 
     /tmp/cciyzRgz.s:934    .text:000000000000024c .L0 
     /tmp/cciyzRgz.s:935    .text:000000000000024c .L0 
     /tmp/cciyzRgz.s:938    .text:0000000000000258 .L0 
     /tmp/cciyzRgz.s:958    .text:0000000000000258 _Z11workerBodyCPv
     /tmp/cciyzRgz.s:961    .text:0000000000000258 .L0 
     /tmp/cciyzRgz.s:963    .text:0000000000000258 .L0 
     /tmp/cciyzRgz.s:964    .text:000000000000025c .L0 
     /tmp/cciyzRgz.s:969    .text:000000000000026c .L0 
     /tmp/cciyzRgz.s:970    .text:000000000000026c .L0 
     /tmp/cciyzRgz.s:971    .text:000000000000026c .L0 
GAS LISTING /tmp/cciyzRgz.s 			page 62


     /tmp/cciyzRgz.s:972    .text:000000000000026c .L0 
     /tmp/cciyzRgz.s:974    .text:0000000000000270 .L0 
     /tmp/cciyzRgz.s:977    .text:0000000000000270 .L0 
     /tmp/cciyzRgz.s:978    .text:0000000000000270 .L0 
     /tmp/cciyzRgz.s:983    .text:0000000000000278 .L0 
     /tmp/cciyzRgz.s:984    .text:0000000000000278 .L0 
     /tmp/cciyzRgz.s:988    .text:0000000000000288 .L0 
     /tmp/cciyzRgz.s:989    .text:0000000000000288 .L0 
     /tmp/cciyzRgz.s:995    .text:000000000000029c .L0 
     /tmp/cciyzRgz.s:996    .text:000000000000029c .L0 
     /tmp/cciyzRgz.s:1000   .text:00000000000002ac .L0 
     /tmp/cciyzRgz.s:1006   .text:00000000000002b4 .L0 
     /tmp/cciyzRgz.s:1007   .text:00000000000002b4 .L0 
     /tmp/cciyzRgz.s:1010   .text:00000000000002bc .L0 
     /tmp/cciyzRgz.s:1011   .text:00000000000002bc .L0 
     /tmp/cciyzRgz.s:1015   .text:00000000000002cc .L0 
test/../test/Threads_C_API_test.hpp:52     .text:00000000000002cc .L0 
     /tmp/cciyzRgz.s:1021   .text:00000000000002d0 .L0 
     /tmp/cciyzRgz.s:1023   .text:00000000000002d0 .L0 
     /tmp/cciyzRgz.s:1026   .text:00000000000002d8 .L0 
     /tmp/cciyzRgz.s:1027   .text:00000000000002d8 .L0 
test/../test/Threads_C_API_test.hpp:56     .text:00000000000002d8 .L0 
     /tmp/cciyzRgz.s:1034   .text:00000000000002dc .L0 
     /tmp/cciyzRgz.s:1036   .text:00000000000002dc .L0 
     /tmp/cciyzRgz.s:1040   .text:00000000000002ec .L0 
     /tmp/cciyzRgz.s:1041   .text:00000000000002ec .L0 
     /tmp/cciyzRgz.s:1047   .text:0000000000000300 .L0 
     /tmp/cciyzRgz.s:1048   .text:0000000000000300 .L0 
     /tmp/cciyzRgz.s:1052   .text:0000000000000310 .L0 
     /tmp/cciyzRgz.s:1053   .text:0000000000000310 .L0 
     /tmp/cciyzRgz.s:1059   .text:0000000000000320 .L0 
     /tmp/cciyzRgz.s:1060   .text:0000000000000320 .L0 
     /tmp/cciyzRgz.s:1065   .text:0000000000000330 .L0 
     /tmp/cciyzRgz.s:1066   .text:0000000000000330 .L0 
     /tmp/cciyzRgz.s:1072   .text:0000000000000344 .L0 
     /tmp/cciyzRgz.s:1073   .text:0000000000000344 .L0 
     /tmp/cciyzRgz.s:1079   .text:0000000000000358 .L0 
     /tmp/cciyzRgz.s:1080   .text:0000000000000358 .L0 
     /tmp/cciyzRgz.s:1084   .text:0000000000000368 .L0 
     /tmp/cciyzRgz.s:1085   .text:0000000000000368 .L0 
     /tmp/cciyzRgz.s:1091   .text:000000000000037c .L0 
     /tmp/cciyzRgz.s:1092   .text:000000000000037c .L0 
     /tmp/cciyzRgz.s:1096   .text:000000000000038c .L0 
     /tmp/cciyzRgz.s:1102   .text:0000000000000394 .L0 
     /tmp/cciyzRgz.s:1103   .text:0000000000000394 .L0 
     /tmp/cciyzRgz.s:1106   .text:000000000000039c .L0 
     /tmp/cciyzRgz.s:1107   .text:000000000000039c .L0 
     /tmp/cciyzRgz.s:1111   .text:00000000000003ac .L0 
     /tmp/cciyzRgz.s:1112   .text:00000000000003ac .L0 
     /tmp/cciyzRgz.s:1115   .text:00000000000003b8 .L0 
     /tmp/cciyzRgz.s:1116   .text:00000000000003b8 .L0 
     /tmp/cciyzRgz.s:1119   .text:00000000000003c0 .L0 
     /tmp/cciyzRgz.s:1120   .text:00000000000003c4 .L0 
     /tmp/cciyzRgz.s:1122   .text:00000000000003c8 .L0 
     /tmp/cciyzRgz.s:1123   .text:00000000000003c8 .L0 
     /tmp/cciyzRgz.s:1125   .text:00000000000003cc .L0 
     /tmp/cciyzRgz.s:1128   .text:00000000000003d0 .L0 
GAS LISTING /tmp/cciyzRgz.s 			page 63


     /tmp/cciyzRgz.s:1131   .text:00000000000003d4 .L0 
     /tmp/cciyzRgz.s:1133   .text:00000000000003d8 .L0 
     /tmp/cciyzRgz.s:1153   .text:00000000000003d8 _Z11workerBodyDPv
     /tmp/cciyzRgz.s:1156   .text:00000000000003d8 .L0 
     /tmp/cciyzRgz.s:1158   .text:00000000000003d8 .L0 
     /tmp/cciyzRgz.s:1159   .text:00000000000003dc .L0 
     /tmp/cciyzRgz.s:1164   .text:00000000000003ec .L0 
     /tmp/cciyzRgz.s:1165   .text:00000000000003ec .L0 
     /tmp/cciyzRgz.s:1166   .text:00000000000003ec .L0 
     /tmp/cciyzRgz.s:1167   .text:00000000000003ec .L0 
     /tmp/cciyzRgz.s:1169   .text:00000000000003f0 .L0 
     /tmp/cciyzRgz.s:1172   .text:00000000000003f0 .L0 
     /tmp/cciyzRgz.s:1173   .text:00000000000003f0 .L0 
     /tmp/cciyzRgz.s:1178   .text:00000000000003f8 .L0 
     /tmp/cciyzRgz.s:1179   .text:00000000000003f8 .L0 
     /tmp/cciyzRgz.s:1183   .text:0000000000000408 .L0 
     /tmp/cciyzRgz.s:1184   .text:0000000000000408 .L0 
     /tmp/cciyzRgz.s:1190   .text:000000000000041c .L0 
     /tmp/cciyzRgz.s:1191   .text:000000000000041c .L0 
     /tmp/cciyzRgz.s:1195   .text:000000000000042c .L0 
     /tmp/cciyzRgz.s:1201   .text:0000000000000434 .L0 
     /tmp/cciyzRgz.s:1202   .text:0000000000000434 .L0 
     /tmp/cciyzRgz.s:1205   .text:000000000000043c .L0 
     /tmp/cciyzRgz.s:1206   .text:000000000000043c .L0 
     /tmp/cciyzRgz.s:1210   .text:000000000000044c .L0 
test/../test/Threads_C_API_test.hpp:79     .text:000000000000044c .L0 
     /tmp/cciyzRgz.s:1216   .text:0000000000000450 .L0 
     /tmp/cciyzRgz.s:1218   .text:0000000000000450 .L0 
     /tmp/cciyzRgz.s:1221   .text:0000000000000458 .L0 
     /tmp/cciyzRgz.s:1222   .text:0000000000000458 .L0 
     /tmp/cciyzRgz.s:1228   .text:0000000000000468 .L0 
     /tmp/cciyzRgz.s:1229   .text:0000000000000468 .L0 
     /tmp/cciyzRgz.s:1234   .text:0000000000000478 .L0 
     /tmp/cciyzRgz.s:1235   .text:0000000000000478 .L0 
     /tmp/cciyzRgz.s:1241   .text:000000000000048c .L0 
     /tmp/cciyzRgz.s:1242   .text:000000000000048c .L0 
     /tmp/cciyzRgz.s:1248   .text:00000000000004a0 .L0 
     /tmp/cciyzRgz.s:1249   .text:00000000000004a0 .L0 
     /tmp/cciyzRgz.s:1253   .text:00000000000004b0 .L0 
     /tmp/cciyzRgz.s:1254   .text:00000000000004b0 .L0 
     /tmp/cciyzRgz.s:1260   .text:00000000000004c4 .L0 
     /tmp/cciyzRgz.s:1261   .text:00000000000004c4 .L0 
     /tmp/cciyzRgz.s:1265   .text:00000000000004d4 .L0 
     /tmp/cciyzRgz.s:1271   .text:00000000000004dc .L0 
     /tmp/cciyzRgz.s:1272   .text:00000000000004dc .L0 
     /tmp/cciyzRgz.s:1275   .text:00000000000004e4 .L0 
     /tmp/cciyzRgz.s:1276   .text:00000000000004e4 .L0 
     /tmp/cciyzRgz.s:1280   .text:00000000000004f4 .L0 
     /tmp/cciyzRgz.s:1281   .text:00000000000004f4 .L0 
     /tmp/cciyzRgz.s:1284   .text:0000000000000500 .L0 
     /tmp/cciyzRgz.s:1285   .text:0000000000000500 .L0 
     /tmp/cciyzRgz.s:1288   .text:0000000000000508 .L0 
     /tmp/cciyzRgz.s:1289   .text:000000000000050c .L0 
     /tmp/cciyzRgz.s:1291   .text:0000000000000510 .L0 
     /tmp/cciyzRgz.s:1292   .text:0000000000000510 .L0 
     /tmp/cciyzRgz.s:1294   .text:0000000000000514 .L0 
     /tmp/cciyzRgz.s:1297   .text:0000000000000518 .L0 
GAS LISTING /tmp/cciyzRgz.s 			page 64


     /tmp/cciyzRgz.s:1300   .text:000000000000051c .L0 
     /tmp/cciyzRgz.s:1302   .text:0000000000000520 .L0 
     /tmp/cciyzRgz.s:1325   .text:0000000000000520 _Z18Threads_C_API_testv
     /tmp/cciyzRgz.s:1328   .text:0000000000000520 .L0 
     /tmp/cciyzRgz.s:1329   .text:0000000000000520 .L0 
     /tmp/cciyzRgz.s:1330   .text:0000000000000524 .L0 
     /tmp/cciyzRgz.s:1333   .text:000000000000052c .L0 
     /tmp/cciyzRgz.s:1334   .text:000000000000052c .L0 
     /tmp/cciyzRgz.s:1336   .text:0000000000000530 .L0 
     /tmp/cciyzRgz.s:1338   .text:0000000000000530 .L0 
     /tmp/cciyzRgz.s:1339   .text:0000000000000530 .L0 
     /tmp/cciyzRgz.s:1340   .text:0000000000000530 .L0 
     /tmp/cciyzRgz.s:1346   .text:0000000000000548 .L0 
     /tmp/cciyzRgz.s:1347   .text:0000000000000548 .L0 
     /tmp/cciyzRgz.s:1351   .text:0000000000000558 .L0 
     /tmp/cciyzRgz.s:1352   .text:0000000000000558 .L0 
     /tmp/cciyzRgz.s:1358   .text:0000000000000570 .L0 
     /tmp/cciyzRgz.s:1359   .text:0000000000000570 .L0 
     /tmp/cciyzRgz.s:1363   .text:0000000000000580 .L0 
     /tmp/cciyzRgz.s:1364   .text:0000000000000580 .L0 
     /tmp/cciyzRgz.s:1370   .text:0000000000000598 .L0 
     /tmp/cciyzRgz.s:1371   .text:0000000000000598 .L0 
     /tmp/cciyzRgz.s:1375   .text:00000000000005a8 .L0 
     /tmp/cciyzRgz.s:1376   .text:00000000000005a8 .L0 
     /tmp/cciyzRgz.s:1382   .text:00000000000005c0 .L0 
     /tmp/cciyzRgz.s:1383   .text:00000000000005c0 .L0 
     /tmp/cciyzRgz.s:1387   .text:00000000000005d0 .L0 
     /tmp/cciyzRgz.s:1388   .text:00000000000005d0 .L0 
     /tmp/cciyzRgz.s:1394   .text:00000000000005e8 .L0 
     /tmp/cciyzRgz.s:1395   .text:00000000000005e8 .L0 
     /tmp/cciyzRgz.s:1401   .text:00000000000005fc .L0 
     /tmp/cciyzRgz.s:1402   .text:00000000000005fc .L0 
     /tmp/cciyzRgz.s:1406   .text:0000000000000604 .L0 
     /tmp/cciyzRgz.s:1407   .text:0000000000000604 .L0 
     /tmp/cciyzRgz.s:1410   .text:0000000000000610 .L0 
     /tmp/cciyzRgz.s:1413   .text:000000000000061c .L0 
     /tmp/cciyzRgz.s:1416   .text:0000000000000628 .L0 
     /tmp/cciyzRgz.s:1419   .text:0000000000000634 .L0 
     /tmp/cciyzRgz.s:1422   .text:0000000000000640 .L0 
     /tmp/cciyzRgz.s:1423   .text:0000000000000644 .L0 
     /tmp/cciyzRgz.s:1425   .text:0000000000000648 .L0 
     /tmp/cciyzRgz.s:1426   .text:0000000000000648 .L0 
     /tmp/cciyzRgz.s:1428   .text:000000000000064c .L0 
     /tmp/cciyzRgz.s:1430   .text:0000000000000650 .L0 
     /tmp/cciyzRgz.s:1459   .text:0000000000000650 _ZN19ConsumerProducerCPP20testConsumerProducerEv
     /tmp/cciyzRgz.s:1462   .text:0000000000000650 .L0 
     /tmp/cciyzRgz.s:7453   .data.rel.local.DW.ref.__gxx_personality_v0:0000000000000000 DW.ref.__gxx_personality_v0
     /tmp/cciyzRgz.s:1465   .text:0000000000000650 .L0 
     /tmp/cciyzRgz.s:1466   .text:0000000000000654 .L0 
     /tmp/cciyzRgz.s:1478   .text:0000000000000680 .L0 
     /tmp/cciyzRgz.s:1479   .text:0000000000000680 .L0 
     /tmp/cciyzRgz.s:1480   .text:0000000000000680 .L0 
     /tmp/cciyzRgz.s:1481   .text:0000000000000680 .L0 
     /tmp/cciyzRgz.s:1482   .text:0000000000000680 .L0 
     /tmp/cciyzRgz.s:1483   .text:0000000000000680 .L0 
     /tmp/cciyzRgz.s:1484   .text:0000000000000680 .L0 
     /tmp/cciyzRgz.s:1485   .text:0000000000000680 .L0 
GAS LISTING /tmp/cciyzRgz.s 			page 65


     /tmp/cciyzRgz.s:1486   .text:0000000000000680 .L0 
     /tmp/cciyzRgz.s:1487   .text:0000000000000680 .L0 
     /tmp/cciyzRgz.s:1488   .text:0000000000000680 .L0 
     /tmp/cciyzRgz.s:1490   .text:0000000000000684 .L0 
     /tmp/cciyzRgz.s:1492   .text:0000000000000684 .L0 
     /tmp/cciyzRgz.s:1494   .text:0000000000000688 .L0 
     /tmp/cciyzRgz.s:1495   .text:0000000000000688 .L0 
     /tmp/cciyzRgz.s:1496   .text:0000000000000688 .L0 
     /tmp/cciyzRgz.s:1497   .text:0000000000000688 .L0 
     /tmp/cciyzRgz.s:1502   .text:0000000000000698 .L0 
     /tmp/cciyzRgz.s:1503   .text:0000000000000698 .L0 
     /tmp/cciyzRgz.s:1509   .text:00000000000006ac .L0 
     /tmp/cciyzRgz.s:1510   .text:00000000000006ac .L0 
     /tmp/cciyzRgz.s:1516   .text:00000000000006bc .L0 
     /tmp/cciyzRgz.s:1517   .text:00000000000006bc .L0 
     /tmp/cciyzRgz.s:1521   .text:00000000000006cc .L0 
     /tmp/cciyzRgz.s:1522   .text:00000000000006cc .L0 
     /tmp/cciyzRgz.s:1527   .text:00000000000006dc .L0 
     /tmp/cciyzRgz.s:1528   .text:00000000000006dc .L0 
     /tmp/cciyzRgz.s:1534   .text:00000000000006ec .L0 
     /tmp/cciyzRgz.s:1535   .text:00000000000006ec .L0 
     /tmp/cciyzRgz.s:1539   .text:00000000000006fc .L0 
     /tmp/cciyzRgz.s:1540   .text:00000000000006fc .L0 
     /tmp/cciyzRgz.s:1546   .text:0000000000000710 .L0 
     /tmp/cciyzRgz.s:1547   .text:0000000000000710 .L0 
     /tmp/cciyzRgz.s:1551   .text:0000000000000720 .L0 
     /tmp/cciyzRgz.s:1552   .text:0000000000000720 .L0 
     /tmp/cciyzRgz.s:1558   .text:0000000000000734 .L0 
     /tmp/cciyzRgz.s:1559   .text:0000000000000734 .L0 
     /tmp/cciyzRgz.s:1563   .text:0000000000000744 .L0 
     /tmp/cciyzRgz.s:1565   .text:0000000000000748 .L0 
     /tmp/cciyzRgz.s:1567   .text:000000000000074c .L0 
     /tmp/cciyzRgz.s:1568   .text:000000000000074c .L0 
     /tmp/cciyzRgz.s:1581   .text:000000000000076c .L0 
     /tmp/cciyzRgz.s:1582   .text:000000000000076c .L0 
     /tmp/cciyzRgz.s:1587   .text:000000000000077c .L0 
     /tmp/cciyzRgz.s:1590   .text:0000000000000780 .L0 
     /tmp/cciyzRgz.s:1591   .text:0000000000000780 .L0 
     /tmp/cciyzRgz.s:1596   .text:0000000000000790 .L0 
     /tmp/cciyzRgz.s:1601   .text:0000000000000798 .L0 
     /tmp/cciyzRgz.s:1602   .text:0000000000000798 .L0 
     /tmp/cciyzRgz.s:1614   .text:00000000000007b4 .L0 
     /tmp/cciyzRgz.s:1618   .text:00000000000007c0 .L0 
     /tmp/cciyzRgz.s:1619   .text:00000000000007c0 .L0 
     /tmp/cciyzRgz.s:1626   .text:00000000000007d4 .L0 
     /tmp/cciyzRgz.s:1627   .text:00000000000007d4 .L0 
     /tmp/cciyzRgz.s:1630   .text:00000000000007d8 .L0 
     /tmp/cciyzRgz.s:1640   .text:00000000000007f4 .L0 
     /tmp/cciyzRgz.s:1641   .text:00000000000007f4 .L0 
     /tmp/cciyzRgz.s:1647   .text:0000000000000808 .L0 
     /tmp/cciyzRgz.s:1648   .text:0000000000000808 .L0 
     /tmp/cciyzRgz.s:1650   .text:000000000000080c .L0 
     /tmp/cciyzRgz.s:1651   .text:000000000000080c .L0 
     /tmp/cciyzRgz.s:1654   .text:0000000000000814 .L0 
     /tmp/cciyzRgz.s:1655   .text:0000000000000814 .L0 
     /tmp/cciyzRgz.s:1666   .text:0000000000000824 .L0 
     /tmp/cciyzRgz.s:1670   .text:000000000000082c .L0 
GAS LISTING /tmp/cciyzRgz.s 			page 66


     /tmp/cciyzRgz.s:1677   .text:000000000000083c .L0 
     /tmp/cciyzRgz.s:1678   .text:000000000000083c .L0 
     /tmp/cciyzRgz.s:1683   .text:0000000000000848 .L0 
     /tmp/cciyzRgz.s:1684   .text:0000000000000848 .L0 
     /tmp/cciyzRgz.s:1686   .text:000000000000084c .L0 
     /tmp/cciyzRgz.s:1687   .text:000000000000084c .L0 
     /tmp/cciyzRgz.s:1689   .text:0000000000000850 .L0 
     /tmp/cciyzRgz.s:1690   .text:0000000000000850 .L0 
     /tmp/cciyzRgz.s:1693   .text:000000000000085c .L0 
     /tmp/cciyzRgz.s:1694   .text:000000000000085c .L0 
     /tmp/cciyzRgz.s:1704   .text:000000000000086c .L0 
     /tmp/cciyzRgz.s:1714   .text:0000000000000884 .L0 
     /tmp/cciyzRgz.s:1716   .text:0000000000000888 .L0 
     /tmp/cciyzRgz.s:1717   .text:0000000000000888 .L0 
     /tmp/cciyzRgz.s:1723   .text:0000000000000894 .L0 
     /tmp/cciyzRgz.s:1730   .text:000000000000089c .L0 
     /tmp/cciyzRgz.s:1737   .text:00000000000008ac .L0 
     /tmp/cciyzRgz.s:1741   .text:00000000000008b8 .L0 
     /tmp/cciyzRgz.s:1742   .text:00000000000008b8 .L0 
     /tmp/cciyzRgz.s:1746   .text:00000000000008c4 .L0 
     /tmp/cciyzRgz.s:1750   .text:00000000000008c8 .L0 
     /tmp/cciyzRgz.s:1752   .text:00000000000008cc .L0 
     /tmp/cciyzRgz.s:1753   .text:00000000000008cc .L0 
     /tmp/cciyzRgz.s:1759   .text:00000000000008e0 .L0 
     /tmp/cciyzRgz.s:1760   .text:00000000000008e0 .L0 
     /tmp/cciyzRgz.s:1762   .text:00000000000008e4 .L0 
     /tmp/cciyzRgz.s:1763   .text:00000000000008e4 .L0 
     /tmp/cciyzRgz.s:1766   .text:00000000000008f0 .L0 
     /tmp/cciyzRgz.s:1767   .text:00000000000008f0 .L0 
     /tmp/cciyzRgz.s:1777   .text:0000000000000900 .L0 
     /tmp/cciyzRgz.s:1788   .text:000000000000090c .L0 
     /tmp/cciyzRgz.s:1789   .text:000000000000090c .L0 
     /tmp/cciyzRgz.s:1793   .text:0000000000000914 .L0 
     /tmp/cciyzRgz.s:1797   .text:0000000000000918 .L0 
     /tmp/cciyzRgz.s:1799   .text:000000000000091c .L0 
     /tmp/cciyzRgz.s:1800   .text:000000000000091c .L0 
     /tmp/cciyzRgz.s:1804   .text:000000000000092c .L0 
     /tmp/cciyzRgz.s:1811   .text:0000000000000934 .L0 
     /tmp/cciyzRgz.s:1812   .text:0000000000000934 .L0 
     /tmp/cciyzRgz.s:1814   .text:000000000000093c .L0 
     /tmp/cciyzRgz.s:1816   .text:0000000000000940 .L0 
     /tmp/cciyzRgz.s:1823   .text:000000000000094c .L0 
     /tmp/cciyzRgz.s:1831   .text:0000000000000954 .L0 
     /tmp/cciyzRgz.s:1835   .text:0000000000000958 .L0 
     /tmp/cciyzRgz.s:1837   .text:000000000000095c .L0 
     /tmp/cciyzRgz.s:1838   .text:000000000000095c .L0 
     /tmp/cciyzRgz.s:1842   .text:0000000000000968 .L0 
     /tmp/cciyzRgz.s:1844   .text:000000000000096c .L0 
     /tmp/cciyzRgz.s:1852   .text:000000000000097c .L0 
     /tmp/cciyzRgz.s:1853   .text:000000000000097c .L0 
     /tmp/cciyzRgz.s:1855   .text:0000000000000980 .L0 
     /tmp/cciyzRgz.s:1862   .text:0000000000000990 .L0 
     /tmp/cciyzRgz.s:1863   .text:0000000000000990 .L0 
     /tmp/cciyzRgz.s:1865   .text:0000000000000994 .L0 
     /tmp/cciyzRgz.s:1877   .text:00000000000009b0 .L0 
     /tmp/cciyzRgz.s:1878   .text:00000000000009b4 .L0 
     /tmp/cciyzRgz.s:1879   .text:00000000000009b4 .L0 
GAS LISTING /tmp/cciyzRgz.s 			page 67


     /tmp/cciyzRgz.s:1881   .text:00000000000009b8 .L0 
     /tmp/cciyzRgz.s:1883   .text:00000000000009bc .L0 
     /tmp/cciyzRgz.s:1885   .text:00000000000009c0 .L0 
     /tmp/cciyzRgz.s:1887   .text:00000000000009c4 .L0 
     /tmp/cciyzRgz.s:1889   .text:00000000000009c8 .L0 
     /tmp/cciyzRgz.s:1892   .text:00000000000009cc .L0 
     /tmp/cciyzRgz.s:1894   .text:00000000000009d0 .L0 
     /tmp/cciyzRgz.s:1896   .text:00000000000009d4 .L0 
     /tmp/cciyzRgz.s:1898   .text:00000000000009d8 .L0 
     /tmp/cciyzRgz.s:1900   .text:00000000000009dc .L0 
     /tmp/cciyzRgz.s:1902   .text:00000000000009e0 .L0 
     /tmp/cciyzRgz.s:1904   .text:00000000000009e4 .L0 
     /tmp/cciyzRgz.s:1908   .text:00000000000009e8 .L0 
     /tmp/cciyzRgz.s:1912   .text:00000000000009ec .L0 
     /tmp/cciyzRgz.s:1923   .text:0000000000000a08 .L0 
     /tmp/cciyzRgz.s:1935   .text:0000000000000a24 .L0 
     /tmp/cciyzRgz.s:1946   .text:0000000000000a40 .L0 
     /tmp/cciyzRgz.s:1959   .text:0000000000000a5c .L0 
     /tmp/cciyzRgz.s:1968   .text:0000000000000a74 .L0 
     /tmp/cciyzRgz.s:2046   .text:0000000000000a74 _Z8userMainv
     /tmp/cciyzRgz.s:2050   .text:0000000000000a74 .L0 
     /tmp/cciyzRgz.s:2051   .text:0000000000000a74 .L0 
     /tmp/cciyzRgz.s:2052   .text:0000000000000a78 .L0 
     /tmp/cciyzRgz.s:2056   .text:0000000000000a84 .L0 
     /tmp/cciyzRgz.s:2057   .text:0000000000000a84 .L0 
     /tmp/cciyzRgz.s:2058   .text:0000000000000a84 .L0 
     /tmp/cciyzRgz.s:2060   .text:0000000000000a88 .L0 
     /tmp/cciyzRgz.s:2062   .text:0000000000000a88 .L0 
     /tmp/cciyzRgz.s:2063   .text:0000000000000a88 .L0 
     /tmp/cciyzRgz.s:2067   .text:0000000000000a94 .L0 
     /tmp/cciyzRgz.s:2068   .text:0000000000000a94 .L0 
     /tmp/cciyzRgz.s:2072   .text:0000000000000aa4 .L0 
     /tmp/cciyzRgz.s:2075   .text:0000000000000aa8 .L0 
     /tmp/cciyzRgz.s:2076   .text:0000000000000aa8 .L0 
     /tmp/cciyzRgz.s:2080   .text:0000000000000ab4 .L0 
     /tmp/cciyzRgz.s:2081   .text:0000000000000ab4 .L0 
     /tmp/cciyzRgz.s:2087   .text:0000000000000ac4 .L0 
     /tmp/cciyzRgz.s:2088   .text:0000000000000ac4 .L0 
     /tmp/cciyzRgz.s:2091   .text:0000000000000acc .L0 
     /tmp/cciyzRgz.s:2092   .text:0000000000000acc .L0 
     /tmp/cciyzRgz.s:2096   .text:0000000000000ad8 .L0 
     /tmp/cciyzRgz.s:2097   .text:0000000000000ad8 .L0 
     /tmp/cciyzRgz.s:2100   .text:0000000000000ae0 .L0 
     /tmp/cciyzRgz.s:2101   .text:0000000000000ae4 .L0 
     /tmp/cciyzRgz.s:2103   .text:0000000000000ae8 .L0 
     /tmp/cciyzRgz.s:2104   .text:0000000000000ae8 .L0 
     /tmp/cciyzRgz.s:2106   .text:0000000000000aec .L0 
     /tmp/cciyzRgz.s:2109   .text:0000000000000af0 .L0 
     /tmp/cciyzRgz.s:2111   .text:0000000000000af4 .L0 
     /tmp/cciyzRgz.s:2172   .bss:0000000000000004 _ZN19ConsumerProducerCPP9threadEndE
     /tmp/cciyzRgz.s:2185   .bss:0000000000000010 _ZN19ConsumerProducerCPP10waitForAllE
     /tmp/cciyzRgz.s:2159   .bss:0000000000000000 finishedE
     /tmp/cciyzRgz.s:2180   .bss:0000000000000009 finishedD
     /tmp/cciyzRgz.s:2176   .bss:0000000000000008 finishedC
     /tmp/cciyzRgz.s:2167   .bss:0000000000000002 finishedB
     /tmp/cciyzRgz.s:2163   .bss:0000000000000001 finishedA
     /tmp/cciyzRgz.s:2156   .bss:0000000000000000 .LANCHOR0
GAS LISTING /tmp/cciyzRgz.s 			page 68


     /tmp/cciyzRgz.s:2195   .text:0000000000000af4 .L0 
     /tmp/cciyzRgz.s:452    .text._ZN19ConsumerProducerCPP8Consumer3runEv:00000000000000d0 .L0 
     /tmp/cciyzRgz.s:489    .text._ZN19ConsumerProducerCPP8ConsumerD2Ev:0000000000000034 .L0 
     /tmp/cciyzRgz.s:536    .text._ZN19ConsumerProducerCPP8ConsumerD0Ev:000000000000004c .L0 
     /tmp/cciyzRgz.s:573    .text._ZN19ConsumerProducerCPP16ProducerKeyboradD2Ev:0000000000000034 .L0 
     /tmp/cciyzRgz.s:620    .text._ZN19ConsumerProducerCPP16ProducerKeyboradD0Ev:000000000000004c .L0 
     /tmp/cciyzRgz.s:657    .text._ZN19ConsumerProducerCPP8ProducerD2Ev:0000000000000034 .L0 
     /tmp/cciyzRgz.s:704    .text._ZN19ConsumerProducerCPP8ProducerD0Ev:000000000000004c .L0 
     /tmp/cciyzRgz.s:784    .text._ZN19ConsumerProducerCPP16ProducerKeyborad3runEv:0000000000000084 .L0 
     /tmp/cciyzRgz.s:869    .text._ZN19ConsumerProducerCPP8Producer3runEv:0000000000000094 .L0 
     /tmp/cciyzRgz.s:8      .rodata.str1.8:0000000000000000 .LC0
     /tmp/cciyzRgz.s:30     .text:0000000000000010 .L0 
     /tmp/cciyzRgz.s:37     .text:0000000000000024 .L0 
     /tmp/cciyzRgz.s:56     .rodata.str1.8:0000000000000010 .LC1
     /tmp/cciyzRgz.s:139    .text:00000000000000a0 .L0 
     /tmp/cciyzRgz.s:59     .rodata.str1.8:0000000000000018 .LC2
     /tmp/cciyzRgz.s:151    .text:00000000000000c4 .L0 
     /tmp/cciyzRgz.s:62     .rodata.str1.8:0000000000000020 .LC3
     /tmp/cciyzRgz.s:166    .text:00000000000000dc .L0 
     /tmp/cciyzRgz.s:172    .text:00000000000000f0 .L0 
     /tmp/cciyzRgz.s:192    .rodata.str1.8:0000000000000030 .LC4
     /tmp/cciyzRgz.s:272    .text:000000000000016c .L0 
     /tmp/cciyzRgz.s:284    .text:0000000000000190 .L0 
     /tmp/cciyzRgz.s:195    .rodata.str1.8:0000000000000038 .LC5
     /tmp/cciyzRgz.s:299    .text:00000000000001a8 .L0 
     /tmp/cciyzRgz.s:305    .text:00000000000001bc .L0 
     /tmp/cciyzRgz.s:943    .rodata.str1.8:0000000000000048 .LC6
     /tmp/cciyzRgz.s:984    .text:0000000000000278 .L0 
     /tmp/cciyzRgz.s:996    .text:000000000000029c .L0 
     /tmp/cciyzRgz.s:946    .rodata.str1.8:0000000000000050 .LC7
     /tmp/cciyzRgz.s:1011   .text:00000000000002bc .L0 
     /tmp/cciyzRgz.s:949    .rodata.str1.8:0000000000000060 .LC8
     /tmp/cciyzRgz.s:1036   .text:00000000000002dc .L0 
     /tmp/cciyzRgz.s:1048   .text:0000000000000300 .L0 
     /tmp/cciyzRgz.s:952    .rodata.str1.8:0000000000000068 .LC9
     /tmp/cciyzRgz.s:1060   .text:0000000000000320 .L0 
     /tmp/cciyzRgz.s:1073   .text:0000000000000344 .L0 
     /tmp/cciyzRgz.s:1080   .text:0000000000000358 .L0 
     /tmp/cciyzRgz.s:1092   .text:000000000000037c .L0 
     /tmp/cciyzRgz.s:1107   .text:000000000000039c .L0 
     /tmp/cciyzRgz.s:1113   .text:00000000000003b0 .L0 
     /tmp/cciyzRgz.s:1138   .rodata.str1.8:0000000000000078 .LC10
     /tmp/cciyzRgz.s:1179   .text:00000000000003f8 .L0 
     /tmp/cciyzRgz.s:1191   .text:000000000000041c .L0 
     /tmp/cciyzRgz.s:1141   .rodata.str1.8:0000000000000080 .LC11
     /tmp/cciyzRgz.s:1206   .text:000000000000043c .L0 
     /tmp/cciyzRgz.s:1144   .rodata.str1.8:0000000000000090 .LC12
     /tmp/cciyzRgz.s:1229   .text:0000000000000468 .L0 
     /tmp/cciyzRgz.s:1242   .text:000000000000048c .L0 
     /tmp/cciyzRgz.s:1249   .text:00000000000004a0 .L0 
     /tmp/cciyzRgz.s:1261   .text:00000000000004c4 .L0 
     /tmp/cciyzRgz.s:1147   .rodata.str1.8:00000000000000a0 .LC13
     /tmp/cciyzRgz.s:1276   .text:00000000000004e4 .L0 
     /tmp/cciyzRgz.s:1282   .text:00000000000004f8 .L0 
     /tmp/cciyzRgz.s:1341   .text:0000000000000534 .L0 
     /tmp/cciyzRgz.s:1307   .rodata.str1.8:00000000000000b0 .LC14
     /tmp/cciyzRgz.s:1347   .text:0000000000000548 .L0 
GAS LISTING /tmp/cciyzRgz.s 			page 69


     /tmp/cciyzRgz.s:1353   .text:000000000000055c .L0 
     /tmp/cciyzRgz.s:1310   .rodata.str1.8:00000000000000c8 .LC15
     /tmp/cciyzRgz.s:1359   .text:0000000000000570 .L0 
     /tmp/cciyzRgz.s:1365   .text:0000000000000584 .L0 
     /tmp/cciyzRgz.s:1313   .rodata.str1.8:00000000000000e0 .LC16
     /tmp/cciyzRgz.s:1371   .text:0000000000000598 .L0 
     /tmp/cciyzRgz.s:1377   .text:00000000000005ac .L0 
     /tmp/cciyzRgz.s:1316   .rodata.str1.8:00000000000000f8 .LC17
     /tmp/cciyzRgz.s:1383   .text:00000000000005c0 .L0 
     /tmp/cciyzRgz.s:1389   .text:00000000000005d4 .L0 
     /tmp/cciyzRgz.s:1319   .rodata.str1.8:0000000000000110 .LC18
     /tmp/cciyzRgz.s:1395   .text:00000000000005e8 .L0 
     /tmp/cciyzRgz.s:1407   .text:0000000000000604 .L0 
     /tmp/cciyzRgz.s:1410   .text:0000000000000610 .L0 
     /tmp/cciyzRgz.s:1413   .text:000000000000061c .L0 
     /tmp/cciyzRgz.s:1416   .text:0000000000000628 .L0 
     /tmp/cciyzRgz.s:1419   .text:0000000000000634 .L0 
     /tmp/cciyzRgz.s:1435   .rodata.str1.8:0000000000000128 .LC19
     /tmp/cciyzRgz.s:1497   .text:0000000000000688 .L0 
     /tmp/cciyzRgz.s:1438   .rodata.str1.8:0000000000000148 .LC20
     /tmp/cciyzRgz.s:1517   .text:00000000000006bc .L0 
     /tmp/cciyzRgz.s:1441   .rodata.str1.8:0000000000000168 .LC21
     /tmp/cciyzRgz.s:1535   .text:00000000000006ec .L0 
     /tmp/cciyzRgz.s:1444   .rodata.str1.8:0000000000000180 .LC22
     /tmp/cciyzRgz.s:1547   .text:0000000000000710 .L0 
     /tmp/cciyzRgz.s:1447   .rodata.str1.8:0000000000000198 .LC23
     /tmp/cciyzRgz.s:1559   .text:0000000000000734 .L0 
     /tmp/cciyzRgz.s:1450   .rodata.str1.8:00000000000001a0 .LC24
     /tmp/cciyzRgz.s:1582   .text:000000000000076c .L0 
     /tmp/cciyzRgz.s:1453   .rodata.str1.8:00000000000001e0 .LC25
     /tmp/cciyzRgz.s:1591   .text:0000000000000780 .L0 
     /tmp/cciyzRgz.s:1614   .text:00000000000007b4 .L0 
     /tmp/cciyzRgz.s:1670   .text:000000000000082c .L0 
     /tmp/cciyzRgz.s:1690   .text:0000000000000850 .L0 
     /tmp/cciyzRgz.s:1707   .text:0000000000000874 .L0 
     /tmp/cciyzRgz.s:1730   .text:000000000000089c .L0 
     /tmp/cciyzRgz.s:1763   .text:00000000000008e4 .L0 
     /tmp/cciyzRgz.s:1800   .text:000000000000091c .L0 
     /tmp/cciyzRgz.s:1812   .text:0000000000000934 .L0 
     /tmp/cciyzRgz.s:2063   .text:0000000000000a88 .L0 
     /tmp/cciyzRgz.s:2068   .text:0000000000000a94 .L0 
     /tmp/cciyzRgz.s:132    .text:0000000000000098 .L9
     /tmp/cciyzRgz.s:124    .text:0000000000000094 .L5
     /tmp/cciyzRgz.s:92     .text:0000000000000064 .L6
     /tmp/cciyzRgz.s:113    .text:0000000000000080 .L7
     /tmp/cciyzRgz.s:160    .text:00000000000000dc .L4
     /tmp/cciyzRgz.s:104    .text:0000000000000070 .L8
     /tmp/cciyzRgz.s:265    .text:0000000000000164 .L17
     /tmp/cciyzRgz.s:257    .text:0000000000000160 .L13
     /tmp/cciyzRgz.s:225    .text:0000000000000130 .L14
     /tmp/cciyzRgz.s:246    .text:000000000000014c .L15
     /tmp/cciyzRgz.s:293    .text:00000000000001a8 .L12
     /tmp/cciyzRgz.s:237    .text:000000000000013c .L16
     /tmp/cciyzRgz.s:914    .text:0000000000000234 .L47
     /tmp/cciyzRgz.s:931    .text:000000000000024c .L52
     /tmp/cciyzRgz.s:901    .text:0000000000000214 .L49
     /tmp/cciyzRgz.s:1004   .text:00000000000002b4 .L55
GAS LISTING /tmp/cciyzRgz.s 			page 70


     /tmp/cciyzRgz.s:981    .text:0000000000000278 .L59
     /tmp/cciyzRgz.s:1100   .text:0000000000000394 .L57
     /tmp/cciyzRgz.s:1077   .text:0000000000000358 .L60
     /tmp/cciyzRgz.s:1199   .text:0000000000000434 .L63
     /tmp/cciyzRgz.s:1176   .text:00000000000003f8 .L67
     /tmp/cciyzRgz.s:1269   .text:00000000000004dc .L65
     /tmp/cciyzRgz.s:1246   .text:00000000000004a0 .L68
     /tmp/cciyzRgz.s:1404   .text:0000000000000604 .L72
     /tmp/cciyzRgz.s:1399   .text:00000000000005fc .L70
     /tmp/cciyzRgz.s:1579   .text:000000000000076c .L100
     /tmp/cciyzRgz.s:1588   .text:0000000000000780 .L101
     /tmp/cciyzRgz.s:1598   .text:0000000000000798 .L102
     /tmp/cciyzRgz.s:1595   .text:0000000000000790 .L76
     /tmp/cciyzRgz.s:1875   .text:00000000000009b0 .L74
     /tmp/cciyzRgz.s:1748   .text:00000000000008c8 .L79
     /tmp/cciyzRgz.s:1782   .text:000000000000090c .L78
     /tmp/cciyzRgz.s:1726   .text:000000000000089c .L103
     /tmp/cciyzRgz.s:1808   .text:0000000000000934 .L80
     /tmp/cciyzRgz.s:1794   .text:0000000000000918 .L81
     /tmp/cciyzRgz.s:1820   .text:000000000000094c .L82
     /tmp/cciyzRgz.s:1833   .text:0000000000000958 .L85
     /tmp/cciyzRgz.s:1849   .text:000000000000097c .L83
     /tmp/cciyzRgz.s:1827   .text:0000000000000954 .L84
     /tmp/cciyzRgz.s:1860   .text:0000000000000990 .L86
     /tmp/cciyzRgz.s:1872   .text:00000000000009ac .L87
     /tmp/cciyzRgz.s:369    .text._ZN19ConsumerProducerCPP8Consumer3runEv:0000000000000034 .L0 
     /tmp/cciyzRgz.s:365    .text._ZN19ConsumerProducerCPP8Consumer3runEv:0000000000000034 .L20
     /tmp/cciyzRgz.s:414    .text._ZN19ConsumerProducerCPP8Consumer3runEv:0000000000000090 .L21
     /tmp/cciyzRgz.s:358    .text._ZN19ConsumerProducerCPP8Consumer3runEv:0000000000000028 .L25
     /tmp/cciyzRgz.s:398    .text._ZN19ConsumerProducerCPP8Consumer3runEv:0000000000000074 .L26
     /tmp/cciyzRgz.s:471    .text._ZN19ConsumerProducerCPP8ConsumerD2Ev:0000000000000010 .L0 
     /tmp/cciyzRgz.s:513    .text._ZN19ConsumerProducerCPP8ConsumerD0Ev:0000000000000018 .L0 
     /tmp/cciyzRgz.s:555    .text._ZN19ConsumerProducerCPP16ProducerKeyboradD2Ev:0000000000000010 .L0 
     /tmp/cciyzRgz.s:597    .text._ZN19ConsumerProducerCPP16ProducerKeyboradD0Ev:0000000000000018 .L0 
     /tmp/cciyzRgz.s:639    .text._ZN19ConsumerProducerCPP8ProducerD2Ev:0000000000000010 .L0 
     /tmp/cciyzRgz.s:681    .text._ZN19ConsumerProducerCPP8ProducerD0Ev:0000000000000018 .L0 
     /tmp/cciyzRgz.s:753    .text._ZN19ConsumerProducerCPP16ProducerKeyborad3runEv:0000000000000044 .L0 
     /tmp/cciyzRgz.s:749    .text._ZN19ConsumerProducerCPP16ProducerKeyborad3runEv:0000000000000040 .L40
     /tmp/cciyzRgz.s:727    .text._ZN19ConsumerProducerCPP16ProducerKeyborad3runEv:0000000000000018 .L41
     /tmp/cciyzRgz.s:814    .text._ZN19ConsumerProducerCPP8Producer3runEv:0000000000000020 .L0 
     /tmp/cciyzRgz.s:844    .text._ZN19ConsumerProducerCPP8Producer3runEv:000000000000006c .L44
     /tmp/cciyzRgz.s:811    .text._ZN19ConsumerProducerCPP8Producer3runEv:0000000000000020 .L45
     /tmp/cciyzRgz.s:1498   .text:0000000000000690 .LEHB0
     /tmp/cciyzRgz.s:1460   .text:0000000000000650 .LFB60
     /tmp/cciyzRgz.s:1571   .text:0000000000000758 .LEHE0
     /tmp/cciyzRgz.s:1574   .text:0000000000000760 .LEHB1
     /tmp/cciyzRgz.s:1577   .text:0000000000000768 .LEHE1
     /tmp/cciyzRgz.s:1907   .text:00000000000009e8 .L94
     /tmp/cciyzRgz.s:1583   .text:0000000000000774 .LEHB2
     /tmp/cciyzRgz.s:1605   .text:00000000000007a4 .LEHE2
     /tmp/cciyzRgz.s:1609   .text:00000000000007ac .LEHB3
     /tmp/cciyzRgz.s:1612   .text:00000000000007b4 .LEHE3
     /tmp/cciyzRgz.s:1920   .text:0000000000000a04 .L95
     /tmp/cciyzRgz.s:1656   .text:0000000000000818 .LEHB4
     /tmp/cciyzRgz.s:1659   .text:0000000000000820 .LEHE4
     /tmp/cciyzRgz.s:1662   .text:0000000000000824 .LEHB5
     /tmp/cciyzRgz.s:1668   .text:000000000000082c .LEHE5
GAS LISTING /tmp/cciyzRgz.s 			page 71


     /tmp/cciyzRgz.s:1931   .text:0000000000000a20 .L96
     /tmp/cciyzRgz.s:1679   .text:0000000000000840 .LEHB6
     /tmp/cciyzRgz.s:1697   .text:0000000000000868 .LEHE6
     /tmp/cciyzRgz.s:1700   .text:000000000000086c .LEHB7
     /tmp/cciyzRgz.s:1706   .text:0000000000000874 .LEHE7
     /tmp/cciyzRgz.s:1943   .text:0000000000000a3c .L97
     /tmp/cciyzRgz.s:1718   .text:000000000000088c .LEHB8
     /tmp/cciyzRgz.s:1770   .text:00000000000008fc .LEHE8
     /tmp/cciyzRgz.s:1773   .text:0000000000000900 .LEHB9
     /tmp/cciyzRgz.s:1779   .text:0000000000000908 .LEHE9
     /tmp/cciyzRgz.s:1954   .text:0000000000000a58 .L98
     /tmp/cciyzRgz.s:1787   .text:000000000000090c .LEHB10
     /tmp/cciyzRgz.s:1871   .text:00000000000009ac .LEHE10
     /tmp/cciyzRgz.s:1916   .text:00000000000009fc .LEHB11
     /tmp/cciyzRgz.s:1919   .text:0000000000000a04 .LEHE11
     /tmp/cciyzRgz.s:1927   .text:0000000000000a18 .LEHB12
     /tmp/cciyzRgz.s:1930   .text:0000000000000a20 .LEHE12
     /tmp/cciyzRgz.s:1939   .text:0000000000000a34 .LEHB13
     /tmp/cciyzRgz.s:1942   .text:0000000000000a3c .LEHE13
     /tmp/cciyzRgz.s:1950   .text:0000000000000a50 .LEHB14
     /tmp/cciyzRgz.s:1953   .text:0000000000000a58 .LEHE14
     /tmp/cciyzRgz.s:1963   .text:0000000000000a6c .LEHB15
     /tmp/cciyzRgz.s:1966   .text:0000000000000a74 .LEHE15
     /tmp/cciyzRgz.s:5166   .debug_abbrev:0000000000000000 .Ldebug_abbrev0
     /tmp/cciyzRgz.s:7381   .debug_str:000000000000086f .LASF136
     /tmp/cciyzRgz.s:7235   .debug_str:0000000000000315 .LASF137
     /tmp/cciyzRgz.s:7161   .debug_str:000000000000009b .LASF138
     /tmp/cciyzRgz.s:7081   .debug_ranges:0000000000000000 .Ldebug_ranges0
     /tmp/cciyzRgz.s:7141   .debug_line:0000000000000000 .Ldebug_line0
     /tmp/cciyzRgz.s:7251   .debug_str:00000000000003a3 .LASF0
     /tmp/cciyzRgz.s:7269   .debug_str:000000000000046e .LASF1
     /tmp/cciyzRgz.s:7343   .debug_str:0000000000000732 .LASF2
     /tmp/cciyzRgz.s:7209   .debug_str:0000000000000257 .LASF3
     /tmp/cciyzRgz.s:7347   .debug_str:000000000000074a .LASF4
     /tmp/cciyzRgz.s:7259   .debug_str:00000000000003fa .LASF5
     /tmp/cciyzRgz.s:7157   .debug_str:0000000000000088 .LASF6
     /tmp/cciyzRgz.s:7319   .debug_str:0000000000000675 .LASF7
     /tmp/cciyzRgz.s:7265   .debug_str:0000000000000432 .LASF8
     /tmp/cciyzRgz.s:7229   .debug_str:00000000000002cc .LASF9
     /tmp/cciyzRgz.s:7237   .debug_str:0000000000000327 .LASF10
     /tmp/cciyzRgz.s:7177   .debug_str:0000000000000142 .LASF11
     /tmp/cciyzRgz.s:7403   .debug_str:0000000000000a2a .LASF12
     /tmp/cciyzRgz.s:7219   .debug_str:0000000000000283 .LASF13
     /tmp/cciyzRgz.s:7191   .debug_str:00000000000001bb .LASF14
     /tmp/cciyzRgz.s:7175   .debug_str:0000000000000132 .LASF15
     /tmp/cciyzRgz.s:7371   .debug_str:000000000000083b .LASF16
     /tmp/cciyzRgz.s:7203   .debug_str:0000000000000217 .LASF17
     /tmp/cciyzRgz.s:7359   .debug_str:000000000000079d .LASF18
     /tmp/cciyzRgz.s:7283   .debug_str:0000000000000556 .LASF19
     /tmp/cciyzRgz.s:7415   .debug_str:0000000000000ad5 .LASF20
     /tmp/cciyzRgz.s:7167   .debug_str:00000000000000ff .LASF139
     /tmp/cciyzRgz.s:7345   .debug_str:0000000000000740 .LASF21
     /tmp/cciyzRgz.s:7307   .debug_str:0000000000000619 .LASF22
     /tmp/cciyzRgz.s:7349   .debug_str:0000000000000751 .LASF23
     /tmp/cciyzRgz.s:7351   .debug_str:000000000000075b .LASF24
     /tmp/cciyzRgz.s:7353   .debug_str:0000000000000765 .LASF25
     /tmp/cciyzRgz.s:7287   .debug_str:000000000000056e .LASF27
GAS LISTING /tmp/cciyzRgz.s 			page 72


     /tmp/cciyzRgz.s:7255   .debug_str:00000000000003c2 .LASF133
     /tmp/cciyzRgz.s:7193   .debug_str:00000000000001cb .LASF140
     /tmp/cciyzRgz.s:7291   .debug_str:0000000000000583 .LASF49
     /tmp/cciyzRgz.s:7201   .debug_str:0000000000000204 .LASF141
     /tmp/cciyzRgz.s:7377   .debug_str:0000000000000860 .LASF26
     /tmp/cciyzRgz.s:7395   .debug_str:00000000000009c5 .LASF28
     /tmp/cciyzRgz.s:7387   .debug_str:0000000000000977 .LASF29
     /tmp/cciyzRgz.s:7363   .debug_str:00000000000007ea .LASF30
     /tmp/cciyzRgz.s:7311   .debug_str:0000000000000649 .LASF31
     /tmp/cciyzRgz.s:7401   .debug_str:0000000000000a1b .LASF32
     /tmp/cciyzRgz.s:7293   .debug_str:0000000000000588 .LASF33
     /tmp/cciyzRgz.s:7147   .debug_str:0000000000000047 .LASF34
     /tmp/cciyzRgz.s:7303   .debug_str:00000000000005cf .LASF35
     /tmp/cciyzRgz.s:7261   .debug_str:000000000000040c .LASF37
     /tmp/cciyzRgz.s:7321   .debug_str:0000000000000688 .LASF36
     /tmp/cciyzRgz.s:7437   .debug_str:0000000000000b67 .LASF38
     /tmp/cciyzRgz.s:7367   .debug_str:0000000000000819 .LASF142
     /tmp/cciyzRgz.s:7225   .debug_str:00000000000002aa .LASF143
     /tmp/cciyzRgz.s:7337   .debug_str:00000000000006e5 .LASF39
     /tmp/cciyzRgz.s:7341   .debug_str:000000000000071b .LASF40
     /tmp/cciyzRgz.s:7409   .debug_str:0000000000000a74 .LASF71
     /tmp/cciyzRgz.s:7181   .debug_str:000000000000015d .LASF41
     /tmp/cciyzRgz.s:7199   .debug_str:00000000000001ff .LASF43
     /tmp/cciyzRgz.s:7393   .debug_str:00000000000009ae .LASF42
     /tmp/cciyzRgz.s:7373   .debug_str:0000000000000847 .LASF44
     /tmp/cciyzRgz.s:7263   .debug_str:000000000000041e .LASF144
     /tmp/cciyzRgz.s:7297   .debug_str:00000000000005a1 .LASF45
     /tmp/cciyzRgz.s:7357   .debug_str:0000000000000777 .LASF47
     /tmp/cciyzRgz.s:7179   .debug_str:0000000000000151 .LASF145
     /tmp/cciyzRgz.s:7335   .debug_str:00000000000006db .LASF46
     /tmp/cciyzRgz.s:7205   .debug_str:000000000000022d .LASF48
     /tmp/cciyzRgz.s:7213   .debug_str:000000000000026e .LASF50
     /tmp/cciyzRgz.s:7267   .debug_str:0000000000000445 .LASF51
     /tmp/cciyzRgz.s:7165   .debug_str:00000000000000d5 .LASF52
     /tmp/cciyzRgz.s:7439   .debug_str:0000000000000b79 .LASF53
     /tmp/cciyzRgz.s:7281   .debug_str:000000000000052e .LASF58
     /tmp/cciyzRgz.s:7247   .debug_str:000000000000038c .LASF60
     /tmp/cciyzRgz.s:7183   .debug_str:0000000000000172 .LASF62
     /tmp/cciyzRgz.s:7169   .debug_str:0000000000000107 .LASF54
     /tmp/cciyzRgz.s:7405   .debug_str:0000000000000a35 .LASF55
     /tmp/cciyzRgz.s:7365   .debug_str:00000000000007ef .LASF56
     /tmp/cciyzRgz.s:7271   .debug_str:0000000000000481 .LASF57
     /tmp/cciyzRgz.s:7277   .debug_str:00000000000004f6 .LASF59
     /tmp/cciyzRgz.s:7153   .debug_str:0000000000000074 .LASF61
     /tmp/cciyzRgz.s:7429   .debug_str:0000000000000b20 .LASF63
     /tmp/cciyzRgz.s:7211   .debug_str:000000000000025d .LASF64
     /tmp/cciyzRgz.s:7273   .debug_str:00000000000004b8 .LASF65
     /tmp/cciyzRgz.s:7257   .debug_str:00000000000003c7 .LASF66
     /tmp/cciyzRgz.s:7305   .debug_str:00000000000005d9 .LASF67
     /tmp/cciyzRgz.s:7385   .debug_str:0000000000000946 .LASF68
     /tmp/cciyzRgz.s:7253   .debug_str:00000000000003b0 .LASF69
     /tmp/cciyzRgz.s:7233   .debug_str:00000000000002e6 .LASF70
     /tmp/cciyzRgz.s:7443   .debug_str:0000000000000bb7 .LASF146
     /tmp/cciyzRgz.s:7411   .debug_str:0000000000000a7e .LASF147
     /tmp/cciyzRgz.s:7243   .debug_str:000000000000035f .LASF72
     /tmp/cciyzRgz.s:7151   .debug_str:0000000000000061 .LASF73
     /tmp/cciyzRgz.s:7435   .debug_str:0000000000000b61 .LASF74
GAS LISTING /tmp/cciyzRgz.s 			page 73


     /tmp/cciyzRgz.s:7317   .debug_str:000000000000065f .LASF75
     /tmp/cciyzRgz.s:7197   .debug_str:00000000000001f6 .LASF76
     /tmp/cciyzRgz.s:7383   .debug_str:0000000000000933 .LASF77
     /tmp/cciyzRgz.s:7163   .debug_str:00000000000000cf .LASF78
     /tmp/cciyzRgz.s:7223   .debug_str:00000000000002a5 .LASF79
     /tmp/cciyzRgz.s:7155   .debug_str:000000000000007e .LASF80
     /tmp/cciyzRgz.s:7445   .debug_str:0000000000000bcc .LASF81
     /tmp/cciyzRgz.s:578    .text._ZN19ConsumerProducerCPP16ProducerKeyboradD0Ev:0000000000000000 .LFB77
     /tmp/cciyzRgz.s:618    .text._ZN19ConsumerProducerCPP16ProducerKeyboradD0Ev:000000000000004c .LFE77
     /tmp/cciyzRgz.s:6265   .debug_loc:0000000000000000 .LLST17
     /tmp/cciyzRgz.s:594    .text._ZN19ConsumerProducerCPP16ProducerKeyboradD0Ev:0000000000000018 .LBB46
     /tmp/cciyzRgz.s:602    .text._ZN19ConsumerProducerCPP16ProducerKeyboradD0Ev:000000000000002c .LBE46
     /tmp/cciyzRgz.s:6283   .debug_loc:000000000000004c .LLST18
     /tmp/cciyzRgz.s:600    .text._ZN19ConsumerProducerCPP16ProducerKeyboradD0Ev:000000000000002c .LVL62
     /tmp/cciyzRgz.s:605    .text._ZN19ConsumerProducerCPP16ProducerKeyboradD0Ev:0000000000000038 .LVL63
     /tmp/cciyzRgz.s:7339   .debug_str:00000000000006ec .LASF82
     /tmp/cciyzRgz.s:541    .text._ZN19ConsumerProducerCPP16ProducerKeyboradD2Ev:0000000000000000 .LFB75
     /tmp/cciyzRgz.s:569    .text._ZN19ConsumerProducerCPP16ProducerKeyboradD2Ev:0000000000000034 .LFE75
     /tmp/cciyzRgz.s:6294   .debug_loc:0000000000000082 .LLST16
     /tmp/cciyzRgz.s:558    .text._ZN19ConsumerProducerCPP16ProducerKeyboradD2Ev:0000000000000024 .LVL59
     /tmp/cciyzRgz.s:7413   .debug_str:0000000000000aaf .LASF83
     /tmp/cciyzRgz.s:662    .text._ZN19ConsumerProducerCPP8ProducerD0Ev:0000000000000000 .LFB73
     /tmp/cciyzRgz.s:702    .text._ZN19ConsumerProducerCPP8ProducerD0Ev:000000000000004c .LFE73
     /tmp/cciyzRgz.s:6308   .debug_loc:00000000000000bb .LLST20
     /tmp/cciyzRgz.s:678    .text._ZN19ConsumerProducerCPP8ProducerD0Ev:0000000000000018 .LBB49
     /tmp/cciyzRgz.s:686    .text._ZN19ConsumerProducerCPP8ProducerD0Ev:000000000000002c .LBE49
     /tmp/cciyzRgz.s:6326   .debug_loc:0000000000000107 .LLST21
     /tmp/cciyzRgz.s:684    .text._ZN19ConsumerProducerCPP8ProducerD0Ev:000000000000002c .LVL69
     /tmp/cciyzRgz.s:689    .text._ZN19ConsumerProducerCPP8ProducerD0Ev:0000000000000038 .LVL70
     /tmp/cciyzRgz.s:7245   .debug_str:0000000000000366 .LASF84
     /tmp/cciyzRgz.s:625    .text._ZN19ConsumerProducerCPP8ProducerD2Ev:0000000000000000 .LFB71
     /tmp/cciyzRgz.s:653    .text._ZN19ConsumerProducerCPP8ProducerD2Ev:0000000000000034 .LFE71
     /tmp/cciyzRgz.s:6337   .debug_loc:000000000000013d .LLST19
     /tmp/cciyzRgz.s:642    .text._ZN19ConsumerProducerCPP8ProducerD2Ev:0000000000000024 .LVL66
     /tmp/cciyzRgz.s:7389   .debug_str:000000000000097e .LASF85
     /tmp/cciyzRgz.s:494    .text._ZN19ConsumerProducerCPP8ConsumerD0Ev:0000000000000000 .LFB69
     /tmp/cciyzRgz.s:534    .text._ZN19ConsumerProducerCPP8ConsumerD0Ev:000000000000004c .LFE69
     /tmp/cciyzRgz.s:6351   .debug_loc:0000000000000176 .LLST14
     /tmp/cciyzRgz.s:510    .text._ZN19ConsumerProducerCPP8ConsumerD0Ev:0000000000000018 .LBB43
     /tmp/cciyzRgz.s:518    .text._ZN19ConsumerProducerCPP8ConsumerD0Ev:000000000000002c .LBE43
     /tmp/cciyzRgz.s:6369   .debug_loc:00000000000001c2 .LLST15
     /tmp/cciyzRgz.s:516    .text._ZN19ConsumerProducerCPP8ConsumerD0Ev:000000000000002c .LVL55
     /tmp/cciyzRgz.s:521    .text._ZN19ConsumerProducerCPP8ConsumerD0Ev:0000000000000038 .LVL56
     /tmp/cciyzRgz.s:7309   .debug_str:0000000000000623 .LASF86
     /tmp/cciyzRgz.s:457    .text._ZN19ConsumerProducerCPP8ConsumerD2Ev:0000000000000000 .LFB67
     /tmp/cciyzRgz.s:485    .text._ZN19ConsumerProducerCPP8ConsumerD2Ev:0000000000000034 .LFE67
     /tmp/cciyzRgz.s:6380   .debug_loc:00000000000001f8 .LLST13
     /tmp/cciyzRgz.s:474    .text._ZN19ConsumerProducerCPP8ConsumerD2Ev:0000000000000024 .LVL52
     /tmp/cciyzRgz.s:7323   .debug_str:0000000000000693 .LASF87
     /tmp/cciyzRgz.s:7249   .debug_str:0000000000000396 .LASF99
     /tmp/cciyzRgz.s:2047   .text:0000000000000a74 .LFB65
     /tmp/cciyzRgz.s:2112   .text:0000000000000af4 .LFE65
     /tmp/cciyzRgz.s:7215   .debug_str:0000000000000277 .LASF88
     /tmp/cciyzRgz.s:6394   .debug_loc:0000000000000231 .LLST53
     /tmp/cciyzRgz.s:7187   .debug_str:00000000000001ab .LASF89
     /tmp/cciyzRgz.s:6401   .debug_loc:0000000000000254 .LLST54
     /tmp/cciyzRgz.s:6408   .debug_loc:0000000000000277 .LLST55
GAS LISTING /tmp/cciyzRgz.s 			page 74


     /tmp/cciyzRgz.s:2078   .text:0000000000000ab4 .LVL239
     /tmp/cciyzRgz.s:2083   .text:0000000000000ac0 .LVL240
     /tmp/cciyzRgz.s:2089   .text:0000000000000acc .LVL242
     /tmp/cciyzRgz.s:2094   .text:0000000000000ad8 .LVL243
     /tmp/cciyzRgz.s:2098   .text:0000000000000ae0 .LVL244
     /tmp/cciyzRgz.s:1969   .text:0000000000000a74 .LFE60
     /tmp/cciyzRgz.s:7207   .debug_str:0000000000000251 .LASF90
     /tmp/cciyzRgz.s:6415   .debug_loc:000000000000029a .LLST38
     /tmp/cciyzRgz.s:7425   .debug_str:0000000000000b04 .LASF91
     /tmp/cciyzRgz.s:6426   .debug_loc:00000000000002d0 .LLST39
     /tmp/cciyzRgz.s:6437   .debug_loc:0000000000000306 .LLST40
     /tmp/cciyzRgz.s:7379   .debug_str:0000000000000865 .LASF92
     /tmp/cciyzRgz.s:6448   .debug_loc:000000000000033c .LLST41
     /tmp/cciyzRgz.s:7295   .debug_str:0000000000000596 .LASF93
     /tmp/cciyzRgz.s:6466   .debug_loc:0000000000000388 .LLST42
     /tmp/cciyzRgz.s:7419   .debug_str:0000000000000aea .LASF94
     /tmp/cciyzRgz.s:6479   .debug_loc:00000000000003c0 .LLST43
     /tmp/cciyzRgz.s:6490   .debug_loc:00000000000003f6 .LLST48
     /tmp/cciyzRgz.s:1727   .text:000000000000089c .LBB56
     /tmp/cciyzRgz.s:6501   .debug_loc:000000000000042c .LLST49
     /tmp/cciyzRgz.s:6532   .debug_loc:0000000000000494 .LLST50
     /tmp/cciyzRgz.s:1778   .text:0000000000000908 .LVL206
     /tmp/cciyzRgz.s:1744   .text:00000000000008c4 .LVL202
     /tmp/cciyzRgz.s:1769   .text:00000000000008fc .LVL204
     /tmp/cciyzRgz.s:1961   .text:0000000000000a68 .LVL235
     /tmp/cciyzRgz.s:6551   .debug_loc:00000000000004f0 .LLST51
     /tmp/cciyzRgz.s:1802   .text:000000000000092c .LVL210
     /tmp/cciyzRgz.s:1829   .text:0000000000000954 .LBB62
     /tmp/cciyzRgz.s:1850   .text:000000000000097c .LBE62
     /tmp/cciyzRgz.s:6562   .debug_loc:0000000000000526 .LLST52
     /tmp/cciyzRgz.s:6569   .debug_loc:0000000000000549 .LLST35
     /tmp/cciyzRgz.s:6600   .debug_loc:0000000000000593 .LLST37
     /tmp/cciyzRgz.s:1663   .text:0000000000000824 .LBB51
     /tmp/cciyzRgz.s:1675   .text:000000000000083c .LBE51
     /tmp/cciyzRgz.s:6631   .debug_loc:00000000000005dd .LLST44
     /tmp/cciyzRgz.s:6658   .debug_loc:0000000000000632 .LLST45
     /tmp/cciyzRgz.s:1667   .text:000000000000082c .LVL192
     /tmp/cciyzRgz.s:1701   .text:000000000000086c .LBB53
     /tmp/cciyzRgz.s:1712   .text:0000000000000884 .LBE53
     /tmp/cciyzRgz.s:6673   .debug_loc:000000000000067b .LLST46
     /tmp/cciyzRgz.s:6684   .debug_loc:00000000000006b1 .LLST47
     /tmp/cciyzRgz.s:1705   .text:0000000000000874 .LVL197
     /tmp/cciyzRgz.s:1500   .text:0000000000000698 .LVL164
     /tmp/cciyzRgz.s:1507   .text:00000000000006ac .LVL165
     /tmp/cciyzRgz.s:1512   .text:00000000000006b8 .LVL166
     /tmp/cciyzRgz.s:1519   .text:00000000000006cc .LVL168
     /tmp/cciyzRgz.s:1525   .text:00000000000006dc .LVL169
     /tmp/cciyzRgz.s:1530   .text:00000000000006e8 .LVL170
     /tmp/cciyzRgz.s:1537   .text:00000000000006fc .LVL172
     /tmp/cciyzRgz.s:1544   .text:0000000000000710 .LVL173
     /tmp/cciyzRgz.s:1549   .text:0000000000000720 .LVL174
     /tmp/cciyzRgz.s:1556   .text:0000000000000734 .LVL175
     /tmp/cciyzRgz.s:1561   .text:0000000000000744 .LVL176
     /tmp/cciyzRgz.s:1570   .text:0000000000000758 .LVL177
     /tmp/cciyzRgz.s:1576   .text:0000000000000768 .LVL178
     /tmp/cciyzRgz.s:1585   .text:000000000000077c .LVL179
     /tmp/cciyzRgz.s:1593   .text:0000000000000790 .LVL180
GAS LISTING /tmp/cciyzRgz.s 			page 75


     /tmp/cciyzRgz.s:1604   .text:00000000000007a4 .LVL182
     /tmp/cciyzRgz.s:1611   .text:00000000000007b4 .LVL184
     /tmp/cciyzRgz.s:1658   .text:0000000000000820 .LVL190
     /tmp/cciyzRgz.s:1681   .text:0000000000000848 .LVL194
     /tmp/cciyzRgz.s:1696   .text:0000000000000868 .LVL195
     /tmp/cciyzRgz.s:1720   .text:0000000000000894 .LVL199
     /tmp/cciyzRgz.s:1790   .text:0000000000000914 .LVL208
     /tmp/cciyzRgz.s:1859   .text:0000000000000990 .LVL218
     /tmp/cciyzRgz.s:1867   .text:00000000000009a0 .LVL219
     /tmp/cciyzRgz.s:1870   .text:00000000000009ac .LVL220
     /tmp/cciyzRgz.s:1914   .text:00000000000009f8 .LVL225
     /tmp/cciyzRgz.s:1918   .text:0000000000000a04 .LVL226
     /tmp/cciyzRgz.s:1925   .text:0000000000000a14 .LVL227
     /tmp/cciyzRgz.s:1929   .text:0000000000000a20 .LVL228
     /tmp/cciyzRgz.s:1937   .text:0000000000000a30 .LVL230
     /tmp/cciyzRgz.s:1941   .text:0000000000000a3c .LVL231
     /tmp/cciyzRgz.s:1948   .text:0000000000000a4c .LVL232
     /tmp/cciyzRgz.s:1952   .text:0000000000000a58 .LVL233
     /tmp/cciyzRgz.s:1965   .text:0000000000000a74 .LVL236
     /tmp/cciyzRgz.s:332    .text._ZN19ConsumerProducerCPP8Consumer3runEv:0000000000000000 .LFB59
     /tmp/cciyzRgz.s:450    .text._ZN19ConsumerProducerCPP8Consumer3runEv:00000000000000d0 .LFE59
     /tmp/cciyzRgz.s:6695   .debug_loc:00000000000006e7 .LLST9
     /tmp/cciyzRgz.s:6713   .debug_loc:0000000000000733 .LLST10
     /tmp/cciyzRgz.s:6733   .debug_loc:0000000000000790 .LLST11
     /tmp/cciyzRgz.s:364    .text._ZN19ConsumerProducerCPP8Consumer3runEv:0000000000000034 .LVL38
     /tmp/cciyzRgz.s:378    .text._ZN19ConsumerProducerCPP8Consumer3runEv:0000000000000050 .LVL39
     /tmp/cciyzRgz.s:389    .text._ZN19ConsumerProducerCPP8Consumer3runEv:0000000000000064 .LVL42
     /tmp/cciyzRgz.s:400    .text._ZN19ConsumerProducerCPP8Consumer3runEv:0000000000000074 .LBB41
     /tmp/cciyzRgz.s:415    .text._ZN19ConsumerProducerCPP8Consumer3runEv:0000000000000090 .LBE41
     /tmp/cciyzRgz.s:6740   .debug_loc:00000000000007b3 .LLST12
     /tmp/cciyzRgz.s:407    .text._ZN19ConsumerProducerCPP8Consumer3runEv:0000000000000084 .LVL44
     /tmp/cciyzRgz.s:413    .text._ZN19ConsumerProducerCPP8Consumer3runEv:0000000000000090 .LVL46
     /tmp/cciyzRgz.s:423    .text._ZN19ConsumerProducerCPP8Consumer3runEv:00000000000000a0 .LVL47
     /tmp/cciyzRgz.s:431    .text._ZN19ConsumerProducerCPP8Consumer3runEv:00000000000000b4 .LVL48
     /tmp/cciyzRgz.s:7143   .debug_str:0000000000000000 .LASF95
     /tmp/cciyzRgz.s:789    .text._ZN19ConsumerProducerCPP8Producer3runEv:0000000000000000 .LFB55
     /tmp/cciyzRgz.s:867    .text._ZN19ConsumerProducerCPP8Producer3runEv:0000000000000094 .LFE55
     /tmp/cciyzRgz.s:6747   .debug_loc:00000000000007d6 .LLST24
     /tmp/cciyzRgz.s:6765   .debug_loc:0000000000000822 .LLST25
     /tmp/cciyzRgz.s:824    .text._ZN19ConsumerProducerCPP8Producer3runEv:0000000000000044 .LVL86
     /tmp/cciyzRgz.s:841    .text._ZN19ConsumerProducerCPP8Producer3runEv:0000000000000068 .LVL88
     /tmp/cciyzRgz.s:850    .text._ZN19ConsumerProducerCPP8Producer3runEv:000000000000007c .LVL89
     /tmp/cciyzRgz.s:7361   .debug_str:00000000000007b3 .LASF96
     /tmp/cciyzRgz.s:709    .text._ZN19ConsumerProducerCPP16ProducerKeyborad3runEv:0000000000000000 .LFB51
     /tmp/cciyzRgz.s:782    .text._ZN19ConsumerProducerCPP16ProducerKeyborad3runEv:0000000000000084 .LFE51
     /tmp/cciyzRgz.s:6785   .debug_loc:000000000000087f .LLST22
     /tmp/cciyzRgz.s:6803   .debug_loc:00000000000008cb .LLST23
     /tmp/cciyzRgz.s:732    .text._ZN19ConsumerProducerCPP16ProducerKeyborad3runEv:0000000000000020 .LVL74
     /tmp/cciyzRgz.s:744    .text._ZN19ConsumerProducerCPP16ProducerKeyborad3runEv:000000000000003c .LVL76
     /tmp/cciyzRgz.s:762    .text._ZN19ConsumerProducerCPP16ProducerKeyborad3runEv:0000000000000060 .LVL80
     /tmp/cciyzRgz.s:768    .text._ZN19ConsumerProducerCPP16ProducerKeyborad3runEv:0000000000000070 .LVL81
     /tmp/cciyzRgz.s:7397   .debug_str:00000000000009cf .LASF97
     /tmp/cciyzRgz.s:7221   .debug_str:0000000000000292 .LASF98
     /tmp/cciyzRgz.s:7241   .debug_str:0000000000000347 .LASF100
     /tmp/cciyzRgz.s:1326   .text:0000000000000520 .LFB44
     /tmp/cciyzRgz.s:1431   .text:0000000000000650 .LFE44
     /tmp/cciyzRgz.s:7355   .debug_str:000000000000076f .LASF101
GAS LISTING /tmp/cciyzRgz.s 			page 76


     /tmp/cciyzRgz.s:1344   .text:0000000000000548 .LVL153
     /tmp/cciyzRgz.s:1349   .text:0000000000000558 .LVL154
     /tmp/cciyzRgz.s:1356   .text:0000000000000570 .LVL155
     /tmp/cciyzRgz.s:1361   .text:0000000000000580 .LVL156
     /tmp/cciyzRgz.s:1368   .text:0000000000000598 .LVL157
     /tmp/cciyzRgz.s:1373   .text:00000000000005a8 .LVL158
     /tmp/cciyzRgz.s:1380   .text:00000000000005c0 .LVL159
     /tmp/cciyzRgz.s:1385   .text:00000000000005d0 .LVL160
     /tmp/cciyzRgz.s:1392   .text:00000000000005e8 .LVL161
     /tmp/cciyzRgz.s:1397   .text:00000000000005f8 .LVL162
     /tmp/cciyzRgz.s:1403   .text:0000000000000604 .LVL163
     /tmp/cciyzRgz.s:7331   .debug_str:00000000000006c0 .LASF102
     /tmp/cciyzRgz.s:7375   .debug_str:000000000000084e .LASF103
     /tmp/cciyzRgz.s:15     .text:0000000000000000 .LFB43
     /tmp/cciyzRgz.s:52     .text:0000000000000044 .LFE43
     /tmp/cciyzRgz.s:6818   .debug_loc:0000000000000914 .LLST0
     /tmp/cciyzRgz.s:33     .text:0000000000000020 .LVL2
     /tmp/cciyzRgz.s:41     .text:0000000000000034 .LVL3
     /tmp/cciyzRgz.s:7329   .debug_str:00000000000006b4 .LASF104
     /tmp/cciyzRgz.s:7427   .debug_str:0000000000000b0e .LASF105
     /tmp/cciyzRgz.s:1154   .text:00000000000003d8 .LFB42
     /tmp/cciyzRgz.s:1303   .text:0000000000000520 .LFE42
     /tmp/cciyzRgz.s:6832   .debug_loc:000000000000094d .LLST31
     /tmp/cciyzRgz.s:6846   .debug_loc:0000000000000986 .LLST32
     /tmp/cciyzRgz.s:7441   .debug_str:0000000000000bb0 .LASF106
     /tmp/cciyzRgz.s:6866   .debug_loc:00000000000009e3 .LLST33
     /tmp/cciyzRgz.s:1181   .text:0000000000000408 .LVL131
     /tmp/cciyzRgz.s:1188   .text:000000000000041c .LVL132
     /tmp/cciyzRgz.s:1193   .text:000000000000042c .LVL133
     /tmp/cciyzRgz.s:1208   .text:000000000000044c .LVL136
     /tmp/cciyzRgz.s:1219   .text:0000000000000458 .LVL137
     /tmp/cciyzRgz.s:1224   .text:0000000000000464 .LVL138
     /tmp/cciyzRgz.s:1232   .text:0000000000000478 .LVL141
     /tmp/cciyzRgz.s:1239   .text:000000000000048c .LVL142
     /tmp/cciyzRgz.s:1244   .text:000000000000049c .LVL143
     /tmp/cciyzRgz.s:1251   .text:00000000000004b0 .LVL144
     /tmp/cciyzRgz.s:1258   .text:00000000000004c4 .LVL145
     /tmp/cciyzRgz.s:1263   .text:00000000000004d4 .LVL146
     /tmp/cciyzRgz.s:1278   .text:00000000000004f4 .LVL149
     /tmp/cciyzRgz.s:1286   .text:0000000000000508 .LVL150
     /tmp/cciyzRgz.s:7327   .debug_str:00000000000006a8 .LASF107
     /tmp/cciyzRgz.s:7171   .debug_str:0000000000000110 .LASF108
     /tmp/cciyzRgz.s:959    .text:0000000000000258 .LFB41
     /tmp/cciyzRgz.s:1134   .text:00000000000003d8 .LFE41
     /tmp/cciyzRgz.s:6877   .debug_loc:0000000000000a19 .LLST27
     /tmp/cciyzRgz.s:6891   .debug_loc:0000000000000a52 .LLST28
     /tmp/cciyzRgz.s:6911   .debug_loc:0000000000000aaf .LLST29
     /tmp/cciyzRgz.s:6919   .debug_loc:0000000000000ad3 .LLST30
     /tmp/cciyzRgz.s:986    .text:0000000000000288 .LVL102
     /tmp/cciyzRgz.s:993    .text:000000000000029c .LVL103
     /tmp/cciyzRgz.s:998    .text:00000000000002ac .LVL104
     /tmp/cciyzRgz.s:1013   .text:00000000000002cc .LVL107
     /tmp/cciyzRgz.s:1024   .text:00000000000002d8 .LVL108
     /tmp/cciyzRgz.s:1038   .text:00000000000002ec .LVL110
     /tmp/cciyzRgz.s:1045   .text:0000000000000300 .LVL111
     /tmp/cciyzRgz.s:1050   .text:0000000000000310 .LVL112
     /tmp/cciyzRgz.s:1055   .text:000000000000031c .LVL113
GAS LISTING /tmp/cciyzRgz.s 			page 77


     /tmp/cciyzRgz.s:1063   .text:0000000000000330 .LVL116
     /tmp/cciyzRgz.s:1070   .text:0000000000000344 .LVL117
     /tmp/cciyzRgz.s:1075   .text:0000000000000354 .LVL118
     /tmp/cciyzRgz.s:1082   .text:0000000000000368 .LVL119
     /tmp/cciyzRgz.s:1089   .text:000000000000037c .LVL120
     /tmp/cciyzRgz.s:1094   .text:000000000000038c .LVL121
     /tmp/cciyzRgz.s:1109   .text:00000000000003ac .LVL124
     /tmp/cciyzRgz.s:1117   .text:00000000000003c0 .LVL125
     /tmp/cciyzRgz.s:7325   .debug_str:000000000000069c .LASF109
     /tmp/cciyzRgz.s:7239   .debug_str:0000000000000335 .LASF110
     /tmp/cciyzRgz.s:202    .text:0000000000000110 .LFB40
     /tmp/cciyzRgz.s:325    .text:00000000000001e4 .LFE40
     /tmp/cciyzRgz.s:6930   .debug_loc:0000000000000b09 .LLST5
     /tmp/cciyzRgz.s:220    .text:0000000000000128 .LBB31
     /tmp/cciyzRgz.s:296    .text:00000000000001a8 .LBE31
     /tmp/cciyzRgz.s:6944   .debug_loc:0000000000000b42 .LLST6
     /tmp/cciyzRgz.s:6956   .debug_loc:0000000000000b79 .LLST7
     /tmp/cciyzRgz.s:243    .text:0000000000000148 .LBB35
     /tmp/cciyzRgz.s:258    .text:0000000000000160 .LBE35
     /tmp/cciyzRgz.s:6968   .debug_loc:0000000000000bb0 .LLST8
     /tmp/cciyzRgz.s:232    .text:0000000000000138 .LVL22
     /tmp/cciyzRgz.s:274    .text:000000000000017c .LVL28
     /tmp/cciyzRgz.s:281    .text:0000000000000190 .LVL29
     /tmp/cciyzRgz.s:286    .text:00000000000001a0 .LVL30
     /tmp/cciyzRgz.s:301    .text:00000000000001b8 .LVL32
     /tmp/cciyzRgz.s:309    .text:00000000000001cc .LVL33
     /tmp/cciyzRgz.s:7399   .debug_str:0000000000000a0f .LASF111
     /tmp/cciyzRgz.s:7299   .debug_str:00000000000005ac .LASF112
     /tmp/cciyzRgz.s:69     .text:0000000000000044 .LFB39
     /tmp/cciyzRgz.s:188    .text:0000000000000110 .LFE39
     /tmp/cciyzRgz.s:6979   .debug_loc:0000000000000be6 .LLST1
     /tmp/cciyzRgz.s:87     .text:000000000000005c .LBB23
     /tmp/cciyzRgz.s:163    .text:00000000000000dc .LBE23
     /tmp/cciyzRgz.s:6993   .debug_loc:0000000000000c1f .LLST2
     /tmp/cciyzRgz.s:7005   .debug_loc:0000000000000c56 .LLST3
     /tmp/cciyzRgz.s:110    .text:000000000000007c .LBB27
     /tmp/cciyzRgz.s:125    .text:0000000000000094 .LBE27
     /tmp/cciyzRgz.s:7017   .debug_loc:0000000000000c8d .LLST4
     /tmp/cciyzRgz.s:99     .text:000000000000006c .LVL7
     /tmp/cciyzRgz.s:141    .text:00000000000000b0 .LVL13
     /tmp/cciyzRgz.s:148    .text:00000000000000c4 .LVL14
     /tmp/cciyzRgz.s:153    .text:00000000000000d4 .LVL15
     /tmp/cciyzRgz.s:168    .text:00000000000000ec .LVL17
     /tmp/cciyzRgz.s:7231   .debug_str:00000000000002dc .LASF148
     /tmp/cciyzRgz.s:7227   .debug_str:00000000000002be .LASF149
     /tmp/cciyzRgz.s:874    .text:00000000000001e4 .LFB38
     /tmp/cciyzRgz.s:939    .text:0000000000000258 .LFE38
     /tmp/cciyzRgz.s:7028   .debug_loc:0000000000000cc3 .LLST26
     /tmp/cciyzRgz.s:906    .text:0000000000000220 .LVL94
     /tmp/cciyzRgz.s:911    .text:0000000000000230 .LVL95
     /tmp/cciyzRgz.s:936    .text:0000000000000254 .LVL98
     /tmp/cciyzRgz.s:7315   .debug_str:0000000000000658 .LASF113
     /tmp/cciyzRgz.s:7149   .debug_str:0000000000000051 .LASF114
     /tmp/cciyzRgz.s:7279   .debug_str:000000000000051e .LASF115
     /tmp/cciyzRgz.s:7391   .debug_str:00000000000009a4 .LASF116
     /tmp/cciyzRgz.s:7417   .debug_str:0000000000000ade .LASF117
     /tmp/cciyzRgz.s:7423   .debug_str:0000000000000afc .LASF118
GAS LISTING /tmp/cciyzRgz.s 			page 78


     /tmp/cciyzRgz.s:7407   .debug_str:0000000000000a5e .LASF119
     /tmp/cciyzRgz.s:7301   .debug_str:00000000000005be .LASF120
     /tmp/cciyzRgz.s:7275   .debug_str:00000000000004ea .LASF121
     /tmp/cciyzRgz.s:7189   .debug_str:00000000000001b5 .LASF122
     /tmp/cciyzRgz.s:7217   .debug_str:000000000000027d .LASF123
     /tmp/cciyzRgz.s:7289   .debug_str:0000000000000576 .LASF124
     /tmp/cciyzRgz.s:7185   .debug_str:0000000000000198 .LASF125
     /tmp/cciyzRgz.s:7431   .debug_str:0000000000000b46 .LASF126
     /tmp/cciyzRgz.s:7145   .debug_str:0000000000000037 .LASF127
     /tmp/cciyzRgz.s:7313   .debug_str:000000000000064e .LASF128
     /tmp/cciyzRgz.s:7285   .debug_str:000000000000055b .LASF129
     /tmp/cciyzRgz.s:7159   .debug_str:000000000000008f .LASF130
     /tmp/cciyzRgz.s:7333   .debug_str:00000000000006cc .LASF131
     /tmp/cciyzRgz.s:7421   .debug_str:0000000000000af3 .LASF132
     /tmp/cciyzRgz.s:7433   .debug_str:0000000000000b52 .LASF150
     /tmp/cciyzRgz.s:7195   .debug_str:00000000000001de .LASF151
     /tmp/cciyzRgz.s:7369   .debug_str:000000000000082d .LASF134
     /tmp/cciyzRgz.s:7173   .debug_str:0000000000000122 .LASF135
     /tmp/cciyzRgz.s:581    .text._ZN19ConsumerProducerCPP16ProducerKeyboradD0Ev:0000000000000000 .LVL60
     /tmp/cciyzRgz.s:613    .text._ZN19ConsumerProducerCPP16ProducerKeyboradD0Ev:0000000000000044 .LVL64
     /tmp/cciyzRgz.s:593    .text._ZN19ConsumerProducerCPP16ProducerKeyboradD0Ev:0000000000000018 .LVL61
     /tmp/cciyzRgz.s:544    .text._ZN19ConsumerProducerCPP16ProducerKeyboradD2Ev:0000000000000000 .LVL58
     /tmp/cciyzRgz.s:665    .text._ZN19ConsumerProducerCPP8ProducerD0Ev:0000000000000000 .LVL67
     /tmp/cciyzRgz.s:697    .text._ZN19ConsumerProducerCPP8ProducerD0Ev:0000000000000044 .LVL71
     /tmp/cciyzRgz.s:677    .text._ZN19ConsumerProducerCPP8ProducerD0Ev:0000000000000018 .LVL68
     /tmp/cciyzRgz.s:628    .text._ZN19ConsumerProducerCPP8ProducerD2Ev:0000000000000000 .LVL65
     /tmp/cciyzRgz.s:497    .text._ZN19ConsumerProducerCPP8ConsumerD0Ev:0000000000000000 .LVL53
     /tmp/cciyzRgz.s:529    .text._ZN19ConsumerProducerCPP8ConsumerD0Ev:0000000000000044 .LVL57
     /tmp/cciyzRgz.s:509    .text._ZN19ConsumerProducerCPP8ConsumerD0Ev:0000000000000018 .LVL54
     /tmp/cciyzRgz.s:460    .text._ZN19ConsumerProducerCPP8ConsumerD2Ev:0000000000000000 .LVL51
     /tmp/cciyzRgz.s:2065   .text:0000000000000a94 .LVL237
     /tmp/cciyzRgz.s:2073   .text:0000000000000aa8 .LVL238
     /tmp/cciyzRgz.s:2085   .text:0000000000000ac4 .LVL241
     /tmp/cciyzRgz.s:2107   .text:0000000000000aec .LVL245
     /tmp/cciyzRgz.s:1532   .text:00000000000006ec .LVL171
     /tmp/cciyzRgz.s:1607   .text:00000000000007a8 .LVL183
     /tmp/cciyzRgz.s:1906   .text:00000000000009e8 .LVL223
     /tmp/cciyzRgz.s:1910   .text:00000000000009ec .LVL224
     /tmp/cciyzRgz.s:1514   .text:00000000000006bc .LVL167
     /tmp/cciyzRgz.s:1890   .text:00000000000009c8 .LVL222
     /tmp/cciyzRgz.s:1599   .text:0000000000000798 .LVL181
     /tmp/cciyzRgz.s:1874   .text:00000000000009b0 .LVL221
     /tmp/cciyzRgz.s:1624   .text:00000000000007d4 .LVL186
     /tmp/cciyzRgz.s:1636   .text:00000000000007f0 .LVL188
     /tmp/cciyzRgz.s:1638   .text:00000000000007f4 .LVL189
     /tmp/cciyzRgz.s:1673   .text:000000000000083c .LVL193
     /tmp/cciyzRgz.s:1725   .text:000000000000089c .LVL200
     /tmp/cciyzRgz.s:1733   .text:00000000000008ac .LVL201
     /tmp/cciyzRgz.s:1772   .text:0000000000000900 .LVL205
     /tmp/cciyzRgz.s:1781   .text:000000000000090c .LVL207
     /tmp/cciyzRgz.s:1956   .text:0000000000000a5c .LVL234
     /tmp/cciyzRgz.s:1795   .text:0000000000000918 .LVL209
     /tmp/cciyzRgz.s:1805   .text:0000000000000930 .LVL211
     /tmp/cciyzRgz.s:1807   .text:0000000000000934 .LVL212
     /tmp/cciyzRgz.s:1824   .text:0000000000000950 .LVL214
     /tmp/cciyzRgz.s:1826   .text:0000000000000954 .LVL215
     /tmp/cciyzRgz.s:1617   .text:00000000000007c0 .LVL185
GAS LISTING /tmp/cciyzRgz.s 			page 79


     /tmp/cciyzRgz.s:1628   .text:00000000000007d8 .LVL187
     /tmp/cciyzRgz.s:1661   .text:0000000000000824 .LVL191
     /tmp/cciyzRgz.s:1933   .text:0000000000000a24 .LVL229
     /tmp/cciyzRgz.s:1699   .text:000000000000086c .LVL196
     /tmp/cciyzRgz.s:1710   .text:0000000000000884 .LVL198
     /tmp/cciyzRgz.s:336    .text._ZN19ConsumerProducerCPP8Consumer3runEv:0000000000000000 .LVL35
     /tmp/cciyzRgz.s:357    .text._ZN19ConsumerProducerCPP8Consumer3runEv:0000000000000028 .LVL37
     /tmp/cciyzRgz.s:442    .text._ZN19ConsumerProducerCPP8Consumer3runEv:00000000000000c4 .LVL49
     /tmp/cciyzRgz.s:353    .text._ZN19ConsumerProducerCPP8Consumer3runEv:0000000000000020 .LVL36
     /tmp/cciyzRgz.s:383    .text._ZN19ConsumerProducerCPP8Consumer3runEv:0000000000000058 .LVL40
     /tmp/cciyzRgz.s:394    .text._ZN19ConsumerProducerCPP8Consumer3runEv:000000000000006c .LVL43
     /tmp/cciyzRgz.s:445    .text._ZN19ConsumerProducerCPP8Consumer3runEv:00000000000000c8 .LVL50
     /tmp/cciyzRgz.s:387    .text._ZN19ConsumerProducerCPP8Consumer3runEv:000000000000005c .LVL41
     /tmp/cciyzRgz.s:411    .text._ZN19ConsumerProducerCPP8Consumer3runEv:0000000000000088 .LVL45
     /tmp/cciyzRgz.s:792    .text._ZN19ConsumerProducerCPP8Producer3runEv:0000000000000000 .LVL83
     /tmp/cciyzRgz.s:810    .text._ZN19ConsumerProducerCPP8Producer3runEv:0000000000000020 .LVL85
     /tmp/cciyzRgz.s:859    .text._ZN19ConsumerProducerCPP8Producer3runEv:0000000000000088 .LVL90
     /tmp/cciyzRgz.s:807    .text._ZN19ConsumerProducerCPP8Producer3runEv:000000000000001c .LVL84
     /tmp/cciyzRgz.s:829    .text._ZN19ConsumerProducerCPP8Producer3runEv:000000000000004c .LVL87
     /tmp/cciyzRgz.s:862    .text._ZN19ConsumerProducerCPP8Producer3runEv:000000000000008c .LVL91
     /tmp/cciyzRgz.s:712    .text._ZN19ConsumerProducerCPP16ProducerKeyborad3runEv:0000000000000000 .LVL72
     /tmp/cciyzRgz.s:726    .text._ZN19ConsumerProducerCPP16ProducerKeyborad3runEv:0000000000000018 .LVL73
     /tmp/cciyzRgz.s:777    .text._ZN19ConsumerProducerCPP16ProducerKeyborad3runEv:000000000000007c .LVL82
     /tmp/cciyzRgz.s:735    .text._ZN19ConsumerProducerCPP16ProducerKeyborad3runEv:0000000000000024 .LVL75
     /tmp/cciyzRgz.s:748    .text._ZN19ConsumerProducerCPP16ProducerKeyborad3runEv:0000000000000040 .LVL77
     /tmp/cciyzRgz.s:758    .text._ZN19ConsumerProducerCPP16ProducerKeyborad3runEv:0000000000000054 .LVL78
     /tmp/cciyzRgz.s:760    .text._ZN19ConsumerProducerCPP16ProducerKeyborad3runEv:0000000000000058 .LVL79
     /tmp/cciyzRgz.s:19     .text:0000000000000000 .LVL0
     /tmp/cciyzRgz.s:31     .text:0000000000000018 .LVL1
     /tmp/cciyzRgz.s:1157   .text:00000000000003d8 .LVL128
     /tmp/cciyzRgz.s:1175   .text:00000000000003f8 .LVL130
     /tmp/cciyzRgz.s:1171   .text:00000000000003f0 .LVL129
     /tmp/cciyzRgz.s:1196   .text:0000000000000430 .LVL134
     /tmp/cciyzRgz.s:1198   .text:0000000000000434 .LVL135
     /tmp/cciyzRgz.s:1266   .text:00000000000004d8 .LVL147
     /tmp/cciyzRgz.s:1268   .text:00000000000004dc .LVL148
     /tmp/cciyzRgz.s:1295   .text:0000000000000514 .LVL151
     /tmp/cciyzRgz.s:1226   .text:0000000000000468 .LVL139
     /tmp/cciyzRgz.s:1230   .text:0000000000000470 .LVL140
     /tmp/cciyzRgz.s:1298   .text:0000000000000518 .LVL152
     /tmp/cciyzRgz.s:962    .text:0000000000000258 .LVL99
     /tmp/cciyzRgz.s:980    .text:0000000000000278 .LVL101
     /tmp/cciyzRgz.s:976    .text:0000000000000270 .LVL100
     /tmp/cciyzRgz.s:1001   .text:00000000000002b0 .LVL105
     /tmp/cciyzRgz.s:1003   .text:00000000000002b4 .LVL106
     /tmp/cciyzRgz.s:1097   .text:0000000000000390 .LVL122
     /tmp/cciyzRgz.s:1099   .text:0000000000000394 .LVL123
     /tmp/cciyzRgz.s:1126   .text:00000000000003cc .LVL126
     /tmp/cciyzRgz.s:1032   .text:00000000000002dc .LVL109
     /tmp/cciyzRgz.s:1057   .text:0000000000000320 .LVL114
     /tmp/cciyzRgz.s:1061   .text:0000000000000328 .LVL115
     /tmp/cciyzRgz.s:1129   .text:00000000000003d0 .LVL127
     /tmp/cciyzRgz.s:205    .text:0000000000000110 .LVL19
     /tmp/cciyzRgz.s:224    .text:0000000000000130 .LVL21
     /tmp/cciyzRgz.s:219    .text:0000000000000128 .LVL20
     /tmp/cciyzRgz.s:320    .text:00000000000001dc .LVL34
     /tmp/cciyzRgz.s:264    .text:0000000000000164 .LVL27
GAS LISTING /tmp/cciyzRgz.s 			page 80


     /tmp/cciyzRgz.s:292    .text:00000000000001a8 .LVL31
     /tmp/cciyzRgz.s:247    .text:000000000000014c .LVL24
     /tmp/cciyzRgz.s:256    .text:0000000000000160 .LVL26
     /tmp/cciyzRgz.s:72     .text:0000000000000044 .LVL4
     /tmp/cciyzRgz.s:91     .text:0000000000000064 .LVL6
     /tmp/cciyzRgz.s:86     .text:000000000000005c .LVL5
     /tmp/cciyzRgz.s:183    .text:0000000000000108 .LVL18
     /tmp/cciyzRgz.s:131    .text:0000000000000098 .LVL12
     /tmp/cciyzRgz.s:159    .text:00000000000000dc .LVL16
     /tmp/cciyzRgz.s:114    .text:0000000000000080 .LVL9
     /tmp/cciyzRgz.s:123    .text:0000000000000094 .LVL11
     /tmp/cciyzRgz.s:877    .text:00000000000001e4 .LVL92
     /tmp/cciyzRgz.s:900    .text:0000000000000214 .LVL93
     /tmp/cciyzRgz.s:924    .text:0000000000000240 .LVL96
     /tmp/cciyzRgz.s:930    .text:000000000000024c .LVL97
     /tmp/cciyzRgz.s:2196   .debug_info:0000000000000000 .Ldebug_info0
     /tmp/cciyzRgz.s:5      .text:0000000000000000 .Ltext0
     /tmp/cciyzRgz.s:2188   .text:0000000000000af4 .Letext0
     /tmp/cciyzRgz.s:94     .text:0000000000000064 .LBB25
     /tmp/cciyzRgz.s:127    .text:0000000000000094 .LBE25
     /tmp/cciyzRgz.s:155    .text:00000000000000d4 .LBB29
     /tmp/cciyzRgz.s:161    .text:00000000000000dc .LBE29
     /tmp/cciyzRgz.s:227    .text:0000000000000130 .LBB33
     /tmp/cciyzRgz.s:260    .text:0000000000000160 .LBE33
     /tmp/cciyzRgz.s:288    .text:00000000000001a0 .LBB37
     /tmp/cciyzRgz.s:294    .text:00000000000001a8 .LBE37
     /tmp/cciyzRgz.s:359    .text._ZN19ConsumerProducerCPP8Consumer3runEv:0000000000000028 .LBB39
     /tmp/cciyzRgz.s:366    .text._ZN19ConsumerProducerCPP8Consumer3runEv:0000000000000034 .LBE39
     /tmp/cciyzRgz.s:371    .text._ZN19ConsumerProducerCPP8Consumer3runEv:0000000000000040 .LBB40
     /tmp/cciyzRgz.s:399    .text._ZN19ConsumerProducerCPP8Consumer3runEv:0000000000000074 .LBE40
     /tmp/cciyzRgz.s:1721   .text:0000000000000894 .LBB55
     /tmp/cciyzRgz.s:1785   .text:000000000000090c .LBE55
     /tmp/cciyzRgz.s:1957   .text:0000000000000a5c .LBB63
     /tmp/cciyzRgz.s:1967   .text:0000000000000a74 .LBE63
     /tmp/cciyzRgz.s:1735   .text:00000000000008ac .LBE56
     /tmp/cciyzRgz.s:1774   .text:0000000000000900 .LBB59
     /tmp/cciyzRgz.s:1784   .text:000000000000090c .LBE59
     /tmp/cciyzRgz.s:1791   .text:0000000000000914 .LBB60
     /tmp/cciyzRgz.s:1809   .text:0000000000000934 .LBE60
     /tmp/cciyzRgz.s:1821   .text:000000000000094c .LBB61
     /tmp/cciyzRgz.s:1828   .text:0000000000000954 .LBE61
     /tmp/cciyzRgz.s:1972   .gcc_except_table:0000000000000000 .LLSDA60
                           .group:0000000000000000 _ZN19ConsumerProducerCPP8ConsumerD5Ev
                           .group:0000000000000000 _ZN19ConsumerProducerCPP16ProducerKeyboradD5Ev
                           .group:0000000000000000 _ZN19ConsumerProducerCPP8ProducerD5Ev

UNDEFINED SYMBOLS
_Z11printStringPKc
thread_dispatch
_Z8printIntiii
_ZN7Console4putcEc
_ZN9BufferCPP3getEv
_ZN9BufferCPP6getCntEv
_ZN9Semaphore6signalEv
_ZN6ThreadD2Ev
_ZdlPv
getc
GAS LISTING /tmp/cciyzRgz.s 			page 81


_ZN9BufferCPP3putEi
_ZN6Thread5sleepEm
thread_create
_Z9getStringPci
_Z11stringToIntPKc
_Znwm
_ZN9BufferCPPC1Ei
_ZN9SemaphoreC1Ej
_ZN6ThreadC2Ev
_ZN6Thread5startEv
_ZN6Thread8dispatchEv
_ZN9Semaphore4waitEv
_ZN9BufferCPPD1Ev
_Unwind_Resume
__gxx_personality_v0
HEAP_START_ADDR
HEAP_END_ADDR
_Z9kmem_initPvi
_Z7kmallocm
_Z16print_all_cachesv
_Z5kfreePKv
