GAS LISTING /tmp/ccNEPw55.s 			page 1


   1              		.file	"userMain.cpp"
   2              		.option pic
   3              		.option norelax
   4              		.text
   5              	.Ltext0:
   6              		.section	.text._ZN7WorkerAD2Ev,"axG",@progbits,_ZN7WorkerAD5Ev,comdat
   7              		.align	2
   8              		.weak	_ZN7WorkerAD2Ev
  10              	_ZN7WorkerAD2Ev:
  11              	.LFB117:
  12              		.file 1 "test/../test/Threads_CPP_API_test.hpp"
   1:test/../test/Threads_CPP_API_test.hpp **** #ifndef XV6_THREADS_CPP_API_TEST_HPP
   2:test/../test/Threads_CPP_API_test.hpp **** #define XV6_THREADS_CPP_API_TEST_HPP
   3:test/../test/Threads_CPP_API_test.hpp **** 
   4:test/../test/Threads_CPP_API_test.hpp **** #include "../h/syscall_cpp.hpp"
   5:test/../test/Threads_CPP_API_test.hpp **** 
   6:test/../test/Threads_CPP_API_test.hpp **** #include "printing.hpp"
   7:test/../test/Threads_CPP_API_test.hpp **** 
   8:test/../test/Threads_CPP_API_test.hpp **** bool finishedA = false;
   9:test/../test/Threads_CPP_API_test.hpp **** bool finishedB = false;
  10:test/../test/Threads_CPP_API_test.hpp **** bool finishedC = false;
  11:test/../test/Threads_CPP_API_test.hpp **** bool finishedD = false;
  12:test/../test/Threads_CPP_API_test.hpp **** 
  13:test/../test/Threads_CPP_API_test.hpp **** uint64 fibonacci(uint64 n) {
  14:test/../test/Threads_CPP_API_test.hpp ****     if (n == 0 || n == 1) { return n; }
  15:test/../test/Threads_CPP_API_test.hpp ****     if (n % 10 == 0) { thread_dispatch(); }
  16:test/../test/Threads_CPP_API_test.hpp ****     return fibonacci(n - 1) + fibonacci(n - 2);
  17:test/../test/Threads_CPP_API_test.hpp **** }
  18:test/../test/Threads_CPP_API_test.hpp **** 
  19:test/../test/Threads_CPP_API_test.hpp **** class WorkerA: public Thread {
  13              		.loc 1 19 7
  14              		.cfi_startproc
  15              	.LVL0:
  16 0000 130101FF 		addi	sp,sp,-16
  17              		.cfi_def_cfa_offset 16
  18 0004 23341100 		sd	ra,8(sp)
  19 0008 23308100 		sd	s0,0(sp)
  20              		.cfi_offset 1, -8
  21              		.cfi_offset 8, -16
  22 000c 13040101 		addi	s0,sp,16
  23              		.cfi_def_cfa 8, 0
  24              	.LBB52:
  25              		.loc 1 19 7 is_stmt 0
  26 0010 97070000 		lla	a5,_ZTV7WorkerA+16
  26      93870700 
  27 0018 2330F500 		sd	a5,0(a0)
  28 001c 97000000 		call	_ZN6ThreadD2Ev@plt
  28      E7800000 
  29              	.LVL1:
  30              	.LBE52:
  31 0024 83308100 		ld	ra,8(sp)
  32              		.cfi_restore 1
  33 0028 03340100 		ld	s0,0(sp)
  34              		.cfi_restore 8
  35              		.cfi_def_cfa 2, 16
  36 002c 13010101 		addi	sp,sp,16
  37              		.cfi_def_cfa_offset 0
GAS LISTING /tmp/ccNEPw55.s 			page 2


  38 0030 67800000 		jr	ra
  39              		.cfi_endproc
  40              	.LFE117:
  42              		.weak	_ZN7WorkerAD1Ev
  43              		.set	_ZN7WorkerAD1Ev,_ZN7WorkerAD2Ev
  44              		.section	.text._ZN7WorkerAD0Ev,"axG",@progbits,_ZN7WorkerAD5Ev,comdat
  45              		.align	2
  46              		.weak	_ZN7WorkerAD0Ev
  48              	_ZN7WorkerAD0Ev:
  49              	.LFB119:
  50              		.loc 1 19 7 is_stmt 1
  51              		.cfi_startproc
  52              	.LVL2:
  53 0000 130101FE 		addi	sp,sp,-32
  54              		.cfi_def_cfa_offset 32
  55 0004 233C1100 		sd	ra,24(sp)
  56 0008 23388100 		sd	s0,16(sp)
  57 000c 23349100 		sd	s1,8(sp)
  58              		.cfi_offset 1, -8
  59              		.cfi_offset 8, -16
  60              		.cfi_offset 9, -24
  61 0010 13040102 		addi	s0,sp,32
  62              		.cfi_def_cfa 8, 0
  63 0014 93040500 		mv	s1,a0
  64              	.LVL3:
  65              	.LBB53:
  66              	.LBB54:
  67              		.loc 1 19 7 is_stmt 0
  68 0018 97070000 		lla	a5,_ZTV7WorkerA+16
  68      93870700 
  69 0020 2330F500 		sd	a5,0(a0)
  70 0024 97000000 		call	_ZN6ThreadD2Ev@plt
  70      E7800000 
  71              	.LVL4:
  72              	.LBE54:
  73              	.LBE53:
  74 002c 13850400 		mv	a0,s1
  75 0030 97000000 		call	_ZdlPv@plt
  75      E7800000 
  76              	.LVL5:
  77 0038 83308101 		ld	ra,24(sp)
  78              		.cfi_restore 1
  79 003c 03340101 		ld	s0,16(sp)
  80              		.cfi_restore 8
  81              		.cfi_def_cfa 2, 32
  82 0040 83348100 		ld	s1,8(sp)
  83              		.cfi_restore 9
  84              	.LVL6:
  85 0044 13010102 		addi	sp,sp,32
  86              		.cfi_def_cfa_offset 0
  87 0048 67800000 		jr	ra
  88              		.cfi_endproc
  89              	.LFE119:
  91              		.section	.text._ZN7WorkerBD2Ev,"axG",@progbits,_ZN7WorkerBD5Ev,comdat
  92              		.align	2
  93              		.weak	_ZN7WorkerBD2Ev
  95              	_ZN7WorkerBD2Ev:
GAS LISTING /tmp/ccNEPw55.s 			page 3


  96              	.LFB113:
  20:test/../test/Threads_CPP_API_test.hpp ****     void workerBodyA(void* arg);
  21:test/../test/Threads_CPP_API_test.hpp **** public:
  22:test/../test/Threads_CPP_API_test.hpp ****     WorkerA():Thread() {}
  23:test/../test/Threads_CPP_API_test.hpp **** 
  24:test/../test/Threads_CPP_API_test.hpp ****     void run() override {
  25:test/../test/Threads_CPP_API_test.hpp ****         workerBodyA(nullptr);
  26:test/../test/Threads_CPP_API_test.hpp ****     }
  27:test/../test/Threads_CPP_API_test.hpp **** };
  28:test/../test/Threads_CPP_API_test.hpp **** 
  29:test/../test/Threads_CPP_API_test.hpp **** class WorkerB: public Thread {
  97              		.loc 1 29 7 is_stmt 1
  98              		.cfi_startproc
  99              	.LVL7:
 100 0000 130101FF 		addi	sp,sp,-16
 101              		.cfi_def_cfa_offset 16
 102 0004 23341100 		sd	ra,8(sp)
 103 0008 23308100 		sd	s0,0(sp)
 104              		.cfi_offset 1, -8
 105              		.cfi_offset 8, -16
 106 000c 13040101 		addi	s0,sp,16
 107              		.cfi_def_cfa 8, 0
 108              	.LBB55:
 109              		.loc 1 29 7 is_stmt 0
 110 0010 97070000 		lla	a5,_ZTV7WorkerB+16
 110      93870700 
 111 0018 2330F500 		sd	a5,0(a0)
 112 001c 97000000 		call	_ZN6ThreadD2Ev@plt
 112      E7800000 
 113              	.LVL8:
 114              	.LBE55:
 115 0024 83308100 		ld	ra,8(sp)
 116              		.cfi_restore 1
 117 0028 03340100 		ld	s0,0(sp)
 118              		.cfi_restore 8
 119              		.cfi_def_cfa 2, 16
 120 002c 13010101 		addi	sp,sp,16
 121              		.cfi_def_cfa_offset 0
 122 0030 67800000 		jr	ra
 123              		.cfi_endproc
 124              	.LFE113:
 126              		.weak	_ZN7WorkerBD1Ev
 127              		.set	_ZN7WorkerBD1Ev,_ZN7WorkerBD2Ev
 128              		.section	.text._ZN7WorkerBD0Ev,"axG",@progbits,_ZN7WorkerBD5Ev,comdat
 129              		.align	2
 130              		.weak	_ZN7WorkerBD0Ev
 132              	_ZN7WorkerBD0Ev:
 133              	.LFB115:
 134              		.loc 1 29 7 is_stmt 1
 135              		.cfi_startproc
 136              	.LVL9:
 137 0000 130101FE 		addi	sp,sp,-32
 138              		.cfi_def_cfa_offset 32
 139 0004 233C1100 		sd	ra,24(sp)
 140 0008 23388100 		sd	s0,16(sp)
 141 000c 23349100 		sd	s1,8(sp)
 142              		.cfi_offset 1, -8
GAS LISTING /tmp/ccNEPw55.s 			page 4


 143              		.cfi_offset 8, -16
 144              		.cfi_offset 9, -24
 145 0010 13040102 		addi	s0,sp,32
 146              		.cfi_def_cfa 8, 0
 147 0014 93040500 		mv	s1,a0
 148              	.LVL10:
 149              	.LBB56:
 150              	.LBB57:
 151              		.loc 1 29 7 is_stmt 0
 152 0018 97070000 		lla	a5,_ZTV7WorkerB+16
 152      93870700 
 153 0020 2330F500 		sd	a5,0(a0)
 154 0024 97000000 		call	_ZN6ThreadD2Ev@plt
 154      E7800000 
 155              	.LVL11:
 156              	.LBE57:
 157              	.LBE56:
 158 002c 13850400 		mv	a0,s1
 159 0030 97000000 		call	_ZdlPv@plt
 159      E7800000 
 160              	.LVL12:
 161 0038 83308101 		ld	ra,24(sp)
 162              		.cfi_restore 1
 163 003c 03340101 		ld	s0,16(sp)
 164              		.cfi_restore 8
 165              		.cfi_def_cfa 2, 32
 166 0040 83348100 		ld	s1,8(sp)
 167              		.cfi_restore 9
 168              	.LVL13:
 169 0044 13010102 		addi	sp,sp,32
 170              		.cfi_def_cfa_offset 0
 171 0048 67800000 		jr	ra
 172              		.cfi_endproc
 173              	.LFE115:
 175              		.section	.text._ZN7WorkerCD2Ev,"axG",@progbits,_ZN7WorkerCD5Ev,comdat
 176              		.align	2
 177              		.weak	_ZN7WorkerCD2Ev
 179              	_ZN7WorkerCD2Ev:
 180              	.LFB109:
  30:test/../test/Threads_CPP_API_test.hpp ****     void workerBodyB(void* arg);
  31:test/../test/Threads_CPP_API_test.hpp **** public:
  32:test/../test/Threads_CPP_API_test.hpp ****     WorkerB():Thread() {}
  33:test/../test/Threads_CPP_API_test.hpp **** 
  34:test/../test/Threads_CPP_API_test.hpp ****     void run() override {
  35:test/../test/Threads_CPP_API_test.hpp ****         workerBodyB(nullptr);
  36:test/../test/Threads_CPP_API_test.hpp ****     }
  37:test/../test/Threads_CPP_API_test.hpp **** };
  38:test/../test/Threads_CPP_API_test.hpp **** 
  39:test/../test/Threads_CPP_API_test.hpp **** class WorkerC: public Thread {
 181              		.loc 1 39 7 is_stmt 1
 182              		.cfi_startproc
 183              	.LVL14:
 184 0000 130101FF 		addi	sp,sp,-16
 185              		.cfi_def_cfa_offset 16
 186 0004 23341100 		sd	ra,8(sp)
 187 0008 23308100 		sd	s0,0(sp)
 188              		.cfi_offset 1, -8
GAS LISTING /tmp/ccNEPw55.s 			page 5


 189              		.cfi_offset 8, -16
 190 000c 13040101 		addi	s0,sp,16
 191              		.cfi_def_cfa 8, 0
 192              	.LBB58:
 193              		.loc 1 39 7 is_stmt 0
 194 0010 97070000 		lla	a5,_ZTV7WorkerC+16
 194      93870700 
 195 0018 2330F500 		sd	a5,0(a0)
 196 001c 97000000 		call	_ZN6ThreadD2Ev@plt
 196      E7800000 
 197              	.LVL15:
 198              	.LBE58:
 199 0024 83308100 		ld	ra,8(sp)
 200              		.cfi_restore 1
 201 0028 03340100 		ld	s0,0(sp)
 202              		.cfi_restore 8
 203              		.cfi_def_cfa 2, 16
 204 002c 13010101 		addi	sp,sp,16
 205              		.cfi_def_cfa_offset 0
 206 0030 67800000 		jr	ra
 207              		.cfi_endproc
 208              	.LFE109:
 210              		.weak	_ZN7WorkerCD1Ev
 211              		.set	_ZN7WorkerCD1Ev,_ZN7WorkerCD2Ev
 212              		.section	.text._ZN7WorkerCD0Ev,"axG",@progbits,_ZN7WorkerCD5Ev,comdat
 213              		.align	2
 214              		.weak	_ZN7WorkerCD0Ev
 216              	_ZN7WorkerCD0Ev:
 217              	.LFB111:
 218              		.loc 1 39 7 is_stmt 1
 219              		.cfi_startproc
 220              	.LVL16:
 221 0000 130101FE 		addi	sp,sp,-32
 222              		.cfi_def_cfa_offset 32
 223 0004 233C1100 		sd	ra,24(sp)
 224 0008 23388100 		sd	s0,16(sp)
 225 000c 23349100 		sd	s1,8(sp)
 226              		.cfi_offset 1, -8
 227              		.cfi_offset 8, -16
 228              		.cfi_offset 9, -24
 229 0010 13040102 		addi	s0,sp,32
 230              		.cfi_def_cfa 8, 0
 231 0014 93040500 		mv	s1,a0
 232              	.LVL17:
 233              	.LBB59:
 234              	.LBB60:
 235              		.loc 1 39 7 is_stmt 0
 236 0018 97070000 		lla	a5,_ZTV7WorkerC+16
 236      93870700 
 237 0020 2330F500 		sd	a5,0(a0)
 238 0024 97000000 		call	_ZN6ThreadD2Ev@plt
 238      E7800000 
 239              	.LVL18:
 240              	.LBE60:
 241              	.LBE59:
 242 002c 13850400 		mv	a0,s1
 243 0030 97000000 		call	_ZdlPv@plt
GAS LISTING /tmp/ccNEPw55.s 			page 6


 243      E7800000 
 244              	.LVL19:
 245 0038 83308101 		ld	ra,24(sp)
 246              		.cfi_restore 1
 247 003c 03340101 		ld	s0,16(sp)
 248              		.cfi_restore 8
 249              		.cfi_def_cfa 2, 32
 250 0040 83348100 		ld	s1,8(sp)
 251              		.cfi_restore 9
 252              	.LVL20:
 253 0044 13010102 		addi	sp,sp,32
 254              		.cfi_def_cfa_offset 0
 255 0048 67800000 		jr	ra
 256              		.cfi_endproc
 257              	.LFE111:
 259              		.section	.text._ZN7WorkerDD2Ev,"axG",@progbits,_ZN7WorkerDD5Ev,comdat
 260              		.align	2
 261              		.weak	_ZN7WorkerDD2Ev
 263              	_ZN7WorkerDD2Ev:
 264              	.LFB105:
  40:test/../test/Threads_CPP_API_test.hpp ****     void workerBodyC(void* arg);
  41:test/../test/Threads_CPP_API_test.hpp **** public:
  42:test/../test/Threads_CPP_API_test.hpp ****     WorkerC():Thread() {}
  43:test/../test/Threads_CPP_API_test.hpp **** 
  44:test/../test/Threads_CPP_API_test.hpp ****     void run() override {
  45:test/../test/Threads_CPP_API_test.hpp ****         workerBodyC(nullptr);
  46:test/../test/Threads_CPP_API_test.hpp ****     }
  47:test/../test/Threads_CPP_API_test.hpp **** };
  48:test/../test/Threads_CPP_API_test.hpp **** 
  49:test/../test/Threads_CPP_API_test.hpp **** class WorkerD: public Thread {
 265              		.loc 1 49 7 is_stmt 1
 266              		.cfi_startproc
 267              	.LVL21:
 268 0000 130101FF 		addi	sp,sp,-16
 269              		.cfi_def_cfa_offset 16
 270 0004 23341100 		sd	ra,8(sp)
 271 0008 23308100 		sd	s0,0(sp)
 272              		.cfi_offset 1, -8
 273              		.cfi_offset 8, -16
 274 000c 13040101 		addi	s0,sp,16
 275              		.cfi_def_cfa 8, 0
 276              	.LBB61:
 277              		.loc 1 49 7 is_stmt 0
 278 0010 97070000 		lla	a5,_ZTV7WorkerD+16
 278      93870700 
 279 0018 2330F500 		sd	a5,0(a0)
 280 001c 97000000 		call	_ZN6ThreadD2Ev@plt
 280      E7800000 
 281              	.LVL22:
 282              	.LBE61:
 283 0024 83308100 		ld	ra,8(sp)
 284              		.cfi_restore 1
 285 0028 03340100 		ld	s0,0(sp)
 286              		.cfi_restore 8
 287              		.cfi_def_cfa 2, 16
 288 002c 13010101 		addi	sp,sp,16
 289              		.cfi_def_cfa_offset 0
GAS LISTING /tmp/ccNEPw55.s 			page 7


 290 0030 67800000 		jr	ra
 291              		.cfi_endproc
 292              	.LFE105:
 294              		.weak	_ZN7WorkerDD1Ev
 295              		.set	_ZN7WorkerDD1Ev,_ZN7WorkerDD2Ev
 296              		.section	.text._ZN7WorkerDD0Ev,"axG",@progbits,_ZN7WorkerDD5Ev,comdat
 297              		.align	2
 298              		.weak	_ZN7WorkerDD0Ev
 300              	_ZN7WorkerDD0Ev:
 301              	.LFB107:
 302              		.loc 1 49 7 is_stmt 1
 303              		.cfi_startproc
 304              	.LVL23:
 305 0000 130101FE 		addi	sp,sp,-32
 306              		.cfi_def_cfa_offset 32
 307 0004 233C1100 		sd	ra,24(sp)
 308 0008 23388100 		sd	s0,16(sp)
 309 000c 23349100 		sd	s1,8(sp)
 310              		.cfi_offset 1, -8
 311              		.cfi_offset 8, -16
 312              		.cfi_offset 9, -24
 313 0010 13040102 		addi	s0,sp,32
 314              		.cfi_def_cfa 8, 0
 315 0014 93040500 		mv	s1,a0
 316              	.LVL24:
 317              	.LBB62:
 318              	.LBB63:
 319              		.loc 1 49 7 is_stmt 0
 320 0018 97070000 		lla	a5,_ZTV7WorkerD+16
 320      93870700 
 321 0020 2330F500 		sd	a5,0(a0)
 322 0024 97000000 		call	_ZN6ThreadD2Ev@plt
 322      E7800000 
 323              	.LVL25:
 324              	.LBE63:
 325              	.LBE62:
 326 002c 13850400 		mv	a0,s1
 327 0030 97000000 		call	_ZdlPv@plt
 327      E7800000 
 328              	.LVL26:
 329 0038 83308101 		ld	ra,24(sp)
 330              		.cfi_restore 1
 331 003c 03340101 		ld	s0,16(sp)
 332              		.cfi_restore 8
 333              		.cfi_def_cfa 2, 32
 334 0040 83348100 		ld	s1,8(sp)
 335              		.cfi_restore 9
 336              	.LVL27:
 337 0044 13010102 		addi	sp,sp,32
 338              		.cfi_def_cfa_offset 0
 339 0048 67800000 		jr	ra
 340              		.cfi_endproc
 341              	.LFE107:
 343              		.section	.text._ZN8ConsumerD2Ev,"axG",@progbits,_ZN8ConsumerD5Ev,comdat
 344              		.align	2
 345              		.weak	_ZN8ConsumerD2Ev
 347              	_ZN8ConsumerD2Ev:
GAS LISTING /tmp/ccNEPw55.s 			page 8


 348              	.LFB93:
 349              		.file 2 "test/../test/ConsumerProducer_CPP_Sync_API_test.hpp"
   1:test/../test/ConsumerProducer_CPP_Sync_API_test.hpp **** //
   2:test/../test/ConsumerProducer_CPP_Sync_API_test.hpp **** // Created by os on 4/17/22.
   3:test/../test/ConsumerProducer_CPP_Sync_API_test.hpp **** //
   4:test/../test/ConsumerProducer_CPP_Sync_API_test.hpp **** 
   5:test/../test/ConsumerProducer_CPP_Sync_API_test.hpp **** #ifndef XV6_CONSUMERPRODUCER_CPP_Sync_API_TEST_H
   6:test/../test/ConsumerProducer_CPP_Sync_API_test.hpp **** #define XV6_CONSUMERPRODUCER_CPP_Sync_API_TEST_H
   7:test/../test/ConsumerProducer_CPP_Sync_API_test.hpp **** 
   8:test/../test/ConsumerProducer_CPP_Sync_API_test.hpp **** #include "../h/syscall_cpp.hpp"
   9:test/../test/ConsumerProducer_CPP_Sync_API_test.hpp **** 
  10:test/../test/ConsumerProducer_CPP_Sync_API_test.hpp **** #include "../test/buffer_CPP_API.hpp"
  11:test/../test/ConsumerProducer_CPP_Sync_API_test.hpp **** 
  12:test/../test/ConsumerProducer_CPP_Sync_API_test.hpp **** Semaphore* waitForAll;
  13:test/../test/ConsumerProducer_CPP_Sync_API_test.hpp **** 
  14:test/../test/ConsumerProducer_CPP_Sync_API_test.hpp **** struct thread_data {
  15:test/../test/ConsumerProducer_CPP_Sync_API_test.hpp ****     int id;
  16:test/../test/ConsumerProducer_CPP_Sync_API_test.hpp ****     BufferCPP *buffer;
  17:test/../test/ConsumerProducer_CPP_Sync_API_test.hpp ****     Semaphore* wait;
  18:test/../test/ConsumerProducer_CPP_Sync_API_test.hpp **** };
  19:test/../test/ConsumerProducer_CPP_Sync_API_test.hpp **** 
  20:test/../test/ConsumerProducer_CPP_Sync_API_test.hpp **** volatile int threadEnd = 0;
  21:test/../test/ConsumerProducer_CPP_Sync_API_test.hpp **** 
  22:test/../test/ConsumerProducer_CPP_Sync_API_test.hpp **** class ProducerKeyboard:public Thread {
  23:test/../test/ConsumerProducer_CPP_Sync_API_test.hpp ****     thread_data* td;
  24:test/../test/ConsumerProducer_CPP_Sync_API_test.hpp ****     void producerKeyboard(void *arg);
  25:test/../test/ConsumerProducer_CPP_Sync_API_test.hpp **** public:
  26:test/../test/ConsumerProducer_CPP_Sync_API_test.hpp ****     ProducerKeyboard(thread_data* _td):Thread(), td(_td) {}
  27:test/../test/ConsumerProducer_CPP_Sync_API_test.hpp **** 
  28:test/../test/ConsumerProducer_CPP_Sync_API_test.hpp ****     void run() override {
  29:test/../test/ConsumerProducer_CPP_Sync_API_test.hpp ****         producerKeyboard(td);
  30:test/../test/ConsumerProducer_CPP_Sync_API_test.hpp ****     }
  31:test/../test/ConsumerProducer_CPP_Sync_API_test.hpp **** };
  32:test/../test/ConsumerProducer_CPP_Sync_API_test.hpp **** 
  33:test/../test/ConsumerProducer_CPP_Sync_API_test.hpp **** void ProducerKeyboard::producerKeyboard(void *arg) {
  34:test/../test/ConsumerProducer_CPP_Sync_API_test.hpp ****     struct thread_data *data = (struct thread_data *) arg;
  35:test/../test/ConsumerProducer_CPP_Sync_API_test.hpp **** 
  36:test/../test/ConsumerProducer_CPP_Sync_API_test.hpp ****     int key;
  37:test/../test/ConsumerProducer_CPP_Sync_API_test.hpp ****     int i = 0;
  38:test/../test/ConsumerProducer_CPP_Sync_API_test.hpp ****     while ((key = getc()) != 0x1b) {
  39:test/../test/ConsumerProducer_CPP_Sync_API_test.hpp ****         data->buffer->put(key);
  40:test/../test/ConsumerProducer_CPP_Sync_API_test.hpp ****         i++;
  41:test/../test/ConsumerProducer_CPP_Sync_API_test.hpp **** 
  42:test/../test/ConsumerProducer_CPP_Sync_API_test.hpp ****         if (i % (10 * data->id) == 0) {
  43:test/../test/ConsumerProducer_CPP_Sync_API_test.hpp ****             Thread::dispatch();
  44:test/../test/ConsumerProducer_CPP_Sync_API_test.hpp ****         }
  45:test/../test/ConsumerProducer_CPP_Sync_API_test.hpp ****     }
  46:test/../test/ConsumerProducer_CPP_Sync_API_test.hpp **** 
  47:test/../test/ConsumerProducer_CPP_Sync_API_test.hpp ****     threadEnd = 1;
  48:test/../test/ConsumerProducer_CPP_Sync_API_test.hpp ****     td->buffer->put('!');
  49:test/../test/ConsumerProducer_CPP_Sync_API_test.hpp **** 
  50:test/../test/ConsumerProducer_CPP_Sync_API_test.hpp ****     data->wait->signal();
  51:test/../test/ConsumerProducer_CPP_Sync_API_test.hpp **** }
  52:test/../test/ConsumerProducer_CPP_Sync_API_test.hpp **** 
  53:test/../test/ConsumerProducer_CPP_Sync_API_test.hpp **** class Producer:public Thread {
  54:test/../test/ConsumerProducer_CPP_Sync_API_test.hpp ****     thread_data* td;
  55:test/../test/ConsumerProducer_CPP_Sync_API_test.hpp ****     void producer(void *arg);
GAS LISTING /tmp/ccNEPw55.s 			page 9


  56:test/../test/ConsumerProducer_CPP_Sync_API_test.hpp **** public:
  57:test/../test/ConsumerProducer_CPP_Sync_API_test.hpp ****     Producer(thread_data* _td):Thread(), td(_td) {}
  58:test/../test/ConsumerProducer_CPP_Sync_API_test.hpp **** 
  59:test/../test/ConsumerProducer_CPP_Sync_API_test.hpp ****     void run() override {
  60:test/../test/ConsumerProducer_CPP_Sync_API_test.hpp ****         producer(td);
  61:test/../test/ConsumerProducer_CPP_Sync_API_test.hpp ****     }
  62:test/../test/ConsumerProducer_CPP_Sync_API_test.hpp **** };
  63:test/../test/ConsumerProducer_CPP_Sync_API_test.hpp **** 
  64:test/../test/ConsumerProducer_CPP_Sync_API_test.hpp **** void Producer::producer(void *arg) {
  65:test/../test/ConsumerProducer_CPP_Sync_API_test.hpp ****     struct thread_data *data = (struct thread_data *) arg;
  66:test/../test/ConsumerProducer_CPP_Sync_API_test.hpp **** 
  67:test/../test/ConsumerProducer_CPP_Sync_API_test.hpp ****     int i = 0;
  68:test/../test/ConsumerProducer_CPP_Sync_API_test.hpp ****     while (!threadEnd) {
  69:test/../test/ConsumerProducer_CPP_Sync_API_test.hpp ****         data->buffer->put(data->id + '0');
  70:test/../test/ConsumerProducer_CPP_Sync_API_test.hpp ****         i++;
  71:test/../test/ConsumerProducer_CPP_Sync_API_test.hpp **** 
  72:test/../test/ConsumerProducer_CPP_Sync_API_test.hpp ****         if (i % (10 * data->id) == 0) {
  73:test/../test/ConsumerProducer_CPP_Sync_API_test.hpp ****             Thread::dispatch();
  74:test/../test/ConsumerProducer_CPP_Sync_API_test.hpp ****         }
  75:test/../test/ConsumerProducer_CPP_Sync_API_test.hpp ****     }
  76:test/../test/ConsumerProducer_CPP_Sync_API_test.hpp **** 
  77:test/../test/ConsumerProducer_CPP_Sync_API_test.hpp ****     data->wait->signal();
  78:test/../test/ConsumerProducer_CPP_Sync_API_test.hpp **** }
  79:test/../test/ConsumerProducer_CPP_Sync_API_test.hpp **** 
  80:test/../test/ConsumerProducer_CPP_Sync_API_test.hpp **** class Consumer:public Thread {
 350              		.loc 2 80 7 is_stmt 1
 351              		.cfi_startproc
 352              	.LVL28:
 353 0000 130101FF 		addi	sp,sp,-16
 354              		.cfi_def_cfa_offset 16
 355 0004 23341100 		sd	ra,8(sp)
 356 0008 23308100 		sd	s0,0(sp)
 357              		.cfi_offset 1, -8
 358              		.cfi_offset 8, -16
 359 000c 13040101 		addi	s0,sp,16
 360              		.cfi_def_cfa 8, 0
 361              	.LBB64:
 362              		.loc 2 80 7 is_stmt 0
 363 0010 97070000 		lla	a5,_ZTV8Consumer+16
 363      93870700 
 364 0018 2330F500 		sd	a5,0(a0)
 365 001c 97000000 		call	_ZN6ThreadD2Ev@plt
 365      E7800000 
 366              	.LVL29:
 367              	.LBE64:
 368 0024 83308100 		ld	ra,8(sp)
 369              		.cfi_restore 1
 370 0028 03340100 		ld	s0,0(sp)
 371              		.cfi_restore 8
 372              		.cfi_def_cfa 2, 16
 373 002c 13010101 		addi	sp,sp,16
 374              		.cfi_def_cfa_offset 0
 375 0030 67800000 		jr	ra
 376              		.cfi_endproc
 377              	.LFE93:
 379              		.weak	_ZN8ConsumerD1Ev
 380              		.set	_ZN8ConsumerD1Ev,_ZN8ConsumerD2Ev
GAS LISTING /tmp/ccNEPw55.s 			page 10


 381              		.section	.text._ZN8ConsumerD0Ev,"axG",@progbits,_ZN8ConsumerD5Ev,comdat
 382              		.align	2
 383              		.weak	_ZN8ConsumerD0Ev
 385              	_ZN8ConsumerD0Ev:
 386              	.LFB95:
 387              		.loc 2 80 7 is_stmt 1
 388              		.cfi_startproc
 389              	.LVL30:
 390 0000 130101FE 		addi	sp,sp,-32
 391              		.cfi_def_cfa_offset 32
 392 0004 233C1100 		sd	ra,24(sp)
 393 0008 23388100 		sd	s0,16(sp)
 394 000c 23349100 		sd	s1,8(sp)
 395              		.cfi_offset 1, -8
 396              		.cfi_offset 8, -16
 397              		.cfi_offset 9, -24
 398 0010 13040102 		addi	s0,sp,32
 399              		.cfi_def_cfa 8, 0
 400 0014 93040500 		mv	s1,a0
 401              	.LVL31:
 402              	.LBB65:
 403              	.LBB66:
 404              		.loc 2 80 7 is_stmt 0
 405 0018 97070000 		lla	a5,_ZTV8Consumer+16
 405      93870700 
 406 0020 2330F500 		sd	a5,0(a0)
 407 0024 97000000 		call	_ZN6ThreadD2Ev@plt
 407      E7800000 
 408              	.LVL32:
 409              	.LBE66:
 410              	.LBE65:
 411 002c 13850400 		mv	a0,s1
 412 0030 97000000 		call	_ZdlPv@plt
 412      E7800000 
 413              	.LVL33:
 414 0038 83308101 		ld	ra,24(sp)
 415              		.cfi_restore 1
 416 003c 03340101 		ld	s0,16(sp)
 417              		.cfi_restore 8
 418              		.cfi_def_cfa 2, 32
 419 0040 83348100 		ld	s1,8(sp)
 420              		.cfi_restore 9
 421              	.LVL34:
 422 0044 13010102 		addi	sp,sp,32
 423              		.cfi_def_cfa_offset 0
 424 0048 67800000 		jr	ra
 425              		.cfi_endproc
 426              	.LFE95:
 428              		.section	.text._ZN8ProducerD2Ev,"axG",@progbits,_ZN8ProducerD5Ev,comdat
 429              		.align	2
 430              		.weak	_ZN8ProducerD2Ev
 432              	_ZN8ProducerD2Ev:
 433              	.LFB97:
  53:test/../test/ConsumerProducer_CPP_Sync_API_test.hpp ****     thread_data* td;
 434              		.loc 2 53 7 is_stmt 1
 435              		.cfi_startproc
 436              	.LVL35:
GAS LISTING /tmp/ccNEPw55.s 			page 11


 437 0000 130101FF 		addi	sp,sp,-16
 438              		.cfi_def_cfa_offset 16
 439 0004 23341100 		sd	ra,8(sp)
 440 0008 23308100 		sd	s0,0(sp)
 441              		.cfi_offset 1, -8
 442              		.cfi_offset 8, -16
 443 000c 13040101 		addi	s0,sp,16
 444              		.cfi_def_cfa 8, 0
 445              	.LBB67:
  53:test/../test/ConsumerProducer_CPP_Sync_API_test.hpp ****     thread_data* td;
 446              		.loc 2 53 7 is_stmt 0
 447 0010 97070000 		lla	a5,_ZTV8Producer+16
 447      93870700 
 448 0018 2330F500 		sd	a5,0(a0)
 449 001c 97000000 		call	_ZN6ThreadD2Ev@plt
 449      E7800000 
 450              	.LVL36:
 451              	.LBE67:
 452 0024 83308100 		ld	ra,8(sp)
 453              		.cfi_restore 1
 454 0028 03340100 		ld	s0,0(sp)
 455              		.cfi_restore 8
 456              		.cfi_def_cfa 2, 16
 457 002c 13010101 		addi	sp,sp,16
 458              		.cfi_def_cfa_offset 0
 459 0030 67800000 		jr	ra
 460              		.cfi_endproc
 461              	.LFE97:
 463              		.weak	_ZN8ProducerD1Ev
 464              		.set	_ZN8ProducerD1Ev,_ZN8ProducerD2Ev
 465              		.section	.text._ZN8ProducerD0Ev,"axG",@progbits,_ZN8ProducerD5Ev,comdat
 466              		.align	2
 467              		.weak	_ZN8ProducerD0Ev
 469              	_ZN8ProducerD0Ev:
 470              	.LFB99:
  53:test/../test/ConsumerProducer_CPP_Sync_API_test.hpp ****     thread_data* td;
 471              		.loc 2 53 7 is_stmt 1
 472              		.cfi_startproc
 473              	.LVL37:
 474 0000 130101FE 		addi	sp,sp,-32
 475              		.cfi_def_cfa_offset 32
 476 0004 233C1100 		sd	ra,24(sp)
 477 0008 23388100 		sd	s0,16(sp)
 478 000c 23349100 		sd	s1,8(sp)
 479              		.cfi_offset 1, -8
 480              		.cfi_offset 8, -16
 481              		.cfi_offset 9, -24
 482 0010 13040102 		addi	s0,sp,32
 483              		.cfi_def_cfa 8, 0
 484 0014 93040500 		mv	s1,a0
 485              	.LVL38:
 486              	.LBB68:
 487              	.LBB69:
  53:test/../test/ConsumerProducer_CPP_Sync_API_test.hpp ****     thread_data* td;
 488              		.loc 2 53 7 is_stmt 0
 489 0018 97070000 		lla	a5,_ZTV8Producer+16
 489      93870700 
GAS LISTING /tmp/ccNEPw55.s 			page 12


 490 0020 2330F500 		sd	a5,0(a0)
 491 0024 97000000 		call	_ZN6ThreadD2Ev@plt
 491      E7800000 
 492              	.LVL39:
 493              	.LBE69:
 494              	.LBE68:
 495 002c 13850400 		mv	a0,s1
 496 0030 97000000 		call	_ZdlPv@plt
 496      E7800000 
 497              	.LVL40:
 498 0038 83308101 		ld	ra,24(sp)
 499              		.cfi_restore 1
 500 003c 03340101 		ld	s0,16(sp)
 501              		.cfi_restore 8
 502              		.cfi_def_cfa 2, 32
 503 0040 83348100 		ld	s1,8(sp)
 504              		.cfi_restore 9
 505              	.LVL41:
 506 0044 13010102 		addi	sp,sp,32
 507              		.cfi_def_cfa_offset 0
 508 0048 67800000 		jr	ra
 509              		.cfi_endproc
 510              	.LFE99:
 512              		.section	.text._ZN16ProducerKeyboardD2Ev,"axG",@progbits,_ZN16ProducerKeyboardD5Ev,comdat
 513              		.align	2
 514              		.weak	_ZN16ProducerKeyboardD2Ev
 516              	_ZN16ProducerKeyboardD2Ev:
 517              	.LFB101:
  22:test/../test/ConsumerProducer_CPP_Sync_API_test.hpp ****     thread_data* td;
 518              		.loc 2 22 7 is_stmt 1
 519              		.cfi_startproc
 520              	.LVL42:
 521 0000 130101FF 		addi	sp,sp,-16
 522              		.cfi_def_cfa_offset 16
 523 0004 23341100 		sd	ra,8(sp)
 524 0008 23308100 		sd	s0,0(sp)
 525              		.cfi_offset 1, -8
 526              		.cfi_offset 8, -16
 527 000c 13040101 		addi	s0,sp,16
 528              		.cfi_def_cfa 8, 0
 529              	.LBB70:
  22:test/../test/ConsumerProducer_CPP_Sync_API_test.hpp ****     thread_data* td;
 530              		.loc 2 22 7 is_stmt 0
 531 0010 97070000 		lla	a5,_ZTV16ProducerKeyboard+16
 531      93870700 
 532 0018 2330F500 		sd	a5,0(a0)
 533 001c 97000000 		call	_ZN6ThreadD2Ev@plt
 533      E7800000 
 534              	.LVL43:
 535              	.LBE70:
 536 0024 83308100 		ld	ra,8(sp)
 537              		.cfi_restore 1
 538 0028 03340100 		ld	s0,0(sp)
 539              		.cfi_restore 8
 540              		.cfi_def_cfa 2, 16
 541 002c 13010101 		addi	sp,sp,16
 542              		.cfi_def_cfa_offset 0
GAS LISTING /tmp/ccNEPw55.s 			page 13


 543 0030 67800000 		jr	ra
 544              		.cfi_endproc
 545              	.LFE101:
 547              		.weak	_ZN16ProducerKeyboardD1Ev
 548              		.set	_ZN16ProducerKeyboardD1Ev,_ZN16ProducerKeyboardD2Ev
 549              		.section	.text._ZN16ProducerKeyboardD0Ev,"axG",@progbits,_ZN16ProducerKeyboardD5Ev,comdat
 550              		.align	2
 551              		.weak	_ZN16ProducerKeyboardD0Ev
 553              	_ZN16ProducerKeyboardD0Ev:
 554              	.LFB103:
  22:test/../test/ConsumerProducer_CPP_Sync_API_test.hpp ****     thread_data* td;
 555              		.loc 2 22 7 is_stmt 1
 556              		.cfi_startproc
 557              	.LVL44:
 558 0000 130101FE 		addi	sp,sp,-32
 559              		.cfi_def_cfa_offset 32
 560 0004 233C1100 		sd	ra,24(sp)
 561 0008 23388100 		sd	s0,16(sp)
 562 000c 23349100 		sd	s1,8(sp)
 563              		.cfi_offset 1, -8
 564              		.cfi_offset 8, -16
 565              		.cfi_offset 9, -24
 566 0010 13040102 		addi	s0,sp,32
 567              		.cfi_def_cfa 8, 0
 568 0014 93040500 		mv	s1,a0
 569              	.LVL45:
 570              	.LBB71:
 571              	.LBB72:
  22:test/../test/ConsumerProducer_CPP_Sync_API_test.hpp ****     thread_data* td;
 572              		.loc 2 22 7 is_stmt 0
 573 0018 97070000 		lla	a5,_ZTV16ProducerKeyboard+16
 573      93870700 
 574 0020 2330F500 		sd	a5,0(a0)
 575 0024 97000000 		call	_ZN6ThreadD2Ev@plt
 575      E7800000 
 576              	.LVL46:
 577              	.LBE72:
 578              	.LBE71:
 579 002c 13850400 		mv	a0,s1
 580 0030 97000000 		call	_ZdlPv@plt
 580      E7800000 
 581              	.LVL47:
 582 0038 83308101 		ld	ra,24(sp)
 583              		.cfi_restore 1
 584 003c 03340101 		ld	s0,16(sp)
 585              		.cfi_restore 8
 586              		.cfi_def_cfa 2, 32
 587 0040 83348100 		ld	s1,8(sp)
 588              		.cfi_restore 9
 589              	.LVL48:
 590 0044 13010102 		addi	sp,sp,32
 591              		.cfi_def_cfa_offset 0
 592 0048 67800000 		jr	ra
 593              		.cfi_endproc
 594              	.LFE103:
 596              		.text
 597              		.align	2
GAS LISTING /tmp/ccNEPw55.s 			page 14


 598              		.globl	_Z9fibonaccim
 600              	_Z9fibonaccim:
 601              	.LFB43:
  13:test/../test/Threads_CPP_API_test.hpp ****     if (n == 0 || n == 1) { return n; }
 602              		.loc 1 13 28 is_stmt 1
 603              		.cfi_startproc
 604              	.LVL49:
 605 0000 130101FE 		addi	sp,sp,-32
 606              		.cfi_def_cfa_offset 32
 607 0004 233C1100 		sd	ra,24(sp)
 608 0008 23388100 		sd	s0,16(sp)
 609 000c 23349100 		sd	s1,8(sp)
 610 0010 23302101 		sd	s2,0(sp)
 611              		.cfi_offset 1, -8
 612              		.cfi_offset 8, -16
 613              		.cfi_offset 9, -24
 614              		.cfi_offset 18, -32
 615 0014 13040102 		addi	s0,sp,32
 616              		.cfi_def_cfa 8, 0
 617 0018 93040500 		mv	s1,a0
  14:test/../test/Threads_CPP_API_test.hpp ****     if (n % 10 == 0) { thread_dispatch(); }
 618              		.loc 1 14 5
 619 001c 93071000 		li	a5,1
 620 0020 63F8A702 		bleu	a0,a5,.L29
  15:test/../test/Threads_CPP_API_test.hpp ****     return fibonacci(n - 1) + fibonacci(n - 2);
 621              		.loc 1 15 5
  15:test/../test/Threads_CPP_API_test.hpp ****     return fibonacci(n - 1) + fibonacci(n - 2);
 622              		.loc 1 15 11 is_stmt 0
 623 0024 9307A000 		li	a5,10
 624 0028 B377F502 		remu	a5,a0,a5
  15:test/../test/Threads_CPP_API_test.hpp ****     return fibonacci(n - 1) + fibonacci(n - 2);
 625              		.loc 1 15 5
 626 002c 638E0702 		beqz	a5,.L34
 627              	.LVL50:
 628              	.L31:
  16:test/../test/Threads_CPP_API_test.hpp **** }
 629              		.loc 1 16 5 is_stmt 1
  16:test/../test/Threads_CPP_API_test.hpp **** }
 630              		.loc 1 16 21 is_stmt 0
 631 0030 1385F4FF 		addi	a0,s1,-1
 632 0034 97000000 		call	_Z9fibonaccim
 632      E7800000 
 633              	.LVL51:
 634 003c 13090500 		mv	s2,a0
  16:test/../test/Threads_CPP_API_test.hpp **** }
 635              		.loc 1 16 40
 636 0040 1385E4FF 		addi	a0,s1,-2
 637 0044 97000000 		call	_Z9fibonaccim
 637      E7800000 
 638              	.LVL52:
  16:test/../test/Threads_CPP_API_test.hpp **** }
 639              		.loc 1 16 46
 640 004c 3305A900 		add	a0,s2,a0
 641              	.L29:
  17:test/../test/Threads_CPP_API_test.hpp **** 
 642              		.loc 1 17 1
 643 0050 83308101 		ld	ra,24(sp)
GAS LISTING /tmp/ccNEPw55.s 			page 15


 644              		.cfi_remember_state
 645              		.cfi_restore 1
 646 0054 03340101 		ld	s0,16(sp)
 647              		.cfi_restore 8
 648              		.cfi_def_cfa 2, 32
 649 0058 83348100 		ld	s1,8(sp)
 650              		.cfi_restore 9
 651              	.LVL53:
 652 005c 03390100 		ld	s2,0(sp)
 653              		.cfi_restore 18
 654 0060 13010102 		addi	sp,sp,32
 655              		.cfi_def_cfa_offset 0
 656 0064 67800000 		jr	ra
 657              	.LVL54:
 658              	.L34:
 659              		.cfi_restore_state
  15:test/../test/Threads_CPP_API_test.hpp ****     return fibonacci(n - 1) + fibonacci(n - 2);
 660              		.loc 1 15 24 is_stmt 1 discriminator 1
  15:test/../test/Threads_CPP_API_test.hpp ****     return fibonacci(n - 1) + fibonacci(n - 2);
 661              		.loc 1 15 39 is_stmt 0 discriminator 1
 662 0068 97000000 		call	thread_dispatch@plt
 662      E7800000 
 663              	.LVL55:
 664 0070 6FF01FFC 		j	.L31
 665              		.cfi_endproc
 666              	.LFE43:
 668              		.section	.rodata.str1.8,"aMS",@progbits,1
 669              		.align	3
 670              	.LC0:
 671 0000 413A2069 		.string	"A: i="
 671      3D00
 672 0006 0000     		.align	3
 673              	.LC1:
 674 0008 0A00     		.string	"\n"
 675 000a 00000000 		.align	3
 675      0000
 676              	.LC2:
 677 0010 41206669 		.string	"A finished!\n"
 677      6E697368 
 677      6564210A 
 677      00
 678              		.text
 679              		.align	2
 680              		.globl	_ZN7WorkerA11workerBodyAEPv
 682              	_ZN7WorkerA11workerBodyAEPv:
 683              	.LFB60:
  50:test/../test/Threads_CPP_API_test.hpp ****     void workerBodyD(void* arg);
  51:test/../test/Threads_CPP_API_test.hpp **** public:
  52:test/../test/Threads_CPP_API_test.hpp ****     WorkerD():Thread() {}
  53:test/../test/Threads_CPP_API_test.hpp **** 
  54:test/../test/Threads_CPP_API_test.hpp ****     void run() override {
  55:test/../test/Threads_CPP_API_test.hpp ****         workerBodyD(nullptr);
  56:test/../test/Threads_CPP_API_test.hpp ****     }
  57:test/../test/Threads_CPP_API_test.hpp **** };
  58:test/../test/Threads_CPP_API_test.hpp **** 
  59:test/../test/Threads_CPP_API_test.hpp **** void WorkerA::workerBodyA(void *arg) {
 684              		.loc 1 59 38 is_stmt 1
GAS LISTING /tmp/ccNEPw55.s 			page 16


 685              		.cfi_startproc
 686              	.LVL56:
 687 0074 130101FE 		addi	sp,sp,-32
 688              		.cfi_def_cfa_offset 32
 689 0078 233C1100 		sd	ra,24(sp)
 690 007c 23388100 		sd	s0,16(sp)
 691 0080 23349100 		sd	s1,8(sp)
 692 0084 23302101 		sd	s2,0(sp)
 693              		.cfi_offset 1, -8
 694              		.cfi_offset 8, -16
 695              		.cfi_offset 9, -24
 696              		.cfi_offset 18, -32
 697 0088 13040102 		addi	s0,sp,32
 698              		.cfi_def_cfa 8, 0
  60:test/../test/Threads_CPP_API_test.hpp ****     for (uint64 i = 0; i < 10; i++) {
 699              		.loc 1 60 5
 700              	.LVL57:
 701              	.LBB73:
 702              		.loc 1 60 17 is_stmt 0
 703 008c 13090000 		li	s2,0
 704 0090 6F008003 		j	.L41
 705              	.LVL58:
 706              	.L38:
 707              	.LBB74:
 708              	.LBB75:
 709              	.LBB76:
  61:test/../test/Threads_CPP_API_test.hpp ****         printString("A: i="); printInt(i); printString("\n");
  62:test/../test/Threads_CPP_API_test.hpp ****         for (uint64 j = 0; j < 10000; j++) {
  63:test/../test/Threads_CPP_API_test.hpp ****             for (uint64 k = 0; k < 30000; k++) { /* busy wait */ }
  64:test/../test/Threads_CPP_API_test.hpp ****             thread_dispatch();
 710              		.loc 1 64 13 is_stmt 1 discriminator 2
 711              		.loc 1 64 28 is_stmt 0 discriminator 2
 712 0094 97000000 		call	thread_dispatch@plt
 712      E7800000 
 713              	.LVL59:
 714              	.LBE76:
  62:test/../test/Threads_CPP_API_test.hpp ****             for (uint64 k = 0; k < 30000; k++) { /* busy wait */ }
 715              		.loc 1 62 9 is_stmt 1 discriminator 2
 716 009c 93841400 		addi	s1,s1,1
 717              	.LVL60:
 718              	.L40:
  62:test/../test/Threads_CPP_API_test.hpp ****             for (uint64 k = 0; k < 30000; k++) { /* busy wait */ }
 719              		.loc 1 62 30 discriminator 1
 720 00a0 B7270000 		li	a5,8192
 721 00a4 9387F770 		addi	a5,a5,1807
 722 00a8 63EE9700 		bgtu	s1,a5,.L37
 723              	.LBB78:
 724              	.LBB77:
  63:test/../test/Threads_CPP_API_test.hpp ****             thread_dispatch();
 725              		.loc 1 63 25 is_stmt 0
 726 00ac 13070000 		li	a4,0
 727              	.L39:
 728              	.LVL61:
  63:test/../test/Threads_CPP_API_test.hpp ****             thread_dispatch();
 729              		.loc 1 63 34 is_stmt 1 discriminator 3
 730 00b0 B7770000 		li	a5,28672
 731 00b4 9387F752 		addi	a5,a5,1327
GAS LISTING /tmp/ccNEPw55.s 			page 17


 732 00b8 E3EEE7FC 		bgtu	a4,a5,.L38
  63:test/../test/Threads_CPP_API_test.hpp ****             thread_dispatch();
 733              		.loc 1 63 13 discriminator 2
 734 00bc 13071700 		addi	a4,a4,1
 735              	.LVL62:
 736 00c0 6FF01FFF 		j	.L39
 737              	.LVL63:
 738              	.L37:
 739              	.LBE77:
 740              	.LBE78:
 741              	.LBE75:
 742              	.LBE74:
  60:test/../test/Threads_CPP_API_test.hpp ****         printString("A: i="); printInt(i); printString("\n");
 743              		.loc 1 60 5 discriminator 2
 744 00c4 13091900 		addi	s2,s2,1
 745              	.LVL64:
 746              	.L41:
  60:test/../test/Threads_CPP_API_test.hpp ****         printString("A: i="); printInt(i); printString("\n");
 747              		.loc 1 60 26 discriminator 1
 748 00c8 93079000 		li	a5,9
 749 00cc 63E02705 		bgtu	s2,a5,.L36
 750              	.LBB80:
  61:test/../test/Threads_CPP_API_test.hpp ****         for (uint64 j = 0; j < 10000; j++) {
 751              		.loc 1 61 9
  61:test/../test/Threads_CPP_API_test.hpp ****         for (uint64 j = 0; j < 10000; j++) {
 752              		.loc 1 61 20 is_stmt 0
 753 00d0 17050000 		lla	a0,.LC0
 753      13050500 
 754 00d8 97000000 		call	_Z11printStringPKc@plt
 754      E7800000 
 755              	.LVL65:
  61:test/../test/Threads_CPP_API_test.hpp ****         for (uint64 j = 0; j < 10000; j++) {
 756              		.loc 1 61 31 is_stmt 1
  61:test/../test/Threads_CPP_API_test.hpp ****         for (uint64 j = 0; j < 10000; j++) {
 757              		.loc 1 61 39 is_stmt 0
 758 00e0 13060000 		li	a2,0
 759 00e4 9305A000 		li	a1,10
 760 00e8 1B050900 		sext.w	a0,s2
 761 00ec 97000000 		call	_Z8printIntiii@plt
 761      E7800000 
 762              	.LVL66:
  61:test/../test/Threads_CPP_API_test.hpp ****         for (uint64 j = 0; j < 10000; j++) {
 763              		.loc 1 61 44 is_stmt 1
  61:test/../test/Threads_CPP_API_test.hpp ****         for (uint64 j = 0; j < 10000; j++) {
 764              		.loc 1 61 55 is_stmt 0
 765 00f4 17050000 		lla	a0,.LC1
 765      13050500 
 766 00fc 97000000 		call	_Z11printStringPKc@plt
 766      E7800000 
 767              	.LVL67:
  62:test/../test/Threads_CPP_API_test.hpp ****             for (uint64 k = 0; k < 30000; k++) { /* busy wait */ }
 768              		.loc 1 62 9 is_stmt 1
 769              	.LBB79:
  62:test/../test/Threads_CPP_API_test.hpp ****             for (uint64 k = 0; k < 30000; k++) { /* busy wait */ }
 770              		.loc 1 62 21 is_stmt 0
 771 0104 93040000 		li	s1,0
 772 0108 6FF09FF9 		j	.L40
GAS LISTING /tmp/ccNEPw55.s 			page 18


 773              	.LVL68:
 774              	.L36:
 775              	.LBE79:
 776              	.LBE80:
 777              	.LBE73:
  65:test/../test/Threads_CPP_API_test.hpp ****         }
  66:test/../test/Threads_CPP_API_test.hpp ****     }
  67:test/../test/Threads_CPP_API_test.hpp ****     printString("A finished!\n");
 778              		.loc 1 67 5 is_stmt 1
 779              		.loc 1 67 16 is_stmt 0
 780 010c 17050000 		lla	a0,.LC2
 780      13050500 
 781 0114 97000000 		call	_Z11printStringPKc@plt
 781      E7800000 
 782              	.LVL69:
  68:test/../test/Threads_CPP_API_test.hpp ****     finishedA = true;
 783              		.loc 1 68 5 is_stmt 1
 784              		.loc 1 68 15 is_stmt 0
 785 011c 93071000 		li	a5,1
 786 0120 17070000 		sb	a5,.LANCHOR0,a4
 786      2300F700 
  69:test/../test/Threads_CPP_API_test.hpp **** }
 787              		.loc 1 69 1
 788 0128 83308101 		ld	ra,24(sp)
 789              		.cfi_restore 1
 790 012c 03340101 		ld	s0,16(sp)
 791              		.cfi_restore 8
 792              		.cfi_def_cfa 2, 32
 793 0130 83348100 		ld	s1,8(sp)
 794              		.cfi_restore 9
 795 0134 03390100 		ld	s2,0(sp)
 796              		.cfi_restore 18
 797              	.LVL70:
 798 0138 13010102 		addi	sp,sp,32
 799              		.cfi_def_cfa_offset 0
 800 013c 67800000 		jr	ra
 801              		.cfi_endproc
 802              	.LFE60:
 804              		.section	.text._ZN7WorkerA3runEv,"axG",@progbits,_ZN7WorkerA3runEv,comdat
 805              		.align	2
 806              		.weak	_ZN7WorkerA3runEv
 808              	_ZN7WorkerA3runEv:
 809              	.LFB47:
  24:test/../test/Threads_CPP_API_test.hpp ****         workerBodyA(nullptr);
 810              		.loc 1 24 10 is_stmt 1
 811              		.cfi_startproc
 812              	.LVL71:
 813 0000 130101FF 		addi	sp,sp,-16
 814              		.cfi_def_cfa_offset 16
 815 0004 23341100 		sd	ra,8(sp)
 816 0008 23308100 		sd	s0,0(sp)
 817              		.cfi_offset 1, -8
 818              		.cfi_offset 8, -16
 819 000c 13040101 		addi	s0,sp,16
 820              		.cfi_def_cfa 8, 0
  25:test/../test/Threads_CPP_API_test.hpp ****     }
 821              		.loc 1 25 9
GAS LISTING /tmp/ccNEPw55.s 			page 19


  25:test/../test/Threads_CPP_API_test.hpp ****     }
 822              		.loc 1 25 20 is_stmt 0
 823 0010 93050000 		li	a1,0
 824 0014 97000000 		call	_ZN7WorkerA11workerBodyAEPv
 824      E7800000 
 825              	.LVL72:
  26:test/../test/Threads_CPP_API_test.hpp **** };
 826              		.loc 1 26 5
 827 001c 83308100 		ld	ra,8(sp)
 828              		.cfi_restore 1
 829 0020 03340100 		ld	s0,0(sp)
 830              		.cfi_restore 8
 831              		.cfi_def_cfa 2, 16
 832 0024 13010101 		addi	sp,sp,16
 833              		.cfi_def_cfa_offset 0
 834 0028 67800000 		jr	ra
 835              		.cfi_endproc
 836              	.LFE47:
 838              		.section	.rodata.str1.8
 839 001d 000000   		.align	3
 840              	.LC3:
 841 0020 423A2069 		.string	"B: i="
 841      3D00
 842 0026 0000     		.align	3
 843              	.LC4:
 844 0028 42206669 		.string	"B finished!\n"
 844      6E697368 
 844      6564210A 
 844      00
 845              		.text
 846              		.align	2
 847              		.globl	_ZN7WorkerB11workerBodyBEPv
 849              	_ZN7WorkerB11workerBodyBEPv:
 850              	.LFB61:
  70:test/../test/Threads_CPP_API_test.hpp **** 
  71:test/../test/Threads_CPP_API_test.hpp **** void WorkerB::workerBodyB(void *arg) {
 851              		.loc 1 71 38 is_stmt 1
 852              		.cfi_startproc
 853              	.LVL73:
 854 0140 130101FE 		addi	sp,sp,-32
 855              		.cfi_def_cfa_offset 32
 856 0144 233C1100 		sd	ra,24(sp)
 857 0148 23388100 		sd	s0,16(sp)
 858 014c 23349100 		sd	s1,8(sp)
 859 0150 23302101 		sd	s2,0(sp)
 860              		.cfi_offset 1, -8
 861              		.cfi_offset 8, -16
 862              		.cfi_offset 9, -24
 863              		.cfi_offset 18, -32
 864 0154 13040102 		addi	s0,sp,32
 865              		.cfi_def_cfa 8, 0
  72:test/../test/Threads_CPP_API_test.hpp ****     for (uint64 i = 0; i < 16; i++) {
 866              		.loc 1 72 5
 867              	.LVL74:
 868              	.LBB81:
 869              		.loc 1 72 17 is_stmt 0
 870 0158 13090000 		li	s2,0
GAS LISTING /tmp/ccNEPw55.s 			page 20


 871 015c 6F008003 		j	.L51
 872              	.LVL75:
 873              	.L48:
 874              	.LBB82:
 875              	.LBB83:
 876              	.LBB84:
  73:test/../test/Threads_CPP_API_test.hpp ****         printString("B: i="); printInt(i); printString("\n");
  74:test/../test/Threads_CPP_API_test.hpp ****         for (uint64 j = 0; j < 10000; j++) {
  75:test/../test/Threads_CPP_API_test.hpp ****             for (uint64 k = 0; k < 30000; k++) { /* busy wait */ }
  76:test/../test/Threads_CPP_API_test.hpp ****             thread_dispatch();
 877              		.loc 1 76 13 is_stmt 1 discriminator 2
 878              		.loc 1 76 28 is_stmt 0 discriminator 2
 879 0160 97000000 		call	thread_dispatch@plt
 879      E7800000 
 880              	.LVL76:
 881              	.LBE84:
  74:test/../test/Threads_CPP_API_test.hpp ****             for (uint64 k = 0; k < 30000; k++) { /* busy wait */ }
 882              		.loc 1 74 9 is_stmt 1 discriminator 2
 883 0168 93841400 		addi	s1,s1,1
 884              	.LVL77:
 885              	.L50:
  74:test/../test/Threads_CPP_API_test.hpp ****             for (uint64 k = 0; k < 30000; k++) { /* busy wait */ }
 886              		.loc 1 74 30 discriminator 1
 887 016c B7270000 		li	a5,8192
 888 0170 9387F770 		addi	a5,a5,1807
 889 0174 63EE9700 		bgtu	s1,a5,.L47
 890              	.LBB86:
 891              	.LBB85:
  75:test/../test/Threads_CPP_API_test.hpp ****             thread_dispatch();
 892              		.loc 1 75 25 is_stmt 0
 893 0178 13070000 		li	a4,0
 894              	.L49:
 895              	.LVL78:
  75:test/../test/Threads_CPP_API_test.hpp ****             thread_dispatch();
 896              		.loc 1 75 34 is_stmt 1 discriminator 3
 897 017c B7770000 		li	a5,28672
 898 0180 9387F752 		addi	a5,a5,1327
 899 0184 E3EEE7FC 		bgtu	a4,a5,.L48
  75:test/../test/Threads_CPP_API_test.hpp ****             thread_dispatch();
 900              		.loc 1 75 13 discriminator 2
 901 0188 13071700 		addi	a4,a4,1
 902              	.LVL79:
 903 018c 6FF01FFF 		j	.L49
 904              	.LVL80:
 905              	.L47:
 906              	.LBE85:
 907              	.LBE86:
 908              	.LBE83:
 909              	.LBE82:
  72:test/../test/Threads_CPP_API_test.hpp ****         printString("B: i="); printInt(i); printString("\n");
 910              		.loc 1 72 5 discriminator 2
 911 0190 13091900 		addi	s2,s2,1
 912              	.LVL81:
 913              	.L51:
  72:test/../test/Threads_CPP_API_test.hpp ****         printString("B: i="); printInt(i); printString("\n");
 914              		.loc 1 72 26 discriminator 1
 915 0194 9307F000 		li	a5,15
GAS LISTING /tmp/ccNEPw55.s 			page 21


 916 0198 63E02705 		bgtu	s2,a5,.L46
 917              	.LBB88:
  73:test/../test/Threads_CPP_API_test.hpp ****         for (uint64 j = 0; j < 10000; j++) {
 918              		.loc 1 73 9
  73:test/../test/Threads_CPP_API_test.hpp ****         for (uint64 j = 0; j < 10000; j++) {
 919              		.loc 1 73 20 is_stmt 0
 920 019c 17050000 		lla	a0,.LC3
 920      13050500 
 921 01a4 97000000 		call	_Z11printStringPKc@plt
 921      E7800000 
 922              	.LVL82:
  73:test/../test/Threads_CPP_API_test.hpp ****         for (uint64 j = 0; j < 10000; j++) {
 923              		.loc 1 73 31 is_stmt 1
  73:test/../test/Threads_CPP_API_test.hpp ****         for (uint64 j = 0; j < 10000; j++) {
 924              		.loc 1 73 39 is_stmt 0
 925 01ac 13060000 		li	a2,0
 926 01b0 9305A000 		li	a1,10
 927 01b4 1B050900 		sext.w	a0,s2
 928 01b8 97000000 		call	_Z8printIntiii@plt
 928      E7800000 
 929              	.LVL83:
  73:test/../test/Threads_CPP_API_test.hpp ****         for (uint64 j = 0; j < 10000; j++) {
 930              		.loc 1 73 44 is_stmt 1
  73:test/../test/Threads_CPP_API_test.hpp ****         for (uint64 j = 0; j < 10000; j++) {
 931              		.loc 1 73 55 is_stmt 0
 932 01c0 17050000 		lla	a0,.LC1
 932      13050500 
 933 01c8 97000000 		call	_Z11printStringPKc@plt
 933      E7800000 
 934              	.LVL84:
  74:test/../test/Threads_CPP_API_test.hpp ****             for (uint64 k = 0; k < 30000; k++) { /* busy wait */ }
 935              		.loc 1 74 9 is_stmt 1
 936              	.LBB87:
  74:test/../test/Threads_CPP_API_test.hpp ****             for (uint64 k = 0; k < 30000; k++) { /* busy wait */ }
 937              		.loc 1 74 21 is_stmt 0
 938 01d0 93040000 		li	s1,0
 939 01d4 6FF09FF9 		j	.L50
 940              	.LVL85:
 941              	.L46:
 942              	.LBE87:
 943              	.LBE88:
 944              	.LBE81:
  77:test/../test/Threads_CPP_API_test.hpp ****         }
  78:test/../test/Threads_CPP_API_test.hpp ****     }
  79:test/../test/Threads_CPP_API_test.hpp ****     printString("B finished!\n");
 945              		.loc 1 79 5 is_stmt 1
 946              		.loc 1 79 16 is_stmt 0
 947 01d8 17050000 		lla	a0,.LC4
 947      13050500 
 948 01e0 97000000 		call	_Z11printStringPKc@plt
 948      E7800000 
 949              	.LVL86:
  80:test/../test/Threads_CPP_API_test.hpp ****     finishedB = true;
 950              		.loc 1 80 5 is_stmt 1
 951              		.loc 1 80 15 is_stmt 0
 952 01e8 93071000 		li	a5,1
 953 01ec 17070000 		sb	a5,.LANCHOR0+1,a4
GAS LISTING /tmp/ccNEPw55.s 			page 22


 953      2300F700 
  81:test/../test/Threads_CPP_API_test.hpp ****     thread_dispatch();
 954              		.loc 1 81 5 is_stmt 1
 955              		.loc 1 81 20 is_stmt 0
 956 01f4 97000000 		call	thread_dispatch@plt
 956      E7800000 
 957              	.LVL87:
  82:test/../test/Threads_CPP_API_test.hpp **** }
 958              		.loc 1 82 1
 959 01fc 83308101 		ld	ra,24(sp)
 960              		.cfi_restore 1
 961 0200 03340101 		ld	s0,16(sp)
 962              		.cfi_restore 8
 963              		.cfi_def_cfa 2, 32
 964 0204 83348100 		ld	s1,8(sp)
 965              		.cfi_restore 9
 966 0208 03390100 		ld	s2,0(sp)
 967              		.cfi_restore 18
 968              	.LVL88:
 969 020c 13010102 		addi	sp,sp,32
 970              		.cfi_def_cfa_offset 0
 971 0210 67800000 		jr	ra
 972              		.cfi_endproc
 973              	.LFE61:
 975              		.section	.text._ZN7WorkerB3runEv,"axG",@progbits,_ZN7WorkerB3runEv,comdat
 976              		.align	2
 977              		.weak	_ZN7WorkerB3runEv
 979              	_ZN7WorkerB3runEv:
 980              	.LFB51:
  34:test/../test/Threads_CPP_API_test.hpp ****         workerBodyB(nullptr);
 981              		.loc 1 34 10 is_stmt 1
 982              		.cfi_startproc
 983              	.LVL89:
 984 0000 130101FF 		addi	sp,sp,-16
 985              		.cfi_def_cfa_offset 16
 986 0004 23341100 		sd	ra,8(sp)
 987 0008 23308100 		sd	s0,0(sp)
 988              		.cfi_offset 1, -8
 989              		.cfi_offset 8, -16
 990 000c 13040101 		addi	s0,sp,16
 991              		.cfi_def_cfa 8, 0
  35:test/../test/Threads_CPP_API_test.hpp ****     }
 992              		.loc 1 35 9
  35:test/../test/Threads_CPP_API_test.hpp ****     }
 993              		.loc 1 35 20 is_stmt 0
 994 0010 93050000 		li	a1,0
 995 0014 97000000 		call	_ZN7WorkerB11workerBodyBEPv
 995      E7800000 
 996              	.LVL90:
  36:test/../test/Threads_CPP_API_test.hpp **** };
 997              		.loc 1 36 5
 998 001c 83308100 		ld	ra,8(sp)
 999              		.cfi_restore 1
 1000 0020 03340100 		ld	s0,0(sp)
 1001              		.cfi_restore 8
 1002              		.cfi_def_cfa 2, 16
 1003 0024 13010101 		addi	sp,sp,16
GAS LISTING /tmp/ccNEPw55.s 			page 23


 1004              		.cfi_def_cfa_offset 0
 1005 0028 67800000 		jr	ra
 1006              		.cfi_endproc
 1007              	.LFE51:
 1009              		.section	.rodata.str1.8
 1010 0035 000000   		.align	3
 1011              	.LC5:
 1012 0038 433A2069 		.string	"C: i="
 1012      3D00
 1013 003e 0000     		.align	3
 1014              	.LC6:
 1015 0040 433A2064 		.string	"C: dispatch\n"
 1015      69737061 
 1015      7463680A 
 1015      00
 1016 004d 000000   		.align	3
 1017              	.LC7:
 1018 0050 433A2074 		.string	"C: t1="
 1018      313D00
 1019 0057 00       		.align	3
 1020              	.LC8:
 1021 0058 433A2066 		.string	"C: fibonaci="
 1021      69626F6E 
 1021      6163693D 
 1021      00
 1022              		.text
 1023              		.align	2
 1024              		.globl	_ZN7WorkerC11workerBodyCEPv
 1026              	_ZN7WorkerC11workerBodyCEPv:
 1027              	.LFB62:
  83:test/../test/Threads_CPP_API_test.hpp **** 
  84:test/../test/Threads_CPP_API_test.hpp **** void WorkerC::workerBodyC(void *arg) {
 1028              		.loc 1 84 38 is_stmt 1
 1029              		.cfi_startproc
 1030              	.LVL91:
 1031 0214 130101FE 		addi	sp,sp,-32
 1032              		.cfi_def_cfa_offset 32
 1033 0218 233C1100 		sd	ra,24(sp)
 1034 021c 23388100 		sd	s0,16(sp)
 1035 0220 23349100 		sd	s1,8(sp)
 1036 0224 23302101 		sd	s2,0(sp)
 1037              		.cfi_offset 1, -8
 1038              		.cfi_offset 8, -16
 1039              		.cfi_offset 9, -24
 1040              		.cfi_offset 18, -32
 1041 0228 13040102 		addi	s0,sp,32
 1042              		.cfi_def_cfa 8, 0
  85:test/../test/Threads_CPP_API_test.hpp ****     uint8 i = 0;
 1043              		.loc 1 85 5
 1044              	.LVL92:
 1045              		.loc 1 85 11 is_stmt 0
 1046 022c 93040000 		li	s1,0
 1047 0230 6F000004 		j	.L57
 1048              	.LVL93:
 1049              	.L61:
  86:test/../test/Threads_CPP_API_test.hpp ****     for (; i < 3; i++) {
  87:test/../test/Threads_CPP_API_test.hpp ****         printString("C: i="); printInt(i); printString("\n");
GAS LISTING /tmp/ccNEPw55.s 			page 24


 1050              		.loc 1 87 9 is_stmt 1 discriminator 1
 1051              		.loc 1 87 20 is_stmt 0 discriminator 1
 1052 0234 17050000 		lla	a0,.LC5
 1052      13050500 
 1053 023c 97000000 		call	_Z11printStringPKc@plt
 1053      E7800000 
 1054              	.LVL94:
 1055              		.loc 1 87 31 is_stmt 1 discriminator 1
 1056              		.loc 1 87 39 is_stmt 0 discriminator 1
 1057 0244 13060000 		li	a2,0
 1058 0248 9305A000 		li	a1,10
 1059 024c 13850400 		mv	a0,s1
 1060 0250 97000000 		call	_Z8printIntiii@plt
 1060      E7800000 
 1061              	.LVL95:
 1062              		.loc 1 87 44 is_stmt 1 discriminator 1
 1063              		.loc 1 87 55 is_stmt 0 discriminator 1
 1064 0258 17050000 		lla	a0,.LC1
 1064      13050500 
 1065 0260 97000000 		call	_Z11printStringPKc@plt
 1065      E7800000 
 1066              	.LVL96:
  86:test/../test/Threads_CPP_API_test.hpp ****     for (; i < 3; i++) {
 1067              		.loc 1 86 5 is_stmt 1 discriminator 1
 1068 0268 9B841400 		addiw	s1,s1,1
 1069              	.LVL97:
 1070 026c 93F4F40F 		andi	s1,s1,0xff
 1071              	.LVL98:
 1072              	.L57:
  86:test/../test/Threads_CPP_API_test.hpp ****     for (; i < 3; i++) {
 1073              		.loc 1 86 5 discriminator 2
  86:test/../test/Threads_CPP_API_test.hpp ****     for (; i < 3; i++) {
 1074              		.loc 1 86 14 discriminator 2
 1075 0270 93072000 		li	a5,2
 1076 0274 E3F097FC 		bleu	s1,a5,.L61
  88:test/../test/Threads_CPP_API_test.hpp ****     }
  89:test/../test/Threads_CPP_API_test.hpp **** 
  90:test/../test/Threads_CPP_API_test.hpp ****     printString("C: dispatch\n");
 1077              		.loc 1 90 5
 1078              		.loc 1 90 16 is_stmt 0
 1079 0278 17050000 		lla	a0,.LC6
 1079      13050500 
 1080 0280 97000000 		call	_Z11printStringPKc@plt
 1080      E7800000 
 1081              	.LVL99:
  91:test/../test/Threads_CPP_API_test.hpp ****     __asm__ ("li t1, 7");
 1082              		.loc 1 91 5 is_stmt 1
 1083              		.loc 1 91 25 is_stmt 0
 1084              	#APP
 1085              	# 91 "test/../test/Threads_CPP_API_test.hpp" 1
  92              	    thread_dispatch();
 1086              		li t1, 7
 1087              	# 0 "" 2
 1088              		.loc 1 92 5 is_stmt 1
 1089              		.loc 1 92 20 is_stmt 0
 1090              	#NO_APP
 1091 028c 97000000 		call	thread_dispatch@plt
GAS LISTING /tmp/ccNEPw55.s 			page 25


 1091      E7800000 
 1092              	.LVL100:
  93:test/../test/Threads_CPP_API_test.hpp **** 
  94:test/../test/Threads_CPP_API_test.hpp ****     uint64 t1 = 0;
 1093              		.loc 1 94 5 is_stmt 1
  95:test/../test/Threads_CPP_API_test.hpp ****     __asm__ ("mv %[t1], t1" : [t1] "=r"(t1));
 1094              		.loc 1 95 5
 1095              		.loc 1 95 45 is_stmt 0
 1096              	#APP
 1097              	# 95 "test/../test/Threads_CPP_API_test.hpp" 1
  96              	
 1098              		mv s2, t1
 1099              	# 0 "" 2
 1100              	.LVL101:
  97:test/../test/Threads_CPP_API_test.hpp ****     printString("C: t1="); printInt(t1); printString("\n");
 1101              		.loc 1 97 5 is_stmt 1
 1102              		.loc 1 97 16 is_stmt 0
 1103              	#NO_APP
 1104 0298 17050000 		lla	a0,.LC7
 1104      13050500 
 1105 02a0 97000000 		call	_Z11printStringPKc@plt
 1105      E7800000 
 1106              	.LVL102:
 1107              		.loc 1 97 28 is_stmt 1
 1108              		.loc 1 97 36 is_stmt 0
 1109 02a8 13060000 		li	a2,0
 1110 02ac 9305A000 		li	a1,10
 1111 02b0 1B050900 		sext.w	a0,s2
 1112 02b4 97000000 		call	_Z8printIntiii@plt
 1112      E7800000 
 1113              	.LVL103:
 1114              		.loc 1 97 42 is_stmt 1
 1115              		.loc 1 97 53 is_stmt 0
 1116 02bc 17050000 		lla	a0,.LC1
 1116      13050500 
 1117 02c4 97000000 		call	_Z11printStringPKc@plt
 1117      E7800000 
 1118              	.LVL104:
  98:test/../test/Threads_CPP_API_test.hpp **** 
  99:test/../test/Threads_CPP_API_test.hpp ****     uint64 result = fibonacci(12);
 1119              		.loc 1 99 5 is_stmt 1
 1120              		.loc 1 99 30 is_stmt 0
 1121 02cc 1305C000 		li	a0,12
 1122 02d0 97000000 		call	_Z9fibonaccim
 1122      E7800000 
 1123              	.LVL105:
 1124 02d8 13090500 		mv	s2,a0
 1125              	.LVL106:
 100:test/../test/Threads_CPP_API_test.hpp ****     printString("C: fibonaci="); printInt(result); printString("\n");
 1126              		.loc 1 100 5 is_stmt 1
 1127              		.loc 1 100 16 is_stmt 0
 1128 02dc 17050000 		lla	a0,.LC8
 1128      13050500 
 1129              	.LVL107:
 1130 02e4 97000000 		call	_Z11printStringPKc@plt
 1130      E7800000 
 1131              	.LVL108:
GAS LISTING /tmp/ccNEPw55.s 			page 26


 1132              		.loc 1 100 34 is_stmt 1
 1133              		.loc 1 100 42 is_stmt 0
 1134 02ec 13060000 		li	a2,0
 1135 02f0 9305A000 		li	a1,10
 1136 02f4 1B050900 		sext.w	a0,s2
 1137 02f8 97000000 		call	_Z8printIntiii@plt
 1137      E7800000 
 1138              	.LVL109:
 1139              		.loc 1 100 52 is_stmt 1
 1140              		.loc 1 100 63 is_stmt 0
 1141 0300 17050000 		lla	a0,.LC1
 1141      13050500 
 1142 0308 97000000 		call	_Z11printStringPKc@plt
 1142      E7800000 
 1143              	.LVL110:
 1144 0310 6F000004 		j	.L59
 1145              	.L62:
 101:test/../test/Threads_CPP_API_test.hpp **** 
 102:test/../test/Threads_CPP_API_test.hpp ****     for (; i < 6; i++) {
 103:test/../test/Threads_CPP_API_test.hpp ****         printString("C: i="); printInt(i); printString("\n");
 1146              		.loc 1 103 9 is_stmt 1 discriminator 1
 1147              		.loc 1 103 20 is_stmt 0 discriminator 1
 1148 0314 17050000 		lla	a0,.LC5
 1148      13050500 
 1149 031c 97000000 		call	_Z11printStringPKc@plt
 1149      E7800000 
 1150              	.LVL111:
 1151              		.loc 1 103 31 is_stmt 1 discriminator 1
 1152              		.loc 1 103 39 is_stmt 0 discriminator 1
 1153 0324 13060000 		li	a2,0
 1154 0328 9305A000 		li	a1,10
 1155 032c 13850400 		mv	a0,s1
 1156 0330 97000000 		call	_Z8printIntiii@plt
 1156      E7800000 
 1157              	.LVL112:
 1158              		.loc 1 103 44 is_stmt 1 discriminator 1
 1159              		.loc 1 103 55 is_stmt 0 discriminator 1
 1160 0338 17050000 		lla	a0,.LC1
 1160      13050500 
 1161 0340 97000000 		call	_Z11printStringPKc@plt
 1161      E7800000 
 1162              	.LVL113:
 102:test/../test/Threads_CPP_API_test.hpp ****         printString("C: i="); printInt(i); printString("\n");
 1163              		.loc 1 102 5 is_stmt 1 discriminator 1
 1164 0348 9B841400 		addiw	s1,s1,1
 1165              	.LVL114:
 1166 034c 93F4F40F 		andi	s1,s1,0xff
 1167              	.LVL115:
 1168              	.L59:
 102:test/../test/Threads_CPP_API_test.hpp ****         printString("C: i="); printInt(i); printString("\n");
 1169              		.loc 1 102 5 discriminator 2
 102:test/../test/Threads_CPP_API_test.hpp ****         printString("C: i="); printInt(i); printString("\n");
 1170              		.loc 1 102 14 discriminator 2
 1171 0350 93075000 		li	a5,5
 1172 0354 E3F097FC 		bleu	s1,a5,.L62
 104:test/../test/Threads_CPP_API_test.hpp ****     }
 105:test/../test/Threads_CPP_API_test.hpp **** 
GAS LISTING /tmp/ccNEPw55.s 			page 27


 106:test/../test/Threads_CPP_API_test.hpp ****     printString("A finished!\n");
 1173              		.loc 1 106 5
 1174              		.loc 1 106 16 is_stmt 0
 1175 0358 17050000 		lla	a0,.LC2
 1175      13050500 
 1176 0360 97000000 		call	_Z11printStringPKc@plt
 1176      E7800000 
 1177              	.LVL116:
 107:test/../test/Threads_CPP_API_test.hpp ****     finishedC = true;
 1178              		.loc 1 107 5 is_stmt 1
 1179              		.loc 1 107 15 is_stmt 0
 1180 0368 93071000 		li	a5,1
 1181 036c 17070000 		sb	a5,.LANCHOR0+2,a4
 1181      2300F700 
 108:test/../test/Threads_CPP_API_test.hpp ****     thread_dispatch();
 1182              		.loc 1 108 5 is_stmt 1
 1183              		.loc 1 108 20 is_stmt 0
 1184 0374 97000000 		call	thread_dispatch@plt
 1184      E7800000 
 1185              	.LVL117:
 109:test/../test/Threads_CPP_API_test.hpp **** }
 1186              		.loc 1 109 1
 1187 037c 83308101 		ld	ra,24(sp)
 1188              		.cfi_restore 1
 1189 0380 03340101 		ld	s0,16(sp)
 1190              		.cfi_restore 8
 1191              		.cfi_def_cfa 2, 32
 1192 0384 83348100 		ld	s1,8(sp)
 1193              		.cfi_restore 9
 1194              	.LVL118:
 1195 0388 03390100 		ld	s2,0(sp)
 1196              		.cfi_restore 18
 1197              	.LVL119:
 1198 038c 13010102 		addi	sp,sp,32
 1199              		.cfi_def_cfa_offset 0
 1200 0390 67800000 		jr	ra
 1201              		.cfi_endproc
 1202              	.LFE62:
 1204              		.section	.text._ZN7WorkerC3runEv,"axG",@progbits,_ZN7WorkerC3runEv,comdat
 1205              		.align	2
 1206              		.weak	_ZN7WorkerC3runEv
 1208              	_ZN7WorkerC3runEv:
 1209              	.LFB55:
  44:test/../test/Threads_CPP_API_test.hpp ****         workerBodyC(nullptr);
 1210              		.loc 1 44 10 is_stmt 1
 1211              		.cfi_startproc
 1212              	.LVL120:
 1213 0000 130101FF 		addi	sp,sp,-16
 1214              		.cfi_def_cfa_offset 16
 1215 0004 23341100 		sd	ra,8(sp)
 1216 0008 23308100 		sd	s0,0(sp)
 1217              		.cfi_offset 1, -8
 1218              		.cfi_offset 8, -16
 1219 000c 13040101 		addi	s0,sp,16
 1220              		.cfi_def_cfa 8, 0
  45:test/../test/Threads_CPP_API_test.hpp ****     }
 1221              		.loc 1 45 9
GAS LISTING /tmp/ccNEPw55.s 			page 28


  45:test/../test/Threads_CPP_API_test.hpp ****     }
 1222              		.loc 1 45 20 is_stmt 0
 1223 0010 93050000 		li	a1,0
 1224 0014 97000000 		call	_ZN7WorkerC11workerBodyCEPv
 1224      E7800000 
 1225              	.LVL121:
  46:test/../test/Threads_CPP_API_test.hpp **** };
 1226              		.loc 1 46 5
 1227 001c 83308100 		ld	ra,8(sp)
 1228              		.cfi_restore 1
 1229 0020 03340100 		ld	s0,0(sp)
 1230              		.cfi_restore 8
 1231              		.cfi_def_cfa 2, 16
 1232 0024 13010101 		addi	sp,sp,16
 1233              		.cfi_def_cfa_offset 0
 1234 0028 67800000 		jr	ra
 1235              		.cfi_endproc
 1236              	.LFE55:
 1238              		.section	.rodata.str1.8
 1239 0065 000000   		.align	3
 1240              	.LC9:
 1241 0068 443A2069 		.string	"D: i="
 1241      3D00
 1242 006e 0000     		.align	3
 1243              	.LC10:
 1244 0070 443A2064 		.string	"D: dispatch\n"
 1244      69737061 
 1244      7463680A 
 1244      00
 1245 007d 000000   		.align	3
 1246              	.LC11:
 1247 0080 443A2066 		.string	"D: fibonaci="
 1247      69626F6E 
 1247      6163693D 
 1247      00
 1248 008d 000000   		.align	3
 1249              	.LC12:
 1250 0090 44206669 		.string	"D finished!\n"
 1250      6E697368 
 1250      6564210A 
 1250      00
 1251              		.text
 1252              		.align	2
 1253              		.globl	_ZN7WorkerD11workerBodyDEPv
 1255              	_ZN7WorkerD11workerBodyDEPv:
 1256              	.LFB63:
 110:test/../test/Threads_CPP_API_test.hpp **** 
 111:test/../test/Threads_CPP_API_test.hpp **** void WorkerD::workerBodyD(void* arg) {
 1257              		.loc 1 111 38 is_stmt 1
 1258              		.cfi_startproc
 1259              	.LVL122:
 1260 0394 130101FE 		addi	sp,sp,-32
 1261              		.cfi_def_cfa_offset 32
 1262 0398 233C1100 		sd	ra,24(sp)
 1263 039c 23388100 		sd	s0,16(sp)
 1264 03a0 23349100 		sd	s1,8(sp)
 1265 03a4 23302101 		sd	s2,0(sp)
GAS LISTING /tmp/ccNEPw55.s 			page 29


 1266              		.cfi_offset 1, -8
 1267              		.cfi_offset 8, -16
 1268              		.cfi_offset 9, -24
 1269              		.cfi_offset 18, -32
 1270 03a8 13040102 		addi	s0,sp,32
 1271              		.cfi_def_cfa 8, 0
 112:test/../test/Threads_CPP_API_test.hpp ****     uint8 i = 10;
 1272              		.loc 1 112 5
 1273              	.LVL123:
 1274              		.loc 1 112 11 is_stmt 0
 1275 03ac 9304A000 		li	s1,10
 1276 03b0 6F000004 		j	.L67
 1277              	.LVL124:
 1278              	.L71:
 113:test/../test/Threads_CPP_API_test.hpp ****     for (; i < 13; i++) {
 114:test/../test/Threads_CPP_API_test.hpp ****         printString("D: i="); printInt(i); printString("\n");
 1279              		.loc 1 114 9 is_stmt 1 discriminator 1
 1280              		.loc 1 114 20 is_stmt 0 discriminator 1
 1281 03b4 17050000 		lla	a0,.LC9
 1281      13050500 
 1282 03bc 97000000 		call	_Z11printStringPKc@plt
 1282      E7800000 
 1283              	.LVL125:
 1284              		.loc 1 114 31 is_stmt 1 discriminator 1
 1285              		.loc 1 114 39 is_stmt 0 discriminator 1
 1286 03c4 13060000 		li	a2,0
 1287 03c8 9305A000 		li	a1,10
 1288 03cc 13850400 		mv	a0,s1
 1289 03d0 97000000 		call	_Z8printIntiii@plt
 1289      E7800000 
 1290              	.LVL126:
 1291              		.loc 1 114 44 is_stmt 1 discriminator 1
 1292              		.loc 1 114 55 is_stmt 0 discriminator 1
 1293 03d8 17050000 		lla	a0,.LC1
 1293      13050500 
 1294 03e0 97000000 		call	_Z11printStringPKc@plt
 1294      E7800000 
 1295              	.LVL127:
 113:test/../test/Threads_CPP_API_test.hpp ****     for (; i < 13; i++) {
 1296              		.loc 1 113 5 is_stmt 1 discriminator 1
 1297 03e8 9B841400 		addiw	s1,s1,1
 1298              	.LVL128:
 1299 03ec 93F4F40F 		andi	s1,s1,0xff
 1300              	.LVL129:
 1301              	.L67:
 113:test/../test/Threads_CPP_API_test.hpp ****     for (; i < 13; i++) {
 1302              		.loc 1 113 5 discriminator 2
 113:test/../test/Threads_CPP_API_test.hpp ****     for (; i < 13; i++) {
 1303              		.loc 1 113 14 discriminator 2
 1304 03f0 9307C000 		li	a5,12
 1305 03f4 E3F097FC 		bleu	s1,a5,.L71
 115:test/../test/Threads_CPP_API_test.hpp ****     }
 116:test/../test/Threads_CPP_API_test.hpp **** 
 117:test/../test/Threads_CPP_API_test.hpp ****     printString("D: dispatch\n");
 1306              		.loc 1 117 5
 1307              		.loc 1 117 16 is_stmt 0
 1308 03f8 17050000 		lla	a0,.LC10
GAS LISTING /tmp/ccNEPw55.s 			page 30


 1308      13050500 
 1309 0400 97000000 		call	_Z11printStringPKc@plt
 1309      E7800000 
 1310              	.LVL130:
 118:test/../test/Threads_CPP_API_test.hpp ****     __asm__ ("li t1, 5");
 1311              		.loc 1 118 5 is_stmt 1
 1312              		.loc 1 118 25 is_stmt 0
 1313              	#APP
 1314              	# 118 "test/../test/Threads_CPP_API_test.hpp" 1
 119              	    thread_dispatch();
 1315              		li t1, 5
 1316              	# 0 "" 2
 1317              		.loc 1 119 5 is_stmt 1
 1318              		.loc 1 119 20 is_stmt 0
 1319              	#NO_APP
 1320 040c 97000000 		call	thread_dispatch@plt
 1320      E7800000 
 1321              	.LVL131:
 120:test/../test/Threads_CPP_API_test.hpp **** 
 121:test/../test/Threads_CPP_API_test.hpp ****     uint64 result = fibonacci(16);
 1322              		.loc 1 121 5 is_stmt 1
 1323              		.loc 1 121 30 is_stmt 0
 1324 0414 13050001 		li	a0,16
 1325 0418 97000000 		call	_Z9fibonaccim
 1325      E7800000 
 1326              	.LVL132:
 1327 0420 13090500 		mv	s2,a0
 1328              	.LVL133:
 122:test/../test/Threads_CPP_API_test.hpp ****     printString("D: fibonaci="); printInt(result); printString("\n");
 1329              		.loc 1 122 5 is_stmt 1
 1330              		.loc 1 122 16 is_stmt 0
 1331 0424 17050000 		lla	a0,.LC11
 1331      13050500 
 1332              	.LVL134:
 1333 042c 97000000 		call	_Z11printStringPKc@plt
 1333      E7800000 
 1334              	.LVL135:
 1335              		.loc 1 122 34 is_stmt 1
 1336              		.loc 1 122 42 is_stmt 0
 1337 0434 13060000 		li	a2,0
 1338 0438 9305A000 		li	a1,10
 1339 043c 1B050900 		sext.w	a0,s2
 1340 0440 97000000 		call	_Z8printIntiii@plt
 1340      E7800000 
 1341              	.LVL136:
 1342              		.loc 1 122 52 is_stmt 1
 1343              		.loc 1 122 63 is_stmt 0
 1344 0448 17050000 		lla	a0,.LC1
 1344      13050500 
 1345 0450 97000000 		call	_Z11printStringPKc@plt
 1345      E7800000 
 1346              	.LVL137:
 1347 0458 6F000004 		j	.L69
 1348              	.L72:
 123:test/../test/Threads_CPP_API_test.hpp **** 
 124:test/../test/Threads_CPP_API_test.hpp ****     for (; i < 16; i++) {
 125:test/../test/Threads_CPP_API_test.hpp ****         printString("D: i="); printInt(i); printString("\n");
GAS LISTING /tmp/ccNEPw55.s 			page 31


 1349              		.loc 1 125 9 is_stmt 1 discriminator 1
 1350              		.loc 1 125 20 is_stmt 0 discriminator 1
 1351 045c 17050000 		lla	a0,.LC9
 1351      13050500 
 1352 0464 97000000 		call	_Z11printStringPKc@plt
 1352      E7800000 
 1353              	.LVL138:
 1354              		.loc 1 125 31 is_stmt 1 discriminator 1
 1355              		.loc 1 125 39 is_stmt 0 discriminator 1
 1356 046c 13060000 		li	a2,0
 1357 0470 9305A000 		li	a1,10
 1358 0474 13850400 		mv	a0,s1
 1359 0478 97000000 		call	_Z8printIntiii@plt
 1359      E7800000 
 1360              	.LVL139:
 1361              		.loc 1 125 44 is_stmt 1 discriminator 1
 1362              		.loc 1 125 55 is_stmt 0 discriminator 1
 1363 0480 17050000 		lla	a0,.LC1
 1363      13050500 
 1364 0488 97000000 		call	_Z11printStringPKc@plt
 1364      E7800000 
 1365              	.LVL140:
 124:test/../test/Threads_CPP_API_test.hpp ****         printString("D: i="); printInt(i); printString("\n");
 1366              		.loc 1 124 5 is_stmt 1 discriminator 1
 1367 0490 9B841400 		addiw	s1,s1,1
 1368              	.LVL141:
 1369 0494 93F4F40F 		andi	s1,s1,0xff
 1370              	.LVL142:
 1371              	.L69:
 124:test/../test/Threads_CPP_API_test.hpp ****         printString("D: i="); printInt(i); printString("\n");
 1372              		.loc 1 124 5 discriminator 2
 124:test/../test/Threads_CPP_API_test.hpp ****         printString("D: i="); printInt(i); printString("\n");
 1373              		.loc 1 124 14 discriminator 2
 1374 0498 9307F000 		li	a5,15
 1375 049c E3F097FC 		bleu	s1,a5,.L72
 126:test/../test/Threads_CPP_API_test.hpp ****     }
 127:test/../test/Threads_CPP_API_test.hpp **** 
 128:test/../test/Threads_CPP_API_test.hpp ****     printString("D finished!\n");
 1376              		.loc 1 128 5
 1377              		.loc 1 128 16 is_stmt 0
 1378 04a0 17050000 		lla	a0,.LC12
 1378      13050500 
 1379 04a8 97000000 		call	_Z11printStringPKc@plt
 1379      E7800000 
 1380              	.LVL143:
 129:test/../test/Threads_CPP_API_test.hpp ****     finishedD = true;
 1381              		.loc 1 129 5 is_stmt 1
 1382              		.loc 1 129 15 is_stmt 0
 1383 04b0 93071000 		li	a5,1
 1384 04b4 17070000 		sb	a5,.LANCHOR0+3,a4
 1384      2300F700 
 130:test/../test/Threads_CPP_API_test.hpp ****     thread_dispatch();
 1385              		.loc 1 130 5 is_stmt 1
 1386              		.loc 1 130 20 is_stmt 0
 1387 04bc 97000000 		call	thread_dispatch@plt
 1387      E7800000 
 1388              	.LVL144:
GAS LISTING /tmp/ccNEPw55.s 			page 32


 131:test/../test/Threads_CPP_API_test.hpp **** }
 1389              		.loc 1 131 1
 1390 04c4 83308101 		ld	ra,24(sp)
 1391              		.cfi_restore 1
 1392 04c8 03340101 		ld	s0,16(sp)
 1393              		.cfi_restore 8
 1394              		.cfi_def_cfa 2, 32
 1395 04cc 83348100 		ld	s1,8(sp)
 1396              		.cfi_restore 9
 1397              	.LVL145:
 1398 04d0 03390100 		ld	s2,0(sp)
 1399              		.cfi_restore 18
 1400              	.LVL146:
 1401 04d4 13010102 		addi	sp,sp,32
 1402              		.cfi_def_cfa_offset 0
 1403 04d8 67800000 		jr	ra
 1404              		.cfi_endproc
 1405              	.LFE63:
 1407              		.section	.text._ZN7WorkerD3runEv,"axG",@progbits,_ZN7WorkerD3runEv,comdat
 1408              		.align	2
 1409              		.weak	_ZN7WorkerD3runEv
 1411              	_ZN7WorkerD3runEv:
 1412              	.LFB59:
  54:test/../test/Threads_CPP_API_test.hpp ****         workerBodyD(nullptr);
 1413              		.loc 1 54 10 is_stmt 1
 1414              		.cfi_startproc
 1415              	.LVL147:
 1416 0000 130101FF 		addi	sp,sp,-16
 1417              		.cfi_def_cfa_offset 16
 1418 0004 23341100 		sd	ra,8(sp)
 1419 0008 23308100 		sd	s0,0(sp)
 1420              		.cfi_offset 1, -8
 1421              		.cfi_offset 8, -16
 1422 000c 13040101 		addi	s0,sp,16
 1423              		.cfi_def_cfa 8, 0
  55:test/../test/Threads_CPP_API_test.hpp ****     }
 1424              		.loc 1 55 9
  55:test/../test/Threads_CPP_API_test.hpp ****     }
 1425              		.loc 1 55 20 is_stmt 0
 1426 0010 93050000 		li	a1,0
 1427 0014 97000000 		call	_ZN7WorkerD11workerBodyDEPv
 1427      E7800000 
 1428              	.LVL148:
  56:test/../test/Threads_CPP_API_test.hpp **** };
 1429              		.loc 1 56 5
 1430 001c 83308100 		ld	ra,8(sp)
 1431              		.cfi_restore 1
 1432 0020 03340100 		ld	s0,0(sp)
 1433              		.cfi_restore 8
 1434              		.cfi_def_cfa 2, 16
 1435 0024 13010101 		addi	sp,sp,16
 1436              		.cfi_def_cfa_offset 0
 1437 0028 67800000 		jr	ra
 1438              		.cfi_endproc
 1439              	.LFE59:
 1441              		.section	.rodata.str1.8
 1442 009d 000000   		.align	3
GAS LISTING /tmp/ccNEPw55.s 			page 33


 1443              	.LC13:
 1444 00a0 54687265 		.string	"ThreadA created\n"
 1444      61644120 
 1444      63726561 
 1444      7465640A 
 1444      00
 1445 00b1 00000000 		.align	3
 1445      000000
 1446              	.LC14:
 1447 00b8 54687265 		.string	"ThreadB created\n"
 1447      61644220 
 1447      63726561 
 1447      7465640A 
 1447      00
 1448 00c9 00000000 		.align	3
 1448      000000
 1449              	.LC15:
 1450 00d0 54687265 		.string	"ThreadC created\n"
 1450      61644320 
 1450      63726561 
 1450      7465640A 
 1450      00
 1451 00e1 00000000 		.align	3
 1451      000000
 1452              	.LC16:
 1453 00e8 54687265 		.string	"ThreadD created\n"
 1453      61644420 
 1453      63726561 
 1453      7465640A 
 1453      00
 1454              		.text
 1455              		.align	2
 1456              		.globl	_Z20Threads_CPP_API_testv
 1458              	_Z20Threads_CPP_API_testv:
 1459              	.LFB64:
 132:test/../test/Threads_CPP_API_test.hpp **** 
 133:test/../test/Threads_CPP_API_test.hpp **** 
 134:test/../test/Threads_CPP_API_test.hpp **** void Threads_CPP_API_test() {
 1460              		.loc 1 134 29 is_stmt 1
 1461              		.cfi_startproc
 1462              		.cfi_personality 0x9b,DW.ref.__gxx_personality_v0
 1463              		.cfi_lsda 0x1b,.LLSDA64
 1464 04dc 130101FC 		addi	sp,sp,-64
 1465              		.cfi_def_cfa_offset 64
 1466 04e0 233C1102 		sd	ra,56(sp)
 1467 04e4 23388102 		sd	s0,48(sp)
 1468 04e8 23349102 		sd	s1,40(sp)
 1469 04ec 23302103 		sd	s2,32(sp)
 1470              		.cfi_offset 1, -8
 1471              		.cfi_offset 8, -16
 1472              		.cfi_offset 9, -24
 1473              		.cfi_offset 18, -32
 1474 04f0 13040104 		addi	s0,sp,64
 1475              		.cfi_def_cfa 8, 0
 135:test/../test/Threads_CPP_API_test.hpp ****     Thread* threads[4];
 1476              		.loc 1 135 5
 136:test/../test/Threads_CPP_API_test.hpp **** 
GAS LISTING /tmp/ccNEPw55.s 			page 34


 137:test/../test/Threads_CPP_API_test.hpp ****     threads[0] = new WorkerA();
 1477              		.loc 1 137 5
 1478              		.loc 1 137 30 is_stmt 0
 1479 04f4 13050001 		li	a0,16
 1480              	.LEHB0:
 1481 04f8 97000000 		call	_Znwm@plt
 1481      E7800000 
 1482              	.LVL149:
 1483              	.LEHE0:
 1484 0500 93040500 		mv	s1,a0
 1485              	.LVL150:
 1486              	.LEHB1:
 1487              	.LBB89:
 1488              	.LBB90:
  22:test/../test/Threads_CPP_API_test.hpp **** 
 1489              		.loc 1 22 22
 1490 0504 97000000 		call	_ZN6ThreadC2Ev@plt
 1490      E7800000 
 1491              	.LVL151:
 1492              	.LEHE1:
 1493 050c 97070000 		lla	a5,_ZTV7WorkerA+16
 1493      93870700 
 1494 0514 23B0F400 		sd	a5,0(s1)
 1495              	.LVL152:
 1496              	.LBE90:
 1497              	.LBE89:
 1498              		.loc 1 137 16
 1499 0518 233094FC 		sd	s1,-64(s0)
 138:test/../test/Threads_CPP_API_test.hpp ****     printString("ThreadA created\n");
 1500              		.loc 1 138 5 is_stmt 1
 1501              		.loc 1 138 16 is_stmt 0
 1502 051c 17050000 		lla	a0,.LC13
 1502      13050500 
 1503              	.LEHB2:
 1504 0524 97000000 		call	_Z11printStringPKc@plt
 1504      E7800000 
 1505              	.LVL153:
 139:test/../test/Threads_CPP_API_test.hpp **** 
 140:test/../test/Threads_CPP_API_test.hpp ****     threads[1] = new WorkerB();
 1506              		.loc 1 140 5 is_stmt 1
 1507              		.loc 1 140 30 is_stmt 0
 1508 052c 13050001 		li	a0,16
 1509 0530 97000000 		call	_Znwm@plt
 1509      E7800000 
 1510              	.LVL154:
 1511              	.LEHE2:
 1512 0538 93040500 		mv	s1,a0
 1513              	.LVL155:
 1514              	.LEHB3:
 1515              	.LBB91:
 1516              	.LBB92:
  32:test/../test/Threads_CPP_API_test.hpp **** 
 1517              		.loc 1 32 22
 1518 053c 97000000 		call	_ZN6ThreadC2Ev@plt
 1518      E7800000 
 1519              	.LVL156:
 1520              	.LEHE3:
GAS LISTING /tmp/ccNEPw55.s 			page 35


 1521 0544 97070000 		lla	a5,_ZTV7WorkerB+16
 1521      93870700 
 1522 054c 23B0F400 		sd	a5,0(s1)
 1523              	.LVL157:
 1524              	.LBE92:
 1525              	.LBE91:
 1526              		.loc 1 140 16
 1527 0550 233494FC 		sd	s1,-56(s0)
 141:test/../test/Threads_CPP_API_test.hpp ****     printString("ThreadB created\n");
 1528              		.loc 1 141 5 is_stmt 1
 1529              		.loc 1 141 16 is_stmt 0
 1530 0554 17050000 		lla	a0,.LC14
 1530      13050500 
 1531              	.LEHB4:
 1532 055c 97000000 		call	_Z11printStringPKc@plt
 1532      E7800000 
 1533              	.LVL158:
 142:test/../test/Threads_CPP_API_test.hpp **** 
 143:test/../test/Threads_CPP_API_test.hpp ****     threads[2] = new WorkerC();
 1534              		.loc 1 143 5 is_stmt 1
 1535              		.loc 1 143 30 is_stmt 0
 1536 0564 13050001 		li	a0,16
 1537 0568 97000000 		call	_Znwm@plt
 1537      E7800000 
 1538              	.LVL159:
 1539              	.LEHE4:
 1540 0570 93040500 		mv	s1,a0
 1541              	.LVL160:
 1542              	.LEHB5:
 1543              	.LBB93:
 1544              	.LBB94:
  42:test/../test/Threads_CPP_API_test.hpp **** 
 1545              		.loc 1 42 22
 1546 0574 97000000 		call	_ZN6ThreadC2Ev@plt
 1546      E7800000 
 1547              	.LVL161:
 1548              	.LEHE5:
 1549 057c 97070000 		lla	a5,_ZTV7WorkerC+16
 1549      93870700 
 1550 0584 23B0F400 		sd	a5,0(s1)
 1551              	.LVL162:
 1552              	.LBE94:
 1553              	.LBE93:
 1554              		.loc 1 143 16
 1555 0588 233894FC 		sd	s1,-48(s0)
 144:test/../test/Threads_CPP_API_test.hpp ****     printString("ThreadC created\n");
 1556              		.loc 1 144 5 is_stmt 1
 1557              		.loc 1 144 16 is_stmt 0
 1558 058c 17050000 		lla	a0,.LC15
 1558      13050500 
 1559              	.LEHB6:
 1560 0594 97000000 		call	_Z11printStringPKc@plt
 1560      E7800000 
 1561              	.LVL163:
 145:test/../test/Threads_CPP_API_test.hpp **** 
 146:test/../test/Threads_CPP_API_test.hpp ****     threads[3] = new WorkerD();
 1562              		.loc 1 146 5 is_stmt 1
GAS LISTING /tmp/ccNEPw55.s 			page 36


 1563              		.loc 1 146 30 is_stmt 0
 1564 059c 13050001 		li	a0,16
 1565 05a0 97000000 		call	_Znwm@plt
 1565      E7800000 
 1566              	.LVL164:
 1567              	.LEHE6:
 1568 05a8 93040500 		mv	s1,a0
 1569              	.LVL165:
 1570              	.LEHB7:
 1571              	.LBB95:
 1572              	.LBB96:
  52:test/../test/Threads_CPP_API_test.hpp **** 
 1573              		.loc 1 52 22
 1574 05ac 97000000 		call	_ZN6ThreadC2Ev@plt
 1574      E7800000 
 1575              	.LVL166:
 1576              	.LEHE7:
 1577 05b4 97070000 		lla	a5,_ZTV7WorkerD+16
 1577      93870700 
 1578 05bc 23B0F400 		sd	a5,0(s1)
 1579              	.LVL167:
 1580              	.LBE96:
 1581              	.LBE95:
 1582              		.loc 1 146 16
 1583 05c0 233C94FC 		sd	s1,-40(s0)
 147:test/../test/Threads_CPP_API_test.hpp ****     printString("ThreadD created\n");
 1584              		.loc 1 147 5 is_stmt 1
 1585              		.loc 1 147 16 is_stmt 0
 1586 05c4 17050000 		lla	a0,.LC16
 1586      13050500 
 1587              	.LEHB8:
 1588 05cc 97000000 		call	_Z11printStringPKc@plt
 1588      E7800000 
 1589              	.LVL168:
 1590              	.LBB97:
 148:test/../test/Threads_CPP_API_test.hpp **** 
 149:test/../test/Threads_CPP_API_test.hpp ****     for(int i=0; i<4; i++) {
 1591              		.loc 1 149 13
 1592 05d4 93040000 		li	s1,0
 1593              	.L77:
 1594              	.LVL169:
 1595              		.loc 1 149 19 is_stmt 1 discriminator 1
 1596 05d8 93073000 		li	a5,3
 1597 05dc 63C69702 		bgt	s1,a5,.L76
 150:test/../test/Threads_CPP_API_test.hpp ****         threads[i]->start();
 1598              		.loc 1 150 9
 1599              		.loc 1 150 18 is_stmt 0
 1600 05e0 93973400 		slli	a5,s1,3
 1601 05e4 130704FE 		addi	a4,s0,-32
 1602 05e8 B307F700 		add	a5,a4,a5
 1603              		.loc 1 150 26
 1604 05ec 03B507FE 		ld	a0,-32(a5)
 1605 05f0 97000000 		call	_ZN6Thread5startEv@plt
 1605      E7800000 
 1606              	.LVL170:
 149:test/../test/Threads_CPP_API_test.hpp ****         threads[i]->start();
 1607              		.loc 1 149 5 is_stmt 1
GAS LISTING /tmp/ccNEPw55.s 			page 37


 1608 05f8 9B841400 		addiw	s1,s1,1
 1609              	.LVL171:
 1610 05fc 6FF0DFFD 		j	.L77
 1611              	.LVL172:
 1612              	.L78:
 1613              	.LBE97:
 151:test/../test/Threads_CPP_API_test.hpp ****     }
 152:test/../test/Threads_CPP_API_test.hpp **** 
 153:test/../test/Threads_CPP_API_test.hpp ****     while (!(finishedA && finishedB && finishedC && finishedD)) {
 154:test/../test/Threads_CPP_API_test.hpp ****         Thread::dispatch();
 1614              		.loc 1 154 9
 1615              		.loc 1 154 25 is_stmt 0
 1616 0600 97000000 		call	_ZN6Thread8dispatchEv@plt
 1616      E7800000 
 1617              	.LVL173:
 1618              	.LEHE8:
 1619              	.L76:
 153:test/../test/Threads_CPP_API_test.hpp ****         Thread::dispatch();
 1620              		.loc 1 153 5 is_stmt 1
 153:test/../test/Threads_CPP_API_test.hpp ****         Thread::dispatch();
 1621              		.loc 1 153 12
 1622 0608 97070000 		lbu	a5,.LANCHOR0
 1622      83C70700 
 1623 0610 E38807FE 		beqz	a5,.L78
 153:test/../test/Threads_CPP_API_test.hpp ****         Thread::dispatch();
 1624              		.loc 1 153 24 is_stmt 0 discriminator 1
 1625 0614 97070000 		lbu	a5,.LANCHOR0+1
 1625      83C70700 
 1626 061c E38207FE 		beqz	a5,.L78
 153:test/../test/Threads_CPP_API_test.hpp ****         Thread::dispatch();
 1627              		.loc 1 153 37 discriminator 2
 1628 0620 97070000 		lbu	a5,.LANCHOR0+2
 1628      83C70700 
 1629 0628 E38C07FC 		beqz	a5,.L78
 153:test/../test/Threads_CPP_API_test.hpp ****         Thread::dispatch();
 1630              		.loc 1 153 12 discriminator 3
 1631 062c 97070000 		lbu	a5,.LANCHOR0+3
 1631      83C70700 
 1632 0634 E38607FC 		beqz	a5,.L78
 1633              	.LBB98:
 155:test/../test/Threads_CPP_API_test.hpp ****     }
 156:test/../test/Threads_CPP_API_test.hpp **** 
 157:test/../test/Threads_CPP_API_test.hpp ****     for (auto thread: threads) { delete thread; }
 1634              		.loc 1 157 23
 1635 0638 930404FC 		addi	s1,s0,-64
 1636              	.LVL174:
 1637 063c 6F008000 		j	.L79
 1638              	.LVL175:
 1639              	.L81:
 1640              		.loc 1 157 5 is_stmt 1 discriminator 5
 1641 0640 93848400 		addi	s1,s1,8
 1642              	.LVL176:
 1643              	.L79:
 1644              		.loc 1 157 23 discriminator 6
 1645 0644 930704FE 		addi	a5,s0,-32
 1646 0648 6386F408 		beq	s1,a5,.L75
 1647              		.loc 1 157 15 is_stmt 0 discriminator 2
GAS LISTING /tmp/ccNEPw55.s 			page 38


 1648 064c 03B50400 		ld	a0,0(s1)
 1649              	.LVL177:
 1650              		.loc 1 157 34 is_stmt 1 discriminator 2
 1651              		.loc 1 157 47 is_stmt 0 discriminator 2
 1652 0650 E30805FE 		beqz	a0,.L81
 1653              		.loc 1 157 41 discriminator 3
 1654 0654 83370500 		ld	a5,0(a0)
 1655 0658 83B78700 		ld	a5,8(a5)
 1656 065c E7800700 		jalr	a5
 1657              	.LVL178:
 1658 0660 6FF01FFE 		j	.L81
 1659              	.LVL179:
 1660              	.L87:
 1661 0664 13090500 		mv	s2,a0
 1662              	.LBE98:
 137:test/../test/Threads_CPP_API_test.hpp ****     printString("ThreadA created\n");
 1663              		.loc 1 137 30
 1664 0668 13850400 		mv	a0,s1
 1665 066c 97000000 		call	_ZdlPv@plt
 1665      E7800000 
 1666              	.LVL180:
 1667 0674 13050900 		mv	a0,s2
 1668              	.LEHB9:
 1669 0678 97000000 		call	_Unwind_Resume@plt
 1669      E7800000 
 1670              	.LVL181:
 1671              	.LEHE9:
 1672              	.L88:
 1673 0680 13090500 		mv	s2,a0
 140:test/../test/Threads_CPP_API_test.hpp ****     printString("ThreadB created\n");
 1674              		.loc 1 140 30
 1675 0684 13850400 		mv	a0,s1
 1676 0688 97000000 		call	_ZdlPv@plt
 1676      E7800000 
 1677              	.LVL182:
 1678 0690 13050900 		mv	a0,s2
 1679              	.LEHB10:
 1680 0694 97000000 		call	_Unwind_Resume@plt
 1680      E7800000 
 1681              	.LVL183:
 1682              	.LEHE10:
 1683              	.L89:
 1684 069c 13090500 		mv	s2,a0
 143:test/../test/Threads_CPP_API_test.hpp ****     printString("ThreadC created\n");
 1685              		.loc 1 143 30
 1686 06a0 13850400 		mv	a0,s1
 1687 06a4 97000000 		call	_ZdlPv@plt
 1687      E7800000 
 1688              	.LVL184:
 1689 06ac 13050900 		mv	a0,s2
 1690              	.LEHB11:
 1691 06b0 97000000 		call	_Unwind_Resume@plt
 1691      E7800000 
 1692              	.LVL185:
 1693              	.LEHE11:
 1694              	.L90:
 1695 06b8 13090500 		mv	s2,a0
GAS LISTING /tmp/ccNEPw55.s 			page 39


 146:test/../test/Threads_CPP_API_test.hpp ****     printString("ThreadD created\n");
 1696              		.loc 1 146 30
 1697 06bc 13850400 		mv	a0,s1
 1698 06c0 97000000 		call	_ZdlPv@plt
 1698      E7800000 
 1699              	.LVL186:
 1700 06c8 13050900 		mv	a0,s2
 1701              	.LEHB12:
 1702 06cc 97000000 		call	_Unwind_Resume@plt
 1702      E7800000 
 1703              	.LVL187:
 1704              	.LEHE12:
 1705              	.L75:
 158:test/../test/Threads_CPP_API_test.hpp **** }
 1706              		.loc 1 158 1
 1707 06d4 83308103 		ld	ra,56(sp)
 1708              		.cfi_restore 1
 1709 06d8 03340103 		ld	s0,48(sp)
 1710              		.cfi_restore 8
 1711              		.cfi_def_cfa 2, 64
 1712 06dc 83348102 		ld	s1,40(sp)
 1713              		.cfi_restore 9
 1714              	.LVL188:
 1715 06e0 03390102 		ld	s2,32(sp)
 1716              		.cfi_restore 18
 1717 06e4 13010104 		addi	sp,sp,64
 1718              		.cfi_def_cfa_offset 0
 1719 06e8 67800000 		jr	ra
 1720              		.cfi_endproc
 1721              	.LFE64:
 1722              		.globl	__gxx_personality_v0
 1723              		.section	.gcc_except_table,"a",@progbits
 1724              	.LLSDA64:
 1725 0000 FF       		.byte	0xff
 1726 0001 FF       		.byte	0xff
 1727 0002 03       		.byte	0x3
 1728 0003 A901     		.byte	0xa9,0x1
 1729 0005 00000000 		.4byte	.LEHB0-.LFB64
 1730 0009 00000000 		.4byte	.LEHE0-.LEHB0
 1731 000d 00000000 		.4byte	0
 1732 0011 00       		.byte	0
 1733 0012 00000000 		.4byte	.LEHB1-.LFB64
 1734 0016 00000000 		.4byte	.LEHE1-.LEHB1
 1735 001a 00000000 		.4byte	.L87-.LFB64
 1736 001e 00       		.byte	0
 1737 001f 00000000 		.4byte	.LEHB2-.LFB64
 1738 0023 00000000 		.4byte	.LEHE2-.LEHB2
 1739 0027 00000000 		.4byte	0
 1740 002b 00       		.byte	0
 1741 002c 00000000 		.4byte	.LEHB3-.LFB64
 1742 0030 00000000 		.4byte	.LEHE3-.LEHB3
 1743 0034 00000000 		.4byte	.L88-.LFB64
 1744 0038 00       		.byte	0
 1745 0039 00000000 		.4byte	.LEHB4-.LFB64
 1746 003d 00000000 		.4byte	.LEHE4-.LEHB4
 1747 0041 00000000 		.4byte	0
 1748 0045 00       		.byte	0
GAS LISTING /tmp/ccNEPw55.s 			page 40


 1749 0046 00000000 		.4byte	.LEHB5-.LFB64
 1750 004a 00000000 		.4byte	.LEHE5-.LEHB5
 1751 004e 00000000 		.4byte	.L89-.LFB64
 1752 0052 00       		.byte	0
 1753 0053 00000000 		.4byte	.LEHB6-.LFB64
 1754 0057 00000000 		.4byte	.LEHE6-.LEHB6
 1755 005b 00000000 		.4byte	0
 1756 005f 00       		.byte	0
 1757 0060 00000000 		.4byte	.LEHB7-.LFB64
 1758 0064 00000000 		.4byte	.LEHE7-.LEHB7
 1759 0068 00000000 		.4byte	.L90-.LFB64
 1760 006c 00       		.byte	0
 1761 006d 00000000 		.4byte	.LEHB8-.LFB64
 1762 0071 00000000 		.4byte	.LEHE8-.LEHB8
 1763 0075 00000000 		.4byte	0
 1764 0079 00       		.byte	0
 1765 007a 00000000 		.4byte	.LEHB9-.LFB64
 1766 007e 00000000 		.4byte	.LEHE9-.LEHB9
 1767 0082 00000000 		.4byte	0
 1768 0086 00       		.byte	0
 1769 0087 00000000 		.4byte	.LEHB10-.LFB64
 1770 008b 00000000 		.4byte	.LEHE10-.LEHB10
 1771 008f 00000000 		.4byte	0
 1772 0093 00       		.byte	0
 1773 0094 00000000 		.4byte	.LEHB11-.LFB64
 1774 0098 00000000 		.4byte	.LEHE11-.LEHB11
 1775 009c 00000000 		.4byte	0
 1776 00a0 00       		.byte	0
 1777 00a1 00000000 		.4byte	.LEHB12-.LFB64
 1778 00a5 00000000 		.4byte	.LEHE12-.LEHB12
 1779 00a9 00000000 		.4byte	0
 1780 00ad 00       		.byte	0
 1781              		.text
 1783              		.align	2
 1784              		.globl	_ZN16ProducerKeyboard16producerKeyboardEPv
 1786              	_ZN16ProducerKeyboard16producerKeyboardEPv:
 1787              	.LFB69:
  33:test/../test/ConsumerProducer_CPP_Sync_API_test.hpp ****     struct thread_data *data = (struct thread_data *) arg;
 1788              		.loc 2 33 52 is_stmt 1
 1789              		.cfi_startproc
 1790              	.LVL189:
 1791 06ec 130101FD 		addi	sp,sp,-48
 1792              		.cfi_def_cfa_offset 48
 1793 06f0 23341102 		sd	ra,40(sp)
 1794 06f4 23308102 		sd	s0,32(sp)
 1795 06f8 233C9100 		sd	s1,24(sp)
 1796 06fc 23382101 		sd	s2,16(sp)
 1797 0700 23343101 		sd	s3,8(sp)
 1798              		.cfi_offset 1, -8
 1799              		.cfi_offset 8, -16
 1800              		.cfi_offset 9, -24
 1801              		.cfi_offset 18, -32
 1802              		.cfi_offset 19, -40
 1803 0704 13040103 		addi	s0,sp,48
 1804              		.cfi_def_cfa 8, 0
 1805 0708 93090500 		mv	s3,a0
 1806 070c 93840500 		mv	s1,a1
GAS LISTING /tmp/ccNEPw55.s 			page 41


  34:test/../test/ConsumerProducer_CPP_Sync_API_test.hpp **** 
 1807              		.loc 2 34 5
 1808              	.LVL190:
  36:test/../test/ConsumerProducer_CPP_Sync_API_test.hpp ****     int i = 0;
 1809              		.loc 2 36 5
  37:test/../test/ConsumerProducer_CPP_Sync_API_test.hpp ****     while ((key = getc()) != 0x1b) {
 1810              		.loc 2 37 5
  37:test/../test/ConsumerProducer_CPP_Sync_API_test.hpp ****     while ((key = getc()) != 0x1b) {
 1811              		.loc 2 37 9 is_stmt 0
 1812 0710 13090000 		li	s2,0
 1813 0714 6F00C000 		j	.L93
 1814              	.LVL191:
 1815              	.L97:
  43:test/../test/ConsumerProducer_CPP_Sync_API_test.hpp ****         }
 1816              		.loc 2 43 13 is_stmt 1
  43:test/../test/ConsumerProducer_CPP_Sync_API_test.hpp ****         }
 1817              		.loc 2 43 29 is_stmt 0
 1818 0718 97000000 		call	_ZN6Thread8dispatchEv@plt
 1818      E7800000 
 1819              	.LVL192:
 1820              	.L93:
  38:test/../test/ConsumerProducer_CPP_Sync_API_test.hpp ****         data->buffer->put(key);
 1821              		.loc 2 38 5 is_stmt 1
  38:test/../test/ConsumerProducer_CPP_Sync_API_test.hpp ****         data->buffer->put(key);
 1822              		.loc 2 38 27
  38:test/../test/ConsumerProducer_CPP_Sync_API_test.hpp ****         data->buffer->put(key);
 1823              		.loc 2 38 23 is_stmt 0
 1824 0720 97000000 		call	getc@plt
 1824      E7800000 
 1825              	.LVL193:
  38:test/../test/ConsumerProducer_CPP_Sync_API_test.hpp ****         data->buffer->put(key);
 1826              		.loc 2 38 17
 1827 0728 9B050500 		sext.w	a1,a0
 1828              	.LVL194:
  38:test/../test/ConsumerProducer_CPP_Sync_API_test.hpp ****         data->buffer->put(key);
 1829              		.loc 2 38 27
 1830 072c 9307B001 		li	a5,27
 1831 0730 638AF502 		beq	a1,a5,.L94
  39:test/../test/ConsumerProducer_CPP_Sync_API_test.hpp ****         i++;
 1832              		.loc 2 39 9 is_stmt 1
  39:test/../test/ConsumerProducer_CPP_Sync_API_test.hpp ****         i++;
 1833              		.loc 2 39 26 is_stmt 0
 1834 0734 03B58400 		ld	a0,8(s1)
 1835 0738 97000000 		call	_ZN9BufferCPP3putEi@plt
 1835      E7800000 
 1836              	.LVL195:
  40:test/../test/ConsumerProducer_CPP_Sync_API_test.hpp **** 
 1837              		.loc 2 40 9 is_stmt 1
  40:test/../test/ConsumerProducer_CPP_Sync_API_test.hpp **** 
 1838              		.loc 2 40 10 is_stmt 0
 1839 0740 1B071900 		addiw	a4,s2,1
 1840 0744 1B090700 		sext.w	s2,a4
 1841              	.LVL196:
  42:test/../test/ConsumerProducer_CPP_Sync_API_test.hpp ****             Thread::dispatch();
 1842              		.loc 2 42 9 is_stmt 1
  42:test/../test/ConsumerProducer_CPP_Sync_API_test.hpp ****             Thread::dispatch();
 1843              		.loc 2 42 29 is_stmt 0
GAS LISTING /tmp/ccNEPw55.s 			page 42


 1844 0748 83A60400 		lw	a3,0(s1)
  42:test/../test/ConsumerProducer_CPP_Sync_API_test.hpp ****             Thread::dispatch();
 1845              		.loc 2 42 21
 1846 074c 9B972600 		slliw	a5,a3,2
 1847 0750 BB87D700 		addw	a5,a5,a3
 1848 0754 9B971700 		slliw	a5,a5,1
  42:test/../test/ConsumerProducer_CPP_Sync_API_test.hpp ****             Thread::dispatch();
 1849              		.loc 2 42 15
 1850 0758 BB67F702 		remw	a5,a4,a5
  42:test/../test/ConsumerProducer_CPP_Sync_API_test.hpp ****             Thread::dispatch();
 1851              		.loc 2 42 9
 1852 075c E39207FC 		bnez	a5,.L93
 1853 0760 6FF09FFB 		j	.L97
 1854              	.LVL197:
 1855              	.L94:
  47:test/../test/ConsumerProducer_CPP_Sync_API_test.hpp ****     td->buffer->put('!');
 1856              		.loc 2 47 5 is_stmt 1
  47:test/../test/ConsumerProducer_CPP_Sync_API_test.hpp ****     td->buffer->put('!');
 1857              		.loc 2 47 15 is_stmt 0
 1858 0764 93071000 		li	a5,1
 1859 0768 17070000 		sw	a5,.LANCHOR0+4,a4
 1859      2320F700 
  48:test/../test/ConsumerProducer_CPP_Sync_API_test.hpp **** 
 1860              		.loc 2 48 5 is_stmt 1
 1861 0770 83B70901 		ld	a5,16(s3)
  48:test/../test/ConsumerProducer_CPP_Sync_API_test.hpp **** 
 1862              		.loc 2 48 20 is_stmt 0
 1863 0774 93051002 		li	a1,33
 1864              	.LVL198:
 1865 0778 03B58700 		ld	a0,8(a5)
 1866              	.LVL199:
 1867 077c 97000000 		call	_ZN9BufferCPP3putEi@plt
 1867      E7800000 
 1868              	.LVL200:
  50:test/../test/ConsumerProducer_CPP_Sync_API_test.hpp **** }
 1869              		.loc 2 50 5 is_stmt 1
  50:test/../test/ConsumerProducer_CPP_Sync_API_test.hpp **** }
 1870              		.loc 2 50 23 is_stmt 0
 1871 0784 03B50401 		ld	a0,16(s1)
 1872 0788 97000000 		call	_ZN9Semaphore6signalEv@plt
 1872      E7800000 
 1873              	.LVL201:
  51:test/../test/ConsumerProducer_CPP_Sync_API_test.hpp **** 
 1874              		.loc 2 51 1
 1875 0790 83308102 		ld	ra,40(sp)
 1876              		.cfi_restore 1
 1877 0794 03340102 		ld	s0,32(sp)
 1878              		.cfi_restore 8
 1879              		.cfi_def_cfa 2, 48
 1880 0798 83348101 		ld	s1,24(sp)
 1881              		.cfi_restore 9
 1882              	.LVL202:
 1883 079c 03390101 		ld	s2,16(sp)
 1884              		.cfi_restore 18
 1885              	.LVL203:
 1886 07a0 83398100 		ld	s3,8(sp)
 1887              		.cfi_restore 19
GAS LISTING /tmp/ccNEPw55.s 			page 43


 1888              	.LVL204:
 1889 07a4 13010103 		addi	sp,sp,48
 1890              		.cfi_def_cfa_offset 0
 1891 07a8 67800000 		jr	ra
 1892              		.cfi_endproc
 1893              	.LFE69:
 1895              		.section	.text._ZN16ProducerKeyboard3runEv,"axG",@progbits,_ZN16ProducerKeyboard3runEv,comdat
 1896              		.align	2
 1897              		.weak	_ZN16ProducerKeyboard3runEv
 1899              	_ZN16ProducerKeyboard3runEv:
 1900              	.LFB68:
  28:test/../test/ConsumerProducer_CPP_Sync_API_test.hpp ****         producerKeyboard(td);
 1901              		.loc 2 28 10 is_stmt 1
 1902              		.cfi_startproc
 1903              	.LVL205:
 1904 0000 130101FF 		addi	sp,sp,-16
 1905              		.cfi_def_cfa_offset 16
 1906 0004 23341100 		sd	ra,8(sp)
 1907 0008 23308100 		sd	s0,0(sp)
 1908              		.cfi_offset 1, -8
 1909              		.cfi_offset 8, -16
 1910 000c 13040101 		addi	s0,sp,16
 1911              		.cfi_def_cfa 8, 0
  29:test/../test/ConsumerProducer_CPP_Sync_API_test.hpp ****     }
 1912              		.loc 2 29 9
  29:test/../test/ConsumerProducer_CPP_Sync_API_test.hpp ****     }
 1913              		.loc 2 29 25 is_stmt 0
 1914 0010 83350501 		ld	a1,16(a0)
 1915 0014 97000000 		call	_ZN16ProducerKeyboard16producerKeyboardEPv
 1915      E7800000 
 1916              	.LVL206:
  30:test/../test/ConsumerProducer_CPP_Sync_API_test.hpp **** };
 1917              		.loc 2 30 5
 1918 001c 83308100 		ld	ra,8(sp)
 1919              		.cfi_restore 1
 1920 0020 03340100 		ld	s0,0(sp)
 1921              		.cfi_restore 8
 1922              		.cfi_def_cfa 2, 16
 1923 0024 13010101 		addi	sp,sp,16
 1924              		.cfi_def_cfa_offset 0
 1925 0028 67800000 		jr	ra
 1926              		.cfi_endproc
 1927              	.LFE68:
 1929              		.text
 1930              		.align	2
 1931              		.globl	_ZN8Producer8producerEPv
 1933              	_ZN8Producer8producerEPv:
 1934              	.LFB74:
  64:test/../test/ConsumerProducer_CPP_Sync_API_test.hpp ****     struct thread_data *data = (struct thread_data *) arg;
 1935              		.loc 2 64 36 is_stmt 1
 1936              		.cfi_startproc
 1937              	.LVL207:
 1938 07ac 130101FE 		addi	sp,sp,-32
 1939              		.cfi_def_cfa_offset 32
 1940 07b0 233C1100 		sd	ra,24(sp)
 1941 07b4 23388100 		sd	s0,16(sp)
 1942 07b8 23349100 		sd	s1,8(sp)
GAS LISTING /tmp/ccNEPw55.s 			page 44


 1943 07bc 23302101 		sd	s2,0(sp)
 1944              		.cfi_offset 1, -8
 1945              		.cfi_offset 8, -16
 1946              		.cfi_offset 9, -24
 1947              		.cfi_offset 18, -32
 1948 07c0 13040102 		addi	s0,sp,32
 1949              		.cfi_def_cfa 8, 0
 1950 07c4 93840500 		mv	s1,a1
  65:test/../test/ConsumerProducer_CPP_Sync_API_test.hpp **** 
 1951              		.loc 2 65 5
 1952              	.LVL208:
  67:test/../test/ConsumerProducer_CPP_Sync_API_test.hpp ****     while (!threadEnd) {
 1953              		.loc 2 67 5
  67:test/../test/ConsumerProducer_CPP_Sync_API_test.hpp ****     while (!threadEnd) {
 1954              		.loc 2 67 9 is_stmt 0
 1955 07c8 13090000 		li	s2,0
 1956 07cc 6F00C000 		j	.L101
 1957              	.LVL209:
 1958              	.L105:
  73:test/../test/ConsumerProducer_CPP_Sync_API_test.hpp ****         }
 1959              		.loc 2 73 13 is_stmt 1
  73:test/../test/ConsumerProducer_CPP_Sync_API_test.hpp ****         }
 1960              		.loc 2 73 29 is_stmt 0
 1961 07d0 97000000 		call	_ZN6Thread8dispatchEv@plt
 1961      E7800000 
 1962              	.LVL210:
 1963              	.L101:
  68:test/../test/ConsumerProducer_CPP_Sync_API_test.hpp ****         data->buffer->put(data->id + '0');
 1964              		.loc 2 68 5 is_stmt 1
  68:test/../test/ConsumerProducer_CPP_Sync_API_test.hpp ****         data->buffer->put(data->id + '0');
 1965              		.loc 2 68 12
 1966 07d8 97070000 		lw	a5,.LANCHOR0+4
 1966      83A70700 
 1967 07e0 639E0702 		bnez	a5,.L102
  69:test/../test/ConsumerProducer_CPP_Sync_API_test.hpp ****         i++;
 1968              		.loc 2 69 9
  69:test/../test/ConsumerProducer_CPP_Sync_API_test.hpp ****         i++;
 1969              		.loc 2 69 33 is_stmt 0
 1970 07e4 83A50400 		lw	a1,0(s1)
  69:test/../test/ConsumerProducer_CPP_Sync_API_test.hpp ****         i++;
 1971              		.loc 2 69 26
 1972 07e8 9B850503 		addiw	a1,a1,48
 1973 07ec 03B58400 		ld	a0,8(s1)
 1974 07f0 97000000 		call	_ZN9BufferCPP3putEi@plt
 1974      E7800000 
 1975              	.LVL211:
  70:test/../test/ConsumerProducer_CPP_Sync_API_test.hpp **** 
 1976              		.loc 2 70 9 is_stmt 1
  70:test/../test/ConsumerProducer_CPP_Sync_API_test.hpp **** 
 1977              		.loc 2 70 10 is_stmt 0
 1978 07f8 1B071900 		addiw	a4,s2,1
 1979 07fc 1B090700 		sext.w	s2,a4
 1980              	.LVL212:
  72:test/../test/ConsumerProducer_CPP_Sync_API_test.hpp ****             Thread::dispatch();
 1981              		.loc 2 72 9 is_stmt 1
  72:test/../test/ConsumerProducer_CPP_Sync_API_test.hpp ****             Thread::dispatch();
 1982              		.loc 2 72 29 is_stmt 0
GAS LISTING /tmp/ccNEPw55.s 			page 45


 1983 0800 83A60400 		lw	a3,0(s1)
  72:test/../test/ConsumerProducer_CPP_Sync_API_test.hpp ****             Thread::dispatch();
 1984              		.loc 2 72 21
 1985 0804 9B972600 		slliw	a5,a3,2
 1986 0808 BB87D700 		addw	a5,a5,a3
 1987 080c 9B971700 		slliw	a5,a5,1
  72:test/../test/ConsumerProducer_CPP_Sync_API_test.hpp ****             Thread::dispatch();
 1988              		.loc 2 72 15
 1989 0810 BB67F702 		remw	a5,a4,a5
  72:test/../test/ConsumerProducer_CPP_Sync_API_test.hpp ****             Thread::dispatch();
 1990              		.loc 2 72 9
 1991 0814 E39207FC 		bnez	a5,.L101
 1992 0818 6FF09FFB 		j	.L105
 1993              	.LVL213:
 1994              	.L102:
  77:test/../test/ConsumerProducer_CPP_Sync_API_test.hpp **** }
 1995              		.loc 2 77 5 is_stmt 1
  77:test/../test/ConsumerProducer_CPP_Sync_API_test.hpp **** }
 1996              		.loc 2 77 23 is_stmt 0
 1997 081c 03B50401 		ld	a0,16(s1)
 1998 0820 97000000 		call	_ZN9Semaphore6signalEv@plt
 1998      E7800000 
 1999              	.LVL214:
  78:test/../test/ConsumerProducer_CPP_Sync_API_test.hpp **** 
 2000              		.loc 2 78 1
 2001 0828 83308101 		ld	ra,24(sp)
 2002              		.cfi_restore 1
 2003 082c 03340101 		ld	s0,16(sp)
 2004              		.cfi_restore 8
 2005              		.cfi_def_cfa 2, 32
 2006 0830 83348100 		ld	s1,8(sp)
 2007              		.cfi_restore 9
 2008              	.LVL215:
 2009 0834 03390100 		ld	s2,0(sp)
 2010              		.cfi_restore 18
 2011              	.LVL216:
 2012 0838 13010102 		addi	sp,sp,32
 2013              		.cfi_def_cfa_offset 0
 2014 083c 67800000 		jr	ra
 2015              		.cfi_endproc
 2016              	.LFE74:
 2018              		.section	.text._ZN8Producer3runEv,"axG",@progbits,_ZN8Producer3runEv,comdat
 2019              		.align	2
 2020              		.weak	_ZN8Producer3runEv
 2022              	_ZN8Producer3runEv:
 2023              	.LFB73:
  59:test/../test/ConsumerProducer_CPP_Sync_API_test.hpp ****         producer(td);
 2024              		.loc 2 59 10 is_stmt 1
 2025              		.cfi_startproc
 2026              	.LVL217:
 2027 0000 130101FF 		addi	sp,sp,-16
 2028              		.cfi_def_cfa_offset 16
 2029 0004 23341100 		sd	ra,8(sp)
 2030 0008 23308100 		sd	s0,0(sp)
 2031              		.cfi_offset 1, -8
 2032              		.cfi_offset 8, -16
 2033 000c 13040101 		addi	s0,sp,16
GAS LISTING /tmp/ccNEPw55.s 			page 46


 2034              		.cfi_def_cfa 8, 0
  60:test/../test/ConsumerProducer_CPP_Sync_API_test.hpp ****     }
 2035              		.loc 2 60 9
  60:test/../test/ConsumerProducer_CPP_Sync_API_test.hpp ****     }
 2036              		.loc 2 60 17 is_stmt 0
 2037 0010 83350501 		ld	a1,16(a0)
 2038 0014 97000000 		call	_ZN8Producer8producerEPv
 2038      E7800000 
 2039              	.LVL218:
  61:test/../test/ConsumerProducer_CPP_Sync_API_test.hpp **** };
 2040              		.loc 2 61 5
 2041 001c 83308100 		ld	ra,8(sp)
 2042              		.cfi_restore 1
 2043 0020 03340100 		ld	s0,0(sp)
 2044              		.cfi_restore 8
 2045              		.cfi_def_cfa 2, 16
 2046 0024 13010101 		addi	sp,sp,16
 2047              		.cfi_def_cfa_offset 0
 2048 0028 67800000 		jr	ra
 2049              		.cfi_endproc
 2050              	.LFE73:
 2052              		.text
 2053              		.align	2
 2054              		.globl	_ZN8Consumer8consumerEPv
 2056              	_ZN8Consumer8consumerEPv:
 2057              	.LFB79:
  81:test/../test/ConsumerProducer_CPP_Sync_API_test.hpp ****     thread_data* td;
  82:test/../test/ConsumerProducer_CPP_Sync_API_test.hpp ****     void consumer(void *arg);
  83:test/../test/ConsumerProducer_CPP_Sync_API_test.hpp **** public:
  84:test/../test/ConsumerProducer_CPP_Sync_API_test.hpp ****     Consumer(thread_data* _td):Thread(), td(_td) {}
  85:test/../test/ConsumerProducer_CPP_Sync_API_test.hpp **** 
  86:test/../test/ConsumerProducer_CPP_Sync_API_test.hpp ****     void run() override {
  87:test/../test/ConsumerProducer_CPP_Sync_API_test.hpp ****         consumer(td);
  88:test/../test/ConsumerProducer_CPP_Sync_API_test.hpp ****     }
  89:test/../test/ConsumerProducer_CPP_Sync_API_test.hpp **** };
  90:test/../test/ConsumerProducer_CPP_Sync_API_test.hpp **** 
  91:test/../test/ConsumerProducer_CPP_Sync_API_test.hpp **** void Consumer::consumer(void *arg) {
 2058              		.loc 2 91 36 is_stmt 1
 2059              		.cfi_startproc
 2060              	.LVL219:
 2061 0840 130101FD 		addi	sp,sp,-48
 2062              		.cfi_def_cfa_offset 48
 2063 0844 23341102 		sd	ra,40(sp)
 2064 0848 23308102 		sd	s0,32(sp)
 2065 084c 233C9100 		sd	s1,24(sp)
 2066 0850 23382101 		sd	s2,16(sp)
 2067 0854 23343101 		sd	s3,8(sp)
 2068 0858 23304101 		sd	s4,0(sp)
 2069              		.cfi_offset 1, -8
 2070              		.cfi_offset 8, -16
 2071              		.cfi_offset 9, -24
 2072              		.cfi_offset 18, -32
 2073              		.cfi_offset 19, -40
 2074              		.cfi_offset 20, -48
 2075 085c 13040103 		addi	s0,sp,48
 2076              		.cfi_def_cfa 8, 0
 2077 0860 93090500 		mv	s3,a0
GAS LISTING /tmp/ccNEPw55.s 			page 47


 2078 0864 13890500 		mv	s2,a1
  92:test/../test/ConsumerProducer_CPP_Sync_API_test.hpp ****     struct thread_data *data = (struct thread_data *) arg;
 2079              		.loc 2 92 5
 2080              	.LVL220:
  93:test/../test/ConsumerProducer_CPP_Sync_API_test.hpp **** 
  94:test/../test/ConsumerProducer_CPP_Sync_API_test.hpp ****     int i = 0;
 2081              		.loc 2 94 5
 2082              		.loc 2 94 9 is_stmt 0
 2083 0868 130A0000 		li	s4,0
 2084 086c 6F00C001 		j	.L109
 2085              	.LVL221:
 2086              	.L115:
 2087              	.LBB99:
  95:test/../test/ConsumerProducer_CPP_Sync_API_test.hpp ****     while (!threadEnd) {
  96:test/../test/ConsumerProducer_CPP_Sync_API_test.hpp ****         int key = data->buffer->get();
  97:test/../test/ConsumerProducer_CPP_Sync_API_test.hpp ****         i++;
  98:test/../test/ConsumerProducer_CPP_Sync_API_test.hpp **** 
  99:test/../test/ConsumerProducer_CPP_Sync_API_test.hpp ****         putc(key);
 100:test/../test/ConsumerProducer_CPP_Sync_API_test.hpp **** 
 101:test/../test/ConsumerProducer_CPP_Sync_API_test.hpp ****         if (i % (5 * data->id) == 0) {
 102:test/../test/ConsumerProducer_CPP_Sync_API_test.hpp ****             Thread::dispatch();
 2088              		.loc 2 102 13 is_stmt 1
 2089              		.loc 2 102 29 is_stmt 0
 2090 0870 97000000 		call	_ZN6Thread8dispatchEv@plt
 2090      E7800000 
 2091              	.LVL222:
 2092 0878 6F000005 		j	.L111
 2093              	.LVL223:
 2094              	.L116:
 103:test/../test/ConsumerProducer_CPP_Sync_API_test.hpp ****         }
 104:test/../test/ConsumerProducer_CPP_Sync_API_test.hpp **** 
 105:test/../test/ConsumerProducer_CPP_Sync_API_test.hpp ****         if (i % 80 == 0) {
 106:test/../test/ConsumerProducer_CPP_Sync_API_test.hpp ****             putc('\n');
 2095              		.loc 2 106 13 is_stmt 1
 2096              		.loc 2 106 17 is_stmt 0
 2097 087c 1305A000 		li	a0,10
 2098 0880 97000000 		call	putc@plt
 2098      E7800000 
 2099              	.LVL224:
 2100              	.L109:
 2101              	.LBE99:
  95:test/../test/ConsumerProducer_CPP_Sync_API_test.hpp ****     while (!threadEnd) {
 2102              		.loc 2 95 5 is_stmt 1
  95:test/../test/ConsumerProducer_CPP_Sync_API_test.hpp ****     while (!threadEnd) {
 2103              		.loc 2 95 12
 2104 0888 97070000 		lw	a5,.LANCHOR0+4
 2104      83A70700 
 2105 0890 63920706 		bnez	a5,.L110
 2106              	.LBB100:
  96:test/../test/ConsumerProducer_CPP_Sync_API_test.hpp ****         i++;
 2107              		.loc 2 96 9
  96:test/../test/ConsumerProducer_CPP_Sync_API_test.hpp ****         i++;
 2108              		.loc 2 96 36 is_stmt 0
 2109 0894 03358900 		ld	a0,8(s2)
 2110 0898 97000000 		call	_ZN9BufferCPP3getEv@plt
 2110      E7800000 
 2111              	.LVL225:
GAS LISTING /tmp/ccNEPw55.s 			page 48


  97:test/../test/ConsumerProducer_CPP_Sync_API_test.hpp **** 
 2112              		.loc 2 97 9 is_stmt 1
  97:test/../test/ConsumerProducer_CPP_Sync_API_test.hpp **** 
 2113              		.loc 2 97 10 is_stmt 0
 2114 08a0 9B041A00 		addiw	s1,s4,1
 2115 08a4 1B8A0400 		sext.w	s4,s1
 2116              	.LVL226:
  99:test/../test/ConsumerProducer_CPP_Sync_API_test.hpp **** 
 2117              		.loc 2 99 9 is_stmt 1
  99:test/../test/ConsumerProducer_CPP_Sync_API_test.hpp **** 
 2118              		.loc 2 99 13 is_stmt 0
 2119 08a8 1375F50F 		andi	a0,a0,0xff
 2120              	.LVL227:
 2121 08ac 97000000 		call	putc@plt
 2121      E7800000 
 2122              	.LVL228:
 101:test/../test/ConsumerProducer_CPP_Sync_API_test.hpp ****             Thread::dispatch();
 2123              		.loc 2 101 9 is_stmt 1
 101:test/../test/ConsumerProducer_CPP_Sync_API_test.hpp ****             Thread::dispatch();
 2124              		.loc 2 101 28 is_stmt 0
 2125 08b4 03270900 		lw	a4,0(s2)
 101:test/../test/ConsumerProducer_CPP_Sync_API_test.hpp ****             Thread::dispatch();
 2126              		.loc 2 101 20
 2127 08b8 9B172700 		slliw	a5,a4,2
 2128 08bc BB87E700 		addw	a5,a5,a4
 101:test/../test/ConsumerProducer_CPP_Sync_API_test.hpp ****             Thread::dispatch();
 2129              		.loc 2 101 15
 2130 08c0 BBE7F402 		remw	a5,s1,a5
 101:test/../test/ConsumerProducer_CPP_Sync_API_test.hpp ****             Thread::dispatch();
 2131              		.loc 2 101 9
 2132 08c4 E38607FA 		beqz	a5,.L115
 2133              	.L111:
 105:test/../test/ConsumerProducer_CPP_Sync_API_test.hpp ****             putc('\n');
 2134              		.loc 2 105 9 is_stmt 1
 105:test/../test/ConsumerProducer_CPP_Sync_API_test.hpp ****             putc('\n');
 2135              		.loc 2 105 15 is_stmt 0
 2136 08c8 93070005 		li	a5,80
 2137 08cc BBE4F402 		remw	s1,s1,a5
 2138              	.LVL229:
 105:test/../test/ConsumerProducer_CPP_Sync_API_test.hpp ****             putc('\n');
 2139              		.loc 2 105 9
 2140 08d0 E39C04FA 		bnez	s1,.L109
 2141 08d4 6FF09FFA 		j	.L116
 2142              	.L117:
 2143              	.LBE100:
 2144              	.LBB101:
 107:test/../test/ConsumerProducer_CPP_Sync_API_test.hpp ****         }
 108:test/../test/ConsumerProducer_CPP_Sync_API_test.hpp ****     }
 109:test/../test/ConsumerProducer_CPP_Sync_API_test.hpp **** 
 110:test/../test/ConsumerProducer_CPP_Sync_API_test.hpp **** 
 111:test/../test/ConsumerProducer_CPP_Sync_API_test.hpp ****     while (td->buffer->getCnt() > 0) {
 112:test/../test/ConsumerProducer_CPP_Sync_API_test.hpp ****         int key = td->buffer->get();
 2145              		.loc 2 112 9 is_stmt 1
 2146              		.loc 2 112 19 is_stmt 0
 2147 08d8 83B70901 		ld	a5,16(s3)
 2148              		.loc 2 112 34
 2149 08dc 03B58700 		ld	a0,8(a5)
GAS LISTING /tmp/ccNEPw55.s 			page 49


 2150 08e0 97000000 		call	_ZN9BufferCPP3getEv@plt
 2150      E7800000 
 2151              	.LVL230:
 113:test/../test/ConsumerProducer_CPP_Sync_API_test.hpp ****         Console::putc(key);
 2152              		.loc 2 113 9 is_stmt 1
 2153              		.loc 2 113 22 is_stmt 0
 2154 08e8 1375F50F 		andi	a0,a0,0xff
 2155              	.LVL231:
 2156 08ec 97000000 		call	_ZN7Console4putcEc@plt
 2156      E7800000 
 2157              	.LVL232:
 2158              	.L110:
 2159              	.LBE101:
 111:test/../test/ConsumerProducer_CPP_Sync_API_test.hpp ****         int key = td->buffer->get();
 2160              		.loc 2 111 5 is_stmt 1
 111:test/../test/ConsumerProducer_CPP_Sync_API_test.hpp ****         int key = td->buffer->get();
 2161              		.loc 2 111 33
 111:test/../test/ConsumerProducer_CPP_Sync_API_test.hpp ****         int key = td->buffer->get();
 2162              		.loc 2 111 12 is_stmt 0
 2163 08f4 83B70901 		ld	a5,16(s3)
 111:test/../test/ConsumerProducer_CPP_Sync_API_test.hpp ****         int key = td->buffer->get();
 2164              		.loc 2 111 30
 2165 08f8 03B58700 		ld	a0,8(a5)
 2166 08fc 97000000 		call	_ZN9BufferCPP6getCntEv@plt
 2166      E7800000 
 2167              	.LVL233:
 111:test/../test/ConsumerProducer_CPP_Sync_API_test.hpp ****         int key = td->buffer->get();
 2168              		.loc 2 111 33
 2169 0904 E34AA0FC 		bgtz	a0,.L117
 114:test/../test/ConsumerProducer_CPP_Sync_API_test.hpp ****     }
 115:test/../test/ConsumerProducer_CPP_Sync_API_test.hpp **** 
 116:test/../test/ConsumerProducer_CPP_Sync_API_test.hpp ****     data->wait->signal();
 2170              		.loc 2 116 5 is_stmt 1
 2171              		.loc 2 116 23 is_stmt 0
 2172 0908 03350901 		ld	a0,16(s2)
 2173 090c 97000000 		call	_ZN9Semaphore6signalEv@plt
 2173      E7800000 
 2174              	.LVL234:
 117:test/../test/ConsumerProducer_CPP_Sync_API_test.hpp **** }
 2175              		.loc 2 117 1
 2176 0914 83308102 		ld	ra,40(sp)
 2177              		.cfi_restore 1
 2178 0918 03340102 		ld	s0,32(sp)
 2179              		.cfi_restore 8
 2180              		.cfi_def_cfa 2, 48
 2181 091c 83348101 		ld	s1,24(sp)
 2182              		.cfi_restore 9
 2183 0920 03390101 		ld	s2,16(sp)
 2184              		.cfi_restore 18
 2185              	.LVL235:
 2186 0924 83398100 		ld	s3,8(sp)
 2187              		.cfi_restore 19
 2188              	.LVL236:
 2189 0928 033A0100 		ld	s4,0(sp)
 2190              		.cfi_restore 20
 2191              	.LVL237:
 2192 092c 13010103 		addi	sp,sp,48
GAS LISTING /tmp/ccNEPw55.s 			page 50


 2193              		.cfi_def_cfa_offset 0
 2194 0930 67800000 		jr	ra
 2195              		.cfi_endproc
 2196              	.LFE79:
 2198              		.section	.text._ZN8Consumer3runEv,"axG",@progbits,_ZN8Consumer3runEv,comdat
 2199              		.align	2
 2200              		.weak	_ZN8Consumer3runEv
 2202              	_ZN8Consumer3runEv:
 2203              	.LFB78:
  86:test/../test/ConsumerProducer_CPP_Sync_API_test.hpp ****         consumer(td);
 2204              		.loc 2 86 10 is_stmt 1
 2205              		.cfi_startproc
 2206              	.LVL238:
 2207 0000 130101FF 		addi	sp,sp,-16
 2208              		.cfi_def_cfa_offset 16
 2209 0004 23341100 		sd	ra,8(sp)
 2210 0008 23308100 		sd	s0,0(sp)
 2211              		.cfi_offset 1, -8
 2212              		.cfi_offset 8, -16
 2213 000c 13040101 		addi	s0,sp,16
 2214              		.cfi_def_cfa 8, 0
  87:test/../test/ConsumerProducer_CPP_Sync_API_test.hpp ****     }
 2215              		.loc 2 87 9
  87:test/../test/ConsumerProducer_CPP_Sync_API_test.hpp ****     }
 2216              		.loc 2 87 17 is_stmt 0
 2217 0010 83350501 		ld	a1,16(a0)
 2218 0014 97000000 		call	_ZN8Consumer8consumerEPv
 2218      E7800000 
 2219              	.LVL239:
  88:test/../test/ConsumerProducer_CPP_Sync_API_test.hpp **** };
 2220              		.loc 2 88 5
 2221 001c 83308100 		ld	ra,8(sp)
 2222              		.cfi_restore 1
 2223 0020 03340100 		ld	s0,0(sp)
 2224              		.cfi_restore 8
 2225              		.cfi_def_cfa 2, 16
 2226 0024 13010101 		addi	sp,sp,16
 2227              		.cfi_def_cfa_offset 0
 2228 0028 67800000 		jr	ra
 2229              		.cfi_endproc
 2230              	.LFE78:
 2232              		.section	.rodata.str1.8
 2233 00f9 00000000 		.align	3
 2233      000000
 2234              	.LC17:
 2235 0100 556E6573 		.string	"Unesite broj proizvodjaca?\n"
 2235      69746520 
 2235      62726F6A 
 2235      2070726F 
 2235      697A766F 
 2236 011c 00000000 		.align	3
 2237              	.LC18:
 2238 0120 556E6573 		.string	"Unesite velicinu bafera?\n"
 2238      69746520 
 2238      76656C69 
 2238      63696E75 
 2238      20626166 
GAS LISTING /tmp/ccNEPw55.s 			page 51


 2239 013a 00000000 		.align	3
 2239      0000
 2240              	.LC19:
 2241 0140 42726F6A 		.string	"Broj proizvodjaca "
 2241      2070726F 
 2241      697A766F 
 2241      646A6163 
 2241      612000
 2242 0153 00000000 		.align	3
 2242      00
 2243              	.LC20:
 2244 0158 20692076 		.string	" i velicina bafera "
 2244      656C6963 
 2244      696E6120 
 2244      62616665 
 2244      72612000 
 2245 016c 00000000 		.align	3
 2246              	.LC21:
 2247 0170 2E0A00   		.string	".\n"
 2248 0173 00000000 		.align	3
 2248      00
 2249              	.LC22:
 2250 0178 42726F6A 		.string	"Broj proizvodjaca ne sme biti manji od velicine bafera!\n"
 2250      2070726F 
 2250      697A766F 
 2250      646A6163 
 2250      61206E65 
 2251 01b1 00000000 		.align	3
 2251      000000
 2252              	.LC23:
 2253 01b8 42726F6A 		.string	"Broj proizvodjaca mora biti veci od nula!\n"
 2253      2070726F 
 2253      697A766F 
 2253      646A6163 
 2253      61206D6F 
 2254              		.text
 2255              		.align	2
 2256              		.globl	_Z29producerConsumer_CPP_Sync_APIv
 2258              	_Z29producerConsumer_CPP_Sync_APIv:
 2259              	.LFB80:
 118:test/../test/ConsumerProducer_CPP_Sync_API_test.hpp **** 
 119:test/../test/ConsumerProducer_CPP_Sync_API_test.hpp **** void producerConsumer_CPP_Sync_API() {
 2260              		.loc 2 119 38 is_stmt 1
 2261              		.cfi_startproc
 2262              		.cfi_personality 0x9b,DW.ref.__gxx_personality_v0
 2263              		.cfi_lsda 0x1b,.LLSDA80
 2264 0934 130101F8 		addi	sp,sp,-128
 2265              		.cfi_def_cfa_offset 128
 2266 0938 233C1106 		sd	ra,120(sp)
 2267 093c 23388106 		sd	s0,112(sp)
 2268 0940 23349106 		sd	s1,104(sp)
 2269 0944 23302107 		sd	s2,96(sp)
 2270 0948 233C3105 		sd	s3,88(sp)
 2271 094c 23384105 		sd	s4,80(sp)
 2272 0950 23345105 		sd	s5,72(sp)
 2273 0954 23306105 		sd	s6,64(sp)
 2274 0958 233C7103 		sd	s7,56(sp)
GAS LISTING /tmp/ccNEPw55.s 			page 52


 2275 095c 23388103 		sd	s8,48(sp)
 2276 0960 23349103 		sd	s9,40(sp)
 2277              		.cfi_offset 1, -8
 2278              		.cfi_offset 8, -16
 2279              		.cfi_offset 9, -24
 2280              		.cfi_offset 18, -32
 2281              		.cfi_offset 19, -40
 2282              		.cfi_offset 20, -48
 2283              		.cfi_offset 21, -56
 2284              		.cfi_offset 22, -64
 2285              		.cfi_offset 23, -72
 2286              		.cfi_offset 24, -80
 2287              		.cfi_offset 25, -88
 2288 0964 13040108 		addi	s0,sp,128
 2289              		.cfi_def_cfa 8, 0
 120:test/../test/ConsumerProducer_CPP_Sync_API_test.hpp ****     char input[30];
 121:test/../test/ConsumerProducer_CPP_Sync_API_test.hpp ****     int n, threadNum;
 122:test/../test/ConsumerProducer_CPP_Sync_API_test.hpp **** 
 123:test/../test/ConsumerProducer_CPP_Sync_API_test.hpp ****     printString("Unesite broj proizvodjaca?\n");
 124:test/../test/ConsumerProducer_CPP_Sync_API_test.hpp ****     getString(input, 30);
 125:test/../test/ConsumerProducer_CPP_Sync_API_test.hpp ****     threadNum = stringToInt(input);
 126:test/../test/ConsumerProducer_CPP_Sync_API_test.hpp **** 
 127:test/../test/ConsumerProducer_CPP_Sync_API_test.hpp ****     printString("Unesite velicinu bafera?\n");
 128:test/../test/ConsumerProducer_CPP_Sync_API_test.hpp ****     getString(input, 30);
 129:test/../test/ConsumerProducer_CPP_Sync_API_test.hpp ****     n = stringToInt(input);
 130:test/../test/ConsumerProducer_CPP_Sync_API_test.hpp **** 
 131:test/../test/ConsumerProducer_CPP_Sync_API_test.hpp ****     printString("Broj proizvodjaca "); printInt(threadNum);
 132:test/../test/ConsumerProducer_CPP_Sync_API_test.hpp ****     printString(" i velicina bafera "); printInt(n);
 133:test/../test/ConsumerProducer_CPP_Sync_API_test.hpp ****     printString(".\n");
 134:test/../test/ConsumerProducer_CPP_Sync_API_test.hpp **** 
 135:test/../test/ConsumerProducer_CPP_Sync_API_test.hpp ****     if(threadNum > n) {
 136:test/../test/ConsumerProducer_CPP_Sync_API_test.hpp ****         printString("Broj proizvodjaca ne sme biti manji od velicine bafera!\n");
 137:test/../test/ConsumerProducer_CPP_Sync_API_test.hpp ****         return;
 138:test/../test/ConsumerProducer_CPP_Sync_API_test.hpp ****     } else if (threadNum < 1) {
 139:test/../test/ConsumerProducer_CPP_Sync_API_test.hpp ****         printString("Broj proizvodjaca mora biti veci od nula!\n");
 140:test/../test/ConsumerProducer_CPP_Sync_API_test.hpp ****         return;
 141:test/../test/ConsumerProducer_CPP_Sync_API_test.hpp ****     }
 142:test/../test/ConsumerProducer_CPP_Sync_API_test.hpp **** 
 143:test/../test/ConsumerProducer_CPP_Sync_API_test.hpp ****     BufferCPP *buffer = new BufferCPP(n);
 144:test/../test/ConsumerProducer_CPP_Sync_API_test.hpp **** 
 145:test/../test/ConsumerProducer_CPP_Sync_API_test.hpp ****     waitForAll = new Semaphore(0);
 146:test/../test/ConsumerProducer_CPP_Sync_API_test.hpp **** 
 147:test/../test/ConsumerProducer_CPP_Sync_API_test.hpp ****     Thread* threads[threadNum];
 148:test/../test/ConsumerProducer_CPP_Sync_API_test.hpp ****     Thread* consumerThread;
 149:test/../test/ConsumerProducer_CPP_Sync_API_test.hpp **** 
 150:test/../test/ConsumerProducer_CPP_Sync_API_test.hpp ****     struct thread_data data[threadNum + 1];
 151:test/../test/ConsumerProducer_CPP_Sync_API_test.hpp **** 
 152:test/../test/ConsumerProducer_CPP_Sync_API_test.hpp ****     data[threadNum].id = threadNum;
 153:test/../test/ConsumerProducer_CPP_Sync_API_test.hpp ****     data[threadNum].buffer = buffer;
 154:test/../test/ConsumerProducer_CPP_Sync_API_test.hpp ****     data[threadNum].wait = waitForAll;
 155:test/../test/ConsumerProducer_CPP_Sync_API_test.hpp ****     consumerThread = new Consumer(data+threadNum);
 156:test/../test/ConsumerProducer_CPP_Sync_API_test.hpp ****     consumerThread->start();
 157:test/../test/ConsumerProducer_CPP_Sync_API_test.hpp **** 
 158:test/../test/ConsumerProducer_CPP_Sync_API_test.hpp ****     for (int i = 0; i < threadNum; i++) {
 159:test/../test/ConsumerProducer_CPP_Sync_API_test.hpp ****         data[i].id = i;
 160:test/../test/ConsumerProducer_CPP_Sync_API_test.hpp ****         data[i].buffer = buffer;
 161:test/../test/ConsumerProducer_CPP_Sync_API_test.hpp ****         data[i].wait = waitForAll;
GAS LISTING /tmp/ccNEPw55.s 			page 53


 162:test/../test/ConsumerProducer_CPP_Sync_API_test.hpp **** 
 163:test/../test/ConsumerProducer_CPP_Sync_API_test.hpp ****         if(i>0) {
 164:test/../test/ConsumerProducer_CPP_Sync_API_test.hpp ****             threads[i] = new Producer(data+i);
 165:test/../test/ConsumerProducer_CPP_Sync_API_test.hpp ****         } else {
 166:test/../test/ConsumerProducer_CPP_Sync_API_test.hpp ****             threads[i] = new ProducerKeyboard(data+i);
 167:test/../test/ConsumerProducer_CPP_Sync_API_test.hpp ****         }
 168:test/../test/ConsumerProducer_CPP_Sync_API_test.hpp **** 
 169:test/../test/ConsumerProducer_CPP_Sync_API_test.hpp ****         threads[i]->start();
 170:test/../test/ConsumerProducer_CPP_Sync_API_test.hpp ****     }
 171:test/../test/ConsumerProducer_CPP_Sync_API_test.hpp **** 
 172:test/../test/ConsumerProducer_CPP_Sync_API_test.hpp ****     Thread::dispatch();
 173:test/../test/ConsumerProducer_CPP_Sync_API_test.hpp **** 
 174:test/../test/ConsumerProducer_CPP_Sync_API_test.hpp ****     for (int i = 0; i <= threadNum; i++) {
 175:test/../test/ConsumerProducer_CPP_Sync_API_test.hpp ****         waitForAll->wait();
 176:test/../test/ConsumerProducer_CPP_Sync_API_test.hpp ****     }
 177:test/../test/ConsumerProducer_CPP_Sync_API_test.hpp **** 
 178:test/../test/ConsumerProducer_CPP_Sync_API_test.hpp ****     for (int i = 0; i < threadNum; i++) {
 179:test/../test/ConsumerProducer_CPP_Sync_API_test.hpp ****         delete threads[i];
 180:test/../test/ConsumerProducer_CPP_Sync_API_test.hpp ****     }
 181:test/../test/ConsumerProducer_CPP_Sync_API_test.hpp ****     delete consumerThread;
 182:test/../test/ConsumerProducer_CPP_Sync_API_test.hpp ****     delete waitForAll;
 183:test/../test/ConsumerProducer_CPP_Sync_API_test.hpp ****     delete buffer;
 2290              		.loc 2 183 18 is_stmt 0
 2291 0968 930B0100 		mv	s7,sp
 120:test/../test/ConsumerProducer_CPP_Sync_API_test.hpp ****     char input[30];
 2292              		.loc 2 120 5 is_stmt 1
 121:test/../test/ConsumerProducer_CPP_Sync_API_test.hpp **** 
 2293              		.loc 2 121 5
 123:test/../test/ConsumerProducer_CPP_Sync_API_test.hpp ****     getString(input, 30);
 2294              		.loc 2 123 5
 123:test/../test/ConsumerProducer_CPP_Sync_API_test.hpp ****     getString(input, 30);
 2295              		.loc 2 123 16 is_stmt 0
 2296 096c 17050000 		lla	a0,.LC17
 2296      13050500 
 2297              	.LEHB13:
 2298 0974 97000000 		call	_Z11printStringPKc@plt
 2298      E7800000 
 2299              	.LVL240:
 124:test/../test/ConsumerProducer_CPP_Sync_API_test.hpp ****     threadNum = stringToInt(input);
 2300              		.loc 2 124 5 is_stmt 1
 124:test/../test/ConsumerProducer_CPP_Sync_API_test.hpp ****     threadNum = stringToInt(input);
 2301              		.loc 2 124 14 is_stmt 0
 2302 097c 9305E001 		li	a1,30
 2303 0980 930404F8 		addi	s1,s0,-128
 2304 0984 13850400 		mv	a0,s1
 2305 0988 97000000 		call	_Z9getStringPci@plt
 2305      E7800000 
 2306              	.LVL241:
 125:test/../test/ConsumerProducer_CPP_Sync_API_test.hpp **** 
 2307              		.loc 2 125 5 is_stmt 1
 125:test/../test/ConsumerProducer_CPP_Sync_API_test.hpp **** 
 2308              		.loc 2 125 28 is_stmt 0
 2309 0990 13850400 		mv	a0,s1
 2310 0994 97000000 		call	_Z11stringToIntPKc@plt
 2310      E7800000 
 2311              	.LVL242:
 2312 099c 13090500 		mv	s2,a0
GAS LISTING /tmp/ccNEPw55.s 			page 54


 2313              	.LVL243:
 127:test/../test/ConsumerProducer_CPP_Sync_API_test.hpp ****     getString(input, 30);
 2314              		.loc 2 127 5 is_stmt 1
 127:test/../test/ConsumerProducer_CPP_Sync_API_test.hpp ****     getString(input, 30);
 2315              		.loc 2 127 16 is_stmt 0
 2316 09a0 17050000 		lla	a0,.LC18
 2316      13050500 
 2317 09a8 97000000 		call	_Z11printStringPKc@plt
 2317      E7800000 
 2318              	.LVL244:
 128:test/../test/ConsumerProducer_CPP_Sync_API_test.hpp ****     n = stringToInt(input);
 2319              		.loc 2 128 5 is_stmt 1
 128:test/../test/ConsumerProducer_CPP_Sync_API_test.hpp ****     n = stringToInt(input);
 2320              		.loc 2 128 14 is_stmt 0
 2321 09b0 9305E001 		li	a1,30
 2322 09b4 13850400 		mv	a0,s1
 2323 09b8 97000000 		call	_Z9getStringPci@plt
 2323      E7800000 
 2324              	.LVL245:
 129:test/../test/ConsumerProducer_CPP_Sync_API_test.hpp **** 
 2325              		.loc 2 129 5 is_stmt 1
 129:test/../test/ConsumerProducer_CPP_Sync_API_test.hpp **** 
 2326              		.loc 2 129 20 is_stmt 0
 2327 09c0 13850400 		mv	a0,s1
 2328 09c4 97000000 		call	_Z11stringToIntPKc@plt
 2328      E7800000 
 2329              	.LVL246:
 2330 09cc 93040500 		mv	s1,a0
 2331              	.LVL247:
 131:test/../test/ConsumerProducer_CPP_Sync_API_test.hpp ****     printString(" i velicina bafera "); printInt(n);
 2332              		.loc 2 131 5 is_stmt 1
 131:test/../test/ConsumerProducer_CPP_Sync_API_test.hpp ****     printString(" i velicina bafera "); printInt(n);
 2333              		.loc 2 131 16 is_stmt 0
 2334 09d0 17050000 		lla	a0,.LC19
 2334      13050500 
 2335 09d8 97000000 		call	_Z11printStringPKc@plt
 2335      E7800000 
 2336              	.LVL248:
 131:test/../test/ConsumerProducer_CPP_Sync_API_test.hpp ****     printString(" i velicina bafera "); printInt(n);
 2337              		.loc 2 131 40 is_stmt 1
 131:test/../test/ConsumerProducer_CPP_Sync_API_test.hpp ****     printString(" i velicina bafera "); printInt(n);
 2338              		.loc 2 131 48 is_stmt 0
 2339 09e0 13060000 		li	a2,0
 2340 09e4 9305A000 		li	a1,10
 2341 09e8 13050900 		mv	a0,s2
 2342 09ec 97000000 		call	_Z8printIntiii@plt
 2342      E7800000 
 2343              	.LVL249:
 132:test/../test/ConsumerProducer_CPP_Sync_API_test.hpp ****     printString(".\n");
 2344              		.loc 2 132 5 is_stmt 1
 132:test/../test/ConsumerProducer_CPP_Sync_API_test.hpp ****     printString(".\n");
 2345              		.loc 2 132 16 is_stmt 0
 2346 09f4 17050000 		lla	a0,.LC20
 2346      13050500 
 2347 09fc 97000000 		call	_Z11printStringPKc@plt
 2347      E7800000 
 2348              	.LVL250:
GAS LISTING /tmp/ccNEPw55.s 			page 55


 132:test/../test/ConsumerProducer_CPP_Sync_API_test.hpp ****     printString(".\n");
 2349              		.loc 2 132 41 is_stmt 1
 132:test/../test/ConsumerProducer_CPP_Sync_API_test.hpp ****     printString(".\n");
 2350              		.loc 2 132 49 is_stmt 0
 2351 0a04 13060000 		li	a2,0
 2352 0a08 9305A000 		li	a1,10
 2353 0a0c 13850400 		mv	a0,s1
 2354 0a10 97000000 		call	_Z8printIntiii@plt
 2354      E7800000 
 2355              	.LVL251:
 133:test/../test/ConsumerProducer_CPP_Sync_API_test.hpp **** 
 2356              		.loc 2 133 5 is_stmt 1
 133:test/../test/ConsumerProducer_CPP_Sync_API_test.hpp **** 
 2357              		.loc 2 133 16 is_stmt 0
 2358 0a18 17050000 		lla	a0,.LC21
 2358      13050500 
 2359 0a20 97000000 		call	_Z11printStringPKc@plt
 2359      E7800000 
 2360              	.LVL252:
 135:test/../test/ConsumerProducer_CPP_Sync_API_test.hpp ****         printString("Broj proizvodjaca ne sme biti manji od velicine bafera!\n");
 2361              		.loc 2 135 5 is_stmt 1
 2362 0a28 63C42403 		bgt	s2,s1,.L148
 138:test/../test/ConsumerProducer_CPP_Sync_API_test.hpp ****         printString("Broj proizvodjaca mora biti veci od nula!\n");
 2363              		.loc 2 138 12
 2364 0a2c 635C2003 		blez	s2,.L149
 143:test/../test/ConsumerProducer_CPP_Sync_API_test.hpp **** 
 2365              		.loc 2 143 5
 143:test/../test/ConsumerProducer_CPP_Sync_API_test.hpp **** 
 2366              		.loc 2 143 40 is_stmt 0
 2367 0a30 13058003 		li	a0,56
 2368 0a34 97000000 		call	_Znwm@plt
 2368      E7800000 
 2369              	.LVL253:
 2370              	.LEHE13:
 2371 0a3c 930A0500 		mv	s5,a0
 2372 0a40 93850400 		mv	a1,s1
 2373              	.LEHB14:
 2374 0a44 97000000 		call	_ZN9BufferCPPC1Ei@plt
 2374      E7800000 
 2375              	.LVL254:
 2376              	.LEHE14:
 2377 0a4c 6F000003 		j	.L150
 2378              	.L148:
 136:test/../test/ConsumerProducer_CPP_Sync_API_test.hpp ****         return;
 2379              		.loc 2 136 9 is_stmt 1
 136:test/../test/ConsumerProducer_CPP_Sync_API_test.hpp ****         return;
 2380              		.loc 2 136 20 is_stmt 0
 2381 0a50 17050000 		lla	a0,.LC22
 2381      13050500 
 2382              	.LEHB15:
 2383 0a58 97000000 		call	_Z11printStringPKc@plt
 2383      E7800000 
 2384              	.LVL255:
 137:test/../test/ConsumerProducer_CPP_Sync_API_test.hpp ****     } else if (threadNum < 1) {
 2385              		.loc 2 137 9 is_stmt 1
 2386 0a60 6F004001 		j	.L122
 2387              	.L149:
GAS LISTING /tmp/ccNEPw55.s 			page 56


 139:test/../test/ConsumerProducer_CPP_Sync_API_test.hpp ****         return;
 2388              		.loc 2 139 9
 139:test/../test/ConsumerProducer_CPP_Sync_API_test.hpp ****         return;
 2389              		.loc 2 139 20 is_stmt 0
 2390 0a64 17050000 		lla	a0,.LC23
 2390      13050500 
 2391 0a6c 97000000 		call	_Z11printStringPKc@plt
 2391      E7800000 
 2392              	.LVL256:
 140:test/../test/ConsumerProducer_CPP_Sync_API_test.hpp ****     }
 2393              		.loc 2 140 9 is_stmt 1
 2394              	.L122:
 2395 0a74 13810B00 		mv	sp,s7
 2396 0a78 6F000024 		j	.L120
 2397              	.L150:
 2398              	.LVL257:
 145:test/../test/ConsumerProducer_CPP_Sync_API_test.hpp **** 
 2399              		.loc 2 145 5 discriminator 3
 145:test/../test/ConsumerProducer_CPP_Sync_API_test.hpp **** 
 2400              		.loc 2 145 33 is_stmt 0 discriminator 3
 2401 0a7c 13050001 		li	a0,16
 2402 0a80 97000000 		call	_Znwm@plt
 2402      E7800000 
 2403              	.LVL258:
 2404              	.LEHE15:
 2405 0a88 93040500 		mv	s1,a0
 2406              	.LVL259:
 2407 0a8c 93050000 		li	a1,0
 2408              	.LEHB16:
 2409 0a90 97000000 		call	_ZN9SemaphoreC1Ej@plt
 2409      E7800000 
 2410              	.LVL260:
 2411              	.LEHE16:
 145:test/../test/ConsumerProducer_CPP_Sync_API_test.hpp **** 
 2412              		.loc 2 145 16 discriminator 3
 2413 0a98 17070000 		lla	a4,.LANCHOR0
 2413      13070700 
 2414 0aa0 23349700 		sd	s1,8(a4)
 147:test/../test/ConsumerProducer_CPP_Sync_API_test.hpp ****     Thread* consumerThread;
 2415              		.loc 2 147 5 is_stmt 1 discriminator 3
 2416              	.LVL261:
 147:test/../test/ConsumerProducer_CPP_Sync_API_test.hpp ****     Thread* consumerThread;
 2417              		.loc 2 147 13 is_stmt 0 discriminator 3
 2418 0aa4 93173900 		slli	a5,s2,3
 2419 0aa8 9387F700 		addi	a5,a5,15
 2420 0aac 93F707FF 		andi	a5,a5,-16
 2421 0ab0 3301F140 		sub	sp,sp,a5
 2422 0ab4 93090100 		mv	s3,sp
 2423              	.LVL262:
 148:test/../test/ConsumerProducer_CPP_Sync_API_test.hpp **** 
 2424              		.loc 2 148 5 is_stmt 1 discriminator 3
 150:test/../test/ConsumerProducer_CPP_Sync_API_test.hpp **** 
 2425              		.loc 2 150 5 discriminator 3
 150:test/../test/ConsumerProducer_CPP_Sync_API_test.hpp **** 
 2426              		.loc 2 150 39 is_stmt 0 discriminator 3
 2427 0ab8 9B061900 		addiw	a3,s2,1
 2428              	.LVL263:
GAS LISTING /tmp/ccNEPw55.s 			page 57


 150:test/../test/ConsumerProducer_CPP_Sync_API_test.hpp **** 
 2429              		.loc 2 150 24 discriminator 3
 2430 0abc 93971600 		slli	a5,a3,1
 2431 0ac0 B387D700 		add	a5,a5,a3
 2432 0ac4 93973700 		slli	a5,a5,3
 2433 0ac8 9387F700 		addi	a5,a5,15
 2434 0acc 93F707FF 		andi	a5,a5,-16
 2435 0ad0 3301F140 		sub	sp,sp,a5
 2436              	.LVL264:
 2437 0ad4 130A0100 		mv	s4,sp
 2438              	.LVL265:
 152:test/../test/ConsumerProducer_CPP_Sync_API_test.hpp ****     data[threadNum].buffer = buffer;
 2439              		.loc 2 152 5 is_stmt 1 discriminator 3
 152:test/../test/ConsumerProducer_CPP_Sync_API_test.hpp ****     data[threadNum].buffer = buffer;
 2440              		.loc 2 152 24 is_stmt 0 discriminator 3
 2441 0ad8 93141900 		slli	s1,s2,1
 2442 0adc B3872401 		add	a5,s1,s2
 2443 0ae0 93973700 		slli	a5,a5,3
 2444 0ae4 B307FA00 		add	a5,s4,a5
 2445 0ae8 23A02701 		sw	s2,0(a5)
 153:test/../test/ConsumerProducer_CPP_Sync_API_test.hpp ****     data[threadNum].wait = waitForAll;
 2446              		.loc 2 153 5 is_stmt 1 discriminator 3
 153:test/../test/ConsumerProducer_CPP_Sync_API_test.hpp ****     data[threadNum].wait = waitForAll;
 2447              		.loc 2 153 28 is_stmt 0 discriminator 3
 2448 0aec 23B45701 		sd	s5,8(a5)
 154:test/../test/ConsumerProducer_CPP_Sync_API_test.hpp ****     consumerThread = new Consumer(data+threadNum);
 2449              		.loc 2 154 5 is_stmt 1 discriminator 3
 154:test/../test/ConsumerProducer_CPP_Sync_API_test.hpp ****     consumerThread = new Consumer(data+threadNum);
 2450              		.loc 2 154 26 is_stmt 0 discriminator 3
 2451 0af0 03378700 		ld	a4,8(a4)
 2452 0af4 23B8E700 		sd	a4,16(a5)
 155:test/../test/ConsumerProducer_CPP_Sync_API_test.hpp ****     consumerThread->start();
 2453              		.loc 2 155 5 is_stmt 1 discriminator 3
 155:test/../test/ConsumerProducer_CPP_Sync_API_test.hpp ****     consumerThread->start();
 2454              		.loc 2 155 49 is_stmt 0 discriminator 3
 2455 0af8 13058001 		li	a0,24
 2456              	.LEHB17:
 2457 0afc 97000000 		call	_Znwm@plt
 2457      E7800000 
 2458              	.LVL266:
 2459              	.LEHE17:
 2460 0b04 130B0500 		mv	s6,a0
 155:test/../test/ConsumerProducer_CPP_Sync_API_test.hpp ****     consumerThread->start();
 2461              		.loc 2 155 39 discriminator 3
 2462 0b08 B3842401 		add	s1,s1,s2
 2463 0b0c 93943400 		slli	s1,s1,3
 155:test/../test/ConsumerProducer_CPP_Sync_API_test.hpp ****     consumerThread->start();
 2464              		.loc 2 155 49 discriminator 3
 2465 0b10 B3049A00 		add	s1,s4,s1
 2466              	.LVL267:
 2467              	.LEHB18:
 2468              	.LBB102:
 2469              	.LBB103:
  84:test/../test/ConsumerProducer_CPP_Sync_API_test.hpp **** 
 2470              		.loc 2 84 48 discriminator 3
 2471 0b14 97000000 		call	_ZN6ThreadC2Ev@plt
 2471      E7800000 
GAS LISTING /tmp/ccNEPw55.s 			page 58


 2472              	.LVL268:
 2473              	.LEHE18:
  84:test/../test/ConsumerProducer_CPP_Sync_API_test.hpp **** 
 2474              		.loc 2 84 48
 2475 0b1c 97070000 		lla	a5,_ZTV8Consumer+16
 2475      93870700 
 2476 0b24 2330FB00 		sd	a5,0(s6)
 2477 0b28 23389B00 		sd	s1,16(s6)
 2478              	.LVL269:
 2479              	.LBE103:
 2480              	.LBE102:
 156:test/../test/ConsumerProducer_CPP_Sync_API_test.hpp **** 
 2481              		.loc 2 156 5 is_stmt 1
 156:test/../test/ConsumerProducer_CPP_Sync_API_test.hpp **** 
 2482              		.loc 2 156 26 is_stmt 0
 2483 0b2c 13050B00 		mv	a0,s6
 2484              	.LEHB19:
 2485 0b30 97000000 		call	_ZN6Thread5startEv@plt
 2485      E7800000 
 2486              	.LVL270:
 2487              	.LBB104:
 158:test/../test/ConsumerProducer_CPP_Sync_API_test.hpp ****         data[i].id = i;
 2488              		.loc 2 158 14
 2489 0b38 93040000 		li	s1,0
 2490 0b3c 6F008003 		j	.L127
 2491              	.LVL271:
 2492              	.L151:
 2493              	.LBB105:
 2494              	.LBB106:
  57:test/../test/ConsumerProducer_CPP_Sync_API_test.hpp **** 
 2495              		.loc 2 57 48
 2496 0b40 97070000 		lla	a5,_ZTV8Producer+16
 2496      93870700 
 2497 0b48 23B0FC00 		sd	a5,0(s9)
 2498 0b4c 23B88C01 		sd	s8,16(s9)
 2499              	.LVL272:
 2500              	.LBE106:
 2501              	.LBE105:
 164:test/../test/ConsumerProducer_CPP_Sync_API_test.hpp ****         } else {
 2502              		.loc 2 164 24
 2503 0b50 93973400 		slli	a5,s1,3
 2504 0b54 B387F900 		add	a5,s3,a5
 2505 0b58 23B09701 		sd	s9,0(a5)
 2506              	.L126:
 169:test/../test/ConsumerProducer_CPP_Sync_API_test.hpp ****     }
 2507              		.loc 2 169 9 is_stmt 1
 169:test/../test/ConsumerProducer_CPP_Sync_API_test.hpp ****     }
 2508              		.loc 2 169 18 is_stmt 0
 2509 0b5c 93973400 		slli	a5,s1,3
 2510 0b60 B387F900 		add	a5,s3,a5
 169:test/../test/ConsumerProducer_CPP_Sync_API_test.hpp ****     }
 2511              		.loc 2 169 26
 2512 0b64 03B50700 		ld	a0,0(a5)
 2513 0b68 97000000 		call	_ZN6Thread5startEv@plt
 2513      E7800000 
 2514              	.LVL273:
 158:test/../test/ConsumerProducer_CPP_Sync_API_test.hpp ****         data[i].id = i;
GAS LISTING /tmp/ccNEPw55.s 			page 59


 2515              		.loc 2 158 5 is_stmt 1
 2516 0b70 9B841400 		addiw	s1,s1,1
 2517              	.LVL274:
 2518              	.L127:
 158:test/../test/ConsumerProducer_CPP_Sync_API_test.hpp ****         data[i].id = i;
 2519              		.loc 2 158 23 discriminator 1
 2520 0b74 63D0240B 		bge	s1,s2,.L124
 159:test/../test/ConsumerProducer_CPP_Sync_API_test.hpp ****         data[i].buffer = buffer;
 2521              		.loc 2 159 9
 159:test/../test/ConsumerProducer_CPP_Sync_API_test.hpp ****         data[i].buffer = buffer;
 2522              		.loc 2 159 20 is_stmt 0
 2523 0b78 93971400 		slli	a5,s1,1
 2524 0b7c B3879700 		add	a5,a5,s1
 2525 0b80 93973700 		slli	a5,a5,3
 2526 0b84 B307FA00 		add	a5,s4,a5
 2527 0b88 23A09700 		sw	s1,0(a5)
 160:test/../test/ConsumerProducer_CPP_Sync_API_test.hpp ****         data[i].wait = waitForAll;
 2528              		.loc 2 160 9 is_stmt 1
 160:test/../test/ConsumerProducer_CPP_Sync_API_test.hpp ****         data[i].wait = waitForAll;
 2529              		.loc 2 160 24 is_stmt 0
 2530 0b8c 23B45701 		sd	s5,8(a5)
 161:test/../test/ConsumerProducer_CPP_Sync_API_test.hpp **** 
 2531              		.loc 2 161 9 is_stmt 1
 161:test/../test/ConsumerProducer_CPP_Sync_API_test.hpp **** 
 2532              		.loc 2 161 22 is_stmt 0
 2533 0b90 17070000 		ld	a4,.LANCHOR0+8
 2533      03370700 
 2534 0b98 23B8E700 		sd	a4,16(a5)
 163:test/../test/ConsumerProducer_CPP_Sync_API_test.hpp ****             threads[i] = new Producer(data+i);
 2535              		.loc 2 163 9 is_stmt 1
 2536 0b9c 63589002 		blez	s1,.L125
 164:test/../test/ConsumerProducer_CPP_Sync_API_test.hpp ****         } else {
 2537              		.loc 2 164 13
 164:test/../test/ConsumerProducer_CPP_Sync_API_test.hpp ****         } else {
 2538              		.loc 2 164 45 is_stmt 0
 2539 0ba0 13058001 		li	a0,24
 2540 0ba4 97000000 		call	_Znwm@plt
 2540      E7800000 
 2541              	.LVL275:
 2542              	.LEHE19:
 2543 0bac 930C0500 		mv	s9,a0
 164:test/../test/ConsumerProducer_CPP_Sync_API_test.hpp ****         } else {
 2544              		.loc 2 164 43
 2545 0bb0 139C1400 		slli	s8,s1,1
 2546 0bb4 330C9C00 		add	s8,s8,s1
 2547 0bb8 131C3C00 		slli	s8,s8,3
 164:test/../test/ConsumerProducer_CPP_Sync_API_test.hpp ****         } else {
 2548              		.loc 2 164 45
 2549 0bbc 330C8A01 		add	s8,s4,s8
 2550              	.LVL276:
 2551              	.LEHB20:
 2552              	.LBB108:
 2553              	.LBB107:
  57:test/../test/ConsumerProducer_CPP_Sync_API_test.hpp **** 
 2554              		.loc 2 57 48
 2555 0bc0 97000000 		call	_ZN6ThreadC2Ev@plt
 2555      E7800000 
GAS LISTING /tmp/ccNEPw55.s 			page 60


 2556              	.LVL277:
 2557              	.LEHE20:
 2558 0bc8 6FF09FF7 		j	.L151
 2559              	.LVL278:
 2560              	.L125:
 2561              	.LBE107:
 2562              	.LBE108:
 166:test/../test/ConsumerProducer_CPP_Sync_API_test.hpp ****         }
 2563              		.loc 2 166 13 is_stmt 1
 166:test/../test/ConsumerProducer_CPP_Sync_API_test.hpp ****         }
 2564              		.loc 2 166 53 is_stmt 0
 2565 0bcc 13058001 		li	a0,24
 2566              	.LEHB21:
 2567 0bd0 97000000 		call	_Znwm@plt
 2567      E7800000 
 2568              	.LVL279:
 2569              	.LEHE21:
 2570 0bd8 930C0500 		mv	s9,a0
 166:test/../test/ConsumerProducer_CPP_Sync_API_test.hpp ****         }
 2571              		.loc 2 166 51
 2572 0bdc 139C1400 		slli	s8,s1,1
 2573 0be0 330C9C00 		add	s8,s8,s1
 2574 0be4 131C3C00 		slli	s8,s8,3
 166:test/../test/ConsumerProducer_CPP_Sync_API_test.hpp ****         }
 2575              		.loc 2 166 53
 2576 0be8 330C8A01 		add	s8,s4,s8
 2577              	.LVL280:
 2578              	.LEHB22:
 2579              	.LBB109:
 2580              	.LBB110:
  26:test/../test/ConsumerProducer_CPP_Sync_API_test.hpp **** 
 2581              		.loc 2 26 56
 2582 0bec 97000000 		call	_ZN6ThreadC2Ev@plt
 2582      E7800000 
 2583              	.LVL281:
 2584              	.LEHE22:
 2585 0bf4 97070000 		lla	a5,_ZTV16ProducerKeyboard+16
 2585      93870700 
 2586 0bfc 23B0FC00 		sd	a5,0(s9)
 2587 0c00 23B88C01 		sd	s8,16(s9)
 2588              	.LVL282:
 2589              	.LBE110:
 2590              	.LBE109:
 166:test/../test/ConsumerProducer_CPP_Sync_API_test.hpp ****         }
 2591              		.loc 2 166 24
 2592 0c04 93973400 		slli	a5,s1,3
 2593 0c08 B387F900 		add	a5,s3,a5
 2594 0c0c 23B09701 		sd	s9,0(a5)
 2595 0c10 6FF0DFF4 		j	.L126
 2596              	.L124:
 2597              	.LBE104:
 172:test/../test/ConsumerProducer_CPP_Sync_API_test.hpp **** 
 2598              		.loc 2 172 5 is_stmt 1
 2599              	.LEHB23:
 172:test/../test/ConsumerProducer_CPP_Sync_API_test.hpp **** 
 2600              		.loc 2 172 21 is_stmt 0
 2601 0c14 97000000 		call	_ZN6Thread8dispatchEv@plt
GAS LISTING /tmp/ccNEPw55.s 			page 61


 2601      E7800000 
 2602              	.LVL283:
 2603              	.LBB111:
 174:test/../test/ConsumerProducer_CPP_Sync_API_test.hpp ****         waitForAll->wait();
 2604              		.loc 2 174 14
 2605 0c1c 93040000 		li	s1,0
 2606              	.LVL284:
 2607              	.L129:
 174:test/../test/ConsumerProducer_CPP_Sync_API_test.hpp ****         waitForAll->wait();
 2608              		.loc 2 174 23 is_stmt 1 discriminator 1
 2609 0c20 634E9900 		bgt	s1,s2,.L141
 175:test/../test/ConsumerProducer_CPP_Sync_API_test.hpp ****     }
 2610              		.loc 2 175 9
 175:test/../test/ConsumerProducer_CPP_Sync_API_test.hpp ****     }
 2611              		.loc 2 175 25 is_stmt 0
 2612 0c24 17050000 		ld	a0,.LANCHOR0+8
 2612      03350500 
 2613 0c2c 97000000 		call	_ZN9Semaphore4waitEv@plt
 2613      E7800000 
 2614              	.LVL285:
 174:test/../test/ConsumerProducer_CPP_Sync_API_test.hpp ****         waitForAll->wait();
 2615              		.loc 2 174 5 is_stmt 1
 2616 0c34 9B841400 		addiw	s1,s1,1
 2617              	.LVL286:
 2618 0c38 6FF09FFE 		j	.L129
 2619              	.LVL287:
 2620              	.L141:
 2621              	.LBE111:
 2622              	.LBB112:
 178:test/../test/ConsumerProducer_CPP_Sync_API_test.hpp ****         delete threads[i];
 2623              		.loc 2 178 14 is_stmt 0
 2624 0c3c 93040000 		li	s1,0
 2625              	.LVL288:
 2626 0c40 6F008000 		j	.L128
 2627              	.LVL289:
 2628              	.L131:
 178:test/../test/ConsumerProducer_CPP_Sync_API_test.hpp ****         delete threads[i];
 2629              		.loc 2 178 5 is_stmt 1 discriminator 2
 2630 0c44 9B841400 		addiw	s1,s1,1
 2631              	.LVL290:
 2632              	.L128:
 178:test/../test/ConsumerProducer_CPP_Sync_API_test.hpp ****         delete threads[i];
 2633              		.loc 2 178 23 discriminator 1
 2634 0c48 63D22403 		bge	s1,s2,.L130
 179:test/../test/ConsumerProducer_CPP_Sync_API_test.hpp ****     }
 2635              		.loc 2 179 9
 179:test/../test/ConsumerProducer_CPP_Sync_API_test.hpp ****     }
 2636              		.loc 2 179 25 is_stmt 0
 2637 0c4c 93973400 		slli	a5,s1,3
 2638 0c50 B387F900 		add	a5,s3,a5
 2639 0c54 03B50700 		ld	a0,0(a5)
 179:test/../test/ConsumerProducer_CPP_Sync_API_test.hpp ****     }
 2640              		.loc 2 179 26
 2641 0c58 E30605FE 		beqz	a0,.L131
 179:test/../test/ConsumerProducer_CPP_Sync_API_test.hpp ****     }
 2642              		.loc 2 179 25 discriminator 1
 2643 0c5c 83370500 		ld	a5,0(a0)
GAS LISTING /tmp/ccNEPw55.s 			page 62


 2644 0c60 83B78700 		ld	a5,8(a5)
 2645 0c64 E7800700 		jalr	a5
 2646              	.LVL291:
 2647 0c68 6FF0DFFD 		j	.L131
 2648              	.L130:
 2649              	.LBE112:
 181:test/../test/ConsumerProducer_CPP_Sync_API_test.hpp ****     delete waitForAll;
 2650              		.loc 2 181 5 is_stmt 1
 181:test/../test/ConsumerProducer_CPP_Sync_API_test.hpp ****     delete waitForAll;
 2651              		.loc 2 181 26 is_stmt 0
 2652 0c6c 630A0B00 		beqz	s6,.L132
 181:test/../test/ConsumerProducer_CPP_Sync_API_test.hpp ****     delete waitForAll;
 2653              		.loc 2 181 12 discriminator 1
 2654 0c70 83370B00 		ld	a5,0(s6)
 2655 0c74 83B78700 		ld	a5,8(a5)
 2656 0c78 13050B00 		mv	a0,s6
 2657 0c7c E7800700 		jalr	a5
 2658              	.LVL292:
 2659              	.L132:
 182:test/../test/ConsumerProducer_CPP_Sync_API_test.hpp ****     delete buffer;
 2660              		.loc 2 182 5 is_stmt 1
 182:test/../test/ConsumerProducer_CPP_Sync_API_test.hpp ****     delete buffer;
 2661              		.loc 2 182 12 is_stmt 0
 2662 0c80 17050000 		ld	a0,.LANCHOR0+8
 2662      03350500 
 182:test/../test/ConsumerProducer_CPP_Sync_API_test.hpp ****     delete buffer;
 2663              		.loc 2 182 22
 2664 0c88 63080500 		beqz	a0,.L133
 182:test/../test/ConsumerProducer_CPP_Sync_API_test.hpp ****     delete buffer;
 2665              		.loc 2 182 12 discriminator 1
 2666 0c8c 83370500 		ld	a5,0(a0)
 2667 0c90 83B78700 		ld	a5,8(a5)
 2668 0c94 E7800700 		jalr	a5
 2669              	.LVL293:
 2670              	.L133:
 2671              		.loc 2 183 5 is_stmt 1
 2672              		.loc 2 183 18 is_stmt 0
 2673 0c98 638E0A00 		beqz	s5,.L134
 2674              		.loc 2 183 12 discriminator 1
 2675 0c9c 13850A00 		mv	a0,s5
 2676 0ca0 97000000 		call	_ZN9BufferCPPD1Ev@plt
 2676      E7800000 
 2677              	.LVL294:
 2678 0ca8 13850A00 		mv	a0,s5
 2679 0cac 97000000 		call	_ZdlPv@plt
 2679      E7800000 
 2680              	.LVL295:
 2681              	.LEHE23:
 2682              	.L134:
 2683 0cb4 13810B00 		mv	sp,s7
 2684              	.LVL296:
 2685              	.L120:
 184:test/../test/ConsumerProducer_CPP_Sync_API_test.hpp **** 
 185:test/../test/ConsumerProducer_CPP_Sync_API_test.hpp **** }
 2686              		.loc 2 185 1
 2687 0cb8 130104F8 		addi	sp,s0,-128
 2688              		.cfi_remember_state
GAS LISTING /tmp/ccNEPw55.s 			page 63


 2689              		.cfi_def_cfa 2, 128
 2690 0cbc 83308107 		ld	ra,120(sp)
 2691              		.cfi_restore 1
 2692 0cc0 03340107 		ld	s0,112(sp)
 2693              		.cfi_restore 8
 2694 0cc4 83348106 		ld	s1,104(sp)
 2695              		.cfi_restore 9
 2696 0cc8 03390106 		ld	s2,96(sp)
 2697              		.cfi_restore 18
 2698              	.LVL297:
 2699 0ccc 83398105 		ld	s3,88(sp)
 2700              		.cfi_restore 19
 2701 0cd0 033A0105 		ld	s4,80(sp)
 2702              		.cfi_restore 20
 2703 0cd4 833A8104 		ld	s5,72(sp)
 2704              		.cfi_restore 21
 2705 0cd8 033B0104 		ld	s6,64(sp)
 2706              		.cfi_restore 22
 2707 0cdc 833B8103 		ld	s7,56(sp)
 2708              		.cfi_restore 23
 2709 0ce0 033C0103 		ld	s8,48(sp)
 2710              		.cfi_restore 24
 2711 0ce4 833C8102 		ld	s9,40(sp)
 2712              		.cfi_restore 25
 2713 0ce8 13010108 		addi	sp,sp,128
 2714              		.cfi_def_cfa_offset 0
 2715 0cec 67800000 		jr	ra
 2716              	.LVL298:
 2717              	.L142:
 2718              		.cfi_restore_state
 2719 0cf0 93040500 		mv	s1,a0
 2720              	.LVL299:
 143:test/../test/ConsumerProducer_CPP_Sync_API_test.hpp **** 
 2721              		.loc 2 143 40
 2722 0cf4 13850A00 		mv	a0,s5
 2723 0cf8 97000000 		call	_ZdlPv@plt
 2723      E7800000 
 2724              	.LVL300:
 2725 0d00 13850400 		mv	a0,s1
 2726              	.LEHB24:
 2727 0d04 97000000 		call	_Unwind_Resume@plt
 2727      E7800000 
 2728              	.LVL301:
 2729              	.LEHE24:
 2730              	.L143:
 2731 0d0c 13090500 		mv	s2,a0
 2732              	.LVL302:
 145:test/../test/ConsumerProducer_CPP_Sync_API_test.hpp **** 
 2733              		.loc 2 145 33
 2734 0d10 13850400 		mv	a0,s1
 2735 0d14 97000000 		call	_ZdlPv@plt
 2735      E7800000 
 2736              	.LVL303:
 2737 0d1c 13050900 		mv	a0,s2
 2738              	.LEHB25:
 2739 0d20 97000000 		call	_Unwind_Resume@plt
 2739      E7800000 
GAS LISTING /tmp/ccNEPw55.s 			page 64


 2740              	.LVL304:
 2741              	.LEHE25:
 2742              	.L144:
 2743 0d28 93040500 		mv	s1,a0
 2744              	.LVL305:
 155:test/../test/ConsumerProducer_CPP_Sync_API_test.hpp ****     consumerThread->start();
 2745              		.loc 2 155 49
 2746 0d2c 13050B00 		mv	a0,s6
 2747 0d30 97000000 		call	_ZdlPv@plt
 2747      E7800000 
 2748              	.LVL306:
 2749 0d38 13850400 		mv	a0,s1
 2750              	.LEHB26:
 2751 0d3c 97000000 		call	_Unwind_Resume@plt
 2751      E7800000 
 2752              	.LVL307:
 2753              	.LEHE26:
 2754              	.L145:
 2755 0d44 93040500 		mv	s1,a0
 2756              	.LVL308:
 2757              	.LBB113:
 164:test/../test/ConsumerProducer_CPP_Sync_API_test.hpp ****         } else {
 2758              		.loc 2 164 45
 2759 0d48 13850C00 		mv	a0,s9
 2760 0d4c 97000000 		call	_ZdlPv@plt
 2760      E7800000 
 2761              	.LVL309:
 2762 0d54 13850400 		mv	a0,s1
 2763              	.LEHB27:
 2764 0d58 97000000 		call	_Unwind_Resume@plt
 2764      E7800000 
 2765              	.LVL310:
 2766              	.LEHE27:
 2767              	.L146:
 2768 0d60 93040500 		mv	s1,a0
 2769              	.LVL311:
 166:test/../test/ConsumerProducer_CPP_Sync_API_test.hpp ****         }
 2770              		.loc 2 166 53
 2771 0d64 13850C00 		mv	a0,s9
 2772 0d68 97000000 		call	_ZdlPv@plt
 2772      E7800000 
 2773              	.LVL312:
 2774 0d70 13850400 		mv	a0,s1
 2775              	.LEHB28:
 2776 0d74 97000000 		call	_Unwind_Resume@plt
 2776      E7800000 
 2777              	.LVL313:
 2778              	.LEHE28:
 2779              	.LBE113:
 2780              		.cfi_endproc
 2781              	.LFE80:
 2782              		.section	.gcc_except_table
 2783              	.LLSDA80:
 2784 00ae FF       		.byte	0xff
 2785 00af FF       		.byte	0xff
 2786 00b0 03       		.byte	0x3
 2787 00b1 D001     		.byte	0xd0,0x1
GAS LISTING /tmp/ccNEPw55.s 			page 65


 2788 00b3 00000000 		.4byte	.LEHB13-.LFB80
 2789 00b7 00000000 		.4byte	.LEHE13-.LEHB13
 2790 00bb 00000000 		.4byte	0
 2791 00bf 00       		.byte	0
 2792 00c0 00000000 		.4byte	.LEHB14-.LFB80
 2793 00c4 00000000 		.4byte	.LEHE14-.LEHB14
 2794 00c8 00000000 		.4byte	.L142-.LFB80
 2795 00cc 00       		.byte	0
 2796 00cd 00000000 		.4byte	.LEHB15-.LFB80
 2797 00d1 00000000 		.4byte	.LEHE15-.LEHB15
 2798 00d5 00000000 		.4byte	0
 2799 00d9 00       		.byte	0
 2800 00da 00000000 		.4byte	.LEHB16-.LFB80
 2801 00de 00000000 		.4byte	.LEHE16-.LEHB16
 2802 00e2 00000000 		.4byte	.L143-.LFB80
 2803 00e6 00       		.byte	0
 2804 00e7 00000000 		.4byte	.LEHB17-.LFB80
 2805 00eb 00000000 		.4byte	.LEHE17-.LEHB17
 2806 00ef 00000000 		.4byte	0
 2807 00f3 00       		.byte	0
 2808 00f4 00000000 		.4byte	.LEHB18-.LFB80
 2809 00f8 00000000 		.4byte	.LEHE18-.LEHB18
 2810 00fc 00000000 		.4byte	.L144-.LFB80
 2811 0100 00       		.byte	0
 2812 0101 00000000 		.4byte	.LEHB19-.LFB80
 2813 0105 00000000 		.4byte	.LEHE19-.LEHB19
 2814 0109 00000000 		.4byte	0
 2815 010d 00       		.byte	0
 2816 010e 00000000 		.4byte	.LEHB20-.LFB80
 2817 0112 00000000 		.4byte	.LEHE20-.LEHB20
 2818 0116 00000000 		.4byte	.L145-.LFB80
 2819 011a 00       		.byte	0
 2820 011b 00000000 		.4byte	.LEHB21-.LFB80
 2821 011f 00000000 		.4byte	.LEHE21-.LEHB21
 2822 0123 00000000 		.4byte	0
 2823 0127 00       		.byte	0
 2824 0128 00000000 		.4byte	.LEHB22-.LFB80
 2825 012c 00000000 		.4byte	.LEHE22-.LEHB22
 2826 0130 00000000 		.4byte	.L146-.LFB80
 2827 0134 00       		.byte	0
 2828 0135 00000000 		.4byte	.LEHB23-.LFB80
 2829 0139 00000000 		.4byte	.LEHE23-.LEHB23
 2830 013d 00000000 		.4byte	0
 2831 0141 00       		.byte	0
 2832 0142 00000000 		.4byte	.LEHB24-.LFB80
 2833 0146 00000000 		.4byte	.LEHE24-.LEHB24
 2834 014a 00000000 		.4byte	0
 2835 014e 00       		.byte	0
 2836 014f 00000000 		.4byte	.LEHB25-.LFB80
 2837 0153 00000000 		.4byte	.LEHE25-.LEHB25
 2838 0157 00000000 		.4byte	0
 2839 015b 00       		.byte	0
 2840 015c 00000000 		.4byte	.LEHB26-.LFB80
 2841 0160 00000000 		.4byte	.LEHE26-.LEHB26
 2842 0164 00000000 		.4byte	0
 2843 0168 00       		.byte	0
 2844 0169 00000000 		.4byte	.LEHB27-.LFB80
GAS LISTING /tmp/ccNEPw55.s 			page 66


 2845 016d 00000000 		.4byte	.LEHE27-.LEHB27
 2846 0171 00000000 		.4byte	0
 2847 0175 00       		.byte	0
 2848 0176 00000000 		.4byte	.LEHB28-.LFB80
 2849 017a 00000000 		.4byte	.LEHE28-.LEHB28
 2850 017e 00000000 		.4byte	0
 2851 0182 00       		.byte	0
 2852              		.text
 2854              		.section	.rodata.str1.8
 2855 01e3 00000000 		.align	3
 2855      00
 2856              	.LC24:
 2857 01e8 436C6173 		.string	"Class1"
 2857      733100
 2858 01ef 00       		.align	3
 2859              	.LC25:
 2860 01f0 2A2A2A2A 		.string	"*****************************BEFORE ALLOCATION*****************************\n\n"
 2860      2A2A2A2A 
 2860      2A2A2A2A 
 2860      2A2A2A2A 
 2860      2A2A2A2A 
 2861 023e 0000     		.align	3
 2862              	.LC26:
 2863 0240 2800     		.string	"("
 2864 0242 00000000 		.align	3
 2864      0000
 2865              	.LC27:
 2866 0248 292000   		.string	") "
 2867 024b 00000000 		.align	3
 2867      00
 2868              	.LC28:
 2869 0250 2000     		.string	" "
 2870              		.text
 2871              		.align	2
 2872              		.globl	_Z11test_adresev
 2874              	_Z11test_adresev:
 2875              	.LFB86:
 2876              		.file 3 "test/userMain.cpp"
   1:test/userMain.cpp **** #include "../test/userMain.hpp"
   2:test/userMain.cpp **** //#include "../test/Threads_C_API_test.hpp" // zadatak 2, niti C API i sinhrona promena konteksta
   3:test/userMain.cpp **** #include "../test/Threads_CPP_API_test.hpp" // zadatak 2., niti CPP API i sinhrona promena kontekst
   4:test/userMain.cpp **** 
   5:test/userMain.cpp **** //#include "../test/ConsumerProducer_C_API_test.h" // zadatak 3., kompletan C API sa semaforima, si
   6:test/userMain.cpp **** #include "../test/ConsumerProducer_CPP_Sync_API_test.hpp" // zadatak 3., kompletan CPP API sa semaf
   7:test/userMain.cpp **** 
   8:test/userMain.cpp **** //#include "../test/ThreadSleep_C_API_test.hpp" // thread_sleep test C API
   9:test/userMain.cpp **** //#include "../test/ConsumerProducer_CPP_API_test.hpp" // zadatak 4. CPP API i asinhrona promena ko
  10:test/userMain.cpp **** //#include "../test/testPrenosParametara.hpp"
  11:test/userMain.cpp **** //#include "../test/modif.hpp"
  12:test/userMain.cpp **** 
  13:test/userMain.cpp **** #include "../h/SlabI.h"
  14:test/userMain.cpp **** #include "../h/Buddy.h"
  15:test/userMain.cpp **** 
  16:test/userMain.cpp **** #include "../h/syscall_cpp.hpp"
  17:test/userMain.cpp **** 
  18:test/userMain.cpp **** #include "printing.hpp"
  19:test/userMain.cpp **** 
GAS LISTING /tmp/ccNEPw55.s 			page 67


  20:test/userMain.cpp **** class Class1 {
  21:test/userMain.cpp **** public:
  22:test/userMain.cpp ****     char c;
  23:test/userMain.cpp **** };
  24:test/userMain.cpp **** 
  25:test/userMain.cpp **** void test_adrese(){
 2877              		.loc 3 25 19 is_stmt 1
 2878              		.cfi_startproc
 2879 0d7c 130101FD 		addi	sp,sp,-48
 2880              		.cfi_def_cfa_offset 48
 2881 0d80 23341102 		sd	ra,40(sp)
 2882 0d84 23308102 		sd	s0,32(sp)
 2883 0d88 233C9100 		sd	s1,24(sp)
 2884 0d8c 23382101 		sd	s2,16(sp)
 2885 0d90 23343101 		sd	s3,8(sp)
 2886              		.cfi_offset 1, -8
 2887              		.cfi_offset 8, -16
 2888              		.cfi_offset 9, -24
 2889              		.cfi_offset 18, -32
 2890              		.cfi_offset 19, -40
 2891 0d94 13040103 		addi	s0,sp,48
 2892              		.cfi_def_cfa 8, 0
  26:test/userMain.cpp ****     kmem_cache_t* cache1 = kmem_cache_create("Class1", sizeof(Class1), nullptr, nullptr);
 2893              		.loc 3 26 5
 2894              		.loc 3 26 45 is_stmt 0
 2895 0d98 93060000 		li	a3,0
 2896 0d9c 13060000 		li	a2,0
 2897 0da0 93051000 		li	a1,1
 2898 0da4 17050000 		lla	a0,.LC24
 2898      13050500 
 2899 0dac 97000000 		call	_Z17kmem_cache_createPKcmPFvPvES3_@plt
 2899      E7800000 
 2900              	.LVL314:
 2901 0db4 93090500 		mv	s3,a0
 2902              	.LVL315:
  27:test/userMain.cpp ****     printString("*****************************BEFORE ALLOCATION*****************************\n\n");
 2903              		.loc 3 27 5 is_stmt 1
 2904              		.loc 3 27 16 is_stmt 0
 2905 0db8 17050000 		lla	a0,.LC25
 2905      13050500 
 2906              	.LVL316:
 2907 0dc0 97000000 		call	_Z11printStringPKc@plt
 2907      E7800000 
 2908              	.LVL317:
  28:test/userMain.cpp ****     kmem_cache_info(cache1);
 2909              		.loc 3 28 5 is_stmt 1
 2910              		.loc 3 28 20 is_stmt 0
 2911 0dc8 13850900 		mv	a0,s3
 2912 0dcc 97000000 		call	_Z15kmem_cache_infoP12kmem_cache_s@plt
 2912      E7800000 
 2913              	.LVL318:
 2914              	.LBB114:
  29:test/userMain.cpp ****     const int arrSize = 1000;
  30:test/userMain.cpp ****     Class1* arr[arrSize];
  31:test/userMain.cpp ****     for (int i = 0; i < arrSize; i++) {
 2915              		.loc 3 31 14
 2916 0dd4 93040000 		li	s1,0
GAS LISTING /tmp/ccNEPw55.s 			page 68


 2917 0dd8 6F008001 		j	.L156
 2918              	.LVL319:
 2919              	.L154:
  32:test/userMain.cpp ****         arr[i] = (Class1*)kmem_cache_alloc(cache1);
  33:test/userMain.cpp ****         printString("(");
  34:test/userMain.cpp ****         printInt(i);
  35:test/userMain.cpp ****         printString(") ");
  36:test/userMain.cpp ****         printInt((size_t)arr[i]);
  37:test/userMain.cpp ****         if (i % 100 == 0)
  38:test/userMain.cpp ****             printString("\n");
  39:test/userMain.cpp ****         else
  40:test/userMain.cpp ****             printString(" ");
 2920              		.loc 3 40 13 is_stmt 1
 2921              		.loc 3 40 24 is_stmt 0
 2922 0ddc 17050000 		lla	a0,.LC28
 2922      13050500 
 2923 0de4 97000000 		call	_Z11printStringPKc@plt
 2923      E7800000 
 2924              	.LVL320:
 2925              	.L155:
  31:test/userMain.cpp ****         arr[i] = (Class1*)kmem_cache_alloc(cache1);
 2926              		.loc 3 31 5 is_stmt 1 discriminator 2
 2927 0dec 9B841400 		addiw	s1,s1,1
 2928              	.LVL321:
 2929              	.L156:
  31:test/userMain.cpp ****         arr[i] = (Class1*)kmem_cache_alloc(cache1);
 2930              		.loc 3 31 23 discriminator 1
 2931 0df0 9307703E 		li	a5,999
 2932 0df4 63CE9706 		bgt	s1,a5,.L153
  32:test/userMain.cpp ****         arr[i] = (Class1*)kmem_cache_alloc(cache1);
 2933              		.loc 3 32 9
  32:test/userMain.cpp ****         arr[i] = (Class1*)kmem_cache_alloc(cache1);
 2934              		.loc 3 32 43 is_stmt 0
 2935 0df8 13850900 		mv	a0,s3
 2936 0dfc 97000000 		call	_Z16kmem_cache_allocP12kmem_cache_s@plt
 2936      E7800000 
 2937              	.LVL322:
 2938 0e04 13090500 		mv	s2,a0
  33:test/userMain.cpp ****         printInt(i);
 2939              		.loc 3 33 9 is_stmt 1
  33:test/userMain.cpp ****         printInt(i);
 2940              		.loc 3 33 20 is_stmt 0
 2941 0e08 17050000 		lla	a0,.LC26
 2941      13050500 
 2942 0e10 97000000 		call	_Z11printStringPKc@plt
 2942      E7800000 
 2943              	.LVL323:
  34:test/userMain.cpp ****         printString(") ");
 2944              		.loc 3 34 9 is_stmt 1
  34:test/userMain.cpp ****         printString(") ");
 2945              		.loc 3 34 17 is_stmt 0
 2946 0e18 13060000 		li	a2,0
 2947 0e1c 9305A000 		li	a1,10
 2948 0e20 13850400 		mv	a0,s1
 2949 0e24 97000000 		call	_Z8printIntiii@plt
 2949      E7800000 
 2950              	.LVL324:
GAS LISTING /tmp/ccNEPw55.s 			page 69


  35:test/userMain.cpp ****         printInt((size_t)arr[i]);
 2951              		.loc 3 35 9 is_stmt 1
  35:test/userMain.cpp ****         printInt((size_t)arr[i]);
 2952              		.loc 3 35 20 is_stmt 0
 2953 0e2c 17050000 		lla	a0,.LC27
 2953      13050500 
 2954 0e34 97000000 		call	_Z11printStringPKc@plt
 2954      E7800000 
 2955              	.LVL325:
  36:test/userMain.cpp ****         if (i % 100 == 0)
 2956              		.loc 3 36 9 is_stmt 1
  36:test/userMain.cpp ****         if (i % 100 == 0)
 2957              		.loc 3 36 17 is_stmt 0
 2958 0e3c 13060000 		li	a2,0
 2959 0e40 9305A000 		li	a1,10
 2960 0e44 1B050900 		sext.w	a0,s2
 2961 0e48 97000000 		call	_Z8printIntiii@plt
 2961      E7800000 
 2962              	.LVL326:
  37:test/userMain.cpp ****             printString("\n");
 2963              		.loc 3 37 9 is_stmt 1
  37:test/userMain.cpp ****             printString("\n");
 2964              		.loc 3 37 15 is_stmt 0
 2965 0e50 93074006 		li	a5,100
 2966 0e54 BBE7F402 		remw	a5,s1,a5
  37:test/userMain.cpp ****             printString("\n");
 2967              		.loc 3 37 9
 2968 0e58 E39207F8 		bnez	a5,.L154
  38:test/userMain.cpp ****         else
 2969              		.loc 3 38 13 is_stmt 1
  38:test/userMain.cpp ****         else
 2970              		.loc 3 38 24 is_stmt 0
 2971 0e5c 17050000 		lla	a0,.LC1
 2971      13050500 
 2972 0e64 97000000 		call	_Z11printStringPKc@plt
 2972      E7800000 
 2973              	.LVL327:
 2974 0e6c 6FF01FF8 		j	.L155
 2975              	.L153:
 2976              	.LBE114:
  41:test/userMain.cpp ****     }
  42:test/userMain.cpp ****     printString("\n");
 2977              		.loc 3 42 5 is_stmt 1
 2978              		.loc 3 42 16 is_stmt 0
 2979 0e70 17050000 		lla	a0,.LC1
 2979      13050500 
 2980 0e78 97000000 		call	_Z11printStringPKc@plt
 2980      E7800000 
 2981              	.LVL328:
  43:test/userMain.cpp ****     printString("*****************************BEFORE ALLOCATION*****************************\n\n");
 2982              		.loc 3 43 5 is_stmt 1
 2983              		.loc 3 43 16 is_stmt 0
 2984 0e80 17050000 		lla	a0,.LC25
 2984      13050500 
 2985 0e88 97000000 		call	_Z11printStringPKc@plt
 2985      E7800000 
 2986              	.LVL329:
GAS LISTING /tmp/ccNEPw55.s 			page 70


  44:test/userMain.cpp **** }
 2987              		.loc 3 44 1
 2988 0e90 83308102 		ld	ra,40(sp)
 2989              		.cfi_restore 1
 2990 0e94 03340102 		ld	s0,32(sp)
 2991              		.cfi_restore 8
 2992              		.cfi_def_cfa 2, 48
 2993 0e98 83348101 		ld	s1,24(sp)
 2994              		.cfi_restore 9
 2995              	.LVL330:
 2996 0e9c 03390101 		ld	s2,16(sp)
 2997              		.cfi_restore 18
 2998 0ea0 83398100 		ld	s3,8(sp)
 2999              		.cfi_restore 19
 3000              	.LVL331:
 3001 0ea4 13010103 		addi	sp,sp,48
 3002              		.cfi_def_cfa_offset 0
 3003 0ea8 67800000 		jr	ra
 3004              		.cfi_endproc
 3005              	.LFE86:
 3007              		.section	.rodata.str1.8
 3008 0252 00000000 		.align	3
 3008      0000
 3009              	.LC29:
 3010 0258 706F6461 		.string	"podatak: "
 3010      74616B3A 
 3010      2000
 3011 0262 00000000 		.align	3
 3011      0000
 3012              	.LC30:
 3013 0268 20616472 		.string	" adresa: "
 3013      6573613A 
 3013      2000
 3014 0272 00000000 		.align	3
 3014      0000
 3015              	.LC31:
 3016 0278 0900     		.string	"\t"
 3017              		.text
 3018              		.align	2
 3019              		.globl	_Z22test_pristup_parametruv
 3021              	_Z22test_pristup_parametruv:
 3022              	.LFB87:
  45:test/userMain.cpp **** 
  46:test/userMain.cpp **** void test_pristup_parametru(){
 3023              		.loc 3 46 30 is_stmt 1
 3024              		.cfi_startproc
 3025 0eac 130101FD 		addi	sp,sp,-48
 3026              		.cfi_def_cfa_offset 48
 3027 0eb0 23341102 		sd	ra,40(sp)
 3028 0eb4 23308102 		sd	s0,32(sp)
 3029 0eb8 233C9100 		sd	s1,24(sp)
 3030 0ebc 23382101 		sd	s2,16(sp)
 3031 0ec0 23343101 		sd	s3,8(sp)
 3032 0ec4 23304101 		sd	s4,0(sp)
 3033              		.cfi_offset 1, -8
 3034              		.cfi_offset 8, -16
 3035              		.cfi_offset 9, -24
GAS LISTING /tmp/ccNEPw55.s 			page 71


 3036              		.cfi_offset 18, -32
 3037              		.cfi_offset 19, -40
 3038              		.cfi_offset 20, -48
 3039 0ec8 13040103 		addi	s0,sp,48
 3040              		.cfi_def_cfa 8, 0
  47:test/userMain.cpp ****     kmem_cache_t* cache1 = kmem_cache_create("Class1", sizeof(Class1), nullptr, nullptr);
 3041              		.loc 3 47 5
 3042              		.loc 3 47 45 is_stmt 0
 3043 0ecc 93060000 		li	a3,0
 3044 0ed0 13060000 		li	a2,0
 3045 0ed4 93051000 		li	a1,1
 3046 0ed8 17050000 		lla	a0,.LC24
 3046      13050500 
 3047 0ee0 97000000 		call	_Z17kmem_cache_createPKcmPFvPvES3_@plt
 3047      E7800000 
 3048              	.LVL332:
 3049 0ee8 130A0500 		mv	s4,a0
 3050              	.LVL333:
  48:test/userMain.cpp ****     printString("*****************************BEFORE ALLOCATION*****************************\n\n");
 3051              		.loc 3 48 5 is_stmt 1
 3052              		.loc 3 48 16 is_stmt 0
 3053 0eec 17050000 		lla	a0,.LC25
 3053      13050500 
 3054              	.LVL334:
 3055 0ef4 97000000 		call	_Z11printStringPKc@plt
 3055      E7800000 
 3056              	.LVL335:
  49:test/userMain.cpp ****     kmem_cache_info(cache1);
 3057              		.loc 3 49 5 is_stmt 1
 3058              		.loc 3 49 20 is_stmt 0
 3059 0efc 13050A00 		mv	a0,s4
 3060 0f00 97000000 		call	_Z15kmem_cache_infoP12kmem_cache_s@plt
 3060      E7800000 
 3061              	.LVL336:
 3062              	.LBB115:
  50:test/userMain.cpp ****     const int arrSize = 8000;
  51:test/userMain.cpp ****     Class1* arr[arrSize];
  52:test/userMain.cpp ****     char c = 'a';
  53:test/userMain.cpp ****     for (int i = 0; i < arrSize; i++) {
 3063              		.loc 3 53 14
 3064 0f08 13090000 		li	s2,0
 3065              	.LBE115:
  52:test/userMain.cpp ****     for (int i = 0; i < arrSize; i++) {
 3066              		.loc 3 52 10
 3067 0f0c 93091006 		li	s3,97
 3068 0f10 6F000002 		j	.L163
 3069              	.LVL337:
 3070              	.L164:
 3071              	.LBB116:
  54:test/userMain.cpp ****         arr[i] = (Class1*)kmem_cache_alloc(cache1);
  55:test/userMain.cpp ****         printString("(");
  56:test/userMain.cpp ****         printInt(i);
  57:test/userMain.cpp ****         printString(") ");
  58:test/userMain.cpp ****         arr[i]->c = c;
  59:test/userMain.cpp ****         if(c++ == 'a' + 30){
  60:test/userMain.cpp ****             c = 'a';
 3072              		.loc 3 60 15
GAS LISTING /tmp/ccNEPw55.s 			page 72


 3073 0f14 93091006 		li	s3,97
 3074 0f18 6F000008 		j	.L160
 3075              	.LVL338:
 3076              	.L161:
  61:test/userMain.cpp ****         }
  62:test/userMain.cpp ****         printString("podatak: ");
  63:test/userMain.cpp ****         printInt(arr[i]->c);
  64:test/userMain.cpp ****         printString(" adresa: ");
  65:test/userMain.cpp ****         printInt((size_t)arr[i]);
  66:test/userMain.cpp ****         printString("\t");
  67:test/userMain.cpp ****         if (i % 100 == 0)
  68:test/userMain.cpp ****             printString("\n");
  69:test/userMain.cpp ****         else
  70:test/userMain.cpp ****             printString(" ");
 3077              		.loc 3 70 13 is_stmt 1
 3078              		.loc 3 70 24 is_stmt 0
 3079 0f1c 17050000 		lla	a0,.LC28
 3079      13050500 
 3080 0f24 97000000 		call	_Z11printStringPKc@plt
 3080      E7800000 
 3081              	.LVL339:
 3082              	.L162:
  53:test/userMain.cpp ****         arr[i] = (Class1*)kmem_cache_alloc(cache1);
 3083              		.loc 3 53 5 is_stmt 1 discriminator 2
 3084 0f2c 1B091900 		addiw	s2,s2,1
 3085              	.LVL340:
 3086              	.L163:
  53:test/userMain.cpp ****         arr[i] = (Class1*)kmem_cache_alloc(cache1);
 3087              		.loc 3 53 23 discriminator 1
 3088 0f30 B7270000 		li	a5,8192
 3089 0f34 9387F7F3 		addi	a5,a5,-193
 3090 0f38 63CC270D 		bgt	s2,a5,.L159
  54:test/userMain.cpp ****         arr[i] = (Class1*)kmem_cache_alloc(cache1);
 3091              		.loc 3 54 9
  54:test/userMain.cpp ****         arr[i] = (Class1*)kmem_cache_alloc(cache1);
 3092              		.loc 3 54 43 is_stmt 0
 3093 0f3c 13050A00 		mv	a0,s4
 3094 0f40 97000000 		call	_Z16kmem_cache_allocP12kmem_cache_s@plt
 3094      E7800000 
 3095              	.LVL341:
 3096 0f48 93040500 		mv	s1,a0
  55:test/userMain.cpp ****         printInt(i);
 3097              		.loc 3 55 9 is_stmt 1
  55:test/userMain.cpp ****         printInt(i);
 3098              		.loc 3 55 20 is_stmt 0
 3099 0f4c 17050000 		lla	a0,.LC26
 3099      13050500 
 3100 0f54 97000000 		call	_Z11printStringPKc@plt
 3100      E7800000 
 3101              	.LVL342:
  56:test/userMain.cpp ****         printString(") ");
 3102              		.loc 3 56 9 is_stmt 1
  56:test/userMain.cpp ****         printString(") ");
 3103              		.loc 3 56 17 is_stmt 0
 3104 0f5c 13060000 		li	a2,0
 3105 0f60 9305A000 		li	a1,10
 3106 0f64 13050900 		mv	a0,s2
GAS LISTING /tmp/ccNEPw55.s 			page 73


 3107 0f68 97000000 		call	_Z8printIntiii@plt
 3107      E7800000 
 3108              	.LVL343:
  57:test/userMain.cpp ****         arr[i]->c = c;
 3109              		.loc 3 57 9 is_stmt 1
  57:test/userMain.cpp ****         arr[i]->c = c;
 3110              		.loc 3 57 20 is_stmt 0
 3111 0f70 17050000 		lla	a0,.LC27
 3111      13050500 
 3112 0f78 97000000 		call	_Z11printStringPKc@plt
 3112      E7800000 
 3113              	.LVL344:
  58:test/userMain.cpp ****         if(c++ == 'a' + 30){
 3114              		.loc 3 58 9 is_stmt 1
  58:test/userMain.cpp ****         if(c++ == 'a' + 30){
 3115              		.loc 3 58 19 is_stmt 0
 3116 0f80 23803401 		sb	s3,0(s1)
  59:test/userMain.cpp ****             c = 'a';
 3117              		.loc 3 59 9 is_stmt 1
  59:test/userMain.cpp ****             c = 'a';
 3118              		.loc 3 59 13 is_stmt 0
 3119 0f84 9B871900 		addiw	a5,s3,1
 3120 0f88 93F7F70F 		andi	a5,a5,0xff
 3121              	.LVL345:
  59:test/userMain.cpp ****             c = 'a';
 3122              		.loc 3 59 9
 3123 0f8c 1307F007 		li	a4,127
 3124 0f90 E382E9F8 		beq	s3,a4,.L164
  59:test/userMain.cpp ****             c = 'a';
 3125              		.loc 3 59 13
 3126 0f94 93890700 		mv	s3,a5
 3127              	.L160:
 3128              	.LVL346:
  62:test/userMain.cpp ****         printInt(arr[i]->c);
 3129              		.loc 3 62 9 is_stmt 1
  62:test/userMain.cpp ****         printInt(arr[i]->c);
 3130              		.loc 3 62 20 is_stmt 0
 3131 0f98 17050000 		lla	a0,.LC29
 3131      13050500 
 3132 0fa0 97000000 		call	_Z11printStringPKc@plt
 3132      E7800000 
 3133              	.LVL347:
  63:test/userMain.cpp ****         printString(" adresa: ");
 3134              		.loc 3 63 9 is_stmt 1
  63:test/userMain.cpp ****         printString(" adresa: ");
 3135              		.loc 3 63 17 is_stmt 0
 3136 0fa8 13060000 		li	a2,0
 3137 0fac 9305A000 		li	a1,10
 3138 0fb0 03C50400 		lbu	a0,0(s1)
 3139 0fb4 97000000 		call	_Z8printIntiii@plt
 3139      E7800000 
 3140              	.LVL348:
  64:test/userMain.cpp ****         printInt((size_t)arr[i]);
 3141              		.loc 3 64 9 is_stmt 1
  64:test/userMain.cpp ****         printInt((size_t)arr[i]);
 3142              		.loc 3 64 20 is_stmt 0
 3143 0fbc 17050000 		lla	a0,.LC30
GAS LISTING /tmp/ccNEPw55.s 			page 74


 3143      13050500 
 3144 0fc4 97000000 		call	_Z11printStringPKc@plt
 3144      E7800000 
 3145              	.LVL349:
  65:test/userMain.cpp ****         printString("\t");
 3146              		.loc 3 65 9 is_stmt 1
  65:test/userMain.cpp ****         printString("\t");
 3147              		.loc 3 65 17 is_stmt 0
 3148 0fcc 13060000 		li	a2,0
 3149 0fd0 9305A000 		li	a1,10
 3150 0fd4 1B850400 		sext.w	a0,s1
 3151 0fd8 97000000 		call	_Z8printIntiii@plt
 3151      E7800000 
 3152              	.LVL350:
  66:test/userMain.cpp ****         if (i % 100 == 0)
 3153              		.loc 3 66 9 is_stmt 1
  66:test/userMain.cpp ****         if (i % 100 == 0)
 3154              		.loc 3 66 20 is_stmt 0
 3155 0fe0 17050000 		lla	a0,.LC31
 3155      13050500 
 3156 0fe8 97000000 		call	_Z11printStringPKc@plt
 3156      E7800000 
 3157              	.LVL351:
  67:test/userMain.cpp ****             printString("\n");
 3158              		.loc 3 67 9 is_stmt 1
  67:test/userMain.cpp ****             printString("\n");
 3159              		.loc 3 67 15 is_stmt 0
 3160 0ff0 93074006 		li	a5,100
 3161 0ff4 BB67F902 		remw	a5,s2,a5
  67:test/userMain.cpp ****             printString("\n");
 3162              		.loc 3 67 9
 3163 0ff8 E39207F2 		bnez	a5,.L161
  68:test/userMain.cpp ****         else
 3164              		.loc 3 68 13 is_stmt 1
  68:test/userMain.cpp ****         else
 3165              		.loc 3 68 24 is_stmt 0
 3166 0ffc 17050000 		lla	a0,.LC1
 3166      13050500 
 3167 1004 97000000 		call	_Z11printStringPKc@plt
 3167      E7800000 
 3168              	.LVL352:
 3169 100c 6FF01FF2 		j	.L162
 3170              	.L159:
 3171              	.LBE116:
  71:test/userMain.cpp ****     }
  72:test/userMain.cpp ****     printString("\n");
 3172              		.loc 3 72 5 is_stmt 1
 3173              		.loc 3 72 16 is_stmt 0
 3174 1010 17050000 		lla	a0,.LC1
 3174      13050500 
 3175 1018 97000000 		call	_Z11printStringPKc@plt
 3175      E7800000 
 3176              	.LVL353:
  73:test/userMain.cpp ****     printString("*****************************BEFORE ALLOCATION*****************************\n\n");
 3177              		.loc 3 73 5 is_stmt 1
 3178              		.loc 3 73 16 is_stmt 0
 3179 1020 17050000 		lla	a0,.LC25
GAS LISTING /tmp/ccNEPw55.s 			page 75


 3179      13050500 
 3180 1028 97000000 		call	_Z11printStringPKc@plt
 3180      E7800000 
 3181              	.LVL354:
  74:test/userMain.cpp **** }
 3182              		.loc 3 74 1
 3183 1030 83308102 		ld	ra,40(sp)
 3184              		.cfi_restore 1
 3185 1034 03340102 		ld	s0,32(sp)
 3186              		.cfi_restore 8
 3187              		.cfi_def_cfa 2, 48
 3188 1038 83348101 		ld	s1,24(sp)
 3189              		.cfi_restore 9
 3190 103c 03390101 		ld	s2,16(sp)
 3191              		.cfi_restore 18
 3192              	.LVL355:
 3193 1040 83398100 		ld	s3,8(sp)
 3194              		.cfi_restore 19
 3195              	.LVL356:
 3196 1044 033A0100 		ld	s4,0(sp)
 3197              		.cfi_restore 20
 3198              	.LVL357:
 3199 1048 13010103 		addi	sp,sp,48
 3200              		.cfi_def_cfa_offset 0
 3201 104c 67800000 		jr	ra
 3202              		.cfi_endproc
 3203              	.LFE87:
 3205              		.section	.rodata.str1.8
 3206 027a 00000000 		.align	3
 3206      0000
 3207              	.LC32:
 3208 0280 2A2A2A2A 		.string	"*****************************AFTER ALLOCATION******************************\n\n"
 3208      2A2A2A2A 
 3208      2A2A2A2A 
 3208      2A2A2A2A 
 3208      2A2A2A2A 
 3209 02ce 0000     		.align	3
 3210              	.LC33:
 3211 02d0 4E657573 		.string	"Neuspesna dealokacija: "
 3211      7065736E 
 3211      61206465 
 3211      616C6F6B 
 3211      6163696A 
 3212              		.align	3
 3213              	.LC34:
 3214 02e8 2C206E61 		.string	", na adresi: "
 3214      20616472 
 3214      6573693A 
 3214      2000
 3215 02f6 0000     		.align	3
 3216              	.LC35:
 3217 02f8 2A2A2A2A 		.string	"*****************************AFTER DEALLOCATION****************************\n\n"
 3217      2A2A2A2A 
 3217      2A2A2A2A 
 3217      2A2A2A2A 
 3217      2A2A2A2A 
 3218              		.text
GAS LISTING /tmp/ccNEPw55.s 			page 76


 3219              		.align	2
 3220              		.globl	_Z16test_performansiv
 3222              	_Z16test_performansiv:
 3223              	.LFB88:
  75:test/userMain.cpp **** 
  76:test/userMain.cpp **** const int arrSize = 100000;
  77:test/userMain.cpp **** //const int arrSize = 2032;
  78:test/userMain.cpp **** Class1* arr[arrSize];
  79:test/userMain.cpp **** 
  80:test/userMain.cpp **** void test_performansi() {
 3224              		.loc 3 80 25 is_stmt 1
 3225              		.cfi_startproc
 3226 1050 130101FE 		addi	sp,sp,-32
 3227              		.cfi_def_cfa_offset 32
 3228 1054 233C1100 		sd	ra,24(sp)
 3229 1058 23388100 		sd	s0,16(sp)
 3230 105c 23349100 		sd	s1,8(sp)
 3231 1060 23302101 		sd	s2,0(sp)
 3232              		.cfi_offset 1, -8
 3233              		.cfi_offset 8, -16
 3234              		.cfi_offset 9, -24
 3235              		.cfi_offset 18, -32
 3236 1064 13040102 		addi	s0,sp,32
 3237              		.cfi_def_cfa 8, 0
  81:test/userMain.cpp ****     kmem_cache_t* cache1 = kmem_cache_create("Class1", sizeof(Class1), nullptr, nullptr);
 3238              		.loc 3 81 5
 3239              		.loc 3 81 45 is_stmt 0
 3240 1068 93060000 		li	a3,0
 3241 106c 13060000 		li	a2,0
 3242 1070 93051000 		li	a1,1
 3243 1074 17050000 		lla	a0,.LC24
 3243      13050500 
 3244 107c 97000000 		call	_Z17kmem_cache_createPKcmPFvPvES3_@plt
 3244      E7800000 
 3245              	.LVL358:
 3246 1084 13090500 		mv	s2,a0
 3247              	.LVL359:
  82:test/userMain.cpp ****     printString("*****************************BEFORE ALLOCATION*****************************\n\n");
 3248              		.loc 3 82 5 is_stmt 1
 3249              		.loc 3 82 16 is_stmt 0
 3250 1088 17050000 		lla	a0,.LC25
 3250      13050500 
 3251              	.LVL360:
 3252 1090 97000000 		call	_Z11printStringPKc@plt
 3252      E7800000 
 3253              	.LVL361:
  83:test/userMain.cpp ****     kmem_cache_info(cache1);
 3254              		.loc 3 83 5 is_stmt 1
 3255              		.loc 3 83 20 is_stmt 0
 3256 1098 13050900 		mv	a0,s2
 3257 109c 97000000 		call	_Z15kmem_cache_infoP12kmem_cache_s@plt
 3257      E7800000 
 3258              	.LVL362:
  84:test/userMain.cpp ****     for (int i = 0; i < arrSize; i++) {
 3259              		.loc 3 84 5 is_stmt 1
 3260              	.LBB117:
 3261              		.loc 3 84 14 is_stmt 0
GAS LISTING /tmp/ccNEPw55.s 			page 77


 3262 10a4 93040000 		li	s1,0
 3263              	.LVL363:
 3264              	.L168:
 3265              		.loc 3 84 23 is_stmt 1 discriminator 3
 3266 10a8 B7870100 		li	a5,98304
 3267 10ac 9387F769 		addi	a5,a5,1695
 3268 10b0 63C69702 		bgt	s1,a5,.L167
  85:test/userMain.cpp ****         arr[i] = (Class1*)kmem_cache_alloc(cache1);
 3269              		.loc 3 85 9 discriminator 2
 3270              		.loc 3 85 43 is_stmt 0 discriminator 2
 3271 10b4 13050900 		mv	a0,s2
 3272 10b8 97000000 		call	_Z16kmem_cache_allocP12kmem_cache_s@plt
 3272      E7800000 
 3273              	.LVL364:
 3274              		.loc 3 85 16 discriminator 2
 3275 10c0 13973400 		slli	a4,s1,3
 3276 10c4 97070000 		lla	a5,arr
 3276      93870700 
 3277 10cc B387E700 		add	a5,a5,a4
 3278 10d0 23B0A700 		sd	a0,0(a5)
  84:test/userMain.cpp ****     for (int i = 0; i < arrSize; i++) {
 3279              		.loc 3 84 5 is_stmt 1 discriminator 2
 3280 10d4 9B841400 		addiw	s1,s1,1
 3281              	.LVL365:
 3282 10d8 6FF01FFD 		j	.L168
 3283              	.LVL366:
 3284              	.L167:
 3285              	.LBE117:
  86:test/userMain.cpp **** //        printInt((size_t)arr[i]);
  87:test/userMain.cpp **** //        printString("\n");
  88:test/userMain.cpp ****     }
  89:test/userMain.cpp ****     printString("*****************************AFTER ALLOCATION******************************\n\n");
 3286              		.loc 3 89 5
 3287              		.loc 3 89 16 is_stmt 0
 3288 10dc 17050000 		lla	a0,.LC32
 3288      13050500 
 3289 10e4 97000000 		call	_Z11printStringPKc@plt
 3289      E7800000 
 3290              	.LVL367:
  90:test/userMain.cpp ****     kmem_cache_info(cache1);
 3291              		.loc 3 90 5 is_stmt 1
 3292              		.loc 3 90 20 is_stmt 0
 3293 10ec 13050900 		mv	a0,s2
 3294 10f0 97000000 		call	_Z15kmem_cache_infoP12kmem_cache_s@plt
 3294      E7800000 
 3295              	.LVL368:
  91:test/userMain.cpp ****     kmem_cache_free(cache1, arr[0]);
 3296              		.loc 3 91 5 is_stmt 1
 3297              		.loc 3 91 20 is_stmt 0
 3298 10f8 97050000 		ld	a1,arr
 3298      83B50500 
 3299 1100 13050900 		mv	a0,s2
 3300 1104 97000000 		call	_Z15kmem_cache_freeP12kmem_cache_sPv@plt
 3300      E7800000 
 3301              	.LVL369:
  92:test/userMain.cpp ****     for (int i = 0; i < arrSize; i++) {
 3302              		.loc 3 92 5 is_stmt 1
GAS LISTING /tmp/ccNEPw55.s 			page 78


 3303              	.LBB118:
 3304              		.loc 3 92 14 is_stmt 0
 3305 110c 93040000 		li	s1,0
 3306              	.LVL370:
 3307 1110 6F000007 		j	.L171
 3308              	.LVL371:
 3309              	.L173:
 3310              	.LBB119:
  93:test/userMain.cpp **** //        if(i == 2023){
  94:test/userMain.cpp **** //            kmem_cache_info(cache1);
  95:test/userMain.cpp **** //        }
  96:test/userMain.cpp ****         int ret = kmem_cache_free(cache1, arr[i]);
  97:test/userMain.cpp ****         if(ret == -1){
  98:test/userMain.cpp **** //            if(i == 2023){
  99:test/userMain.cpp **** //                kmem_cache_info(cache1);
 100:test/userMain.cpp **** //            }
 101:test/userMain.cpp ****             printString("Neuspesna dealokacija: ");
 3311              		.loc 3 101 13 is_stmt 1
 3312              		.loc 3 101 24 is_stmt 0
 3313 1114 17050000 		lla	a0,.LC33
 3313      13050500 
 3314              	.LVL372:
 3315 111c 97000000 		call	_Z11printStringPKc@plt
 3315      E7800000 
 3316              	.LVL373:
 102:test/userMain.cpp ****             printInt(i);
 3317              		.loc 3 102 13 is_stmt 1
 3318              		.loc 3 102 21 is_stmt 0
 3319 1124 13060000 		li	a2,0
 3320 1128 9305A000 		li	a1,10
 3321 112c 13850400 		mv	a0,s1
 3322 1130 97000000 		call	_Z8printIntiii@plt
 3322      E7800000 
 3323              	.LVL374:
 103:test/userMain.cpp ****             printString(", na adresi: ");
 3324              		.loc 3 103 13 is_stmt 1
 3325              		.loc 3 103 24 is_stmt 0
 3326 1138 17050000 		lla	a0,.LC34
 3326      13050500 
 3327 1140 97000000 		call	_Z11printStringPKc@plt
 3327      E7800000 
 3328              	.LVL375:
 104:test/userMain.cpp ****             printInt((size_t)arr[i]);
 3329              		.loc 3 104 13 is_stmt 1
 3330              		.loc 3 104 35 is_stmt 0
 3331 1148 13973400 		slli	a4,s1,3
 3332 114c 97070000 		lla	a5,arr
 3332      93870700 
 3333 1154 B387E700 		add	a5,a5,a4
 3334              		.loc 3 104 21
 3335 1158 13060000 		li	a2,0
 3336 115c 9305A000 		li	a1,10
 3337 1160 03A50700 		lw	a0,0(a5)
 3338 1164 97000000 		call	_Z8printIntiii@plt
 3338      E7800000 
 3339              	.LVL376:
 105:test/userMain.cpp ****             printString("\n");
GAS LISTING /tmp/ccNEPw55.s 			page 79


 3340              		.loc 3 105 13 is_stmt 1
 3341              		.loc 3 105 24 is_stmt 0
 3342 116c 17050000 		lla	a0,.LC1
 3342      13050500 
 3343 1174 97000000 		call	_Z11printStringPKc@plt
 3343      E7800000 
 3344              	.LVL377:
 3345              	.L170:
 3346              	.LBE119:
  92:test/userMain.cpp **** //        if(i == 2023){
 3347              		.loc 3 92 5 is_stmt 1 discriminator 2
 3348 117c 9B841400 		addiw	s1,s1,1
 3349              	.LVL378:
 3350              	.L171:
  92:test/userMain.cpp **** //        if(i == 2023){
 3351              		.loc 3 92 23 discriminator 1
 3352 1180 B7870100 		li	a5,98304
 3353 1184 9387F769 		addi	a5,a5,1695
 3354 1188 63C89702 		bgt	s1,a5,.L169
 3355              	.LBB120:
  96:test/userMain.cpp ****         if(ret == -1){
 3356              		.loc 3 96 9
  96:test/userMain.cpp ****         if(ret == -1){
 3357              		.loc 3 96 48 is_stmt 0
 3358 118c 13973400 		slli	a4,s1,3
 3359 1190 97070000 		lla	a5,arr
 3359      93870700 
 3360 1198 B387E700 		add	a5,a5,a4
  96:test/userMain.cpp ****         if(ret == -1){
 3361              		.loc 3 96 34
 3362 119c 83B50700 		ld	a1,0(a5)
 3363 11a0 13050900 		mv	a0,s2
 3364 11a4 97000000 		call	_Z15kmem_cache_freeP12kmem_cache_sPv@plt
 3364      E7800000 
 3365              	.LVL379:
  97:test/userMain.cpp **** //            if(i == 2023){
 3366              		.loc 3 97 9 is_stmt 1
 3367 11ac 9307F0FF 		li	a5,-1
 3368 11b0 E316F5FC 		bne	a0,a5,.L170
 3369 11b4 6FF01FF6 		j	.L173
 3370              	.LVL380:
 3371              	.L169:
 3372              	.LBE120:
 3373              	.LBE118:
 106:test/userMain.cpp ****         }
 107:test/userMain.cpp ****     }
 108:test/userMain.cpp ****     printString("*****************************AFTER DEALLOCATION****************************\n\n");
 3374              		.loc 3 108 5
 3375              		.loc 3 108 16 is_stmt 0
 3376 11b8 17050000 		lla	a0,.LC35
 3376      13050500 
 3377 11c0 97000000 		call	_Z11printStringPKc@plt
 3377      E7800000 
 3378              	.LVL381:
 109:test/userMain.cpp ****     kmem_cache_info(cache1);
 3379              		.loc 3 109 5 is_stmt 1
 3380              		.loc 3 109 20 is_stmt 0
GAS LISTING /tmp/ccNEPw55.s 			page 80


 3381 11c8 13050900 		mv	a0,s2
 3382 11cc 97000000 		call	_Z15kmem_cache_infoP12kmem_cache_s@plt
 3382      E7800000 
 3383              	.LVL382:
 110:test/userMain.cpp **** }
 3384              		.loc 3 110 1
 3385 11d4 83308101 		ld	ra,24(sp)
 3386              		.cfi_restore 1
 3387 11d8 03340101 		ld	s0,16(sp)
 3388              		.cfi_restore 8
 3389              		.cfi_def_cfa 2, 32
 3390 11dc 83348100 		ld	s1,8(sp)
 3391              		.cfi_restore 9
 3392              	.LVL383:
 3393 11e0 03390100 		ld	s2,0(sp)
 3394              		.cfi_restore 18
 3395              	.LVL384:
 3396 11e4 13010102 		addi	sp,sp,32
 3397              		.cfi_def_cfa_offset 0
 3398 11e8 67800000 		jr	ra
 3399              		.cfi_endproc
 3400              	.LFE88:
 3402              		.section	.rodata.str1.8
 3403 0346 0000     		.align	3
 3404              	.LC36:
 3405 0348 4E61646A 		.string	"Nadjena razlika sa prethodnom adresom: "
 3405      656E6120 
 3405      72617A6C 
 3405      696B6120 
 3405      73612070 
 3406              		.align	3
 3407              	.LC37:
 3408 0370 4E61646A 		.string	"Nadjene dve uzastopne iste adrese"
 3408      656E6520 
 3408      64766520 
 3408      757A6173 
 3408      746F706E 
 3409              		.text
 3410              		.align	2
 3411              		.globl	_Z23test_razlika_u_adresamav
 3413              	_Z23test_razlika_u_adresamav:
 3414              	.LFB89:
 111:test/userMain.cpp **** 
 112:test/userMain.cpp **** void test_razlika_u_adresama(){
 3415              		.loc 3 112 31 is_stmt 1
 3416              		.cfi_startproc
 3417 11ec 130101FC 		addi	sp,sp,-64
 3418              		.cfi_def_cfa_offset 64
 3419 11f0 233C1102 		sd	ra,56(sp)
 3420 11f4 23388102 		sd	s0,48(sp)
 3421 11f8 23349102 		sd	s1,40(sp)
 3422 11fc 23302103 		sd	s2,32(sp)
 3423 1200 233C3101 		sd	s3,24(sp)
 3424 1204 23384101 		sd	s4,16(sp)
 3425 1208 23345101 		sd	s5,8(sp)
 3426              		.cfi_offset 1, -8
 3427              		.cfi_offset 8, -16
GAS LISTING /tmp/ccNEPw55.s 			page 81


 3428              		.cfi_offset 9, -24
 3429              		.cfi_offset 18, -32
 3430              		.cfi_offset 19, -40
 3431              		.cfi_offset 20, -48
 3432              		.cfi_offset 21, -56
 3433 120c 13040104 		addi	s0,sp,64
 3434              		.cfi_def_cfa 8, 0
 113:test/userMain.cpp ****     kmem_cache_t* cache1 = kmem_cache_create("Class1", sizeof(Class1), nullptr, nullptr);
 3435              		.loc 3 113 5
 3436              		.loc 3 113 45 is_stmt 0
 3437 1210 93060000 		li	a3,0
 3438 1214 13060000 		li	a2,0
 3439 1218 93051000 		li	a1,1
 3440 121c 17050000 		lla	a0,.LC24
 3440      13050500 
 3441 1224 97000000 		call	_Z17kmem_cache_createPKcmPFvPvES3_@plt
 3441      E7800000 
 3442              	.LVL385:
 3443 122c 930A0500 		mv	s5,a0
 3444              	.LVL386:
 114:test/userMain.cpp ****     printString("*****************************BEFORE ALLOCATION*****************************\n\n");
 3445              		.loc 3 114 5 is_stmt 1
 3446              		.loc 3 114 16 is_stmt 0
 3447 1230 17050000 		lla	a0,.LC25
 3447      13050500 
 3448              	.LVL387:
 3449 1238 97000000 		call	_Z11printStringPKc@plt
 3449      E7800000 
 3450              	.LVL388:
 115:test/userMain.cpp ****     kmem_cache_info(cache1);
 3451              		.loc 3 115 5 is_stmt 1
 3452              		.loc 3 115 20 is_stmt 0
 3453 1240 13850A00 		mv	a0,s5
 3454 1244 97000000 		call	_Z15kmem_cache_infoP12kmem_cache_s@plt
 3454      E7800000 
 3455              	.LVL389:
 3456              	.LBB121:
 116:test/userMain.cpp ****     Class1* arr[arrSize];
 117:test/userMain.cpp ****     size_t prevAddr = 0;
 118:test/userMain.cpp ****     for (int i = 0; i < arrSize; i++) {
 3457              		.loc 3 118 14
 3458 124c 93090000 		li	s3,0
 3459              	.LBE121:
 117:test/userMain.cpp ****     for (int i = 0; i < arrSize; i++) {
 3460              		.loc 3 117 12
 3461 1250 13090000 		li	s2,0
 3462 1254 6F004004 		j	.L178
 3463              	.LVL390:
 3464              	.L181:
 3465              	.LBB122:
 119:test/userMain.cpp ****         arr[i] = (Class1*)kmem_cache_alloc(cache1);
 120:test/userMain.cpp ****         if ((size_t)arr[i] - prevAddr != 1 && prevAddr != 0) {
 121:test/userMain.cpp ****             printString("Nadjena razlika sa prethodnom adresom: ");
 3466              		.loc 3 121 13 is_stmt 1
 3467              		.loc 3 121 24 is_stmt 0
 3468 1258 17050000 		lla	a0,.LC36
 3468      13050500 
GAS LISTING /tmp/ccNEPw55.s 			page 82


 3469 1260 97000000 		call	_Z11printStringPKc@plt
 3469      E7800000 
 3470              	.LVL391:
 122:test/userMain.cpp ****             printInt((size_t)arr[i]);
 3471              		.loc 3 122 13 is_stmt 1
 3472              		.loc 3 122 21 is_stmt 0
 3473 1268 13060000 		li	a2,0
 3474 126c 9305A000 		li	a1,10
 3475 1270 1B850400 		sext.w	a0,s1
 3476 1274 97000000 		call	_Z8printIntiii@plt
 3476      E7800000 
 3477              	.LVL392:
 123:test/userMain.cpp ****             printString("\n");
 3478              		.loc 3 123 13 is_stmt 1
 3479              		.loc 3 123 24 is_stmt 0
 3480 127c 17050000 		lla	a0,.LC1
 3480      13050500 
 3481 1284 97000000 		call	_Z11printStringPKc@plt
 3481      E7800000 
 3482              	.LVL393:
 3483              	.L176:
 124:test/userMain.cpp ****         }
 125:test/userMain.cpp ****         if((size_t)arr[i] - prevAddr == 0){
 3484              		.loc 3 125 9 is_stmt 1
 3485 128c 63002A05 		beq	s4,s2,.L180
 3486              	.L177:
 126:test/userMain.cpp ****             printString("Nadjene dve uzastopne iste adrese");
 127:test/userMain.cpp ****             printInt((size_t)arr[i]);
 128:test/userMain.cpp ****             printString("\n");
 129:test/userMain.cpp ****         }
 130:test/userMain.cpp **** //        for(int j = 0; j < i; j++){
 131:test/userMain.cpp **** //            if((size_t)arr[i] - (size_t)arr[j] == 0){
 132:test/userMain.cpp **** //                printString("Ova adresa ima duplikat: ");
 133:test/userMain.cpp **** //                printInt((size_t)arr[i]);
 134:test/userMain.cpp **** //                printString("\n");
 135:test/userMain.cpp **** //            }
 136:test/userMain.cpp **** //        }
 137:test/userMain.cpp ****         prevAddr = (size_t)arr[i];
 3487              		.loc 3 137 9 discriminator 2
 3488              	.LVL394:
 118:test/userMain.cpp ****         arr[i] = (Class1*)kmem_cache_alloc(cache1);
 3489              		.loc 3 118 5 discriminator 2
 3490 1290 9B891900 		addiw	s3,s3,1
 3491              	.LVL395:
 3492              		.loc 3 137 18 is_stmt 0 discriminator 2
 3493 1294 13890400 		mv	s2,s1
 3494              	.LVL396:
 3495              	.L178:
 118:test/userMain.cpp ****         arr[i] = (Class1*)kmem_cache_alloc(cache1);
 3496              		.loc 3 118 23 is_stmt 1 discriminator 1
 3497 1298 B7870100 		li	a5,98304
 3498 129c 9387F769 		addi	a5,a5,1695
 3499 12a0 63C23707 		bgt	s3,a5,.L175
 119:test/userMain.cpp ****         if ((size_t)arr[i] - prevAddr != 1 && prevAddr != 0) {
 3500              		.loc 3 119 9
 119:test/userMain.cpp ****         if ((size_t)arr[i] - prevAddr != 1 && prevAddr != 0) {
 3501              		.loc 3 119 43 is_stmt 0
GAS LISTING /tmp/ccNEPw55.s 			page 83


 3502 12a4 13850A00 		mv	a0,s5
 3503 12a8 97000000 		call	_Z16kmem_cache_allocP12kmem_cache_s@plt
 3503      E7800000 
 3504              	.LVL397:
 3505 12b0 93040500 		mv	s1,a0
 120:test/userMain.cpp ****             printString("Nadjena razlika sa prethodnom adresom: ");
 3506              		.loc 3 120 9 is_stmt 1
 120:test/userMain.cpp ****             printString("Nadjena razlika sa prethodnom adresom: ");
 3507              		.loc 3 120 28 is_stmt 0
 3508 12b4 130A0500 		mv	s4,a0
 3509 12b8 33072541 		sub	a4,a0,s2
 120:test/userMain.cpp ****             printString("Nadjena razlika sa prethodnom adresom: ");
 3510              		.loc 3 120 9
 3511 12bc 93071000 		li	a5,1
 3512 12c0 E306F7FC 		beq	a4,a5,.L176
 120:test/userMain.cpp ****             printString("Nadjena razlika sa prethodnom adresom: ");
 3513              		.loc 3 120 44 discriminator 1
 3514 12c4 E30409FC 		beqz	s2,.L176
 3515 12c8 6FF01FF9 		j	.L181
 3516              	.L180:
 126:test/userMain.cpp ****             printInt((size_t)arr[i]);
 3517              		.loc 3 126 13 is_stmt 1
 126:test/userMain.cpp ****             printInt((size_t)arr[i]);
 3518              		.loc 3 126 24 is_stmt 0
 3519 12cc 17050000 		lla	a0,.LC37
 3519      13050500 
 3520 12d4 97000000 		call	_Z11printStringPKc@plt
 3520      E7800000 
 3521              	.LVL398:
 127:test/userMain.cpp ****             printString("\n");
 3522              		.loc 3 127 13 is_stmt 1
 127:test/userMain.cpp ****             printString("\n");
 3523              		.loc 3 127 21 is_stmt 0
 3524 12dc 13060000 		li	a2,0
 3525 12e0 9305A000 		li	a1,10
 3526 12e4 1B850400 		sext.w	a0,s1
 3527 12e8 97000000 		call	_Z8printIntiii@plt
 3527      E7800000 
 3528              	.LVL399:
 128:test/userMain.cpp ****         }
 3529              		.loc 3 128 13 is_stmt 1
 128:test/userMain.cpp ****         }
 3530              		.loc 3 128 24 is_stmt 0
 3531 12f0 17050000 		lla	a0,.LC1
 3531      13050500 
 3532 12f8 97000000 		call	_Z11printStringPKc@plt
 3532      E7800000 
 3533              	.LVL400:
 3534 1300 6FF01FF9 		j	.L177
 3535              	.L175:
 3536              	.LBE122:
 138:test/userMain.cpp **** 
 139:test/userMain.cpp ****     }
 140:test/userMain.cpp ****     printString("*****************************AFTER ALLOCATION******************************\n\n");
 3537              		.loc 3 140 5 is_stmt 1
 3538              		.loc 3 140 16 is_stmt 0
 3539 1304 17050000 		lla	a0,.LC32
GAS LISTING /tmp/ccNEPw55.s 			page 84


 3539      13050500 
 3540 130c 97000000 		call	_Z11printStringPKc@plt
 3540      E7800000 
 3541              	.LVL401:
 141:test/userMain.cpp ****     printString("\n");
 3542              		.loc 3 141 5 is_stmt 1
 3543              		.loc 3 141 16 is_stmt 0
 3544 1314 17050000 		lla	a0,.LC1
 3544      13050500 
 3545 131c 97000000 		call	_Z11printStringPKc@plt
 3545      E7800000 
 3546              	.LVL402:
 142:test/userMain.cpp ****     kmem_cache_info(cache1);
 3547              		.loc 3 142 5 is_stmt 1
 3548              		.loc 3 142 20 is_stmt 0
 3549 1324 13850A00 		mv	a0,s5
 3550 1328 97000000 		call	_Z15kmem_cache_infoP12kmem_cache_s@plt
 3550      E7800000 
 3551              	.LVL403:
 143:test/userMain.cpp **** }
 3552              		.loc 3 143 1
 3553 1330 83308103 		ld	ra,56(sp)
 3554              		.cfi_restore 1
 3555 1334 03340103 		ld	s0,48(sp)
 3556              		.cfi_restore 8
 3557              		.cfi_def_cfa 2, 64
 3558 1338 83348102 		ld	s1,40(sp)
 3559              		.cfi_restore 9
 3560 133c 03390102 		ld	s2,32(sp)
 3561              		.cfi_restore 18
 3562              	.LVL404:
 3563 1340 83398101 		ld	s3,24(sp)
 3564              		.cfi_restore 19
 3565              	.LVL405:
 3566 1344 033A0101 		ld	s4,16(sp)
 3567              		.cfi_restore 20
 3568 1348 833A8100 		ld	s5,8(sp)
 3569              		.cfi_restore 21
 3570              	.LVL406:
 3571 134c 13010104 		addi	sp,sp,64
 3572              		.cfi_def_cfa_offset 0
 3573 1350 67800000 		jr	ra
 3574              		.cfi_endproc
 3575              	.LFE89:
 3577              		.align	2
 3578              		.globl	_Z9test_nitiv
 3580              	_Z9test_nitiv:
 3581              	.LFB90:
 144:test/userMain.cpp **** 
 145:test/userMain.cpp **** void test_niti(){
 3582              		.loc 3 145 17 is_stmt 1
 3583              		.cfi_startproc
 3584              		.cfi_personality 0x9b,DW.ref.__gxx_personality_v0
 3585              		.cfi_lsda 0x1b,.LLSDA90
 3586 1354 130101FE 		addi	sp,sp,-32
 3587              		.cfi_def_cfa_offset 32
 3588 1358 233C1100 		sd	ra,24(sp)
GAS LISTING /tmp/ccNEPw55.s 			page 85


 3589 135c 23388100 		sd	s0,16(sp)
 3590 1360 23349100 		sd	s1,8(sp)
 3591 1364 23302101 		sd	s2,0(sp)
 3592              		.cfi_offset 1, -8
 3593              		.cfi_offset 8, -16
 3594              		.cfi_offset 9, -24
 3595              		.cfi_offset 18, -32
 3596 1368 13040102 		addi	s0,sp,32
 3597              		.cfi_def_cfa 8, 0
 146:test/userMain.cpp ****     Thread* threads[4];
 3598              		.loc 3 146 5
 147:test/userMain.cpp **** 
 148:test/userMain.cpp ****     threads[0] = new WorkerA();
 3599              		.loc 3 148 5
 3600              		.loc 3 148 30 is_stmt 0
 3601 136c 13050001 		li	a0,16
 3602              	.LEHB29:
 3603 1370 97000000 		call	_Znwm@plt
 3603      E7800000 
 3604              	.LVL407:
 3605              	.LEHE29:
 3606 1378 93040500 		mv	s1,a0
 3607              	.LVL408:
 3608              	.LEHB30:
 3609              	.LBB123:
 3610              	.LBB124:
  22:test/../test/Threads_CPP_API_test.hpp **** 
 3611              		.loc 1 22 22
 3612 137c 97000000 		call	_ZN6ThreadC2Ev@plt
 3612      E7800000 
 3613              	.LVL409:
 3614              	.LEHE30:
 3615 1384 97070000 		lla	a5,_ZTV7WorkerA+16
 3615      93870700 
 3616 138c 23B0F400 		sd	a5,0(s1)
 3617              	.LVL410:
 3618              	.LBE124:
 3619              	.LBE123:
 149:test/userMain.cpp ****     printString("ThreadA created\n");
 3620              		.loc 3 149 5 is_stmt 1
 3621              		.loc 3 149 16 is_stmt 0
 3622 1390 17050000 		lla	a0,.LC13
 3622      13050500 
 3623              	.LEHB31:
 3624 1398 97000000 		call	_Z11printStringPKc@plt
 3624      E7800000 
 3625              	.LVL411:
 3626              	.LEHE31:
 150:test/userMain.cpp **** //    threads[0]->start();
 151:test/userMain.cpp **** }
 3627              		.loc 3 151 1
 3628 13a0 83308101 		ld	ra,24(sp)
 3629              		.cfi_remember_state
 3630              		.cfi_restore 1
 3631 13a4 03340101 		ld	s0,16(sp)
 3632              		.cfi_restore 8
 3633              		.cfi_def_cfa 2, 32
GAS LISTING /tmp/ccNEPw55.s 			page 86


 3634 13a8 83348100 		ld	s1,8(sp)
 3635              		.cfi_restore 9
 3636 13ac 03390100 		ld	s2,0(sp)
 3637              		.cfi_restore 18
 3638 13b0 13010102 		addi	sp,sp,32
 3639              		.cfi_def_cfa_offset 0
 3640 13b4 67800000 		jr	ra
 3641              	.LVL412:
 3642              	.L184:
 3643              		.cfi_restore_state
 3644 13b8 13090500 		mv	s2,a0
 148:test/userMain.cpp ****     printString("ThreadA created\n");
 3645              		.loc 3 148 30
 3646 13bc 13850400 		mv	a0,s1
 3647 13c0 97000000 		call	_ZdlPv@plt
 3647      E7800000 
 3648              	.LVL413:
 3649 13c8 13050900 		mv	a0,s2
 3650              	.LEHB32:
 3651 13cc 97000000 		call	_Unwind_Resume@plt
 3651      E7800000 
 3652              	.LVL414:
 3653              	.LEHE32:
 3654              		.cfi_endproc
 3655              	.LFE90:
 3656              		.section	.gcc_except_table
 3657              	.LLSDA90:
 3658 0183 FF       		.byte	0xff
 3659 0184 FF       		.byte	0xff
 3660 0185 03       		.byte	0x3
 3661 0186 34       		.byte	0x34
 3662 0187 00000000 		.4byte	.LEHB29-.LFB90
 3663 018b 00000000 		.4byte	.LEHE29-.LEHB29
 3664 018f 00000000 		.4byte	0
 3665 0193 00       		.byte	0
 3666 0194 00000000 		.4byte	.LEHB30-.LFB90
 3667 0198 00000000 		.4byte	.LEHE30-.LEHB30
 3668 019c 00000000 		.4byte	.L184-.LFB90
 3669 01a0 00       		.byte	0
 3670 01a1 00000000 		.4byte	.LEHB31-.LFB90
 3671 01a5 00000000 		.4byte	.LEHE31-.LEHB31
 3672 01a9 00000000 		.4byte	0
 3673 01ad 00       		.byte	0
 3674 01ae 00000000 		.4byte	.LEHB32-.LFB90
 3675 01b2 00000000 		.4byte	.LEHE32-.LEHB32
 3676 01b6 00000000 		.4byte	0
 3677 01ba 00       		.byte	0
 3678              		.text
 3680              		.align	2
 3681              		.globl	_Z8userMainv
 3683              	_Z8userMainv:
 3684              	.LFB91:
 152:test/userMain.cpp **** 
 153:test/userMain.cpp **** void userMain() {
 3685              		.loc 3 153 17 is_stmt 1
 3686              		.cfi_startproc
 3687 13d4 130101FF 		addi	sp,sp,-16
GAS LISTING /tmp/ccNEPw55.s 			page 87


 3688              		.cfi_def_cfa_offset 16
 3689 13d8 23341100 		sd	ra,8(sp)
 3690 13dc 23308100 		sd	s0,0(sp)
 3691              		.cfi_offset 1, -8
 3692              		.cfi_offset 8, -16
 3693 13e0 13040101 		addi	s0,sp,16
 3694              		.cfi_def_cfa 8, 0
 154:test/userMain.cpp **** //    test_adrese();
 155:test/userMain.cpp **** //    test_pristup_parametru();
 156:test/userMain.cpp **** //    test_razlika_u_adresama();
 157:test/userMain.cpp **** //    test_performansi();
 158:test/userMain.cpp **** 
 159:test/userMain.cpp ****     test_niti();
 3695              		.loc 3 159 5
 3696              		.loc 3 159 14 is_stmt 0
 3697 13e4 97000000 		call	_Z9test_nitiv
 3697      E7800000 
 3698              	.LVL415:
 160:test/userMain.cpp **** 
 161:test/userMain.cpp **** //    Threads_C_API_test(); // zadatak 2., niti C API i sinhrona promena konteksta
 162:test/userMain.cpp ****     Threads_CPP_API_test(); // zadatak 2., niti CPP API i sinhrona promena konteksta
 3699              		.loc 3 162 5 is_stmt 1
 3700              		.loc 3 162 25 is_stmt 0
 3701 13ec 97000000 		call	_Z20Threads_CPP_API_testv
 3701      E7800000 
 3702              	.LVL416:
 163:test/userMain.cpp **** 
 164:test/userMain.cpp **** //    producerConsumer_C_API(); // zadatak 3., kompletan C API sa semaforima, sinhrona promena kont
 165:test/userMain.cpp **** //    producerConsumer_CPP_Sync_API(); // zadatak 3., kompletan CPP API sa semaforima, sinhrona pro
 166:test/userMain.cpp **** 
 167:test/userMain.cpp **** //    testSleeping(); // thread_sleep test C API
 168:test/userMain.cpp **** //    ConsumerProducerCPP::testConsumerProducer(); // zadatak 4. CPP API i asinhrona promena kontek
 169:test/userMain.cpp **** 
 170:test/userMain.cpp **** //    testModif();
 171:test/userMain.cpp **** //    testPrenosParametara();
 172:test/userMain.cpp **** 
 173:test/userMain.cpp **** }...
 3703              		.loc 3 173 1
 3704 13f4 83308100 		ld	ra,8(sp)
 3705              		.cfi_restore 1
 3706 13f8 03340100 		ld	s0,0(sp)
 3707              		.cfi_restore 8
 3708              		.cfi_def_cfa 2, 16
 3709 13fc 13010101 		addi	sp,sp,16
 3710              		.cfi_def_cfa_offset 0
 3711 1400 67800000 		jr	ra
 3712              		.cfi_endproc
 3713              	.LFE91:
 3715              		.weak	_ZTV7WorkerA
 3716              		.section	.data.rel.ro.local._ZTV7WorkerA,"awG",@progbits,_ZTV7WorkerA,comdat
 3717              		.align	3
 3720              	_ZTV7WorkerA:
 3721 0000 00000000 		.dword	0
 3721      00000000 
 3722 0008 00000000 		.dword	0
 3722      00000000 
 3723 0010 00000000 		.dword	_ZN7WorkerAD1Ev
GAS LISTING /tmp/ccNEPw55.s 			page 88


 3723      00000000 
 3724 0018 00000000 		.dword	_ZN7WorkerAD0Ev
 3724      00000000 
 3725 0020 00000000 		.dword	_ZN7WorkerA3runEv
 3725      00000000 
 3726              		.weak	_ZTV7WorkerB
 3727              		.section	.data.rel.ro.local._ZTV7WorkerB,"awG",@progbits,_ZTV7WorkerB,comdat
 3728              		.align	3
 3731              	_ZTV7WorkerB:
 3732 0000 00000000 		.dword	0
 3732      00000000 
 3733 0008 00000000 		.dword	0
 3733      00000000 
 3734 0010 00000000 		.dword	_ZN7WorkerBD1Ev
 3734      00000000 
 3735 0018 00000000 		.dword	_ZN7WorkerBD0Ev
 3735      00000000 
 3736 0020 00000000 		.dword	_ZN7WorkerB3runEv
 3736      00000000 
 3737              		.weak	_ZTV7WorkerC
 3738              		.section	.data.rel.ro.local._ZTV7WorkerC,"awG",@progbits,_ZTV7WorkerC,comdat
 3739              		.align	3
 3742              	_ZTV7WorkerC:
 3743 0000 00000000 		.dword	0
 3743      00000000 
 3744 0008 00000000 		.dword	0
 3744      00000000 
 3745 0010 00000000 		.dword	_ZN7WorkerCD1Ev
 3745      00000000 
 3746 0018 00000000 		.dword	_ZN7WorkerCD0Ev
 3746      00000000 
 3747 0020 00000000 		.dword	_ZN7WorkerC3runEv
 3747      00000000 
 3748              		.weak	_ZTV7WorkerD
 3749              		.section	.data.rel.ro.local._ZTV7WorkerD,"awG",@progbits,_ZTV7WorkerD,comdat
 3750              		.align	3
 3753              	_ZTV7WorkerD:
 3754 0000 00000000 		.dword	0
 3754      00000000 
 3755 0008 00000000 		.dword	0
 3755      00000000 
 3756 0010 00000000 		.dword	_ZN7WorkerDD1Ev
 3756      00000000 
 3757 0018 00000000 		.dword	_ZN7WorkerDD0Ev
 3757      00000000 
 3758 0020 00000000 		.dword	_ZN7WorkerD3runEv
 3758      00000000 
 3759              		.weak	_ZTV16ProducerKeyboard
 3760              		.section	.data.rel.ro.local._ZTV16ProducerKeyboard,"awG",@progbits,_ZTV16ProducerKeyboard,comdat
 3761              		.align	3
 3764              	_ZTV16ProducerKeyboard:
 3765 0000 00000000 		.dword	0
 3765      00000000 
 3766 0008 00000000 		.dword	0
 3766      00000000 
 3767 0010 00000000 		.dword	_ZN16ProducerKeyboardD1Ev
 3767      00000000 
GAS LISTING /tmp/ccNEPw55.s 			page 89


 3768 0018 00000000 		.dword	_ZN16ProducerKeyboardD0Ev
 3768      00000000 
 3769 0020 00000000 		.dword	_ZN16ProducerKeyboard3runEv
 3769      00000000 
 3770              		.weak	_ZTV8Producer
 3771              		.section	.data.rel.ro.local._ZTV8Producer,"awG",@progbits,_ZTV8Producer,comdat
 3772              		.align	3
 3775              	_ZTV8Producer:
 3776 0000 00000000 		.dword	0
 3776      00000000 
 3777 0008 00000000 		.dword	0
 3777      00000000 
 3778 0010 00000000 		.dword	_ZN8ProducerD1Ev
 3778      00000000 
 3779 0018 00000000 		.dword	_ZN8ProducerD0Ev
 3779      00000000 
 3780 0020 00000000 		.dword	_ZN8Producer3runEv
 3780      00000000 
 3781              		.weak	_ZTV8Consumer
 3782              		.section	.data.rel.ro.local._ZTV8Consumer,"awG",@progbits,_ZTV8Consumer,comdat
 3783              		.align	3
 3786              	_ZTV8Consumer:
 3787 0000 00000000 		.dword	0
 3787      00000000 
 3788 0008 00000000 		.dword	0
 3788      00000000 
 3789 0010 00000000 		.dword	_ZN8ConsumerD1Ev
 3789      00000000 
 3790 0018 00000000 		.dword	_ZN8ConsumerD0Ev
 3790      00000000 
 3791 0020 00000000 		.dword	_ZN8Consumer3runEv
 3791      00000000 
 3792              		.globl	arr
 3793              		.globl	threadEnd
 3794              		.globl	waitForAll
 3795              		.globl	finishedD
 3796              		.globl	finishedC
 3797              		.globl	finishedB
 3798              		.globl	finishedA
 3799              		.bss
 3800              		.align	3
 3801              		.set	.LANCHOR0,. + 0
 3804              	finishedA:
 3805 0000 00       		.zero	1
 3808              	finishedB:
 3809 0001 00       		.zero	1
 3812              	finishedC:
 3813 0002 00       		.zero	1
 3816              	finishedD:
 3817 0003 00       		.zero	1
 3820              	threadEnd:
 3821 0004 00000000 		.zero	4
 3824              	waitForAll:
 3825 0008 00000000 		.zero	8
 3825      00000000 
 3828              	arr:
 3829 0010 00000000 		.zero	800000
GAS LISTING /tmp/ccNEPw55.s 			page 90


 3829      00000000 
 3829      00000000 
 3829      00000000 
 3829      00000000 
 3830              		.text
 3831              	.Letext0:
 3832              		.file 4 "test/../test/../h/../h/../h/../h/../lib/hw.h"
 3833              		.file 5 "test/../test/../h/syscall_cpp.hpp"
 3834              		.file 6 "test/../test/../test/buffer_CPP_API.hpp"
 3835              		.file 7 "test/../h/SlabI.h"
 3836              		.file 8 "test/../test/../h/../h/syscall_c.h"
 3837              		.file 9 "test/../test/printing.hpp"
 12154              		.align	3
 12157              	DW.ref.__gxx_personality_v0:
 12158 0000 00000000 		.dword	__gxx_personality_v0
 12158      00000000 
 12159              		.ident	"GCC: (Ubuntu 9.4.0-1ubuntu1~20.04) 9.4.0"
 12160              		.section	.note.GNU-stack,"",@progbits
GAS LISTING /tmp/ccNEPw55.s 			page 91

