GAS LISTING /tmp/ccjnbOKu.s 			page 1


   1              		.file	"userMain.cpp"
   2              		.option pic
   3              		.option norelax
   4              		.text
   5              	.Ltext0:
   6              		.align	2
   8              	_Z41__static_initialization_and_destruction_0ii:
   9              	.LFB67:
  10              		.file 1 "test/userMain.cpp"
   1:test/userMain.cpp **** #include "../test/userMain.hpp"
   2:test/userMain.cpp **** //#include "../test/Threads_C_API_test.hpp" // zadatak 2, niti C API i sinhrona promena konteksta
   3:test/userMain.cpp **** //#include "../test/Threads_CPP_API_test.hpp" // zadatak 2., niti CPP API i sinhrona promena kontek
   4:test/userMain.cpp **** 
   5:test/userMain.cpp **** //#include "../test/ConsumerProducer_C_API_test.h" // zadatak 3., kompletan C API sa semaforima, si
   6:test/userMain.cpp **** //#include "../test/ConsumerProducer_CPP_Sync_API_test.hpp" // zadatak 3., kompletan CPP API sa sem
   7:test/userMain.cpp **** 
   8:test/userMain.cpp **** //#include "../test/ThreadSleep_C_API_test.hpp" // thread_sleep test C API
   9:test/userMain.cpp **** //#include "../test/ConsumerProducer_CPP_API_test.hpp" // zadatak 4. CPP API i asinhrona promena ko
  10:test/userMain.cpp **** //#include "../test/testPrenosParametara.hpp"
  11:test/userMain.cpp **** //#include "../test/modif.hpp"
  12:test/userMain.cpp **** 
  13:test/userMain.cpp **** #include "../h/SlabI.h"
  14:test/userMain.cpp **** #include "../h/Buddy.h"
  15:test/userMain.cpp **** 
  16:test/userMain.cpp **** #include "../h/syscall_cpp.hpp"
  17:test/userMain.cpp **** 
  18:test/userMain.cpp **** #include "printing.hpp"
  19:test/userMain.cpp **** 
  20:test/userMain.cpp **** Semaphore* s1 = new  Semaphore(1);
  21:test/userMain.cpp **** Semaphore* s2 = new Semaphore(0);
  22:test/userMain.cpp **** int a = 1;
  23:test/userMain.cpp **** int b = 2;
  24:test/userMain.cpp **** 
  25:test/userMain.cpp **** class WorkerAA: public Thread {
  26:test/userMain.cpp ****     void workerA(void* arg);
  27:test/userMain.cpp **** public:
  28:test/userMain.cpp ****     WorkerAA():Thread() {}
  29:test/userMain.cpp **** 
  30:test/userMain.cpp ****     void run() override {
  31:test/userMain.cpp ****         workerA(nullptr);
  32:test/userMain.cpp ****     }
  33:test/userMain.cpp **** };
  34:test/userMain.cpp **** 
  35:test/userMain.cpp **** void WorkerAA::workerA(void * arg){
  36:test/userMain.cpp ****     while(true){
  37:test/userMain.cpp ****         s1->wait();
  38:test/userMain.cpp ****         printString("ispis1");
  39:test/userMain.cpp ****         s2->signal();
  40:test/userMain.cpp ****     }
  41:test/userMain.cpp **** }
  42:test/userMain.cpp **** 
  43:test/userMain.cpp **** class WorkerBB: public Thread {
  44:test/userMain.cpp ****     void workerB(void* arg);
  45:test/userMain.cpp **** public:
  46:test/userMain.cpp ****     WorkerBB():Thread() {}
  47:test/userMain.cpp **** 
  48:test/userMain.cpp ****     void run() override {
GAS LISTING /tmp/ccjnbOKu.s 			page 2


  49:test/userMain.cpp ****         workerB(nullptr);
  50:test/userMain.cpp ****     }
  51:test/userMain.cpp **** };
  52:test/userMain.cpp **** 
  53:test/userMain.cpp **** void WorkerBB::workerB(void* arg){
  54:test/userMain.cpp ****     while(true){
  55:test/userMain.cpp ****         s2->wait();
  56:test/userMain.cpp ****         printString("ispis2");
  57:test/userMain.cpp ****         s1->signal();
  58:test/userMain.cpp ****     }
  59:test/userMain.cpp **** }
  60:test/userMain.cpp **** 
  61:test/userMain.cpp **** class A{
  62:test/userMain.cpp ****     char a[50000];
  63:test/userMain.cpp **** };
  64:test/userMain.cpp **** 
  65:test/userMain.cpp **** void userMain() {
  66:test/userMain.cpp **** 
  67:test/userMain.cpp ****     void * space = (void*)HEAP_START_ADDR;
  68:test/userMain.cpp ****     int block_num = ((size_t)HEAP_END_ADDR - (size_t)HEAP_START_ADDR) / 8 / BLOCK_SIZE;
  69:test/userMain.cpp ****     kmem_init(space, block_num);
  70:test/userMain.cpp **** //
  71:test/userMain.cpp **** //    void* obj = kmalloc(32);
  72:test/userMain.cpp **** //    print_all_caches();
  73:test/userMain.cpp **** //    kfree(obj);
  74:test/userMain.cpp **** //    print_all_caches();
  75:test/userMain.cpp **** 
  76:test/userMain.cpp **** //    Thread* ta = new WorkerAA();
  77:test/userMain.cpp **** //    Thread* tb = new WorkerBB();
  78:test/userMain.cpp **** //
  79:test/userMain.cpp **** //    ta->start();
  80:test/userMain.cpp **** //
  81:test/userMain.cpp **** //    if(a == b){
  82:test/userMain.cpp **** //        tb->start();
  83:test/userMain.cpp **** //    }
  84:test/userMain.cpp ****     printString("Buddy allocator heap start: ");
  85:test/userMain.cpp ****     printInt(BuddySystem::getInstance().get_buddy_alloc_heap_start());
  86:test/userMain.cpp ****     printString("\n");
  87:test/userMain.cpp ****     printString("Buddy allocator heap end: ");
  88:test/userMain.cpp ****     printInt(BuddySystem::getInstance().get_buddy_alloc_heap_end());
  89:test/userMain.cpp ****     printString("\n");
  90:test/userMain.cpp ****     printString("Memory allocator heap start: ");
  91:test/userMain.cpp ****     printInt(MemoryAllocator::getInstance().get_mem_alloc_heap_start());
  92:test/userMain.cpp ****     printString("\n");
  93:test/userMain.cpp ****     printString("Memory allocator heap end: ");
  94:test/userMain.cpp ****     printInt(MemoryAllocator::getInstance().get_mem_alloc_heap_end());
  95:test/userMain.cpp ****     printString("\n\n");
  96:test/userMain.cpp **** 
  97:test/userMain.cpp **** 
  98:test/userMain.cpp ****     kmem_cache_s* cache = kmem_cache_create("test", sizeof(A), nullptr, nullptr);
  99:test/userMain.cpp ****     A* arr[120];
 100:test/userMain.cpp ****     A* elem;
 101:test/userMain.cpp ****     for(int i = 0; i < 120; i++){
 102:test/userMain.cpp ****         elem = (A*)kmem_cache_alloc(cache);
 103:test/userMain.cpp ****         arr[i] = elem;
 104:test/userMain.cpp ****         kmem_cache_info(cache);
 105:test/userMain.cpp ****     }
GAS LISTING /tmp/ccjnbOKu.s 			page 3


 106:test/userMain.cpp ****     kmem_cache_info(cache);
 107:test/userMain.cpp ****     kmem_cache_free(cache, arr[15]);
 108:test/userMain.cpp ****     kmem_cache_info(cache);
 109:test/userMain.cpp ****     elem = (A*)kmem_cache_alloc(cache);
 110:test/userMain.cpp ****     arr[15] = elem;
 111:test/userMain.cpp ****     kmem_cache_info(cache);
 112:test/userMain.cpp ****     for(int i = 0; i < 120; i++){
 113:test/userMain.cpp ****         kmem_cache_free(cache, arr[i]);
 114:test/userMain.cpp **** //        kmem_cache_info(cache);
 115:test/userMain.cpp ****     }
 116:test/userMain.cpp ****     kmem_cache_info(cache);
 117:test/userMain.cpp **** 
 118:test/userMain.cpp **** 
 119:test/userMain.cpp **** //    Threads_C_API_test(); // zadatak 2., niti C API i sinhrona promena konteksta
 120:test/userMain.cpp **** //    Threads_CPP_API_test(); // zadatak 2., niti CPP API i sinhrona promena konteksta
 121:test/userMain.cpp **** 
 122:test/userMain.cpp **** //    producerConsumer_C_API(); // zadatak 3., kompletan C API sa semaforima, sinhrona promena kont
 123:test/userMain.cpp **** //    producerConsumer_CPP_Sync_API(); // zadatak 3., kompletan CPP API sa semaforima, sinhrona pro
 124:test/userMain.cpp **** 
 125:test/userMain.cpp **** //    testSleeping(); // thread_sleep test C API
 126:test/userMain.cpp **** //    ConsumerProducerCPP::testConsumerProducer(); // zadatak 4. CPP API i asinhrona promena kontek
 127:test/userMain.cpp **** 
 128:test/userMain.cpp **** //    testModif();
 129:test/userMain.cpp **** //    testPrenosParametara();
 130:test/userMain.cpp **** 
 131:test/userMain.cpp **** }...
  11              		.loc 1 131 1
  12              		.cfi_startproc
  13              		.cfi_personality 0x9b,DW.ref.__gxx_personality_v0
  14              		.cfi_lsda 0x1b,.LLSDA67
  15              	.LVL0:
  16 0000 93071000 		li	a5,1
  17 0004 6304F500 		beq	a0,a5,.L11
  18              	.L8:
  19 0008 67800000 		ret
  20              	.L11:
  21              		.loc 1 131 1 is_stmt 0 discriminator 1
  22 000c B7070100 		li	a5,65536
  23 0010 9387F7FF 		addi	a5,a5,-1
  24 0014 E39AF5FE 		bne	a1,a5,.L8
  25              		.loc 1 131 1
  26 0018 130101FE 		addi	sp,sp,-32
  27              		.cfi_def_cfa_offset 32
  28 001c 233C1100 		sd	ra,24(sp)
  29 0020 23388100 		sd	s0,16(sp)
  30 0024 23349100 		sd	s1,8(sp)
  31 0028 23302101 		sd	s2,0(sp)
  32              		.cfi_offset 1, -8
  33              		.cfi_offset 8, -16
  34              		.cfi_offset 9, -24
  35              		.cfi_offset 18, -32
  36 002c 13040102 		addi	s0,sp,32
  37              		.cfi_def_cfa 8, 0
  20:test/userMain.cpp **** Semaphore* s1 = new  Semaphore(1);
  38              		.loc 1 20 33
  39 0030 13050001 		li	a0,16
  40              	.LVL1:
GAS LISTING /tmp/ccjnbOKu.s 			page 4


  41              	.LEHB0:
  42 0034 97000000 		call	_Znwm@plt
  42      E7800000 
  43              	.LVL2:
  44              	.LEHE0:
  45 003c 93040500 		mv	s1,a0
  46 0040 93051000 		li	a1,1
  47              	.LEHB1:
  48 0044 97000000 		call	_ZN9SemaphoreC1Ej@plt
  48      E7800000 
  49              	.LVL3:
  50              	.LEHE1:
  20:test/userMain.cpp **** Semaphore* s1 = new  Semaphore(1);
  51              		.loc 1 20 12 discriminator 2
  52 004c 97070000 		sd	s1,.LANCHOR0,a5
  52      23B09700 
  21:test/userMain.cpp **** Semaphore* s2 = new Semaphore(0);
  53              		.loc 1 21 32 discriminator 2
  54 0054 13050001 		li	a0,16
  55              	.LEHB2:
  56 0058 97000000 		call	_Znwm@plt
  56      E7800000 
  57              	.LVL4:
  58              	.LEHE2:
  59 0060 93040500 		mv	s1,a0
  60 0064 93050000 		li	a1,0
  61              	.LEHB3:
  62 0068 97000000 		call	_ZN9SemaphoreC1Ej@plt
  62      E7800000 
  63              	.LVL5:
  64              	.LEHE3:
  21:test/userMain.cpp **** Semaphore* s2 = new Semaphore(0);
  65              		.loc 1 21 12 discriminator 2
  66 0070 97070000 		sd	s1,.LANCHOR0+8,a5
  66      23B09700 
  67              		.loc 1 131 1 discriminator 2
  68 0078 83308101 		ld	ra,24(sp)
  69              		.cfi_remember_state
  70              		.cfi_restore 1
  71 007c 03340101 		ld	s0,16(sp)
  72              		.cfi_restore 8
  73              		.cfi_def_cfa 2, 32
  74 0080 83348100 		ld	s1,8(sp)
  75              		.cfi_restore 9
  76 0084 03390100 		ld	s2,0(sp)
  77              		.cfi_restore 18
  78 0088 13010102 		addi	sp,sp,32
  79              		.cfi_def_cfa_offset 0
  80 008c 67800000 		jr	ra
  81              	.L5:
  82              		.cfi_restore_state
  83 0090 13090500 		mv	s2,a0
  20:test/userMain.cpp **** Semaphore* s1 = new  Semaphore(1);
  84              		.loc 1 20 33
  85 0094 13850400 		mv	a0,s1
  86 0098 97000000 		call	_ZdlPv@plt
  86      E7800000 
GAS LISTING /tmp/ccjnbOKu.s 			page 5


  87              	.LVL6:
  88 00a0 13050900 		mv	a0,s2
  89              	.LEHB4:
  90 00a4 97000000 		call	_Unwind_Resume@plt
  90      E7800000 
  91              	.LVL7:
  92              	.LEHE4:
  93              	.L6:
  94 00ac 13090500 		mv	s2,a0
  21:test/userMain.cpp **** Semaphore* s2 = new Semaphore(0);
  95              		.loc 1 21 32
  96 00b0 13850400 		mv	a0,s1
  97 00b4 97000000 		call	_ZdlPv@plt
  97      E7800000 
  98              	.LVL8:
  99 00bc 13050900 		mv	a0,s2
 100              	.LEHB5:
 101 00c0 97000000 		call	_Unwind_Resume@plt
 101      E7800000 
 102              	.LVL9:
 103              	.LEHE5:
 104              		.cfi_endproc
 105              	.LFE67:
 106              		.globl	__gxx_personality_v0
 107              		.section	.gcc_except_table,"a",@progbits
 108              	.LLSDA67:
 109 0000 FF       		.byte	0xff
 110 0001 FF       		.byte	0xff
 111 0002 03       		.byte	0x3
 112 0003 4E       		.byte	0x4e
 113 0004 00000000 		.4byte	.LEHB0-.LFB67
 114 0008 00000000 		.4byte	.LEHE0-.LEHB0
 115 000c 00000000 		.4byte	0
 116 0010 00       		.byte	0
 117 0011 00000000 		.4byte	.LEHB1-.LFB67
 118 0015 00000000 		.4byte	.LEHE1-.LEHB1
 119 0019 00000000 		.4byte	.L5-.LFB67
 120 001d 00       		.byte	0
 121 001e 00000000 		.4byte	.LEHB2-.LFB67
 122 0022 00000000 		.4byte	.LEHE2-.LEHB2
 123 0026 00000000 		.4byte	0
 124 002a 00       		.byte	0
 125 002b 00000000 		.4byte	.LEHB3-.LFB67
 126 002f 00000000 		.4byte	.LEHE3-.LEHB3
 127 0033 00000000 		.4byte	.L6-.LFB67
 128 0037 00       		.byte	0
 129 0038 00000000 		.4byte	.LEHB4-.LFB67
 130 003c 00000000 		.4byte	.LEHE4-.LEHB4
 131 0040 00000000 		.4byte	0
 132 0044 00       		.byte	0
 133 0045 00000000 		.4byte	.LEHB5-.LFB67
 134 0049 00000000 		.4byte	.LEHE5-.LEHB5
 135 004d 00000000 		.4byte	0
 136 0051 00       		.byte	0
 137              		.text
 139              		.section	.rodata.str1.8,"aMS",@progbits,1
 140              		.align	3
GAS LISTING /tmp/ccjnbOKu.s 			page 6


 141              	.LC0:
 142 0000 69737069 		.string	"ispis1"
 142      733100
 143              		.text
 144              		.align	2
 145              		.globl	_ZN8WorkerAA7workerAEPv
 147              	_ZN8WorkerAA7workerAEPv:
 148              	.LFB52:
  35:test/userMain.cpp **** void WorkerAA::workerA(void * arg){
 149              		.loc 1 35 35 is_stmt 1
 150              		.cfi_startproc
 151              	.LVL10:
 152 00c8 130101FE 		addi	sp,sp,-32
 153              		.cfi_def_cfa_offset 32
 154 00cc 233C1100 		sd	ra,24(sp)
 155 00d0 23388100 		sd	s0,16(sp)
 156 00d4 23349100 		sd	s1,8(sp)
 157              		.cfi_offset 1, -8
 158              		.cfi_offset 8, -16
 159              		.cfi_offset 9, -24
 160 00d8 13040102 		addi	s0,sp,32
 161              		.cfi_def_cfa 8, 0
 162              	.LVL11:
 163              	.L13:
  36:test/userMain.cpp ****     while(true){
 164              		.loc 1 36 5 discriminator 1
  37:test/userMain.cpp ****         s1->wait();
 165              		.loc 1 37 9 discriminator 1
  37:test/userMain.cpp ****         s1->wait();
 166              		.loc 1 37 17 is_stmt 0 discriminator 1
 167 00dc 97040000 		lla	s1,.LANCHOR0
 167      93840400 
 168 00e4 03B50400 		ld	a0,0(s1)
 169 00e8 97000000 		call	_ZN9Semaphore4waitEv@plt
 169      E7800000 
 170              	.LVL12:
  38:test/userMain.cpp ****         printString("ispis1");
 171              		.loc 1 38 9 is_stmt 1 discriminator 1
  38:test/userMain.cpp ****         printString("ispis1");
 172              		.loc 1 38 20 is_stmt 0 discriminator 1
 173 00f0 17050000 		lla	a0,.LC0
 173      13050500 
 174 00f8 97000000 		call	_Z11printStringPKc@plt
 174      E7800000 
 175              	.LVL13:
  39:test/userMain.cpp ****         s2->signal();
 176              		.loc 1 39 9 is_stmt 1 discriminator 1
  39:test/userMain.cpp ****         s2->signal();
 177              		.loc 1 39 19 is_stmt 0 discriminator 1
 178 0100 03B58400 		ld	a0,8(s1)
 179 0104 97000000 		call	_ZN9Semaphore6signalEv@plt
 179      E7800000 
 180              	.LVL14:
  36:test/userMain.cpp ****     while(true){
 181              		.loc 1 36 5 is_stmt 1 discriminator 1
 182 010c 6FF01FFD 		j	.L13
 183              		.cfi_endproc
GAS LISTING /tmp/ccjnbOKu.s 			page 7


 184              	.LFE52:
 186              		.section	.rodata.str1.8
 187 0007 00       		.align	3
 188              	.LC1:
 189 0008 69737069 		.string	"ispis2"
 189      733200
 190              		.text
 191              		.align	2
 192              		.globl	_ZN8WorkerBB7workerBEPv
 194              	_ZN8WorkerBB7workerBEPv:
 195              	.LFB57:
  53:test/userMain.cpp **** void WorkerBB::workerB(void* arg){
 196              		.loc 1 53 34
 197              		.cfi_startproc
 198              	.LVL15:
 199 0110 130101FE 		addi	sp,sp,-32
 200              		.cfi_def_cfa_offset 32
 201 0114 233C1100 		sd	ra,24(sp)
 202 0118 23388100 		sd	s0,16(sp)
 203 011c 23349100 		sd	s1,8(sp)
 204              		.cfi_offset 1, -8
 205              		.cfi_offset 8, -16
 206              		.cfi_offset 9, -24
 207 0120 13040102 		addi	s0,sp,32
 208              		.cfi_def_cfa 8, 0
 209              	.LVL16:
 210              	.L16:
  54:test/userMain.cpp ****     while(true){
 211              		.loc 1 54 5 discriminator 1
  55:test/userMain.cpp ****         s2->wait();
 212              		.loc 1 55 9 discriminator 1
  55:test/userMain.cpp ****         s2->wait();
 213              		.loc 1 55 17 is_stmt 0 discriminator 1
 214 0124 97040000 		lla	s1,.LANCHOR0
 214      93840400 
 215 012c 03B58400 		ld	a0,8(s1)
 216 0130 97000000 		call	_ZN9Semaphore4waitEv@plt
 216      E7800000 
 217              	.LVL17:
  56:test/userMain.cpp ****         printString("ispis2");
 218              		.loc 1 56 9 is_stmt 1 discriminator 1
  56:test/userMain.cpp ****         printString("ispis2");
 219              		.loc 1 56 20 is_stmt 0 discriminator 1
 220 0138 17050000 		lla	a0,.LC1
 220      13050500 
 221 0140 97000000 		call	_Z11printStringPKc@plt
 221      E7800000 
 222              	.LVL18:
  57:test/userMain.cpp ****         s1->signal();
 223              		.loc 1 57 9 is_stmt 1 discriminator 1
  57:test/userMain.cpp ****         s1->signal();
 224              		.loc 1 57 19 is_stmt 0 discriminator 1
 225 0148 03B50400 		ld	a0,0(s1)
 226 014c 97000000 		call	_ZN9Semaphore6signalEv@plt
 226      E7800000 
 227              	.LVL19:
  54:test/userMain.cpp ****     while(true){
GAS LISTING /tmp/ccjnbOKu.s 			page 8


 228              		.loc 1 54 5 is_stmt 1 discriminator 1
 229 0154 6FF01FFD 		j	.L16
 230              		.cfi_endproc
 231              	.LFE57:
 233              		.section	.rodata.str1.8
 234 000f 00       		.align	3
 235              	.LC2:
 236 0010 42756464 		.string	"Buddy allocator heap start: "
 236      7920616C 
 236      6C6F6361 
 236      746F7220 
 236      68656170 
 237 002d 000000   		.align	3
 238              	.LC3:
 239 0030 0A00     		.string	"\n"
 240 0032 00000000 		.align	3
 240      0000
 241              	.LC4:
 242 0038 42756464 		.string	"Buddy allocator heap end: "
 242      7920616C 
 242      6C6F6361 
 242      746F7220 
 242      68656170 
 243 0053 00000000 		.align	3
 243      00
 244              	.LC5:
 245 0058 4D656D6F 		.string	"Memory allocator heap start: "
 245      72792061 
 245      6C6C6F63 
 245      61746F72 
 245      20686561 
 246 0076 0000     		.align	3
 247              	.LC6:
 248 0078 4D656D6F 		.string	"Memory allocator heap end: "
 248      72792061 
 248      6C6C6F63 
 248      61746F72 
 248      20686561 
 249 0094 00000000 		.align	3
 250              	.LC7:
 251 0098 0A0A00   		.string	"\n\n"
 252 009b 00000000 		.align	3
 252      00
 253              	.LC8:
 254 00a0 74657374 		.string	"test"
 254      00
 255              		.text
 256              		.align	2
 257              		.globl	_Z8userMainv
 259              	_Z8userMainv:
 260              	.LFB58:
  65:test/userMain.cpp **** void userMain() {
 261              		.loc 1 65 17
 262              		.cfi_startproc
 263 0158 130101C2 		addi	sp,sp,-992
 264              		.cfi_def_cfa_offset 992
 265 015c 233C113C 		sd	ra,984(sp)
GAS LISTING /tmp/ccjnbOKu.s 			page 9


 266 0160 2338813C 		sd	s0,976(sp)
 267 0164 2334913C 		sd	s1,968(sp)
 268 0168 2330213D 		sd	s2,960(sp)
 269              		.cfi_offset 1, -8
 270              		.cfi_offset 8, -16
 271              		.cfi_offset 9, -24
 272              		.cfi_offset 18, -32
 273 016c 1304013E 		addi	s0,sp,992
 274              		.cfi_def_cfa 8, 0
  67:test/userMain.cpp ****     void * space = (void*)HEAP_START_ADDR;
 275              		.loc 1 67 5
  67:test/userMain.cpp ****     void * space = (void*)HEAP_START_ADDR;
 276              		.loc 1 67 12 is_stmt 0
 277 0170 97070000 		la	a5,HEAP_START_ADDR
 277      83B70700 
 278 0178 03B50700 		ld	a0,0(a5)
 279              	.LVL20:
  68:test/userMain.cpp ****     int block_num = ((size_t)HEAP_END_ADDR - (size_t)HEAP_START_ADDR) / 8 / BLOCK_SIZE;
 280              		.loc 1 68 5 is_stmt 1
  68:test/userMain.cpp ****     int block_num = ((size_t)HEAP_END_ADDR - (size_t)HEAP_START_ADDR) / 8 / BLOCK_SIZE;
 281              		.loc 1 68 44 is_stmt 0
 282 017c 97070000 		la	a5,HEAP_END_ADDR
 282      83B70700 
 283 0184 83B50700 		ld	a1,0(a5)
 284 0188 B385A540 		sub	a1,a1,a0
  68:test/userMain.cpp ****     int block_num = ((size_t)HEAP_END_ADDR - (size_t)HEAP_START_ADDR) / 8 / BLOCK_SIZE;
 285              		.loc 1 68 9
 286 018c 93D5F500 		srli	a1,a1,15
 287              	.LVL21:
  69:test/userMain.cpp ****     kmem_init(space, block_num);
 288              		.loc 1 69 5 is_stmt 1
  69:test/userMain.cpp ****     kmem_init(space, block_num);
 289              		.loc 1 69 14 is_stmt 0
 290 0190 9B850500 		sext.w	a1,a1
 291 0194 97000000 		call	_Z9kmem_initPvi@plt
 291      E7800000 
 292              	.LVL22:
  84:test/userMain.cpp ****     printString("Buddy allocator heap start: ");
 293              		.loc 1 84 5 is_stmt 1
  84:test/userMain.cpp ****     printString("Buddy allocator heap start: ");
 294              		.loc 1 84 16 is_stmt 0
 295 019c 17050000 		lla	a0,.LC2
 295      13050500 
 296 01a4 97000000 		call	_Z11printStringPKc@plt
 296      E7800000 
 297              	.LVL23:
  85:test/userMain.cpp ****     printInt(BuddySystem::getInstance().get_buddy_alloc_heap_start());
 298              		.loc 1 85 5 is_stmt 1
 299              	.LBB46:
 300              	.LBB47:
 301              		.file 2 "test/../h/Buddy.h"
   1:test/../h/Buddy.h **** //
   2:test/../h/Buddy.h **** // Created by os on 8/12/23.
   3:test/../h/Buddy.h **** //
   4:test/../h/Buddy.h **** 
   5:test/../h/Buddy.h **** #ifndef PROJECT_BASE_V1_1_BUDDY_H
   6:test/../h/Buddy.h **** #define PROJECT_BASE_V1_1_BUDDY_H
GAS LISTING /tmp/ccjnbOKu.s 			page 10


   7:test/../h/Buddy.h **** 
   8:test/../h/Buddy.h **** #include "../lib/hw.h"
   9:test/../h/Buddy.h **** 
  10:test/../h/Buddy.h **** class BuddySystem{
  11:test/../h/Buddy.h **** public:
  12:test/../h/Buddy.h **** 
  13:test/../h/Buddy.h ****     void* buddyAlloc(size_t size);
  14:test/../h/Buddy.h ****     void buddyFree(size_t addr);
  15:test/../h/Buddy.h **** 
  16:test/../h/Buddy.h ****     static BuddySystem& getInstance(void *space = nullptr, int block_num = 0){
  17:test/../h/Buddy.h ****         static BuddySystem bs;
 302              		.loc 2 17 9
 303              		.loc 2 17 28 is_stmt 0
 304 01ac 97070000 		lbu	a5,_ZGVZN11BuddySystem11getInstanceEPviE2bs
 304      83C70700 
 305 01b4 638C0714 		beqz	a5,.L30
 306              	.L19:
  18:test/../h/Buddy.h ****         if(block_num != 0 && space != nullptr){
 307              		.loc 2 18 9 is_stmt 1
  19:test/../h/Buddy.h ****             bs.buddyHeapStart = (size_t)space;
  20:test/../h/Buddy.h ****             bs.buddyNumOfBlocks = block_num;
  21:test/../h/Buddy.h ****             bs.initBuddy();
  22:test/../h/Buddy.h ****         }
  23:test/../h/Buddy.h ****         return bs;
 308              		.loc 2 23 9
 309              	.LVL24:
 310              	.LBE47:
 311              	.LBE46:
 312              	.LBB49:
 313              	.LBB50:
  24:test/../h/Buddy.h ****     }
  25:test/../h/Buddy.h **** 
  26:test/../h/Buddy.h ****     int get_buddy_alloc_heap_end(){return buddyHeapEnd;}
  27:test/../h/Buddy.h ****     int get_buddy_alloc_heap_start(){return buddyHeapStart;}
 314              		.loc 2 27 38
 315              	.LBE50:
 316              	.LBE49:
  85:test/userMain.cpp ****     printInt(BuddySystem::getInstance().get_buddy_alloc_heap_start());
 317              		.loc 1 85 13 is_stmt 0
 318 01b8 13060000 		li	a2,0
 319 01bc 9305A000 		li	a1,10
 320 01c0 17050000 		lw	a0,_ZZN11BuddySystem11getInstanceEPviE2bs+320
 320      03250500 
 321 01c8 97000000 		call	_Z8printIntiii@plt
 321      E7800000 
 322              	.LVL25:
  86:test/userMain.cpp ****     printString("\n");
 323              		.loc 1 86 5 is_stmt 1
  86:test/userMain.cpp ****     printString("\n");
 324              		.loc 1 86 16 is_stmt 0
 325 01d0 17050000 		lla	a0,.LC3
 325      13050500 
 326 01d8 97000000 		call	_Z11printStringPKc@plt
 326      E7800000 
 327              	.LVL26:
  87:test/userMain.cpp ****     printString("Buddy allocator heap end: ");
 328              		.loc 1 87 5 is_stmt 1
GAS LISTING /tmp/ccjnbOKu.s 			page 11


  87:test/userMain.cpp ****     printString("Buddy allocator heap end: ");
 329              		.loc 1 87 16 is_stmt 0
 330 01e0 17050000 		lla	a0,.LC4
 330      13050500 
 331 01e8 97000000 		call	_Z11printStringPKc@plt
 331      E7800000 
 332              	.LVL27:
  88:test/userMain.cpp ****     printInt(BuddySystem::getInstance().get_buddy_alloc_heap_end());
 333              		.loc 1 88 5 is_stmt 1
 334              	.LBB51:
 335              	.LBB52:
  17:test/../h/Buddy.h ****         if(block_num != 0 && space != nullptr){
 336              		.loc 2 17 9
  17:test/../h/Buddy.h ****         if(block_num != 0 && space != nullptr){
 337              		.loc 2 17 28 is_stmt 0
 338 01f0 97070000 		lbu	a5,_ZGVZN11BuddySystem11getInstanceEPviE2bs
 338      83C70700 
 339 01f8 638A0712 		beqz	a5,.L31
 340              	.L20:
  18:test/../h/Buddy.h ****             bs.buddyHeapStart = (size_t)space;
 341              		.loc 2 18 9 is_stmt 1
  23:test/../h/Buddy.h ****     }
 342              		.loc 2 23 9
 343              	.LVL28:
 344              	.LBE52:
 345              	.LBE51:
 346              	.LBB54:
 347              	.LBB55:
  26:test/../h/Buddy.h ****     int get_buddy_alloc_heap_start(){return buddyHeapStart;}
 348              		.loc 2 26 36
 349              	.LBE55:
 350              	.LBE54:
  88:test/userMain.cpp ****     printInt(BuddySystem::getInstance().get_buddy_alloc_heap_end());
 351              		.loc 1 88 13 is_stmt 0
 352 01fc 13060000 		li	a2,0
 353 0200 9305A000 		li	a1,10
 354 0204 17050000 		lw	a0,_ZZN11BuddySystem11getInstanceEPviE2bs+328
 354      03250500 
 355 020c 97000000 		call	_Z8printIntiii@plt
 355      E7800000 
 356              	.LVL29:
  89:test/userMain.cpp ****     printString("\n");
 357              		.loc 1 89 5 is_stmt 1
  89:test/userMain.cpp ****     printString("\n");
 358              		.loc 1 89 16 is_stmt 0
 359 0214 17050000 		lla	a0,.LC3
 359      13050500 
 360 021c 97000000 		call	_Z11printStringPKc@plt
 360      E7800000 
 361              	.LVL30:
  90:test/userMain.cpp ****     printString("Memory allocator heap start: ");
 362              		.loc 1 90 5 is_stmt 1
  90:test/userMain.cpp ****     printString("Memory allocator heap start: ");
 363              		.loc 1 90 16 is_stmt 0
 364 0224 17050000 		lla	a0,.LC5
 364      13050500 
 365 022c 97000000 		call	_Z11printStringPKc@plt
GAS LISTING /tmp/ccjnbOKu.s 			page 12


 365      E7800000 
 366              	.LVL31:
  91:test/userMain.cpp ****     printInt(MemoryAllocator::getInstance().get_mem_alloc_heap_start());
 367              		.loc 1 91 5 is_stmt 1
 368              	.LBB56:
 369              	.LBB57:
 370              		.file 3 "test/../h/../h/../h/../h/MemoryAllocator.hpp"
   1:test/../h/../h/../h/../h/MemoryAllocator.hpp **** #ifndef _memory_allocator_hpp_
   2:test/../h/../h/../h/../h/MemoryAllocator.hpp **** #define _memory_allocator_hpp_
   3:test/../h/../h/../h/../h/MemoryAllocator.hpp **** 
   4:test/../h/../h/../h/../h/MemoryAllocator.hpp **** #include "../lib/hw.h"
   5:test/../h/../h/../h/../h/MemoryAllocator.hpp **** 
   6:test/../h/../h/../h/../h/MemoryAllocator.hpp **** class MemoryAllocator{
   7:test/../h/../h/../h/../h/MemoryAllocator.hpp **** public:
   8:test/../h/../h/../h/../h/MemoryAllocator.hpp **** 
   9:test/../h/../h/../h/../h/MemoryAllocator.hpp ****     // dodaj instancu
  10:test/../h/../h/../h/../h/MemoryAllocator.hpp ****     static MemoryAllocator& getInstance(){
  11:test/../h/../h/../h/../h/MemoryAllocator.hpp ****         static MemoryAllocator instance;
 371              		.loc 3 11 9
 372              		.loc 3 11 32 is_stmt 0
 373 0234 97070000 		lbu	a5,_ZGVZN15MemoryAllocator11getInstanceEvE8instance
 373      83C70700 
 374 023c 63880710 		beqz	a5,.L32
 375              	.L21:
  12:test/../h/../h/../h/../h/MemoryAllocator.hpp ****         return instance;
 376              		.loc 3 12 9 is_stmt 1
 377              	.LVL32:
 378              	.LBE57:
 379              	.LBE56:
 380              	.LBB63:
 381              	.LBB64:
  13:test/../h/../h/../h/../h/MemoryAllocator.hpp ****     }
  14:test/../h/../h/../h/../h/MemoryAllocator.hpp **** 
  15:test/../h/../h/../h/../h/MemoryAllocator.hpp ****     MemoryAllocator(const MemoryAllocator&) = delete;
  16:test/../h/../h/../h/../h/MemoryAllocator.hpp ****     void operator=(MemoryAllocator const&) = delete;
  17:test/../h/../h/../h/../h/MemoryAllocator.hpp **** 
  18:test/../h/../h/../h/../h/MemoryAllocator.hpp ****     void* memory_alloc (size_t);
  19:test/../h/../h/../h/../h/MemoryAllocator.hpp **** 
  20:test/../h/../h/../h/../h/MemoryAllocator.hpp ****     int memory_free (void*);
  21:test/../h/../h/../h/../h/MemoryAllocator.hpp ****     int get_mem_alloc_heap_start(){return this->heapStart;}
 382              		.loc 3 21 36
 383              	.LBE64:
 384              	.LBE63:
  91:test/userMain.cpp ****     printInt(MemoryAllocator::getInstance().get_mem_alloc_heap_start());
 385              		.loc 1 91 13 is_stmt 0
 386 0240 13060000 		li	a2,0
 387 0244 9305A000 		li	a1,10
 388 0248 17050000 		lw	a0,_ZZN15MemoryAllocator11getInstanceEvE8instance+8
 388      03250500 
 389 0250 97000000 		call	_Z8printIntiii@plt
 389      E7800000 
 390              	.LVL33:
  92:test/userMain.cpp ****     printString("\n");
 391              		.loc 1 92 5 is_stmt 1
  92:test/userMain.cpp ****     printString("\n");
 392              		.loc 1 92 16 is_stmt 0
 393 0258 17050000 		lla	a0,.LC3
GAS LISTING /tmp/ccjnbOKu.s 			page 13


 393      13050500 
 394 0260 97000000 		call	_Z11printStringPKc@plt
 394      E7800000 
 395              	.LVL34:
  93:test/userMain.cpp ****     printString("Memory allocator heap end: ");
 396              		.loc 1 93 5 is_stmt 1
  93:test/userMain.cpp ****     printString("Memory allocator heap end: ");
 397              		.loc 1 93 16 is_stmt 0
 398 0268 17050000 		lla	a0,.LC6
 398      13050500 
 399 0270 97000000 		call	_Z11printStringPKc@plt
 399      E7800000 
 400              	.LVL35:
  94:test/userMain.cpp ****     printInt(MemoryAllocator::getInstance().get_mem_alloc_heap_end());
 401              		.loc 1 94 5 is_stmt 1
 402              	.LBB65:
 403              	.LBB66:
  11:test/../h/../h/../h/../h/MemoryAllocator.hpp ****         return instance;
 404              		.loc 3 11 9
  11:test/../h/../h/../h/../h/MemoryAllocator.hpp ****         return instance;
 405              		.loc 3 11 32 is_stmt 0
 406 0278 97070000 		lbu	a5,_ZGVZN15MemoryAllocator11getInstanceEvE8instance
 406      83C70700 
 407 0280 63840714 		beqz	a5,.L33
 408              	.L23:
  12:test/../h/../h/../h/../h/MemoryAllocator.hpp ****     }
 409              		.loc 3 12 9 is_stmt 1
 410              	.LVL36:
 411              	.LBE66:
 412              	.LBE65:
 413              	.LBB72:
 414              	.LBB73:
  22:test/../h/../h/../h/../h/MemoryAllocator.hpp ****     int get_mem_alloc_heap_end(){return this->heapEnd;}
 415              		.loc 3 22 34
 416              	.LBE73:
 417              	.LBE72:
  94:test/userMain.cpp ****     printInt(MemoryAllocator::getInstance().get_mem_alloc_heap_end());
 418              		.loc 1 94 13 is_stmt 0
 419 0284 13060000 		li	a2,0
 420 0288 9305A000 		li	a1,10
 421 028c 17050000 		lw	a0,_ZZN15MemoryAllocator11getInstanceEvE8instance+16
 421      03250500 
 422 0294 97000000 		call	_Z8printIntiii@plt
 422      E7800000 
 423              	.LVL37:
  95:test/userMain.cpp ****     printString("\n\n");
 424              		.loc 1 95 5 is_stmt 1
  95:test/userMain.cpp ****     printString("\n\n");
 425              		.loc 1 95 16 is_stmt 0
 426 029c 17050000 		lla	a0,.LC7
 426      13050500 
 427 02a4 97000000 		call	_Z11printStringPKc@plt
 427      E7800000 
 428              	.LVL38:
  98:test/userMain.cpp ****     kmem_cache_s* cache = kmem_cache_create("test", sizeof(A), nullptr, nullptr);
 429              		.loc 1 98 5 is_stmt 1
  98:test/userMain.cpp ****     kmem_cache_s* cache = kmem_cache_create("test", sizeof(A), nullptr, nullptr);
GAS LISTING /tmp/ccjnbOKu.s 			page 14


 430              		.loc 1 98 44 is_stmt 0
 431 02ac 93060000 		li	a3,0
 432 02b0 13060000 		li	a2,0
 433 02b4 B7C50000 		li	a1,49152
 434 02b8 93850535 		addi	a1,a1,848
 435 02bc 17050000 		lla	a0,.LC8
 435      13050500 
 436 02c4 97000000 		call	_Z17kmem_cache_createPKcmPFvPvES3_@plt
 436      E7800000 
 437              	.LVL39:
 438 02cc 13090500 		mv	s2,a0
 439              	.LBB74:
 101:test/userMain.cpp ****     for(int i = 0; i < 120; i++){
 440              		.loc 1 101 13
 441 02d0 93040000 		li	s1,0
 442              	.L26:
 443              	.LVL40:
 101:test/userMain.cpp ****     for(int i = 0; i < 120; i++){
 444              		.loc 1 101 22 is_stmt 1 discriminator 1
 445 02d4 93077007 		li	a5,119
 446 02d8 63C69716 		bgt	s1,a5,.L25
 102:test/userMain.cpp ****         elem = (A*)kmem_cache_alloc(cache);
 447              		.loc 1 102 9
 102:test/userMain.cpp ****         elem = (A*)kmem_cache_alloc(cache);
 448              		.loc 1 102 36 is_stmt 0
 449 02dc 13050900 		mv	a0,s2
 450 02e0 97000000 		call	_Z16kmem_cache_allocP12kmem_cache_s@plt
 450      E7800000 
 451              	.LVL41:
 103:test/userMain.cpp ****         arr[i] = elem;
 452              		.loc 1 103 9 is_stmt 1
 103:test/userMain.cpp ****         arr[i] = elem;
 453              		.loc 1 103 16 is_stmt 0
 454 02e8 93973400 		slli	a5,s1,3
 455 02ec 130704FE 		addi	a4,s0,-32
 456 02f0 B307F700 		add	a5,a4,a5
 457 02f4 23B0A7C4 		sd	a0,-960(a5)
 104:test/userMain.cpp ****         kmem_cache_info(cache);
 458              		.loc 1 104 9 is_stmt 1
 104:test/userMain.cpp ****         kmem_cache_info(cache);
 459              		.loc 1 104 24 is_stmt 0
 460 02f8 13050900 		mv	a0,s2
 461              	.LVL42:
 462 02fc 97000000 		call	_Z15kmem_cache_infoP12kmem_cache_s@plt
 462      E7800000 
 463              	.LVL43:
 101:test/userMain.cpp ****     for(int i = 0; i < 120; i++){
 464              		.loc 1 101 5 is_stmt 1
 465 0304 9B841400 		addiw	s1,s1,1
 466              	.LVL44:
 467 0308 6FF0DFFC 		j	.L26
 468              	.LVL45:
 469              	.L30:
 470              	.LBE74:
 471              	.LBB75:
 472              	.LBB48:
  17:test/../h/Buddy.h ****         if(block_num != 0 && space != nullptr){
GAS LISTING /tmp/ccjnbOKu.s 			page 15


 473              		.loc 2 17 28 is_stmt 0
 474 030c 17050000 		lla	a0,_ZZN11BuddySystem11getInstanceEPviE2bs
 474      13050500 
 475 0314 97000000 		call	_ZN11BuddySystemC1Ev@plt
 475      E7800000 
 476              	.LVL46:
 477 031c 93071000 		li	a5,1
 478 0320 17070000 		sb	a5,_ZGVZN11BuddySystem11getInstanceEPviE2bs,a4
 478      2300F700 
 479 0328 6FF01FE9 		j	.L19
 480              	.LVL47:
 481              	.L31:
 482              	.LBE48:
 483              	.LBE75:
 484              	.LBB76:
 485              	.LBB53:
 486 032c 17050000 		lla	a0,_ZZN11BuddySystem11getInstanceEPviE2bs
 486      13050500 
 487 0334 97000000 		call	_ZN11BuddySystemC1Ev@plt
 487      E7800000 
 488              	.LVL48:
 489 033c 93071000 		li	a5,1
 490 0340 17070000 		sb	a5,_ZGVZN11BuddySystem11getInstanceEPviE2bs,a4
 490      2300F700 
 491 0348 6FF05FEB 		j	.L20
 492              	.LVL49:
 493              	.L32:
 494              	.LBE53:
 495              	.LBE76:
 496              	.LBB77:
 497              	.LBB62:
 498              	.LBB58:
 499              	.LBB59:
 500              	.LBB60:
  23:test/../h/../h/../h/../h/MemoryAllocator.hpp **** 
  24:test/../h/../h/../h/../h/MemoryAllocator.hpp **** private:
  25:test/../h/../h/../h/../h/MemoryAllocator.hpp **** 
  26:test/../h/../h/../h/../h/MemoryAllocator.hpp ****     struct FreeMem{
  27:test/../h/../h/../h/../h/MemoryAllocator.hpp ****         size_t size;
  28:test/../h/../h/../h/../h/MemoryAllocator.hpp ****         FreeMem* next;
  29:test/../h/../h/../h/../h/MemoryAllocator.hpp ****         FreeMem* prev;
  30:test/../h/../h/../h/../h/MemoryAllocator.hpp ****     };
  31:test/../h/../h/../h/../h/MemoryAllocator.hpp **** 
  32:test/../h/../h/../h/../h/MemoryAllocator.hpp ****     FreeMem* fmem_head = nullptr;
  33:test/../h/../h/../h/../h/MemoryAllocator.hpp ****     size_t heapStart;
  34:test/../h/../h/../h/../h/MemoryAllocator.hpp ****     size_t heapEnd;
  35:test/../h/../h/../h/../h/MemoryAllocator.hpp **** 
  36:test/../h/../h/../h/../h/MemoryAllocator.hpp ****     MemoryAllocator(){
 501              		.loc 3 36 22
 502 034c 17060000 		lla	a2,_ZZN15MemoryAllocator11getInstanceEvE8instance
 502      13060600 
 503              	.LBB61:
  37:test/../h/../h/../h/../h/MemoryAllocator.hpp **** 
  38:test/../h/../h/../h/../h/MemoryAllocator.hpp ****         heapStart = (size_t)HEAP_START_ADDR + ((size_t)HEAP_END_ADDR - (size_t)HEAP_START_ADDR) / 8
 504              		.loc 3 38 9 is_stmt 1
 505              		.loc 3 38 70 is_stmt 0
 506 0354 97070000 		la	a5,HEAP_END_ADDR
GAS LISTING /tmp/ccjnbOKu.s 			page 16


 506      83B70700 
 507 035c 03B70700 		ld	a4,0(a5)
 508 0360 97070000 		la	a5,HEAP_START_ADDR
 508      83B70700 
 509 0368 83B70700 		ld	a5,0(a5)
 510 036c B306F740 		sub	a3,a4,a5
 511              		.loc 3 38 97
 512 0370 93D63600 		srli	a3,a3,3
 513              		.loc 3 38 45
 514 0374 B387D700 		add	a5,a5,a3
 515              		.loc 3 38 101
 516 0378 93871700 		addi	a5,a5,1
 517              		.loc 3 38 19
 518 037c 2334F600 		sd	a5,8(a2)
  39:test/../h/../h/../h/../h/MemoryAllocator.hpp ****         heapEnd = (size_t)HEAP_END_ADDR - 1;
 519              		.loc 3 39 9 is_stmt 1
 520              		.loc 3 39 41 is_stmt 0
 521 0380 1307F7FF 		addi	a4,a4,-1
 522              		.loc 3 39 17
 523 0384 2338E600 		sd	a4,16(a2)
  40:test/../h/../h/../h/../h/MemoryAllocator.hpp **** 
  41:test/../h/../h/../h/../h/MemoryAllocator.hpp ****         size_t sizeInBlocks = (heapEnd - heapStart) / MEM_BLOCK_SIZE;
 524              		.loc 3 41 9 is_stmt 1
 525              		.loc 3 41 40 is_stmt 0
 526 0388 3307F740 		sub	a4,a4,a5
 527              		.loc 3 41 16
 528 038c 13576700 		srli	a4,a4,6
 529              	.LVL50:
  42:test/../h/../h/../h/../h/MemoryAllocator.hpp **** 
  43:test/../h/../h/../h/../h/MemoryAllocator.hpp ****         // poravnaj na prvu krstenu adresu
  44:test/../h/../h/../h/../h/MemoryAllocator.hpp ****         fmem_head = (FreeMem*)(heapStart + ((heapStart % MEM_BLOCK_SIZE != 0)?(MEM_BLOCK_SIZE - hea
 530              		.loc 3 44 9 is_stmt 1
 531              		.loc 3 44 56 is_stmt 0
 532 0390 93F6F703 		andi	a3,a5,63
 533              		.loc 3 44 78
 534 0394 63860600 		beqz	a3,.L22
 535 0398 13060004 		li	a2,64
 536 039c B306D640 		sub	a3,a2,a3
 537              	.L22:
 538              		.loc 3 44 42
 539 03a0 B387D700 		add	a5,a5,a3
 540              		.loc 3 44 19
 541 03a4 97060000 		sd	a5,_ZZN15MemoryAllocator11getInstanceEvE8instance,a3
 541      23B0F600 
  45:test/../h/../h/../h/../h/MemoryAllocator.hpp **** 
  46:test/../h/../h/../h/../h/MemoryAllocator.hpp ****         // napravi node
  47:test/../h/../h/../h/../h/MemoryAllocator.hpp **** 
  48:test/../h/../h/../h/../h/MemoryAllocator.hpp ****         fmem_head->next = nullptr;
 542              		.loc 3 48 9 is_stmt 1
 543              		.loc 3 48 25 is_stmt 0
 544 03ac 23B40700 		sd	zero,8(a5)
  49:test/../h/../h/../h/../h/MemoryAllocator.hpp ****         fmem_head->prev = nullptr;
 545              		.loc 3 49 9 is_stmt 1
 546              		.loc 3 49 25 is_stmt 0
 547 03b0 23B80700 		sd	zero,16(a5)
  50:test/../h/../h/../h/../h/MemoryAllocator.hpp ****         fmem_head->size = sizeInBlocks;
 548              		.loc 3 50 9 is_stmt 1
GAS LISTING /tmp/ccjnbOKu.s 			page 17


 549              		.loc 3 50 25 is_stmt 0
 550 03b4 23B0E700 		sd	a4,0(a5)
 551              	.LVL51:
 552              	.LBE61:
 553              	.LBE60:
 554              	.LBE59:
 555              	.LBE58:
  11:test/../h/../h/../h/../h/MemoryAllocator.hpp ****         return instance;
 556              		.loc 3 11 32
 557 03b8 93071000 		li	a5,1
 558 03bc 17070000 		sb	a5,_ZGVZN15MemoryAllocator11getInstanceEvE8instance,a4
 558      2300F700 
 559 03c4 6FF0DFE7 		j	.L21
 560              	.L33:
 561              	.LVL52:
 562              	.LBE62:
 563              	.LBE77:
 564              	.LBB78:
 565              	.LBB71:
 566              	.LBB67:
 567              	.LBB68:
 568              	.LBB69:
  36:test/../h/../h/../h/../h/MemoryAllocator.hpp **** 
 569              		.loc 3 36 22
 570 03c8 17060000 		lla	a2,_ZZN15MemoryAllocator11getInstanceEvE8instance
 570      13060600 
 571              	.LBB70:
  38:test/../h/../h/../h/../h/MemoryAllocator.hpp ****         heapEnd = (size_t)HEAP_END_ADDR - 1;
 572              		.loc 3 38 9 is_stmt 1
  38:test/../h/../h/../h/../h/MemoryAllocator.hpp ****         heapEnd = (size_t)HEAP_END_ADDR - 1;
 573              		.loc 3 38 70 is_stmt 0
 574 03d0 97070000 		la	a5,HEAP_END_ADDR
 574      83B70700 
 575 03d8 03B70700 		ld	a4,0(a5)
 576 03dc 97070000 		la	a5,HEAP_START_ADDR
 576      83B70700 
 577 03e4 83B70700 		ld	a5,0(a5)
 578 03e8 B306F740 		sub	a3,a4,a5
  38:test/../h/../h/../h/../h/MemoryAllocator.hpp ****         heapEnd = (size_t)HEAP_END_ADDR - 1;
 579              		.loc 3 38 97
 580 03ec 93D63600 		srli	a3,a3,3
  38:test/../h/../h/../h/../h/MemoryAllocator.hpp ****         heapEnd = (size_t)HEAP_END_ADDR - 1;
 581              		.loc 3 38 45
 582 03f0 B387D700 		add	a5,a5,a3
  38:test/../h/../h/../h/../h/MemoryAllocator.hpp ****         heapEnd = (size_t)HEAP_END_ADDR - 1;
 583              		.loc 3 38 101
 584 03f4 93871700 		addi	a5,a5,1
  38:test/../h/../h/../h/../h/MemoryAllocator.hpp ****         heapEnd = (size_t)HEAP_END_ADDR - 1;
 585              		.loc 3 38 19
 586 03f8 2334F600 		sd	a5,8(a2)
  39:test/../h/../h/../h/../h/MemoryAllocator.hpp **** 
 587              		.loc 3 39 9 is_stmt 1
  39:test/../h/../h/../h/../h/MemoryAllocator.hpp **** 
 588              		.loc 3 39 41 is_stmt 0
 589 03fc 1307F7FF 		addi	a4,a4,-1
  39:test/../h/../h/../h/../h/MemoryAllocator.hpp **** 
 590              		.loc 3 39 17
GAS LISTING /tmp/ccjnbOKu.s 			page 18


 591 0400 2338E600 		sd	a4,16(a2)
  41:test/../h/../h/../h/../h/MemoryAllocator.hpp **** 
 592              		.loc 3 41 9 is_stmt 1
  41:test/../h/../h/../h/../h/MemoryAllocator.hpp **** 
 593              		.loc 3 41 40 is_stmt 0
 594 0404 3307F740 		sub	a4,a4,a5
  41:test/../h/../h/../h/../h/MemoryAllocator.hpp **** 
 595              		.loc 3 41 16
 596 0408 13576700 		srli	a4,a4,6
 597              	.LVL53:
  44:test/../h/../h/../h/../h/MemoryAllocator.hpp **** 
 598              		.loc 3 44 9 is_stmt 1
  44:test/../h/../h/../h/../h/MemoryAllocator.hpp **** 
 599              		.loc 3 44 56 is_stmt 0
 600 040c 93F6F703 		andi	a3,a5,63
  44:test/../h/../h/../h/../h/MemoryAllocator.hpp **** 
 601              		.loc 3 44 78
 602 0410 63860600 		beqz	a3,.L24
 603 0414 13060004 		li	a2,64
 604 0418 B306D640 		sub	a3,a2,a3
 605              	.L24:
  44:test/../h/../h/../h/../h/MemoryAllocator.hpp **** 
 606              		.loc 3 44 42
 607 041c B387D700 		add	a5,a5,a3
  44:test/../h/../h/../h/../h/MemoryAllocator.hpp **** 
 608              		.loc 3 44 19
 609 0420 97060000 		sd	a5,_ZZN15MemoryAllocator11getInstanceEvE8instance,a3
 609      23B0F600 
  48:test/../h/../h/../h/../h/MemoryAllocator.hpp ****         fmem_head->prev = nullptr;
 610              		.loc 3 48 9 is_stmt 1
  48:test/../h/../h/../h/../h/MemoryAllocator.hpp ****         fmem_head->prev = nullptr;
 611              		.loc 3 48 25 is_stmt 0
 612 0428 23B40700 		sd	zero,8(a5)
  49:test/../h/../h/../h/../h/MemoryAllocator.hpp ****         fmem_head->size = sizeInBlocks;
 613              		.loc 3 49 9 is_stmt 1
  49:test/../h/../h/../h/../h/MemoryAllocator.hpp ****         fmem_head->size = sizeInBlocks;
 614              		.loc 3 49 25 is_stmt 0
 615 042c 23B80700 		sd	zero,16(a5)
 616              		.loc 3 50 9 is_stmt 1
 617              		.loc 3 50 25 is_stmt 0
 618 0430 23B0E700 		sd	a4,0(a5)
 619              	.LVL54:
 620              	.LBE70:
 621              	.LBE69:
 622              	.LBE68:
 623              	.LBE67:
  11:test/../h/../h/../h/../h/MemoryAllocator.hpp ****         return instance;
 624              		.loc 3 11 32
 625 0434 93071000 		li	a5,1
 626 0438 17070000 		sb	a5,_ZGVZN15MemoryAllocator11getInstanceEvE8instance,a4
 626      2300F700 
 627 0440 6FF05FE4 		j	.L23
 628              	.LVL55:
 629              	.L25:
 630              	.LBE71:
 631              	.LBE78:
 106:test/userMain.cpp ****     kmem_cache_info(cache);
GAS LISTING /tmp/ccjnbOKu.s 			page 19


 632              		.loc 1 106 5 is_stmt 1
 106:test/userMain.cpp ****     kmem_cache_info(cache);
 633              		.loc 1 106 20 is_stmt 0
 634 0444 13050900 		mv	a0,s2
 635 0448 97000000 		call	_Z15kmem_cache_infoP12kmem_cache_s@plt
 635      E7800000 
 636              	.LVL56:
 107:test/userMain.cpp ****     kmem_cache_free(cache, arr[15]);
 637              		.loc 1 107 5 is_stmt 1
 107:test/userMain.cpp ****     kmem_cache_free(cache, arr[15]);
 638              		.loc 1 107 20 is_stmt 0
 639 0450 833584C9 		ld	a1,-872(s0)
 640 0454 13050900 		mv	a0,s2
 641 0458 97000000 		call	_Z15kmem_cache_freeP12kmem_cache_sPv@plt
 641      E7800000 
 642              	.LVL57:
 108:test/userMain.cpp ****     kmem_cache_info(cache);
 643              		.loc 1 108 5 is_stmt 1
 108:test/userMain.cpp ****     kmem_cache_info(cache);
 644              		.loc 1 108 20 is_stmt 0
 645 0460 13050900 		mv	a0,s2
 646 0464 97000000 		call	_Z15kmem_cache_infoP12kmem_cache_s@plt
 646      E7800000 
 647              	.LVL58:
 109:test/userMain.cpp ****     elem = (A*)kmem_cache_alloc(cache);
 648              		.loc 1 109 5 is_stmt 1
 109:test/userMain.cpp ****     elem = (A*)kmem_cache_alloc(cache);
 649              		.loc 1 109 32 is_stmt 0
 650 046c 13050900 		mv	a0,s2
 651 0470 97000000 		call	_Z16kmem_cache_allocP12kmem_cache_s@plt
 651      E7800000 
 652              	.LVL59:
 110:test/userMain.cpp ****     arr[15] = elem;
 653              		.loc 1 110 5 is_stmt 1
 110:test/userMain.cpp ****     arr[15] = elem;
 654              		.loc 1 110 13 is_stmt 0
 655 0478 233CA4C8 		sd	a0,-872(s0)
 111:test/userMain.cpp ****     kmem_cache_info(cache);
 656              		.loc 1 111 5 is_stmt 1
 111:test/userMain.cpp ****     kmem_cache_info(cache);
 657              		.loc 1 111 20 is_stmt 0
 658 047c 13050900 		mv	a0,s2
 659              	.LVL60:
 660 0480 97000000 		call	_Z15kmem_cache_infoP12kmem_cache_s@plt
 660      E7800000 
 661              	.LVL61:
 662              	.LBB79:
 112:test/userMain.cpp ****     for(int i = 0; i < 120; i++){
 663              		.loc 1 112 13
 664 0488 93040000 		li	s1,0
 665              	.LVL62:
 666              	.L28:
 112:test/userMain.cpp ****     for(int i = 0; i < 120; i++){
 667              		.loc 1 112 22 is_stmt 1 discriminator 1
 668 048c 93077007 		li	a5,119
 669 0490 63C49702 		bgt	s1,a5,.L27
 113:test/userMain.cpp ****         kmem_cache_free(cache, arr[i]);
GAS LISTING /tmp/ccjnbOKu.s 			page 20


 670              		.loc 1 113 9
 113:test/userMain.cpp ****         kmem_cache_free(cache, arr[i]);
 671              		.loc 1 113 37 is_stmt 0
 672 0494 93973400 		slli	a5,s1,3
 673 0498 130704FE 		addi	a4,s0,-32
 674 049c B307F700 		add	a5,a4,a5
 113:test/userMain.cpp ****         kmem_cache_free(cache, arr[i]);
 675              		.loc 1 113 24
 676 04a0 83B507C4 		ld	a1,-960(a5)
 677 04a4 13050900 		mv	a0,s2
 678 04a8 97000000 		call	_Z15kmem_cache_freeP12kmem_cache_sPv@plt
 678      E7800000 
 679              	.LVL63:
 112:test/userMain.cpp ****     for(int i = 0; i < 120; i++){
 680              		.loc 1 112 5 is_stmt 1
 681 04b0 9B841400 		addiw	s1,s1,1
 682              	.LVL64:
 683 04b4 6FF09FFD 		j	.L28
 684              	.LVL65:
 685              	.L27:
 686              	.LBE79:
 116:test/userMain.cpp ****     kmem_cache_info(cache);
 687              		.loc 1 116 5
 116:test/userMain.cpp ****     kmem_cache_info(cache);
 688              		.loc 1 116 20 is_stmt 0
 689 04b8 13050900 		mv	a0,s2
 690 04bc 97000000 		call	_Z15kmem_cache_infoP12kmem_cache_s@plt
 690      E7800000 
 691              	.LVL66:
 692              		.loc 1 131 1
 693 04c4 8330813D 		ld	ra,984(sp)
 694              		.cfi_restore 1
 695 04c8 0334013D 		ld	s0,976(sp)
 696              		.cfi_restore 8
 697              		.cfi_def_cfa 2, 992
 698              	.LVL67:
 699 04cc 8334813C 		ld	s1,968(sp)
 700              		.cfi_restore 9
 701              	.LVL68:
 702 04d0 0339013C 		ld	s2,960(sp)
 703              		.cfi_restore 18
 704 04d4 1301013E 		addi	sp,sp,992
 705              		.cfi_def_cfa_offset 0
 706              	.LVL69:
 707 04d8 67800000 		jr	ra
 708              		.cfi_endproc
 709              	.LFE58:
 711              		.align	2
 713              	_GLOBAL__sub_I_s1:
 714              	.LFB68:
 715              		.loc 1 131 1 is_stmt 1
 716              		.cfi_startproc
 717 04dc 130101FF 		addi	sp,sp,-16
 718              		.cfi_def_cfa_offset 16
 719 04e0 23341100 		sd	ra,8(sp)
 720 04e4 23308100 		sd	s0,0(sp)
 721              		.cfi_offset 1, -8
GAS LISTING /tmp/ccjnbOKu.s 			page 21


 722              		.cfi_offset 8, -16
 723 04e8 13040101 		addi	s0,sp,16
 724              		.cfi_def_cfa 8, 0
 725              		.loc 1 131 1 is_stmt 0
 726 04ec B7050100 		li	a1,65536
 727 04f0 9385F5FF 		addi	a1,a1,-1
 728 04f4 13051000 		li	a0,1
 729 04f8 97000000 		call	_Z41__static_initialization_and_destruction_0ii
 729      E7800000 
 730              	.LVL70:
 731 0500 83308100 		ld	ra,8(sp)
 732              		.cfi_restore 1
 733 0504 03340100 		ld	s0,0(sp)
 734              		.cfi_restore 8
 735              		.cfi_def_cfa 2, 16
 736 0508 13010101 		addi	sp,sp,16
 737              		.cfi_def_cfa_offset 0
 738 050c 67800000 		jr	ra
 739              		.cfi_endproc
 740              	.LFE68:
 742              		.section	.init_array,"aw"
 743              		.align	3
 744 0000 00000000 		.dword	_GLOBAL__sub_I_s1
 744      00000000 
 745              		.globl	b
 746              		.globl	a
 747              		.globl	s2
 748              		.globl	s1
 749              		.weak	_ZGVZN15MemoryAllocator11getInstanceEvE8instance
 750              		.section	.bss._ZGVZN15MemoryAllocator11getInstanceEvE8instance,"awG",@nobits,_ZGVZN15MemoryAllocat
 751              		.align	3
 754              	_ZGVZN15MemoryAllocator11getInstanceEvE8instance:
 755 0000 00000000 		.zero	8
 755      00000000 
 756              		.weak	_ZZN15MemoryAllocator11getInstanceEvE8instance
 757              		.section	.bss._ZZN15MemoryAllocator11getInstanceEvE8instance,"awG",@nobits,_ZZN15MemoryAllocator11
 758              		.align	3
 761              	_ZZN15MemoryAllocator11getInstanceEvE8instance:
 762 0000 00000000 		.zero	24
 762      00000000 
 762      00000000 
 762      00000000 
 762      00000000 
 763              		.weak	_ZGVZN11BuddySystem11getInstanceEPviE2bs
 764              		.section	.bss._ZGVZN11BuddySystem11getInstanceEPviE2bs,"awG",@nobits,_ZGVZN11BuddySystem11getInsta
 765              		.align	3
 768              	_ZGVZN11BuddySystem11getInstanceEPviE2bs:
 769 0000 00000000 		.zero	8
 769      00000000 
 770              		.weak	_ZZN11BuddySystem11getInstanceEPviE2bs
 771              		.section	.bss._ZZN11BuddySystem11getInstanceEPviE2bs,"awG",@nobits,_ZZN11BuddySystem11getInstanceE
 772              		.align	3
 775              	_ZZN11BuddySystem11getInstanceEPviE2bs:
 776 0000 00000000 		.zero	344
 776      00000000 
 776      00000000 
 776      00000000 
GAS LISTING /tmp/ccjnbOKu.s 			page 22


 776      00000000 
 777              		.data
 778              		.align	2
 781              	b:
 782 0000 02000000 		.word	2
 785              	a:
 786 0004 01000000 		.word	1
 787              		.bss
 788              		.align	3
 789              		.set	.LANCHOR0,. + 0
 792              	s1:
 793 0000 00000000 		.zero	8
 793      00000000 
 796              	s2:
 797 0008 00000000 		.zero	8
 797      00000000 
 798              		.text
 799              	.Letext0:
 800              		.file 4 "test/../h/../lib/hw.h"
 801              		.file 5 "test/../h/syscall_cpp.hpp"
 802              		.file 6 "test/../h/../h/syscall_c.h"
 803              		.file 7 "test/../h/SlabI.h"
 804              		.file 8 "test/printing.hpp"
 4235              		.align	3
 4238              	DW.ref.__gxx_personality_v0:
 4239 0000 00000000 		.dword	__gxx_personality_v0
 4239      00000000 
 4240              		.ident	"GCC: (Ubuntu 9.4.0-1ubuntu1~20.04) 9.4.0"
 4241              		.section	.note.GNU-stack,"",@progbits
GAS LISTING /tmp/ccjnbOKu.s 			page 23


DEFINED SYMBOLS
                            *ABS*:0000000000000000 userMain.cpp
     /tmp/ccjnbOKu.s:8      .text:0000000000000000 _Z41__static_initialization_and_destruction_0ii
     /tmp/ccjnbOKu.s:12     .text:0000000000000000 .L0 
     /tmp/ccjnbOKu.s:4238   .data.rel.local.DW.ref.__gxx_personality_v0:0000000000000000 DW.ref.__gxx_personality_v0
     /tmp/ccjnbOKu.s:16     .text:0000000000000000 .L0 
     /tmp/ccjnbOKu.s:22     .text:000000000000000c .L0 
     /tmp/ccjnbOKu.s:26     .text:0000000000000018 .L0 
     /tmp/ccjnbOKu.s:27     .text:000000000000001c .L0 
     /tmp/ccjnbOKu.s:32     .text:000000000000002c .L0 
     /tmp/ccjnbOKu.s:33     .text:000000000000002c .L0 
     /tmp/ccjnbOKu.s:34     .text:000000000000002c .L0 
     /tmp/ccjnbOKu.s:35     .text:000000000000002c .L0 
     /tmp/ccjnbOKu.s:37     .text:0000000000000030 .L0 
     /tmp/ccjnbOKu.s:39     .text:0000000000000030 .L0 
     /tmp/ccjnbOKu.s:52     .text:000000000000004c .L0 
     /tmp/ccjnbOKu.s:54     .text:0000000000000054 .L0 
     /tmp/ccjnbOKu.s:66     .text:0000000000000070 .L0 
     /tmp/ccjnbOKu.s:68     .text:0000000000000078 .L0 
     /tmp/ccjnbOKu.s:69     .text:000000000000007c .L0 
     /tmp/ccjnbOKu.s:70     .text:000000000000007c .L0 
     /tmp/ccjnbOKu.s:72     .text:0000000000000080 .L0 
     /tmp/ccjnbOKu.s:73     .text:0000000000000080 .L0 
     /tmp/ccjnbOKu.s:75     .text:0000000000000084 .L0 
     /tmp/ccjnbOKu.s:77     .text:0000000000000088 .L0 
     /tmp/ccjnbOKu.s:79     .text:000000000000008c .L0 
     /tmp/ccjnbOKu.s:82     .text:0000000000000090 .L0 
     /tmp/ccjnbOKu.s:85     .text:0000000000000094 .L0 
     /tmp/ccjnbOKu.s:96     .text:00000000000000b0 .L0 
     /tmp/ccjnbOKu.s:104    .text:00000000000000c8 .L0 
     /tmp/ccjnbOKu.s:147    .text:00000000000000c8 _ZN8WorkerAA7workerAEPv
     /tmp/ccjnbOKu.s:150    .text:00000000000000c8 .L0 
     /tmp/ccjnbOKu.s:152    .text:00000000000000c8 .L0 
     /tmp/ccjnbOKu.s:153    .text:00000000000000cc .L0 
     /tmp/ccjnbOKu.s:157    .text:00000000000000d8 .L0 
     /tmp/ccjnbOKu.s:158    .text:00000000000000d8 .L0 
     /tmp/ccjnbOKu.s:159    .text:00000000000000d8 .L0 
     /tmp/ccjnbOKu.s:161    .text:00000000000000dc .L0 
     /tmp/ccjnbOKu.s:165    .text:00000000000000dc .L0 
     /tmp/ccjnbOKu.s:166    .text:00000000000000dc .L0 
     /tmp/ccjnbOKu.s:167    .text:00000000000000dc .L0 
     /tmp/ccjnbOKu.s:172    .text:00000000000000f0 .L0 
     /tmp/ccjnbOKu.s:173    .text:00000000000000f0 .L0 
     /tmp/ccjnbOKu.s:177    .text:0000000000000100 .L0 
     /tmp/ccjnbOKu.s:178    .text:0000000000000100 .L0 
     /tmp/ccjnbOKu.s:182    .text:000000000000010c .L0 
     /tmp/ccjnbOKu.s:183    .text:0000000000000110 .L0 
     /tmp/ccjnbOKu.s:194    .text:0000000000000110 _ZN8WorkerBB7workerBEPv
     /tmp/ccjnbOKu.s:197    .text:0000000000000110 .L0 
     /tmp/ccjnbOKu.s:199    .text:0000000000000110 .L0 
     /tmp/ccjnbOKu.s:200    .text:0000000000000114 .L0 
     /tmp/ccjnbOKu.s:204    .text:0000000000000120 .L0 
     /tmp/ccjnbOKu.s:205    .text:0000000000000120 .L0 
     /tmp/ccjnbOKu.s:206    .text:0000000000000120 .L0 
     /tmp/ccjnbOKu.s:208    .text:0000000000000124 .L0 
     /tmp/ccjnbOKu.s:212    .text:0000000000000124 .L0 
     /tmp/ccjnbOKu.s:213    .text:0000000000000124 .L0 
GAS LISTING /tmp/ccjnbOKu.s 			page 24


     /tmp/ccjnbOKu.s:214    .text:0000000000000124 .L0 
     /tmp/ccjnbOKu.s:219    .text:0000000000000138 .L0 
     /tmp/ccjnbOKu.s:220    .text:0000000000000138 .L0 
     /tmp/ccjnbOKu.s:224    .text:0000000000000148 .L0 
     /tmp/ccjnbOKu.s:225    .text:0000000000000148 .L0 
     /tmp/ccjnbOKu.s:229    .text:0000000000000154 .L0 
     /tmp/ccjnbOKu.s:230    .text:0000000000000158 .L0 
     /tmp/ccjnbOKu.s:259    .text:0000000000000158 _Z8userMainv
     /tmp/ccjnbOKu.s:262    .text:0000000000000158 .L0 
     /tmp/ccjnbOKu.s:263    .text:0000000000000158 .L0 
     /tmp/ccjnbOKu.s:264    .text:000000000000015c .L0 
     /tmp/ccjnbOKu.s:269    .text:000000000000016c .L0 
     /tmp/ccjnbOKu.s:270    .text:000000000000016c .L0 
     /tmp/ccjnbOKu.s:271    .text:000000000000016c .L0 
     /tmp/ccjnbOKu.s:272    .text:000000000000016c .L0 
     /tmp/ccjnbOKu.s:274    .text:0000000000000170 .L0 
     /tmp/ccjnbOKu.s:276    .text:0000000000000170 .L0 
     /tmp/ccjnbOKu.s:277    .text:0000000000000170 .L0 
     /tmp/ccjnbOKu.s:281    .text:000000000000017c .L0 
     /tmp/ccjnbOKu.s:282    .text:000000000000017c .L0 
     /tmp/ccjnbOKu.s:286    .text:000000000000018c .L0 
     /tmp/ccjnbOKu.s:289    .text:0000000000000190 .L0 
     /tmp/ccjnbOKu.s:290    .text:0000000000000190 .L0 
     /tmp/ccjnbOKu.s:294    .text:000000000000019c .L0 
     /tmp/ccjnbOKu.s:295    .text:000000000000019c .L0 
     /tmp/ccjnbOKu.s:302    .text:00000000000001ac .L0 
     /tmp/ccjnbOKu.s:303    .text:00000000000001ac .L0 
     /tmp/ccjnbOKu.s:768    .bss._ZGVZN11BuddySystem11getInstanceEPviE2bs:0000000000000000 _ZGVZN11BuddySystem11getInstanceEPviE2bs
     /tmp/ccjnbOKu.s:304    .text:00000000000001ac .L0 
     /tmp/ccjnbOKu.s:308    .text:00000000000001b8 .L0 
     /tmp/ccjnbOKu.s:314    .text:00000000000001b8 .L0 
     /tmp/ccjnbOKu.s:317    .text:00000000000001b8 .L0 
     /tmp/ccjnbOKu.s:318    .text:00000000000001b8 .L0 
     /tmp/ccjnbOKu.s:775    .bss._ZZN11BuddySystem11getInstanceEPviE2bs:0000000000000000 _ZZN11BuddySystem11getInstanceEPviE2bs
     /tmp/ccjnbOKu.s:324    .text:00000000000001d0 .L0 
     /tmp/ccjnbOKu.s:325    .text:00000000000001d0 .L0 
     /tmp/ccjnbOKu.s:329    .text:00000000000001e0 .L0 
     /tmp/ccjnbOKu.s:330    .text:00000000000001e0 .L0 
     /tmp/ccjnbOKu.s:336    .text:00000000000001f0 .L0 
     /tmp/ccjnbOKu.s:337    .text:00000000000001f0 .L0 
     /tmp/ccjnbOKu.s:338    .text:00000000000001f0 .L0 
     /tmp/ccjnbOKu.s:342    .text:00000000000001fc .L0 
     /tmp/ccjnbOKu.s:348    .text:00000000000001fc .L0 
     /tmp/ccjnbOKu.s:351    .text:00000000000001fc .L0 
     /tmp/ccjnbOKu.s:352    .text:00000000000001fc .L0 
     /tmp/ccjnbOKu.s:358    .text:0000000000000214 .L0 
     /tmp/ccjnbOKu.s:359    .text:0000000000000214 .L0 
     /tmp/ccjnbOKu.s:363    .text:0000000000000224 .L0 
     /tmp/ccjnbOKu.s:364    .text:0000000000000224 .L0 
     /tmp/ccjnbOKu.s:371    .text:0000000000000234 .L0 
     /tmp/ccjnbOKu.s:372    .text:0000000000000234 .L0 
     /tmp/ccjnbOKu.s:754    .bss._ZGVZN15MemoryAllocator11getInstanceEvE8instance:0000000000000000 _ZGVZN15MemoryAllocator11getInstanceEvE8instance
     /tmp/ccjnbOKu.s:373    .text:0000000000000234 .L0 
     /tmp/ccjnbOKu.s:382    .text:0000000000000240 .L0 
     /tmp/ccjnbOKu.s:385    .text:0000000000000240 .L0 
     /tmp/ccjnbOKu.s:386    .text:0000000000000240 .L0 
     /tmp/ccjnbOKu.s:761    .bss._ZZN15MemoryAllocator11getInstanceEvE8instance:0000000000000000 _ZZN15MemoryAllocator11getInstanceEvE8instance
GAS LISTING /tmp/ccjnbOKu.s 			page 25


     /tmp/ccjnbOKu.s:392    .text:0000000000000258 .L0 
     /tmp/ccjnbOKu.s:393    .text:0000000000000258 .L0 
     /tmp/ccjnbOKu.s:397    .text:0000000000000268 .L0 
     /tmp/ccjnbOKu.s:398    .text:0000000000000268 .L0 
     /tmp/ccjnbOKu.s:404    .text:0000000000000278 .L0 
     /tmp/ccjnbOKu.s:405    .text:0000000000000278 .L0 
     /tmp/ccjnbOKu.s:406    .text:0000000000000278 .L0 
     /tmp/ccjnbOKu.s:415    .text:0000000000000284 .L0 
     /tmp/ccjnbOKu.s:418    .text:0000000000000284 .L0 
     /tmp/ccjnbOKu.s:419    .text:0000000000000284 .L0 
     /tmp/ccjnbOKu.s:425    .text:000000000000029c .L0 
     /tmp/ccjnbOKu.s:426    .text:000000000000029c .L0 
     /tmp/ccjnbOKu.s:430    .text:00000000000002ac .L0 
     /tmp/ccjnbOKu.s:431    .text:00000000000002ac .L0 
     /tmp/ccjnbOKu.s:441    .text:00000000000002d0 .L0 
     /tmp/ccjnbOKu.s:445    .text:00000000000002d4 .L0 
     /tmp/ccjnbOKu.s:448    .text:00000000000002dc .L0 
     /tmp/ccjnbOKu.s:449    .text:00000000000002dc .L0 
     /tmp/ccjnbOKu.s:453    .text:00000000000002e8 .L0 
     /tmp/ccjnbOKu.s:454    .text:00000000000002e8 .L0 
     /tmp/ccjnbOKu.s:459    .text:00000000000002f8 .L0 
     /tmp/ccjnbOKu.s:460    .text:00000000000002f8 .L0 
     /tmp/ccjnbOKu.s:465    .text:0000000000000304 .L0 
     /tmp/ccjnbOKu.s:474    .text:000000000000030c .L0 
     /tmp/ccjnbOKu.s:502    .text:000000000000034c .L0 
     /tmp/ccjnbOKu.s:505    .text:0000000000000354 .L0 
     /tmp/ccjnbOKu.s:506    .text:0000000000000354 .L0 
     /tmp/ccjnbOKu.s:512    .text:0000000000000370 .L0 
     /tmp/ccjnbOKu.s:514    .text:0000000000000374 .L0 
     /tmp/ccjnbOKu.s:516    .text:0000000000000378 .L0 
     /tmp/ccjnbOKu.s:518    .text:000000000000037c .L0 
     /tmp/ccjnbOKu.s:520    .text:0000000000000380 .L0 
     /tmp/ccjnbOKu.s:521    .text:0000000000000380 .L0 
     /tmp/ccjnbOKu.s:523    .text:0000000000000384 .L0 
     /tmp/ccjnbOKu.s:525    .text:0000000000000388 .L0 
     /tmp/ccjnbOKu.s:526    .text:0000000000000388 .L0 
     /tmp/ccjnbOKu.s:528    .text:000000000000038c .L0 
     /tmp/ccjnbOKu.s:531    .text:0000000000000390 .L0 
     /tmp/ccjnbOKu.s:532    .text:0000000000000390 .L0 
     /tmp/ccjnbOKu.s:534    .text:0000000000000394 .L0 
     /tmp/ccjnbOKu.s:539    .text:00000000000003a0 .L0 
     /tmp/ccjnbOKu.s:541    .text:00000000000003a4 .L0 
     /tmp/ccjnbOKu.s:543    .text:00000000000003ac .L0 
     /tmp/ccjnbOKu.s:544    .text:00000000000003ac .L0 
     /tmp/ccjnbOKu.s:546    .text:00000000000003b0 .L0 
     /tmp/ccjnbOKu.s:547    .text:00000000000003b0 .L0 
     /tmp/ccjnbOKu.s:549    .text:00000000000003b4 .L0 
     /tmp/ccjnbOKu.s:550    .text:00000000000003b4 .L0 
     /tmp/ccjnbOKu.s:557    .text:00000000000003b8 .L0 
     /tmp/ccjnbOKu.s:570    .text:00000000000003c8 .L0 
     /tmp/ccjnbOKu.s:573    .text:00000000000003d0 .L0 
     /tmp/ccjnbOKu.s:574    .text:00000000000003d0 .L0 
     /tmp/ccjnbOKu.s:580    .text:00000000000003ec .L0 
     /tmp/ccjnbOKu.s:582    .text:00000000000003f0 .L0 
     /tmp/ccjnbOKu.s:584    .text:00000000000003f4 .L0 
     /tmp/ccjnbOKu.s:586    .text:00000000000003f8 .L0 
     /tmp/ccjnbOKu.s:588    .text:00000000000003fc .L0 
GAS LISTING /tmp/ccjnbOKu.s 			page 26


     /tmp/ccjnbOKu.s:589    .text:00000000000003fc .L0 
     /tmp/ccjnbOKu.s:591    .text:0000000000000400 .L0 
     /tmp/ccjnbOKu.s:593    .text:0000000000000404 .L0 
     /tmp/ccjnbOKu.s:594    .text:0000000000000404 .L0 
     /tmp/ccjnbOKu.s:596    .text:0000000000000408 .L0 
     /tmp/ccjnbOKu.s:599    .text:000000000000040c .L0 
     /tmp/ccjnbOKu.s:600    .text:000000000000040c .L0 
     /tmp/ccjnbOKu.s:602    .text:0000000000000410 .L0 
     /tmp/ccjnbOKu.s:607    .text:000000000000041c .L0 
     /tmp/ccjnbOKu.s:609    .text:0000000000000420 .L0 
     /tmp/ccjnbOKu.s:611    .text:0000000000000428 .L0 
     /tmp/ccjnbOKu.s:612    .text:0000000000000428 .L0 
     /tmp/ccjnbOKu.s:614    .text:000000000000042c .L0 
     /tmp/ccjnbOKu.s:615    .text:000000000000042c .L0 
     /tmp/ccjnbOKu.s:617    .text:0000000000000430 .L0 
     /tmp/ccjnbOKu.s:618    .text:0000000000000430 .L0 
     /tmp/ccjnbOKu.s:625    .text:0000000000000434 .L0 
     /tmp/ccjnbOKu.s:633    .text:0000000000000444 .L0 
     /tmp/ccjnbOKu.s:634    .text:0000000000000444 .L0 
     /tmp/ccjnbOKu.s:638    .text:0000000000000450 .L0 
     /tmp/ccjnbOKu.s:639    .text:0000000000000450 .L0 
     /tmp/ccjnbOKu.s:644    .text:0000000000000460 .L0 
     /tmp/ccjnbOKu.s:645    .text:0000000000000460 .L0 
     /tmp/ccjnbOKu.s:649    .text:000000000000046c .L0 
     /tmp/ccjnbOKu.s:650    .text:000000000000046c .L0 
     /tmp/ccjnbOKu.s:654    .text:0000000000000478 .L0 
     /tmp/ccjnbOKu.s:655    .text:0000000000000478 .L0 
     /tmp/ccjnbOKu.s:657    .text:000000000000047c .L0 
     /tmp/ccjnbOKu.s:658    .text:000000000000047c .L0 
     /tmp/ccjnbOKu.s:664    .text:0000000000000488 .L0 
     /tmp/ccjnbOKu.s:668    .text:000000000000048c .L0 
     /tmp/ccjnbOKu.s:671    .text:0000000000000494 .L0 
     /tmp/ccjnbOKu.s:672    .text:0000000000000494 .L0 
     /tmp/ccjnbOKu.s:676    .text:00000000000004a0 .L0 
     /tmp/ccjnbOKu.s:681    .text:00000000000004b0 .L0 
     /tmp/ccjnbOKu.s:688    .text:00000000000004b8 .L0 
     /tmp/ccjnbOKu.s:689    .text:00000000000004b8 .L0 
     /tmp/ccjnbOKu.s:693    .text:00000000000004c4 .L0 
     /tmp/ccjnbOKu.s:694    .text:00000000000004c8 .L0 
     /tmp/ccjnbOKu.s:696    .text:00000000000004cc .L0 
     /tmp/ccjnbOKu.s:697    .text:00000000000004cc .L0 
     /tmp/ccjnbOKu.s:700    .text:00000000000004d0 .L0 
     /tmp/ccjnbOKu.s:703    .text:00000000000004d4 .L0 
     /tmp/ccjnbOKu.s:705    .text:00000000000004d8 .L0 
     /tmp/ccjnbOKu.s:708    .text:00000000000004dc .L0 
     /tmp/ccjnbOKu.s:713    .text:00000000000004dc _GLOBAL__sub_I_s1
     /tmp/ccjnbOKu.s:716    .text:00000000000004dc .L0 
     /tmp/ccjnbOKu.s:717    .text:00000000000004dc .L0 
     /tmp/ccjnbOKu.s:718    .text:00000000000004e0 .L0 
     /tmp/ccjnbOKu.s:721    .text:00000000000004e8 .L0 
     /tmp/ccjnbOKu.s:722    .text:00000000000004e8 .L0 
     /tmp/ccjnbOKu.s:724    .text:00000000000004ec .L0 
     /tmp/ccjnbOKu.s:726    .text:00000000000004ec .L0 
     /tmp/ccjnbOKu.s:732    .text:0000000000000504 .L0 
     /tmp/ccjnbOKu.s:734    .text:0000000000000508 .L0 
     /tmp/ccjnbOKu.s:735    .text:0000000000000508 .L0 
     /tmp/ccjnbOKu.s:737    .text:000000000000050c .L0 
GAS LISTING /tmp/ccjnbOKu.s 			page 27


     /tmp/ccjnbOKu.s:739    .text:0000000000000510 .L0 
     /tmp/ccjnbOKu.s:781    .data:0000000000000000 b
     /tmp/ccjnbOKu.s:785    .data:0000000000000004 a
     /tmp/ccjnbOKu.s:796    .bss:0000000000000008 s2
     /tmp/ccjnbOKu.s:792    .bss:0000000000000000 s1
     /tmp/ccjnbOKu.s:789    .bss:0000000000000000 .LANCHOR0
     /tmp/ccjnbOKu.s:805    .text:0000000000000510 .L0 
     /tmp/ccjnbOKu.s:52     .text:000000000000004c .L0 
     /tmp/ccjnbOKu.s:66     .text:0000000000000070 .L0 
     /tmp/ccjnbOKu.s:167    .text:00000000000000dc .L0 
     /tmp/ccjnbOKu.s:141    .rodata.str1.8:0000000000000000 .LC0
     /tmp/ccjnbOKu.s:173    .text:00000000000000f0 .L0 
     /tmp/ccjnbOKu.s:214    .text:0000000000000124 .L0 
     /tmp/ccjnbOKu.s:188    .rodata.str1.8:0000000000000008 .LC1
     /tmp/ccjnbOKu.s:220    .text:0000000000000138 .L0 
     /tmp/ccjnbOKu.s:277    .text:0000000000000170 .L0 
     /tmp/ccjnbOKu.s:282    .text:000000000000017c .L0 
     /tmp/ccjnbOKu.s:235    .rodata.str1.8:0000000000000010 .LC2
     /tmp/ccjnbOKu.s:295    .text:000000000000019c .L0 
     /tmp/ccjnbOKu.s:304    .text:00000000000001ac .L0 
     /tmp/ccjnbOKu.s:320    .text:00000000000001c0 .L0 
     /tmp/ccjnbOKu.s:238    .rodata.str1.8:0000000000000030 .LC3
     /tmp/ccjnbOKu.s:325    .text:00000000000001d0 .L0 
     /tmp/ccjnbOKu.s:241    .rodata.str1.8:0000000000000038 .LC4
     /tmp/ccjnbOKu.s:330    .text:00000000000001e0 .L0 
     /tmp/ccjnbOKu.s:338    .text:00000000000001f0 .L0 
     /tmp/ccjnbOKu.s:354    .text:0000000000000204 .L0 
     /tmp/ccjnbOKu.s:359    .text:0000000000000214 .L0 
     /tmp/ccjnbOKu.s:244    .rodata.str1.8:0000000000000058 .LC5
     /tmp/ccjnbOKu.s:364    .text:0000000000000224 .L0 
     /tmp/ccjnbOKu.s:373    .text:0000000000000234 .L0 
     /tmp/ccjnbOKu.s:388    .text:0000000000000248 .L0 
     /tmp/ccjnbOKu.s:393    .text:0000000000000258 .L0 
     /tmp/ccjnbOKu.s:247    .rodata.str1.8:0000000000000078 .LC6
     /tmp/ccjnbOKu.s:398    .text:0000000000000268 .L0 
     /tmp/ccjnbOKu.s:406    .text:0000000000000278 .L0 
     /tmp/ccjnbOKu.s:421    .text:000000000000028c .L0 
     /tmp/ccjnbOKu.s:250    .rodata.str1.8:0000000000000098 .LC7
     /tmp/ccjnbOKu.s:426    .text:000000000000029c .L0 
     /tmp/ccjnbOKu.s:253    .rodata.str1.8:00000000000000a0 .LC8
     /tmp/ccjnbOKu.s:435    .text:00000000000002bc .L0 
     /tmp/ccjnbOKu.s:474    .text:000000000000030c .L0 
     /tmp/ccjnbOKu.s:478    .text:0000000000000320 .L0 
     /tmp/ccjnbOKu.s:486    .text:000000000000032c .L0 
     /tmp/ccjnbOKu.s:490    .text:0000000000000340 .L0 
     /tmp/ccjnbOKu.s:502    .text:000000000000034c .L0 
     /tmp/ccjnbOKu.s:506    .text:0000000000000354 .L0 
     /tmp/ccjnbOKu.s:508    .text:0000000000000360 .L0 
     /tmp/ccjnbOKu.s:541    .text:00000000000003a4 .L0 
     /tmp/ccjnbOKu.s:558    .text:00000000000003bc .L0 
     /tmp/ccjnbOKu.s:570    .text:00000000000003c8 .L0 
     /tmp/ccjnbOKu.s:574    .text:00000000000003d0 .L0 
     /tmp/ccjnbOKu.s:576    .text:00000000000003dc .L0 
     /tmp/ccjnbOKu.s:609    .text:0000000000000420 .L0 
     /tmp/ccjnbOKu.s:626    .text:0000000000000438 .L0 
     /tmp/ccjnbOKu.s:20     .text:000000000000000c .L11
     /tmp/ccjnbOKu.s:18     .text:0000000000000008 .L8
GAS LISTING /tmp/ccjnbOKu.s 			page 28


     /tmp/ccjnbOKu.s:163    .text:00000000000000dc .L13
     /tmp/ccjnbOKu.s:210    .text:0000000000000124 .L16
     /tmp/ccjnbOKu.s:469    .text:000000000000030c .L30
     /tmp/ccjnbOKu.s:481    .text:000000000000032c .L31
     /tmp/ccjnbOKu.s:493    .text:000000000000034c .L32
     /tmp/ccjnbOKu.s:560    .text:00000000000003c8 .L33
     /tmp/ccjnbOKu.s:629    .text:0000000000000444 .L25
     /tmp/ccjnbOKu.s:442    .text:00000000000002d4 .L26
     /tmp/ccjnbOKu.s:306    .text:00000000000001b8 .L19
     /tmp/ccjnbOKu.s:340    .text:00000000000001fc .L20
     /tmp/ccjnbOKu.s:537    .text:00000000000003a0 .L22
     /tmp/ccjnbOKu.s:375    .text:0000000000000240 .L21
     /tmp/ccjnbOKu.s:605    .text:000000000000041c .L24
     /tmp/ccjnbOKu.s:408    .text:0000000000000284 .L23
     /tmp/ccjnbOKu.s:685    .text:00000000000004b8 .L27
     /tmp/ccjnbOKu.s:666    .text:000000000000048c .L28
     /tmp/ccjnbOKu.s:41     .text:0000000000000034 .LEHB0
     /tmp/ccjnbOKu.s:9      .text:0000000000000000 .LFB67
     /tmp/ccjnbOKu.s:44     .text:000000000000003c .LEHE0
     /tmp/ccjnbOKu.s:47     .text:0000000000000044 .LEHB1
     /tmp/ccjnbOKu.s:50     .text:000000000000004c .LEHE1
     /tmp/ccjnbOKu.s:81     .text:0000000000000090 .L5
     /tmp/ccjnbOKu.s:55     .text:0000000000000058 .LEHB2
     /tmp/ccjnbOKu.s:58     .text:0000000000000060 .LEHE2
     /tmp/ccjnbOKu.s:61     .text:0000000000000068 .LEHB3
     /tmp/ccjnbOKu.s:64     .text:0000000000000070 .LEHE3
     /tmp/ccjnbOKu.s:93     .text:00000000000000ac .L6
     /tmp/ccjnbOKu.s:89     .text:00000000000000a4 .LEHB4
     /tmp/ccjnbOKu.s:92     .text:00000000000000ac .LEHE4
     /tmp/ccjnbOKu.s:100    .text:00000000000000c0 .LEHB5
     /tmp/ccjnbOKu.s:103    .text:00000000000000c8 .LEHE5
     /tmp/ccjnbOKu.s:2517   .debug_abbrev:0000000000000000 .Ldebug_abbrev0
     /tmp/ccjnbOKu.s:4186   .debug_str:00000000000007a4 .LASF112
     /tmp/ccjnbOKu.s:4070   .debug_str:0000000000000341 .LASF113
     /tmp/ccjnbOKu.s:3998   .debug_str:0000000000000089 .LASF114
     /tmp/ccjnbOKu.s:5      .text:0000000000000000 .Ltext0
     /tmp/ccjnbOKu.s:799    .text:0000000000000510 .Letext0
     /tmp/ccjnbOKu.s:3976   .debug_line:0000000000000000 .Ldebug_line0
     /tmp/ccjnbOKu.s:4086   .debug_str:00000000000003c8 .LASF0
     /tmp/ccjnbOKu.s:4100   .debug_str:000000000000044f .LASF1
     /tmp/ccjnbOKu.s:4156   .debug_str:00000000000006e7 .LASF2
     /tmp/ccjnbOKu.s:4164   .debug_str:000000000000071d .LASF4
     /tmp/ccjnbOKu.s:4090   .debug_str:00000000000003da .LASF3
     /tmp/ccjnbOKu.s:3984   .debug_str:0000000000000034 .LASF5
     /tmp/ccjnbOKu.s:4136   .debug_str:00000000000005f0 .LASF6
     /tmp/ccjnbOKu.s:4096   .debug_str:0000000000000437 .LASF7
     /tmp/ccjnbOKu.s:4060   .debug_str:00000000000002b2 .LASF8
     /tmp/ccjnbOKu.s:4072   .debug_str:0000000000000353 .LASF9
     /tmp/ccjnbOKu.s:4012   .debug_str:0000000000000130 .LASF10
     /tmp/ccjnbOKu.s:4192   .debug_str:0000000000000885 .LASF11
     /tmp/ccjnbOKu.s:4054   .debug_str:0000000000000285 .LASF12
     /tmp/ccjnbOKu.s:4024   .debug_str:00000000000001a6 .LASF13
     /tmp/ccjnbOKu.s:4010   .debug_str:0000000000000120 .LASF14
     /tmp/ccjnbOKu.s:4176   .debug_str:000000000000077a .LASF15
     /tmp/ccjnbOKu.s:4040   .debug_str:000000000000021e .LASF16
     /tmp/ccjnbOKu.s:4170   .debug_str:0000000000000751 .LASF17
     /tmp/ccjnbOKu.s:4050   .debug_str:0000000000000272 .LASF115
GAS LISTING /tmp/ccjnbOKu.s 			page 29


     /tmp/ccjnbOKu.s:4048   .debug_str:0000000000000266 .LASF30
     /tmp/ccjnbOKu.s:4196   .debug_str:00000000000008b7 .LASF43
     /tmp/ccjnbOKu.s:4014   .debug_str:000000000000013f .LASF18
     /tmp/ccjnbOKu.s:4098   .debug_str:000000000000044a .LASF19
     /tmp/ccjnbOKu.s:3994   .debug_str:0000000000000072 .LASF24
     /tmp/ccjnbOKu.s:4132   .debug_str:00000000000005a4 .LASF26
     /tmp/ccjnbOKu.s:4178   .debug_str:0000000000000786 .LASF20
     /tmp/ccjnbOKu.s:4126   .debug_str:0000000000000551 .LASF22
     /tmp/ccjnbOKu.s:4208   .debug_str:0000000000000938 .LASF21
     /tmp/ccjnbOKu.s:4062   .debug_str:00000000000002c2 .LASF23
     /tmp/ccjnbOKu.s:4056   .debug_str:0000000000000294 .LASF25
     /tmp/ccjnbOKu.s:4134   .debug_str:00000000000005c3 .LASF27
     /tmp/ccjnbOKu.s:4210   .debug_str:0000000000000944 .LASF28
     /tmp/ccjnbOKu.s:4022   .debug_str:0000000000000177 .LASF29
     /tmp/ccjnbOKu.s:4074   .debug_str:0000000000000361 .LASF31
     /tmp/ccjnbOKu.s:4110   .debug_str:00000000000004a1 .LASF32
     /tmp/ccjnbOKu.s:4206   .debug_str:000000000000092b .LASF33
     /tmp/ccjnbOKu.s:4222   .debug_str:00000000000009a7 .LASF34
     /tmp/ccjnbOKu.s:4084   .debug_str:00000000000003be .LASF41
     /tmp/ccjnbOKu.s:4124   .debug_str:0000000000000534 .LASF67
     /tmp/ccjnbOKu.s:4162   .debug_str:000000000000070f .LASF35
     /tmp/ccjnbOKu.s:4066   .debug_str:0000000000000315 .LASF36
     /tmp/ccjnbOKu.s:4076   .debug_str:0000000000000376 .LASF37
     /tmp/ccjnbOKu.s:4198   .debug_str:00000000000008bf .LASF38
     /tmp/ccjnbOKu.s:4018   .debug_str:0000000000000159 .LASF39
     /tmp/ccjnbOKu.s:4154   .debug_str:00000000000006b8 .LASF40
     /tmp/ccjnbOKu.s:4150   .debug_str:0000000000000688 .LASF116
     /tmp/ccjnbOKu.s:4144   .debug_str:000000000000063a .LASF117
     /tmp/ccjnbOKu.s:3988   .debug_str:0000000000000052 .LASF42
     /tmp/ccjnbOKu.s:4184   .debug_str:000000000000079c .LASF44
     /tmp/ccjnbOKu.s:4002   .debug_str:00000000000000d6 .LASF45
     /tmp/ccjnbOKu.s:4120   .debug_str:00000000000004f8 .LASF118
     /tmp/ccjnbOKu.s:4092   .debug_str:00000000000003ec .LASF46
     /tmp/ccjnbOKu.s:4160   .debug_str:0000000000000705 .LASF47
     /tmp/ccjnbOKu.s:4200   .debug_str:00000000000008e2 .LASF48
     /tmp/ccjnbOKu.s:4026   .debug_str:00000000000001b6 .LASF49
     /tmp/ccjnbOKu.s:4114   .debug_str:00000000000004b5 .LASF50
     /tmp/ccjnbOKu.s:3996   .debug_str:000000000000007d .LASF51
     /tmp/ccjnbOKu.s:4142   .debug_str:0000000000000615 .LASF52
     /tmp/ccjnbOKu.s:4152   .debug_str:000000000000069f .LASF53
     /tmp/ccjnbOKu.s:4064   .debug_str:00000000000002e4 .LASF54
     /tmp/ccjnbOKu.s:4034   .debug_str:00000000000001ea .LASF55
     /tmp/ccjnbOKu.s:4094   .debug_str:0000000000000408 .LASF56
     /tmp/ccjnbOKu.s:4168   .debug_str:0000000000000747 .LASF57
     /tmp/ccjnbOKu.s:4204   .debug_str:0000000000000921 .LASF58
     /tmp/ccjnbOKu.s:4226   .debug_str:00000000000009c5 .LASF59
     /tmp/ccjnbOKu.s:4000   .debug_str:00000000000000bd .LASF119
     /tmp/ccjnbOKu.s:4112   .debug_str:00000000000004b0 .LASF60
     /tmp/ccjnbOKu.s:4182   .debug_str:0000000000000797 .LASF61
     /tmp/ccjnbOKu.s:4172   .debug_str:0000000000000767 .LASF120
     /tmp/ccjnbOKu.s:4016   .debug_str:0000000000000144 .LASF62
     /tmp/ccjnbOKu.s:4038   .debug_str:0000000000000219 .LASF64
     /tmp/ccjnbOKu.s:3986   .debug_str:000000000000003b .LASF63
     /tmp/ccjnbOKu.s:4180   .debug_str:0000000000000790 .LASF65
     /tmp/ccjnbOKu.s:4174   .debug_str:0000000000000771 .LASF69
     /tmp/ccjnbOKu.s:3992   .debug_str:000000000000006a .LASF66
     /tmp/ccjnbOKu.s:4122   .debug_str:000000000000051c .LASF68
GAS LISTING /tmp/ccjnbOKu.s 			page 30


     /tmp/ccjnbOKu.s:4042   .debug_str:0000000000000234 .LASF70
     /tmp/ccjnbOKu.s:3978   .debug_str:0000000000000000 .LASF76
     /tmp/ccjnbOKu.s:4006   .debug_str:0000000000000105 .LASF71
     /tmp/ccjnbOKu.s:4008   .debug_str:000000000000010f .LASF79
     /tmp/ccjnbOKu.s:4080   .debug_str:0000000000000393 .LASF121
     /tmp/ccjnbOKu.s:4030   .debug_str:00000000000001d4 .LASF72
     /tmp/ccjnbOKu.s:3990   .debug_str:0000000000000062 .LASF73
     /tmp/ccjnbOKu.s:4218   .debug_str:0000000000000984 .LASF74
     /tmp/ccjnbOKu.s:4116   .debug_str:00000000000004da .LASF75
     /tmp/ccjnbOKu.s:4188   .debug_str:0000000000000868 .LASF77
     /tmp/ccjnbOKu.s:4214   .debug_str:000000000000096b .LASF78
     /tmp/ccjnbOKu.s:3980   .debug_str:0000000000000013 .LASF80
     /tmp/ccjnbOKu.s:4046   .debug_str:0000000000000254 .LASF81
     /tmp/ccjnbOKu.s:714    .text:00000000000004dc .LFB68
     /tmp/ccjnbOKu.s:740    .text:0000000000000510 .LFE68
     /tmp/ccjnbOKu.s:730    .text:0000000000000500 .LVL70
     /tmp/ccjnbOKu.s:4004   .debug_str:00000000000000db .LASF82
     /tmp/ccjnbOKu.s:105    .text:00000000000000c8 .LFE67
     /tmp/ccjnbOKu.s:4078   .debug_str:0000000000000384 .LASF83
     /tmp/ccjnbOKu.s:3715   .debug_loc:0000000000000000 .LLST0
     /tmp/ccjnbOKu.s:4220   .debug_str:000000000000099c .LASF84
     /tmp/ccjnbOKu.s:3729   .debug_loc:0000000000000039 .LLST1
     /tmp/ccjnbOKu.s:43     .text:000000000000003c .LVL2
     /tmp/ccjnbOKu.s:49     .text:000000000000004c .LVL3
     /tmp/ccjnbOKu.s:57     .text:0000000000000060 .LVL4
     /tmp/ccjnbOKu.s:63     .text:0000000000000070 .LVL5
     /tmp/ccjnbOKu.s:87     .text:00000000000000a0 .LVL6
     /tmp/ccjnbOKu.s:91     .text:00000000000000ac .LVL7
     /tmp/ccjnbOKu.s:98     .text:00000000000000bc .LVL8
     /tmp/ccjnbOKu.s:102    .text:00000000000000c8 .LVL9
     /tmp/ccjnbOKu.s:4140   .debug_str:000000000000060c .LASF85
     /tmp/ccjnbOKu.s:4118   .debug_str:00000000000004eb .LASF86
     /tmp/ccjnbOKu.s:260    .text:0000000000000158 .LFB58
     /tmp/ccjnbOKu.s:709    .text:00000000000004dc .LFE58
     /tmp/ccjnbOKu.s:4102   .debug_str:0000000000000462 .LASF87
     /tmp/ccjnbOKu.s:3743   .debug_loc:0000000000000072 .LLST6
     /tmp/ccjnbOKu.s:4230   .debug_str:00000000000009d3 .LASF88
     /tmp/ccjnbOKu.s:3750   .debug_loc:0000000000000095 .LLST7
     /tmp/ccjnbOKu.s:4228   .debug_str:00000000000009cd .LASF91
     /tmp/ccjnbOKu.s:4088   .debug_str:00000000000003d5 .LASF89
     /tmp/ccjnbOKu.s:3757   .debug_loc:00000000000000b8 .LLST8
     /tmp/ccjnbOKu.s:439    .text:00000000000002d0 .LBB74
     /tmp/ccjnbOKu.s:470    .text:000000000000030c .LBE74
     /tmp/ccjnbOKu.s:3801   .debug_loc:000000000000015f .LLST17
     /tmp/ccjnbOKu.s:451    .text:00000000000002e8 .LVL41
     /tmp/ccjnbOKu.s:463    .text:0000000000000304 .LVL43
     /tmp/ccjnbOKu.s:662    .text:0000000000000488 .LBB79
     /tmp/ccjnbOKu.s:686    .text:00000000000004b8 .LBE79
     /tmp/ccjnbOKu.s:3812   .debug_loc:0000000000000195 .LLST18
     /tmp/ccjnbOKu.s:679    .text:00000000000004b0 .LVL63
     /tmp/ccjnbOKu.s:299    .text:00000000000001ac .LBB46
     /tmp/ccjnbOKu.s:3950   .debug_ranges:0000000000000000 .Ldebug_ranges0
     /tmp/ccjnbOKu.s:3823   .debug_loc:00000000000001cb .LLST9
     /tmp/ccjnbOKu.s:476    .text:000000000000031c .LVL46
     /tmp/ccjnbOKu.s:312    .text:00000000000001b8 .LBB49
     /tmp/ccjnbOKu.s:316    .text:00000000000001b8 .LBE49
     /tmp/ccjnbOKu.s:334    .text:00000000000001f0 .LBB51
GAS LISTING /tmp/ccjnbOKu.s 			page 31


     /tmp/ccjnbOKu.s:3836   .debug_loc:0000000000000203 .LLST11
     /tmp/ccjnbOKu.s:488    .text:000000000000033c .LVL48
     /tmp/ccjnbOKu.s:346    .text:00000000000001fc .LBB54
     /tmp/ccjnbOKu.s:350    .text:00000000000001fc .LBE54
     /tmp/ccjnbOKu.s:368    .text:0000000000000234 .LBB56
     /tmp/ccjnbOKu.s:498    .text:000000000000034c .LBB58
     /tmp/ccjnbOKu.s:555    .text:00000000000003b8 .LBE58
     /tmp/ccjnbOKu.s:3849   .debug_loc:000000000000023b .LLST13
     /tmp/ccjnbOKu.s:503    .text:0000000000000354 .LBB61
     /tmp/ccjnbOKu.s:552    .text:00000000000003b8 .LBE61
     /tmp/ccjnbOKu.s:3858   .debug_loc:0000000000000267 .LLST14
     /tmp/ccjnbOKu.s:380    .text:0000000000000240 .LBB63
     /tmp/ccjnbOKu.s:384    .text:0000000000000240 .LBE63
     /tmp/ccjnbOKu.s:402    .text:0000000000000278 .LBB65
     /tmp/ccjnbOKu.s:566    .text:00000000000003c8 .LBB67
     /tmp/ccjnbOKu.s:623    .text:0000000000000434 .LBE67
     /tmp/ccjnbOKu.s:3865   .debug_loc:000000000000028a .LLST15
     /tmp/ccjnbOKu.s:571    .text:00000000000003d0 .LBB70
     /tmp/ccjnbOKu.s:620    .text:0000000000000434 .LBE70
     /tmp/ccjnbOKu.s:3874   .debug_loc:00000000000002b6 .LLST16
     /tmp/ccjnbOKu.s:413    .text:0000000000000284 .LBB72
     /tmp/ccjnbOKu.s:417    .text:0000000000000284 .LBE72
     /tmp/ccjnbOKu.s:292    .text:000000000000019c .LVL22
     /tmp/ccjnbOKu.s:297    .text:00000000000001ac .LVL23
     /tmp/ccjnbOKu.s:322    .text:00000000000001d0 .LVL25
     /tmp/ccjnbOKu.s:327    .text:00000000000001e0 .LVL26
     /tmp/ccjnbOKu.s:332    .text:00000000000001f0 .LVL27
     /tmp/ccjnbOKu.s:356    .text:0000000000000214 .LVL29
     /tmp/ccjnbOKu.s:361    .text:0000000000000224 .LVL30
     /tmp/ccjnbOKu.s:366    .text:0000000000000234 .LVL31
     /tmp/ccjnbOKu.s:390    .text:0000000000000258 .LVL33
     /tmp/ccjnbOKu.s:395    .text:0000000000000268 .LVL34
     /tmp/ccjnbOKu.s:400    .text:0000000000000278 .LVL35
     /tmp/ccjnbOKu.s:423    .text:000000000000029c .LVL37
     /tmp/ccjnbOKu.s:428    .text:00000000000002ac .LVL38
     /tmp/ccjnbOKu.s:437    .text:00000000000002cc .LVL39
     /tmp/ccjnbOKu.s:636    .text:0000000000000450 .LVL56
     /tmp/ccjnbOKu.s:642    .text:0000000000000460 .LVL57
     /tmp/ccjnbOKu.s:647    .text:000000000000046c .LVL58
     /tmp/ccjnbOKu.s:652    .text:0000000000000478 .LVL59
     /tmp/ccjnbOKu.s:661    .text:0000000000000488 .LVL61
     /tmp/ccjnbOKu.s:691    .text:00000000000004c4 .LVL66
     /tmp/ccjnbOKu.s:195    .text:0000000000000110 .LFB57
     /tmp/ccjnbOKu.s:231    .text:0000000000000158 .LFE57
     /tmp/ccjnbOKu.s:4058   .debug_str:00000000000002ad .LASF90
     /tmp/ccjnbOKu.s:3881   .debug_loc:00000000000002d9 .LLST4
     /tmp/ccjnbOKu.s:3895   .debug_loc:0000000000000312 .LLST5
     /tmp/ccjnbOKu.s:217    .text:0000000000000138 .LVL17
     /tmp/ccjnbOKu.s:222    .text:0000000000000148 .LVL18
     /tmp/ccjnbOKu.s:227    .text:0000000000000154 .LVL19
     /tmp/ccjnbOKu.s:148    .text:00000000000000c8 .LFB52
     /tmp/ccjnbOKu.s:184    .text:0000000000000110 .LFE52
     /tmp/ccjnbOKu.s:3909   .debug_loc:000000000000034b .LLST2
     /tmp/ccjnbOKu.s:3923   .debug_loc:0000000000000384 .LLST3
     /tmp/ccjnbOKu.s:170    .text:00000000000000f0 .LVL12
     /tmp/ccjnbOKu.s:175    .text:0000000000000100 .LVL13
     /tmp/ccjnbOKu.s:180    .text:000000000000010c .LVL14
GAS LISTING /tmp/ccjnbOKu.s 			page 32


     /tmp/ccjnbOKu.s:4032   .debug_str:00000000000001dd .LASF92
     /tmp/ccjnbOKu.s:4106   .debug_str:0000000000000478 .LASF122
     /tmp/ccjnbOKu.s:4068   .debug_str:0000000000000338 .LASF93
     /tmp/ccjnbOKu.s:4128   .debug_str:000000000000056e .LASF123
     /tmp/ccjnbOKu.s:4194   .debug_str:0000000000000890 .LASF124
     /tmp/ccjnbOKu.s:4052   .debug_str:000000000000027f .LASF94
     /tmp/ccjnbOKu.s:4224   .debug_str:00000000000009b8 .LASF95
     /tmp/ccjnbOKu.s:4130   .debug_str:000000000000059d .LASF96
     /tmp/ccjnbOKu.s:3982   .debug_str:0000000000000024 .LASF97
     /tmp/ccjnbOKu.s:4216   .debug_str:0000000000000975 .LASF125
     /tmp/ccjnbOKu.s:4036   .debug_str:0000000000000201 .LASF126
     /tmp/ccjnbOKu.s:4082   .debug_str:000000000000039a .LASF98
     /tmp/ccjnbOKu.s:4028   .debug_str:00000000000001c3 .LASF99
     /tmp/ccjnbOKu.s:4166   .debug_str:0000000000000724 .LASF100
     /tmp/ccjnbOKu.s:4158   .debug_str:00000000000006f5 .LASF101
     /tmp/ccjnbOKu.s:4146   .debug_str:0000000000000651 .LASF102
     /tmp/ccjnbOKu.s:4104   .debug_str:0000000000000468 .LASF103
     /tmp/ccjnbOKu.s:4108   .debug_str:0000000000000491 .LASF104
     /tmp/ccjnbOKu.s:4190   .debug_str:000000000000087b .LASF105
     /tmp/ccjnbOKu.s:4020   .debug_str:0000000000000164 .LASF106
     /tmp/ccjnbOKu.s:4212   .debug_str:000000000000095f .LASF107
     /tmp/ccjnbOKu.s:4044   .debug_str:0000000000000245 .LASF108
     /tmp/ccjnbOKu.s:4138   .debug_str:0000000000000603 .LASF109
     /tmp/ccjnbOKu.s:4202   .debug_str:00000000000008fe .LASF110
     /tmp/ccjnbOKu.s:4148   .debug_str:0000000000000676 .LASF111
     /tmp/ccjnbOKu.s:15     .text:0000000000000000 .LVL0
     /tmp/ccjnbOKu.s:40     .text:0000000000000034 .LVL1
     /tmp/ccjnbOKu.s:279    .text:000000000000017c .LVL20
     /tmp/ccjnbOKu.s:287    .text:0000000000000190 .LVL21
     /tmp/ccjnbOKu.s:461    .text:00000000000002fc .LVL42
     /tmp/ccjnbOKu.s:466    .text:0000000000000308 .LVL44
     /tmp/ccjnbOKu.s:659    .text:0000000000000480 .LVL60
     /tmp/ccjnbOKu.s:698    .text:00000000000004cc .LVL67
     /tmp/ccjnbOKu.s:706    .text:00000000000004d8 .LVL69
     /tmp/ccjnbOKu.s:443    .text:00000000000002d4 .LVL40
     /tmp/ccjnbOKu.s:628    .text:0000000000000444 .LVL55
     /tmp/ccjnbOKu.s:665    .text:000000000000048c .LVL62
     /tmp/ccjnbOKu.s:682    .text:00000000000004b4 .LVL64
     /tmp/ccjnbOKu.s:684    .text:00000000000004b8 .LVL65
     /tmp/ccjnbOKu.s:701    .text:00000000000004d0 .LVL68
     /tmp/ccjnbOKu.s:309    .text:00000000000001b8 .LVL24
     /tmp/ccjnbOKu.s:468    .text:000000000000030c .LVL45
     /tmp/ccjnbOKu.s:480    .text:000000000000032c .LVL47
     /tmp/ccjnbOKu.s:343    .text:00000000000001fc .LVL28
     /tmp/ccjnbOKu.s:492    .text:000000000000034c .LVL49
     /tmp/ccjnbOKu.s:551    .text:00000000000003b8 .LVL51
     /tmp/ccjnbOKu.s:529    .text:0000000000000390 .LVL50
     /tmp/ccjnbOKu.s:561    .text:00000000000003c8 .LVL52
     /tmp/ccjnbOKu.s:619    .text:0000000000000434 .LVL54
     /tmp/ccjnbOKu.s:597    .text:000000000000040c .LVL53
     /tmp/ccjnbOKu.s:198    .text:0000000000000110 .LVL15
     /tmp/ccjnbOKu.s:209    .text:0000000000000124 .LVL16
     /tmp/ccjnbOKu.s:151    .text:00000000000000c8 .LVL10
     /tmp/ccjnbOKu.s:162    .text:00000000000000dc .LVL11
     /tmp/ccjnbOKu.s:806    .debug_info:0000000000000000 .Ldebug_info0
     /tmp/ccjnbOKu.s:311    .text:00000000000001b8 .LBE46
     /tmp/ccjnbOKu.s:471    .text:000000000000030c .LBB75
GAS LISTING /tmp/ccjnbOKu.s 			page 33


     /tmp/ccjnbOKu.s:483    .text:000000000000032c .LBE75
     /tmp/ccjnbOKu.s:345    .text:00000000000001fc .LBE51
     /tmp/ccjnbOKu.s:484    .text:000000000000032c .LBB76
     /tmp/ccjnbOKu.s:495    .text:000000000000034c .LBE76
     /tmp/ccjnbOKu.s:379    .text:0000000000000240 .LBE56
     /tmp/ccjnbOKu.s:496    .text:000000000000034c .LBB77
     /tmp/ccjnbOKu.s:563    .text:00000000000003c8 .LBE77
     /tmp/ccjnbOKu.s:412    .text:0000000000000284 .LBE65
     /tmp/ccjnbOKu.s:564    .text:00000000000003c8 .LBB78
     /tmp/ccjnbOKu.s:631    .text:0000000000000444 .LBE78
     /tmp/ccjnbOKu.s:108    .gcc_except_table:0000000000000000 .LLSDA67

UNDEFINED SYMBOLS
_Znwm
_ZN9SemaphoreC1Ej
_ZdlPv
_Unwind_Resume
__gxx_personality_v0
_ZN9Semaphore4waitEv
_Z11printStringPKc
_ZN9Semaphore6signalEv
HEAP_START_ADDR
HEAP_END_ADDR
_Z9kmem_initPvi
_Z8printIntiii
_Z17kmem_cache_createPKcmPFvPvES3_
_Z16kmem_cache_allocP12kmem_cache_s
_Z15kmem_cache_infoP12kmem_cache_s
_ZN11BuddySystemC1Ev
_Z15kmem_cache_freeP12kmem_cache_sPv
